

Microchip MPLAB XC8 Assembler V2.45 build 20230818022343 
                                                                                               Wed Apr 10 18:55:17 2024

Microchip MPLAB XC8 C Compiler v2.45 (Free license) build 20230818022343 Og1 
     1                           	processor	16F1719
     2                           	pagewidth 120
     3                           	opt	flic
     4                           	psect	stringtext1,global,class=STRCODE,delta=2,noexec
     5                           	psect	stringtext2,global,class=STRCODE,delta=2,noexec
     6                           	psect	stringtext3,global,class=STRCODE,delta=2,noexec
     7                           	psect	stringtext4,global,class=STRCODE,delta=2,noexec
     8                           	psect	stringtext5,global,class=STRCODE,delta=2,noexec
     9                           	psect	cinit,global,class=CODE,merge=1,delta=2
    10                           	psect	cstackBANK1,global,class=BANK1,space=1,delta=1,noexec
    11                           	psect	cstackCOMMON,global,class=COMMON,space=1,delta=1,noexec
    12                           	psect	cstackBANK0,global,class=BANK0,space=1,delta=1,noexec
    13                           	psect	maintext,global,class=CODE,merge=1,split=1,delta=2
    14                           	psect	text1,local,class=CODE,merge=1,delta=2
    15                           	psect	text2,local,class=CODE,merge=1,delta=2
    16                           	psect	text3,local,class=CODE,merge=1,delta=2,group=1
    17                           	psect	text4,local,class=CODE,merge=1,delta=2,group=1
    18                           	psect	text5,local,class=CODE,merge=1,delta=2,group=1
    19                           	psect	text6,local,class=CODE,merge=1,delta=2,group=1
    20                           	psect	text7,local,class=CODE,merge=1,delta=2,group=1
    21                           	psect	text8,local,class=CODE,merge=1,delta=2,group=1
    22                           	psect	text9,local,class=CODE,merge=1,delta=2
    23                           	psect	text10,local,class=CODE,merge=1,delta=2
    24                           	psect	text11,local,class=CODE,merge=1,delta=2,group=1
    25                           	psect	text12,local,class=CODE,merge=1,delta=2,group=1
    26                           	psect	text13,local,class=CODE,merge=1,delta=2,group=1
    27                           	psect	text14,local,class=CODE,merge=1,delta=2
    28                           	psect	text15,local,class=CODE,merge=1,delta=2
    29                           	psect	text16,local,class=CODE,merge=1,delta=2
    30                           	psect	text17,local,class=CODE,merge=1,delta=2
    31                           	psect	text18,local,class=CODE,merge=1,delta=2
    32                           	psect	text19,local,class=CODE,merge=1,delta=2
    33                           	psect	text20,local,class=CODE,merge=1,delta=2,group=2
    34                           	psect	text21,local,class=CODE,merge=1,delta=2
    35                           	psect	text22,local,class=CODE,merge=1,delta=2
    36                           	psect	text23,local,class=CODE,merge=1,delta=2
    37                           	psect	text24,local,class=CODE,merge=1,delta=2
    38                           	psect	config,global,abs,ovrld,class=CONFIG,space=4,delta=2,noexec
    39                           	dabs	1,0x7E,2
    40     0000                     
    41                           ; Generated 06/07/2023 GMT
    42                           ; 
    43                           ; Copyright © 2023, Microchip Technology Inc. and its subsidiaries ("Microchip")
    44                           ; All rights reserved.
    45                           ; 
    46                           ; This software is developed by Microchip Technology Inc. and its subsidiaries ("Microch
      +                          ip").
    47                           ; 
    48                           ; Redistribution and use in source and binary forms, with or without modification, are
    49                           ; permitted provided that the following conditions are met:
    50                           ; 
    51                           ;     1. Redistributions of source code must retain the above copyright notice, this lis
      +                          t of
    52                           ;        conditions and the following disclaimer.
    53                           ; 
    54                           ;     2. Redistributions in binary form must reproduce the above copyright notice, this 
      +                          list
    55                           ;        of conditions and the following disclaimer in the documentation and/or other
    56                           ;        materials provided with the distribution. Publication is not required when
    57                           ;        this file is used in an embedded application.
    58                           ; 
    59                           ;     3. Microchip's name may not be used to endorse or promote products derived from th
      +                          is
    60                           ;        software without specific prior written permission.
    61                           ; 
    62                           ; THIS SOFTWARE IS PROVIDED BY MICROCHIP "AS IS" AND ANY EXPRESS OR IMPLIED WARRANTIES,
    63                           ; INCLUDING, BUT NOT LIMITED TO, THE IMPLIED WARRANTIES OF MERCHANTABILITY AND FITNESS F
      +                          OR
    64                           ; PURPOSE ARE DISCLAIMED.  IN NO EVENT SHALL MICROCHIP BE LIABLE FOR ANY DIRECT, INDIREC
      +                          T,
    65                           ; INCIDENTAL, SPECIAL, EXEMPLARY, OR CONSEQUENTIAL DAMAGES (INCLUDING BUT NOT LIMITED TO
    66                           ; PROCUREMENT OF SUBSTITUTE GOODS OR SERVICES; LOSS OF USE, DATA OR PROFITS; OR BUSINESS
    67                           ; INTERRUPTION) HOWSOEVER CAUSED AND ON ANY THEORY OF LIABILITY, WHETHER IN CONTRACT, ST
      +                          RICT
    68                           ; LIABILITY, OR TORT (INCLUDING NEGLIGENCE OR OTHERWISE) ARISING IN ANY WAY OUT OF THE U
      +                          SE OF
    69                           ; THIS SOFTWARE, EVEN IF ADVISED OF THE POSSIBILITY OF SUCH DAMAGE.
    70                           ; 
    71                           ; 
    72                           ; Code-generator required, PIC16F1719 Definitions
    73                           ; 
    74                           ; SFR Addresses
    75     0000                     	;# 
    76     0001                     	;# 
    77     0002                     	;# 
    78     0003                     	;# 
    79     0004                     	;# 
    80     0005                     	;# 
    81     0006                     	;# 
    82     0007                     	;# 
    83     0008                     	;# 
    84     0009                     	;# 
    85     000A                     	;# 
    86     000B                     	;# 
    87     000C                     	;# 
    88     000D                     	;# 
    89     000E                     	;# 
    90     000F                     	;# 
    91     0010                     	;# 
    92     0011                     	;# 
    93     0012                     	;# 
    94     0013                     	;# 
    95     0015                     	;# 
    96     0016                     	;# 
    97     0016                     	;# 
    98     0017                     	;# 
    99     0018                     	;# 
   100     0019                     	;# 
   101     001A                     	;# 
   102     001B                     	;# 
   103     001C                     	;# 
   104     008C                     	;# 
   105     008D                     	;# 
   106     008E                     	;# 
   107     008F                     	;# 
   108     0090                     	;# 
   109     0091                     	;# 
   110     0092                     	;# 
   111     0093                     	;# 
   112     0095                     	;# 
   113     0096                     	;# 
   114     0097                     	;# 
   115     0098                     	;# 
   116     0099                     	;# 
   117     009A                     	;# 
   118     009B                     	;# 
   119     009B                     	;# 
   120     009C                     	;# 
   121     009D                     	;# 
   122     009E                     	;# 
   123     009F                     	;# 
   124     010C                     	;# 
   125     010D                     	;# 
   126     010E                     	;# 
   127     010F                     	;# 
   128     0110                     	;# 
   129     0111                     	;# 
   130     0112                     	;# 
   131     0113                     	;# 
   132     0114                     	;# 
   133     0115                     	;# 
   134     0116                     	;# 
   135     0117                     	;# 
   136     0118                     	;# 
   137     0119                     	;# 
   138     011A                     	;# 
   139     011B                     	;# 
   140     011B                     	;# 
   141     011C                     	;# 
   142     018C                     	;# 
   143     018D                     	;# 
   144     018E                     	;# 
   145     018F                     	;# 
   146     0190                     	;# 
   147     0191                     	;# 
   148     0191                     	;# 
   149     0192                     	;# 
   150     0193                     	;# 
   151     0193                     	;# 
   152     0194                     	;# 
   153     0195                     	;# 
   154     0196                     	;# 
   155     0197                     	;# 
   156     0199                     	;# 
   157     0199                     	;# 
   158     0199                     	;# 
   159     019A                     	;# 
   160     019A                     	;# 
   161     019A                     	;# 
   162     019B                     	;# 
   163     019B                     	;# 
   164     019B                     	;# 
   165     019B                     	;# 
   166     019B                     	;# 
   167     019C                     	;# 
   168     019C                     	;# 
   169     019C                     	;# 
   170     019D                     	;# 
   171     019D                     	;# 
   172     019D                     	;# 
   173     019E                     	;# 
   174     019E                     	;# 
   175     019E                     	;# 
   176     019F                     	;# 
   177     019F                     	;# 
   178     019F                     	;# 
   179     019F                     	;# 
   180     019F                     	;# 
   181     020C                     	;# 
   182     020D                     	;# 
   183     020E                     	;# 
   184     020F                     	;# 
   185     0210                     	;# 
   186     0211                     	;# 
   187     0211                     	;# 
   188     0212                     	;# 
   189     0212                     	;# 
   190     0213                     	;# 
   191     0213                     	;# 
   192     0214                     	;# 
   193     0214                     	;# 
   194     0215                     	;# 
   195     0215                     	;# 
   196     0215                     	;# 
   197     0215                     	;# 
   198     0216                     	;# 
   199     0216                     	;# 
   200     0217                     	;# 
   201     0217                     	;# 
   202     028C                     	;# 
   203     028D                     	;# 
   204     028E                     	;# 
   205     028F                     	;# 
   206     0290                     	;# 
   207     0291                     	;# 
   208     0291                     	;# 
   209     0292                     	;# 
   210     0293                     	;# 
   211     0293                     	;# 
   212     0298                     	;# 
   213     0298                     	;# 
   214     0299                     	;# 
   215     029A                     	;# 
   216     029A                     	;# 
   217     029E                     	;# 
   218     030C                     	;# 
   219     030D                     	;# 
   220     030E                     	;# 
   221     030F                     	;# 
   222     0310                     	;# 
   223     038C                     	;# 
   224     038D                     	;# 
   225     038E                     	;# 
   226     038F                     	;# 
   227     0390                     	;# 
   228     0391                     	;# 
   229     0392                     	;# 
   230     0393                     	;# 
   231     0394                     	;# 
   232     0395                     	;# 
   233     0396                     	;# 
   234     0397                     	;# 
   235     0398                     	;# 
   236     0399                     	;# 
   237     039D                     	;# 
   238     039E                     	;# 
   239     039F                     	;# 
   240     0415                     	;# 
   241     0416                     	;# 
   242     0417                     	;# 
   243     041C                     	;# 
   244     041D                     	;# 
   245     041E                     	;# 
   246     0498                     	;# 
   247     0498                     	;# 
   248     0499                     	;# 
   249     049A                     	;# 
   250     049B                     	;# 
   251     049B                     	;# 
   252     049C                     	;# 
   253     049D                     	;# 
   254     049E                     	;# 
   255     049F                     	;# 
   256     0511                     	;# 
   257     0515                     	;# 
   258     0617                     	;# 
   259     0618                     	;# 
   260     0619                     	;# 
   261     0619                     	;# 
   262     061A                     	;# 
   263     061B                     	;# 
   264     061C                     	;# 
   265     061C                     	;# 
   266     0691                     	;# 
   267     0692                     	;# 
   268     0693                     	;# 
   269     0694                     	;# 
   270     0695                     	;# 
   271     0696                     	;# 
   272     0697                     	;# 
   273     0698                     	;# 
   274     0699                     	;# 
   275     069A                     	;# 
   276     069B                     	;# 
   277     069C                     	;# 
   278     069D                     	;# 
   279     069E                     	;# 
   280     069F                     	;# 
   281     0E0F                     	;# 
   282     0E10                     	;# 
   283     0E11                     	;# 
   284     0E12                     	;# 
   285     0E13                     	;# 
   286     0E14                     	;# 
   287     0E15                     	;# 
   288     0E17                     	;# 
   289     0E20                     	;# 
   290     0E21                     	;# 
   291     0E22                     	;# 
   292     0E24                     	;# 
   293     0E25                     	;# 
   294     0E28                     	;# 
   295     0E29                     	;# 
   296     0E2A                     	;# 
   297     0E2B                     	;# 
   298     0E90                     	;# 
   299     0E91                     	;# 
   300     0E92                     	;# 
   301     0E93                     	;# 
   302     0E94                     	;# 
   303     0E95                     	;# 
   304     0E96                     	;# 
   305     0E97                     	;# 
   306     0E98                     	;# 
   307     0E99                     	;# 
   308     0E9A                     	;# 
   309     0E9B                     	;# 
   310     0E9C                     	;# 
   311     0E9D                     	;# 
   312     0E9E                     	;# 
   313     0E9F                     	;# 
   314     0EA0                     	;# 
   315     0EA1                     	;# 
   316     0EA2                     	;# 
   317     0EA3                     	;# 
   318     0EA4                     	;# 
   319     0EA5                     	;# 
   320     0EA6                     	;# 
   321     0EA7                     	;# 
   322     0EA8                     	;# 
   323     0EA9                     	;# 
   324     0EAA                     	;# 
   325     0EAB                     	;# 
   326     0EAC                     	;# 
   327     0EAD                     	;# 
   328     0EAE                     	;# 
   329     0EAF                     	;# 
   330     0EB0                     	;# 
   331     0EB1                     	;# 
   332     0EB2                     	;# 
   333     0F0F                     	;# 
   334     0F10                     	;# 
   335     0F11                     	;# 
   336     0F12                     	;# 
   337     0F13                     	;# 
   338     0F14                     	;# 
   339     0F15                     	;# 
   340     0F16                     	;# 
   341     0F17                     	;# 
   342     0F18                     	;# 
   343     0F19                     	;# 
   344     0F1A                     	;# 
   345     0F1B                     	;# 
   346     0F1C                     	;# 
   347     0F1D                     	;# 
   348     0F1E                     	;# 
   349     0F1F                     	;# 
   350     0F20                     	;# 
   351     0F21                     	;# 
   352     0F22                     	;# 
   353     0F23                     	;# 
   354     0F24                     	;# 
   355     0F25                     	;# 
   356     0F26                     	;# 
   357     0F27                     	;# 
   358     0F28                     	;# 
   359     0F29                     	;# 
   360     0F2A                     	;# 
   361     0F2B                     	;# 
   362     0F2C                     	;# 
   363     0F2D                     	;# 
   364     0F2E                     	;# 
   365     0F2F                     	;# 
   366     0F30                     	;# 
   367     0F31                     	;# 
   368     0F32                     	;# 
   369     0F33                     	;# 
   370     0F34                     	;# 
   371     0F35                     	;# 
   372     0F36                     	;# 
   373     0F37                     	;# 
   374     0FE4                     	;# 
   375     0FE5                     	;# 
   376     0FE6                     	;# 
   377     0FE7                     	;# 
   378     0FE8                     	;# 
   379     0FE9                     	;# 
   380     0FEA                     	;# 
   381     0FEB                     	;# 
   382     0FED                     	;# 
   383     0FEE                     	;# 
   384     0FEF                     	;# 
   385     0000                     	;# 
   386     0001                     	;# 
   387     0002                     	;# 
   388     0003                     	;# 
   389     0004                     	;# 
   390     0005                     	;# 
   391     0006                     	;# 
   392     0007                     	;# 
   393     0008                     	;# 
   394     0009                     	;# 
   395     000A                     	;# 
   396     000B                     	;# 
   397     000C                     	;# 
   398     000D                     	;# 
   399     000E                     	;# 
   400     000F                     	;# 
   401     0010                     	;# 
   402     0011                     	;# 
   403     0012                     	;# 
   404     0013                     	;# 
   405     0015                     	;# 
   406     0016                     	;# 
   407     0016                     	;# 
   408     0017                     	;# 
   409     0018                     	;# 
   410     0019                     	;# 
   411     001A                     	;# 
   412     001B                     	;# 
   413     001C                     	;# 
   414     008C                     	;# 
   415     008D                     	;# 
   416     008E                     	;# 
   417     008F                     	;# 
   418     0090                     	;# 
   419     0091                     	;# 
   420     0092                     	;# 
   421     0093                     	;# 
   422     0095                     	;# 
   423     0096                     	;# 
   424     0097                     	;# 
   425     0098                     	;# 
   426     0099                     	;# 
   427     009A                     	;# 
   428     009B                     	;# 
   429     009B                     	;# 
   430     009C                     	;# 
   431     009D                     	;# 
   432     009E                     	;# 
   433     009F                     	;# 
   434     010C                     	;# 
   435     010D                     	;# 
   436     010E                     	;# 
   437     010F                     	;# 
   438     0110                     	;# 
   439     0111                     	;# 
   440     0112                     	;# 
   441     0113                     	;# 
   442     0114                     	;# 
   443     0115                     	;# 
   444     0116                     	;# 
   445     0117                     	;# 
   446     0118                     	;# 
   447     0119                     	;# 
   448     011A                     	;# 
   449     011B                     	;# 
   450     011B                     	;# 
   451     011C                     	;# 
   452     018C                     	;# 
   453     018D                     	;# 
   454     018E                     	;# 
   455     018F                     	;# 
   456     0190                     	;# 
   457     0191                     	;# 
   458     0191                     	;# 
   459     0192                     	;# 
   460     0193                     	;# 
   461     0193                     	;# 
   462     0194                     	;# 
   463     0195                     	;# 
   464     0196                     	;# 
   465     0197                     	;# 
   466     0199                     	;# 
   467     0199                     	;# 
   468     0199                     	;# 
   469     019A                     	;# 
   470     019A                     	;# 
   471     019A                     	;# 
   472     019B                     	;# 
   473     019B                     	;# 
   474     019B                     	;# 
   475     019B                     	;# 
   476     019B                     	;# 
   477     019C                     	;# 
   478     019C                     	;# 
   479     019C                     	;# 
   480     019D                     	;# 
   481     019D                     	;# 
   482     019D                     	;# 
   483     019E                     	;# 
   484     019E                     	;# 
   485     019E                     	;# 
   486     019F                     	;# 
   487     019F                     	;# 
   488     019F                     	;# 
   489     019F                     	;# 
   490     019F                     	;# 
   491     020C                     	;# 
   492     020D                     	;# 
   493     020E                     	;# 
   494     020F                     	;# 
   495     0210                     	;# 
   496     0211                     	;# 
   497     0211                     	;# 
   498     0212                     	;# 
   499     0212                     	;# 
   500     0213                     	;# 
   501     0213                     	;# 
   502     0214                     	;# 
   503     0214                     	;# 
   504     0215                     	;# 
   505     0215                     	;# 
   506     0215                     	;# 
   507     0215                     	;# 
   508     0216                     	;# 
   509     0216                     	;# 
   510     0217                     	;# 
   511     0217                     	;# 
   512     028C                     	;# 
   513     028D                     	;# 
   514     028E                     	;# 
   515     028F                     	;# 
   516     0290                     	;# 
   517     0291                     	;# 
   518     0291                     	;# 
   519     0292                     	;# 
   520     0293                     	;# 
   521     0293                     	;# 
   522     0298                     	;# 
   523     0298                     	;# 
   524     0299                     	;# 
   525     029A                     	;# 
   526     029A                     	;# 
   527     029E                     	;# 
   528     030C                     	;# 
   529     030D                     	;# 
   530     030E                     	;# 
   531     030F                     	;# 
   532     0310                     	;# 
   533     038C                     	;# 
   534     038D                     	;# 
   535     038E                     	;# 
   536     038F                     	;# 
   537     0390                     	;# 
   538     0391                     	;# 
   539     0392                     	;# 
   540     0393                     	;# 
   541     0394                     	;# 
   542     0395                     	;# 
   543     0396                     	;# 
   544     0397                     	;# 
   545     0398                     	;# 
   546     0399                     	;# 
   547     039D                     	;# 
   548     039E                     	;# 
   549     039F                     	;# 
   550     0415                     	;# 
   551     0416                     	;# 
   552     0417                     	;# 
   553     041C                     	;# 
   554     041D                     	;# 
   555     041E                     	;# 
   556     0498                     	;# 
   557     0498                     	;# 
   558     0499                     	;# 
   559     049A                     	;# 
   560     049B                     	;# 
   561     049B                     	;# 
   562     049C                     	;# 
   563     049D                     	;# 
   564     049E                     	;# 
   565     049F                     	;# 
   566     0511                     	;# 
   567     0515                     	;# 
   568     0617                     	;# 
   569     0618                     	;# 
   570     0619                     	;# 
   571     0619                     	;# 
   572     061A                     	;# 
   573     061B                     	;# 
   574     061C                     	;# 
   575     061C                     	;# 
   576     0691                     	;# 
   577     0692                     	;# 
   578     0693                     	;# 
   579     0694                     	;# 
   580     0695                     	;# 
   581     0696                     	;# 
   582     0697                     	;# 
   583     0698                     	;# 
   584     0699                     	;# 
   585     069A                     	;# 
   586     069B                     	;# 
   587     069C                     	;# 
   588     069D                     	;# 
   589     069E                     	;# 
   590     069F                     	;# 
   591     0E0F                     	;# 
   592     0E10                     	;# 
   593     0E11                     	;# 
   594     0E12                     	;# 
   595     0E13                     	;# 
   596     0E14                     	;# 
   597     0E15                     	;# 
   598     0E17                     	;# 
   599     0E20                     	;# 
   600     0E21                     	;# 
   601     0E22                     	;# 
   602     0E24                     	;# 
   603     0E25                     	;# 
   604     0E28                     	;# 
   605     0E29                     	;# 
   606     0E2A                     	;# 
   607     0E2B                     	;# 
   608     0E90                     	;# 
   609     0E91                     	;# 
   610     0E92                     	;# 
   611     0E93                     	;# 
   612     0E94                     	;# 
   613     0E95                     	;# 
   614     0E96                     	;# 
   615     0E97                     	;# 
   616     0E98                     	;# 
   617     0E99                     	;# 
   618     0E9A                     	;# 
   619     0E9B                     	;# 
   620     0E9C                     	;# 
   621     0E9D                     	;# 
   622     0E9E                     	;# 
   623     0E9F                     	;# 
   624     0EA0                     	;# 
   625     0EA1                     	;# 
   626     0EA2                     	;# 
   627     0EA3                     	;# 
   628     0EA4                     	;# 
   629     0EA5                     	;# 
   630     0EA6                     	;# 
   631     0EA7                     	;# 
   632     0EA8                     	;# 
   633     0EA9                     	;# 
   634     0EAA                     	;# 
   635     0EAB                     	;# 
   636     0EAC                     	;# 
   637     0EAD                     	;# 
   638     0EAE                     	;# 
   639     0EAF                     	;# 
   640     0EB0                     	;# 
   641     0EB1                     	;# 
   642     0EB2                     	;# 
   643     0F0F                     	;# 
   644     0F10                     	;# 
   645     0F11                     	;# 
   646     0F12                     	;# 
   647     0F13                     	;# 
   648     0F14                     	;# 
   649     0F15                     	;# 
   650     0F16                     	;# 
   651     0F17                     	;# 
   652     0F18                     	;# 
   653     0F19                     	;# 
   654     0F1A                     	;# 
   655     0F1B                     	;# 
   656     0F1C                     	;# 
   657     0F1D                     	;# 
   658     0F1E                     	;# 
   659     0F1F                     	;# 
   660     0F20                     	;# 
   661     0F21                     	;# 
   662     0F22                     	;# 
   663     0F23                     	;# 
   664     0F24                     	;# 
   665     0F25                     	;# 
   666     0F26                     	;# 
   667     0F27                     	;# 
   668     0F28                     	;# 
   669     0F29                     	;# 
   670     0F2A                     	;# 
   671     0F2B                     	;# 
   672     0F2C                     	;# 
   673     0F2D                     	;# 
   674     0F2E                     	;# 
   675     0F2F                     	;# 
   676     0F30                     	;# 
   677     0F31                     	;# 
   678     0F32                     	;# 
   679     0F33                     	;# 
   680     0F34                     	;# 
   681     0F35                     	;# 
   682     0F36                     	;# 
   683     0F37                     	;# 
   684     0FE4                     	;# 
   685     0FE5                     	;# 
   686     0FE6                     	;# 
   687     0FE7                     	;# 
   688     0FE8                     	;# 
   689     0FE9                     	;# 
   690     0FEA                     	;# 
   691     0FEB                     	;# 
   692     0FED                     	;# 
   693     0FEE                     	;# 
   694     0FEF                     	;# 
   695     0000                     	;# 
   696     0001                     	;# 
   697     0002                     	;# 
   698     0003                     	;# 
   699     0004                     	;# 
   700     0005                     	;# 
   701     0006                     	;# 
   702     0007                     	;# 
   703     0008                     	;# 
   704     0009                     	;# 
   705     000A                     	;# 
   706     000B                     	;# 
   707     000C                     	;# 
   708     000D                     	;# 
   709     000E                     	;# 
   710     000F                     	;# 
   711     0010                     	;# 
   712     0011                     	;# 
   713     0012                     	;# 
   714     0013                     	;# 
   715     0015                     	;# 
   716     0016                     	;# 
   717     0016                     	;# 
   718     0017                     	;# 
   719     0018                     	;# 
   720     0019                     	;# 
   721     001A                     	;# 
   722     001B                     	;# 
   723     001C                     	;# 
   724     008C                     	;# 
   725     008D                     	;# 
   726     008E                     	;# 
   727     008F                     	;# 
   728     0090                     	;# 
   729     0091                     	;# 
   730     0092                     	;# 
   731     0093                     	;# 
   732     0095                     	;# 
   733     0096                     	;# 
   734     0097                     	;# 
   735     0098                     	;# 
   736     0099                     	;# 
   737     009A                     	;# 
   738     009B                     	;# 
   739     009B                     	;# 
   740     009C                     	;# 
   741     009D                     	;# 
   742     009E                     	;# 
   743     009F                     	;# 
   744     010C                     	;# 
   745     010D                     	;# 
   746     010E                     	;# 
   747     010F                     	;# 
   748     0110                     	;# 
   749     0111                     	;# 
   750     0112                     	;# 
   751     0113                     	;# 
   752     0114                     	;# 
   753     0115                     	;# 
   754     0116                     	;# 
   755     0117                     	;# 
   756     0118                     	;# 
   757     0119                     	;# 
   758     011A                     	;# 
   759     011B                     	;# 
   760     011B                     	;# 
   761     011C                     	;# 
   762     018C                     	;# 
   763     018D                     	;# 
   764     018E                     	;# 
   765     018F                     	;# 
   766     0190                     	;# 
   767     0191                     	;# 
   768     0191                     	;# 
   769     0192                     	;# 
   770     0193                     	;# 
   771     0193                     	;# 
   772     0194                     	;# 
   773     0195                     	;# 
   774     0196                     	;# 
   775     0197                     	;# 
   776     0199                     	;# 
   777     0199                     	;# 
   778     0199                     	;# 
   779     019A                     	;# 
   780     019A                     	;# 
   781     019A                     	;# 
   782     019B                     	;# 
   783     019B                     	;# 
   784     019B                     	;# 
   785     019B                     	;# 
   786     019B                     	;# 
   787     019C                     	;# 
   788     019C                     	;# 
   789     019C                     	;# 
   790     019D                     	;# 
   791     019D                     	;# 
   792     019D                     	;# 
   793     019E                     	;# 
   794     019E                     	;# 
   795     019E                     	;# 
   796     019F                     	;# 
   797     019F                     	;# 
   798     019F                     	;# 
   799     019F                     	;# 
   800     019F                     	;# 
   801     020C                     	;# 
   802     020D                     	;# 
   803     020E                     	;# 
   804     020F                     	;# 
   805     0210                     	;# 
   806     0211                     	;# 
   807     0211                     	;# 
   808     0212                     	;# 
   809     0212                     	;# 
   810     0213                     	;# 
   811     0213                     	;# 
   812     0214                     	;# 
   813     0214                     	;# 
   814     0215                     	;# 
   815     0215                     	;# 
   816     0215                     	;# 
   817     0215                     	;# 
   818     0216                     	;# 
   819     0216                     	;# 
   820     0217                     	;# 
   821     0217                     	;# 
   822     028C                     	;# 
   823     028D                     	;# 
   824     028E                     	;# 
   825     028F                     	;# 
   826     0290                     	;# 
   827     0291                     	;# 
   828     0291                     	;# 
   829     0292                     	;# 
   830     0293                     	;# 
   831     0293                     	;# 
   832     0298                     	;# 
   833     0298                     	;# 
   834     0299                     	;# 
   835     029A                     	;# 
   836     029A                     	;# 
   837     029E                     	;# 
   838     030C                     	;# 
   839     030D                     	;# 
   840     030E                     	;# 
   841     030F                     	;# 
   842     0310                     	;# 
   843     038C                     	;# 
   844     038D                     	;# 
   845     038E                     	;# 
   846     038F                     	;# 
   847     0390                     	;# 
   848     0391                     	;# 
   849     0392                     	;# 
   850     0393                     	;# 
   851     0394                     	;# 
   852     0395                     	;# 
   853     0396                     	;# 
   854     0397                     	;# 
   855     0398                     	;# 
   856     0399                     	;# 
   857     039D                     	;# 
   858     039E                     	;# 
   859     039F                     	;# 
   860     0415                     	;# 
   861     0416                     	;# 
   862     0417                     	;# 
   863     041C                     	;# 
   864     041D                     	;# 
   865     041E                     	;# 
   866     0498                     	;# 
   867     0498                     	;# 
   868     0499                     	;# 
   869     049A                     	;# 
   870     049B                     	;# 
   871     049B                     	;# 
   872     049C                     	;# 
   873     049D                     	;# 
   874     049E                     	;# 
   875     049F                     	;# 
   876     0511                     	;# 
   877     0515                     	;# 
   878     0617                     	;# 
   879     0618                     	;# 
   880     0619                     	;# 
   881     0619                     	;# 
   882     061A                     	;# 
   883     061B                     	;# 
   884     061C                     	;# 
   885     061C                     	;# 
   886     0691                     	;# 
   887     0692                     	;# 
   888     0693                     	;# 
   889     0694                     	;# 
   890     0695                     	;# 
   891     0696                     	;# 
   892     0697                     	;# 
   893     0698                     	;# 
   894     0699                     	;# 
   895     069A                     	;# 
   896     069B                     	;# 
   897     069C                     	;# 
   898     069D                     	;# 
   899     069E                     	;# 
   900     069F                     	;# 
   901     0E0F                     	;# 
   902     0E10                     	;# 
   903     0E11                     	;# 
   904     0E12                     	;# 
   905     0E13                     	;# 
   906     0E14                     	;# 
   907     0E15                     	;# 
   908     0E17                     	;# 
   909     0E20                     	;# 
   910     0E21                     	;# 
   911     0E22                     	;# 
   912     0E24                     	;# 
   913     0E25                     	;# 
   914     0E28                     	;# 
   915     0E29                     	;# 
   916     0E2A                     	;# 
   917     0E2B                     	;# 
   918     0E90                     	;# 
   919     0E91                     	;# 
   920     0E92                     	;# 
   921     0E93                     	;# 
   922     0E94                     	;# 
   923     0E95                     	;# 
   924     0E96                     	;# 
   925     0E97                     	;# 
   926     0E98                     	;# 
   927     0E99                     	;# 
   928     0E9A                     	;# 
   929     0E9B                     	;# 
   930     0E9C                     	;# 
   931     0E9D                     	;# 
   932     0E9E                     	;# 
   933     0E9F                     	;# 
   934     0EA0                     	;# 
   935     0EA1                     	;# 
   936     0EA2                     	;# 
   937     0EA3                     	;# 
   938     0EA4                     	;# 
   939     0EA5                     	;# 
   940     0EA6                     	;# 
   941     0EA7                     	;# 
   942     0EA8                     	;# 
   943     0EA9                     	;# 
   944     0EAA                     	;# 
   945     0EAB                     	;# 
   946     0EAC                     	;# 
   947     0EAD                     	;# 
   948     0EAE                     	;# 
   949     0EAF                     	;# 
   950     0EB0                     	;# 
   951     0EB1                     	;# 
   952     0EB2                     	;# 
   953     0F0F                     	;# 
   954     0F10                     	;# 
   955     0F11                     	;# 
   956     0F12                     	;# 
   957     0F13                     	;# 
   958     0F14                     	;# 
   959     0F15                     	;# 
   960     0F16                     	;# 
   961     0F17                     	;# 
   962     0F18                     	;# 
   963     0F19                     	;# 
   964     0F1A                     	;# 
   965     0F1B                     	;# 
   966     0F1C                     	;# 
   967     0F1D                     	;# 
   968     0F1E                     	;# 
   969     0F1F                     	;# 
   970     0F20                     	;# 
   971     0F21                     	;# 
   972     0F22                     	;# 
   973     0F23                     	;# 
   974     0F24                     	;# 
   975     0F25                     	;# 
   976     0F26                     	;# 
   977     0F27                     	;# 
   978     0F28                     	;# 
   979     0F29                     	;# 
   980     0F2A                     	;# 
   981     0F2B                     	;# 
   982     0F2C                     	;# 
   983     0F2D                     	;# 
   984     0F2E                     	;# 
   985     0F2F                     	;# 
   986     0F30                     	;# 
   987     0F31                     	;# 
   988     0F32                     	;# 
   989     0F33                     	;# 
   990     0F34                     	;# 
   991     0F35                     	;# 
   992     0F36                     	;# 
   993     0F37                     	;# 
   994     0FE4                     	;# 
   995     0FE5                     	;# 
   996     0FE6                     	;# 
   997     0FE7                     	;# 
   998     0FE8                     	;# 
   999     0FE9                     	;# 
  1000     0FEA                     	;# 
  1001     0FEB                     	;# 
  1002     0FED                     	;# 
  1003     0FEE                     	;# 
  1004     0FEF                     	;# 
  1005     0000                     	;# 
  1006     0001                     	;# 
  1007     0002                     	;# 
  1008     0003                     	;# 
  1009     0004                     	;# 
  1010     0005                     	;# 
  1011     0006                     	;# 
  1012     0007                     	;# 
  1013     0008                     	;# 
  1014     0009                     	;# 
  1015     000A                     	;# 
  1016     000B                     	;# 
  1017     000C                     	;# 
  1018     000D                     	;# 
  1019     000E                     	;# 
  1020     000F                     	;# 
  1021     0010                     	;# 
  1022     0011                     	;# 
  1023     0012                     	;# 
  1024     0013                     	;# 
  1025     0015                     	;# 
  1026     0016                     	;# 
  1027     0016                     	;# 
  1028     0017                     	;# 
  1029     0018                     	;# 
  1030     0019                     	;# 
  1031     001A                     	;# 
  1032     001B                     	;# 
  1033     001C                     	;# 
  1034     008C                     	;# 
  1035     008D                     	;# 
  1036     008E                     	;# 
  1037     008F                     	;# 
  1038     0090                     	;# 
  1039     0091                     	;# 
  1040     0092                     	;# 
  1041     0093                     	;# 
  1042     0095                     	;# 
  1043     0096                     	;# 
  1044     0097                     	;# 
  1045     0098                     	;# 
  1046     0099                     	;# 
  1047     009A                     	;# 
  1048     009B                     	;# 
  1049     009B                     	;# 
  1050     009C                     	;# 
  1051     009D                     	;# 
  1052     009E                     	;# 
  1053     009F                     	;# 
  1054     010C                     	;# 
  1055     010D                     	;# 
  1056     010E                     	;# 
  1057     010F                     	;# 
  1058     0110                     	;# 
  1059     0111                     	;# 
  1060     0112                     	;# 
  1061     0113                     	;# 
  1062     0114                     	;# 
  1063     0115                     	;# 
  1064     0116                     	;# 
  1065     0117                     	;# 
  1066     0118                     	;# 
  1067     0119                     	;# 
  1068     011A                     	;# 
  1069     011B                     	;# 
  1070     011B                     	;# 
  1071     011C                     	;# 
  1072     018C                     	;# 
  1073     018D                     	;# 
  1074     018E                     	;# 
  1075     018F                     	;# 
  1076     0190                     	;# 
  1077     0191                     	;# 
  1078     0191                     	;# 
  1079     0192                     	;# 
  1080     0193                     	;# 
  1081     0193                     	;# 
  1082     0194                     	;# 
  1083     0195                     	;# 
  1084     0196                     	;# 
  1085     0197                     	;# 
  1086     0199                     	;# 
  1087     0199                     	;# 
  1088     0199                     	;# 
  1089     019A                     	;# 
  1090     019A                     	;# 
  1091     019A                     	;# 
  1092     019B                     	;# 
  1093     019B                     	;# 
  1094     019B                     	;# 
  1095     019B                     	;# 
  1096     019B                     	;# 
  1097     019C                     	;# 
  1098     019C                     	;# 
  1099     019C                     	;# 
  1100     019D                     	;# 
  1101     019D                     	;# 
  1102     019D                     	;# 
  1103     019E                     	;# 
  1104     019E                     	;# 
  1105     019E                     	;# 
  1106     019F                     	;# 
  1107     019F                     	;# 
  1108     019F                     	;# 
  1109     019F                     	;# 
  1110     019F                     	;# 
  1111     020C                     	;# 
  1112     020D                     	;# 
  1113     020E                     	;# 
  1114     020F                     	;# 
  1115     0210                     	;# 
  1116     0211                     	;# 
  1117     0211                     	;# 
  1118     0212                     	;# 
  1119     0212                     	;# 
  1120     0213                     	;# 
  1121     0213                     	;# 
  1122     0214                     	;# 
  1123     0214                     	;# 
  1124     0215                     	;# 
  1125     0215                     	;# 
  1126     0215                     	;# 
  1127     0215                     	;# 
  1128     0216                     	;# 
  1129     0216                     	;# 
  1130     0217                     	;# 
  1131     0217                     	;# 
  1132     028C                     	;# 
  1133     028D                     	;# 
  1134     028E                     	;# 
  1135     028F                     	;# 
  1136     0290                     	;# 
  1137     0291                     	;# 
  1138     0291                     	;# 
  1139     0292                     	;# 
  1140     0293                     	;# 
  1141     0293                     	;# 
  1142     0298                     	;# 
  1143     0298                     	;# 
  1144     0299                     	;# 
  1145     029A                     	;# 
  1146     029A                     	;# 
  1147     029E                     	;# 
  1148     030C                     	;# 
  1149     030D                     	;# 
  1150     030E                     	;# 
  1151     030F                     	;# 
  1152     0310                     	;# 
  1153     038C                     	;# 
  1154     038D                     	;# 
  1155     038E                     	;# 
  1156     038F                     	;# 
  1157     0390                     	;# 
  1158     0391                     	;# 
  1159     0392                     	;# 
  1160     0393                     	;# 
  1161     0394                     	;# 
  1162     0395                     	;# 
  1163     0396                     	;# 
  1164     0397                     	;# 
  1165     0398                     	;# 
  1166     0399                     	;# 
  1167     039D                     	;# 
  1168     039E                     	;# 
  1169     039F                     	;# 
  1170     0415                     	;# 
  1171     0416                     	;# 
  1172     0417                     	;# 
  1173     041C                     	;# 
  1174     041D                     	;# 
  1175     041E                     	;# 
  1176     0498                     	;# 
  1177     0498                     	;# 
  1178     0499                     	;# 
  1179     049A                     	;# 
  1180     049B                     	;# 
  1181     049B                     	;# 
  1182     049C                     	;# 
  1183     049D                     	;# 
  1184     049E                     	;# 
  1185     049F                     	;# 
  1186     0511                     	;# 
  1187     0515                     	;# 
  1188     0617                     	;# 
  1189     0618                     	;# 
  1190     0619                     	;# 
  1191     0619                     	;# 
  1192     061A                     	;# 
  1193     061B                     	;# 
  1194     061C                     	;# 
  1195     061C                     	;# 
  1196     0691                     	;# 
  1197     0692                     	;# 
  1198     0693                     	;# 
  1199     0694                     	;# 
  1200     0695                     	;# 
  1201     0696                     	;# 
  1202     0697                     	;# 
  1203     0698                     	;# 
  1204     0699                     	;# 
  1205     069A                     	;# 
  1206     069B                     	;# 
  1207     069C                     	;# 
  1208     069D                     	;# 
  1209     069E                     	;# 
  1210     069F                     	;# 
  1211     0E0F                     	;# 
  1212     0E10                     	;# 
  1213     0E11                     	;# 
  1214     0E12                     	;# 
  1215     0E13                     	;# 
  1216     0E14                     	;# 
  1217     0E15                     	;# 
  1218     0E17                     	;# 
  1219     0E20                     	;# 
  1220     0E21                     	;# 
  1221     0E22                     	;# 
  1222     0E24                     	;# 
  1223     0E25                     	;# 
  1224     0E28                     	;# 
  1225     0E29                     	;# 
  1226     0E2A                     	;# 
  1227     0E2B                     	;# 
  1228     0E90                     	;# 
  1229     0E91                     	;# 
  1230     0E92                     	;# 
  1231     0E93                     	;# 
  1232     0E94                     	;# 
  1233     0E95                     	;# 
  1234     0E96                     	;# 
  1235     0E97                     	;# 
  1236     0E98                     	;# 
  1237     0E99                     	;# 
  1238     0E9A                     	;# 
  1239     0E9B                     	;# 
  1240     0E9C                     	;# 
  1241     0E9D                     	;# 
  1242     0E9E                     	;# 
  1243     0E9F                     	;# 
  1244     0EA0                     	;# 
  1245     0EA1                     	;# 
  1246     0EA2                     	;# 
  1247     0EA3                     	;# 
  1248     0EA4                     	;# 
  1249     0EA5                     	;# 
  1250     0EA6                     	;# 
  1251     0EA7                     	;# 
  1252     0EA8                     	;# 
  1253     0EA9                     	;# 
  1254     0EAA                     	;# 
  1255     0EAB                     	;# 
  1256     0EAC                     	;# 
  1257     0EAD                     	;# 
  1258     0EAE                     	;# 
  1259     0EAF                     	;# 
  1260     0EB0                     	;# 
  1261     0EB1                     	;# 
  1262     0EB2                     	;# 
  1263     0F0F                     	;# 
  1264     0F10                     	;# 
  1265     0F11                     	;# 
  1266     0F12                     	;# 
  1267     0F13                     	;# 
  1268     0F14                     	;# 
  1269     0F15                     	;# 
  1270     0F16                     	;# 
  1271     0F17                     	;# 
  1272     0F18                     	;# 
  1273     0F19                     	;# 
  1274     0F1A                     	;# 
  1275     0F1B                     	;# 
  1276     0F1C                     	;# 
  1277     0F1D                     	;# 
  1278     0F1E                     	;# 
  1279     0F1F                     	;# 
  1280     0F20                     	;# 
  1281     0F21                     	;# 
  1282     0F22                     	;# 
  1283     0F23                     	;# 
  1284     0F24                     	;# 
  1285     0F25                     	;# 
  1286     0F26                     	;# 
  1287     0F27                     	;# 
  1288     0F28                     	;# 
  1289     0F29                     	;# 
  1290     0F2A                     	;# 
  1291     0F2B                     	;# 
  1292     0F2C                     	;# 
  1293     0F2D                     	;# 
  1294     0F2E                     	;# 
  1295     0F2F                     	;# 
  1296     0F30                     	;# 
  1297     0F31                     	;# 
  1298     0F32                     	;# 
  1299     0F33                     	;# 
  1300     0F34                     	;# 
  1301     0F35                     	;# 
  1302     0F36                     	;# 
  1303     0F37                     	;# 
  1304     0FE4                     	;# 
  1305     0FE5                     	;# 
  1306     0FE6                     	;# 
  1307     0FE7                     	;# 
  1308     0FE8                     	;# 
  1309     0FE9                     	;# 
  1310     0FEA                     	;# 
  1311     0FEB                     	;# 
  1312     0FED                     	;# 
  1313     0FEE                     	;# 
  1314     0FEF                     	;# 
  1315                           
  1316                           	psect	stringtext1
  1317     0800                     __pstringtext1:
  1318     0800                     _OledFont:
  1319     0800  3400               	retlw	0
  1320     0801  3400               	retlw	0
  1321     0802  3400               	retlw	0
  1322     0803  3400               	retlw	0
  1323     0804  3400               	retlw	0
  1324     0805  3400               	retlw	0
  1325     0806  3400               	retlw	0
  1326     0807  3400               	retlw	0
  1327     0808  3400               	retlw	0
  1328     0809  3400               	retlw	0
  1329     080A  345F               	retlw	95
  1330     080B  3400               	retlw	0
  1331     080C  3400               	retlw	0
  1332     080D  3400               	retlw	0
  1333     080E  3400               	retlw	0
  1334     080F  3400               	retlw	0
  1335     0810  3400               	retlw	0
  1336     0811  3400               	retlw	0
  1337     0812  3407               	retlw	7
  1338     0813  3400               	retlw	0
  1339     0814  3407               	retlw	7
  1340     0815  3400               	retlw	0
  1341     0816  3400               	retlw	0
  1342     0817  3400               	retlw	0
  1343     0818  3400               	retlw	0
  1344     0819  3414               	retlw	20
  1345     081A  347F               	retlw	127
  1346     081B  3414               	retlw	20
  1347     081C  347F               	retlw	127
  1348     081D  3414               	retlw	20
  1349     081E  3400               	retlw	0
  1350     081F  3400               	retlw	0
  1351     0820  3400               	retlw	0
  1352     0821  3424               	retlw	36
  1353     0822  342A               	retlw	42
  1354     0823  347F               	retlw	127
  1355     0824  342A               	retlw	42
  1356     0825  3412               	retlw	18
  1357     0826  3400               	retlw	0
  1358     0827  3400               	retlw	0
  1359     0828  3400               	retlw	0
  1360     0829  3423               	retlw	35
  1361     082A  3413               	retlw	19
  1362     082B  3408               	retlw	8
  1363     082C  3464               	retlw	100
  1364     082D  3462               	retlw	98
  1365     082E  3400               	retlw	0
  1366     082F  3400               	retlw	0
  1367     0830  3400               	retlw	0
  1368     0831  3436               	retlw	54
  1369     0832  3449               	retlw	73
  1370     0833  3455               	retlw	85
  1371     0834  3422               	retlw	34
  1372     0835  3450               	retlw	80
  1373     0836  3400               	retlw	0
  1374     0837  3400               	retlw	0
  1375     0838  3400               	retlw	0
  1376     0839  3400               	retlw	0
  1377     083A  3405               	retlw	5
  1378     083B  3403               	retlw	3
  1379     083C  3400               	retlw	0
  1380     083D  3400               	retlw	0
  1381     083E  3400               	retlw	0
  1382     083F  3400               	retlw	0
  1383     0840  3400               	retlw	0
  1384     0841  341C               	retlw	28
  1385     0842  3422               	retlw	34
  1386     0843  3441               	retlw	65
  1387     0844  3400               	retlw	0
  1388     0845  3400               	retlw	0
  1389     0846  3400               	retlw	0
  1390     0847  3400               	retlw	0
  1391     0848  3400               	retlw	0
  1392     0849  3441               	retlw	65
  1393     084A  3422               	retlw	34
  1394     084B  341C               	retlw	28
  1395     084C  3400               	retlw	0
  1396     084D  3400               	retlw	0
  1397     084E  3400               	retlw	0
  1398     084F  3400               	retlw	0
  1399     0850  3400               	retlw	0
  1400     0851  3408               	retlw	8
  1401     0852  342A               	retlw	42
  1402     0853  341C               	retlw	28
  1403     0854  342A               	retlw	42
  1404     0855  3408               	retlw	8
  1405     0856  3400               	retlw	0
  1406     0857  3400               	retlw	0
  1407     0858  3400               	retlw	0
  1408     0859  3408               	retlw	8
  1409     085A  3408               	retlw	8
  1410     085B  343E               	retlw	62
  1411     085C  3408               	retlw	8
  1412     085D  3408               	retlw	8
  1413     085E  3400               	retlw	0
  1414     085F  3400               	retlw	0
  1415     0860  3400               	retlw	0
  1416     0861  34A0               	retlw	160
  1417     0862  3460               	retlw	96
  1418     0863  3400               	retlw	0
  1419     0864  3400               	retlw	0
  1420     0865  3400               	retlw	0
  1421     0866  3400               	retlw	0
  1422     0867  3400               	retlw	0
  1423     0868  3400               	retlw	0
  1424     0869  3408               	retlw	8
  1425     086A  3408               	retlw	8
  1426     086B  3408               	retlw	8
  1427     086C  3408               	retlw	8
  1428     086D  3408               	retlw	8
  1429     086E  3400               	retlw	0
  1430     086F  3400               	retlw	0
  1431     0870  3400               	retlw	0
  1432     0871  3460               	retlw	96
  1433     0872  3460               	retlw	96
  1434     0873  3400               	retlw	0
  1435     0874  3400               	retlw	0
  1436     0875  3400               	retlw	0
  1437     0876  3400               	retlw	0
  1438     0877  3400               	retlw	0
  1439     0878  3400               	retlw	0
  1440     0879  3420               	retlw	32
  1441     087A  3410               	retlw	16
  1442     087B  3408               	retlw	8
  1443     087C  3404               	retlw	4
  1444     087D  3402               	retlw	2
  1445     087E  3400               	retlw	0
  1446     087F  3400               	retlw	0
  1447     0880  3400               	retlw	0
  1448     0881  343E               	retlw	62
  1449     0882  3451               	retlw	81
  1450     0883  3449               	retlw	73
  1451     0884  3445               	retlw	69
  1452     0885  343E               	retlw	62
  1453     0886  3400               	retlw	0
  1454     0887  3400               	retlw	0
  1455     0888  3400               	retlw	0
  1456     0889  3400               	retlw	0
  1457     088A  3442               	retlw	66
  1458     088B  347F               	retlw	127
  1459     088C  3440               	retlw	64
  1460     088D  3400               	retlw	0
  1461     088E  3400               	retlw	0
  1462     088F  3400               	retlw	0
  1463     0890  3400               	retlw	0
  1464     0891  3462               	retlw	98
  1465     0892  3451               	retlw	81
  1466     0893  3449               	retlw	73
  1467     0894  3449               	retlw	73
  1468     0895  3446               	retlw	70
  1469     0896  3400               	retlw	0
  1470     0897  3400               	retlw	0
  1471     0898  3400               	retlw	0
  1472     0899  3422               	retlw	34
  1473     089A  3441               	retlw	65
  1474     089B  3449               	retlw	73
  1475     089C  3449               	retlw	73
  1476     089D  3436               	retlw	54
  1477     089E  3400               	retlw	0
  1478     089F  3400               	retlw	0
  1479     08A0  3400               	retlw	0
  1480     08A1  3418               	retlw	24
  1481     08A2  3414               	retlw	20
  1482     08A3  3412               	retlw	18
  1483     08A4  347F               	retlw	127
  1484     08A5  3410               	retlw	16
  1485     08A6  3400               	retlw	0
  1486     08A7  3400               	retlw	0
  1487     08A8  3400               	retlw	0
  1488     08A9  3427               	retlw	39
  1489     08AA  3445               	retlw	69
  1490     08AB  3445               	retlw	69
  1491     08AC  3445               	retlw	69
  1492     08AD  3439               	retlw	57
  1493     08AE  3400               	retlw	0
  1494     08AF  3400               	retlw	0
  1495     08B0  3400               	retlw	0
  1496     08B1  343C               	retlw	60
  1497     08B2  344A               	retlw	74
  1498     08B3  3449               	retlw	73
  1499     08B4  3449               	retlw	73
  1500     08B5  3430               	retlw	48
  1501     08B6  3400               	retlw	0
  1502     08B7  3400               	retlw	0
  1503     08B8  3400               	retlw	0
  1504     08B9  3401               	retlw	1
  1505     08BA  3471               	retlw	113
  1506     08BB  3409               	retlw	9
  1507     08BC  3405               	retlw	5
  1508     08BD  3403               	retlw	3
  1509     08BE  3400               	retlw	0
  1510     08BF  3400               	retlw	0
  1511     08C0  3400               	retlw	0
  1512     08C1  3436               	retlw	54
  1513     08C2  3449               	retlw	73
  1514     08C3  3449               	retlw	73
  1515     08C4  3449               	retlw	73
  1516     08C5  3436               	retlw	54
  1517     08C6  3400               	retlw	0
  1518     08C7  3400               	retlw	0
  1519     08C8  3400               	retlw	0
  1520     08C9  3406               	retlw	6
  1521     08CA  3449               	retlw	73
  1522     08CB  3449               	retlw	73
  1523     08CC  3429               	retlw	41
  1524     08CD  341E               	retlw	30
  1525     08CE  3400               	retlw	0
  1526     08CF  3400               	retlw	0
  1527     08D0  3400               	retlw	0
  1528     08D1  3400               	retlw	0
  1529     08D2  3436               	retlw	54
  1530     08D3  3436               	retlw	54
  1531     08D4  3400               	retlw	0
  1532     08D5  3400               	retlw	0
  1533     08D6  3400               	retlw	0
  1534     08D7  3400               	retlw	0
  1535     08D8  3400               	retlw	0
  1536     08D9  3400               	retlw	0
  1537     08DA  34AC               	retlw	172
  1538     08DB  346C               	retlw	108
  1539     08DC  3400               	retlw	0
  1540     08DD  3400               	retlw	0
  1541     08DE  3400               	retlw	0
  1542     08DF  3400               	retlw	0
  1543     08E0  3400               	retlw	0
  1544     08E1  3408               	retlw	8
  1545     08E2  3414               	retlw	20
  1546     08E3  3422               	retlw	34
  1547     08E4  3441               	retlw	65
  1548     08E5  3400               	retlw	0
  1549     08E6  3400               	retlw	0
  1550     08E7  3400               	retlw	0
  1551     08E8  3400               	retlw	0
  1552     08E9  3414               	retlw	20
  1553     08EA  3414               	retlw	20
  1554     08EB  3414               	retlw	20
  1555     08EC  3414               	retlw	20
  1556     08ED  3414               	retlw	20
  1557     08EE  3400               	retlw	0
  1558     08EF  3400               	retlw	0
  1559     08F0  3400               	retlw	0
  1560     08F1  3441               	retlw	65
  1561     08F2  3422               	retlw	34
  1562     08F3  3414               	retlw	20
  1563     08F4  3408               	retlw	8
  1564     08F5  3400               	retlw	0
  1565     08F6  3400               	retlw	0
  1566     08F7  3400               	retlw	0
  1567     08F8  3400               	retlw	0
  1568     08F9  3402               	retlw	2
  1569     08FA  3401               	retlw	1
  1570     08FB  3451               	retlw	81
  1571     08FC  3409               	retlw	9
  1572     08FD  3406               	retlw	6
  1573     08FE  3400               	retlw	0
  1574     08FF  3400               	retlw	0
  1575     0900  3400               	retlw	0
  1576     0901  3432               	retlw	50
  1577     0902  3449               	retlw	73
  1578     0903  3479               	retlw	121
  1579     0904  3441               	retlw	65
  1580     0905  343E               	retlw	62
  1581     0906  3400               	retlw	0
  1582     0907  3400               	retlw	0
  1583     0908  3400               	retlw	0
  1584     0909  347E               	retlw	126
  1585     090A  3409               	retlw	9
  1586     090B  3409               	retlw	9
  1587     090C  3409               	retlw	9
  1588     090D  347E               	retlw	126
  1589     090E  3400               	retlw	0
  1590     090F  3400               	retlw	0
  1591     0910  3400               	retlw	0
  1592     0911  347F               	retlw	127
  1593     0912  3449               	retlw	73
  1594     0913  3449               	retlw	73
  1595     0914  3449               	retlw	73
  1596     0915  3436               	retlw	54
  1597     0916  3400               	retlw	0
  1598     0917  3400               	retlw	0
  1599     0918  3400               	retlw	0
  1600     0919  343E               	retlw	62
  1601     091A  3441               	retlw	65
  1602     091B  3441               	retlw	65
  1603     091C  3441               	retlw	65
  1604     091D  3422               	retlw	34
  1605     091E  3400               	retlw	0
  1606     091F  3400               	retlw	0
  1607     0920  3400               	retlw	0
  1608     0921  347F               	retlw	127
  1609     0922  3441               	retlw	65
  1610     0923  3441               	retlw	65
  1611     0924  3422               	retlw	34
  1612     0925  341C               	retlw	28
  1613     0926  3400               	retlw	0
  1614     0927  3400               	retlw	0
  1615     0928  3400               	retlw	0
  1616     0929  347F               	retlw	127
  1617     092A  3449               	retlw	73
  1618     092B  3449               	retlw	73
  1619     092C  3449               	retlw	73
  1620     092D  3441               	retlw	65
  1621     092E  3400               	retlw	0
  1622     092F  3400               	retlw	0
  1623     0930  3400               	retlw	0
  1624     0931  347F               	retlw	127
  1625     0932  3409               	retlw	9
  1626     0933  3409               	retlw	9
  1627     0934  3409               	retlw	9
  1628     0935  3401               	retlw	1
  1629     0936  3400               	retlw	0
  1630     0937  3400               	retlw	0
  1631     0938  3400               	retlw	0
  1632     0939  343E               	retlw	62
  1633     093A  3441               	retlw	65
  1634     093B  3441               	retlw	65
  1635     093C  3451               	retlw	81
  1636     093D  3472               	retlw	114
  1637     093E  3400               	retlw	0
  1638     093F  3400               	retlw	0
  1639     0940  3400               	retlw	0
  1640     0941  347F               	retlw	127
  1641     0942  3408               	retlw	8
  1642     0943  3408               	retlw	8
  1643     0944  3408               	retlw	8
  1644     0945  347F               	retlw	127
  1645     0946  3400               	retlw	0
  1646     0947  3400               	retlw	0
  1647     0948  3400               	retlw	0
  1648     0949  3441               	retlw	65
  1649     094A  347F               	retlw	127
  1650     094B  3441               	retlw	65
  1651     094C  3400               	retlw	0
  1652     094D  3400               	retlw	0
  1653     094E  3400               	retlw	0
  1654     094F  3400               	retlw	0
  1655     0950  3400               	retlw	0
  1656     0951  3420               	retlw	32
  1657     0952  3440               	retlw	64
  1658     0953  3441               	retlw	65
  1659     0954  343F               	retlw	63
  1660     0955  3401               	retlw	1
  1661     0956  3400               	retlw	0
  1662     0957  3400               	retlw	0
  1663     0958  3400               	retlw	0
  1664     0959  347F               	retlw	127
  1665     095A  3408               	retlw	8
  1666     095B  3414               	retlw	20
  1667     095C  3422               	retlw	34
  1668     095D  3441               	retlw	65
  1669     095E  3400               	retlw	0
  1670     095F  3400               	retlw	0
  1671     0960  3400               	retlw	0
  1672     0961  347F               	retlw	127
  1673     0962  3440               	retlw	64
  1674     0963  3440               	retlw	64
  1675     0964  3440               	retlw	64
  1676     0965  3440               	retlw	64
  1677     0966  3400               	retlw	0
  1678     0967  3400               	retlw	0
  1679     0968  3400               	retlw	0
  1680     0969  347F               	retlw	127
  1681     096A  3402               	retlw	2
  1682     096B  340C               	retlw	12
  1683     096C  3402               	retlw	2
  1684     096D  347F               	retlw	127
  1685     096E  3400               	retlw	0
  1686     096F  3400               	retlw	0
  1687     0970  3400               	retlw	0
  1688     0971  347F               	retlw	127
  1689     0972  3404               	retlw	4
  1690     0973  3408               	retlw	8
  1691     0974  3410               	retlw	16
  1692     0975  347F               	retlw	127
  1693     0976  3400               	retlw	0
  1694     0977  3400               	retlw	0
  1695     0978  3400               	retlw	0
  1696     0979  343E               	retlw	62
  1697     097A  3441               	retlw	65
  1698     097B  3441               	retlw	65
  1699     097C  3441               	retlw	65
  1700     097D  343E               	retlw	62
  1701     097E  3400               	retlw	0
  1702     097F  3400               	retlw	0
  1703     0980  3400               	retlw	0
  1704     0981  347F               	retlw	127
  1705     0982  3409               	retlw	9
  1706     0983  3409               	retlw	9
  1707     0984  3409               	retlw	9
  1708     0985  3406               	retlw	6
  1709     0986  3400               	retlw	0
  1710     0987  3400               	retlw	0
  1711     0988  3400               	retlw	0
  1712     0989  343E               	retlw	62
  1713     098A  3441               	retlw	65
  1714     098B  3451               	retlw	81
  1715     098C  3421               	retlw	33
  1716     098D  345E               	retlw	94
  1717     098E  3400               	retlw	0
  1718     098F  3400               	retlw	0
  1719     0990  3400               	retlw	0
  1720     0991  347F               	retlw	127
  1721     0992  3409               	retlw	9
  1722     0993  3419               	retlw	25
  1723     0994  3429               	retlw	41
  1724     0995  3446               	retlw	70
  1725     0996  3400               	retlw	0
  1726     0997  3400               	retlw	0
  1727     0998  3400               	retlw	0
  1728     0999  3426               	retlw	38
  1729     099A  3449               	retlw	73
  1730     099B  3449               	retlw	73
  1731     099C  3449               	retlw	73
  1732     099D  3432               	retlw	50
  1733     099E  3400               	retlw	0
  1734     099F  3400               	retlw	0
  1735     09A0  3400               	retlw	0
  1736     09A1  3401               	retlw	1
  1737     09A2  3401               	retlw	1
  1738     09A3  347F               	retlw	127
  1739     09A4  3401               	retlw	1
  1740     09A5  3401               	retlw	1
  1741     09A6  3400               	retlw	0
  1742     09A7  3400               	retlw	0
  1743     09A8  3400               	retlw	0
  1744     09A9  343F               	retlw	63
  1745     09AA  3440               	retlw	64
  1746     09AB  3440               	retlw	64
  1747     09AC  3440               	retlw	64
  1748     09AD  343F               	retlw	63
  1749     09AE  3400               	retlw	0
  1750     09AF  3400               	retlw	0
  1751     09B0  3400               	retlw	0
  1752     09B1  341F               	retlw	31
  1753     09B2  3420               	retlw	32
  1754     09B3  3440               	retlw	64
  1755     09B4  3420               	retlw	32
  1756     09B5  341F               	retlw	31
  1757     09B6  3400               	retlw	0
  1758     09B7  3400               	retlw	0
  1759     09B8  3400               	retlw	0
  1760     09B9  343F               	retlw	63
  1761     09BA  3440               	retlw	64
  1762     09BB  3438               	retlw	56
  1763     09BC  3440               	retlw	64
  1764     09BD  343F               	retlw	63
  1765     09BE  3400               	retlw	0
  1766     09BF  3400               	retlw	0
  1767     09C0  3400               	retlw	0
  1768     09C1  3463               	retlw	99
  1769     09C2  3414               	retlw	20
  1770     09C3  3408               	retlw	8
  1771     09C4  3414               	retlw	20
  1772     09C5  3463               	retlw	99
  1773     09C6  3400               	retlw	0
  1774     09C7  3400               	retlw	0
  1775     09C8  3400               	retlw	0
  1776     09C9  3403               	retlw	3
  1777     09CA  3404               	retlw	4
  1778     09CB  3478               	retlw	120
  1779     09CC  3404               	retlw	4
  1780     09CD  3403               	retlw	3
  1781     09CE  3400               	retlw	0
  1782     09CF  3400               	retlw	0
  1783     09D0  3400               	retlw	0
  1784     09D1  3461               	retlw	97
  1785     09D2  3451               	retlw	81
  1786     09D3  3449               	retlw	73
  1787     09D4  3445               	retlw	69
  1788     09D5  3443               	retlw	67
  1789     09D6  3400               	retlw	0
  1790     09D7  3400               	retlw	0
  1791     09D8  3400               	retlw	0
  1792     09D9  347F               	retlw	127
  1793     09DA  3441               	retlw	65
  1794     09DB  3441               	retlw	65
  1795     09DC  3400               	retlw	0
  1796     09DD  3400               	retlw	0
  1797     09DE  3400               	retlw	0
  1798     09DF  3400               	retlw	0
  1799     09E0  3400               	retlw	0
  1800     09E1  3402               	retlw	2
  1801     09E2  3404               	retlw	4
  1802     09E3  3408               	retlw	8
  1803     09E4  3410               	retlw	16
  1804     09E5  3420               	retlw	32
  1805     09E6  3400               	retlw	0
  1806     09E7  3400               	retlw	0
  1807     09E8  3400               	retlw	0
  1808     09E9  3441               	retlw	65
  1809     09EA  3441               	retlw	65
  1810     09EB  347F               	retlw	127
  1811     09EC  3400               	retlw	0
  1812     09ED  3400               	retlw	0
  1813     09EE  3400               	retlw	0
  1814     09EF  3400               	retlw	0
  1815     09F0  3400               	retlw	0
  1816     09F1  3404               	retlw	4
  1817     09F2  3402               	retlw	2
  1818     09F3  3401               	retlw	1
  1819     09F4  3402               	retlw	2
  1820     09F5  3404               	retlw	4
  1821     09F6  3400               	retlw	0
  1822     09F7  3400               	retlw	0
  1823     09F8  3400               	retlw	0
  1824     09F9  3480               	retlw	128
  1825     09FA  3480               	retlw	128
  1826     09FB  3480               	retlw	128
  1827     09FC  3480               	retlw	128
  1828     09FD  3480               	retlw	128
  1829     09FE  3400               	retlw	0
  1830     09FF  3400               	retlw	0
  1831     0A00  3400               	retlw	0
  1832     0A01  3401               	retlw	1
  1833     0A02  3402               	retlw	2
  1834     0A03  3404               	retlw	4
  1835     0A04  3400               	retlw	0
  1836     0A05  3400               	retlw	0
  1837     0A06  3400               	retlw	0
  1838     0A07  3400               	retlw	0
  1839     0A08  3400               	retlw	0
  1840     0A09  3420               	retlw	32
  1841     0A0A  3454               	retlw	84
  1842     0A0B  3454               	retlw	84
  1843     0A0C  3454               	retlw	84
  1844     0A0D  3478               	retlw	120
  1845     0A0E  3400               	retlw	0
  1846     0A0F  3400               	retlw	0
  1847     0A10  3400               	retlw	0
  1848     0A11  347F               	retlw	127
  1849     0A12  3448               	retlw	72
  1850     0A13  3444               	retlw	68
  1851     0A14  3444               	retlw	68
  1852     0A15  3438               	retlw	56
  1853     0A16  3400               	retlw	0
  1854     0A17  3400               	retlw	0
  1855     0A18  3400               	retlw	0
  1856     0A19  3438               	retlw	56
  1857     0A1A  3444               	retlw	68
  1858     0A1B  3444               	retlw	68
  1859     0A1C  3428               	retlw	40
  1860     0A1D  3400               	retlw	0
  1861     0A1E  3400               	retlw	0
  1862     0A1F  3400               	retlw	0
  1863     0A20  3400               	retlw	0
  1864     0A21  3438               	retlw	56
  1865     0A22  3444               	retlw	68
  1866     0A23  3444               	retlw	68
  1867     0A24  3448               	retlw	72
  1868     0A25  347F               	retlw	127
  1869     0A26  3400               	retlw	0
  1870     0A27  3400               	retlw	0
  1871     0A28  3400               	retlw	0
  1872     0A29  3438               	retlw	56
  1873     0A2A  3454               	retlw	84
  1874     0A2B  3454               	retlw	84
  1875     0A2C  3454               	retlw	84
  1876     0A2D  3418               	retlw	24
  1877     0A2E  3400               	retlw	0
  1878     0A2F  3400               	retlw	0
  1879     0A30  3400               	retlw	0
  1880     0A31  3408               	retlw	8
  1881     0A32  347E               	retlw	126
  1882     0A33  3409               	retlw	9
  1883     0A34  3402               	retlw	2
  1884     0A35  3400               	retlw	0
  1885     0A36  3400               	retlw	0
  1886     0A37  3400               	retlw	0
  1887     0A38  3400               	retlw	0
  1888     0A39  3418               	retlw	24
  1889     0A3A  34A4               	retlw	164
  1890     0A3B  34A4               	retlw	164
  1891     0A3C  34A4               	retlw	164
  1892     0A3D  347C               	retlw	124
  1893     0A3E  3400               	retlw	0
  1894     0A3F  3400               	retlw	0
  1895     0A40  3400               	retlw	0
  1896     0A41  347F               	retlw	127
  1897     0A42  3408               	retlw	8
  1898     0A43  3404               	retlw	4
  1899     0A44  3404               	retlw	4
  1900     0A45  3478               	retlw	120
  1901     0A46  3400               	retlw	0
  1902     0A47  3400               	retlw	0
  1903     0A48  3400               	retlw	0
  1904     0A49  3400               	retlw	0
  1905     0A4A  347D               	retlw	125
  1906     0A4B  3400               	retlw	0
  1907     0A4C  3400               	retlw	0
  1908     0A4D  3400               	retlw	0
  1909     0A4E  3400               	retlw	0
  1910     0A4F  3400               	retlw	0
  1911     0A50  3400               	retlw	0
  1912     0A51  3480               	retlw	128
  1913     0A52  3484               	retlw	132
  1914     0A53  347D               	retlw	125
  1915     0A54  3400               	retlw	0
  1916     0A55  3400               	retlw	0
  1917     0A56  3400               	retlw	0
  1918     0A57  3400               	retlw	0
  1919     0A58  3400               	retlw	0
  1920     0A59  347F               	retlw	127
  1921     0A5A  3410               	retlw	16
  1922     0A5B  3428               	retlw	40
  1923     0A5C  3444               	retlw	68
  1924     0A5D  3400               	retlw	0
  1925     0A5E  3400               	retlw	0
  1926     0A5F  3400               	retlw	0
  1927     0A60  3400               	retlw	0
  1928     0A61  3441               	retlw	65
  1929     0A62  347F               	retlw	127
  1930     0A63  3440               	retlw	64
  1931     0A64  3400               	retlw	0
  1932     0A65  3400               	retlw	0
  1933     0A66  3400               	retlw	0
  1934     0A67  3400               	retlw	0
  1935     0A68  3400               	retlw	0
  1936     0A69  347C               	retlw	124
  1937     0A6A  3404               	retlw	4
  1938     0A6B  3418               	retlw	24
  1939     0A6C  3404               	retlw	4
  1940     0A6D  3478               	retlw	120
  1941     0A6E  3400               	retlw	0
  1942     0A6F  3400               	retlw	0
  1943     0A70  3400               	retlw	0
  1944     0A71  347C               	retlw	124
  1945     0A72  3408               	retlw	8
  1946     0A73  3404               	retlw	4
  1947     0A74  347C               	retlw	124
  1948     0A75  3400               	retlw	0
  1949     0A76  3400               	retlw	0
  1950     0A77  3400               	retlw	0
  1951     0A78  3400               	retlw	0
  1952     0A79  3438               	retlw	56
  1953     0A7A  3444               	retlw	68
  1954     0A7B  3444               	retlw	68
  1955     0A7C  3438               	retlw	56
  1956     0A7D  3400               	retlw	0
  1957     0A7E  3400               	retlw	0
  1958     0A7F  3400               	retlw	0
  1959     0A80  3400               	retlw	0
  1960     0A81  34FC               	retlw	252
  1961     0A82  3424               	retlw	36
  1962     0A83  3424               	retlw	36
  1963     0A84  3418               	retlw	24
  1964     0A85  3400               	retlw	0
  1965     0A86  3400               	retlw	0
  1966     0A87  3400               	retlw	0
  1967     0A88  3400               	retlw	0
  1968     0A89  3418               	retlw	24
  1969     0A8A  3424               	retlw	36
  1970     0A8B  3424               	retlw	36
  1971     0A8C  34FC               	retlw	252
  1972     0A8D  3400               	retlw	0
  1973     0A8E  3400               	retlw	0
  1974     0A8F  3400               	retlw	0
  1975     0A90  3400               	retlw	0
  1976     0A91  3400               	retlw	0
  1977     0A92  347C               	retlw	124
  1978     0A93  3408               	retlw	8
  1979     0A94  3404               	retlw	4
  1980     0A95  3400               	retlw	0
  1981     0A96  3400               	retlw	0
  1982     0A97  3400               	retlw	0
  1983     0A98  3400               	retlw	0
  1984     0A99  3448               	retlw	72
  1985     0A9A  3454               	retlw	84
  1986     0A9B  3454               	retlw	84
  1987     0A9C  3424               	retlw	36
  1988     0A9D  3400               	retlw	0
  1989     0A9E  3400               	retlw	0
  1990     0A9F  3400               	retlw	0
  1991     0AA0  3400               	retlw	0
  1992     0AA1  3404               	retlw	4
  1993     0AA2  347F               	retlw	127
  1994     0AA3  3444               	retlw	68
  1995     0AA4  3400               	retlw	0
  1996     0AA5  3400               	retlw	0
  1997     0AA6  3400               	retlw	0
  1998     0AA7  3400               	retlw	0
  1999     0AA8  3400               	retlw	0
  2000     0AA9  343C               	retlw	60
  2001     0AAA  3440               	retlw	64
  2002     0AAB  3440               	retlw	64
  2003     0AAC  347C               	retlw	124
  2004     0AAD  3400               	retlw	0
  2005     0AAE  3400               	retlw	0
  2006     0AAF  3400               	retlw	0
  2007     0AB0  3400               	retlw	0
  2008     0AB1  341C               	retlw	28
  2009     0AB2  3420               	retlw	32
  2010     0AB3  3440               	retlw	64
  2011     0AB4  3420               	retlw	32
  2012     0AB5  341C               	retlw	28
  2013     0AB6  3400               	retlw	0
  2014     0AB7  3400               	retlw	0
  2015     0AB8  3400               	retlw	0
  2016     0AB9  343C               	retlw	60
  2017     0ABA  3440               	retlw	64
  2018     0ABB  3430               	retlw	48
  2019     0ABC  3440               	retlw	64
  2020     0ABD  343C               	retlw	60
  2021     0ABE  3400               	retlw	0
  2022     0ABF  3400               	retlw	0
  2023     0AC0  3400               	retlw	0
  2024     0AC1  3444               	retlw	68
  2025     0AC2  3428               	retlw	40
  2026     0AC3  3410               	retlw	16
  2027     0AC4  3428               	retlw	40
  2028     0AC5  3444               	retlw	68
  2029     0AC6  3400               	retlw	0
  2030     0AC7  3400               	retlw	0
  2031     0AC8  3400               	retlw	0
  2032     0AC9  341C               	retlw	28
  2033     0ACA  34A0               	retlw	160
  2034     0ACB  34A0               	retlw	160
  2035     0ACC  347C               	retlw	124
  2036     0ACD  3400               	retlw	0
  2037     0ACE  3400               	retlw	0
  2038     0ACF  3400               	retlw	0
  2039     0AD0  3400               	retlw	0
  2040     0AD1  3444               	retlw	68
  2041     0AD2  3464               	retlw	100
  2042     0AD3  3454               	retlw	84
  2043     0AD4  344C               	retlw	76
  2044     0AD5  3444               	retlw	68
  2045     0AD6  3400               	retlw	0
  2046     0AD7  3400               	retlw	0
  2047     0AD8  3400               	retlw	0
  2048     0AD9  3408               	retlw	8
  2049     0ADA  3436               	retlw	54
  2050     0ADB  3441               	retlw	65
  2051     0ADC  3400               	retlw	0
  2052     0ADD  3400               	retlw	0
  2053     0ADE  3400               	retlw	0
  2054     0ADF  3400               	retlw	0
  2055     0AE0  3400               	retlw	0
  2056     0AE1  3400               	retlw	0
  2057     0AE2  347F               	retlw	127
  2058     0AE3  3400               	retlw	0
  2059     0AE4  3400               	retlw	0
  2060     0AE5  3400               	retlw	0
  2061     0AE6  3400               	retlw	0
  2062     0AE7  3400               	retlw	0
  2063     0AE8  3400               	retlw	0
  2064     0AE9  3441               	retlw	65
  2065     0AEA  3436               	retlw	54
  2066     0AEB  3408               	retlw	8
  2067     0AEC  3400               	retlw	0
  2068     0AED  3400               	retlw	0
  2069     0AEE  3400               	retlw	0
  2070     0AEF  3400               	retlw	0
  2071     0AF0  3400               	retlw	0
  2072     0AF1  3402               	retlw	2
  2073     0AF2  3401               	retlw	1
  2074     0AF3  3401               	retlw	1
  2075     0AF4  3402               	retlw	2
  2076     0AF5  3401               	retlw	1
  2077     0AF6  3400               	retlw	0
  2078     0AF7  3400               	retlw	0
  2079     0AF8  3400               	retlw	0
  2080     0AF9  3402               	retlw	2
  2081     0AFA  3405               	retlw	5
  2082     0AFB  3405               	retlw	5
  2083     0AFC  3402               	retlw	2
  2084     0AFD  3400               	retlw	0
  2085     0AFE  3400               	retlw	0
  2086     0AFF  3400               	retlw	0
  2087     0B00                     __end_of_OledFont:
  2088     0011                     _PIR1bits	set	17
  2089     009C                     _ADRESH	set	156
  2090     009B                     _ADRESL	set	155
  2091     009D                     _ADCON0bits	set	157
  2092     009E                     _ADCON1bits	set	158
  2093     008E                     _TRISCbits	set	142
  2094     008D                     _TRISBbits	set	141
  2095     04CF                     _SPLLEN	set	1231
  2096     04CE                     _IRCF3	set	1230
  2097     04CD                     _IRCF2	set	1229
  2098     04CC                     _IRCF1	set	1228
  2099     04CB                     _IRCF0	set	1227
  2100     04C9                     _SCS1	set	1225
  2101     04C8                     _SCS0	set	1224
  2102     0190                     _ANSELEbits	set	400
  2103     018E                     _ANSELCbits	set	398
  2104     018D                     _ANSELB	set	397
  2105     0216                     _SSPCON2bits	set	534
  2106     0211                     _SSPBUF	set	529
  2107     0212                     _SSPADD	set	530
  2108     0215                     _SSPCONbits	set	533
  2109     0298                     _CCPR2L	set	664
  2110     0291                     _CCPR1L	set	657
  2111     029A                     _CCP2CONbits	set	666
  2112     0293                     _CCP1CONbits	set	659
  2113     029E                     _CCPTMRSbits	set	670
  2114     041D                     _PR6	set	1053
  2115     041E                     _T6CONbits	set	1054
  2116     0E20                     _SSPCLKPPSbits	set	3616
  2117     0E21                     _SSPDATPPSbits	set	3617
  2118     0E0F                     _PPSLOCKbits	set	3599
  2119     0E0F                     _PPSLOCK	set	3599
  2120     0EA5                     _RC5PPSbits	set	3749
  2121     0EA4                     _RC4PPSbits	set	3748
  2122     0E99                     _RB1PPSbits	set	3737
  2123     0E98                     _RB0PPSbits	set	3736
  2124     0B00                     STR_3:
  2125     0B00  3457               	retlw	87	;'W'
  2126     0B01  3461               	retlw	97	;'a'
  2127     0B02  3472               	retlw	114	;'r'
  2128     0B03  346E               	retlw	110	;'n'
  2129     0B04  3469               	retlw	105	;'i'
  2130     0B05  346E               	retlw	110	;'n'
  2131     0B06  3467               	retlw	103	;'g'
  2132     0B07  3421               	retlw	33	;'!'
  2133     0B08  3421               	retlw	33	;'!'
  2134     0B09  3400               	retlw	0
  2135                           
  2136                           	psect	stringtext2
  2137     1000                     __pstringtext2:
  2138     1000                     STR_4:
  2139     1000  3454               	retlw	84	;'T'
  2140     1001  3465               	retlw	101	;'e'
  2141     1002  346D               	retlw	109	;'m'
  2142     1003  3470               	retlw	112	;'p'
  2143     1004  3420               	retlw	32	;' '
  2144     1005  344F               	retlw	79	;'O'
  2145     1006  344B               	retlw	75	;'K'
  2146     1007  3400               	retlw	0
  2147                           
  2148                           	psect	stringtext3
  2149     1008                     __pstringtext3:
  2150     1008                     STR_1:
  2151     1008  3420               	retlw	32	;' '
  2152     1009  3420               	retlw	32	;' '
  2153     100A  3420               	retlw	32	;' '
  2154     100B  3420               	retlw	32	;' '
  2155     100C  3420               	retlw	32	;' '
  2156     100D  3400               	retlw	0
  2157                           
  2158                           	psect	stringtext4
  2159     100E                     __pstringtext4:
  2160     100E                     STR_2:
  2161     100E  3449               	retlw	73	;'I'
  2162     100F  346E               	retlw	110	;'n'
  2163     1010  3469               	retlw	105	;'i'
  2164     1011  3474               	retlw	116	;'t'
  2165     1012  3400               	retlw	0
  2166                           
  2167                           	psect	stringtext5
  2168     0000                     __pstringtext5:
  2169                           
  2170                           	psect	cinit
  2171     07FD                     start_initialization:	
  2172                           ; #config settings
  2173                           
  2174     07FD                     __initialization:
  2175     07FD                     end_of_initialization:	
  2176                           ;End of C runtime variable initialization code
  2177                           
  2178     07FD                     __end_of__initialization:
  2179     07FD  0020               	movlb	0
  2180     07FE  3180  288D         	ljmp	_main	;jump to C main() function
  2181                           
  2182                           	psect	cstackBANK1
  2183     00A0                     __pcstackBANK1:
  2184     00A0                     main@result:
  2185                           
  2186                           ; 4 bytes @ 0x0
  2187     00A0                     	ds	4
  2188     00A4                     main@conversion10:
  2189                           
  2190                           ; 4 bytes @ 0x4
  2191     00A4                     	ds	4
  2192     00A8                     main@farenheit:
  2193                           
  2194                           ; 4 bytes @ 0x8
  2195     00A8                     	ds	4
  2196     00AC                     main@celsius:
  2197                           
  2198                           ; 4 bytes @ 0xC
  2199     00AC                     	ds	4
  2200                           
  2201                           	psect	cstackCOMMON
  2202     0070                     __pcstackCOMMON:
  2203     0070                     ?_memmove:
  2204     0070                     ?_I2C_Init:	
  2205                           ; 1 bytes @ 0x0
  2206                           
  2207     0070                     ??_I2C_Init:	
  2208                           ; 1 bytes @ 0x0
  2209                           
  2210     0070                     ?_Send_I2C_Data:	
  2211                           ; 1 bytes @ 0x0
  2212                           
  2213     0070                     ?_Send_I2C_StartBit:	
  2214                           ; 1 bytes @ 0x0
  2215                           
  2216     0070                     ??_Send_I2C_StartBit:	
  2217                           ; 1 bytes @ 0x0
  2218                           
  2219     0070                     ?_Send_I2C_StopBit:	
  2220                           ; 1 bytes @ 0x0
  2221                           
  2222     0070                     ??_Send_I2C_StopBit:	
  2223                           ; 1 bytes @ 0x0
  2224                           
  2225     0070                     ?_OLED_Command:	
  2226                           ; 1 bytes @ 0x0
  2227                           
  2228     0070                     ?_OLED_Init:	
  2229                           ; 1 bytes @ 0x0
  2230                           
  2231     0070                     ?_OLED_PutChar:	
  2232                           ; 1 bytes @ 0x0
  2233                           
  2234     0070                     ?_OLED_Clear:	
  2235                           ; 1 bytes @ 0x0
  2236                           
  2237     0070                     ?_OLED_Write_Integer:	
  2238                           ; 1 bytes @ 0x0
  2239                           
  2240     0070                     ?_internal_16:	
  2241                           ; 1 bytes @ 0x0
  2242                           
  2243     0070                     ??_internal_16:	
  2244                           ; 1 bytes @ 0x0
  2245                           
  2246     0070                     ?_initMain:	
  2247                           ; 1 bytes @ 0x0
  2248                           
  2249     0070                     ??_initMain:	
  2250                           ; 1 bytes @ 0x0
  2251                           
  2252     0070                     ?_main:	
  2253                           ; 1 bytes @ 0x0
  2254                           
  2255     0070                     ?__Umul8_16:	
  2256                           ; 1 bytes @ 0x0
  2257                           
  2258     0070                     ?___wmul:	
  2259                           ; 2 bytes @ 0x0
  2260                           
  2261     0070                     ?___awdiv:	
  2262                           ; 2 bytes @ 0x0
  2263                           
  2264     0070                     ?___awmod:	
  2265                           ; 2 bytes @ 0x0
  2266                           
  2267     0070                     ?___fltol:	
  2268                           ; 2 bytes @ 0x0
  2269                           
  2270     0070                     ?___fladd:	
  2271                           ; 4 bytes @ 0x0
  2272                           
  2273     0070                     ?___xxtofl:	
  2274                           ; 4 bytes @ 0x0
  2275                           
  2276     0070                     __Umul8_16@multiplicand:	
  2277                           ; 4 bytes @ 0x0
  2278                           
  2279     0070                     Send_I2C_Data@databyte:	
  2280                           ; 1 bytes @ 0x0
  2281                           
  2282     0070                     ___wmul@multiplier:	
  2283                           ; 2 bytes @ 0x0
  2284                           
  2285     0070                     ___awdiv@divisor:	
  2286                           ; 2 bytes @ 0x0
  2287                           
  2288     0070                     ___awmod@divisor:	
  2289                           ; 2 bytes @ 0x0
  2290                           
  2291     0070                     memmove@s1:	
  2292                           ; 2 bytes @ 0x0
  2293                           
  2294     0070                     ___fltol@f1:	
  2295                           ; 2 bytes @ 0x0
  2296                           
  2297     0070                     ___fladd@b:	
  2298                           ; 4 bytes @ 0x0
  2299                           
  2300     0070                     ___xxtofl@val:	
  2301                           ; 4 bytes @ 0x0
  2302                           
  2303                           
  2304                           ; 4 bytes @ 0x0
  2305     0070                     	ds	2
  2306     0072                     ??__Umul8_16:
  2307     0072                     ??_Send_I2C_Data:	
  2308                           ; 1 bytes @ 0x2
  2309                           
  2310     0072                     ??_OLED_Command:	
  2311                           ; 1 bytes @ 0x2
  2312                           
  2313     0072                     ___wmul@multiplicand:	
  2314                           ; 1 bytes @ 0x2
  2315                           
  2316     0072                     ___awdiv@dividend:	
  2317                           ; 2 bytes @ 0x2
  2318                           
  2319     0072                     ___awmod@dividend:	
  2320                           ; 2 bytes @ 0x2
  2321                           
  2322     0072                     memmove@n:	
  2323                           ; 2 bytes @ 0x2
  2324                           
  2325                           
  2326                           ; 2 bytes @ 0x2
  2327     0072                     	ds	2
  2328     0074                     ??_memmove:
  2329     0074                     ??___wmul:	
  2330                           ; 1 bytes @ 0x4
  2331                           
  2332     0074                     ??___awdiv:	
  2333                           ; 1 bytes @ 0x4
  2334                           
  2335     0074                     ??___awmod:	
  2336                           ; 1 bytes @ 0x4
  2337                           
  2338     0074                     ??___fltol:	
  2339                           ; 1 bytes @ 0x4
  2340                           
  2341     0074                     ??___xxtofl:	
  2342                           ; 1 bytes @ 0x4
  2343                           
  2344     0074                     OLED_Command@temp:	
  2345                           ; 1 bytes @ 0x4
  2346                           
  2347     0074                     ___wmul@product:	
  2348                           ; 1 bytes @ 0x4
  2349                           
  2350     0074                     __Umul8_16@product:	
  2351                           ; 2 bytes @ 0x4
  2352                           
  2353     0074                     ___fladd@a:	
  2354                           ; 2 bytes @ 0x4
  2355                           
  2356                           
  2357                           ; 4 bytes @ 0x4
  2358     0074                     	ds	1
  2359     0075                     ??_OLED_Init:
  2360     0075                     ?_OLED_YX:	
  2361                           ; 1 bytes @ 0x5
  2362                           
  2363     0075                     OLED_YX@Column:	
  2364                           ; 1 bytes @ 0x5
  2365                           
  2366     0075                     ___awdiv@counter:	
  2367                           ; 1 bytes @ 0x5
  2368                           
  2369     0075                     ___awmod@counter:	
  2370                           ; 1 bytes @ 0x5
  2371                           
  2372                           
  2373                           ; 1 bytes @ 0x5
  2374     0075                     	ds	1
  2375     0076                     ??_OLED_YX:
  2376     0076                     ___awdiv@sign:	
  2377                           ; 1 bytes @ 0x6
  2378                           
  2379     0076                     ___awmod@sign:	
  2380                           ; 1 bytes @ 0x6
  2381                           
  2382     0076                     memmove@d1:	
  2383                           ; 1 bytes @ 0x6
  2384                           
  2385     0076                     __Umul8_16@word_mpld:	
  2386                           ; 1 bytes @ 0x6
  2387                           
  2388                           
  2389                           ; 2 bytes @ 0x6
  2390     0076                     	ds	1
  2391     0077                     memmove@c:
  2392     0077                     ___awdiv@quotient:	
  2393                           ; 1 bytes @ 0x7
  2394                           
  2395                           
  2396                           ; 2 bytes @ 0x7
  2397     0077                     	ds	1
  2398     0078                     ___fltol@sign1:
  2399     0078                     ___fladd@signs:	
  2400                           ; 1 bytes @ 0x8
  2401                           
  2402     0078                     __Umul8_16@multiplier:	
  2403                           ; 1 bytes @ 0x8
  2404                           
  2405     0078                     ___xxtofl@sign:	
  2406                           ; 1 bytes @ 0x8
  2407                           
  2408     0078                     memmove@s:	
  2409                           ; 1 bytes @ 0x8
  2410                           
  2411                           
  2412                           ; 2 bytes @ 0x8
  2413     0078                     	ds	1
  2414     0079                     ?_cusitoa:
  2415     0079                     OLED_YX@Row:	
  2416                           ; 1 bytes @ 0x9
  2417                           
  2418     0079                     ___fltol@exp1:	
  2419                           ; 1 bytes @ 0x9
  2420                           
  2421     0079                     ___fladd@aexp:	
  2422                           ; 1 bytes @ 0x9
  2423                           
  2424     0079                     ___xxtofl@exp:	
  2425                           ; 1 bytes @ 0x9
  2426                           
  2427     0079                     cusitoa@d:	
  2428                           ; 1 bytes @ 0x9
  2429                           
  2430                           
  2431                           ; 2 bytes @ 0x9
  2432     0079                     	ds	1
  2433     007A                     ___fladd@bexp:
  2434     007A                     memmove@d:	
  2435                           ; 1 bytes @ 0xA
  2436                           
  2437     007A                     ___xxtofl@arg:	
  2438                           ; 2 bytes @ 0xA
  2439                           
  2440                           
  2441                           ; 4 bytes @ 0xA
  2442     007A                     	ds	1
  2443     007B                     ??_cusitoa:
  2444     007B                     ___fladd@grs:	
  2445                           ; 1 bytes @ 0xB
  2446                           
  2447                           
  2448                           ; 1 bytes @ 0xB
  2449     007B                     	ds	1
  2450     007C                     ??_OLED_Clear:
  2451     007C                     ?_OLED_Write_String:	
  2452                           ; 1 bytes @ 0xC
  2453                           
  2454     007C                     OLED_Write_String@s:	
  2455                           ; 1 bytes @ 0xC
  2456                           
  2457                           
  2458                           ; 2 bytes @ 0xC
  2459     007C                     	ds	2
  2460                           
  2461                           	psect	cstackBANK0
  2462     0020                     __pcstackBANK0:
  2463     0020                     ??_OLED_PutChar:
  2464     0020                     ??___fladd:	
  2465                           ; 1 bytes @ 0x0
  2466                           
  2467     0020                     cusitoa@num:	
  2468                           ; 1 bytes @ 0x0
  2469                           
  2470                           
  2471                           ; 2 bytes @ 0x0
  2472     0020                     	ds	2
  2473     0022                     cusitoa@temp:
  2474                           
  2475                           ; 2 bytes @ 0x2
  2476     0022                     	ds	2
  2477     0024                     cusitoa@buf:
  2478     0024                     OLED_PutChar@bytes:	
  2479                           ; 1 bytes @ 0x4
  2480                           
  2481                           
  2482                           ; 9 bytes @ 0x4
  2483     0024                     	ds	1
  2484     0025                     cusitoa@div:
  2485                           
  2486                           ; 2 bytes @ 0x5
  2487     0025                     	ds	3
  2488     0028                     ?___flmul:
  2489     0028                     ___flmul@b:	
  2490                           ; 4 bytes @ 0x8
  2491                           
  2492                           
  2493                           ; 4 bytes @ 0x8
  2494     0028                     	ds	4
  2495     002C                     ___flmul@a:
  2496                           
  2497                           ; 4 bytes @ 0xC
  2498     002C                     	ds	1
  2499     002D                     OLED_PutChar@base:
  2500                           
  2501                           ; 2 bytes @ 0xD
  2502     002D                     	ds	2
  2503     002F                     OLED_PutChar@i:
  2504                           
  2505                           ; 2 bytes @ 0xF
  2506     002F                     	ds	1
  2507     0030                     ??___flmul:
  2508                           
  2509                           ; 1 bytes @ 0x10
  2510     0030                     	ds	1
  2511     0031                     OLED_PutChar@ch:
  2512                           
  2513                           ; 1 bytes @ 0x11
  2514     0031                     	ds	1
  2515     0032                     ??_OLED_Write_String:
  2516     0032                     OLED_Clear@row:	
  2517                           ; 1 bytes @ 0x12
  2518                           
  2519                           
  2520                           ; 2 bytes @ 0x12
  2521     0032                     	ds	1
  2522     0033                     ??_OLED_Write_Integer:
  2523                           
  2524                           ; 1 bytes @ 0x13
  2525     0033                     	ds	1
  2526     0034                     OLED_Clear@col:
  2527                           
  2528                           ; 2 bytes @ 0x14
  2529     0034                     	ds	1
  2530     0035                     ___flmul@sign:
  2531     0035                     OLED_Write_Integer@buffer:	
  2532                           ; 1 bytes @ 0x15
  2533                           
  2534                           
  2535                           ; 20 bytes @ 0x15
  2536     0035                     	ds	1
  2537     0036                     ___flmul@grs:
  2538                           
  2539                           ; 4 bytes @ 0x16
  2540     0036                     	ds	4
  2541     003A                     ___flmul@aexp:
  2542                           
  2543                           ; 1 bytes @ 0x1A
  2544     003A                     	ds	1
  2545     003B                     ___flmul@bexp:
  2546                           
  2547                           ; 1 bytes @ 0x1B
  2548     003B                     	ds	1
  2549     003C                     ___flmul@prod:
  2550                           
  2551                           ; 4 bytes @ 0x1C
  2552     003C                     	ds	4
  2553     0040                     ___flmul@temp:
  2554                           
  2555                           ; 2 bytes @ 0x20
  2556     0040                     	ds	2
  2557     0042                     ?___fldiv:
  2558     0042                     ___fldiv@a:	
  2559                           ; 4 bytes @ 0x22
  2560                           
  2561                           
  2562                           ; 4 bytes @ 0x22
  2563     0042                     	ds	4
  2564     0046                     ___fldiv@b:
  2565                           
  2566                           ; 4 bytes @ 0x26
  2567     0046                     	ds	3
  2568     0049                     OLED_Write_Integer@i:
  2569                           
  2570                           ; 1 bytes @ 0x29
  2571     0049                     	ds	1
  2572     004A                     ??___fldiv:
  2573     004A                     OLED_Write_Integer@ptr:	
  2574                           ; 1 bytes @ 0x2A
  2575                           
  2576                           
  2577                           ; 1 bytes @ 0x2A
  2578     004A                     	ds	5
  2579     004F                     ___fldiv@rem:
  2580                           
  2581                           ; 4 bytes @ 0x2F
  2582     004F                     	ds	4
  2583     0053                     ___fldiv@sign:
  2584                           
  2585                           ; 1 bytes @ 0x33
  2586     0053                     	ds	1
  2587     0054                     ___fldiv@new_exp:
  2588                           
  2589                           ; 2 bytes @ 0x34
  2590     0054                     	ds	2
  2591     0056                     ___fldiv@grs:
  2592                           
  2593                           ; 4 bytes @ 0x36
  2594     0056                     	ds	4
  2595     005A                     ___fldiv@bexp:
  2596                           
  2597                           ; 1 bytes @ 0x3A
  2598     005A                     	ds	1
  2599     005B                     ___fldiv@aexp:
  2600                           
  2601                           ; 1 bytes @ 0x3B
  2602     005B                     	ds	1
  2603     005C                     ??_main:
  2604                           
  2605                           ; 1 bytes @ 0x3C
  2606     005C                     	ds	5
  2607                           
  2608                           	psect	maintext
  2609     008D                     __pmaintext:	
  2610 ;;
  2611 ;;Main: autosize = 0, tempsize = 5, incstack = 0, save=0
  2612 ;;
  2613 ;; *************** function _main *****************
  2614 ;; Defined at:
  2615 ;;		line 180 in file "main.c"
  2616 ;; Parameters:    Size  Location     Type
  2617 ;;		None
  2618 ;; Auto vars:     Size  Location     Type
  2619 ;;  celsius         4   12[BANK1 ] float 
  2620 ;;  farenheit       4    8[BANK1 ] float 
  2621 ;;  conversion10    4    4[BANK1 ] float 
  2622 ;;  result          4    0[BANK1 ] float 
  2623 ;; Return value:  Size  Location     Type
  2624 ;;                  1    wreg      void 
  2625 ;; Registers used:
  2626 ;;		wreg, fsr0l, fsr0h, fsr1l, fsr1h, status,2, status,0, pclath, cstack
  2627 ;; Tracked objects:
  2628 ;;		On entry : B1F/0
  2629 ;;		On exit  : 0/0
  2630 ;;		Unchanged: 0/0
  2631 ;; Data sizes:     COMMON   BANK0   BANK1   BANK2   BANK3   BANK4   BANK5   BANK6   BANK7   BANK8   BANK9  BANK10  BANK1
      +1  BANK12  BANK13  BANK14  BANK15  BANK16  BANK17  BANK18  BANK19  BANK20  BANK21  BANK22  BANK23  BANK24  BANK25
  2632 ;;      Params:         0       0       0       0       0       0       0       0       0       0       0       0       
      +0       0       0       0       0       0       0       0       0       0       0       0       0       0       0
  2633 ;;      Locals:         0       0      16       0       0       0       0       0       0       0       0       0       
      +0       0       0       0       0       0       0       0       0       0       0       0       0       0       0
  2634 ;;      Temps:          0       5       0       0       0       0       0       0       0       0       0       0       
      +0       0       0       0       0       0       0       0       0       0       0       0       0       0       0
  2635 ;;      Totals:         0       5      16       0       0       0       0       0       0       0       0       0       
      +0       0       0       0       0       0       0       0       0       0       0       0       0       0       0
  2636 ;;Total ram usage:       21 bytes
  2637 ;; Hardware stack levels required when called: 4
  2638 ;; This function calls:
  2639 ;;		_I2C_Init
  2640 ;;		_OLED_Clear
  2641 ;;		_OLED_Init
  2642 ;;		_OLED_Write_Integer
  2643 ;;		_OLED_Write_String
  2644 ;;		_OLED_YX
  2645 ;;		___fladd
  2646 ;;		___fldiv
  2647 ;;		___flmul
  2648 ;;		___fltol
  2649 ;;		___xxtofl
  2650 ;;		_initMain
  2651 ;; This function is called by:
  2652 ;;		Startup code after reset
  2653 ;; This function uses a non-reentrant model
  2654 ;;
  2655                           
  2656     008D                     _main:	
  2657                           ;psect for function _main
  2658                           
  2659     008D                     l2642:	
  2660                           ;incstack = 0
  2661                           ; Regs used in _main: [wreg-fsr1h+status,2+status,0+pclath+cstack]
  2662                           
  2663                           
  2664                           ;main.c: 181:     initMain();
  2665     008D  318D  251E  3180   	fcall	_initMain
  2666                           
  2667                           ;main.c: 184:     I2C_Init();
  2668     0090  318B  2385  3180   	fcall	_I2C_Init
  2669     0093                     l2644:
  2670                           
  2671                           ;main.c: 186:     _delay((unsigned long)((500)*(16000000/4000.0)));
  2672     0093  300B               	movlw	11
  2673     0094  0020               	movlb	0	; select bank0
  2674     0095  00DD               	movwf	??_main+1
  2675     0096  3026               	movlw	38
  2676     0097  00DC               	movwf	??_main
  2677     0098  305D               	movlw	93
  2678     0099                     u3437:
  2679     0099  0B89               	decfsz	9,f
  2680     009A  2899               	goto	u3437
  2681     009B  0BDC               	decfsz	??_main,f
  2682     009C  2899               	goto	u3437
  2683     009D  0BDD               	decfsz	??_main+1,f
  2684     009E  2899               	goto	u3437
  2685     009F  3200               	nop2
  2686     00A0                     l2646:
  2687                           
  2688                           ;main.c: 189:     OLED_Init();
  2689     00A0  318D  2581  3180   	fcall	_OLED_Init
  2690                           
  2691                           ;main.c: 191:     _delay((unsigned long)((1000)*(16000000/4000.0)));
  2692     00A3  3015               	movlw	21
  2693     00A4  0020               	movlb	0	; select bank0
  2694     00A5  00DD               	movwf	??_main+1
  2695     00A6  304B               	movlw	75
  2696     00A7  00DC               	movwf	??_main
  2697     00A8  30BE               	movlw	190
  2698     00A9                     u3447:
  2699     00A9  0B89               	decfsz	9,f
  2700     00AA  28A9               	goto	u3447
  2701     00AB  0BDC               	decfsz	??_main,f
  2702     00AC  28A9               	goto	u3447
  2703     00AD  0BDD               	decfsz	??_main+1,f
  2704     00AE  28A9               	goto	u3447
  2705     00AF  0000               	nop
  2706     00B0                     l2648:
  2707                           
  2708                           ;main.c: 194:     OLED_Clear();
  2709     00B0  318C  2441  3180   	fcall	_OLED_Clear
  2710     00B3                     l2650:
  2711                           
  2712                           ;main.c: 197:     float result;;main.c: 200:     float conversion10;;main.c: 201:     fl
      +                          oat farenheit;;main.c: 202:     float celsius;;main.c: 205:     CCPR1L = 0;
  2713     00B3  0025               	movlb	5	; select bank5
  2714     00B4  0191               	clrf	17	;volatile
  2715     00B5                     l2652:
  2716                           
  2717                           ;main.c: 206:     CCPR2L = 0;
  2718     00B5  0198               	clrf	24	;volatile
  2719     00B6                     l2654:
  2720                           
  2721                           ;main.c: 208:     OLED_YX(0, 0);
  2722     00B6  01F5               	clrf	OLED_YX@Column
  2723     00B7  3000               	movlw	0
  2724     00B8  318C  2418  3180   	fcall	_OLED_YX
  2725     00BB                     l2656:
  2726                           
  2727                           ;main.c: 209:     OLED_Write_String("Init");
  2728     00BB  300E               	movlw	low (STR_2| (0+32768))
  2729     00BC  00FC               	movwf	OLED_Write_String@s
  2730     00BD  3090               	movlw	high (STR_2| (0+32768))
  2731     00BE  00FD               	movwf	OLED_Write_String@s+1
  2732     00BF  3180  2006  3180   	fcall	_OLED_Write_String
  2733     00C2                     l2658:
  2734                           
  2735                           ;main.c: 214:         ADCON0bits.ADON = 1;
  2736     00C2  0021               	movlb	1	; select bank1
  2737     00C3  141D               	bsf	29,0	;volatile
  2738     00C4                     l2660:
  2739                           
  2740                           ;main.c: 217:         _delay((unsigned long)((10)*(16000000/4000000.0)));
  2741     00C4  300D               	movlw	13
  2742     00C5                     u3457:
  2743     00C5  0B89               	decfsz	9,f
  2744     00C6  28C5               	goto	u3457
  2745     00C7  0000               	nop
  2746     00C8                     l2662:
  2747                           
  2748                           ;main.c: 218:         ADCON0bits.GO = 1;
  2749     00C8  0021               	movlb	1	; select bank1
  2750     00C9  149D               	bsf	29,1	;volatile
  2751     00CA                     l221:	
  2752                           ;main.c: 219:         while (ADCON0bits.GO_nDONE);
  2753                           
  2754     00CA  189D               	btfsc	29,1	;volatile
  2755     00CB  28CD               	goto	u3411
  2756     00CC  28CE               	goto	u3410
  2757     00CD                     u3411:
  2758     00CD  28CA               	goto	l221
  2759     00CE                     u3410:
  2760     00CE                     l2664:
  2761                           
  2762                           ;main.c: 222:         result = ((ADRESH<<8)+ADRESL);
  2763     00CE  081B               	movf	27,w	;volatile
  2764     00CF  0020               	movlb	0	; select bank0
  2765     00D0  00DC               	movwf	??_main
  2766     00D1  01DD               	clrf	??_main+1
  2767     00D2  0021               	movlb	1	; select bank1
  2768     00D3  081C               	movf	28,w	;volatile
  2769     00D4  0020               	movlb	0	; select bank0
  2770     00D5  00DE               	movwf	??_main+2
  2771     00D6  01DF               	clrf	??_main+3
  2772     00D7  085E               	movf	??_main+2,w
  2773     00D8  00DF               	movwf	??_main+3
  2774     00D9  01DE               	clrf	??_main+2
  2775     00DA  085C               	movf	??_main,w
  2776     00DB  075E               	addwf	??_main+2,w
  2777     00DC  00F0               	movwf	___xxtofl@val
  2778     00DD  085D               	movf	??_main+1,w
  2779     00DE  3D5F               	addwfc	??_main+3,w
  2780     00DF  00F1               	movwf	___xxtofl@val+1
  2781     00E0  01F2               	clrf	___xxtofl@val+2
  2782     00E1  1BF1               	btfsc	___xxtofl@val+1,7
  2783     00E2  03F2               	decf	___xxtofl@val+2,f
  2784     00E3  0872               	movf	___xxtofl@val+2,w
  2785     00E4  00F3               	movwf	___xxtofl@val+3
  2786     00E5  3001               	movlw	1
  2787     00E6  318F  2756  3180   	fcall	___xxtofl
  2788     00E9  0873               	movf	?___xxtofl+3,w
  2789     00EA  0021               	movlb	1	; select bank1
  2790     00EB  00A3               	movwf	(main@result+3)^(0+128)
  2791     00EC  0872               	movf	?___xxtofl+2,w
  2792     00ED  00A2               	movwf	(main@result+2)^(0+128)
  2793     00EE  0871               	movf	?___xxtofl+1,w
  2794     00EF  00A1               	movwf	(main@result+1)^(0+128)
  2795     00F0  0870               	movf	?___xxtofl,w
  2796     00F1  00A0               	movwf	main@result^(0+128)
  2797                           
  2798                           ;main.c: 225:         conversion10 = (result * 5000)/1024 ;
  2799     00F2  3044               	movlw	68
  2800     00F3  0020               	movlb	0	; select bank0
  2801     00F4  00C5               	movwf	___fldiv@a+3
  2802     00F5  3080               	movlw	128
  2803     00F6  00C4               	movwf	___fldiv@a+2
  2804     00F7  3000               	movlw	0
  2805     00F8  00C3               	movwf	___fldiv@a+1
  2806     00F9  3000               	movlw	0
  2807     00FA  00C2               	movwf	___fldiv@a
  2808     00FB  3045               	movlw	69
  2809     00FC  00AB               	movwf	___flmul@b+3
  2810     00FD  309C               	movlw	156
  2811     00FE  00AA               	movwf	___flmul@b+2
  2812     00FF  3040               	movlw	64
  2813     0100  00A9               	movwf	___flmul@b+1
  2814     0101  3000               	movlw	0
  2815     0102  00A8               	movwf	___flmul@b
  2816     0103  0021               	movlb	1	; select bank1
  2817     0104  0823               	movf	(main@result+3)^(0+128),w
  2818     0105  0020               	movlb	0	; select bank0
  2819     0106  00AF               	movwf	___flmul@a+3
  2820     0107  0021               	movlb	1	; select bank1
  2821     0108  0822               	movf	(main@result+2)^(0+128),w
  2822     0109  0020               	movlb	0	; select bank0
  2823     010A  00AE               	movwf	___flmul@a+2
  2824     010B  0021               	movlb	1	; select bank1
  2825     010C  0821               	movf	(main@result+1)^(0+128),w
  2826     010D  0020               	movlb	0	; select bank0
  2827     010E  00AD               	movwf	___flmul@a+1
  2828     010F  0021               	movlb	1	; select bank1
  2829     0110  0820               	movf	main@result^(0+128),w
  2830     0111  0020               	movlb	0	; select bank0
  2831     0112  00AC               	movwf	___flmul@a
  2832     0113  3185  25C2  3180   	fcall	___flmul
  2833     0116  0020               	movlb	0	; select bank0
  2834     0117  082B               	movf	?___flmul+3,w
  2835     0118  00C9               	movwf	___fldiv@b+3
  2836     0119  082A               	movf	?___flmul+2,w
  2837     011A  00C8               	movwf	___fldiv@b+2
  2838     011B  0829               	movf	?___flmul+1,w
  2839     011C  00C7               	movwf	___fldiv@b+1
  2840     011D  0828               	movf	?___flmul,w
  2841     011E  00C6               	movwf	___fldiv@b
  2842     011F  3182  220C  3180   	fcall	___fldiv
  2843     0122  0020               	movlb	0	; select bank0
  2844     0123  0845               	movf	?___fldiv+3,w
  2845     0124  0021               	movlb	1	; select bank1
  2846     0125  00A7               	movwf	(main@conversion10+3)^(0+128)
  2847     0126  0020               	movlb	0	; select bank0
  2848     0127  0844               	movf	?___fldiv+2,w
  2849     0128  0021               	movlb	1	; select bank1
  2850     0129  00A6               	movwf	(main@conversion10+2)^(0+128)
  2851     012A  0020               	movlb	0	; select bank0
  2852     012B  0843               	movf	?___fldiv+1,w
  2853     012C  0021               	movlb	1	; select bank1
  2854     012D  00A5               	movwf	(main@conversion10+1)^(0+128)
  2855     012E  0020               	movlb	0	; select bank0
  2856     012F  0842               	movf	?___fldiv,w
  2857     0130  0021               	movlb	1	; select bank1
  2858     0131  00A4               	movwf	main@conversion10^(0+128)
  2859                           
  2860                           ;main.c: 228:         farenheit = conversion10 / 10;
  2861     0132  3041               	movlw	65
  2862     0133  0020               	movlb	0	; select bank0
  2863     0134  00C5               	movwf	___fldiv@a+3
  2864     0135  3020               	movlw	32
  2865     0136  00C4               	movwf	___fldiv@a+2
  2866     0137  3000               	movlw	0
  2867     0138  00C3               	movwf	___fldiv@a+1
  2868     0139  3000               	movlw	0
  2869     013A  00C2               	movwf	___fldiv@a
  2870     013B  0021               	movlb	1	; select bank1
  2871     013C  0827               	movf	(main@conversion10+3)^(0+128),w
  2872     013D  0020               	movlb	0	; select bank0
  2873     013E  00C9               	movwf	___fldiv@b+3
  2874     013F  0021               	movlb	1	; select bank1
  2875     0140  0826               	movf	(main@conversion10+2)^(0+128),w
  2876     0141  0020               	movlb	0	; select bank0
  2877     0142  00C8               	movwf	___fldiv@b+2
  2878     0143  0021               	movlb	1	; select bank1
  2879     0144  0825               	movf	(main@conversion10+1)^(0+128),w
  2880     0145  0020               	movlb	0	; select bank0
  2881     0146  00C7               	movwf	___fldiv@b+1
  2882     0147  0021               	movlb	1	; select bank1
  2883     0148  0824               	movf	main@conversion10^(0+128),w
  2884     0149  0020               	movlb	0	; select bank0
  2885     014A  00C6               	movwf	___fldiv@b
  2886     014B  3182  220C  3180   	fcall	___fldiv
  2887     014E  0020               	movlb	0	; select bank0
  2888     014F  0845               	movf	?___fldiv+3,w
  2889     0150  0021               	movlb	1	; select bank1
  2890     0151  00AB               	movwf	(main@farenheit+3)^(0+128)
  2891     0152  0020               	movlb	0	; select bank0
  2892     0153  0844               	movf	?___fldiv+2,w
  2893     0154  0021               	movlb	1	; select bank1
  2894     0155  00AA               	movwf	(main@farenheit+2)^(0+128)
  2895     0156  0020               	movlb	0	; select bank0
  2896     0157  0843               	movf	?___fldiv+1,w
  2897     0158  0021               	movlb	1	; select bank1
  2898     0159  00A9               	movwf	(main@farenheit+1)^(0+128)
  2899     015A  0020               	movlb	0	; select bank0
  2900     015B  0842               	movf	?___fldiv,w
  2901     015C  0021               	movlb	1	; select bank1
  2902     015D  00A8               	movwf	main@farenheit^(0+128)
  2903                           
  2904                           ;main.c: 231:         celsius = (farenheit - 32) * 5/9;
  2905     015E  3041               	movlw	65
  2906     015F  0020               	movlb	0	; select bank0
  2907     0160  00C5               	movwf	___fldiv@a+3
  2908     0161  3010               	movlw	16
  2909     0162  00C4               	movwf	___fldiv@a+2
  2910     0163  3000               	movlw	0
  2911     0164  00C3               	movwf	___fldiv@a+1
  2912     0165  3000               	movlw	0
  2913     0166  00C2               	movwf	___fldiv@a
  2914     0167  3040               	movlw	64
  2915     0168  00AB               	movwf	___flmul@b+3
  2916     0169  30A0               	movlw	160
  2917     016A  00AA               	movwf	___flmul@b+2
  2918     016B  3000               	movlw	0
  2919     016C  00A9               	movwf	___flmul@b+1
  2920     016D  3000               	movlw	0
  2921     016E  00A8               	movwf	___flmul@b
  2922     016F  30C2               	movlw	194
  2923     0170  00F3               	movwf	___fladd@b+3
  2924     0171  3000               	movlw	0
  2925     0172  00F2               	movwf	___fladd@b+2
  2926     0173  3000               	movlw	0
  2927     0174  00F1               	movwf	___fladd@b+1
  2928     0175  3000               	movlw	0
  2929     0176  00F0               	movwf	___fladd@b
  2930     0177  0021               	movlb	1	; select bank1
  2931     0178  082B               	movf	(main@farenheit+3)^(0+128),w
  2932     0179  00F7               	movwf	___fladd@a+3
  2933     017A  082A               	movf	(main@farenheit+2)^(0+128),w
  2934     017B  00F6               	movwf	___fladd@a+2
  2935     017C  0829               	movf	(main@farenheit+1)^(0+128),w
  2936     017D  00F5               	movwf	___fladd@a+1
  2937     017E  0828               	movf	main@farenheit^(0+128),w
  2938     017F  00F4               	movwf	___fladd@a
  2939     0180  3183  23B6  3180   	fcall	___fladd
  2940     0183  0873               	movf	?___fladd+3,w
  2941     0184  0020               	movlb	0	; select bank0
  2942     0185  00AF               	movwf	___flmul@a+3
  2943     0186  0872               	movf	?___fladd+2,w
  2944     0187  00AE               	movwf	___flmul@a+2
  2945     0188  0871               	movf	?___fladd+1,w
  2946     0189  00AD               	movwf	___flmul@a+1
  2947     018A  0870               	movf	?___fladd,w
  2948     018B  00AC               	movwf	___flmul@a
  2949     018C  3185  25C2  3180   	fcall	___flmul
  2950     018F  0020               	movlb	0	; select bank0
  2951     0190  082B               	movf	?___flmul+3,w
  2952     0191  00C9               	movwf	___fldiv@b+3
  2953     0192  082A               	movf	?___flmul+2,w
  2954     0193  00C8               	movwf	___fldiv@b+2
  2955     0194  0829               	movf	?___flmul+1,w
  2956     0195  00C7               	movwf	___fldiv@b+1
  2957     0196  0828               	movf	?___flmul,w
  2958     0197  00C6               	movwf	___fldiv@b
  2959     0198  3182  220C  3180   	fcall	___fldiv
  2960     019B  0020               	movlb	0	; select bank0
  2961     019C  0845               	movf	?___fldiv+3,w
  2962     019D  0021               	movlb	1	; select bank1
  2963     019E  00AF               	movwf	(main@celsius+3)^(0+128)
  2964     019F  0020               	movlb	0	; select bank0
  2965     01A0  0844               	movf	?___fldiv+2,w
  2966     01A1  0021               	movlb	1	; select bank1
  2967     01A2  00AE               	movwf	(main@celsius+2)^(0+128)
  2968     01A3  0020               	movlb	0	; select bank0
  2969     01A4  0843               	movf	?___fldiv+1,w
  2970     01A5  0021               	movlb	1	; select bank1
  2971     01A6  00AD               	movwf	(main@celsius+1)^(0+128)
  2972     01A7  0020               	movlb	0	; select bank0
  2973     01A8  0842               	movf	?___fldiv,w
  2974     01A9  0021               	movlb	1	; select bank1
  2975     01AA  00AC               	movwf	main@celsius^(0+128)
  2976                           
  2977                           ;main.c: 235:         OLED_YX(1, 0);
  2978     01AB  01F5               	clrf	OLED_YX@Column
  2979     01AC  3001               	movlw	1
  2980     01AD  318C  2418  3180   	fcall	_OLED_YX
  2981     01B0                     l2666:
  2982                           
  2983                           ;main.c: 236:         OLED_Write_Integer((int)celsius);
  2984     01B0  0021               	movlb	1	; select bank1
  2985     01B1  082F               	movf	(main@celsius+3)^(0+128),w
  2986     01B2  00F3               	movwf	___fltol@f1+3
  2987     01B3  082E               	movf	(main@celsius+2)^(0+128),w
  2988     01B4  00F2               	movwf	___fltol@f1+2
  2989     01B5  082D               	movf	(main@celsius+1)^(0+128),w
  2990     01B6  00F1               	movwf	___fltol@f1+1
  2991     01B7  082C               	movf	main@celsius^(0+128),w
  2992     01B8  00F0               	movwf	___fltol@f1
  2993     01B9  3180  201D  3180   	fcall	___fltol
  2994     01BC  0870               	movf	?___fltol,w
  2995     01BD  318B  23D3  3180   	fcall	_OLED_Write_Integer
  2996     01C0                     l2668:
  2997                           
  2998                           ;main.c: 239:         _delay((unsigned long)((2000)*(16000000/4000.0)));
  2999     01C0  3029               	movlw	41
  3000     01C1  0020               	movlb	0	; select bank0
  3001     01C2  00DD               	movwf	??_main+1
  3002     01C3  3096               	movlw	150
  3003     01C4  00DC               	movwf	??_main
  3004     01C5  307F               	movlw	127
  3005     01C6                     u3467:
  3006     01C6  0B89               	decfsz	9,f
  3007     01C7  29C6               	goto	u3467
  3008     01C8  0BDC               	decfsz	??_main,f
  3009     01C9  29C6               	goto	u3467
  3010     01CA  0BDD               	decfsz	??_main+1,f
  3011     01CB  29C6               	goto	u3467
  3012     01CC                     l2670:
  3013                           
  3014                           ;main.c: 243:         if ((int)celsius > 35){
  3015     01CC  0021               	movlb	1	; select bank1
  3016     01CD  082F               	movf	(main@celsius+3)^(0+128),w
  3017     01CE  00F3               	movwf	___fltol@f1+3
  3018     01CF  082E               	movf	(main@celsius+2)^(0+128),w
  3019     01D0  00F2               	movwf	___fltol@f1+2
  3020     01D1  082D               	movf	(main@celsius+1)^(0+128),w
  3021     01D2  00F1               	movwf	___fltol@f1+1
  3022     01D3  082C               	movf	main@celsius^(0+128),w
  3023     01D4  00F0               	movwf	___fltol@f1
  3024     01D5  3180  201D  3180   	fcall	___fltol
  3025     01D8  0871               	movf	?___fltol+1,w
  3026     01D9  3A80               	xorlw	128
  3027     01DA  0020               	movlb	0	; select bank0
  3028     01DB  00DC               	movwf	??_main
  3029     01DC  3080               	movlw	128
  3030     01DD  025C               	subwf	??_main,w
  3031     01DE  1D03               	skipz
  3032     01DF  29E2               	goto	u3425
  3033     01E0  3024               	movlw	36
  3034     01E1  0270               	subwf	?___fltol,w
  3035     01E2                     u3425:
  3036     01E2  1C03               	skipc
  3037     01E3  29E5               	goto	u3421
  3038     01E4  29E6               	goto	u3420
  3039     01E5                     u3421:
  3040     01E5  29FA               	goto	l2682
  3041     01E6                     u3420:
  3042     01E6                     l2672:
  3043                           
  3044                           ;main.c: 246:             CCPR1L = 127;
  3045     01E6  307F               	movlw	127
  3046     01E7  0025               	movlb	5	; select bank5
  3047     01E8  0091               	movwf	17	;volatile
  3048     01E9                     l2674:
  3049                           
  3050                           ;main.c: 247:             CCPR2L = 0;
  3051     01E9  0198               	clrf	24	;volatile
  3052     01EA                     l2676:
  3053                           
  3054                           ;main.c: 250:             OLED_Clear();
  3055     01EA  318C  2441  3180   	fcall	_OLED_Clear
  3056     01ED                     l2678:
  3057                           
  3058                           ;main.c: 252:             OLED_YX(0, 0);
  3059     01ED  01F5               	clrf	OLED_YX@Column
  3060     01EE  3000               	movlw	0
  3061     01EF  318C  2418  3180   	fcall	_OLED_YX
  3062     01F2                     l2680:
  3063                           
  3064                           ;main.c: 253:             OLED_Write_String("Warning!!");
  3065     01F2  3000               	movlw	low (STR_3| (0+32768))
  3066     01F3  00FC               	movwf	OLED_Write_String@s
  3067     01F4  308B               	movlw	high (STR_3| (0+32768))
  3068     01F5  00FD               	movwf	OLED_Write_String@s+1
  3069     01F6  3180  2006  3180   	fcall	_OLED_Write_String
  3070                           
  3071                           ;main.c: 254:       }
  3072     01F9  28C2               	goto	l2658
  3073     01FA                     l2682:
  3074                           
  3075                           ;main.c: 258:             OLED_YX(0, 0);
  3076     01FA  01F5               	clrf	OLED_YX@Column
  3077     01FB  3000               	movlw	0
  3078     01FC  318C  2418  3180   	fcall	_OLED_YX
  3079     01FF                     l2684:
  3080                           
  3081                           ;main.c: 259:             OLED_Write_String("Temp OK");
  3082     01FF  3000               	movlw	low (STR_4| (0+32768))
  3083     0200  00FC               	movwf	OLED_Write_String@s
  3084     0201  3090               	movlw	high (STR_4| (0+32768))
  3085     0202  00FD               	movwf	OLED_Write_String@s+1
  3086     0203  3180  2006  3180   	fcall	_OLED_Write_String
  3087     0206                     l2686:
  3088                           
  3089                           ;main.c: 260:             CCPR1L = 0;
  3090     0206  0025               	movlb	5	; select bank5
  3091     0207  0191               	clrf	17	;volatile
  3092     0208                     l2688:
  3093                           
  3094                           ;main.c: 261:             CCPR2L = 0;
  3095     0208  0198               	clrf	24	;volatile
  3096     0209  28C2               	goto	l2658
  3097     020A  3180  2802         	ljmp	start
  3098     020C                     __end_of_main:
  3099                           
  3100                           	psect	text1
  3101     0D1E                     __ptext1:	
  3102 ;; *************** function _initMain *****************
  3103 ;; Defined at:
  3104 ;;		line 43 in file "main.c"
  3105 ;; Parameters:    Size  Location     Type
  3106 ;;		None
  3107 ;; Auto vars:     Size  Location     Type
  3108 ;;		None
  3109 ;; Return value:  Size  Location     Type
  3110 ;;                  1    wreg      void 
  3111 ;; Registers used:
  3112 ;;		wreg, status,2, status,0, pclath, cstack
  3113 ;; Tracked objects:
  3114 ;;		On entry : 0/0
  3115 ;;		On exit  : 0/0
  3116 ;;		Unchanged: 0/0
  3117 ;; Data sizes:     COMMON   BANK0   BANK1   BANK2   BANK3   BANK4   BANK5   BANK6   BANK7   BANK8   BANK9  BANK10  BANK1
      +1  BANK12  BANK13  BANK14  BANK15  BANK16  BANK17  BANK18  BANK19  BANK20  BANK21  BANK22  BANK23  BANK24  BANK25
  3118 ;;      Params:         0       0       0       0       0       0       0       0       0       0       0       0       
      +0       0       0       0       0       0       0       0       0       0       0       0       0       0       0
  3119 ;;      Locals:         0       0       0       0       0       0       0       0       0       0       0       0       
      +0       0       0       0       0       0       0       0       0       0       0       0       0       0       0
  3120 ;;      Temps:          0       0       0       0       0       0       0       0       0       0       0       0       
      +0       0       0       0       0       0       0       0       0       0       0       0       0       0       0
  3121 ;;      Totals:         0       0       0       0       0       0       0       0       0       0       0       0       
      +0       0       0       0       0       0       0       0       0       0       0       0       0       0       0
  3122 ;;Total ram usage:        0 bytes
  3123 ;; Hardware stack levels used: 1
  3124 ;; Hardware stack levels required when called: 1
  3125 ;; This function calls:
  3126 ;;		_internal_16
  3127 ;; This function is called by:
  3128 ;;		_main
  3129 ;; This function uses a non-reentrant model
  3130 ;;
  3131                           
  3132     0D1E                     _initMain:	
  3133                           ;psect for function _initMain
  3134                           
  3135     0D1E                     l2004:	
  3136                           ;incstack = 0
  3137                           ; Regs used in _initMain: [wreg+status,2+status,0+pclath+cstack]
  3138                           
  3139                           
  3140                           ;main.c: 45:     internal_16();
  3141     0D1E  318B  235D  318D   	fcall	_internal_16
  3142     0D21                     l2006:
  3143                           
  3144                           ;main.c: 52:     TRISBbits.TRISB0 = 0;
  3145     0D21  0021               	movlb	1	; select bank1
  3146     0D22  100D               	bcf	13,0	;volatile
  3147     0D23                     l2008:
  3148                           
  3149                           ;main.c: 55:     TRISBbits.TRISB1 = 0;
  3150     0D23  108D               	bcf	13,1	;volatile
  3151     0D24                     l2010:
  3152                           
  3153                           ;main.c: 58:     ANSELB = 0;
  3154     0D24  0023               	movlb	3	; select bank3
  3155     0D25  018D               	clrf	13	;volatile
  3156     0D26                     l2012:
  3157                           
  3158                           ;main.c: 65:     CCPTMRSbits.C1TSEL = 0b10;
  3159     0D26  0025               	movlb	5	; select bank5
  3160     0D27  081E               	movf	30,w	;volatile
  3161     0D28  39FC               	andlw	-4
  3162     0D29  3802               	iorlw	2
  3163     0D2A  009E               	movwf	30	;volatile
  3164     0D2B                     l2014:
  3165                           
  3166                           ;main.c: 66:     CCPTMRSbits.C2TSEL = 0b10;
  3167     0D2B  081E               	movf	30,w	;volatile
  3168     0D2C  39F3               	andlw	-13
  3169     0D2D  3808               	iorlw	8
  3170     0D2E  009E               	movwf	30	;volatile
  3171     0D2F                     l2016:
  3172                           
  3173                           ;main.c: 80:     T6CONbits.T6CKPS = 0b00;
  3174     0D2F  30FC               	movlw	-4
  3175     0D30  0028               	movlb	8	; select bank8
  3176     0D31  059E               	andwf	30,f	;volatile
  3177     0D32                     l2018:
  3178                           
  3179                           ;main.c: 83:     T6CONbits.TMR6ON = 1;
  3180     0D32  151E               	bsf	30,2	;volatile
  3181     0D33                     l2020:
  3182                           
  3183                           ;main.c: 86:     PR6 = 255;
  3184     0D33  30FF               	movlw	255
  3185     0D34  009D               	movwf	29	;volatile
  3186     0D35                     l2022:
  3187                           
  3188                           ;main.c: 96:     CCP1CONbits.DC1B = 00;
  3189     0D35  30CF               	movlw	-49
  3190     0D36  0025               	movlb	5	; select bank5
  3191     0D37  0593               	andwf	19,f	;volatile
  3192     0D38                     l2024:
  3193                           
  3194                           ;main.c: 99:     CCP1CONbits.CCP1M = 0b1100;
  3195     0D38  0813               	movf	19,w	;volatile
  3196     0D39  39F0               	andlw	-16
  3197     0D3A  380C               	iorlw	12
  3198     0D3B  0093               	movwf	19	;volatile
  3199     0D3C                     l2026:
  3200                           
  3201                           ;main.c: 104:     CCP2CONbits.DC2B = 00;
  3202     0D3C  30CF               	movlw	-49
  3203     0D3D  059A               	andwf	26,f	;volatile
  3204     0D3E                     l2028:
  3205                           
  3206                           ;main.c: 107:     CCP2CONbits.CCP2M = 0b1100;
  3207     0D3E  081A               	movf	26,w	;volatile
  3208     0D3F  39F0               	andlw	-16
  3209     0D40  380C               	iorlw	12
  3210     0D41  009A               	movwf	26	;volatile
  3211     0D42                     l2030:
  3212                           
  3213                           ;main.c: 115:     ANSELCbits.ANSC4 = 0;
  3214     0D42  0023               	movlb	3	; select bank3
  3215     0D43  120E               	bcf	14,4	;volatile
  3216     0D44                     l2032:
  3217                           
  3218                           ;main.c: 116:     ANSELCbits.ANSC5 = 0;
  3219     0D44  128E               	bcf	14,5	;volatile
  3220     0D45                     l2034:
  3221                           
  3222                           ;main.c: 118:     TRISCbits.TRISC4 = 1;
  3223     0D45  0021               	movlb	1	; select bank1
  3224     0D46  160E               	bsf	14,4	;volatile
  3225     0D47                     l2036:
  3226                           
  3227                           ;main.c: 119:     TRISCbits.TRISC5 = 1;
  3228     0D47  168E               	bsf	14,5	;volatile
  3229     0D48                     l2038:
  3230                           
  3231                           ;main.c: 126:     PPSLOCK = 0x55;
  3232     0D48  3055               	movlw	85
  3233     0D49  003C               	movlb	28	; select bank28
  3234     0D4A  008F               	movwf	15	;volsfr
  3235     0D4B                     l2040:
  3236                           
  3237                           ;main.c: 127:     PPSLOCK = 0xAA;
  3238     0D4B  30AA               	movlw	170
  3239     0D4C  008F               	movwf	15	;volsfr
  3240     0D4D                     l2042:
  3241                           
  3242                           ;main.c: 128:     PPSLOCKbits.PPSLOCKED = 0x00;
  3243     0D4D  100F               	bcf	15,0	;volsfr
  3244     0D4E                     l2044:
  3245                           
  3246                           ;main.c: 131:     RB0PPSbits.RB0PPS = 0b01100;
  3247     0D4E  003D               	movlb	29	; select bank29
  3248     0D4F  0818               	movf	24,w	;volatile
  3249     0D50  39E0               	andlw	-32
  3250     0D51  380C               	iorlw	12
  3251     0D52  0098               	movwf	24	;volatile
  3252     0D53                     l2046:
  3253                           
  3254                           ;main.c: 134:     RB1PPSbits.RB1PPS = 0b01101;
  3255     0D53  0819               	movf	25,w	;volatile
  3256     0D54  39E0               	andlw	-32
  3257     0D55  380D               	iorlw	13
  3258     0D56  0099               	movwf	25	;volatile
  3259     0D57                     l2048:
  3260                           
  3261                           ;main.c: 136:     RC4PPSbits.RC4PPS = 0x0011;
  3262     0D57  0824               	movf	36,w	;volatile
  3263     0D58  39E0               	andlw	-32
  3264     0D59  3811               	iorlw	17
  3265     0D5A  00A4               	movwf	36	;volatile
  3266     0D5B                     l2050:
  3267                           
  3268                           ;main.c: 137:     SSPDATPPSbits.SSPDATPPS = 0x0014;
  3269     0D5B  003C               	movlb	28	; select bank28
  3270     0D5C  0821               	movf	33,w	;volatile
  3271     0D5D  39E0               	andlw	-32
  3272     0D5E  3814               	iorlw	20
  3273     0D5F  00A1               	movwf	33	;volatile
  3274     0D60                     l2052:
  3275                           
  3276                           ;main.c: 138:     SSPCLKPPSbits.SSPCLKPPS = 0x0015;
  3277     0D60  0820               	movf	32,w	;volatile
  3278     0D61  39E0               	andlw	-32
  3279     0D62  3815               	iorlw	21
  3280     0D63  00A0               	movwf	32	;volatile
  3281     0D64                     l2054:
  3282                           
  3283                           ;main.c: 139:     RC5PPSbits.RC5PPS = 0x0010;
  3284     0D64  003D               	movlb	29	; select bank29
  3285     0D65  0825               	movf	37,w	;volatile
  3286     0D66  39E0               	andlw	-32
  3287     0D67  3810               	iorlw	16
  3288     0D68  00A5               	movwf	37	;volatile
  3289     0D69                     l2056:
  3290                           
  3291                           ;main.c: 141:     PPSLOCK = 0x55;
  3292     0D69  3055               	movlw	85
  3293     0D6A  003C               	movlb	28	; select bank28
  3294     0D6B  008F               	movwf	15	;volsfr
  3295     0D6C                     l2058:
  3296                           
  3297                           ;main.c: 142:     PPSLOCK = 0xAA;
  3298     0D6C  30AA               	movlw	170
  3299     0D6D  008F               	movwf	15	;volsfr
  3300     0D6E                     l2060:
  3301                           
  3302                           ;main.c: 143:     PPSLOCKbits.PPSLOCKED = 0x01;
  3303     0D6E  140F               	bsf	15,0	;volsfr
  3304     0D6F                     l2062:
  3305                           
  3306                           ;main.c: 150:     ADCON1bits.ADCS = 0b010;
  3307     0D6F  0021               	movlb	1	; select bank1
  3308     0D70  081E               	movf	30,w	;volatile
  3309     0D71  398F               	andlw	-113
  3310     0D72  3820               	iorlw	32
  3311     0D73  009E               	movwf	30	;volatile
  3312     0D74                     l2064:
  3313                           
  3314                           ;main.c: 153:     ADCON1bits.ADFM = 1;
  3315     0D74  179E               	bsf	30,7	;volatile
  3316     0D75                     l2066:
  3317                           
  3318                           ;main.c: 156:     ADCON1bits.ADNREF = 0;
  3319     0D75  111E               	bcf	30,2	;volatile
  3320     0D76                     l2068:
  3321                           
  3322                           ;main.c: 159:     ADCON1bits.ADPREF = 0b00;
  3323     0D76  30FC               	movlw	-4
  3324     0D77  059E               	andwf	30,f	;volatile
  3325     0D78                     l2070:
  3326                           
  3327                           ;main.c: 162:     ADCON0bits.CHS = 0x05;
  3328     0D78  081D               	movf	29,w	;volatile
  3329     0D79  3983               	andlw	-125
  3330     0D7A  3814               	iorlw	20
  3331     0D7B  009D               	movwf	29	;volatile
  3332     0D7C                     l2072:
  3333                           
  3334                           ;main.c: 165:     ADRESL = 0;
  3335     0D7C  019B               	clrf	27	;volatile
  3336     0D7D                     l2074:
  3337                           
  3338                           ;main.c: 166:     ADRESH = 0;
  3339     0D7D  019C               	clrf	28	;volatile
  3340     0D7E                     l2076:
  3341                           
  3342                           ;main.c: 169:     ANSELEbits.ANSE0 = 1;
  3343     0D7E  0023               	movlb	3	; select bank3
  3344     0D7F  1410               	bsf	16,0	;volatile
  3345     0D80                     l215:
  3346     0D80  0008               	return
  3347     0D81                     __end_of_initMain:
  3348                           
  3349                           	psect	text2
  3350     0B5D                     __ptext2:	
  3351 ;; *************** function _internal_16 *****************
  3352 ;; Defined at:
  3353 ;;		line 57 in file "PIC16F1719_Internal.c"
  3354 ;; Parameters:    Size  Location     Type
  3355 ;;		None
  3356 ;; Auto vars:     Size  Location     Type
  3357 ;;		None
  3358 ;; Return value:  Size  Location     Type
  3359 ;;                  1    wreg      void 
  3360 ;; Registers used:
  3361 ;;		None
  3362 ;; Tracked objects:
  3363 ;;		On entry : 0/0
  3364 ;;		On exit  : 0/0
  3365 ;;		Unchanged: 0/0
  3366 ;; Data sizes:     COMMON   BANK0   BANK1   BANK2   BANK3   BANK4   BANK5   BANK6   BANK7   BANK8   BANK9  BANK10  BANK1
      +1  BANK12  BANK13  BANK14  BANK15  BANK16  BANK17  BANK18  BANK19  BANK20  BANK21  BANK22  BANK23  BANK24  BANK25
  3367 ;;      Params:         0       0       0       0       0       0       0       0       0       0       0       0       
      +0       0       0       0       0       0       0       0       0       0       0       0       0       0       0
  3368 ;;      Locals:         0       0       0       0       0       0       0       0       0       0       0       0       
      +0       0       0       0       0       0       0       0       0       0       0       0       0       0       0
  3369 ;;      Temps:          0       0       0       0       0       0       0       0       0       0       0       0       
      +0       0       0       0       0       0       0       0       0       0       0       0       0       0       0
  3370 ;;      Totals:         0       0       0       0       0       0       0       0       0       0       0       0       
      +0       0       0       0       0       0       0       0       0       0       0       0       0       0       0
  3371 ;;Total ram usage:        0 bytes
  3372 ;; Hardware stack levels used: 1
  3373 ;; This function calls:
  3374 ;;		Nothing
  3375 ;; This function is called by:
  3376 ;;		_initMain
  3377 ;; This function uses a non-reentrant model
  3378 ;;
  3379                           
  3380     0B5D                     _internal_16:	
  3381                           ;psect for function _internal_16
  3382                           
  3383     0B5D                     l1948:	
  3384                           ;incstack = 0
  3385                           ; Regs used in _internal_16: []
  3386                           
  3387                           
  3388                           ;PIC16F1719_Internal.c: 59:     SCS0 = 0;
  3389     0B5D  0021               	movlb	1	; select bank1
  3390     0B5E  1019               	bcf	25,0	;volatile
  3391                           
  3392                           ;PIC16F1719_Internal.c: 60:     SCS1 = 0;
  3393     0B5F  1099               	bcf	25,1	;volatile
  3394                           
  3395                           ;PIC16F1719_Internal.c: 63:     IRCF0 = 1;
  3396     0B60  1599               	bsf	25,3	;volatile
  3397                           
  3398                           ;PIC16F1719_Internal.c: 64:     IRCF1 = 1;
  3399     0B61  1619               	bsf	25,4	;volatile
  3400                           
  3401                           ;PIC16F1719_Internal.c: 65:     IRCF2 = 1;
  3402     0B62  1699               	bsf	25,5	;volatile
  3403                           
  3404                           ;PIC16F1719_Internal.c: 66:     IRCF3 = 1;
  3405     0B63  1719               	bsf	25,6	;volatile
  3406                           
  3407                           ;PIC16F1719_Internal.c: 69:     SPLLEN = 0;
  3408     0B64  1399               	bcf	25,7	;volatile
  3409     0B65                     l133:
  3410     0B65  0008               	return
  3411     0B66                     __end_of_internal_16:
  3412                           
  3413                           	psect	text3
  3414     0F56                     __ptext3:	
  3415 ;; *************** function ___xxtofl *****************
  3416 ;; Defined at:
  3417 ;;		line 10 in file "C:\Program Files\Microchip\xc8\v2.45\pic\sources\c99\common\xxtofl.c"
  3418 ;; Parameters:    Size  Location     Type
  3419 ;;  sign            1    wreg     unsigned char 
  3420 ;;  val             4    0[COMMON] long 
  3421 ;; Auto vars:     Size  Location     Type
  3422 ;;  sign            1    8[COMMON] unsigned char 
  3423 ;;  arg             4   10[COMMON] unsigned long 
  3424 ;;  exp             1    9[COMMON] unsigned char 
  3425 ;; Return value:  Size  Location     Type
  3426 ;;                  4    0[COMMON] unsigned char 
  3427 ;; Registers used:
  3428 ;;		wreg, status,2, status,0
  3429 ;; Tracked objects:
  3430 ;;		On entry : 0/0
  3431 ;;		On exit  : 0/0
  3432 ;;		Unchanged: 0/0
  3433 ;; Data sizes:     COMMON   BANK0   BANK1   BANK2   BANK3   BANK4   BANK5   BANK6   BANK7   BANK8   BANK9  BANK10  BANK1
      +1  BANK12  BANK13  BANK14  BANK15  BANK16  BANK17  BANK18  BANK19  BANK20  BANK21  BANK22  BANK23  BANK24  BANK25
  3434 ;;      Params:         4       0       0       0       0       0       0       0       0       0       0       0       
      +0       0       0       0       0       0       0       0       0       0       0       0       0       0       0
  3435 ;;      Locals:         6       0       0       0       0       0       0       0       0       0       0       0       
      +0       0       0       0       0       0       0       0       0       0       0       0       0       0       0
  3436 ;;      Temps:          4       0       0       0       0       0       0       0       0       0       0       0       
      +0       0       0       0       0       0       0       0       0       0       0       0       0       0       0
  3437 ;;      Totals:        14       0       0       0       0       0       0       0       0       0       0       0       
      +0       0       0       0       0       0       0       0       0       0       0       0       0       0       0
  3438 ;;Total ram usage:       14 bytes
  3439 ;; Hardware stack levels used: 1
  3440 ;; This function calls:
  3441 ;;		Nothing
  3442 ;; This function is called by:
  3443 ;;		_main
  3444 ;; This function uses a non-reentrant model
  3445 ;;
  3446                           
  3447     0F56                     ___xxtofl:	
  3448                           ;psect for function ___xxtofl
  3449                           
  3450                           
  3451                           ;incstack = 0
  3452                           ; Regs used in ___xxtofl: [wreg+status,2+status,0]
  3453                           ;___xxtofl@sign stored from wreg
  3454     0F56  00F8               	movwf	___xxtofl@sign
  3455     0F57                     l2588:
  3456     0F57  0878               	movf	___xxtofl@sign,w
  3457     0F58  1903               	btfsc	3,2
  3458     0F59  2F5B               	goto	u3271
  3459     0F5A  2F5C               	goto	u3270
  3460     0F5B                     u3271:
  3461     0F5B  2F70               	goto	l2594
  3462     0F5C                     u3270:
  3463     0F5C                     l2590:
  3464     0F5C  1FF3               	btfss	___xxtofl@val+3,7
  3465     0F5D  2F5F               	goto	u3281
  3466     0F5E  2F60               	goto	u3280
  3467     0F5F                     u3281:
  3468     0F5F  2F70               	goto	l2594
  3469     0F60                     u3280:
  3470     0F60                     l2592:
  3471     0F60  0970               	comf	___xxtofl@val,w
  3472     0F61  00FA               	movwf	___xxtofl@arg
  3473     0F62  0971               	comf	___xxtofl@val+1,w
  3474     0F63  00FB               	movwf	___xxtofl@arg+1
  3475     0F64  0972               	comf	___xxtofl@val+2,w
  3476     0F65  00FC               	movwf	___xxtofl@arg+2
  3477     0F66  0973               	comf	___xxtofl@val+3,w
  3478     0F67  00FD               	movwf	___xxtofl@arg+3
  3479     0F68  0AFA               	incf	___xxtofl@arg,f
  3480     0F69  1903               	skipnz
  3481     0F6A  0AFB               	incf	___xxtofl@arg+1,f
  3482     0F6B  1903               	skipnz
  3483     0F6C  0AFC               	incf	___xxtofl@arg+2,f
  3484     0F6D  1903               	skipnz
  3485     0F6E  0AFD               	incf	___xxtofl@arg+3,f
  3486     0F6F  2F78               	goto	l737
  3487     0F70                     l2594:
  3488     0F70  0873               	movf	___xxtofl@val+3,w
  3489     0F71  00FD               	movwf	___xxtofl@arg+3
  3490     0F72  0872               	movf	___xxtofl@val+2,w
  3491     0F73  00FC               	movwf	___xxtofl@arg+2
  3492     0F74  0871               	movf	___xxtofl@val+1,w
  3493     0F75  00FB               	movwf	___xxtofl@arg+1
  3494     0F76  0870               	movf	___xxtofl@val,w
  3495     0F77  00FA               	movwf	___xxtofl@arg
  3496     0F78                     l737:
  3497     0F78  0873               	movf	___xxtofl@val+3,w
  3498     0F79  0472               	iorwf	___xxtofl@val+2,w
  3499     0F7A  0471               	iorwf	___xxtofl@val+1,w
  3500     0F7B  0470               	iorwf	___xxtofl@val,w
  3501     0F7C  1D03               	skipz
  3502     0F7D  2F7F               	goto	u3291
  3503     0F7E  2F80               	goto	u3290
  3504     0F7F                     u3291:
  3505     0F7F  2F89               	goto	l2600
  3506     0F80                     u3290:
  3507     0F80                     l2596:
  3508     0F80  3000               	movlw	0
  3509     0F81  00F3               	movwf	?___xxtofl+3
  3510     0F82  3000               	movlw	0
  3511     0F83  00F2               	movwf	?___xxtofl+2
  3512     0F84  3000               	movlw	0
  3513     0F85  00F1               	movwf	?___xxtofl+1
  3514     0F86  3000               	movlw	0
  3515     0F87  00F0               	movwf	?___xxtofl
  3516     0F88  2FFF               	goto	l739
  3517     0F89                     l2600:
  3518     0F89  3096               	movlw	150
  3519     0F8A  00F9               	movwf	___xxtofl@exp
  3520     0F8B  2F97               	goto	l2604
  3521     0F8C                     l2602:
  3522     0F8C  3001               	movlw	1
  3523     0F8D  00F4               	movwf	??___xxtofl
  3524     0F8E  0874               	movf	??___xxtofl,w
  3525     0F8F  07F9               	addwf	___xxtofl@exp,f
  3526     0F90  3001               	movlw	1
  3527     0F91                     u3305:
  3528     0F91  36FD               	lsrf	___xxtofl@arg+3,f
  3529     0F92  0CFC               	rrf	___xxtofl@arg+2,f
  3530     0F93  0CFB               	rrf	___xxtofl@arg+1,f
  3531     0F94  0CFA               	rrf	___xxtofl@arg,f
  3532     0F95  0B89               	decfsz	9,f
  3533     0F96  2F91               	goto	u3305
  3534     0F97                     l2604:
  3535     0F97  30FE               	movlw	254
  3536     0F98  057D               	andwf	___xxtofl@arg+3,w
  3537     0F99  1D03               	btfss	3,2
  3538     0F9A  2F9C               	goto	u3311
  3539     0F9B  2F9D               	goto	u3310
  3540     0F9C                     u3311:
  3541     0F9C  2F8C               	goto	l2602
  3542     0F9D                     u3310:
  3543     0F9D  2FB1               	goto	l743
  3544     0F9E                     l2606:
  3545     0F9E  3001               	movlw	1
  3546     0F9F  00F4               	movwf	??___xxtofl
  3547     0FA0  0874               	movf	??___xxtofl,w
  3548     0FA1  07F9               	addwf	___xxtofl@exp,f
  3549     0FA2                     l2608:
  3550     0FA2  3001               	movlw	1
  3551     0FA3  07FA               	addwf	___xxtofl@arg,f
  3552     0FA4  3000               	movlw	0
  3553     0FA5  3DFB               	addwfc	___xxtofl@arg+1,f
  3554     0FA6  3000               	movlw	0
  3555     0FA7  3DFC               	addwfc	___xxtofl@arg+2,f
  3556     0FA8  3000               	movlw	0
  3557     0FA9  3DFD               	addwfc	___xxtofl@arg+3,f
  3558     0FAA                     l2610:
  3559     0FAA  3001               	movlw	1
  3560     0FAB                     u3325:
  3561     0FAB  36FD               	lsrf	___xxtofl@arg+3,f
  3562     0FAC  0CFC               	rrf	___xxtofl@arg+2,f
  3563     0FAD  0CFB               	rrf	___xxtofl@arg+1,f
  3564     0FAE  0CFA               	rrf	___xxtofl@arg,f
  3565     0FAF  0B89               	decfsz	9,f
  3566     0FB0  2FAB               	goto	u3325
  3567     0FB1                     l743:
  3568     0FB1  30FF               	movlw	255
  3569     0FB2  057D               	andwf	___xxtofl@arg+3,w
  3570     0FB3  1D03               	btfss	3,2
  3571     0FB4  2FB6               	goto	u3331
  3572     0FB5  2FB7               	goto	u3330
  3573     0FB6                     u3331:
  3574     0FB6  2F9E               	goto	l2606
  3575     0FB7                     u3330:
  3576     0FB7  2FC1               	goto	l2614
  3577     0FB8                     l2612:
  3578     0FB8  3001               	movlw	1
  3579     0FB9  02F9               	subwf	___xxtofl@exp,f
  3580     0FBA  3001               	movlw	1
  3581     0FBB                     u3345:
  3582     0FBB  35FA               	lslf	___xxtofl@arg,f
  3583     0FBC  0DFB               	rlf	___xxtofl@arg+1,f
  3584     0FBD  0DFC               	rlf	___xxtofl@arg+2,f
  3585     0FBE  0DFD               	rlf	___xxtofl@arg+3,f
  3586     0FBF  0B89               	decfsz	9,f
  3587     0FC0  2FBB               	goto	u3345
  3588     0FC1                     l2614:
  3589     0FC1  1BFC               	btfsc	___xxtofl@arg+2,7
  3590     0FC2  2FC4               	goto	u3351
  3591     0FC3  2FC5               	goto	u3350
  3592     0FC4                     u3351:
  3593     0FC4  2FCB               	goto	l750
  3594     0FC5                     u3350:
  3595     0FC5                     l2616:
  3596     0FC5  3002               	movlw	2
  3597     0FC6  0279               	subwf	___xxtofl@exp,w
  3598     0FC7  1803               	skipnc
  3599     0FC8  2FCA               	goto	u3361
  3600     0FC9  2FCB               	goto	u3360
  3601     0FCA                     u3361:
  3602     0FCA  2FB8               	goto	l2612
  3603     0FCB                     u3360:
  3604     0FCB                     l750:
  3605     0FCB  1879               	btfsc	___xxtofl@exp,0
  3606     0FCC  2FCE               	goto	u3371
  3607     0FCD  2FCF               	goto	u3370
  3608     0FCE                     u3371:
  3609     0FCE  2FD7               	goto	l751
  3610     0FCF                     u3370:
  3611     0FCF                     l2618:
  3612     0FCF  30FF               	movlw	255
  3613     0FD0  05FA               	andwf	___xxtofl@arg,f
  3614     0FD1  30FF               	movlw	255
  3615     0FD2  05FB               	andwf	___xxtofl@arg+1,f
  3616     0FD3  307F               	movlw	127
  3617     0FD4  05FC               	andwf	___xxtofl@arg+2,f
  3618     0FD5  30FF               	movlw	255
  3619     0FD6  05FD               	andwf	___xxtofl@arg+3,f
  3620     0FD7                     l751:
  3621     0FD7  1003               	clrc
  3622     0FD8  0CF9               	rrf	___xxtofl@exp,f
  3623     0FD9                     l2620:
  3624     0FD9  0879               	movf	___xxtofl@exp,w
  3625     0FDA  00F4               	movwf	??___xxtofl
  3626     0FDB  01F5               	clrf	??___xxtofl+1
  3627     0FDC  01F6               	clrf	??___xxtofl+2
  3628     0FDD  01F7               	clrf	??___xxtofl+3
  3629     0FDE  3018               	movlw	24
  3630     0FDF                     u3385:
  3631     0FDF  35F4               	lslf	??___xxtofl,f
  3632     0FE0  0DF5               	rlf	??___xxtofl+1,f
  3633     0FE1  0DF6               	rlf	??___xxtofl+2,f
  3634     0FE2  0DF7               	rlf	??___xxtofl+3,f
  3635     0FE3                     u3380:
  3636     0FE3  0B89               	decfsz	9,f
  3637     0FE4  2FDF               	goto	u3385
  3638     0FE5  0874               	movf	??___xxtofl,w
  3639     0FE6  04FA               	iorwf	___xxtofl@arg,f
  3640     0FE7  0875               	movf	??___xxtofl+1,w
  3641     0FE8  04FB               	iorwf	___xxtofl@arg+1,f
  3642     0FE9  0876               	movf	??___xxtofl+2,w
  3643     0FEA  04FC               	iorwf	___xxtofl@arg+2,f
  3644     0FEB  0877               	movf	??___xxtofl+3,w
  3645     0FEC  04FD               	iorwf	___xxtofl@arg+3,f
  3646     0FED                     l2622:
  3647     0FED  0878               	movf	___xxtofl@sign,w
  3648     0FEE  1903               	btfsc	3,2
  3649     0FEF  2FF1               	goto	u3391
  3650     0FF0  2FF2               	goto	u3390
  3651     0FF1                     u3391:
  3652     0FF1  2FF7               	goto	l2628
  3653     0FF2                     u3390:
  3654     0FF2                     l2624:
  3655     0FF2  1FF3               	btfss	___xxtofl@val+3,7
  3656     0FF3  2FF5               	goto	u3401
  3657     0FF4  2FF6               	goto	u3400
  3658     0FF5                     u3401:
  3659     0FF5  2FF7               	goto	l2628
  3660     0FF6                     u3400:
  3661     0FF6                     l2626:
  3662     0FF6  17FD               	bsf	___xxtofl@arg+3,7
  3663     0FF7                     l2628:
  3664     0FF7  087D               	movf	___xxtofl@arg+3,w
  3665     0FF8  00F3               	movwf	?___xxtofl+3
  3666     0FF9  087C               	movf	___xxtofl@arg+2,w
  3667     0FFA  00F2               	movwf	?___xxtofl+2
  3668     0FFB  087B               	movf	___xxtofl@arg+1,w
  3669     0FFC  00F1               	movwf	?___xxtofl+1
  3670     0FFD  087A               	movf	___xxtofl@arg,w
  3671     0FFE  00F0               	movwf	?___xxtofl
  3672     0FFF                     l739:
  3673     0FFF  0008               	return
  3674     1000                     __end_of___xxtofl:
  3675                           
  3676                           	psect	text4
  3677     001D                     __ptext4:	
  3678 ;; *************** function ___fltol *****************
  3679 ;; Defined at:
  3680 ;;		line 43 in file "C:\Program Files\Microchip\xc8\v2.45\pic\sources\c99\common\fltol.c"
  3681 ;; Parameters:    Size  Location     Type
  3682 ;;  f1              4    0[COMMON] unsigned char 
  3683 ;; Auto vars:     Size  Location     Type
  3684 ;;  exp1            1    9[COMMON] unsigned char 
  3685 ;;  sign1           1    8[COMMON] unsigned char 
  3686 ;; Return value:  Size  Location     Type
  3687 ;;                  4    0[COMMON] long 
  3688 ;; Registers used:
  3689 ;;		wreg, status,2, status,0
  3690 ;; Tracked objects:
  3691 ;;		On entry : 0/0
  3692 ;;		On exit  : 0/0
  3693 ;;		Unchanged: 0/0
  3694 ;; Data sizes:     COMMON   BANK0   BANK1   BANK2   BANK3   BANK4   BANK5   BANK6   BANK7   BANK8   BANK9  BANK10  BANK1
      +1  BANK12  BANK13  BANK14  BANK15  BANK16  BANK17  BANK18  BANK19  BANK20  BANK21  BANK22  BANK23  BANK24  BANK25
  3695 ;;      Params:         4       0       0       0       0       0       0       0       0       0       0       0       
      +0       0       0       0       0       0       0       0       0       0       0       0       0       0       0
  3696 ;;      Locals:         2       0       0       0       0       0       0       0       0       0       0       0       
      +0       0       0       0       0       0       0       0       0       0       0       0       0       0       0
  3697 ;;      Temps:          4       0       0       0       0       0       0       0       0       0       0       0       
      +0       0       0       0       0       0       0       0       0       0       0       0       0       0       0
  3698 ;;      Totals:        10       0       0       0       0       0       0       0       0       0       0       0       
      +0       0       0       0       0       0       0       0       0       0       0       0       0       0       0
  3699 ;;Total ram usage:       10 bytes
  3700 ;; Hardware stack levels used: 1
  3701 ;; This function calls:
  3702 ;;		Nothing
  3703 ;; This function is called by:
  3704 ;;		_main
  3705 ;; This function uses a non-reentrant model
  3706 ;;
  3707                           
  3708     001D                     ___fltol:	
  3709                           ;psect for function ___fltol
  3710                           
  3711     001D                     l2078:	
  3712                           ;incstack = 0
  3713                           ; Regs used in ___fltol: [wreg+status,2+status,0]
  3714                           
  3715     001D  1003               	clrc
  3716     001E  0D72               	rlf	___fltol@f1+2,w
  3717     001F  0D73               	rlf	___fltol@f1+3,w
  3718     0020  00F9               	movwf	___fltol@exp1
  3719     0021  0879               	movf	___fltol@exp1,w
  3720     0022  1D03               	btfss	3,2
  3721     0023  2825               	goto	u2191
  3722     0024  2826               	goto	u2190
  3723     0025                     u2191:
  3724     0025  282F               	goto	l2084
  3725     0026                     u2190:
  3726     0026                     l2080:
  3727     0026  3000               	movlw	0
  3728     0027  00F3               	movwf	?___fltol+3
  3729     0028  3000               	movlw	0
  3730     0029  00F2               	movwf	?___fltol+2
  3731     002A  3000               	movlw	0
  3732     002B  00F1               	movwf	?___fltol+1
  3733     002C  3000               	movlw	0
  3734     002D  00F0               	movwf	?___fltol
  3735     002E  288C               	goto	l490
  3736     002F                     l2084:
  3737     002F  0870               	movf	___fltol@f1,w
  3738     0030  00F4               	movwf	??___fltol
  3739     0031  0871               	movf	___fltol@f1+1,w
  3740     0032  00F5               	movwf	??___fltol+1
  3741     0033  0872               	movf	___fltol@f1+2,w
  3742     0034  00F6               	movwf	??___fltol+2
  3743     0035  0873               	movf	___fltol@f1+3,w
  3744     0036  00F7               	movwf	??___fltol+3
  3745     0037  301F               	movlw	31
  3746     0038                     u2205:
  3747     0038  36F7               	lsrf	??___fltol+3,f
  3748     0039  0CF6               	rrf	??___fltol+2,f
  3749     003A  0CF5               	rrf	??___fltol+1,f
  3750     003B  0CF4               	rrf	??___fltol,f
  3751     003C                     u2200:
  3752     003C  0B89               	decfsz	9,f
  3753     003D  2838               	goto	u2205
  3754     003E  0874               	movf	??___fltol,w
  3755     003F  00F8               	movwf	___fltol@sign1
  3756     0040                     l2086:
  3757     0040  17F2               	bsf	___fltol@f1+2,7
  3758     0041                     l2088:
  3759     0041  30FF               	movlw	255
  3760     0042  05F0               	andwf	___fltol@f1,f
  3761     0043  30FF               	movlw	255
  3762     0044  05F1               	andwf	___fltol@f1+1,f
  3763     0045  30FF               	movlw	255
  3764     0046  05F2               	andwf	___fltol@f1+2,f
  3765     0047  3000               	movlw	0
  3766     0048  05F3               	andwf	___fltol@f1+3,f
  3767     0049                     l2090:
  3768     0049  3096               	movlw	150
  3769     004A  02F9               	subwf	___fltol@exp1,f
  3770     004B                     l2092:
  3771     004B  1FF9               	btfss	___fltol@exp1,7
  3772     004C  284E               	goto	u2211
  3773     004D  284F               	goto	u2210
  3774     004E                     u2211:
  3775     004E  2867               	goto	l2102
  3776     004F                     u2210:
  3777     004F                     l2094:
  3778     004F  0879               	movf	___fltol@exp1,w
  3779     0050  3A80               	xorlw	128
  3780     0051  3E97               	addlw	151
  3781     0052  1803               	skipnc
  3782     0053  2855               	goto	u2221
  3783     0054  2856               	goto	u2220
  3784     0055                     u2221:
  3785     0055  2857               	goto	l2100
  3786     0056                     u2220:
  3787     0056  2826               	goto	l2080
  3788     0057                     l2100:
  3789     0057  3001               	movlw	1
  3790     0058                     u2235:
  3791     0058  36F3               	lsrf	___fltol@f1+3,f
  3792     0059  0CF2               	rrf	___fltol@f1+2,f
  3793     005A  0CF1               	rrf	___fltol@f1+1,f
  3794     005B  0CF0               	rrf	___fltol@f1,f
  3795     005C  0B89               	decfsz	9,f
  3796     005D  2858               	goto	u2235
  3797     005E  3001               	movlw	1
  3798     005F  00F4               	movwf	??___fltol
  3799     0060  0874               	movf	??___fltol,w
  3800     0061  07F9               	addwf	___fltol@exp1,f
  3801     0062  1D03               	btfss	3,2
  3802     0063  2865               	goto	u2241
  3803     0064  2866               	goto	u2240
  3804     0065                     u2241:
  3805     0065  2857               	goto	l2100
  3806     0066                     u2240:
  3807     0066  287C               	goto	l2110
  3808     0067                     l2102:
  3809     0067  3020               	movlw	32
  3810     0068  0279               	subwf	___fltol@exp1,w
  3811     0069  1C03               	skipc
  3812     006A  286C               	goto	u2251
  3813     006B  286D               	goto	u2250
  3814     006C                     u2251:
  3815     006C  2877               	goto	l497
  3816     006D                     u2250:
  3817     006D  2826               	goto	l2080
  3818     006E                     l2108:
  3819     006E  3001               	movlw	1
  3820     006F                     u2265:
  3821     006F  35F0               	lslf	___fltol@f1,f
  3822     0070  0DF1               	rlf	___fltol@f1+1,f
  3823     0071  0DF2               	rlf	___fltol@f1+2,f
  3824     0072  0DF3               	rlf	___fltol@f1+3,f
  3825     0073  0B89               	decfsz	9,f
  3826     0074  286F               	goto	u2265
  3827     0075  3001               	movlw	1
  3828     0076  02F9               	subwf	___fltol@exp1,f
  3829     0077                     l497:
  3830     0077  0879               	movf	___fltol@exp1,w
  3831     0078  1D03               	btfss	3,2
  3832     0079  287B               	goto	u2271
  3833     007A  287C               	goto	u2270
  3834     007B                     u2271:
  3835     007B  286E               	goto	l2108
  3836     007C                     u2270:
  3837     007C                     l2110:
  3838     007C  0878               	movf	___fltol@sign1,w
  3839     007D  1903               	btfsc	3,2
  3840     007E  2880               	goto	u2281
  3841     007F  2881               	goto	u2280
  3842     0080                     u2281:
  3843     0080  288C               	goto	l500
  3844     0081                     u2280:
  3845     0081                     l2112:
  3846     0081  09F0               	comf	___fltol@f1,f
  3847     0082  09F1               	comf	___fltol@f1+1,f
  3848     0083  09F2               	comf	___fltol@f1+2,f
  3849     0084  09F3               	comf	___fltol@f1+3,f
  3850     0085  0AF0               	incf	___fltol@f1,f
  3851     0086  1903               	skipnz
  3852     0087  0AF1               	incf	___fltol@f1+1,f
  3853     0088  1903               	skipnz
  3854     0089  0AF2               	incf	___fltol@f1+2,f
  3855     008A  1903               	skipnz
  3856     008B  0AF3               	incf	___fltol@f1+3,f
  3857     008C                     l500:
  3858     008C                     l490:
  3859     008C  0008               	return
  3860     008D                     __end_of___fltol:
  3861                           
  3862                           	psect	text5
  3863     05C2                     __ptext5:	
  3864 ;; *************** function ___flmul *****************
  3865 ;; Defined at:
  3866 ;;		line 8 in file "C:\Program Files\Microchip\xc8\v2.45\pic\sources\c99\common\sprcmul.c"
  3867 ;; Parameters:    Size  Location     Type
  3868 ;;  b               4    8[BANK0 ] long 
  3869 ;;  a               4   12[BANK0 ] long 
  3870 ;; Auto vars:     Size  Location     Type
  3871 ;;  prod            4   28[BANK0 ] struct .
  3872 ;;  grs             4   22[BANK0 ] unsigned long 
  3873 ;;  temp            2   32[BANK0 ] struct .
  3874 ;;  bexp            1   27[BANK0 ] unsigned char 
  3875 ;;  aexp            1   26[BANK0 ] unsigned char 
  3876 ;;  sign            1   21[BANK0 ] unsigned char 
  3877 ;; Return value:  Size  Location     Type
  3878 ;;                  4    8[BANK0 ] unsigned char 
  3879 ;; Registers used:
  3880 ;;		wreg, status,2, status,0, pclath, cstack
  3881 ;; Tracked objects:
  3882 ;;		On entry : 0/0
  3883 ;;		On exit  : 0/0
  3884 ;;		Unchanged: 0/0
  3885 ;; Data sizes:     COMMON   BANK0   BANK1   BANK2   BANK3   BANK4   BANK5   BANK6   BANK7   BANK8   BANK9  BANK10  BANK1
      +1  BANK12  BANK13  BANK14  BANK15  BANK16  BANK17  BANK18  BANK19  BANK20  BANK21  BANK22  BANK23  BANK24  BANK25
  3886 ;;      Params:         0       8       0       0       0       0       0       0       0       0       0       0       
      +0       0       0       0       0       0       0       0       0       0       0       0       0       0       0
  3887 ;;      Locals:         0      13       0       0       0       0       0       0       0       0       0       0       
      +0       0       0       0       0       0       0       0       0       0       0       0       0       0       0
  3888 ;;      Temps:          0       5       0       0       0       0       0       0       0       0       0       0       
      +0       0       0       0       0       0       0       0       0       0       0       0       0       0       0
  3889 ;;      Totals:         0      26       0       0       0       0       0       0       0       0       0       0       
      +0       0       0       0       0       0       0       0       0       0       0       0       0       0       0
  3890 ;;Total ram usage:       26 bytes
  3891 ;; Hardware stack levels used: 1
  3892 ;; Hardware stack levels required when called: 1
  3893 ;; This function calls:
  3894 ;;		__Umul8_16
  3895 ;; This function is called by:
  3896 ;;		_main
  3897 ;; This function uses a non-reentrant model
  3898 ;;
  3899                           
  3900     05C2                     ___flmul:	
  3901                           ;psect for function ___flmul
  3902                           
  3903     05C2                     l2448:	
  3904                           ;incstack = 0
  3905                           ; Regs used in ___flmul: [wreg+status,2+status,0+pclath+cstack]
  3906                           
  3907     05C2  0020               	movlb	0	; select bank0
  3908     05C3  082B               	movf	___flmul@b+3,w
  3909     05C4  3980               	andlw	128
  3910     05C5  00B5               	movwf	___flmul@sign
  3911     05C6                     l2450:
  3912     05C6  352B               	lslf	___flmul@b+3,w
  3913     05C7  00BB               	movwf	___flmul@bexp
  3914     05C8                     l2452:
  3915     05C8  1FAA               	btfss	___flmul@b+2,7
  3916     05C9  2DCB               	goto	u3011
  3917     05CA  2DCC               	goto	u3010
  3918     05CB                     u3011:
  3919     05CB  2DCD               	goto	l2456
  3920     05CC                     u3010:
  3921     05CC                     l2454:
  3922     05CC  143B               	bsf	___flmul@bexp,0
  3923     05CD                     l2456:
  3924     05CD  083B               	movf	___flmul@bexp,w
  3925     05CE  1903               	btfsc	3,2
  3926     05CF  2DD1               	goto	u3021
  3927     05D0  2DD2               	goto	u3020
  3928     05D1                     u3021:
  3929     05D1  2DE1               	goto	l2464
  3930     05D2                     u3020:
  3931     05D2                     l2458:
  3932     05D2  0A3B               	incf	___flmul@bexp,w
  3933     05D3  1D03               	btfss	3,2
  3934     05D4  2DD6               	goto	u3031
  3935     05D5  2DD7               	goto	u3030
  3936     05D6                     u3031:
  3937     05D6  2DDF               	goto	l2462
  3938     05D7                     u3030:
  3939     05D7                     l2460:
  3940     05D7  3000               	movlw	0
  3941     05D8  00AB               	movwf	___flmul@b+3
  3942     05D9  3000               	movlw	0
  3943     05DA  00AA               	movwf	___flmul@b+2
  3944     05DB  3000               	movlw	0
  3945     05DC  00A9               	movwf	___flmul@b+1
  3946     05DD  3000               	movlw	0
  3947     05DE  00A8               	movwf	___flmul@b
  3948     05DF                     l2462:
  3949     05DF  17AA               	bsf	___flmul@b+2,7
  3950     05E0  2DE9               	goto	l2466
  3951     05E1                     l2464:
  3952     05E1  3000               	movlw	0
  3953     05E2  00AB               	movwf	___flmul@b+3
  3954     05E3  3000               	movlw	0
  3955     05E4  00AA               	movwf	___flmul@b+2
  3956     05E5  3000               	movlw	0
  3957     05E6  00A9               	movwf	___flmul@b+1
  3958     05E7  3000               	movlw	0
  3959     05E8  00A8               	movwf	___flmul@b
  3960     05E9                     l2466:
  3961     05E9  082F               	movf	___flmul@a+3,w
  3962     05EA  3980               	andlw	128
  3963     05EB  00B0               	movwf	??___flmul
  3964     05EC  0830               	movf	??___flmul,w
  3965     05ED  06B5               	xorwf	___flmul@sign,f
  3966     05EE                     l2468:
  3967     05EE  352F               	lslf	___flmul@a+3,w
  3968     05EF  00BA               	movwf	___flmul@aexp
  3969     05F0                     l2470:
  3970     05F0  1FAE               	btfss	___flmul@a+2,7
  3971     05F1  2DF3               	goto	u3041
  3972     05F2  2DF4               	goto	u3040
  3973     05F3                     u3041:
  3974     05F3  2DF5               	goto	l2474
  3975     05F4                     u3040:
  3976     05F4                     l2472:
  3977     05F4  143A               	bsf	___flmul@aexp,0
  3978     05F5                     l2474:
  3979     05F5  083A               	movf	___flmul@aexp,w
  3980     05F6  1903               	btfsc	3,2
  3981     05F7  2DF9               	goto	u3051
  3982     05F8  2DFA               	goto	u3050
  3983     05F9                     u3051:
  3984     05F9  2E09               	goto	l2482
  3985     05FA                     u3050:
  3986     05FA                     l2476:
  3987     05FA  0A3A               	incf	___flmul@aexp,w
  3988     05FB  1D03               	btfss	3,2
  3989     05FC  2DFE               	goto	u3061
  3990     05FD  2DFF               	goto	u3060
  3991     05FE                     u3061:
  3992     05FE  2E07               	goto	l2480
  3993     05FF                     u3060:
  3994     05FF                     l2478:
  3995     05FF  3000               	movlw	0
  3996     0600  00AF               	movwf	___flmul@a+3
  3997     0601  3000               	movlw	0
  3998     0602  00AE               	movwf	___flmul@a+2
  3999     0603  3000               	movlw	0
  4000     0604  00AD               	movwf	___flmul@a+1
  4001     0605  3000               	movlw	0
  4002     0606  00AC               	movwf	___flmul@a
  4003     0607                     l2480:
  4004     0607  17AE               	bsf	___flmul@a+2,7
  4005     0608  2E11               	goto	l2484
  4006     0609                     l2482:
  4007     0609  3000               	movlw	0
  4008     060A  00AF               	movwf	___flmul@a+3
  4009     060B  3000               	movlw	0
  4010     060C  00AE               	movwf	___flmul@a+2
  4011     060D  3000               	movlw	0
  4012     060E  00AD               	movwf	___flmul@a+1
  4013     060F  3000               	movlw	0
  4014     0610  00AC               	movwf	___flmul@a
  4015     0611                     l2484:
  4016     0611  083A               	movf	___flmul@aexp,w
  4017     0612  1903               	btfsc	3,2
  4018     0613  2E15               	goto	u3071
  4019     0614  2E16               	goto	u3070
  4020     0615                     u3071:
  4021     0615  2E1B               	goto	l2488
  4022     0616                     u3070:
  4023     0616                     l2486:
  4024     0616  083B               	movf	___flmul@bexp,w
  4025     0617  1D03               	btfss	3,2
  4026     0618  2E1A               	goto	u3081
  4027     0619  2E1B               	goto	u3080
  4028     061A                     u3081:
  4029     061A  2E24               	goto	l2492
  4030     061B                     u3080:
  4031     061B                     l2488:
  4032     061B  3000               	movlw	0
  4033     061C  00AB               	movwf	?___flmul+3
  4034     061D  3000               	movlw	0
  4035     061E  00AA               	movwf	?___flmul+2
  4036     061F  3000               	movlw	0
  4037     0620  00A9               	movwf	?___flmul+1
  4038     0621  3000               	movlw	0
  4039     0622  00A8               	movwf	?___flmul
  4040     0623  2FFC               	goto	l693
  4041     0624                     l2492:
  4042     0624  0828               	movf	___flmul@b,w
  4043     0625  00F0               	movwf	__Umul8_16@multiplicand
  4044     0626  082E               	movf	___flmul@a+2,w
  4045     0627  318B  23F5  3185   	fcall	__Umul8_16
  4046     062A  0871               	movf	?__Umul8_16+1,w
  4047     062B  0020               	movlb	0	; select bank0
  4048     062C  00C1               	movwf	___flmul@temp+1
  4049     062D  0870               	movf	?__Umul8_16,w
  4050     062E  00C0               	movwf	___flmul@temp
  4051     062F                     l2494:
  4052     062F  0840               	movf	___flmul@temp,w
  4053     0630  00B0               	movwf	??___flmul
  4054     0631  01B1               	clrf	??___flmul+1
  4055     0632  01B2               	clrf	??___flmul+2
  4056     0633  01B3               	clrf	??___flmul+3
  4057     0634  0833               	movf	??___flmul+3,w
  4058     0635  00B9               	movwf	___flmul@grs+3
  4059     0636  0832               	movf	??___flmul+2,w
  4060     0637  00B8               	movwf	___flmul@grs+2
  4061     0638  0831               	movf	??___flmul+1,w
  4062     0639  00B7               	movwf	___flmul@grs+1
  4063     063A  0830               	movf	??___flmul,w
  4064     063B  00B6               	movwf	___flmul@grs
  4065     063C                     l2496:
  4066     063C  0841               	movf	___flmul@temp+1,w
  4067     063D  00B0               	movwf	??___flmul
  4068     063E  01B1               	clrf	??___flmul+1
  4069     063F  01B2               	clrf	??___flmul+2
  4070     0640  01B3               	clrf	??___flmul+3
  4071     0641  0833               	movf	??___flmul+3,w
  4072     0642  00BF               	movwf	___flmul@prod+3
  4073     0643  0832               	movf	??___flmul+2,w
  4074     0644  00BE               	movwf	___flmul@prod+2
  4075     0645  0831               	movf	??___flmul+1,w
  4076     0646  00BD               	movwf	___flmul@prod+1
  4077     0647  0830               	movf	??___flmul,w
  4078     0648  00BC               	movwf	___flmul@prod
  4079     0649  0829               	movf	___flmul@b+1,w
  4080     064A  00F0               	movwf	__Umul8_16@multiplicand
  4081     064B  082D               	movf	___flmul@a+1,w
  4082     064C  318B  23F5  3185   	fcall	__Umul8_16
  4083     064F  0871               	movf	?__Umul8_16+1,w
  4084     0650  0020               	movlb	0	; select bank0
  4085     0651  00C1               	movwf	___flmul@temp+1
  4086     0652  0870               	movf	?__Umul8_16,w
  4087     0653  00C0               	movwf	___flmul@temp
  4088     0654                     l2498:
  4089     0654  0840               	movf	___flmul@temp,w
  4090     0655  00B0               	movwf	??___flmul
  4091     0656  01B1               	clrf	??___flmul+1
  4092     0657  01B2               	clrf	??___flmul+2
  4093     0658  01B3               	clrf	??___flmul+3
  4094     0659  0830               	movf	??___flmul,w
  4095     065A  07B6               	addwf	___flmul@grs,f
  4096     065B  0831               	movf	??___flmul+1,w
  4097     065C  3DB7               	addwfc	___flmul@grs+1,f
  4098     065D  0832               	movf	??___flmul+2,w
  4099     065E  3DB8               	addwfc	___flmul@grs+2,f
  4100     065F  0833               	movf	??___flmul+3,w
  4101     0660  3DB9               	addwfc	___flmul@grs+3,f
  4102     0661                     l2500:
  4103     0661  0841               	movf	___flmul@temp+1,w
  4104     0662  00B0               	movwf	??___flmul
  4105     0663  01B1               	clrf	??___flmul+1
  4106     0664  01B2               	clrf	??___flmul+2
  4107     0665  01B3               	clrf	??___flmul+3
  4108     0666  0830               	movf	??___flmul,w
  4109     0667  07BC               	addwf	___flmul@prod,f
  4110     0668  0831               	movf	??___flmul+1,w
  4111     0669  3DBD               	addwfc	___flmul@prod+1,f
  4112     066A  0832               	movf	??___flmul+2,w
  4113     066B  3DBE               	addwfc	___flmul@prod+2,f
  4114     066C  0833               	movf	??___flmul+3,w
  4115     066D  3DBF               	addwfc	___flmul@prod+3,f
  4116     066E  082A               	movf	___flmul@b+2,w
  4117     066F  00F0               	movwf	__Umul8_16@multiplicand
  4118     0670  082C               	movf	___flmul@a,w
  4119     0671  318B  23F5  3185   	fcall	__Umul8_16
  4120     0674  0871               	movf	?__Umul8_16+1,w
  4121     0675  0020               	movlb	0	; select bank0
  4122     0676  00C1               	movwf	___flmul@temp+1
  4123     0677  0870               	movf	?__Umul8_16,w
  4124     0678  00C0               	movwf	___flmul@temp
  4125     0679                     l2502:
  4126     0679  0840               	movf	___flmul@temp,w
  4127     067A  00B0               	movwf	??___flmul
  4128     067B  01B1               	clrf	??___flmul+1
  4129     067C  01B2               	clrf	??___flmul+2
  4130     067D  01B3               	clrf	??___flmul+3
  4131     067E  0830               	movf	??___flmul,w
  4132     067F  07B6               	addwf	___flmul@grs,f
  4133     0680  0831               	movf	??___flmul+1,w
  4134     0681  3DB7               	addwfc	___flmul@grs+1,f
  4135     0682  0832               	movf	??___flmul+2,w
  4136     0683  3DB8               	addwfc	___flmul@grs+2,f
  4137     0684  0833               	movf	??___flmul+3,w
  4138     0685  3DB9               	addwfc	___flmul@grs+3,f
  4139     0686                     l2504:
  4140     0686  0841               	movf	___flmul@temp+1,w
  4141     0687  00B0               	movwf	??___flmul
  4142     0688  01B1               	clrf	??___flmul+1
  4143     0689  01B2               	clrf	??___flmul+2
  4144     068A  01B3               	clrf	??___flmul+3
  4145     068B  0830               	movf	??___flmul,w
  4146     068C  07BC               	addwf	___flmul@prod,f
  4147     068D  0831               	movf	??___flmul+1,w
  4148     068E  3DBD               	addwfc	___flmul@prod+1,f
  4149     068F  0832               	movf	??___flmul+2,w
  4150     0690  3DBE               	addwfc	___flmul@prod+2,f
  4151     0691  0833               	movf	??___flmul+3,w
  4152     0692  3DBF               	addwfc	___flmul@prod+3,f
  4153     0693                     l2506:
  4154     0693  3008               	movlw	8
  4155     0694                     u3095:
  4156     0694  35B6               	lslf	___flmul@grs,f
  4157     0695  0DB7               	rlf	___flmul@grs+1,f
  4158     0696  0DB8               	rlf	___flmul@grs+2,f
  4159     0697  0DB9               	rlf	___flmul@grs+3,f
  4160     0698  0B89               	decfsz	9,f
  4161     0699  2E94               	goto	u3095
  4162     069A                     l2508:
  4163     069A  0829               	movf	___flmul@b+1,w
  4164     069B  00F0               	movwf	__Umul8_16@multiplicand
  4165     069C  082C               	movf	___flmul@a,w
  4166     069D  318B  23F5  3185   	fcall	__Umul8_16
  4167     06A0  0871               	movf	?__Umul8_16+1,w
  4168     06A1  0020               	movlb	0	; select bank0
  4169     06A2  00C1               	movwf	___flmul@temp+1
  4170     06A3  0870               	movf	?__Umul8_16,w
  4171     06A4  00C0               	movwf	___flmul@temp
  4172     06A5                     l2510:
  4173     06A5  0840               	movf	___flmul@temp,w
  4174     06A6  07B6               	addwf	___flmul@grs,f
  4175     06A7  0841               	movf	___flmul@temp+1,w
  4176     06A8  3DB7               	addwfc	___flmul@grs+1,f
  4177     06A9  3000               	movlw	0
  4178     06AA  3DB8               	addwfc	___flmul@grs+2,f
  4179     06AB  3DB9               	addwfc	___flmul@grs+3,f
  4180     06AC                     l2512:
  4181     06AC  0828               	movf	___flmul@b,w
  4182     06AD  00F0               	movwf	__Umul8_16@multiplicand
  4183     06AE  082D               	movf	___flmul@a+1,w
  4184     06AF  318B  23F5  3185   	fcall	__Umul8_16
  4185     06B2  0871               	movf	?__Umul8_16+1,w
  4186     06B3  0020               	movlb	0	; select bank0
  4187     06B4  00C1               	movwf	___flmul@temp+1
  4188     06B5  0870               	movf	?__Umul8_16,w
  4189     06B6  00C0               	movwf	___flmul@temp
  4190     06B7                     l2514:
  4191     06B7  0840               	movf	___flmul@temp,w
  4192     06B8  07B6               	addwf	___flmul@grs,f
  4193     06B9  0841               	movf	___flmul@temp+1,w
  4194     06BA  3DB7               	addwfc	___flmul@grs+1,f
  4195     06BB  3000               	movlw	0
  4196     06BC  3DB8               	addwfc	___flmul@grs+2,f
  4197     06BD  3DB9               	addwfc	___flmul@grs+3,f
  4198     06BE                     l2516:
  4199     06BE  3008               	movlw	8
  4200     06BF                     u3105:
  4201     06BF  35B6               	lslf	___flmul@grs,f
  4202     06C0  0DB7               	rlf	___flmul@grs+1,f
  4203     06C1  0DB8               	rlf	___flmul@grs+2,f
  4204     06C2  0DB9               	rlf	___flmul@grs+3,f
  4205     06C3  0B89               	decfsz	9,f
  4206     06C4  2EBF               	goto	u3105
  4207     06C5  0828               	movf	___flmul@b,w
  4208     06C6  00F0               	movwf	__Umul8_16@multiplicand
  4209     06C7  082C               	movf	___flmul@a,w
  4210     06C8  318B  23F5  3185   	fcall	__Umul8_16
  4211     06CB  0871               	movf	?__Umul8_16+1,w
  4212     06CC  0020               	movlb	0	; select bank0
  4213     06CD  00C1               	movwf	___flmul@temp+1
  4214     06CE  0870               	movf	?__Umul8_16,w
  4215     06CF  00C0               	movwf	___flmul@temp
  4216     06D0                     l2518:
  4217     06D0  0840               	movf	___flmul@temp,w
  4218     06D1  07B6               	addwf	___flmul@grs,f
  4219     06D2  0841               	movf	___flmul@temp+1,w
  4220     06D3  3DB7               	addwfc	___flmul@grs+1,f
  4221     06D4  3000               	movlw	0
  4222     06D5  3DB8               	addwfc	___flmul@grs+2,f
  4223     06D6  3DB9               	addwfc	___flmul@grs+3,f
  4224     06D7                     l2520:
  4225     06D7  0829               	movf	___flmul@b+1,w
  4226     06D8  00F0               	movwf	__Umul8_16@multiplicand
  4227     06D9  082E               	movf	___flmul@a+2,w
  4228     06DA  318B  23F5  3185   	fcall	__Umul8_16
  4229     06DD  0871               	movf	?__Umul8_16+1,w
  4230     06DE  0020               	movlb	0	; select bank0
  4231     06DF  00C1               	movwf	___flmul@temp+1
  4232     06E0  0870               	movf	?__Umul8_16,w
  4233     06E1  00C0               	movwf	___flmul@temp
  4234     06E2  0840               	movf	___flmul@temp,w
  4235     06E3  07BC               	addwf	___flmul@prod,f
  4236     06E4  0841               	movf	___flmul@temp+1,w
  4237     06E5  3DBD               	addwfc	___flmul@prod+1,f
  4238     06E6  3000               	movlw	0
  4239     06E7  3DBE               	addwfc	___flmul@prod+2,f
  4240     06E8  3DBF               	addwfc	___flmul@prod+3,f
  4241     06E9                     l2522:
  4242     06E9  082A               	movf	___flmul@b+2,w
  4243     06EA  00F0               	movwf	__Umul8_16@multiplicand
  4244     06EB  082D               	movf	___flmul@a+1,w
  4245     06EC  318B  23F5  3185   	fcall	__Umul8_16
  4246     06EF  0871               	movf	?__Umul8_16+1,w
  4247     06F0  0020               	movlb	0	; select bank0
  4248     06F1  00C1               	movwf	___flmul@temp+1
  4249     06F2  0870               	movf	?__Umul8_16,w
  4250     06F3  00C0               	movwf	___flmul@temp
  4251     06F4                     l2524:
  4252     06F4  0840               	movf	___flmul@temp,w
  4253     06F5  07BC               	addwf	___flmul@prod,f
  4254     06F6  0841               	movf	___flmul@temp+1,w
  4255     06F7  3DBD               	addwfc	___flmul@prod+1,f
  4256     06F8  3000               	movlw	0
  4257     06F9  3DBE               	addwfc	___flmul@prod+2,f
  4258     06FA  3DBF               	addwfc	___flmul@prod+3,f
  4259     06FB  082A               	movf	___flmul@b+2,w
  4260     06FC  00F0               	movwf	__Umul8_16@multiplicand
  4261     06FD  082E               	movf	___flmul@a+2,w
  4262     06FE  318B  23F5  3185   	fcall	__Umul8_16
  4263     0701  0871               	movf	?__Umul8_16+1,w
  4264     0702  0020               	movlb	0	; select bank0
  4265     0703  00C1               	movwf	___flmul@temp+1
  4266     0704  0870               	movf	?__Umul8_16,w
  4267     0705  00C0               	movwf	___flmul@temp
  4268     0706                     l2526:
  4269     0706  0840               	movf	___flmul@temp,w
  4270     0707  00B0               	movwf	??___flmul
  4271     0708  0841               	movf	___flmul@temp+1,w
  4272     0709  00B1               	movwf	??___flmul+1
  4273     070A  01B2               	clrf	??___flmul+2
  4274     070B  01B3               	clrf	??___flmul+3
  4275     070C  3008               	movlw	8
  4276     070D                     u3115:
  4277     070D  35B0               	lslf	??___flmul,f
  4278     070E  0DB1               	rlf	??___flmul+1,f
  4279     070F  0DB2               	rlf	??___flmul+2,f
  4280     0710  0DB3               	rlf	??___flmul+3,f
  4281     0711                     u3110:
  4282     0711  0B89               	decfsz	9,f
  4283     0712  2F0D               	goto	u3115
  4284     0713  0830               	movf	??___flmul,w
  4285     0714  07BC               	addwf	___flmul@prod,f
  4286     0715  0831               	movf	??___flmul+1,w
  4287     0716  3DBD               	addwfc	___flmul@prod+1,f
  4288     0717  0832               	movf	??___flmul+2,w
  4289     0718  3DBE               	addwfc	___flmul@prod+2,f
  4290     0719  0833               	movf	??___flmul+3,w
  4291     071A  3DBF               	addwfc	___flmul@prod+3,f
  4292     071B                     l2528:
  4293     071B  0836               	movf	___flmul@grs,w
  4294     071C  00B0               	movwf	??___flmul
  4295     071D  0837               	movf	___flmul@grs+1,w
  4296     071E  00B1               	movwf	??___flmul+1
  4297     071F  0838               	movf	___flmul@grs+2,w
  4298     0720  00B2               	movwf	??___flmul+2
  4299     0721  0839               	movf	___flmul@grs+3,w
  4300     0722  00B3               	movwf	??___flmul+3
  4301     0723  3018               	movlw	24
  4302     0724                     u3125:
  4303     0724  36B3               	lsrf	??___flmul+3,f
  4304     0725  0CB2               	rrf	??___flmul+2,f
  4305     0726  0CB1               	rrf	??___flmul+1,f
  4306     0727  0CB0               	rrf	??___flmul,f
  4307     0728                     u3120:
  4308     0728  0B89               	decfsz	9,f
  4309     0729  2F24               	goto	u3125
  4310     072A  0830               	movf	??___flmul,w
  4311     072B  07BC               	addwf	___flmul@prod,f
  4312     072C  0831               	movf	??___flmul+1,w
  4313     072D  3DBD               	addwfc	___flmul@prod+1,f
  4314     072E  0832               	movf	??___flmul+2,w
  4315     072F  3DBE               	addwfc	___flmul@prod+2,f
  4316     0730  0833               	movf	??___flmul+3,w
  4317     0731  3DBF               	addwfc	___flmul@prod+3,f
  4318     0732                     l2530:
  4319     0732  3008               	movlw	8
  4320     0733                     u3135:
  4321     0733  35B6               	lslf	___flmul@grs,f
  4322     0734  0DB7               	rlf	___flmul@grs+1,f
  4323     0735  0DB8               	rlf	___flmul@grs+2,f
  4324     0736  0DB9               	rlf	___flmul@grs+3,f
  4325     0737  0B89               	decfsz	9,f
  4326     0738  2F33               	goto	u3135
  4327     0739                     l2532:
  4328     0739  083B               	movf	___flmul@bexp,w
  4329     073A  073A               	addwf	___flmul@aexp,w
  4330     073B  00B0               	movwf	??___flmul
  4331     073C  01B1               	clrf	??___flmul+1
  4332     073D  0DB1               	rlf	??___flmul+1,f
  4333     073E  0830               	movf	??___flmul,w
  4334     073F  3E82               	addlw	130
  4335     0740  00C0               	movwf	___flmul@temp
  4336     0741  30FF               	movlw	255
  4337     0742  3D31               	addwfc	??___flmul+1,w
  4338     0743  00C1               	movwf	___flmul@temp+1
  4339     0744  2F5C               	goto	l2544
  4340     0745                     l2534:
  4341     0745  3001               	movlw	1
  4342     0746                     u3145:
  4343     0746  35BC               	lslf	___flmul@prod,f
  4344     0747  0DBD               	rlf	___flmul@prod+1,f
  4345     0748  0DBE               	rlf	___flmul@prod+2,f
  4346     0749  0DBF               	rlf	___flmul@prod+3,f
  4347     074A  0B89               	decfsz	9,f
  4348     074B  2F46               	goto	u3145
  4349     074C                     l2536:
  4350     074C  1FB9               	btfss	___flmul@grs+3,7
  4351     074D  2F4F               	goto	u3151
  4352     074E  2F50               	goto	u3150
  4353     074F                     u3151:
  4354     074F  2F51               	goto	l2540
  4355     0750                     u3150:
  4356     0750                     l2538:
  4357     0750  143C               	bsf	___flmul@prod,0
  4358     0751                     l2540:
  4359     0751  3001               	movlw	1
  4360     0752                     u3165:
  4361     0752  35B6               	lslf	___flmul@grs,f
  4362     0753  0DB7               	rlf	___flmul@grs+1,f
  4363     0754  0DB8               	rlf	___flmul@grs+2,f
  4364     0755  0DB9               	rlf	___flmul@grs+3,f
  4365     0756  0B89               	decfsz	9,f
  4366     0757  2F52               	goto	u3165
  4367     0758                     l2542:
  4368     0758  30FF               	movlw	255
  4369     0759  07C0               	addwf	___flmul@temp,f
  4370     075A  30FF               	movlw	255
  4371     075B  3DC1               	addwfc	___flmul@temp+1,f
  4372     075C                     l2544:
  4373     075C  1FBE               	btfss	___flmul@prod+2,7
  4374     075D  2F5F               	goto	u3171
  4375     075E  2F60               	goto	u3170
  4376     075F                     u3171:
  4377     075F  2F45               	goto	l2534
  4378     0760                     u3170:
  4379     0760                     l2546:
  4380     0760  01BA               	clrf	___flmul@aexp
  4381     0761                     l2548:
  4382     0761  1FB9               	btfss	___flmul@grs+3,7
  4383     0762  2F64               	goto	u3181
  4384     0763  2F65               	goto	u3180
  4385     0764                     u3181:
  4386     0764  2F81               	goto	l2556
  4387     0765                     u3180:
  4388     0765                     l2550:
  4389     0765  30FF               	movlw	255
  4390     0766  0536               	andwf	___flmul@grs,w
  4391     0767  00B0               	movwf	??___flmul
  4392     0768  30FF               	movlw	255
  4393     0769  0537               	andwf	___flmul@grs+1,w
  4394     076A  00B1               	movwf	??___flmul+1
  4395     076B  30FF               	movlw	255
  4396     076C  0538               	andwf	___flmul@grs+2,w
  4397     076D  00B2               	movwf	??___flmul+2
  4398     076E  307F               	movlw	127
  4399     076F  0539               	andwf	___flmul@grs+3,w
  4400     0770  00B3               	movwf	??___flmul+3
  4401     0771  0833               	movf	??___flmul+3,w
  4402     0772  0432               	iorwf	??___flmul+2,w
  4403     0773  0431               	iorwf	??___flmul+1,w
  4404     0774  0430               	iorwf	??___flmul,w
  4405     0775  1903               	skipnz
  4406     0776  2F78               	goto	u3191
  4407     0777  2F79               	goto	u3190
  4408     0778                     u3191:
  4409     0778  2F7C               	goto	l699
  4410     0779                     u3190:
  4411     0779                     l2552:
  4412     0779  01BA               	clrf	___flmul@aexp
  4413     077A  0ABA               	incf	___flmul@aexp,f
  4414     077B  2F81               	goto	l2556
  4415     077C                     l699:
  4416     077C  1C3C               	btfss	___flmul@prod,0
  4417     077D  2F7F               	goto	u3201
  4418     077E  2F80               	goto	u3200
  4419     077F                     u3201:
  4420     077F  2F81               	goto	l2556
  4421     0780                     u3200:
  4422     0780  2F79               	goto	l2552
  4423     0781                     l2556:
  4424     0781  083A               	movf	___flmul@aexp,w
  4425     0782  1903               	btfsc	3,2
  4426     0783  2F85               	goto	u3211
  4427     0784  2F86               	goto	u3210
  4428     0785                     u3211:
  4429     0785  2FAE               	goto	l2566
  4430     0786                     u3210:
  4431     0786                     l2558:
  4432     0786  3001               	movlw	1
  4433     0787  07BC               	addwf	___flmul@prod,f
  4434     0788  3000               	movlw	0
  4435     0789  3DBD               	addwfc	___flmul@prod+1,f
  4436     078A  3000               	movlw	0
  4437     078B  3DBE               	addwfc	___flmul@prod+2,f
  4438     078C  3000               	movlw	0
  4439     078D  3DBF               	addwfc	___flmul@prod+3,f
  4440     078E                     l2560:
  4441     078E  1C3F               	btfss	___flmul@prod+3,0
  4442     078F  2F91               	goto	u3221
  4443     0790  2F92               	goto	u3220
  4444     0791                     u3221:
  4445     0791  2FAE               	goto	l2566
  4446     0792                     u3220:
  4447     0792                     l2562:
  4448     0792  083C               	movf	___flmul@prod,w
  4449     0793  00B0               	movwf	??___flmul
  4450     0794  083D               	movf	___flmul@prod+1,w
  4451     0795  00B1               	movwf	??___flmul+1
  4452     0796  083E               	movf	___flmul@prod+2,w
  4453     0797  00B2               	movwf	??___flmul+2
  4454     0798  083F               	movf	___flmul@prod+3,w
  4455     0799  00B3               	movwf	??___flmul+3
  4456     079A  3001               	movlw	1
  4457     079B  00B4               	movwf	??___flmul+4
  4458     079C                     u3235:
  4459     079C  37B3               	asrf	??___flmul+3,f
  4460     079D  0CB2               	rrf	??___flmul+2,f
  4461     079E  0CB1               	rrf	??___flmul+1,f
  4462     079F  0CB0               	rrf	??___flmul,f
  4463     07A0                     u3230:
  4464     07A0  0BB4               	decfsz	??___flmul+4,f
  4465     07A1  2F9C               	goto	u3235
  4466     07A2  0833               	movf	??___flmul+3,w
  4467     07A3  00BF               	movwf	___flmul@prod+3
  4468     07A4  0832               	movf	??___flmul+2,w
  4469     07A5  00BE               	movwf	___flmul@prod+2
  4470     07A6  0831               	movf	??___flmul+1,w
  4471     07A7  00BD               	movwf	___flmul@prod+1
  4472     07A8  0830               	movf	??___flmul,w
  4473     07A9  00BC               	movwf	___flmul@prod
  4474     07AA                     l2564:
  4475     07AA  3001               	movlw	1
  4476     07AB  07C0               	addwf	___flmul@temp,f
  4477     07AC  3000               	movlw	0
  4478     07AD  3DC1               	addwfc	___flmul@temp+1,f
  4479     07AE                     l2566:
  4480     07AE  0841               	movf	___flmul@temp+1,w
  4481     07AF  3A80               	xorlw	128
  4482     07B0  00B0               	movwf	??___flmul
  4483     07B1  3080               	movlw	128
  4484     07B2  0230               	subwf	??___flmul,w
  4485     07B3  1D03               	skipz
  4486     07B4  2FB7               	goto	u3245
  4487     07B5  30FF               	movlw	255
  4488     07B6  0240               	subwf	___flmul@temp,w
  4489     07B7                     u3245:
  4490     07B7  1C03               	skipc
  4491     07B8  2FBA               	goto	u3241
  4492     07B9  2FBB               	goto	u3240
  4493     07BA                     u3241:
  4494     07BA  2FC5               	goto	l2570
  4495     07BB                     u3240:
  4496     07BB                     l2568:
  4497     07BB  307F               	movlw	127
  4498     07BC  0020               	movlb	0	; select bank0
  4499     07BD  00BF               	movwf	___flmul@prod+3
  4500     07BE  3080               	movlw	128
  4501     07BF  00BE               	movwf	___flmul@prod+2
  4502     07C0  3000               	movlw	0
  4503     07C1  00BD               	movwf	___flmul@prod+1
  4504     07C2  3000               	movlw	0
  4505     07C3  00BC               	movwf	___flmul@prod
  4506     07C4  2FF0               	goto	l705
  4507     07C5                     l2570:
  4508     07C5  0020               	movlb	0	; select bank0
  4509     07C6  0841               	movf	___flmul@temp+1,w
  4510     07C7  3A80               	xorlw	128
  4511     07C8  00B0               	movwf	??___flmul
  4512     07C9  3080               	movlw	128
  4513     07CA  0230               	subwf	??___flmul,w
  4514     07CB  1D03               	skipz
  4515     07CC  2FCF               	goto	u3255
  4516     07CD  3001               	movlw	1
  4517     07CE  0240               	subwf	___flmul@temp,w
  4518     07CF                     u3255:
  4519     07CF  1803               	skipnc
  4520     07D0  2FD2               	goto	u3251
  4521     07D1  2FD3               	goto	u3250
  4522     07D2                     u3251:
  4523     07D2  2FDE               	goto	l2576
  4524     07D3                     u3250:
  4525     07D3                     l2572:
  4526     07D3  3000               	movlw	0
  4527     07D4  0020               	movlb	0	; select bank0
  4528     07D5  00BF               	movwf	___flmul@prod+3
  4529     07D6  3000               	movlw	0
  4530     07D7  00BE               	movwf	___flmul@prod+2
  4531     07D8  3000               	movlw	0
  4532     07D9  00BD               	movwf	___flmul@prod+1
  4533     07DA  3000               	movlw	0
  4534     07DB  00BC               	movwf	___flmul@prod
  4535     07DC                     l2574:
  4536     07DC  01B5               	clrf	___flmul@sign
  4537     07DD  2FF0               	goto	l705
  4538     07DE                     l2576:
  4539     07DE  0020               	movlb	0	; select bank0
  4540     07DF  0840               	movf	___flmul@temp,w
  4541     07E0  00BB               	movwf	___flmul@bexp
  4542     07E1  30FF               	movlw	255
  4543     07E2  05BC               	andwf	___flmul@prod,f
  4544     07E3  30FF               	movlw	255
  4545     07E4  05BD               	andwf	___flmul@prod+1,f
  4546     07E5  307F               	movlw	127
  4547     07E6  05BE               	andwf	___flmul@prod+2,f
  4548     07E7  3000               	movlw	0
  4549     07E8  05BF               	andwf	___flmul@prod+3,f
  4550     07E9                     l2578:
  4551     07E9  1C3B               	btfss	___flmul@bexp,0
  4552     07EA  2FEC               	goto	u3261
  4553     07EB  2FED               	goto	u3260
  4554     07EC                     u3261:
  4555     07EC  2FEE               	goto	l2582
  4556     07ED                     u3260:
  4557     07ED                     l2580:
  4558     07ED  17BE               	bsf	___flmul@prod+2,7
  4559     07EE                     l2582:
  4560     07EE  363B               	lsrf	___flmul@bexp,w
  4561     07EF  00BF               	movwf	___flmul@prod+3
  4562     07F0                     l705:
  4563     07F0  0835               	movf	___flmul@sign,w
  4564     07F1  00B0               	movwf	??___flmul
  4565     07F2  0830               	movf	??___flmul,w
  4566     07F3  04BF               	iorwf	___flmul@prod+3,f
  4567     07F4                     l2584:
  4568     07F4  083F               	movf	___flmul@prod+3,w
  4569     07F5  00AB               	movwf	?___flmul+3
  4570     07F6  083E               	movf	___flmul@prod+2,w
  4571     07F7  00AA               	movwf	?___flmul+2
  4572     07F8  083D               	movf	___flmul@prod+1,w
  4573     07F9  00A9               	movwf	?___flmul+1
  4574     07FA  083C               	movf	___flmul@prod,w
  4575     07FB  00A8               	movwf	?___flmul
  4576     07FC                     l693:
  4577     07FC  0008               	return
  4578     07FD                     __end_of___flmul:
  4579                           
  4580                           	psect	text6
  4581     0BF5                     __ptext6:	
  4582 ;; *************** function __Umul8_16 *****************
  4583 ;; Defined at:
  4584 ;;		line 4 in file "C:\Program Files\Microchip\xc8\v2.45\pic\sources\c99\common\Umul8_16.c"
  4585 ;; Parameters:    Size  Location     Type
  4586 ;;  multiplier      1    wreg     unsigned char 
  4587 ;;  multiplicand    1    0[COMMON] unsigned char 
  4588 ;; Auto vars:     Size  Location     Type
  4589 ;;  multiplier      1    8[COMMON] unsigned char 
  4590 ;;  word_mpld       2    6[COMMON] unsigned short 
  4591 ;;  product         2    4[COMMON] unsigned short 
  4592 ;; Return value:  Size  Location     Type
  4593 ;;                  2    0[COMMON] unsigned int 
  4594 ;; Registers used:
  4595 ;;		wreg, status,2, status,0
  4596 ;; Tracked objects:
  4597 ;;		On entry : 0/0
  4598 ;;		On exit  : 0/0
  4599 ;;		Unchanged: 0/0
  4600 ;; Data sizes:     COMMON   BANK0   BANK1   BANK2   BANK3   BANK4   BANK5   BANK6   BANK7   BANK8   BANK9  BANK10  BANK1
      +1  BANK12  BANK13  BANK14  BANK15  BANK16  BANK17  BANK18  BANK19  BANK20  BANK21  BANK22  BANK23  BANK24  BANK25
  4601 ;;      Params:         2       0       0       0       0       0       0       0       0       0       0       0       
      +0       0       0       0       0       0       0       0       0       0       0       0       0       0       0
  4602 ;;      Locals:         5       0       0       0       0       0       0       0       0       0       0       0       
      +0       0       0       0       0       0       0       0       0       0       0       0       0       0       0
  4603 ;;      Temps:          2       0       0       0       0       0       0       0       0       0       0       0       
      +0       0       0       0       0       0       0       0       0       0       0       0       0       0       0
  4604 ;;      Totals:         9       0       0       0       0       0       0       0       0       0       0       0       
      +0       0       0       0       0       0       0       0       0       0       0       0       0       0       0
  4605 ;;Total ram usage:        9 bytes
  4606 ;; Hardware stack levels used: 1
  4607 ;; This function calls:
  4608 ;;		Nothing
  4609 ;; This function is called by:
  4610 ;;		___flmul
  4611 ;; This function uses a non-reentrant model
  4612 ;;
  4613                           
  4614     0BF5                     __Umul8_16:	
  4615                           ;psect for function __Umul8_16
  4616                           
  4617                           
  4618                           ;incstack = 0
  4619                           ; Regs used in __Umul8_16: [wreg+status,2+status,0]
  4620                           ;__Umul8_16@multiplier stored from wreg
  4621     0BF5  00F8               	movwf	__Umul8_16@multiplier
  4622     0BF6                     l1950:
  4623     0BF6  01F4               	clrf	__Umul8_16@product
  4624     0BF7  01F5               	clrf	__Umul8_16@product+1
  4625     0BF8                     l1952:
  4626     0BF8  0870               	movf	__Umul8_16@multiplicand,w
  4627     0BF9  00F2               	movwf	??__Umul8_16
  4628     0BFA  01F3               	clrf	??__Umul8_16+1
  4629     0BFB  0872               	movf	??__Umul8_16,w
  4630     0BFC  00F6               	movwf	__Umul8_16@word_mpld
  4631     0BFD  0873               	movf	??__Umul8_16+1,w
  4632     0BFE  00F7               	movwf	__Umul8_16@word_mpld+1
  4633     0BFF                     l1954:
  4634     0BFF  1C78               	btfss	__Umul8_16@multiplier,0
  4635     0C00  2C02               	goto	u2141
  4636     0C01  2C03               	goto	u2140
  4637     0C02                     u2141:
  4638     0C02  2C07               	goto	l712
  4639     0C03                     u2140:
  4640     0C03                     l1956:
  4641     0C03  0876               	movf	__Umul8_16@word_mpld,w
  4642     0C04  07F4               	addwf	__Umul8_16@product,f
  4643     0C05  0877               	movf	__Umul8_16@word_mpld+1,w
  4644     0C06  3DF5               	addwfc	__Umul8_16@product+1,f
  4645     0C07                     l712:
  4646     0C07  3001               	movlw	1
  4647     0C08                     u2155:
  4648     0C08  35F6               	lslf	__Umul8_16@word_mpld,f
  4649     0C09  0DF7               	rlf	__Umul8_16@word_mpld+1,f
  4650     0C0A  0B89               	decfsz	9,f
  4651     0C0B  2C08               	goto	u2155
  4652     0C0C  1003               	clrc
  4653     0C0D  0CF8               	rrf	__Umul8_16@multiplier,f
  4654     0C0E                     l1958:
  4655     0C0E  0878               	movf	__Umul8_16@multiplier,w
  4656     0C0F  1D03               	btfss	3,2
  4657     0C10  2C12               	goto	u2161
  4658     0C11  2C13               	goto	u2160
  4659     0C12                     u2161:
  4660     0C12  2BFF               	goto	l1954
  4661     0C13                     u2160:
  4662     0C13                     l1960:
  4663     0C13  0875               	movf	__Umul8_16@product+1,w
  4664     0C14  00F1               	movwf	?__Umul8_16+1
  4665     0C15  0874               	movf	__Umul8_16@product,w
  4666     0C16  00F0               	movwf	?__Umul8_16
  4667     0C17                     l714:
  4668     0C17  0008               	return
  4669     0C18                     __end_of__Umul8_16:
  4670                           
  4671                           	psect	text7
  4672     020C                     __ptext7:	
  4673 ;; *************** function ___fldiv *****************
  4674 ;; Defined at:
  4675 ;;		line 8 in file "C:\Program Files\Microchip\xc8\v2.45\pic\sources\c99\common\sprcdiv.c"
  4676 ;; Parameters:    Size  Location     Type
  4677 ;;  a               4   34[BANK0 ] unsigned int 
  4678 ;;  b               4   38[BANK0 ] unsigned int 
  4679 ;; Auto vars:     Size  Location     Type
  4680 ;;  grs             4   54[BANK0 ] unsigned long 
  4681 ;;  rem             4   47[BANK0 ] unsigned long 
  4682 ;;  new_exp         2   52[BANK0 ] short 
  4683 ;;  aexp            1   59[BANK0 ] unsigned char 
  4684 ;;  bexp            1   58[BANK0 ] unsigned char 
  4685 ;;  sign            1   51[BANK0 ] unsigned char 
  4686 ;; Return value:  Size  Location     Type
  4687 ;;                  4   34[BANK0 ] unsigned char 
  4688 ;; Registers used:
  4689 ;;		wreg, status,2, status,0
  4690 ;; Tracked objects:
  4691 ;;		On entry : 0/0
  4692 ;;		On exit  : 0/0
  4693 ;;		Unchanged: 0/0
  4694 ;; Data sizes:     COMMON   BANK0   BANK1   BANK2   BANK3   BANK4   BANK5   BANK6   BANK7   BANK8   BANK9  BANK10  BANK1
      +1  BANK12  BANK13  BANK14  BANK15  BANK16  BANK17  BANK18  BANK19  BANK20  BANK21  BANK22  BANK23  BANK24  BANK25
  4695 ;;      Params:         0       8       0       0       0       0       0       0       0       0       0       0       
      +0       0       0       0       0       0       0       0       0       0       0       0       0       0       0
  4696 ;;      Locals:         0      13       0       0       0       0       0       0       0       0       0       0       
      +0       0       0       0       0       0       0       0       0       0       0       0       0       0       0
  4697 ;;      Temps:          0       5       0       0       0       0       0       0       0       0       0       0       
      +0       0       0       0       0       0       0       0       0       0       0       0       0       0       0
  4698 ;;      Totals:         0      26       0       0       0       0       0       0       0       0       0       0       
      +0       0       0       0       0       0       0       0       0       0       0       0       0       0       0
  4699 ;;Total ram usage:       26 bytes
  4700 ;; Hardware stack levels used: 1
  4701 ;; This function calls:
  4702 ;;		Nothing
  4703 ;; This function is called by:
  4704 ;;		_main
  4705 ;; This function uses a non-reentrant model
  4706 ;;
  4707                           
  4708     020C                     ___fldiv:	
  4709                           ;psect for function ___fldiv
  4710                           
  4711     020C                     l2308:	
  4712                           ;incstack = 0
  4713                           ; Regs used in ___fldiv: [wreg+status,2+status,0]
  4714                           
  4715     020C  0020               	movlb	0	; select bank0
  4716     020D  0849               	movf	___fldiv@b+3,w
  4717     020E  3980               	andlw	128
  4718     020F  00D3               	movwf	___fldiv@sign
  4719     0210                     l2310:
  4720     0210  3549               	lslf	___fldiv@b+3,w
  4721     0211  00DA               	movwf	___fldiv@bexp
  4722     0212                     l2312:
  4723     0212  1FC8               	btfss	___fldiv@b+2,7
  4724     0213  2A15               	goto	u2721
  4725     0214  2A16               	goto	u2720
  4726     0215                     u2721:
  4727     0215  2A17               	goto	l2316
  4728     0216                     u2720:
  4729     0216                     l2314:
  4730     0216  145A               	bsf	___fldiv@bexp,0
  4731     0217                     l2316:
  4732     0217  085A               	movf	___fldiv@bexp,w
  4733     0218  1903               	btfsc	3,2
  4734     0219  2A1B               	goto	u2731
  4735     021A  2A1C               	goto	u2730
  4736     021B                     u2731:
  4737     021B  2A2C               	goto	l2326
  4738     021C                     u2730:
  4739     021C                     l2318:
  4740     021C  0A5A               	incf	___fldiv@bexp,w
  4741     021D  1D03               	btfss	3,2
  4742     021E  2A20               	goto	u2741
  4743     021F  2A21               	goto	u2740
  4744     0220                     u2741:
  4745     0220  2A29               	goto	l2322
  4746     0221                     u2740:
  4747     0221                     l2320:
  4748     0221  3000               	movlw	0
  4749     0222  00C9               	movwf	___fldiv@b+3
  4750     0223  3000               	movlw	0
  4751     0224  00C8               	movwf	___fldiv@b+2
  4752     0225  3000               	movlw	0
  4753     0226  00C7               	movwf	___fldiv@b+1
  4754     0227  3000               	movlw	0
  4755     0228  00C6               	movwf	___fldiv@b
  4756     0229                     l2322:
  4757     0229  17C8               	bsf	___fldiv@b+2,7
  4758     022A                     l2324:
  4759     022A  01C9               	clrf	___fldiv@b+3
  4760     022B  2A34               	goto	l2328
  4761     022C                     l2326:
  4762     022C  3000               	movlw	0
  4763     022D  00C9               	movwf	___fldiv@b+3
  4764     022E  3000               	movlw	0
  4765     022F  00C8               	movwf	___fldiv@b+2
  4766     0230  3000               	movlw	0
  4767     0231  00C7               	movwf	___fldiv@b+1
  4768     0232  3000               	movlw	0
  4769     0233  00C6               	movwf	___fldiv@b
  4770     0234                     l2328:
  4771     0234  0845               	movf	___fldiv@a+3,w
  4772     0235  3980               	andlw	128
  4773     0236  00CA               	movwf	??___fldiv
  4774     0237  084A               	movf	??___fldiv,w
  4775     0238  06D3               	xorwf	___fldiv@sign,f
  4776     0239                     l2330:
  4777     0239  3545               	lslf	___fldiv@a+3,w
  4778     023A  00DB               	movwf	___fldiv@aexp
  4779     023B                     l2332:
  4780     023B  1FC4               	btfss	___fldiv@a+2,7
  4781     023C  2A3E               	goto	u2751
  4782     023D  2A3F               	goto	u2750
  4783     023E                     u2751:
  4784     023E  2A40               	goto	l2336
  4785     023F                     u2750:
  4786     023F                     l2334:
  4787     023F  145B               	bsf	___fldiv@aexp,0
  4788     0240                     l2336:
  4789     0240  085B               	movf	___fldiv@aexp,w
  4790     0241  1903               	btfsc	3,2
  4791     0242  2A44               	goto	u2761
  4792     0243  2A45               	goto	u2760
  4793     0244                     u2761:
  4794     0244  2A55               	goto	l2346
  4795     0245                     u2760:
  4796     0245                     l2338:
  4797     0245  0A5B               	incf	___fldiv@aexp,w
  4798     0246  1D03               	btfss	3,2
  4799     0247  2A49               	goto	u2771
  4800     0248  2A4A               	goto	u2770
  4801     0249                     u2771:
  4802     0249  2A52               	goto	l2342
  4803     024A                     u2770:
  4804     024A                     l2340:
  4805     024A  3000               	movlw	0
  4806     024B  00C5               	movwf	___fldiv@a+3
  4807     024C  3000               	movlw	0
  4808     024D  00C4               	movwf	___fldiv@a+2
  4809     024E  3000               	movlw	0
  4810     024F  00C3               	movwf	___fldiv@a+1
  4811     0250  3000               	movlw	0
  4812     0251  00C2               	movwf	___fldiv@a
  4813     0252                     l2342:
  4814     0252  17C4               	bsf	___fldiv@a+2,7
  4815     0253                     l2344:
  4816     0253  01C5               	clrf	___fldiv@a+3
  4817     0254  2A5D               	goto	l653
  4818     0255                     l2346:
  4819     0255  3000               	movlw	0
  4820     0256  00C5               	movwf	___fldiv@a+3
  4821     0257  3000               	movlw	0
  4822     0258  00C4               	movwf	___fldiv@a+2
  4823     0259  3000               	movlw	0
  4824     025A  00C3               	movwf	___fldiv@a+1
  4825     025B  3000               	movlw	0
  4826     025C  00C2               	movwf	___fldiv@a
  4827     025D                     l653:
  4828     025D  0845               	movf	___fldiv@a+3,w
  4829     025E  0444               	iorwf	___fldiv@a+2,w
  4830     025F  0443               	iorwf	___fldiv@a+1,w
  4831     0260  0442               	iorwf	___fldiv@a,w
  4832     0261  1D03               	skipz
  4833     0262  2A64               	goto	u2781
  4834     0263  2A65               	goto	u2780
  4835     0264                     u2781:
  4836     0264  2A7E               	goto	l2356
  4837     0265                     u2780:
  4838     0265                     l2348:
  4839     0265  3000               	movlw	0
  4840     0266  00C9               	movwf	___fldiv@b+3
  4841     0267  3000               	movlw	0
  4842     0268  00C8               	movwf	___fldiv@b+2
  4843     0269  3000               	movlw	0
  4844     026A  00C7               	movwf	___fldiv@b+1
  4845     026B  3000               	movlw	0
  4846     026C  00C6               	movwf	___fldiv@b
  4847     026D  3080               	movlw	128
  4848     026E  04C8               	iorwf	___fldiv@b+2,f
  4849     026F  307F               	movlw	127
  4850     0270  04C9               	iorwf	___fldiv@b+3,f
  4851     0271                     l2350:
  4852     0271  0853               	movf	___fldiv@sign,w
  4853     0272  00CA               	movwf	??___fldiv
  4854     0273  084A               	movf	??___fldiv,w
  4855     0274  04C9               	iorwf	___fldiv@b+3,f
  4856     0275                     l2352:
  4857     0275  0849               	movf	___fldiv@b+3,w
  4858     0276  00C5               	movwf	?___fldiv+3
  4859     0277  0848               	movf	___fldiv@b+2,w
  4860     0278  00C4               	movwf	?___fldiv+2
  4861     0279  0847               	movf	___fldiv@b+1,w
  4862     027A  00C3               	movwf	?___fldiv+1
  4863     027B  0846               	movf	___fldiv@b,w
  4864     027C  00C2               	movwf	?___fldiv
  4865     027D  2BB5               	goto	l655
  4866     027E                     l2356:
  4867     027E  085A               	movf	___fldiv@bexp,w
  4868     027F  1D03               	btfss	3,2
  4869     0280  2A82               	goto	u2791
  4870     0281  2A83               	goto	u2790
  4871     0282                     u2791:
  4872     0282  2A8C               	goto	l2362
  4873     0283                     u2790:
  4874     0283                     l2358:
  4875     0283  3000               	movlw	0
  4876     0284  00C5               	movwf	?___fldiv+3
  4877     0285  3000               	movlw	0
  4878     0286  00C4               	movwf	?___fldiv+2
  4879     0287  3000               	movlw	0
  4880     0288  00C3               	movwf	?___fldiv+1
  4881     0289  3000               	movlw	0
  4882     028A  00C2               	movwf	?___fldiv
  4883     028B  2BB5               	goto	l655
  4884     028C                     l2362:
  4885     028C  085A               	movf	___fldiv@bexp,w
  4886     028D  00CA               	movwf	??___fldiv
  4887     028E  01CB               	clrf	??___fldiv+1
  4888     028F  084B               	movf	??___fldiv+1,w
  4889     0290  00CD               	movwf	??___fldiv+3
  4890     0291  085B               	movf	___fldiv@aexp,w
  4891     0292  024A               	subwf	??___fldiv,w
  4892     0293  00CC               	movwf	??___fldiv+2
  4893     0294  1C03               	skipc
  4894     0295  03CD               	decf	??___fldiv+3,f
  4895     0296  084C               	movf	??___fldiv+2,w
  4896     0297  3E7F               	addlw	127
  4897     0298  00D4               	movwf	___fldiv@new_exp
  4898     0299  3000               	movlw	0
  4899     029A  3D4D               	addwfc	??___fldiv+3,w
  4900     029B  00D5               	movwf	___fldiv@new_exp+1
  4901     029C                     l2364:
  4902     029C  0849               	movf	___fldiv@b+3,w
  4903     029D  00D2               	movwf	___fldiv@rem+3
  4904     029E  0848               	movf	___fldiv@b+2,w
  4905     029F  00D1               	movwf	___fldiv@rem+2
  4906     02A0  0847               	movf	___fldiv@b+1,w
  4907     02A1  00D0               	movwf	___fldiv@rem+1
  4908     02A2  0846               	movf	___fldiv@b,w
  4909     02A3  00CF               	movwf	___fldiv@rem
  4910     02A4                     l2366:
  4911     02A4  3000               	movlw	0
  4912     02A5  00C9               	movwf	___fldiv@b+3
  4913     02A6  3000               	movlw	0
  4914     02A7  00C8               	movwf	___fldiv@b+2
  4915     02A8  3000               	movlw	0
  4916     02A9  00C7               	movwf	___fldiv@b+1
  4917     02AA  3000               	movlw	0
  4918     02AB  00C6               	movwf	___fldiv@b
  4919     02AC                     l2368:
  4920     02AC  3000               	movlw	0
  4921     02AD  00D9               	movwf	___fldiv@grs+3
  4922     02AE  3000               	movlw	0
  4923     02AF  00D8               	movwf	___fldiv@grs+2
  4924     02B0  3000               	movlw	0
  4925     02B1  00D7               	movwf	___fldiv@grs+1
  4926     02B2  3000               	movlw	0
  4927     02B3  00D6               	movwf	___fldiv@grs
  4928     02B4                     l2370:
  4929     02B4  01DB               	clrf	___fldiv@aexp
  4930     02B5  2AF4               	goto	l2390
  4931     02B6                     l2372:
  4932     02B6  085B               	movf	___fldiv@aexp,w
  4933     02B7  1903               	btfsc	3,2
  4934     02B8  2ABA               	goto	u2801
  4935     02B9  2ABB               	goto	u2800
  4936     02BA                     u2801:
  4937     02BA  2AD5               	goto	l2382
  4938     02BB                     u2800:
  4939     02BB                     l2374:
  4940     02BB  3001               	movlw	1
  4941     02BC                     u2815:
  4942     02BC  35CF               	lslf	___fldiv@rem,f
  4943     02BD  0DD0               	rlf	___fldiv@rem+1,f
  4944     02BE  0DD1               	rlf	___fldiv@rem+2,f
  4945     02BF  0DD2               	rlf	___fldiv@rem+3,f
  4946     02C0  0B89               	decfsz	9,f
  4947     02C1  2ABC               	goto	u2815
  4948     02C2  3001               	movlw	1
  4949     02C3                     u2825:
  4950     02C3  35C6               	lslf	___fldiv@b,f
  4951     02C4  0DC7               	rlf	___fldiv@b+1,f
  4952     02C5  0DC8               	rlf	___fldiv@b+2,f
  4953     02C6  0DC9               	rlf	___fldiv@b+3,f
  4954     02C7  0B89               	decfsz	9,f
  4955     02C8  2AC3               	goto	u2825
  4956     02C9                     l2376:
  4957     02C9  1FD9               	btfss	___fldiv@grs+3,7
  4958     02CA  2ACC               	goto	u2831
  4959     02CB  2ACD               	goto	u2830
  4960     02CC                     u2831:
  4961     02CC  2ACE               	goto	l2380
  4962     02CD                     u2830:
  4963     02CD                     l2378:
  4964     02CD  1446               	bsf	___fldiv@b,0
  4965     02CE                     l2380:
  4966     02CE  3001               	movlw	1
  4967     02CF                     u2845:
  4968     02CF  35D6               	lslf	___fldiv@grs,f
  4969     02D0  0DD7               	rlf	___fldiv@grs+1,f
  4970     02D1  0DD8               	rlf	___fldiv@grs+2,f
  4971     02D2  0DD9               	rlf	___fldiv@grs+3,f
  4972     02D3  0B89               	decfsz	9,f
  4973     02D4  2ACF               	goto	u2845
  4974     02D5                     l2382:
  4975     02D5  0845               	movf	___fldiv@a+3,w
  4976     02D6  0252               	subwf	___fldiv@rem+3,w
  4977     02D7  1D03               	skipz
  4978     02D8  2AE3               	goto	u2855
  4979     02D9  0844               	movf	___fldiv@a+2,w
  4980     02DA  0251               	subwf	___fldiv@rem+2,w
  4981     02DB  1D03               	skipz
  4982     02DC  2AE3               	goto	u2855
  4983     02DD  0843               	movf	___fldiv@a+1,w
  4984     02DE  0250               	subwf	___fldiv@rem+1,w
  4985     02DF  1D03               	skipz
  4986     02E0  2AE3               	goto	u2855
  4987     02E1  0842               	movf	___fldiv@a,w
  4988     02E2  024F               	subwf	___fldiv@rem,w
  4989     02E3                     u2855:
  4990     02E3  1C03               	skipc
  4991     02E4  2AE6               	goto	u2851
  4992     02E5  2AE7               	goto	u2850
  4993     02E6                     u2851:
  4994     02E6  2AF0               	goto	l2388
  4995     02E7                     u2850:
  4996     02E7                     l2384:
  4997     02E7  1759               	bsf	___fldiv@grs+3,6
  4998     02E8                     l2386:
  4999     02E8  0842               	movf	___fldiv@a,w
  5000     02E9  02CF               	subwf	___fldiv@rem,f
  5001     02EA  0843               	movf	___fldiv@a+1,w
  5002     02EB  3BD0               	subwfb	___fldiv@rem+1,f
  5003     02EC  0844               	movf	___fldiv@a+2,w
  5004     02ED  3BD1               	subwfb	___fldiv@rem+2,f
  5005     02EE  0845               	movf	___fldiv@a+3,w
  5006     02EF  3BD2               	subwfb	___fldiv@rem+3,f
  5007     02F0                     l2388:
  5008     02F0  3001               	movlw	1
  5009     02F1  00CA               	movwf	??___fldiv
  5010     02F2  084A               	movf	??___fldiv,w
  5011     02F3  07DB               	addwf	___fldiv@aexp,f
  5012     02F4                     l2390:
  5013     02F4  301A               	movlw	26
  5014     02F5  025B               	subwf	___fldiv@aexp,w
  5015     02F6  1C03               	skipc
  5016     02F7  2AF9               	goto	u2861
  5017     02F8  2AFA               	goto	u2860
  5018     02F9                     u2861:
  5019     02F9  2AB6               	goto	l2372
  5020     02FA                     u2860:
  5021     02FA                     l2392:
  5022     02FA  0852               	movf	___fldiv@rem+3,w
  5023     02FB  0451               	iorwf	___fldiv@rem+2,w
  5024     02FC  0450               	iorwf	___fldiv@rem+1,w
  5025     02FD  044F               	iorwf	___fldiv@rem,w
  5026     02FE  1903               	skipnz
  5027     02FF  2B01               	goto	u2871
  5028     0300  2B02               	goto	u2870
  5029     0301                     u2871:
  5030     0301  2B1B               	goto	l2406
  5031     0302                     u2870:
  5032     0302                     l2394:
  5033     0302  1456               	bsf	___fldiv@grs,0
  5034     0303  2B1B               	goto	l2406
  5035     0304                     l2396:
  5036     0304  3001               	movlw	1
  5037     0305                     u2885:
  5038     0305  35C6               	lslf	___fldiv@b,f
  5039     0306  0DC7               	rlf	___fldiv@b+1,f
  5040     0307  0DC8               	rlf	___fldiv@b+2,f
  5041     0308  0DC9               	rlf	___fldiv@b+3,f
  5042     0309  0B89               	decfsz	9,f
  5043     030A  2B05               	goto	u2885
  5044     030B                     l2398:
  5045     030B  1FD9               	btfss	___fldiv@grs+3,7
  5046     030C  2B0E               	goto	u2891
  5047     030D  2B0F               	goto	u2890
  5048     030E                     u2891:
  5049     030E  2B10               	goto	l2402
  5050     030F                     u2890:
  5051     030F                     l2400:
  5052     030F  1446               	bsf	___fldiv@b,0
  5053     0310                     l2402:
  5054     0310  3001               	movlw	1
  5055     0311                     u2905:
  5056     0311  35D6               	lslf	___fldiv@grs,f
  5057     0312  0DD7               	rlf	___fldiv@grs+1,f
  5058     0313  0DD8               	rlf	___fldiv@grs+2,f
  5059     0314  0DD9               	rlf	___fldiv@grs+3,f
  5060     0315  0B89               	decfsz	9,f
  5061     0316  2B11               	goto	u2905
  5062     0317                     l2404:
  5063     0317  30FF               	movlw	255
  5064     0318  07D4               	addwf	___fldiv@new_exp,f
  5065     0319  30FF               	movlw	255
  5066     031A  3DD5               	addwfc	___fldiv@new_exp+1,f
  5067     031B                     l2406:
  5068     031B  1FC8               	btfss	___fldiv@b+2,7
  5069     031C  2B1E               	goto	u2911
  5070     031D  2B1F               	goto	u2910
  5071     031E                     u2911:
  5072     031E  2B04               	goto	l2396
  5073     031F                     u2910:
  5074     031F                     l2408:
  5075     031F  01DB               	clrf	___fldiv@aexp
  5076     0320                     l2410:
  5077     0320  1FD9               	btfss	___fldiv@grs+3,7
  5078     0321  2B23               	goto	u2921
  5079     0322  2B24               	goto	u2920
  5080     0323                     u2921:
  5081     0323  2B40               	goto	l2418
  5082     0324                     u2920:
  5083     0324                     l2412:
  5084     0324  30FF               	movlw	255
  5085     0325  0556               	andwf	___fldiv@grs,w
  5086     0326  00CA               	movwf	??___fldiv
  5087     0327  30FF               	movlw	255
  5088     0328  0557               	andwf	___fldiv@grs+1,w
  5089     0329  00CB               	movwf	??___fldiv+1
  5090     032A  30FF               	movlw	255
  5091     032B  0558               	andwf	___fldiv@grs+2,w
  5092     032C  00CC               	movwf	??___fldiv+2
  5093     032D  307F               	movlw	127
  5094     032E  0559               	andwf	___fldiv@grs+3,w
  5095     032F  00CD               	movwf	??___fldiv+3
  5096     0330  084D               	movf	??___fldiv+3,w
  5097     0331  044C               	iorwf	??___fldiv+2,w
  5098     0332  044B               	iorwf	??___fldiv+1,w
  5099     0333  044A               	iorwf	??___fldiv,w
  5100     0334  1903               	skipnz
  5101     0335  2B37               	goto	u2931
  5102     0336  2B38               	goto	u2930
  5103     0337                     u2931:
  5104     0337  2B3B               	goto	l669
  5105     0338                     u2930:
  5106     0338                     l2414:
  5107     0338  01DB               	clrf	___fldiv@aexp
  5108     0339  0ADB               	incf	___fldiv@aexp,f
  5109     033A  2B40               	goto	l2418
  5110     033B                     l669:
  5111     033B  1C46               	btfss	___fldiv@b,0
  5112     033C  2B3E               	goto	u2941
  5113     033D  2B3F               	goto	u2940
  5114     033E                     u2941:
  5115     033E  2B40               	goto	l2418
  5116     033F                     u2940:
  5117     033F  2B38               	goto	l2414
  5118     0340                     l2418:
  5119     0340  085B               	movf	___fldiv@aexp,w
  5120     0341  1903               	btfsc	3,2
  5121     0342  2B44               	goto	u2951
  5122     0343  2B45               	goto	u2950
  5123     0344                     u2951:
  5124     0344  2B6D               	goto	l2428
  5125     0345                     u2950:
  5126     0345                     l2420:
  5127     0345  3001               	movlw	1
  5128     0346  07C6               	addwf	___fldiv@b,f
  5129     0347  3000               	movlw	0
  5130     0348  3DC7               	addwfc	___fldiv@b+1,f
  5131     0349  3000               	movlw	0
  5132     034A  3DC8               	addwfc	___fldiv@b+2,f
  5133     034B  3000               	movlw	0
  5134     034C  3DC9               	addwfc	___fldiv@b+3,f
  5135     034D                     l2422:
  5136     034D  1C49               	btfss	___fldiv@b+3,0
  5137     034E  2B50               	goto	u2961
  5138     034F  2B51               	goto	u2960
  5139     0350                     u2961:
  5140     0350  2B6D               	goto	l2428
  5141     0351                     u2960:
  5142     0351                     l2424:
  5143     0351  0846               	movf	___fldiv@b,w
  5144     0352  00CA               	movwf	??___fldiv
  5145     0353  0847               	movf	___fldiv@b+1,w
  5146     0354  00CB               	movwf	??___fldiv+1
  5147     0355  0848               	movf	___fldiv@b+2,w
  5148     0356  00CC               	movwf	??___fldiv+2
  5149     0357  0849               	movf	___fldiv@b+3,w
  5150     0358  00CD               	movwf	??___fldiv+3
  5151     0359  3001               	movlw	1
  5152     035A  00CE               	movwf	??___fldiv+4
  5153     035B                     u2975:
  5154     035B  37CD               	asrf	??___fldiv+3,f
  5155     035C  0CCC               	rrf	??___fldiv+2,f
  5156     035D  0CCB               	rrf	??___fldiv+1,f
  5157     035E  0CCA               	rrf	??___fldiv,f
  5158     035F                     u2970:
  5159     035F  0BCE               	decfsz	??___fldiv+4,f
  5160     0360  2B5B               	goto	u2975
  5161     0361  084D               	movf	??___fldiv+3,w
  5162     0362  00C9               	movwf	___fldiv@b+3
  5163     0363  084C               	movf	??___fldiv+2,w
  5164     0364  00C8               	movwf	___fldiv@b+2
  5165     0365  084B               	movf	??___fldiv+1,w
  5166     0366  00C7               	movwf	___fldiv@b+1
  5167     0367  084A               	movf	??___fldiv,w
  5168     0368  00C6               	movwf	___fldiv@b
  5169     0369                     l2426:
  5170     0369  3001               	movlw	1
  5171     036A  07D4               	addwf	___fldiv@new_exp,f
  5172     036B  3000               	movlw	0
  5173     036C  3DD5               	addwfc	___fldiv@new_exp+1,f
  5174     036D                     l2428:
  5175     036D  0855               	movf	___fldiv@new_exp+1,w
  5176     036E  3A80               	xorlw	128
  5177     036F  00CA               	movwf	??___fldiv
  5178     0370  3080               	movlw	128
  5179     0371  024A               	subwf	??___fldiv,w
  5180     0372  1D03               	skipz
  5181     0373  2B76               	goto	u2985
  5182     0374  30FF               	movlw	255
  5183     0375  0254               	subwf	___fldiv@new_exp,w
  5184     0376                     u2985:
  5185     0376  1C03               	skipc
  5186     0377  2B79               	goto	u2981
  5187     0378  2B7A               	goto	u2980
  5188     0379                     u2981:
  5189     0379  2B87               	goto	l674
  5190     037A                     u2980:
  5191     037A                     l2430:
  5192     037A  30FF               	movlw	255
  5193     037B  0020               	movlb	0	; select bank0
  5194     037C  00D4               	movwf	___fldiv@new_exp
  5195     037D  3000               	movlw	0
  5196     037E  00D5               	movwf	___fldiv@new_exp+1
  5197     037F  3000               	movlw	0
  5198     0380  00C9               	movwf	___fldiv@b+3
  5199     0381  3000               	movlw	0
  5200     0382  00C8               	movwf	___fldiv@b+2
  5201     0383  3000               	movlw	0
  5202     0384  00C7               	movwf	___fldiv@b+1
  5203     0385  3000               	movlw	0
  5204     0386  00C6               	movwf	___fldiv@b
  5205     0387                     l674:
  5206     0387  0020               	movlb	0	; select bank0
  5207     0388  0855               	movf	___fldiv@new_exp+1,w
  5208     0389  3A80               	xorlw	128
  5209     038A  00CA               	movwf	??___fldiv
  5210     038B  3080               	movlw	128
  5211     038C  024A               	subwf	??___fldiv,w
  5212     038D  1D03               	skipz
  5213     038E  2B91               	goto	u2995
  5214     038F  3001               	movlw	1
  5215     0390  0254               	subwf	___fldiv@new_exp,w
  5216     0391                     u2995:
  5217     0391  1803               	skipnc
  5218     0392  2B94               	goto	u2991
  5219     0393  2B95               	goto	u2990
  5220     0394                     u2991:
  5221     0394  2BA1               	goto	l675
  5222     0395                     u2990:
  5223     0395                     l2432:
  5224     0395  0020               	movlb	0	; select bank0
  5225     0396  01D4               	clrf	___fldiv@new_exp
  5226     0397  01D5               	clrf	___fldiv@new_exp+1
  5227     0398                     l2434:
  5228     0398  3000               	movlw	0
  5229     0399  00C9               	movwf	___fldiv@b+3
  5230     039A  3000               	movlw	0
  5231     039B  00C8               	movwf	___fldiv@b+2
  5232     039C  3000               	movlw	0
  5233     039D  00C7               	movwf	___fldiv@b+1
  5234     039E  3000               	movlw	0
  5235     039F  00C6               	movwf	___fldiv@b
  5236     03A0                     l2436:
  5237     03A0  01D3               	clrf	___fldiv@sign
  5238     03A1                     l675:
  5239     03A1  0020               	movlb	0	; select bank0
  5240     03A2  0854               	movf	___fldiv@new_exp,w
  5241     03A3  00DA               	movwf	___fldiv@bexp
  5242     03A4                     l2438:
  5243     03A4  1C5A               	btfss	___fldiv@bexp,0
  5244     03A5  2BA7               	goto	u3001
  5245     03A6  2BA8               	goto	u3000
  5246     03A7                     u3001:
  5247     03A7  2BAA               	goto	l2442
  5248     03A8                     u3000:
  5249     03A8                     l2440:
  5250     03A8  17C8               	bsf	___fldiv@b+2,7
  5251     03A9  2BAE               	goto	l677
  5252     03AA                     l2442:
  5253     03AA  307F               	movlw	127
  5254     03AB  00CA               	movwf	??___fldiv
  5255     03AC  084A               	movf	??___fldiv,w
  5256     03AD  05C8               	andwf	___fldiv@b+2,f
  5257     03AE                     l677:
  5258     03AE  365A               	lsrf	___fldiv@bexp,w
  5259     03AF  00C9               	movwf	___fldiv@b+3
  5260     03B0  0853               	movf	___fldiv@sign,w
  5261     03B1  00CA               	movwf	??___fldiv
  5262     03B2  084A               	movf	??___fldiv,w
  5263     03B3  04C9               	iorwf	___fldiv@b+3,f
  5264     03B4  2A75               	goto	l2352
  5265     03B5                     l655:
  5266     03B5  0008               	return
  5267     03B6                     __end_of___fldiv:
  5268                           
  5269                           	psect	text8
  5270     03B6                     __ptext8:	
  5271 ;; *************** function ___fladd *****************
  5272 ;; Defined at:
  5273 ;;		line 10 in file "C:\Program Files\Microchip\xc8\v2.45\pic\sources\c99\common\sprcadd.c"
  5274 ;; Parameters:    Size  Location     Type
  5275 ;;  b               4    0[COMMON] unsigned char 
  5276 ;;  a               4    4[COMMON] unsigned char 
  5277 ;; Auto vars:     Size  Location     Type
  5278 ;;  grs             1   11[COMMON] unsigned char 
  5279 ;;  bexp            1   10[COMMON] unsigned char 
  5280 ;;  aexp            1    9[COMMON] unsigned char 
  5281 ;;  signs           1    8[COMMON] unsigned char 
  5282 ;; Return value:  Size  Location     Type
  5283 ;;                  4    0[COMMON] unsigned char 
  5284 ;; Registers used:
  5285 ;;		wreg, status,2, status,0
  5286 ;; Tracked objects:
  5287 ;;		On entry : 0/0
  5288 ;;		On exit  : 0/0
  5289 ;;		Unchanged: 0/0
  5290 ;; Data sizes:     COMMON   BANK0   BANK1   BANK2   BANK3   BANK4   BANK5   BANK6   BANK7   BANK8   BANK9  BANK10  BANK1
      +1  BANK12  BANK13  BANK14  BANK15  BANK16  BANK17  BANK18  BANK19  BANK20  BANK21  BANK22  BANK23  BANK24  BANK25
  5291 ;;      Params:         8       0       0       0       0       0       0       0       0       0       0       0       
      +0       0       0       0       0       0       0       0       0       0       0       0       0       0       0
  5292 ;;      Locals:         4       0       0       0       0       0       0       0       0       0       0       0       
      +0       0       0       0       0       0       0       0       0       0       0       0       0       0       0
  5293 ;;      Temps:          0       8       0       0       0       0       0       0       0       0       0       0       
      +0       0       0       0       0       0       0       0       0       0       0       0       0       0       0
  5294 ;;      Totals:        12       8       0       0       0       0       0       0       0       0       0       0       
      +0       0       0       0       0       0       0       0       0       0       0       0       0       0       0
  5295 ;;Total ram usage:       20 bytes
  5296 ;; Hardware stack levels used: 1
  5297 ;; This function calls:
  5298 ;;		Nothing
  5299 ;; This function is called by:
  5300 ;;		_main
  5301 ;; This function uses a non-reentrant model
  5302 ;;
  5303                           
  5304     03B6                     ___fladd:	
  5305                           ;psect for function ___fladd
  5306                           
  5307     03B6                     l2114:	
  5308                           ;incstack = 0
  5309                           ; Regs used in ___fladd: [wreg+status,2+status,0]
  5310                           
  5311     03B6  0873               	movf	___fladd@b+3,w
  5312     03B7  3980               	andlw	128
  5313     03B8  00F8               	movwf	___fladd@signs
  5314     03B9                     l2116:
  5315     03B9  3573               	lslf	___fladd@b+3,w
  5316     03BA  00FA               	movwf	___fladd@bexp
  5317     03BB                     l2118:
  5318     03BB  1FF2               	btfss	___fladd@b+2,7
  5319     03BC  2BBE               	goto	u2291
  5320     03BD  2BBF               	goto	u2290
  5321     03BE                     u2291:
  5322     03BE  2BC0               	goto	l2122
  5323     03BF                     u2290:
  5324     03BF                     l2120:
  5325     03BF  147A               	bsf	___fladd@bexp,0
  5326     03C0                     l2122:
  5327     03C0  087A               	movf	___fladd@bexp,w
  5328     03C1  1903               	btfsc	3,2
  5329     03C2  2BC4               	goto	u2301
  5330     03C3  2BC5               	goto	u2300
  5331     03C4                     u2301:
  5332     03C4  2BD5               	goto	l2132
  5333     03C5                     u2300:
  5334     03C5                     l2124:
  5335     03C5  0A7A               	incf	___fladd@bexp,w
  5336     03C6  1D03               	btfss	3,2
  5337     03C7  2BC9               	goto	u2311
  5338     03C8  2BCA               	goto	u2310
  5339     03C9                     u2311:
  5340     03C9  2BD2               	goto	l2128
  5341     03CA                     u2310:
  5342     03CA                     l2126:
  5343     03CA  3000               	movlw	0
  5344     03CB  00F3               	movwf	___fladd@b+3
  5345     03CC  3000               	movlw	0
  5346     03CD  00F2               	movwf	___fladd@b+2
  5347     03CE  3000               	movlw	0
  5348     03CF  00F1               	movwf	___fladd@b+1
  5349     03D0  3000               	movlw	0
  5350     03D1  00F0               	movwf	___fladd@b
  5351     03D2                     l2128:
  5352     03D2  17F2               	bsf	___fladd@b+2,7
  5353     03D3                     l2130:
  5354     03D3  01F3               	clrf	___fladd@b+3
  5355     03D4  2BDD               	goto	l2134
  5356     03D5                     l2132:
  5357     03D5  3000               	movlw	0
  5358     03D6  00F3               	movwf	___fladd@b+3
  5359     03D7  3000               	movlw	0
  5360     03D8  00F2               	movwf	___fladd@b+2
  5361     03D9  3000               	movlw	0
  5362     03DA  00F1               	movwf	___fladd@b+1
  5363     03DB  3000               	movlw	0
  5364     03DC  00F0               	movwf	___fladd@b
  5365     03DD                     l2134:
  5366     03DD  0877               	movf	___fladd@a+3,w
  5367     03DE  3980               	andlw	128
  5368     03DF  00F9               	movwf	___fladd@aexp
  5369     03E0                     l2136:
  5370     03E0  0879               	movf	___fladd@aexp,w
  5371     03E1  0678               	xorwf	___fladd@signs,w
  5372     03E2  1903               	skipnz
  5373     03E3  2BE5               	goto	u2321
  5374     03E4  2BE6               	goto	u2320
  5375     03E5                     u2321:
  5376     03E5  2BE7               	goto	l2140
  5377     03E6                     u2320:
  5378     03E6                     l2138:
  5379     03E6  1778               	bsf	___fladd@signs,6
  5380     03E7                     l2140:
  5381     03E7  3577               	lslf	___fladd@a+3,w
  5382     03E8  00F9               	movwf	___fladd@aexp
  5383     03E9                     l2142:
  5384     03E9  1FF6               	btfss	___fladd@a+2,7
  5385     03EA  2BEC               	goto	u2331
  5386     03EB  2BED               	goto	u2330
  5387     03EC                     u2331:
  5388     03EC  2BEE               	goto	l2146
  5389     03ED                     u2330:
  5390     03ED                     l2144:
  5391     03ED  1479               	bsf	___fladd@aexp,0
  5392     03EE                     l2146:
  5393     03EE  0879               	movf	___fladd@aexp,w
  5394     03EF  1903               	btfsc	3,2
  5395     03F0  2BF2               	goto	u2341
  5396     03F1  2BF3               	goto	u2340
  5397     03F2                     u2341:
  5398     03F2  2C03               	goto	l2156
  5399     03F3                     u2340:
  5400     03F3                     l2148:
  5401     03F3  0A79               	incf	___fladd@aexp,w
  5402     03F4  1D03               	btfss	3,2
  5403     03F5  2BF7               	goto	u2351
  5404     03F6  2BF8               	goto	u2350
  5405     03F7                     u2351:
  5406     03F7  2C00               	goto	l2152
  5407     03F8                     u2350:
  5408     03F8                     l2150:
  5409     03F8  3000               	movlw	0
  5410     03F9  00F7               	movwf	___fladd@a+3
  5411     03FA  3000               	movlw	0
  5412     03FB  00F6               	movwf	___fladd@a+2
  5413     03FC  3000               	movlw	0
  5414     03FD  00F5               	movwf	___fladd@a+1
  5415     03FE  3000               	movlw	0
  5416     03FF  00F4               	movwf	___fladd@a
  5417     0400                     l2152:
  5418     0400  17F6               	bsf	___fladd@a+2,7
  5419     0401                     l2154:
  5420     0401  01F7               	clrf	___fladd@a+3
  5421     0402  2C0B               	goto	l597
  5422     0403                     l2156:
  5423     0403  3000               	movlw	0
  5424     0404  00F7               	movwf	___fladd@a+3
  5425     0405  3000               	movlw	0
  5426     0406  00F6               	movwf	___fladd@a+2
  5427     0407  3000               	movlw	0
  5428     0408  00F5               	movwf	___fladd@a+1
  5429     0409  3000               	movlw	0
  5430     040A  00F4               	movwf	___fladd@a
  5431     040B                     l597:
  5432     040B  087A               	movf	___fladd@bexp,w
  5433     040C  0279               	subwf	___fladd@aexp,w
  5434     040D  1803               	skipnc
  5435     040E  2C10               	goto	u2361
  5436     040F  2C11               	goto	u2360
  5437     0410                     u2361:
  5438     0410  2C38               	goto	l2192
  5439     0411                     u2360:
  5440     0411                     l2158:
  5441     0411  1F78               	btfss	___fladd@signs,6
  5442     0412  2C14               	goto	u2371
  5443     0413  2C15               	goto	u2370
  5444     0414                     u2371:
  5445     0414  2C1A               	goto	l2162
  5446     0415                     u2370:
  5447     0415                     l2160:
  5448     0415  3080               	movlw	128
  5449     0416  0020               	movlb	0	; select bank0
  5450     0417  00A0               	movwf	??___fladd
  5451     0418  0820               	movf	??___fladd,w
  5452     0419  06F8               	xorwf	___fladd@signs,f
  5453     041A                     l2162:
  5454     041A  087A               	movf	___fladd@bexp,w
  5455     041B  00FB               	movwf	___fladd@grs
  5456     041C                     l2164:
  5457     041C  0879               	movf	___fladd@aexp,w
  5458     041D  00FA               	movwf	___fladd@bexp
  5459     041E                     l2166:
  5460     041E  087B               	movf	___fladd@grs,w
  5461     041F  00F9               	movwf	___fladd@aexp
  5462     0420                     l2168:
  5463     0420  0870               	movf	___fladd@b,w
  5464     0421  00FB               	movwf	___fladd@grs
  5465     0422                     l2170:
  5466     0422  0874               	movf	___fladd@a,w
  5467     0423  00F0               	movwf	___fladd@b
  5468     0424                     l2172:
  5469     0424  087B               	movf	___fladd@grs,w
  5470     0425  00F4               	movwf	___fladd@a
  5471     0426                     l2174:
  5472     0426  0871               	movf	___fladd@b+1,w
  5473     0427  00FB               	movwf	___fladd@grs
  5474     0428                     l2176:
  5475     0428  0875               	movf	___fladd@a+1,w
  5476     0429  00F1               	movwf	___fladd@b+1
  5477     042A                     l2178:
  5478     042A  087B               	movf	___fladd@grs,w
  5479     042B  00F5               	movwf	___fladd@a+1
  5480     042C                     l2180:
  5481     042C  0872               	movf	___fladd@b+2,w
  5482     042D  00FB               	movwf	___fladd@grs
  5483     042E                     l2182:
  5484     042E  0876               	movf	___fladd@a+2,w
  5485     042F  00F2               	movwf	___fladd@b+2
  5486     0430                     l2184:
  5487     0430  087B               	movf	___fladd@grs,w
  5488     0431  00F6               	movwf	___fladd@a+2
  5489     0432                     l2186:
  5490     0432  0873               	movf	___fladd@b+3,w
  5491     0433  00FB               	movwf	___fladd@grs
  5492     0434                     l2188:
  5493     0434  0877               	movf	___fladd@a+3,w
  5494     0435  00F3               	movwf	___fladd@b+3
  5495     0436                     l2190:
  5496     0436  087B               	movf	___fladd@grs,w
  5497     0437  00F7               	movwf	___fladd@a+3
  5498     0438                     l2192:
  5499     0438  01FB               	clrf	___fladd@grs
  5500     0439                     l2194:
  5501     0439  0879               	movf	___fladd@aexp,w
  5502     043A  0020               	movlb	0	; select bank0
  5503     043B  00A0               	movwf	??___fladd
  5504     043C  01A1               	clrf	??___fladd+1
  5505     043D  0821               	movf	??___fladd+1,w
  5506     043E  00A3               	movwf	??___fladd+3
  5507     043F  087A               	movf	___fladd@bexp,w
  5508     0440  0220               	subwf	??___fladd,w
  5509     0441  00A2               	movwf	??___fladd+2
  5510     0442  1C03               	skipc
  5511     0443  03A3               	decf	??___fladd+3,f
  5512     0444  0823               	movf	??___fladd+3,w
  5513     0445  3A80               	xorlw	128
  5514     0446  00A4               	movwf	??___fladd+4
  5515     0447  3080               	movlw	128
  5516     0448  0224               	subwf	??___fladd+4,w
  5517     0449  1D03               	skipz
  5518     044A  2C4D               	goto	u2385
  5519     044B  301A               	movlw	26
  5520     044C  0222               	subwf	??___fladd+2,w
  5521     044D                     u2385:
  5522     044D  1C03               	skipc
  5523     044E  2C50               	goto	u2381
  5524     044F  2C51               	goto	u2380
  5525     0450                     u2381:
  5526     0450  2C83               	goto	l2210
  5527     0451                     u2380:
  5528     0451                     l2196:
  5529     0451  0873               	movf	___fladd@b+3,w
  5530     0452  0472               	iorwf	___fladd@b+2,w
  5531     0453  0471               	iorwf	___fladd@b+1,w
  5532     0454  0470               	iorwf	___fladd@b,w
  5533     0455  1D03               	skipz
  5534     0456  2C58               	goto	u2391
  5535     0457  2C5A               	goto	u2390
  5536     0458                     u2391:
  5537     0458  3001               	movlw	1
  5538     0459  2C5B               	goto	u2400
  5539     045A                     u2390:
  5540     045A  3000               	movlw	0
  5541     045B                     u2400:
  5542     045B  00FB               	movwf	___fladd@grs
  5543     045C  3000               	movlw	0
  5544     045D  00F3               	movwf	___fladd@b+3
  5545     045E  3000               	movlw	0
  5546     045F  00F2               	movwf	___fladd@b+2
  5547     0460  3000               	movlw	0
  5548     0461  00F1               	movwf	___fladd@b+1
  5549     0462  3000               	movlw	0
  5550     0463  00F0               	movwf	___fladd@b
  5551     0464  0879               	movf	___fladd@aexp,w
  5552     0465  00FA               	movwf	___fladd@bexp
  5553     0466  2C89               	goto	l601
  5554     0467                     l603:
  5555     0467  1C7B               	btfss	___fladd@grs,0
  5556     0468  2C6A               	goto	u2411
  5557     0469  2C6B               	goto	u2410
  5558     046A                     u2411:
  5559     046A  2C6F               	goto	l2200
  5560     046B                     u2410:
  5561     046B                     l2198:
  5562     046B  367B               	lsrf	___fladd@grs,w
  5563     046C  3801               	iorlw	1
  5564     046D  00FB               	movwf	___fladd@grs
  5565     046E  2C71               	goto	l2202
  5566     046F                     l2200:
  5567     046F  1003               	clrc
  5568     0470  0CFB               	rrf	___fladd@grs,f
  5569     0471                     l2202:
  5570     0471  1C70               	btfss	___fladd@b,0
  5571     0472  2C74               	goto	u2421
  5572     0473  2C75               	goto	u2420
  5573     0474                     u2421:
  5574     0474  2C76               	goto	l2206
  5575     0475                     u2420:
  5576     0475                     l2204:
  5577     0475  17FB               	bsf	___fladd@grs,7
  5578     0476                     l2206:
  5579     0476  3001               	movlw	1
  5580     0477  0020               	movlb	0	; select bank0
  5581     0478  00A0               	movwf	??___fladd
  5582     0479                     u2435:
  5583     0479  37F3               	asrf	___fladd@b+3,f
  5584     047A  0CF2               	rrf	___fladd@b+2,f
  5585     047B  0CF1               	rrf	___fladd@b+1,f
  5586     047C  0CF0               	rrf	___fladd@b,f
  5587     047D  0BA0               	decfsz	??___fladd& (0+127),f
  5588     047E  2C79               	goto	u2435
  5589     047F                     l2208:
  5590     047F  3001               	movlw	1
  5591     0480  00A0               	movwf	??___fladd
  5592     0481  0820               	movf	??___fladd,w
  5593     0482  07FA               	addwf	___fladd@bexp,f
  5594     0483                     l2210:
  5595     0483  0879               	movf	___fladd@aexp,w
  5596     0484  027A               	subwf	___fladd@bexp,w
  5597     0485  1C03               	skipc
  5598     0486  2C88               	goto	u2441
  5599     0487  2C89               	goto	u2440
  5600     0488                     u2441:
  5601     0488  2C67               	goto	l603
  5602     0489                     u2440:
  5603     0489                     l601:
  5604     0489  1B78               	btfsc	___fladd@signs,6
  5605     048A  2C8C               	goto	u2451
  5606     048B  2C8D               	goto	u2450
  5607     048C                     u2451:
  5608     048C  2CC4               	goto	l2236
  5609     048D                     u2450:
  5610     048D                     l2212:
  5611     048D  087A               	movf	___fladd@bexp,w
  5612     048E  1D03               	btfss	3,2
  5613     048F  2C91               	goto	u2461
  5614     0490  2C92               	goto	u2460
  5615     0491                     u2461:
  5616     0491  2C9B               	goto	l2218
  5617     0492                     u2460:
  5618     0492                     l2214:
  5619     0492  3000               	movlw	0
  5620     0493  00F3               	movwf	?___fladd+3
  5621     0494  3000               	movlw	0
  5622     0495  00F2               	movwf	?___fladd+2
  5623     0496  3000               	movlw	0
  5624     0497  00F1               	movwf	?___fladd+1
  5625     0498  3000               	movlw	0
  5626     0499  00F0               	movwf	?___fladd
  5627     049A  2DC1               	goto	l610
  5628     049B                     l2218:
  5629     049B  0874               	movf	___fladd@a,w
  5630     049C  07F0               	addwf	___fladd@b,f
  5631     049D  0875               	movf	___fladd@a+1,w
  5632     049E  3DF1               	addwfc	___fladd@b+1,f
  5633     049F  0876               	movf	___fladd@a+2,w
  5634     04A0  3DF2               	addwfc	___fladd@b+2,f
  5635     04A1  0877               	movf	___fladd@a+3,w
  5636     04A2  3DF3               	addwfc	___fladd@b+3,f
  5637     04A3                     l2220:
  5638     04A3  1C73               	btfss	___fladd@b+3,0
  5639     04A4  2CA6               	goto	u2471
  5640     04A5  2CA7               	goto	u2470
  5641     04A6                     u2471:
  5642     04A6  2D51               	goto	l2270
  5643     04A7                     u2470:
  5644     04A7                     l2222:
  5645     04A7  1C7B               	btfss	___fladd@grs,0
  5646     04A8  2CAA               	goto	u2481
  5647     04A9  2CAB               	goto	u2480
  5648     04AA                     u2481:
  5649     04AA  2CAF               	goto	l2226
  5650     04AB                     u2480:
  5651     04AB                     l2224:
  5652     04AB  367B               	lsrf	___fladd@grs,w
  5653     04AC  3801               	iorlw	1
  5654     04AD  00FB               	movwf	___fladd@grs
  5655     04AE  2CB1               	goto	l2228
  5656     04AF                     l2226:
  5657     04AF  1003               	clrc
  5658     04B0  0CFB               	rrf	___fladd@grs,f
  5659     04B1                     l2228:
  5660     04B1  1C70               	btfss	___fladd@b,0
  5661     04B2  2CB4               	goto	u2491
  5662     04B3  2CB5               	goto	u2490
  5663     04B4                     u2491:
  5664     04B4  2CB6               	goto	l2232
  5665     04B5                     u2490:
  5666     04B5                     l2230:
  5667     04B5  17FB               	bsf	___fladd@grs,7
  5668     04B6                     l2232:
  5669     04B6  3001               	movlw	1
  5670     04B7  0020               	movlb	0	; select bank0
  5671     04B8  00A0               	movwf	??___fladd
  5672     04B9                     u2505:
  5673     04B9  37F3               	asrf	___fladd@b+3,f
  5674     04BA  0CF2               	rrf	___fladd@b+2,f
  5675     04BB  0CF1               	rrf	___fladd@b+1,f
  5676     04BC  0CF0               	rrf	___fladd@b,f
  5677     04BD  0BA0               	decfsz	??___fladd& (0+127),f
  5678     04BE  2CB9               	goto	u2505
  5679     04BF                     l2234:
  5680     04BF  3001               	movlw	1
  5681     04C0  00A0               	movwf	??___fladd
  5682     04C1  0820               	movf	??___fladd,w
  5683     04C2  07FA               	addwf	___fladd@bexp,f
  5684     04C3  2D51               	goto	l2270
  5685     04C4                     l2236:
  5686     04C4  0873               	movf	___fladd@b+3,w
  5687     04C5  3A80               	xorlw	128
  5688     04C6  0020               	movlb	0	; select bank0
  5689     04C7  00A0               	movwf	??___fladd
  5690     04C8  0877               	movf	___fladd@a+3,w
  5691     04C9  3A80               	xorlw	128
  5692     04CA  0220               	subwf	??___fladd,w
  5693     04CB  1D03               	skipz
  5694     04CC  2CD7               	goto	u2513
  5695     04CD  0876               	movf	___fladd@a+2,w
  5696     04CE  0272               	subwf	___fladd@b+2,w
  5697     04CF  1D03               	skipz
  5698     04D0  2CD7               	goto	u2513
  5699     04D1  0875               	movf	___fladd@a+1,w
  5700     04D2  0271               	subwf	___fladd@b+1,w
  5701     04D3  1D03               	skipz
  5702     04D4  2CD7               	goto	u2513
  5703     04D5  0874               	movf	___fladd@a,w
  5704     04D6  0270               	subwf	___fladd@b,w
  5705     04D7                     u2513:
  5706     04D7  1803               	skipnc
  5707     04D8  2CDA               	goto	u2511
  5708     04D9  2CDB               	goto	u2510
  5709     04DA                     u2511:
  5710     04DA  2D13               	goto	l2246
  5711     04DB                     u2510:
  5712     04DB                     l2238:
  5713     04DB  30FF               	movlw	255
  5714     04DC  00A0               	movwf	??___fladd
  5715     04DD  30FF               	movlw	255
  5716     04DE  00A1               	movwf	??___fladd+1
  5717     04DF  30FF               	movlw	255
  5718     04E0  00A2               	movwf	??___fladd+2
  5719     04E1  30FF               	movlw	255
  5720     04E2  00A3               	movwf	??___fladd+3
  5721     04E3  0870               	movf	___fladd@b,w
  5722     04E4  0274               	subwf	___fladd@a,w
  5723     04E5  00A4               	movwf	??___fladd+4
  5724     04E6  0871               	movf	___fladd@b+1,w
  5725     04E7  3B75               	subwfb	___fladd@a+1,w
  5726     04E8  00A5               	movwf	??___fladd+5
  5727     04E9  0872               	movf	___fladd@b+2,w
  5728     04EA  3B76               	subwfb	___fladd@a+2,w
  5729     04EB  00A6               	movwf	??___fladd+6
  5730     04EC  0873               	movf	___fladd@b+3,w
  5731     04ED  3B77               	subwfb	___fladd@a+3,w
  5732     04EE  00A7               	movwf	??___fladd+7
  5733     04EF  0824               	movf	??___fladd+4,w
  5734     04F0  07A0               	addwf	??___fladd,f
  5735     04F1  0825               	movf	??___fladd+5,w
  5736     04F2  3DA1               	addwfc	??___fladd+1,f
  5737     04F3  0826               	movf	??___fladd+6,w
  5738     04F4  3DA2               	addwfc	??___fladd+2,f
  5739     04F5  0827               	movf	??___fladd+7,w
  5740     04F6  3DA3               	addwfc	??___fladd+3,f
  5741     04F7  0823               	movf	??___fladd+3,w
  5742     04F8  00F3               	movwf	___fladd@b+3
  5743     04F9  0822               	movf	??___fladd+2,w
  5744     04FA  00F2               	movwf	___fladd@b+2
  5745     04FB  0821               	movf	??___fladd+1,w
  5746     04FC  00F1               	movwf	___fladd@b+1
  5747     04FD  0820               	movf	??___fladd,w
  5748     04FE  00F0               	movwf	___fladd@b
  5749     04FF                     l2240:
  5750     04FF  3080               	movlw	128
  5751     0500  00A0               	movwf	??___fladd
  5752     0501  0820               	movf	??___fladd,w
  5753     0502  06F8               	xorwf	___fladd@signs,f
  5754     0503  09FB               	comf	___fladd@grs,f
  5755     0504  0AFB               	incf	___fladd@grs,f
  5756     0505                     l2242:
  5757     0505  087B               	movf	___fladd@grs,w
  5758     0506  1D03               	btfss	3,2
  5759     0507  2D09               	goto	u2521
  5760     0508  2D0A               	goto	u2520
  5761     0509                     u2521:
  5762     0509  2D1B               	goto	l618
  5763     050A                     u2520:
  5764     050A                     l2244:
  5765     050A  3001               	movlw	1
  5766     050B  07F0               	addwf	___fladd@b,f
  5767     050C  3000               	movlw	0
  5768     050D  3DF1               	addwfc	___fladd@b+1,f
  5769     050E  3000               	movlw	0
  5770     050F  3DF2               	addwfc	___fladd@b+2,f
  5771     0510  3000               	movlw	0
  5772     0511  3DF3               	addwfc	___fladd@b+3,f
  5773     0512  2D1B               	goto	l618
  5774     0513                     l2246:
  5775     0513  0874               	movf	___fladd@a,w
  5776     0514  02F0               	subwf	___fladd@b,f
  5777     0515  0875               	movf	___fladd@a+1,w
  5778     0516  3BF1               	subwfb	___fladd@b+1,f
  5779     0517  0876               	movf	___fladd@a+2,w
  5780     0518  3BF2               	subwfb	___fladd@b+2,f
  5781     0519  0877               	movf	___fladd@a+3,w
  5782     051A  3BF3               	subwfb	___fladd@b+3,f
  5783     051B                     l618:
  5784     051B  0873               	movf	___fladd@b+3,w
  5785     051C  0472               	iorwf	___fladd@b+2,w
  5786     051D  0471               	iorwf	___fladd@b+1,w
  5787     051E  0470               	iorwf	___fladd@b,w
  5788     051F  1D03               	skipz
  5789     0520  2D22               	goto	u2531
  5790     0521  2D23               	goto	u2530
  5791     0522                     u2531:
  5792     0522  2D4D               	goto	l2268
  5793     0523                     u2530:
  5794     0523                     l2248:
  5795     0523  087B               	movf	___fladd@grs,w
  5796     0524  1D03               	btfss	3,2
  5797     0525  2D27               	goto	u2541
  5798     0526  2D28               	goto	u2540
  5799     0527                     u2541:
  5800     0527  2D4D               	goto	l2268
  5801     0528                     u2540:
  5802     0528                     l2250:
  5803     0528  3000               	movlw	0
  5804     0529  00F3               	movwf	?___fladd+3
  5805     052A  3000               	movlw	0
  5806     052B  00F2               	movwf	?___fladd+2
  5807     052C  3000               	movlw	0
  5808     052D  00F1               	movwf	?___fladd+1
  5809     052E  3000               	movlw	0
  5810     052F  00F0               	movwf	?___fladd
  5811     0530  2DC1               	goto	l610
  5812     0531                     l2254:
  5813     0531  3001               	movlw	1
  5814     0532                     u2555:
  5815     0532  35F0               	lslf	___fladd@b,f
  5816     0533  0DF1               	rlf	___fladd@b+1,f
  5817     0534  0DF2               	rlf	___fladd@b+2,f
  5818     0535  0DF3               	rlf	___fladd@b+3,f
  5819     0536  0B89               	decfsz	9,f
  5820     0537  2D32               	goto	u2555
  5821     0538                     l2256:
  5822     0538  1FFB               	btfss	___fladd@grs,7
  5823     0539  2D3B               	goto	u2561
  5824     053A  2D3C               	goto	u2560
  5825     053B                     u2561:
  5826     053B  2D3D               	goto	l622
  5827     053C                     u2560:
  5828     053C                     l2258:
  5829     053C  1470               	bsf	___fladd@b,0
  5830     053D                     l622:
  5831     053D  1C7B               	btfss	___fladd@grs,0
  5832     053E  2D40               	goto	u2571
  5833     053F  2D41               	goto	u2570
  5834     0540                     u2571:
  5835     0540  2D44               	goto	l2262
  5836     0541                     u2570:
  5837     0541                     l2260:
  5838     0541  1403               	setc
  5839     0542  0DFB               	rlf	___fladd@grs,f
  5840     0543  2D46               	goto	l2264
  5841     0544                     l2262:
  5842     0544  1003               	clrc
  5843     0545  0DFB               	rlf	___fladd@grs,f
  5844     0546                     l2264:
  5845     0546  087A               	movf	___fladd@bexp,w
  5846     0547  1903               	btfsc	3,2
  5847     0548  2D4A               	goto	u2581
  5848     0549  2D4B               	goto	u2580
  5849     054A                     u2581:
  5850     054A  2D4D               	goto	l2268
  5851     054B                     u2580:
  5852     054B                     l2266:
  5853     054B  3001               	movlw	1
  5854     054C  02FA               	subwf	___fladd@bexp,f
  5855     054D                     l2268:
  5856     054D  1FF2               	btfss	___fladd@b+2,7
  5857     054E  2D50               	goto	u2591
  5858     054F  2D51               	goto	u2590
  5859     0550                     u2591:
  5860     0550  2D31               	goto	l2254
  5861     0551                     u2590:
  5862     0551                     l2270:
  5863     0551  01F9               	clrf	___fladd@aexp
  5864     0552                     l2272:
  5865     0552  1FFB               	btfss	___fladd@grs,7
  5866     0553  2D55               	goto	u2601
  5867     0554  2D56               	goto	u2600
  5868     0555                     u2601:
  5869     0555  2D64               	goto	l2280
  5870     0556                     u2600:
  5871     0556                     l2274:
  5872     0556  087B               	movf	___fladd@grs,w
  5873     0557  397F               	andlw	127
  5874     0558  1903               	btfsc	3,2
  5875     0559  2D5B               	goto	u2611
  5876     055A  2D5C               	goto	u2610
  5877     055B                     u2611:
  5878     055B  2D5F               	goto	l628
  5879     055C                     u2610:
  5880     055C                     l2276:
  5881     055C  01F9               	clrf	___fladd@aexp
  5882     055D  0AF9               	incf	___fladd@aexp,f
  5883     055E  2D64               	goto	l2280
  5884     055F                     l628:
  5885     055F  1C70               	btfss	___fladd@b,0
  5886     0560  2D62               	goto	u2621
  5887     0561  2D63               	goto	u2620
  5888     0562                     u2621:
  5889     0562  2D64               	goto	l2280
  5890     0563                     u2620:
  5891     0563  2D5C               	goto	l2276
  5892     0564                     l2280:
  5893     0564  0879               	movf	___fladd@aexp,w
  5894     0565  1903               	btfsc	3,2
  5895     0566  2D68               	goto	u2631
  5896     0567  2D69               	goto	u2630
  5897     0568                     u2631:
  5898     0568  2D97               	goto	l631
  5899     0569                     u2630:
  5900     0569                     l2282:
  5901     0569  3001               	movlw	1
  5902     056A  07F0               	addwf	___fladd@b,f
  5903     056B  3000               	movlw	0
  5904     056C  3DF1               	addwfc	___fladd@b+1,f
  5905     056D  3000               	movlw	0
  5906     056E  3DF2               	addwfc	___fladd@b+2,f
  5907     056F  3000               	movlw	0
  5908     0570  3DF3               	addwfc	___fladd@b+3,f
  5909     0571                     l2284:
  5910     0571  1C73               	btfss	___fladd@b+3,0
  5911     0572  2D74               	goto	u2641
  5912     0573  2D75               	goto	u2640
  5913     0574                     u2641:
  5914     0574  2D97               	goto	l631
  5915     0575                     u2640:
  5916     0575                     l2286:
  5917     0575  0870               	movf	___fladd@b,w
  5918     0576  0020               	movlb	0	; select bank0
  5919     0577  00A0               	movwf	??___fladd
  5920     0578  0871               	movf	___fladd@b+1,w
  5921     0579  00A1               	movwf	??___fladd+1
  5922     057A  0872               	movf	___fladd@b+2,w
  5923     057B  00A2               	movwf	??___fladd+2
  5924     057C  0873               	movf	___fladd@b+3,w
  5925     057D  00A3               	movwf	??___fladd+3
  5926     057E  3001               	movlw	1
  5927     057F  00A4               	movwf	??___fladd+4
  5928     0580                     u2655:
  5929     0580  37A3               	asrf	??___fladd+3,f
  5930     0581  0CA2               	rrf	??___fladd+2,f
  5931     0582  0CA1               	rrf	??___fladd+1,f
  5932     0583  0CA0               	rrf	??___fladd,f
  5933     0584                     u2650:
  5934     0584  0BA4               	decfsz	??___fladd+4,f
  5935     0585  2D80               	goto	u2655
  5936     0586  0823               	movf	??___fladd+3,w
  5937     0587  00F3               	movwf	___fladd@b+3
  5938     0588  0822               	movf	??___fladd+2,w
  5939     0589  00F2               	movwf	___fladd@b+2
  5940     058A  0821               	movf	??___fladd+1,w
  5941     058B  00F1               	movwf	___fladd@b+1
  5942     058C  0820               	movf	??___fladd,w
  5943     058D  00F0               	movwf	___fladd@b
  5944     058E  0A7A               	incf	___fladd@bexp,w
  5945     058F  1903               	btfsc	3,2
  5946     0590  2D92               	goto	u2661
  5947     0591  2D93               	goto	u2660
  5948     0592                     u2661:
  5949     0592  2D97               	goto	l631
  5950     0593                     u2660:
  5951     0593                     l2288:
  5952     0593  3001               	movlw	1
  5953     0594  00A0               	movwf	??___fladd
  5954     0595  0820               	movf	??___fladd,w
  5955     0596  07FA               	addwf	___fladd@bexp,f
  5956     0597                     l631:
  5957     0597  0A7A               	incf	___fladd@bexp,w
  5958     0598  1903               	btfsc	3,2
  5959     0599  2D9B               	goto	u2671
  5960     059A  2D9C               	goto	u2670
  5961     059B                     u2671:
  5962     059B  2DA1               	goto	l2292
  5963     059C                     u2670:
  5964     059C                     l2290:
  5965     059C  087A               	movf	___fladd@bexp,w
  5966     059D  1D03               	btfss	3,2
  5967     059E  2DA0               	goto	u2681
  5968     059F  2DA1               	goto	u2680
  5969     05A0                     u2681:
  5970     05A0  2DAF               	goto	l2298
  5971     05A1                     u2680:
  5972     05A1                     l2292:
  5973     05A1  3000               	movlw	0
  5974     05A2  00F3               	movwf	___fladd@b+3
  5975     05A3  3000               	movlw	0
  5976     05A4  00F2               	movwf	___fladd@b+2
  5977     05A5  3000               	movlw	0
  5978     05A6  00F1               	movwf	___fladd@b+1
  5979     05A7  3000               	movlw	0
  5980     05A8  00F0               	movwf	___fladd@b
  5981     05A9                     l2294:
  5982     05A9  087A               	movf	___fladd@bexp,w
  5983     05AA  1D03               	btfss	3,2
  5984     05AB  2DAD               	goto	u2691
  5985     05AC  2DAE               	goto	u2690
  5986     05AD                     u2691:
  5987     05AD  2DAF               	goto	l2298
  5988     05AE                     u2690:
  5989     05AE                     l2296:
  5990     05AE  01F8               	clrf	___fladd@signs
  5991     05AF                     l2298:
  5992     05AF  1C7A               	btfss	___fladd@bexp,0
  5993     05B0  2DB2               	goto	u2701
  5994     05B1  2DB3               	goto	u2700
  5995     05B2                     u2701:
  5996     05B2  2DB5               	goto	l2302
  5997     05B3                     u2700:
  5998     05B3                     l2300:
  5999     05B3  17F2               	bsf	___fladd@b+2,7
  6000     05B4  2DBA               	goto	l639
  6001     05B5                     l2302:
  6002     05B5  307F               	movlw	127
  6003     05B6  0020               	movlb	0	; select bank0
  6004     05B7  00A0               	movwf	??___fladd
  6005     05B8  0820               	movf	??___fladd,w
  6006     05B9  05F2               	andwf	___fladd@b+2,f
  6007     05BA                     l639:
  6008     05BA  367A               	lsrf	___fladd@bexp,w
  6009     05BB  00F3               	movwf	___fladd@b+3
  6010     05BC                     l2304:
  6011     05BC  1FF8               	btfss	___fladd@signs,7
  6012     05BD  2DBF               	goto	u2711
  6013     05BE  2DC0               	goto	u2710
  6014     05BF                     u2711:
  6015     05BF  2DC1               	goto	l640
  6016     05C0                     u2710:
  6017     05C0                     l2306:
  6018     05C0  17F3               	bsf	___fladd@b+3,7
  6019     05C1                     l640:
  6020     05C1                     l610:
  6021     05C1  0008               	return
  6022     05C2                     __end_of___fladd:
  6023                           
  6024                           	psect	text9
  6025     0BD3                     __ptext9:	
  6026 ;; *************** function _OLED_Write_Integer *****************
  6027 ;; Defined at:
  6028 ;;		line 337 in file "oled.c"
  6029 ;; Parameters:    Size  Location     Type
  6030 ;;  i               1    wreg     unsigned char 
  6031 ;; Auto vars:     Size  Location     Type
  6032 ;;  i               1   41[BANK0 ] unsigned char 
  6033 ;;  buffer         20   21[BANK0 ] unsigned char [20]
  6034 ;;  ptr             1   42[BANK0 ] PTR unsigned char 
  6035 ;;		 -> OLED_Write_Integer@buffer(20), 
  6036 ;; Return value:  Size  Location     Type
  6037 ;;                  1    wreg      void 
  6038 ;; Registers used:
  6039 ;;		wreg, fsr0l, fsr0h, fsr1l, fsr1h, status,2, status,0, pclath, cstack
  6040 ;; Tracked objects:
  6041 ;;		On entry : 0/0
  6042 ;;		On exit  : 0/0
  6043 ;;		Unchanged: 0/0
  6044 ;; Data sizes:     COMMON   BANK0   BANK1   BANK2   BANK3   BANK4   BANK5   BANK6   BANK7   BANK8   BANK9  BANK10  BANK1
      +1  BANK12  BANK13  BANK14  BANK15  BANK16  BANK17  BANK18  BANK19  BANK20  BANK21  BANK22  BANK23  BANK24  BANK25
  6045 ;;      Params:         0       0       0       0       0       0       0       0       0       0       0       0       
      +0       0       0       0       0       0       0       0       0       0       0       0       0       0       0
  6046 ;;      Locals:         0      22       0       0       0       0       0       0       0       0       0       0       
      +0       0       0       0       0       0       0       0       0       0       0       0       0       0       0
  6047 ;;      Temps:          0       2       0       0       0       0       0       0       0       0       0       0       
      +0       0       0       0       0       0       0       0       0       0       0       0       0       0       0
  6048 ;;      Totals:         0      24       0       0       0       0       0       0       0       0       0       0       
      +0       0       0       0       0       0       0       0       0       0       0       0       0       0       0
  6049 ;;Total ram usage:       24 bytes
  6050 ;; Hardware stack levels used: 1
  6051 ;; Hardware stack levels required when called: 3
  6052 ;; This function calls:
  6053 ;;		_OLED_Write_String
  6054 ;;		_cusitoa
  6055 ;; This function is called by:
  6056 ;;		_main
  6057 ;; This function uses a non-reentrant model
  6058 ;;
  6059                           
  6060     0BD3                     _OLED_Write_Integer:	
  6061                           ;psect for function _OLED_Write_Integer
  6062                           
  6063                           
  6064                           ;incstack = 0
  6065                           ; Regs used in _OLED_Write_Integer: [wreg-fsr1h+status,2+status,0+pclath+cstack]
  6066                           ;OLED_Write_Integer@i stored from wreg
  6067     0BD3  0020               	movlb	0	; select bank0
  6068     0BD4  00C9               	movwf	OLED_Write_Integer@i
  6069     0BD5                     l1996:
  6070                           
  6071                           ;oled.c: 337: void OLED_Write_Integer(uint8_t i);oled.c: 338: {;oled.c: 339:     char bu
      +                          ffer[20];;oled.c: 340:     char *ptr = buffer;
  6072     0BD5  3035               	movlw	(low (OLED_Write_Integer@buffer| 0))& (0+255)
  6073     0BD6  00CA               	movwf	OLED_Write_Integer@ptr
  6074     0BD7                     l1998:
  6075                           
  6076                           ;oled.c: 342:     cusitoa(&ptr, i);
  6077     0BD7  0849               	movf	OLED_Write_Integer@i,w
  6078     0BD8  00B3               	movwf	??_OLED_Write_Integer
  6079     0BD9  01B4               	clrf	??_OLED_Write_Integer+1
  6080     0BDA  0833               	movf	??_OLED_Write_Integer,w
  6081     0BDB  00F9               	movwf	cusitoa@d
  6082     0BDC  0834               	movf	??_OLED_Write_Integer+1,w
  6083     0BDD  00FA               	movwf	cusitoa@d+1
  6084     0BDE  304A               	movlw	(low (OLED_Write_Integer@ptr| 0))& (0+255)
  6085     0BDF  318E  26BD  318B   	fcall	_cusitoa
  6086     0BE2                     l2000:
  6087                           
  6088                           ;oled.c: 344:      OLED_Write_String(i);
  6089     0BE2  0020               	movlb	0	; select bank0
  6090     0BE3  0849               	movf	OLED_Write_Integer@i,w
  6091     0BE4  00B3               	movwf	??_OLED_Write_Integer
  6092     0BE5  01B4               	clrf	??_OLED_Write_Integer+1
  6093     0BE6  0833               	movf	??_OLED_Write_Integer,w
  6094     0BE7  00FC               	movwf	OLED_Write_String@s
  6095     0BE8  0834               	movf	??_OLED_Write_Integer+1,w
  6096     0BE9  00FD               	movwf	OLED_Write_String@s+1
  6097     0BEA  3180  2006  318B   	fcall	_OLED_Write_String
  6098     0BED                     l2002:
  6099                           
  6100                           ;oled.c: 345:      OLED_Write_String( "     " );
  6101     0BED  3008               	movlw	low (STR_1| (0+32768))
  6102     0BEE  00FC               	movwf	OLED_Write_String@s
  6103     0BEF  3090               	movlw	high (STR_1| (0+32768))
  6104     0BF0  00FD               	movwf	OLED_Write_String@s+1
  6105     0BF1  3180  2006  318B   	fcall	_OLED_Write_String
  6106     0BF4                     l113:
  6107     0BF4  0008               	return
  6108     0BF5                     __end_of_OLED_Write_Integer:
  6109                           
  6110                           	psect	text10
  6111     0EBD                     __ptext10:	
  6112 ;; *************** function _cusitoa *****************
  6113 ;; Defined at:
  6114 ;;		line 301 in file "oled.c"
  6115 ;; Parameters:    Size  Location     Type
  6116 ;;  buf             1    wreg     PTR PTR unsigned char 
  6117 ;;		 -> OLED_Write_Integer@ptr(1), 
  6118 ;;  d               2    9[COMMON] int 
  6119 ;; Auto vars:     Size  Location     Type
  6120 ;;  buf             1    4[BANK0 ] PTR PTR unsigned char 
  6121 ;;		 -> OLED_Write_Integer@ptr(1), 
  6122 ;;  num             2    0[BANK0 ] int 
  6123 ;;  div             2    5[BANK0 ] int 
  6124 ;;  temp            2    2[BANK0 ] int 
  6125 ;; Return value:  Size  Location     Type
  6126 ;;                  1    wreg      void 
  6127 ;; Registers used:
  6128 ;;		wreg, fsr0l, fsr0h, fsr1l, fsr1h, status,2, status,0, pclath, cstack
  6129 ;; Tracked objects:
  6130 ;;		On entry : 0/0
  6131 ;;		On exit  : 0/0
  6132 ;;		Unchanged: 0/0
  6133 ;; Data sizes:     COMMON   BANK0   BANK1   BANK2   BANK3   BANK4   BANK5   BANK6   BANK7   BANK8   BANK9  BANK10  BANK1
      +1  BANK12  BANK13  BANK14  BANK15  BANK16  BANK17  BANK18  BANK19  BANK20  BANK21  BANK22  BANK23  BANK24  BANK25
  6134 ;;      Params:         2       0       0       0       0       0       0       0       0       0       0       0       
      +0       0       0       0       0       0       0       0       0       0       0       0       0       0       0
  6135 ;;      Locals:         0       7       0       0       0       0       0       0       0       0       0       0       
      +0       0       0       0       0       0       0       0       0       0       0       0       0       0       0
  6136 ;;      Temps:          0       0       0       0       0       0       0       0       0       0       0       0       
      +0       0       0       0       0       0       0       0       0       0       0       0       0       0       0
  6137 ;;      Totals:         2       7       0       0       0       0       0       0       0       0       0       0       
      +0       0       0       0       0       0       0       0       0       0       0       0       0       0       0
  6138 ;;Total ram usage:        9 bytes
  6139 ;; Hardware stack levels used: 1
  6140 ;; Hardware stack levels required when called: 1
  6141 ;; This function calls:
  6142 ;;		___awdiv
  6143 ;;		___awmod
  6144 ;;		___wmul
  6145 ;; This function is called by:
  6146 ;;		_OLED_Write_Integer
  6147 ;; This function uses a non-reentrant model
  6148 ;;
  6149                           
  6150     0EBD                     _cusitoa:	
  6151                           ;psect for function _cusitoa
  6152                           
  6153                           
  6154                           ;incstack = 0
  6155                           ; Regs used in _cusitoa: [wreg-fsr1h+status,2+status,0+pclath+cstack]
  6156                           ;cusitoa@buf stored from wreg
  6157     0EBD  0020               	movlb	0	; select bank0
  6158     0EBE  00A4               	movwf	cusitoa@buf
  6159     0EBF                     l1930:
  6160                           
  6161                           ;oled.c: 301: void cusitoa(char **buf, int d);oled.c: 302: {;oled.c: 303:     int div = 
      +                          1;
  6162     0EBF  3001               	movlw	1
  6163     0EC0  00A5               	movwf	cusitoa@div
  6164     0EC1  3000               	movlw	0
  6165     0EC2  00A6               	movwf	cusitoa@div+1
  6166                           
  6167                           ;oled.c: 304:     if (d < 0)
  6168     0EC3  1FFA               	btfss	cusitoa@d+1,7
  6169     0EC4  2EC6               	goto	u2111
  6170     0EC5  2EC7               	goto	u2110
  6171     0EC6                     u2111:
  6172     0EC6  2ED5               	goto	l1936
  6173     0EC7                     u2110:
  6174     0EC7                     l1932:
  6175                           
  6176                           ;oled.c: 305:     {;oled.c: 306:         *((*buf)++) = '-';
  6177     0EC7  0824               	movf	cusitoa@buf,w
  6178     0EC8  0086               	movwf	6
  6179     0EC9  0187               	clrf	7
  6180     0ECA  3F40               	moviw [0]fsr1
  6181     0ECB  0084               	movwf	4
  6182     0ECC  0185               	clrf	5
  6183     0ECD  0A81               	incf	1,f
  6184     0ECE  302D               	movlw	45
  6185     0ECF  0080               	movwf	0
  6186     0ED0                     l1934:
  6187                           
  6188                           ;oled.c: 307:         d = -d;
  6189     0ED0  09F9               	comf	cusitoa@d,f
  6190     0ED1  09FA               	comf	cusitoa@d+1,f
  6191     0ED2  0AF9               	incf	cusitoa@d,f
  6192     0ED3  1903               	skipnz
  6193     0ED4  0AFA               	incf	cusitoa@d+1,f
  6194     0ED5                     l1936:
  6195                           
  6196                           ;oled.c: 310:     int temp = d;
  6197     0ED5  087A               	movf	cusitoa@d+1,w
  6198     0ED6  00A3               	movwf	cusitoa@temp+1
  6199     0ED7  0879               	movf	cusitoa@d,w
  6200     0ED8  00A2               	movwf	cusitoa@temp
  6201                           
  6202                           ;oled.c: 311:     while (temp / 10)
  6203     0ED9  2EFB               	goto	l104
  6204     0EDA                     l1938:
  6205                           
  6206                           ;oled.c: 312:     {;oled.c: 313:         temp /= 10;
  6207     0EDA  300A               	movlw	10
  6208     0EDB  00F0               	movwf	___awdiv@divisor
  6209     0EDC  3000               	movlw	0
  6210     0EDD  00F1               	movwf	___awdiv@divisor+1
  6211     0EDE  0020               	movlb	0	; select bank0
  6212     0EDF  0823               	movf	cusitoa@temp+1,w
  6213     0EE0  00F3               	movwf	___awdiv@dividend+1
  6214     0EE1  0822               	movf	cusitoa@temp,w
  6215     0EE2  00F2               	movwf	___awdiv@dividend
  6216     0EE3  318C  24BF  318E   	fcall	___awdiv
  6217     0EE6  0871               	movf	?___awdiv+1,w
  6218     0EE7  0020               	movlb	0	; select bank0
  6219     0EE8  00A3               	movwf	cusitoa@temp+1
  6220     0EE9  0870               	movf	?___awdiv,w
  6221     0EEA  00A2               	movwf	cusitoa@temp
  6222                           
  6223                           ;oled.c: 314:         div *= 10;
  6224     0EEB  300A               	movlw	10
  6225     0EEC  00F0               	movwf	___wmul@multiplier
  6226     0EED  3000               	movlw	0
  6227     0EEE  00F1               	movwf	___wmul@multiplier+1
  6228     0EEF  0826               	movf	cusitoa@div+1,w
  6229     0EF0  00F3               	movwf	___wmul@multiplicand+1
  6230     0EF1  0825               	movf	cusitoa@div,w
  6231     0EF2  00F2               	movwf	___wmul@multiplicand
  6232     0EF3  318B  23B4  318E   	fcall	___wmul
  6233     0EF6  0871               	movf	?___wmul+1,w
  6234     0EF7  0020               	movlb	0	; select bank0
  6235     0EF8  00A6               	movwf	cusitoa@div+1
  6236     0EF9  0870               	movf	?___wmul,w
  6237     0EFA  00A5               	movwf	cusitoa@div
  6238     0EFB                     l104:	
  6239                           ;oled.c: 315:     }
  6240                           
  6241                           
  6242                           ;oled.c: 311:     while (temp / 10)
  6243     0EFB  300A               	movlw	10
  6244     0EFC  00F0               	movwf	___awdiv@divisor
  6245     0EFD  3000               	movlw	0
  6246     0EFE  00F1               	movwf	___awdiv@divisor+1
  6247     0EFF  0823               	movf	cusitoa@temp+1,w
  6248     0F00  00F3               	movwf	___awdiv@dividend+1
  6249     0F01  0822               	movf	cusitoa@temp,w
  6250     0F02  00F2               	movwf	___awdiv@dividend
  6251     0F03  318C  24BF  318E   	fcall	___awdiv
  6252     0F06  0870               	movf	?___awdiv,w
  6253     0F07  0471               	iorwf	?___awdiv+1,w
  6254     0F08  1D03               	btfss	3,2
  6255     0F09  2F0B               	goto	u2121
  6256     0F0A  2F0C               	goto	u2120
  6257     0F0B                     u2121:
  6258     0F0B  2EDA               	goto	l1938
  6259     0F0C                     u2120:
  6260     0F0C  2F47               	goto	l1944
  6261     0F0D                     l1940:
  6262                           
  6263                           ;oled.c: 318:     {;oled.c: 319:         int num = d / div;
  6264     0F0D  0826               	movf	cusitoa@div+1,w
  6265     0F0E  00F1               	movwf	___awdiv@divisor+1
  6266     0F0F  0825               	movf	cusitoa@div,w
  6267     0F10  00F0               	movwf	___awdiv@divisor
  6268     0F11  087A               	movf	cusitoa@d+1,w
  6269     0F12  00F3               	movwf	___awdiv@dividend+1
  6270     0F13  0879               	movf	cusitoa@d,w
  6271     0F14  00F2               	movwf	___awdiv@dividend
  6272     0F15  318C  24BF  318E   	fcall	___awdiv
  6273     0F18  0871               	movf	?___awdiv+1,w
  6274     0F19  0020               	movlb	0	; select bank0
  6275     0F1A  00A1               	movwf	cusitoa@num+1
  6276     0F1B  0870               	movf	?___awdiv,w
  6277     0F1C  00A0               	movwf	cusitoa@num
  6278                           
  6279                           ;oled.c: 320:         d %= div;
  6280     0F1D  0826               	movf	cusitoa@div+1,w
  6281     0F1E  00F1               	movwf	___awmod@divisor+1
  6282     0F1F  0825               	movf	cusitoa@div,w
  6283     0F20  00F0               	movwf	___awmod@divisor
  6284     0F21  087A               	movf	cusitoa@d+1,w
  6285     0F22  00F3               	movwf	___awmod@dividend+1
  6286     0F23  0879               	movf	cusitoa@d,w
  6287     0F24  00F2               	movwf	___awmod@dividend
  6288     0F25  318C  246C  318E   	fcall	___awmod
  6289     0F28  0871               	movf	?___awmod+1,w
  6290     0F29  00FA               	movwf	cusitoa@d+1
  6291     0F2A  0870               	movf	?___awmod,w
  6292     0F2B  00F9               	movwf	cusitoa@d
  6293                           
  6294                           ;oled.c: 321:         div /= 10;
  6295     0F2C  300A               	movlw	10
  6296     0F2D  00F0               	movwf	___awdiv@divisor
  6297     0F2E  3000               	movlw	0
  6298     0F2F  00F1               	movwf	___awdiv@divisor+1
  6299     0F30  0020               	movlb	0	; select bank0
  6300     0F31  0826               	movf	cusitoa@div+1,w
  6301     0F32  00F3               	movwf	___awdiv@dividend+1
  6302     0F33  0825               	movf	cusitoa@div,w
  6303     0F34  00F2               	movwf	___awdiv@dividend
  6304     0F35  318C  24BF  318E   	fcall	___awdiv
  6305     0F38  0871               	movf	?___awdiv+1,w
  6306     0F39  0020               	movlb	0	; select bank0
  6307     0F3A  00A6               	movwf	cusitoa@div+1
  6308     0F3B  0870               	movf	?___awdiv,w
  6309     0F3C  00A5               	movwf	cusitoa@div
  6310     0F3D                     l1942:
  6311                           
  6312                           ;oled.c: 322:         *((*buf)++) = num + '0';
  6313     0F3D  0824               	movf	cusitoa@buf,w
  6314     0F3E  0086               	movwf	6
  6315     0F3F  0187               	clrf	7
  6316     0F40  3F40               	moviw [0]fsr1
  6317     0F41  0084               	movwf	4
  6318     0F42  0185               	clrf	5
  6319     0F43  0A81               	incf	1,f
  6320     0F44  0820               	movf	cusitoa@num,w
  6321     0F45  3E30               	addlw	48
  6322     0F46  0080               	movwf	0
  6323     0F47                     l1944:
  6324                           
  6325                           ;oled.c: 317:     while (div != 0)
  6326     0F47  0020               	movlb	0	; select bank0
  6327     0F48  0825               	movf	cusitoa@div,w
  6328     0F49  0426               	iorwf	cusitoa@div+1,w
  6329     0F4A  1D03               	btfss	3,2
  6330     0F4B  2F4D               	goto	u2131
  6331     0F4C  2F4E               	goto	u2130
  6332     0F4D                     u2131:
  6333     0F4D  2F0D               	goto	l1940
  6334     0F4E                     u2130:
  6335     0F4E                     l1946:
  6336                           
  6337                           ;oled.c: 324:     *(*buf) = '\0';
  6338     0F4E  0824               	movf	cusitoa@buf,w
  6339     0F4F  0086               	movwf	6
  6340     0F50  0187               	clrf	7
  6341     0F51  0801               	movf	1,w
  6342     0F52  0086               	movwf	6
  6343     0F53  0187               	clrf	7
  6344     0F54  0181               	clrf	1
  6345     0F55                     l110:
  6346     0F55  0008               	return
  6347     0F56                     __end_of_cusitoa:
  6348                           
  6349                           	psect	text11
  6350     0BB4                     __ptext11:	
  6351 ;; *************** function ___wmul *****************
  6352 ;; Defined at:
  6353 ;;		line 15 in file "C:\Program Files\Microchip\xc8\v2.45\pic\sources\c99\common\Umul16.c"
  6354 ;; Parameters:    Size  Location     Type
  6355 ;;  multiplier      2    0[COMMON] unsigned int 
  6356 ;;  multiplicand    2    2[COMMON] unsigned int 
  6357 ;; Auto vars:     Size  Location     Type
  6358 ;;  product         2    4[COMMON] unsigned int 
  6359 ;; Return value:  Size  Location     Type
  6360 ;;                  2    0[COMMON] unsigned int 
  6361 ;; Registers used:
  6362 ;;		wreg, status,2, status,0
  6363 ;; Tracked objects:
  6364 ;;		On entry : 0/0
  6365 ;;		On exit  : 0/0
  6366 ;;		Unchanged: 0/0
  6367 ;; Data sizes:     COMMON   BANK0   BANK1   BANK2   BANK3   BANK4   BANK5   BANK6   BANK7   BANK8   BANK9  BANK10  BANK1
      +1  BANK12  BANK13  BANK14  BANK15  BANK16  BANK17  BANK18  BANK19  BANK20  BANK21  BANK22  BANK23  BANK24  BANK25
  6368 ;;      Params:         4       0       0       0       0       0       0       0       0       0       0       0       
      +0       0       0       0       0       0       0       0       0       0       0       0       0       0       0
  6369 ;;      Locals:         2       0       0       0       0       0       0       0       0       0       0       0       
      +0       0       0       0       0       0       0       0       0       0       0       0       0       0       0
  6370 ;;      Temps:          0       0       0       0       0       0       0       0       0       0       0       0       
      +0       0       0       0       0       0       0       0       0       0       0       0       0       0       0
  6371 ;;      Totals:         6       0       0       0       0       0       0       0       0       0       0       0       
      +0       0       0       0       0       0       0       0       0       0       0       0       0       0       0
  6372 ;;Total ram usage:        6 bytes
  6373 ;; Hardware stack levels used: 1
  6374 ;; This function calls:
  6375 ;;		Nothing
  6376 ;; This function is called by:
  6377 ;;		_cusitoa
  6378 ;; This function uses a non-reentrant model
  6379 ;;
  6380                           
  6381     0BB4                     ___wmul:	
  6382                           ;psect for function ___wmul
  6383                           
  6384     0BB4                     l1824:	
  6385                           ;incstack = 0
  6386                           ; Regs used in ___wmul: [wreg+status,2+status,0]
  6387                           
  6388     0BB4  01F4               	clrf	___wmul@product
  6389     0BB5  01F5               	clrf	___wmul@product+1
  6390     0BB6                     l1826:
  6391     0BB6  1C70               	btfss	___wmul@multiplier,0
  6392     0BB7  2BB9               	goto	u1851
  6393     0BB8  2BBA               	goto	u1850
  6394     0BB9                     u1851:
  6395     0BB9  2BBE               	goto	l296
  6396     0BBA                     u1850:
  6397     0BBA                     l1828:
  6398     0BBA  0872               	movf	___wmul@multiplicand,w
  6399     0BBB  07F4               	addwf	___wmul@product,f
  6400     0BBC  0873               	movf	___wmul@multiplicand+1,w
  6401     0BBD  3DF5               	addwfc	___wmul@product+1,f
  6402     0BBE                     l296:
  6403     0BBE  3001               	movlw	1
  6404     0BBF                     u1865:
  6405     0BBF  35F2               	lslf	___wmul@multiplicand,f
  6406     0BC0  0DF3               	rlf	___wmul@multiplicand+1,f
  6407     0BC1  0B89               	decfsz	9,f
  6408     0BC2  2BBF               	goto	u1865
  6409     0BC3                     l1830:
  6410     0BC3  3001               	movlw	1
  6411     0BC4                     u1875:
  6412     0BC4  36F1               	lsrf	___wmul@multiplier+1,f
  6413     0BC5  0CF0               	rrf	___wmul@multiplier,f
  6414     0BC6  0B89               	decfsz	9,f
  6415     0BC7  2BC4               	goto	u1875
  6416     0BC8                     l1832:
  6417     0BC8  0870               	movf	___wmul@multiplier,w
  6418     0BC9  0471               	iorwf	___wmul@multiplier+1,w
  6419     0BCA  1D03               	btfss	3,2
  6420     0BCB  2BCD               	goto	u1881
  6421     0BCC  2BCE               	goto	u1880
  6422     0BCD                     u1881:
  6423     0BCD  2BB6               	goto	l1826
  6424     0BCE                     u1880:
  6425     0BCE                     l1834:
  6426     0BCE  0875               	movf	___wmul@product+1,w
  6427     0BCF  00F1               	movwf	?___wmul+1
  6428     0BD0  0874               	movf	___wmul@product,w
  6429     0BD1  00F0               	movwf	?___wmul
  6430     0BD2                     l298:
  6431     0BD2  0008               	return
  6432     0BD3                     __end_of___wmul:
  6433                           
  6434                           	psect	text12
  6435     0C6C                     __ptext12:	
  6436 ;; *************** function ___awmod *****************
  6437 ;; Defined at:
  6438 ;;		line 5 in file "C:\Program Files\Microchip\xc8\v2.45\pic\sources\c99\common\awmod.c"
  6439 ;; Parameters:    Size  Location     Type
  6440 ;;  divisor         2    0[COMMON] int 
  6441 ;;  dividend        2    2[COMMON] int 
  6442 ;; Auto vars:     Size  Location     Type
  6443 ;;  sign            1    6[COMMON] unsigned char 
  6444 ;;  counter         1    5[COMMON] unsigned char 
  6445 ;; Return value:  Size  Location     Type
  6446 ;;                  2    0[COMMON] int 
  6447 ;; Registers used:
  6448 ;;		wreg, status,2, status,0
  6449 ;; Tracked objects:
  6450 ;;		On entry : 0/0
  6451 ;;		On exit  : 0/0
  6452 ;;		Unchanged: 0/0
  6453 ;; Data sizes:     COMMON   BANK0   BANK1   BANK2   BANK3   BANK4   BANK5   BANK6   BANK7   BANK8   BANK9  BANK10  BANK1
      +1  BANK12  BANK13  BANK14  BANK15  BANK16  BANK17  BANK18  BANK19  BANK20  BANK21  BANK22  BANK23  BANK24  BANK25
  6454 ;;      Params:         4       0       0       0       0       0       0       0       0       0       0       0       
      +0       0       0       0       0       0       0       0       0       0       0       0       0       0       0
  6455 ;;      Locals:         2       0       0       0       0       0       0       0       0       0       0       0       
      +0       0       0       0       0       0       0       0       0       0       0       0       0       0       0
  6456 ;;      Temps:          1       0       0       0       0       0       0       0       0       0       0       0       
      +0       0       0       0       0       0       0       0       0       0       0       0       0       0       0
  6457 ;;      Totals:         7       0       0       0       0       0       0       0       0       0       0       0       
      +0       0       0       0       0       0       0       0       0       0       0       0       0       0       0
  6458 ;;Total ram usage:        7 bytes
  6459 ;; Hardware stack levels used: 1
  6460 ;; This function calls:
  6461 ;;		Nothing
  6462 ;; This function is called by:
  6463 ;;		_cusitoa
  6464 ;; This function uses a non-reentrant model
  6465 ;;
  6466                           
  6467     0C6C                     ___awmod:	
  6468                           ;psect for function ___awmod
  6469                           
  6470     0C6C                     l1882:	
  6471                           ;incstack = 0
  6472                           ; Regs used in ___awmod: [wreg+status,2+status,0]
  6473                           
  6474     0C6C  01F6               	clrf	___awmod@sign
  6475     0C6D                     l1884:
  6476     0C6D  1FF3               	btfss	___awmod@dividend+1,7
  6477     0C6E  2C70               	goto	u1991
  6478     0C6F  2C71               	goto	u1990
  6479     0C70                     u1991:
  6480     0C70  2C78               	goto	l1890
  6481     0C71                     u1990:
  6482     0C71                     l1886:
  6483     0C71  09F2               	comf	___awmod@dividend,f
  6484     0C72  09F3               	comf	___awmod@dividend+1,f
  6485     0C73  0AF2               	incf	___awmod@dividend,f
  6486     0C74  1903               	skipnz
  6487     0C75  0AF3               	incf	___awmod@dividend+1,f
  6488     0C76                     l1888:
  6489     0C76  01F6               	clrf	___awmod@sign
  6490     0C77  0AF6               	incf	___awmod@sign,f
  6491     0C78                     l1890:
  6492     0C78  1FF1               	btfss	___awmod@divisor+1,7
  6493     0C79  2C7B               	goto	u2001
  6494     0C7A  2C7C               	goto	u2000
  6495     0C7B                     u2001:
  6496     0C7B  2C81               	goto	l1894
  6497     0C7C                     u2000:
  6498     0C7C                     l1892:
  6499     0C7C  09F0               	comf	___awmod@divisor,f
  6500     0C7D  09F1               	comf	___awmod@divisor+1,f
  6501     0C7E  0AF0               	incf	___awmod@divisor,f
  6502     0C7F  1903               	skipnz
  6503     0C80  0AF1               	incf	___awmod@divisor+1,f
  6504     0C81                     l1894:
  6505     0C81  0870               	movf	___awmod@divisor,w
  6506     0C82  0471               	iorwf	___awmod@divisor+1,w
  6507     0C83  1903               	btfsc	3,2
  6508     0C84  2C86               	goto	u2011
  6509     0C85  2C87               	goto	u2010
  6510     0C86                     u2011:
  6511     0C86  2CB0               	goto	l1912
  6512     0C87                     u2010:
  6513     0C87                     l1896:
  6514     0C87  01F5               	clrf	___awmod@counter
  6515     0C88  0AF5               	incf	___awmod@counter,f
  6516     0C89  2C93               	goto	l1902
  6517     0C8A                     l1898:
  6518     0C8A  3001               	movlw	1
  6519     0C8B                     u2025:
  6520     0C8B  35F0               	lslf	___awmod@divisor,f
  6521     0C8C  0DF1               	rlf	___awmod@divisor+1,f
  6522     0C8D  0B89               	decfsz	9,f
  6523     0C8E  2C8B               	goto	u2025
  6524     0C8F                     l1900:
  6525     0C8F  3001               	movlw	1
  6526     0C90  00F4               	movwf	??___awmod
  6527     0C91  0874               	movf	??___awmod,w
  6528     0C92  07F5               	addwf	___awmod@counter,f
  6529     0C93                     l1902:
  6530     0C93  1FF1               	btfss	___awmod@divisor+1,7
  6531     0C94  2C96               	goto	u2031
  6532     0C95  2C97               	goto	u2030
  6533     0C96                     u2031:
  6534     0C96  2C8A               	goto	l1898
  6535     0C97                     u2030:
  6536     0C97                     l1904:
  6537     0C97  0871               	movf	___awmod@divisor+1,w
  6538     0C98  0273               	subwf	___awmod@dividend+1,w
  6539     0C99  1D03               	skipz
  6540     0C9A  2C9D               	goto	u2045
  6541     0C9B  0870               	movf	___awmod@divisor,w
  6542     0C9C  0272               	subwf	___awmod@dividend,w
  6543     0C9D                     u2045:
  6544     0C9D  1C03               	skipc
  6545     0C9E  2CA0               	goto	u2041
  6546     0C9F  2CA1               	goto	u2040
  6547     0CA0                     u2041:
  6548     0CA0  2CA5               	goto	l1908
  6549     0CA1                     u2040:
  6550     0CA1                     l1906:
  6551     0CA1  0870               	movf	___awmod@divisor,w
  6552     0CA2  02F2               	subwf	___awmod@dividend,f
  6553     0CA3  0871               	movf	___awmod@divisor+1,w
  6554     0CA4  3BF3               	subwfb	___awmod@dividend+1,f
  6555     0CA5                     l1908:
  6556     0CA5  3001               	movlw	1
  6557     0CA6                     u2055:
  6558     0CA6  36F1               	lsrf	___awmod@divisor+1,f
  6559     0CA7  0CF0               	rrf	___awmod@divisor,f
  6560     0CA8  0B89               	decfsz	9,f
  6561     0CA9  2CA6               	goto	u2055
  6562     0CAA                     l1910:
  6563     0CAA  3001               	movlw	1
  6564     0CAB  02F5               	subwf	___awmod@counter,f
  6565     0CAC  1D03               	btfss	3,2
  6566     0CAD  2CAF               	goto	u2061
  6567     0CAE  2CB0               	goto	u2060
  6568     0CAF                     u2061:
  6569     0CAF  2C97               	goto	l1904
  6570     0CB0                     u2060:
  6571     0CB0                     l1912:
  6572     0CB0  0876               	movf	___awmod@sign,w
  6573     0CB1  1903               	btfsc	3,2
  6574     0CB2  2CB4               	goto	u2071
  6575     0CB3  2CB5               	goto	u2070
  6576     0CB4                     u2071:
  6577     0CB4  2CBA               	goto	l1916
  6578     0CB5                     u2070:
  6579     0CB5                     l1914:
  6580     0CB5  09F2               	comf	___awmod@dividend,f
  6581     0CB6  09F3               	comf	___awmod@dividend+1,f
  6582     0CB7  0AF2               	incf	___awmod@dividend,f
  6583     0CB8  1903               	skipnz
  6584     0CB9  0AF3               	incf	___awmod@dividend+1,f
  6585     0CBA                     l1916:
  6586     0CBA  0873               	movf	___awmod@dividend+1,w
  6587     0CBB  00F1               	movwf	?___awmod+1
  6588     0CBC  0872               	movf	___awmod@dividend,w
  6589     0CBD  00F0               	movwf	?___awmod
  6590     0CBE                     l462:
  6591     0CBE  0008               	return
  6592     0CBF                     __end_of___awmod:
  6593                           
  6594                           	psect	text13
  6595     0CBF                     __ptext13:	
  6596 ;; *************** function ___awdiv *****************
  6597 ;; Defined at:
  6598 ;;		line 5 in file "C:\Program Files\Microchip\xc8\v2.45\pic\sources\c99\common\awdiv.c"
  6599 ;; Parameters:    Size  Location     Type
  6600 ;;  divisor         2    0[COMMON] int 
  6601 ;;  dividend        2    2[COMMON] int 
  6602 ;; Auto vars:     Size  Location     Type
  6603 ;;  quotient        2    7[COMMON] int 
  6604 ;;  sign            1    6[COMMON] unsigned char 
  6605 ;;  counter         1    5[COMMON] unsigned char 
  6606 ;; Return value:  Size  Location     Type
  6607 ;;                  2    0[COMMON] int 
  6608 ;; Registers used:
  6609 ;;		wreg, status,2, status,0
  6610 ;; Tracked objects:
  6611 ;;		On entry : 0/0
  6612 ;;		On exit  : 0/0
  6613 ;;		Unchanged: 0/0
  6614 ;; Data sizes:     COMMON   BANK0   BANK1   BANK2   BANK3   BANK4   BANK5   BANK6   BANK7   BANK8   BANK9  BANK10  BANK1
      +1  BANK12  BANK13  BANK14  BANK15  BANK16  BANK17  BANK18  BANK19  BANK20  BANK21  BANK22  BANK23  BANK24  BANK25
  6615 ;;      Params:         4       0       0       0       0       0       0       0       0       0       0       0       
      +0       0       0       0       0       0       0       0       0       0       0       0       0       0       0
  6616 ;;      Locals:         4       0       0       0       0       0       0       0       0       0       0       0       
      +0       0       0       0       0       0       0       0       0       0       0       0       0       0       0
  6617 ;;      Temps:          1       0       0       0       0       0       0       0       0       0       0       0       
      +0       0       0       0       0       0       0       0       0       0       0       0       0       0       0
  6618 ;;      Totals:         9       0       0       0       0       0       0       0       0       0       0       0       
      +0       0       0       0       0       0       0       0       0       0       0       0       0       0       0
  6619 ;;Total ram usage:        9 bytes
  6620 ;; Hardware stack levels used: 1
  6621 ;; This function calls:
  6622 ;;		Nothing
  6623 ;; This function is called by:
  6624 ;;		_cusitoa
  6625 ;; This function uses a non-reentrant model
  6626 ;;
  6627                           
  6628     0CBF                     ___awdiv:	
  6629                           ;psect for function ___awdiv
  6630                           
  6631     0CBF                     l1838:	
  6632                           ;incstack = 0
  6633                           ; Regs used in ___awdiv: [wreg+status,2+status,0]
  6634                           
  6635     0CBF  01F6               	clrf	___awdiv@sign
  6636     0CC0                     l1840:
  6637     0CC0  1FF1               	btfss	___awdiv@divisor+1,7
  6638     0CC1  2CC3               	goto	u1891
  6639     0CC2  2CC4               	goto	u1890
  6640     0CC3                     u1891:
  6641     0CC3  2CCB               	goto	l1846
  6642     0CC4                     u1890:
  6643     0CC4                     l1842:
  6644     0CC4  09F0               	comf	___awdiv@divisor,f
  6645     0CC5  09F1               	comf	___awdiv@divisor+1,f
  6646     0CC6  0AF0               	incf	___awdiv@divisor,f
  6647     0CC7  1903               	skipnz
  6648     0CC8  0AF1               	incf	___awdiv@divisor+1,f
  6649     0CC9                     l1844:
  6650     0CC9  01F6               	clrf	___awdiv@sign
  6651     0CCA  0AF6               	incf	___awdiv@sign,f
  6652     0CCB                     l1846:
  6653     0CCB  1FF3               	btfss	___awdiv@dividend+1,7
  6654     0CCC  2CCE               	goto	u1901
  6655     0CCD  2CCF               	goto	u1900
  6656     0CCE                     u1901:
  6657     0CCE  2CD8               	goto	l1852
  6658     0CCF                     u1900:
  6659     0CCF                     l1848:
  6660     0CCF  09F2               	comf	___awdiv@dividend,f
  6661     0CD0  09F3               	comf	___awdiv@dividend+1,f
  6662     0CD1  0AF2               	incf	___awdiv@dividend,f
  6663     0CD2  1903               	skipnz
  6664     0CD3  0AF3               	incf	___awdiv@dividend+1,f
  6665     0CD4                     l1850:
  6666     0CD4  3001               	movlw	1
  6667     0CD5  00F4               	movwf	??___awdiv
  6668     0CD6  0874               	movf	??___awdiv,w
  6669     0CD7  06F6               	xorwf	___awdiv@sign,f
  6670     0CD8                     l1852:
  6671     0CD8  01F7               	clrf	___awdiv@quotient
  6672     0CD9  01F8               	clrf	___awdiv@quotient+1
  6673     0CDA                     l1854:
  6674     0CDA  0870               	movf	___awdiv@divisor,w
  6675     0CDB  0471               	iorwf	___awdiv@divisor+1,w
  6676     0CDC  1903               	btfsc	3,2
  6677     0CDD  2CDF               	goto	u1911
  6678     0CDE  2CE0               	goto	u1910
  6679     0CDF                     u1911:
  6680     0CDF  2D0F               	goto	l1874
  6681     0CE0                     u1910:
  6682     0CE0                     l1856:
  6683     0CE0  01F5               	clrf	___awdiv@counter
  6684     0CE1  0AF5               	incf	___awdiv@counter,f
  6685     0CE2  2CEC               	goto	l1862
  6686     0CE3                     l1858:
  6687     0CE3  3001               	movlw	1
  6688     0CE4                     u1925:
  6689     0CE4  35F0               	lslf	___awdiv@divisor,f
  6690     0CE5  0DF1               	rlf	___awdiv@divisor+1,f
  6691     0CE6  0B89               	decfsz	9,f
  6692     0CE7  2CE4               	goto	u1925
  6693     0CE8                     l1860:
  6694     0CE8  3001               	movlw	1
  6695     0CE9  00F4               	movwf	??___awdiv
  6696     0CEA  0874               	movf	??___awdiv,w
  6697     0CEB  07F5               	addwf	___awdiv@counter,f
  6698     0CEC                     l1862:
  6699     0CEC  1FF1               	btfss	___awdiv@divisor+1,7
  6700     0CED  2CEF               	goto	u1931
  6701     0CEE  2CF0               	goto	u1930
  6702     0CEF                     u1931:
  6703     0CEF  2CE3               	goto	l1858
  6704     0CF0                     u1930:
  6705     0CF0                     l1864:
  6706     0CF0  3001               	movlw	1
  6707     0CF1                     u1945:
  6708     0CF1  35F7               	lslf	___awdiv@quotient,f
  6709     0CF2  0DF8               	rlf	___awdiv@quotient+1,f
  6710     0CF3  0B89               	decfsz	9,f
  6711     0CF4  2CF1               	goto	u1945
  6712     0CF5  0871               	movf	___awdiv@divisor+1,w
  6713     0CF6  0273               	subwf	___awdiv@dividend+1,w
  6714     0CF7  1D03               	skipz
  6715     0CF8  2CFB               	goto	u1955
  6716     0CF9  0870               	movf	___awdiv@divisor,w
  6717     0CFA  0272               	subwf	___awdiv@dividend,w
  6718     0CFB                     u1955:
  6719     0CFB  1C03               	skipc
  6720     0CFC  2CFE               	goto	u1951
  6721     0CFD  2CFF               	goto	u1950
  6722     0CFE                     u1951:
  6723     0CFE  2D04               	goto	l1870
  6724     0CFF                     u1950:
  6725     0CFF                     l1866:
  6726     0CFF  0870               	movf	___awdiv@divisor,w
  6727     0D00  02F2               	subwf	___awdiv@dividend,f
  6728     0D01  0871               	movf	___awdiv@divisor+1,w
  6729     0D02  3BF3               	subwfb	___awdiv@dividend+1,f
  6730     0D03                     l1868:
  6731     0D03  1477               	bsf	___awdiv@quotient,0
  6732     0D04                     l1870:
  6733     0D04  3001               	movlw	1
  6734     0D05                     u1965:
  6735     0D05  36F1               	lsrf	___awdiv@divisor+1,f
  6736     0D06  0CF0               	rrf	___awdiv@divisor,f
  6737     0D07  0B89               	decfsz	9,f
  6738     0D08  2D05               	goto	u1965
  6739     0D09                     l1872:
  6740     0D09  3001               	movlw	1
  6741     0D0A  02F5               	subwf	___awdiv@counter,f
  6742     0D0B  1D03               	btfss	3,2
  6743     0D0C  2D0E               	goto	u1971
  6744     0D0D  2D0F               	goto	u1970
  6745     0D0E                     u1971:
  6746     0D0E  2CF0               	goto	l1864
  6747     0D0F                     u1970:
  6748     0D0F                     l1874:
  6749     0D0F  0876               	movf	___awdiv@sign,w
  6750     0D10  1903               	btfsc	3,2
  6751     0D11  2D13               	goto	u1981
  6752     0D12  2D14               	goto	u1980
  6753     0D13                     u1981:
  6754     0D13  2D19               	goto	l1878
  6755     0D14                     u1980:
  6756     0D14                     l1876:
  6757     0D14  09F7               	comf	___awdiv@quotient,f
  6758     0D15  09F8               	comf	___awdiv@quotient+1,f
  6759     0D16  0AF7               	incf	___awdiv@quotient,f
  6760     0D17  1903               	skipnz
  6761     0D18  0AF8               	incf	___awdiv@quotient+1,f
  6762     0D19                     l1878:
  6763     0D19  0878               	movf	___awdiv@quotient+1,w
  6764     0D1A  00F1               	movwf	?___awdiv+1
  6765     0D1B  0877               	movf	___awdiv@quotient,w
  6766     0D1C  00F0               	movwf	?___awdiv
  6767     0D1D                     l449:
  6768     0D1D  0008               	return
  6769     0D1E                     __end_of___awdiv:
  6770                           
  6771                           	psect	text14
  6772     0006                     __ptext14:	
  6773 ;; *************** function _OLED_Write_String *****************
  6774 ;; Defined at:
  6775 ;;		line 284 in file "oled.c"
  6776 ;; Parameters:    Size  Location     Type
  6777 ;;  s               2   12[COMMON] PTR unsigned char 
  6778 ;;		 -> STR_4(8), STR_3(10), STR_2(5), STR_1(6), 
  6779 ;;		 -> RAM(4096), 
  6780 ;; Auto vars:     Size  Location     Type
  6781 ;;		None
  6782 ;; Return value:  Size  Location     Type
  6783 ;;                  1    wreg      void 
  6784 ;; Registers used:
  6785 ;;		wreg, fsr0l, fsr0h, fsr1l, fsr1h, status,2, status,0, pclath, cstack
  6786 ;; Tracked objects:
  6787 ;;		On entry : 0/0
  6788 ;;		On exit  : 0/0
  6789 ;;		Unchanged: 0/0
  6790 ;; Data sizes:     COMMON   BANK0   BANK1   BANK2   BANK3   BANK4   BANK5   BANK6   BANK7   BANK8   BANK9  BANK10  BANK1
      +1  BANK12  BANK13  BANK14  BANK15  BANK16  BANK17  BANK18  BANK19  BANK20  BANK21  BANK22  BANK23  BANK24  BANK25
  6791 ;;      Params:         2       0       0       0       0       0       0       0       0       0       0       0       
      +0       0       0       0       0       0       0       0       0       0       0       0       0       0       0
  6792 ;;      Locals:         0       0       0       0       0       0       0       0       0       0       0       0       
      +0       0       0       0       0       0       0       0       0       0       0       0       0       0       0
  6793 ;;      Temps:          0       1       0       0       0       0       0       0       0       0       0       0       
      +0       0       0       0       0       0       0       0       0       0       0       0       0       0       0
  6794 ;;      Totals:         2       1       0       0       0       0       0       0       0       0       0       0       
      +0       0       0       0       0       0       0       0       0       0       0       0       0       0       0
  6795 ;;Total ram usage:        3 bytes
  6796 ;; Hardware stack levels used: 1
  6797 ;; Hardware stack levels required when called: 2
  6798 ;; This function calls:
  6799 ;;		_OLED_PutChar
  6800 ;; This function is called by:
  6801 ;;		_OLED_Write_Integer
  6802 ;;		_main
  6803 ;; This function uses a non-reentrant model
  6804 ;;
  6805                           
  6806     0006                     _OLED_Write_String:	
  6807                           ;psect for function _OLED_Write_String
  6808                           
  6809     0006                     l1922:	
  6810                           ;incstack = 0
  6811                           ; Regs used in _OLED_Write_String: [wreg-fsr1h+status,2+status,0+pclath+cstack]
  6812                           
  6813                           
  6814                           ;oled.c: 284: void OLED_Write_String( char *s );oled.c: 285: {;oled.c: 286:     while (*
      +                          s) OLED_PutChar( *s++);
  6815     0006  2813               	goto	l1928
  6816     0007                     l1924:
  6817     0007  087C               	movf	OLED_Write_String@s,w
  6818     0008  0084               	movwf	4
  6819     0009  087D               	movf	OLED_Write_String@s+1,w
  6820     000A  0085               	movwf	5
  6821     000B  0800               	movf	0,w	;code access
  6822     000C  318E  2651  3180   	fcall	_OLED_PutChar
  6823     000F                     l1926:
  6824     000F  3001               	movlw	1
  6825     0010  07FC               	addwf	OLED_Write_String@s,f
  6826     0011  3000               	movlw	0
  6827     0012  3DFD               	addwfc	OLED_Write_String@s+1,f
  6828     0013                     l1928:
  6829     0013  087C               	movf	OLED_Write_String@s,w
  6830     0014  0084               	movwf	4
  6831     0015  087D               	movf	OLED_Write_String@s+1,w
  6832     0016  0085               	movwf	5
  6833     0017  0012               	moviw fsr0++
  6834     0018  1D03               	btfss	3,2
  6835     0019  281B               	goto	u2101
  6836     001A  281C               	goto	u2100
  6837     001B                     u2101:
  6838     001B  2807               	goto	l1924
  6839     001C                     u2100:
  6840     001C                     l100:
  6841     001C  0008               	return
  6842     001D                     __end_of_OLED_Write_String:
  6843                           
  6844                           	psect	text15
  6845     0D81                     __ptext15:	
  6846 ;; *************** function _OLED_Init *****************
  6847 ;; Defined at:
  6848 ;;		line 174 in file "oled.c"
  6849 ;; Parameters:    Size  Location     Type
  6850 ;;		None
  6851 ;; Auto vars:     Size  Location     Type
  6852 ;;		None
  6853 ;; Return value:  Size  Location     Type
  6854 ;;                  1    wreg      void 
  6855 ;; Registers used:
  6856 ;;		wreg, status,2, status,0, pclath, cstack
  6857 ;; Tracked objects:
  6858 ;;		On entry : 0/0
  6859 ;;		On exit  : 0/0
  6860 ;;		Unchanged: 0/0
  6861 ;; Data sizes:     COMMON   BANK0   BANK1   BANK2   BANK3   BANK4   BANK5   BANK6   BANK7   BANK8   BANK9  BANK10  BANK1
      +1  BANK12  BANK13  BANK14  BANK15  BANK16  BANK17  BANK18  BANK19  BANK20  BANK21  BANK22  BANK23  BANK24  BANK25
  6862 ;;      Params:         0       0       0       0       0       0       0       0       0       0       0       0       
      +0       0       0       0       0       0       0       0       0       0       0       0       0       0       0
  6863 ;;      Locals:         0       0       0       0       0       0       0       0       0       0       0       0       
      +0       0       0       0       0       0       0       0       0       0       0       0       0       0       0
  6864 ;;      Temps:          0       0       0       0       0       0       0       0       0       0       0       0       
      +0       0       0       0       0       0       0       0       0       0       0       0       0       0       0
  6865 ;;      Totals:         0       0       0       0       0       0       0       0       0       0       0       0       
      +0       0       0       0       0       0       0       0       0       0       0       0       0       0       0
  6866 ;;Total ram usage:        0 bytes
  6867 ;; Hardware stack levels used: 1
  6868 ;; Hardware stack levels required when called: 2
  6869 ;; This function calls:
  6870 ;;		_OLED_Command
  6871 ;; This function is called by:
  6872 ;;		_main
  6873 ;; This function uses a non-reentrant model
  6874 ;;
  6875                           
  6876     0D81                     _OLED_Init:	
  6877                           ;psect for function _OLED_Init
  6878                           
  6879     0D81                     l1972:	
  6880                           ;incstack = 0
  6881                           ; Regs used in _OLED_Init: [wreg+status,2+status,0+pclath+cstack]
  6882                           
  6883                           
  6884                           ;oled.c: 176:     OLED_Command(0xAE);
  6885     0D81  30AE               	movlw	174
  6886     0D82  318B  2395  318D   	fcall	_OLED_Command
  6887                           
  6888                           ;oled.c: 177:     OLED_Command(0xD5);
  6889     0D85  30D5               	movlw	213
  6890     0D86  318B  2395  318D   	fcall	_OLED_Command
  6891                           
  6892                           ;oled.c: 178:     OLED_Command(0x80);
  6893     0D89  3080               	movlw	128
  6894     0D8A  318B  2395  318D   	fcall	_OLED_Command
  6895                           
  6896                           ;oled.c: 179:     OLED_Command(0xA8);
  6897     0D8D  30A8               	movlw	168
  6898     0D8E  318B  2395  318D   	fcall	_OLED_Command
  6899                           
  6900                           ;oled.c: 180:     OLED_Command(0x1F);
  6901     0D91  301F               	movlw	31
  6902     0D92  318B  2395  318D   	fcall	_OLED_Command
  6903                           
  6904                           ;oled.c: 181:     OLED_Command(0xD3);
  6905     0D95  30D3               	movlw	211
  6906     0D96  318B  2395  318D   	fcall	_OLED_Command
  6907                           
  6908                           ;oled.c: 182:     OLED_Command(0x0);
  6909     0D99  3000               	movlw	0
  6910     0D9A  318B  2395  318D   	fcall	_OLED_Command
  6911                           
  6912                           ;oled.c: 183:     OLED_Command(0x40 | 0x0);
  6913     0D9D  3040               	movlw	64
  6914     0D9E  318B  2395  318D   	fcall	_OLED_Command
  6915                           
  6916                           ;oled.c: 184:     OLED_Command(0x8D);
  6917     0DA1  308D               	movlw	141
  6918     0DA2  318B  2395  318D   	fcall	_OLED_Command
  6919                           
  6920                           ;oled.c: 185:     OLED_Command(0xAF);
  6921     0DA5  30AF               	movlw	175
  6922     0DA6  318B  2395  318D   	fcall	_OLED_Command
  6923                           
  6924                           ;oled.c: 186:     OLED_Command(0x20);
  6925     0DA9  3020               	movlw	32
  6926     0DAA  318B  2395  318D   	fcall	_OLED_Command
  6927                           
  6928                           ;oled.c: 187:     OLED_Command(0x00);
  6929     0DAD  3000               	movlw	0
  6930     0DAE  318B  2395  318D   	fcall	_OLED_Command
  6931                           
  6932                           ;oled.c: 188:     OLED_Command(0xA0 | 0x1);
  6933     0DB1  30A1               	movlw	161
  6934     0DB2  318B  2395  318D   	fcall	_OLED_Command
  6935                           
  6936                           ;oled.c: 189:     OLED_Command(0xC8);
  6937     0DB5  30C8               	movlw	200
  6938     0DB6  318B  2395  318D   	fcall	_OLED_Command
  6939                           
  6940                           ;oled.c: 190:     OLED_Command(0xDA);
  6941     0DB9  30DA               	movlw	218
  6942     0DBA  318B  2395  318D   	fcall	_OLED_Command
  6943                           
  6944                           ;oled.c: 191:     OLED_Command(0x02);
  6945     0DBD  3002               	movlw	2
  6946     0DBE  318B  2395  318D   	fcall	_OLED_Command
  6947                           
  6948                           ;oled.c: 192:     OLED_Command(0x81);
  6949     0DC1  3081               	movlw	129
  6950     0DC2  318B  2395  318D   	fcall	_OLED_Command
  6951                           
  6952                           ;oled.c: 193:     OLED_Command(0x8F);
  6953     0DC5  308F               	movlw	143
  6954     0DC6  318B  2395  318D   	fcall	_OLED_Command
  6955                           
  6956                           ;oled.c: 194:     OLED_Command(0xD9);
  6957     0DC9  30D9               	movlw	217
  6958     0DCA  318B  2395  318D   	fcall	_OLED_Command
  6959                           
  6960                           ;oled.c: 195:     OLED_Command(0xF1);
  6961     0DCD  30F1               	movlw	241
  6962     0DCE  318B  2395  318D   	fcall	_OLED_Command
  6963                           
  6964                           ;oled.c: 196:     OLED_Command(0xDB);
  6965     0DD1  30DB               	movlw	219
  6966     0DD2  318B  2395  318D   	fcall	_OLED_Command
  6967                           
  6968                           ;oled.c: 197:     OLED_Command(0x40);
  6969     0DD5  3040               	movlw	64
  6970     0DD6  318B  2395  318D   	fcall	_OLED_Command
  6971                           
  6972                           ;oled.c: 198:     OLED_Command(0xA4);
  6973     0DD9  30A4               	movlw	164
  6974     0DDA  318B  2395  318D   	fcall	_OLED_Command
  6975                           
  6976                           ;oled.c: 199:     OLED_Command(0xA6);
  6977     0DDD  30A6               	movlw	166
  6978     0DDE  318B  2395  318D   	fcall	_OLED_Command
  6979                           
  6980                           ;oled.c: 200:     OLED_Command(0xAF);
  6981     0DE1  30AF               	movlw	175
  6982     0DE2  318B  2395  318D   	fcall	_OLED_Command
  6983     0DE5                     l76:
  6984     0DE5  0008               	return
  6985     0DE6                     __end_of_OLED_Init:
  6986                           
  6987                           	psect	text16
  6988     0C41                     __ptext16:	
  6989 ;; *************** function _OLED_Clear *****************
  6990 ;; Defined at:
  6991 ;;		line 264 in file "oled.c"
  6992 ;; Parameters:    Size  Location     Type
  6993 ;;		None
  6994 ;; Auto vars:     Size  Location     Type
  6995 ;;  col             2   20[BANK0 ] unsigned short 
  6996 ;;  row             2   18[BANK0 ] unsigned short 
  6997 ;; Return value:  Size  Location     Type
  6998 ;;                  1    wreg      void 
  6999 ;; Registers used:
  7000 ;;		wreg, fsr0l, fsr0h, fsr1l, fsr1h, status,2, status,0, pclath, cstack
  7001 ;; Tracked objects:
  7002 ;;		On entry : 0/0
  7003 ;;		On exit  : 0/0
  7004 ;;		Unchanged: 0/0
  7005 ;; Data sizes:     COMMON   BANK0   BANK1   BANK2   BANK3   BANK4   BANK5   BANK6   BANK7   BANK8   BANK9  BANK10  BANK1
      +1  BANK12  BANK13  BANK14  BANK15  BANK16  BANK17  BANK18  BANK19  BANK20  BANK21  BANK22  BANK23  BANK24  BANK25
  7006 ;;      Params:         0       0       0       0       0       0       0       0       0       0       0       0       
      +0       0       0       0       0       0       0       0       0       0       0       0       0       0       0
  7007 ;;      Locals:         0       4       0       0       0       0       0       0       0       0       0       0       
      +0       0       0       0       0       0       0       0       0       0       0       0       0       0       0
  7008 ;;      Temps:          0       0       0       0       0       0       0       0       0       0       0       0       
      +0       0       0       0       0       0       0       0       0       0       0       0       0       0       0
  7009 ;;      Totals:         0       4       0       0       0       0       0       0       0       0       0       0       
      +0       0       0       0       0       0       0       0       0       0       0       0       0       0       0
  7010 ;;Total ram usage:        4 bytes
  7011 ;; Hardware stack levels used: 1
  7012 ;; Hardware stack levels required when called: 3
  7013 ;; This function calls:
  7014 ;;		_OLED_PutChar
  7015 ;;		_OLED_YX
  7016 ;; This function is called by:
  7017 ;;		_main
  7018 ;; This function uses a non-reentrant model
  7019 ;;
  7020                           
  7021     0C41                     _OLED_Clear:	
  7022                           ;psect for function _OLED_Clear
  7023                           
  7024     0C41                     l1974:	
  7025                           ;incstack = 0
  7026                           ; Regs used in _OLED_Clear: [wreg-fsr1h+status,2+status,0+pclath+cstack]
  7027                           
  7028                           
  7029                           ;oled.c: 266:     for ( uint16_t row = 0; row < 8; row++ ) {
  7030     0C41  0020               	movlb	0	; select bank0
  7031     0C42  01B2               	clrf	OLED_Clear@row
  7032     0C43  01B3               	clrf	OLED_Clear@row+1
  7033     0C44                     l1980:
  7034                           
  7035                           ;oled.c: 267:         for ( uint16_t col = 0; col < 16; col++ ) {
  7036     0C44  01B4               	clrf	OLED_Clear@col
  7037     0C45  01B5               	clrf	OLED_Clear@col+1
  7038     0C46                     l1986:
  7039                           
  7040                           ;oled.c: 268:             OLED_YX( row, col );
  7041     0C46  0834               	movf	OLED_Clear@col,w
  7042     0C47  00F5               	movwf	OLED_YX@Column
  7043     0C48  0832               	movf	OLED_Clear@row,w
  7044     0C49  318C  2418  318C   	fcall	_OLED_YX
  7045     0C4C                     l1988:
  7046                           
  7047                           ;oled.c: 269:             OLED_PutChar(' ');
  7048     0C4C  3020               	movlw	32
  7049     0C4D  318E  2651  318C   	fcall	_OLED_PutChar
  7050     0C50                     l1990:
  7051                           
  7052                           ;oled.c: 270:         }
  7053     0C50  3001               	movlw	1
  7054     0C51  0020               	movlb	0	; select bank0
  7055     0C52  07B4               	addwf	OLED_Clear@col,f
  7056     0C53  3000               	movlw	0
  7057     0C54  3DB5               	addwfc	OLED_Clear@col+1,f
  7058     0C55                     l1992:
  7059     0C55  3000               	movlw	0
  7060     0C56  0235               	subwf	OLED_Clear@col+1,w
  7061     0C57  3010               	movlw	16
  7062     0C58  1903               	skipnz
  7063     0C59  0234               	subwf	OLED_Clear@col,w
  7064     0C5A  1C03               	skipc
  7065     0C5B  2C5D               	goto	u2171
  7066     0C5C  2C5E               	goto	u2170
  7067     0C5D                     u2171:
  7068     0C5D  2C46               	goto	l1986
  7069     0C5E                     u2170:
  7070     0C5E                     l1994:
  7071                           
  7072                           ;oled.c: 271:     }
  7073     0C5E  3001               	movlw	1
  7074     0C5F  07B2               	addwf	OLED_Clear@row,f
  7075     0C60  3000               	movlw	0
  7076     0C61  3DB3               	addwfc	OLED_Clear@row+1,f
  7077     0C62  3000               	movlw	0
  7078     0C63  0233               	subwf	OLED_Clear@row+1,w
  7079     0C64  3008               	movlw	8
  7080     0C65  1903               	skipnz
  7081     0C66  0232               	subwf	OLED_Clear@row,w
  7082     0C67  1C03               	skipc
  7083     0C68  2C6A               	goto	u2181
  7084     0C69  2C6B               	goto	u2180
  7085     0C6A                     u2181:
  7086     0C6A  2C44               	goto	l1980
  7087     0C6B                     u2180:
  7088     0C6B                     l94:
  7089     0C6B  0008               	return
  7090     0C6C                     __end_of_OLED_Clear:
  7091                           
  7092                           	psect	text17
  7093     0C18                     __ptext17:	
  7094 ;; *************** function _OLED_YX *****************
  7095 ;; Defined at:
  7096 ;;		line 213 in file "oled.c"
  7097 ;; Parameters:    Size  Location     Type
  7098 ;;  Row             1    wreg     unsigned char 
  7099 ;;  Column          1    5[COMMON] unsigned char 
  7100 ;; Auto vars:     Size  Location     Type
  7101 ;;  Row             1    9[COMMON] unsigned char 
  7102 ;; Return value:  Size  Location     Type
  7103 ;;                  1    wreg      void 
  7104 ;; Registers used:
  7105 ;;		wreg, status,2, status,0, pclath, cstack
  7106 ;; Tracked objects:
  7107 ;;		On entry : 0/0
  7108 ;;		On exit  : 0/0
  7109 ;;		Unchanged: 0/0
  7110 ;; Data sizes:     COMMON   BANK0   BANK1   BANK2   BANK3   BANK4   BANK5   BANK6   BANK7   BANK8   BANK9  BANK10  BANK1
      +1  BANK12  BANK13  BANK14  BANK15  BANK16  BANK17  BANK18  BANK19  BANK20  BANK21  BANK22  BANK23  BANK24  BANK25
  7111 ;;      Params:         1       0       0       0       0       0       0       0       0       0       0       0       
      +0       0       0       0       0       0       0       0       0       0       0       0       0       0       0
  7112 ;;      Locals:         1       0       0       0       0       0       0       0       0       0       0       0       
      +0       0       0       0       0       0       0       0       0       0       0       0       0       0       0
  7113 ;;      Temps:          3       0       0       0       0       0       0       0       0       0       0       0       
      +0       0       0       0       0       0       0       0       0       0       0       0       0       0       0
  7114 ;;      Totals:         5       0       0       0       0       0       0       0       0       0       0       0       
      +0       0       0       0       0       0       0       0       0       0       0       0       0       0       0
  7115 ;;Total ram usage:        5 bytes
  7116 ;; Hardware stack levels used: 1
  7117 ;; Hardware stack levels required when called: 2
  7118 ;; This function calls:
  7119 ;;		_OLED_Command
  7120 ;; This function is called by:
  7121 ;;		_OLED_Clear
  7122 ;;		_main
  7123 ;; This function uses a non-reentrant model
  7124 ;;
  7125                           
  7126     0C18                     _OLED_YX:	
  7127                           ;psect for function _OLED_YX
  7128                           
  7129                           
  7130                           ;incstack = 0
  7131                           ; Regs used in _OLED_YX: [wreg+status,2+status,0+pclath+cstack]
  7132                           ;OLED_YX@Row stored from wreg
  7133     0C18  00F9               	movwf	OLED_YX@Row
  7134     0C19                     l1920:
  7135                           
  7136                           ;oled.c: 213: void OLED_YX(unsigned char Row, unsigned char Column);oled.c: 214: {;oled.
      +                          c: 215:     OLED_Command( 0xB0 + Row);
  7137     0C19  0879               	movf	OLED_YX@Row,w
  7138     0C1A  3EB0               	addlw	176
  7139     0C1B  318B  2395  318C   	fcall	_OLED_Command
  7140                           
  7141                           ;oled.c: 216:     OLED_Command( 0x00 + (8*Column & 0x0F) );
  7142     0C1E  0875               	movf	OLED_YX@Column,w
  7143     0C1F  00F6               	movwf	??_OLED_YX
  7144     0C20  3002               	movlw	2
  7145     0C21                     u2085:
  7146     0C21  35F6               	lslf	??_OLED_YX,f
  7147     0C22  3EFF               	addlw	-1
  7148     0C23  1D03               	skipz
  7149     0C24  2C21               	goto	u2085
  7150     0C25  3576               	lslf	??_OLED_YX,w
  7151     0C26  390F               	andlw	15
  7152     0C27  318B  2395  318C   	fcall	_OLED_Command
  7153                           
  7154                           ;oled.c: 217:     OLED_Command( 0x10 + ((8*Column>>4)&0x0F) );
  7155     0C2A  0875               	movf	OLED_YX@Column,w
  7156     0C2B  00F6               	movwf	??_OLED_YX
  7157     0C2C  01F7               	clrf	??_OLED_YX+1
  7158     0C2D  35F6               	lslf	??_OLED_YX,f
  7159     0C2E  0DF7               	rlf	??_OLED_YX+1,f
  7160     0C2F  35F6               	lslf	??_OLED_YX,f
  7161     0C30  0DF7               	rlf	??_OLED_YX+1,f
  7162     0C31  35F6               	lslf	??_OLED_YX,f
  7163     0C32  0DF7               	rlf	??_OLED_YX+1,f
  7164     0C33  3004               	movlw	4
  7165     0C34  00F8               	movwf	??_OLED_YX+2
  7166     0C35                     u2095:
  7167     0C35  0D77               	rlf	??_OLED_YX+1,w
  7168     0C36  0CF7               	rrf	??_OLED_YX+1,f
  7169     0C37  0CF6               	rrf	??_OLED_YX,f
  7170     0C38  0BF8               	decfsz	??_OLED_YX+2,f
  7171     0C39  2C35               	goto	u2095
  7172     0C3A  0876               	movf	??_OLED_YX,w
  7173     0C3B  390F               	andlw	15
  7174     0C3C  3E10               	addlw	16
  7175     0C3D  318B  2395  318C   	fcall	_OLED_Command
  7176     0C40                     l79:
  7177     0C40  0008               	return
  7178     0C41                     __end_of_OLED_YX:
  7179                           
  7180                           	psect	text18
  7181     0B95                     __ptext18:	
  7182 ;; *************** function _OLED_Command *****************
  7183 ;; Defined at:
  7184 ;;		line 138 in file "oled.c"
  7185 ;; Parameters:    Size  Location     Type
  7186 ;;  temp            1    wreg     unsigned char 
  7187 ;; Auto vars:     Size  Location     Type
  7188 ;;  temp            1    4[COMMON] unsigned char 
  7189 ;; Return value:  Size  Location     Type
  7190 ;;                  1    wreg      void 
  7191 ;; Registers used:
  7192 ;;		wreg, status,2, status,0, pclath, cstack
  7193 ;; Tracked objects:
  7194 ;;		On entry : 0/0
  7195 ;;		On exit  : 0/0
  7196 ;;		Unchanged: 0/0
  7197 ;; Data sizes:     COMMON   BANK0   BANK1   BANK2   BANK3   BANK4   BANK5   BANK6   BANK7   BANK8   BANK9  BANK10  BANK1
      +1  BANK12  BANK13  BANK14  BANK15  BANK16  BANK17  BANK18  BANK19  BANK20  BANK21  BANK22  BANK23  BANK24  BANK25
  7198 ;;      Params:         0       0       0       0       0       0       0       0       0       0       0       0       
      +0       0       0       0       0       0       0       0       0       0       0       0       0       0       0
  7199 ;;      Locals:         1       0       0       0       0       0       0       0       0       0       0       0       
      +0       0       0       0       0       0       0       0       0       0       0       0       0       0       0
  7200 ;;      Temps:          2       0       0       0       0       0       0       0       0       0       0       0       
      +0       0       0       0       0       0       0       0       0       0       0       0       0       0       0
  7201 ;;      Totals:         3       0       0       0       0       0       0       0       0       0       0       0       
      +0       0       0       0       0       0       0       0       0       0       0       0       0       0       0
  7202 ;;Total ram usage:        3 bytes
  7203 ;; Hardware stack levels used: 1
  7204 ;; Hardware stack levels required when called: 1
  7205 ;; This function calls:
  7206 ;;		_Send_I2C_Data
  7207 ;;		_Send_I2C_StartBit
  7208 ;;		_Send_I2C_StopBit
  7209 ;; This function is called by:
  7210 ;;		_OLED_Init
  7211 ;;		_OLED_YX
  7212 ;; This function uses a non-reentrant model
  7213 ;;
  7214                           
  7215     0B95                     _OLED_Command:	
  7216                           ;psect for function _OLED_Command
  7217                           
  7218                           
  7219                           ;incstack = 0
  7220                           ; Regs used in _OLED_Command: [wreg+status,2+status,0+pclath+cstack]
  7221                           ;OLED_Command@temp stored from wreg
  7222     0B95  00F4               	movwf	OLED_Command@temp
  7223     0B96                     l1782:
  7224                           
  7225                           ;oled.c: 140:     Send_I2C_StartBit();
  7226     0B96  318B  2366  318B   	fcall	_Send_I2C_StartBit
  7227     0B99                     l1784:
  7228                           
  7229                           ;oled.c: 141:     Send_I2C_Data(0x3C << 1);
  7230     0B99  3078               	movlw	120
  7231     0B9A  00F0               	movwf	Send_I2C_Data@databyte
  7232     0B9B  3000               	movlw	0
  7233     0B9C  00F1               	movwf	Send_I2C_Data@databyte+1
  7234     0B9D  318B  237A  318B   	fcall	_Send_I2C_Data
  7235     0BA0                     l1786:
  7236                           
  7237                           ;oled.c: 142:     Send_I2C_Data(0x00);
  7238     0BA0  3000               	movlw	0
  7239     0BA1  00F0               	movwf	Send_I2C_Data@databyte
  7240     0BA2  00F1               	movwf	Send_I2C_Data@databyte+1
  7241     0BA3  318B  237A  318B   	fcall	_Send_I2C_Data
  7242     0BA6                     l1788:
  7243                           
  7244                           ;oled.c: 143:     Send_I2C_Data(temp);
  7245     0BA6  0874               	movf	OLED_Command@temp,w
  7246     0BA7  00F2               	movwf	??_OLED_Command
  7247     0BA8  01F3               	clrf	??_OLED_Command+1
  7248     0BA9  0872               	movf	??_OLED_Command,w
  7249     0BAA  00F0               	movwf	Send_I2C_Data@databyte
  7250     0BAB  0873               	movf	??_OLED_Command+1,w
  7251     0BAC  00F1               	movwf	Send_I2C_Data@databyte+1
  7252     0BAD  318B  237A  318B   	fcall	_Send_I2C_Data
  7253     0BB0                     l1790:
  7254                           
  7255                           ;oled.c: 144:     Send_I2C_StopBit();
  7256     0BB0  318B  2370  318B   	fcall	_Send_I2C_StopBit
  7257     0BB3                     l70:
  7258     0BB3  0008               	return
  7259     0BB4                     __end_of_OLED_Command:
  7260                           
  7261                           	psect	text19
  7262     0E51                     __ptext19:	
  7263 ;; *************** function _OLED_PutChar *****************
  7264 ;; Defined at:
  7265 ;;		line 229 in file "oled.c"
  7266 ;; Parameters:    Size  Location     Type
  7267 ;;  ch              1    wreg     unsigned char 
  7268 ;; Auto vars:     Size  Location     Type
  7269 ;;  ch              1   17[BANK0 ] unsigned char 
  7270 ;;  bytes           9    4[BANK0 ] unsigned char [9]
  7271 ;;  i               2   15[BANK0 ] int 
  7272 ;;  base            2   13[BANK0 ] PTR const unsigned char 
  7273 ;;		 -> OledFont(768), 
  7274 ;; Return value:  Size  Location     Type
  7275 ;;                  1    wreg      void 
  7276 ;; Registers used:
  7277 ;;		wreg, fsr0l, fsr0h, fsr1l, fsr1h, status,2, status,0, pclath, cstack
  7278 ;; Tracked objects:
  7279 ;;		On entry : 0/0
  7280 ;;		On exit  : 0/0
  7281 ;;		Unchanged: 0/0
  7282 ;; Data sizes:     COMMON   BANK0   BANK1   BANK2   BANK3   BANK4   BANK5   BANK6   BANK7   BANK8   BANK9  BANK10  BANK1
      +1  BANK12  BANK13  BANK14  BANK15  BANK16  BANK17  BANK18  BANK19  BANK20  BANK21  BANK22  BANK23  BANK24  BANK25
  7283 ;;      Params:         0       0       0       0       0       0       0       0       0       0       0       0       
      +0       0       0       0       0       0       0       0       0       0       0       0       0       0       0
  7284 ;;      Locals:         0      14       0       0       0       0       0       0       0       0       0       0       
      +0       0       0       0       0       0       0       0       0       0       0       0       0       0       0
  7285 ;;      Temps:          0       4       0       0       0       0       0       0       0       0       0       0       
      +0       0       0       0       0       0       0       0       0       0       0       0       0       0       0
  7286 ;;      Totals:         0      18       0       0       0       0       0       0       0       0       0       0       
      +0       0       0       0       0       0       0       0       0       0       0       0       0       0       0
  7287 ;;Total ram usage:       18 bytes
  7288 ;; Hardware stack levels used: 1
  7289 ;; Hardware stack levels required when called: 1
  7290 ;; This function calls:
  7291 ;;		_Send_I2C_Data
  7292 ;;		_Send_I2C_StartBit
  7293 ;;		_Send_I2C_StopBit
  7294 ;;		_memmove
  7295 ;; This function is called by:
  7296 ;;		_OLED_Clear
  7297 ;;		_OLED_Write_String
  7298 ;; This function uses a non-reentrant model
  7299 ;;
  7300                           
  7301     0E51                     _OLED_PutChar:	
  7302                           ;psect for function _OLED_PutChar
  7303                           
  7304                           
  7305                           ;incstack = 0
  7306                           ; Regs used in _OLED_PutChar: [wreg-fsr1h+status,2+status,0+pclath+cstack]
  7307                           ;OLED_PutChar@ch stored from wreg
  7308     0E51  0020               	movlb	0	; select bank0
  7309     0E52  00B1               	movwf	OLED_PutChar@ch
  7310     0E53                     l1792:
  7311                           
  7312                           ;oled.c: 229: void OLED_PutChar( char ch );oled.c: 230: {;oled.c: 231:     if ( ( ch < 3
      +                          2 ) || ( ch > 127 ) ){
  7313     0E53  3020               	movlw	32
  7314     0E54  0231               	subwf	OLED_PutChar@ch,w
  7315     0E55  1C03               	skipc
  7316     0E56  2E58               	goto	u1821
  7317     0E57  2E59               	goto	u1820
  7318     0E58                     u1821:
  7319     0E58  2E5F               	goto	l1796
  7320     0E59                     u1820:
  7321     0E59                     l1794:
  7322     0E59  3080               	movlw	128
  7323     0E5A  0231               	subwf	OLED_PutChar@ch,w
  7324     0E5B  1C03               	skipc
  7325     0E5C  2E5E               	goto	u1831
  7326     0E5D  2E5F               	goto	u1830
  7327     0E5E                     u1831:
  7328     0E5E  2E61               	goto	l1798
  7329     0E5F                     u1830:
  7330     0E5F                     l1796:
  7331                           
  7332                           ;oled.c: 232:         ch = ' ';
  7333     0E5F  3020               	movlw	32
  7334     0E60  00B1               	movwf	OLED_PutChar@ch
  7335     0E61                     l1798:
  7336                           
  7337                           ;oled.c: 235:     const uint8_t *base = &OledFont[ch - 32][0];
  7338     0E61  0831               	movf	OLED_PutChar@ch,w
  7339     0E62  00A0               	movwf	??_OLED_PutChar
  7340     0E63  01A1               	clrf	??_OLED_PutChar+1
  7341     0E64  35A0               	lslf	??_OLED_PutChar,f
  7342     0E65  0DA1               	rlf	??_OLED_PutChar+1,f
  7343     0E66  35A0               	lslf	??_OLED_PutChar,f
  7344     0E67  0DA1               	rlf	??_OLED_PutChar+1,f
  7345     0E68  35A0               	lslf	??_OLED_PutChar,f
  7346     0E69  0DA1               	rlf	??_OLED_PutChar+1,f
  7347     0E6A  3000               	movlw	low ((_OledFont| (0+32768)+65280))
  7348     0E6B  00A2               	movwf	??_OLED_PutChar+2
  7349     0E6C  3087               	movlw	high ((_OledFont| (0+32768)+65280))
  7350     0E6D  00A3               	movwf	??_OLED_PutChar+3
  7351     0E6E  0820               	movf	??_OLED_PutChar,w
  7352     0E6F  0722               	addwf	??_OLED_PutChar+2,w
  7353     0E70  00AD               	movwf	OLED_PutChar@base
  7354     0E71  0821               	movf	??_OLED_PutChar+1,w
  7355     0E72  3D23               	addwfc	??_OLED_PutChar+3,w
  7356     0E73  00AE               	movwf	OLED_PutChar@base+1
  7357     0E74                     l1800:
  7358                           
  7359                           ;oled.c: 237:     uint8_t bytes[9];;oled.c: 238:     bytes[0] = 0x40;
  7360     0E74  3040               	movlw	64
  7361     0E75  00A4               	movwf	OLED_PutChar@bytes
  7362     0E76                     l1802:
  7363                           
  7364                           ;oled.c: 239:     memmove( bytes + 1, base, 8 );
  7365     0E76  082E               	movf	OLED_PutChar@base+1,w
  7366     0E77  00F1               	movwf	memmove@s1+1
  7367     0E78  082D               	movf	OLED_PutChar@base,w
  7368     0E79  00F0               	movwf	memmove@s1
  7369     0E7A  3008               	movlw	8
  7370     0E7B  00F2               	movwf	memmove@n
  7371     0E7C  3000               	movlw	0
  7372     0E7D  00F3               	movwf	memmove@n+1
  7373     0E7E  3025               	movlw	(low ((OLED_PutChar@bytes| 0+1)))& (0+255)
  7374     0E7F  318D  25E6  318E   	fcall	_memmove
  7375     0E82                     l1804:
  7376                           
  7377                           ;oled.c: 241:     Send_I2C_StartBit();
  7378     0E82  318B  2366  318E   	fcall	_Send_I2C_StartBit
  7379     0E85                     l1806:
  7380                           
  7381                           ;oled.c: 242:     Send_I2C_Data(0x3C << 1);
  7382     0E85  3078               	movlw	120
  7383     0E86  00F0               	movwf	Send_I2C_Data@databyte
  7384     0E87  3000               	movlw	0
  7385     0E88  00F1               	movwf	Send_I2C_Data@databyte+1
  7386     0E89  318B  237A  318E   	fcall	_Send_I2C_Data
  7387     0E8C                     l1808:
  7388                           
  7389                           ;oled.c: 243:     Send_I2C_Data(0x40);
  7390     0E8C  3040               	movlw	64
  7391     0E8D  00F0               	movwf	Send_I2C_Data@databyte
  7392     0E8E  3000               	movlw	0
  7393     0E8F  00F1               	movwf	Send_I2C_Data@databyte+1
  7394     0E90  318B  237A  318E   	fcall	_Send_I2C_Data
  7395     0E93                     l1810:
  7396                           
  7397                           ;oled.c: 245:     int i;;oled.c: 247:     for (i = 1; i <= 8; i++){
  7398     0E93  3001               	movlw	1
  7399     0E94  0020               	movlb	0	; select bank0
  7400     0E95  00AF               	movwf	OLED_PutChar@i
  7401     0E96  3000               	movlw	0
  7402     0E97  00B0               	movwf	OLED_PutChar@i+1
  7403     0E98                     l1816:
  7404                           
  7405                           ;oled.c: 248:          Send_I2C_Data(bytes[i]);
  7406     0E98  0020               	movlb	0	; select bank0
  7407     0E99  082F               	movf	OLED_PutChar@i,w
  7408     0E9A  3E24               	addlw	(low (OLED_PutChar@bytes| 0))& (0+255)
  7409     0E9B  0086               	movwf	6
  7410     0E9C  0187               	clrf	7
  7411     0E9D  0801               	movf	1,w
  7412     0E9E  00A0               	movwf	??_OLED_PutChar
  7413     0E9F  01A1               	clrf	??_OLED_PutChar+1
  7414     0EA0  0820               	movf	??_OLED_PutChar,w
  7415     0EA1  00F0               	movwf	Send_I2C_Data@databyte
  7416     0EA2  0821               	movf	??_OLED_PutChar+1,w
  7417     0EA3  00F1               	movwf	Send_I2C_Data@databyte+1
  7418     0EA4  318B  237A  318E   	fcall	_Send_I2C_Data
  7419     0EA7                     l1818:
  7420                           
  7421                           ;oled.c: 249:     }
  7422     0EA7  3001               	movlw	1
  7423     0EA8  0020               	movlb	0	; select bank0
  7424     0EA9  07AF               	addwf	OLED_PutChar@i,f
  7425     0EAA  3000               	movlw	0
  7426     0EAB  3DB0               	addwfc	OLED_PutChar@i+1,f
  7427     0EAC                     l1820:
  7428     0EAC  0830               	movf	OLED_PutChar@i+1,w
  7429     0EAD  3A80               	xorlw	128
  7430     0EAE  00A0               	movwf	??_OLED_PutChar
  7431     0EAF  3080               	movlw	128
  7432     0EB0  0220               	subwf	??_OLED_PutChar,w
  7433     0EB1  1D03               	skipz
  7434     0EB2  2EB5               	goto	u1845
  7435     0EB3  3009               	movlw	9
  7436     0EB4  022F               	subwf	OLED_PutChar@i,w
  7437     0EB5                     u1845:
  7438     0EB5  1C03               	skipc
  7439     0EB6  2EB8               	goto	u1841
  7440     0EB7  2EB9               	goto	u1840
  7441     0EB8                     u1841:
  7442     0EB8  2E98               	goto	l1816
  7443     0EB9                     u1840:
  7444     0EB9                     l1822:
  7445                           
  7446                           ;oled.c: 251:     Send_I2C_StopBit();
  7447     0EB9  318B  2370  318E   	fcall	_Send_I2C_StopBit
  7448     0EBC                     l87:
  7449     0EBC  0008               	return
  7450     0EBD                     __end_of_OLED_PutChar:
  7451                           
  7452                           	psect	text20
  7453     0DE6                     __ptext20:	
  7454 ;; *************** function _memmove *****************
  7455 ;; Defined at:
  7456 ;;		line 5 in file "C:\Program Files\Microchip\xc8\v2.45\pic\sources\c99\common\memmove.c"
  7457 ;; Parameters:    Size  Location     Type
  7458 ;;  d1              1    wreg     PTR void 
  7459 ;;		 -> OLED_PutChar@bytes(9), 
  7460 ;;  s1              2    0[COMMON] PTR const void 
  7461 ;;		 -> OledFont(768), 
  7462 ;;  n               2    2[COMMON] unsigned int 
  7463 ;; Auto vars:     Size  Location     Type
  7464 ;;  d1              1    6[COMMON] PTR void 
  7465 ;;		 -> OLED_PutChar@bytes(9), 
  7466 ;;  d               2   10[COMMON] struct .
  7467 ;;  s               2    8[COMMON] struct .
  7468 ;;  c               1    7[COMMON] unsigned char 
  7469 ;; Return value:  Size  Location     Type
  7470 ;;                  1    wreg      PTR void 
  7471 ;; Registers used:
  7472 ;;		wreg, fsr0l, fsr0h, fsr1l, fsr1h, status,2, status,0, pclath
  7473 ;; Tracked objects:
  7474 ;;		On entry : 0/0
  7475 ;;		On exit  : 0/0
  7476 ;;		Unchanged: 0/0
  7477 ;; Data sizes:     COMMON   BANK0   BANK1   BANK2   BANK3   BANK4   BANK5   BANK6   BANK7   BANK8   BANK9  BANK10  BANK1
      +1  BANK12  BANK13  BANK14  BANK15  BANK16  BANK17  BANK18  BANK19  BANK20  BANK21  BANK22  BANK23  BANK24  BANK25
  7478 ;;      Params:         4       0       0       0       0       0       0       0       0       0       0       0       
      +0       0       0       0       0       0       0       0       0       0       0       0       0       0       0
  7479 ;;      Locals:         6       0       0       0       0       0       0       0       0       0       0       0       
      +0       0       0       0       0       0       0       0       0       0       0       0       0       0       0
  7480 ;;      Temps:          2       0       0       0       0       0       0       0       0       0       0       0       
      +0       0       0       0       0       0       0       0       0       0       0       0       0       0       0
  7481 ;;      Totals:        12       0       0       0       0       0       0       0       0       0       0       0       
      +0       0       0       0       0       0       0       0       0       0       0       0       0       0       0
  7482 ;;Total ram usage:       12 bytes
  7483 ;; Hardware stack levels used: 1
  7484 ;; This function calls:
  7485 ;;		Nothing
  7486 ;; This function is called by:
  7487 ;;		_OLED_PutChar
  7488 ;; This function uses a non-reentrant model
  7489 ;;
  7490                           
  7491     0DE6                     _memmove:	
  7492                           ;psect for function _memmove
  7493                           
  7494                           
  7495                           ;incstack = 0
  7496                           ; Regs used in _memmove: [wreg-fsr1h+status,2+status,0+pclath]
  7497                           ;memmove@d1 stored from wreg
  7498     0DE6  00F6               	movwf	memmove@d1
  7499     0DE7                     l1748:
  7500     0DE7  01FA               	clrf	memmove@d
  7501     0DE8  01FB               	clrf	memmove@d+1
  7502     0DE9                     l1750:
  7503     0DE9  0871               	movf	memmove@s1+1,w
  7504     0DEA  00F9               	movwf	memmove@s+1
  7505     0DEB  0870               	movf	memmove@s1,w
  7506     0DEC  00F8               	movwf	memmove@s
  7507     0DED                     l1752:
  7508     0DED  0876               	movf	memmove@d1,w
  7509     0DEE  00FA               	movwf	memmove@d
  7510     0DEF                     l1754:
  7511     0DEF  087B               	movf	memmove@d+1,w
  7512     0DF0  0279               	subwf	memmove@s+1,w
  7513     0DF1  1D03               	skipz
  7514     0DF2  2DF5               	goto	u1775
  7515     0DF3  087A               	movf	memmove@d,w
  7516     0DF4  0278               	subwf	memmove@s,w
  7517     0DF5                     u1775:
  7518     0DF5  1803               	skipnc
  7519     0DF6  2DF8               	goto	u1771
  7520     0DF7  2DF9               	goto	u1770
  7521     0DF8                     u1771:
  7522     0DF8  2E2D               	goto	l1770
  7523     0DF9                     u1770:
  7524     0DF9                     l1756:
  7525     0DF9  0872               	movf	memmove@n,w
  7526     0DFA  0778               	addwf	memmove@s,w
  7527     0DFB  00F4               	movwf	??_memmove
  7528     0DFC  0873               	movf	memmove@n+1,w
  7529     0DFD  3D79               	addwfc	memmove@s+1,w
  7530     0DFE  00F5               	movwf	??_memmove+1
  7531     0DFF  0875               	movf	??_memmove+1,w
  7532     0E00  027B               	subwf	memmove@d+1,w
  7533     0E01  1D03               	skipz
  7534     0E02  2E05               	goto	u1785
  7535     0E03  0874               	movf	??_memmove,w
  7536     0E04  027A               	subwf	memmove@d,w
  7537     0E05                     u1785:
  7538     0E05  1803               	skipnc
  7539     0E06  2E08               	goto	u1781
  7540     0E07  2E09               	goto	u1780
  7541     0E08                     u1781:
  7542     0E08  2E2D               	goto	l1770
  7543     0E09                     u1780:
  7544     0E09                     l1758:
  7545     0E09  0872               	movf	memmove@n,w
  7546     0E0A  07F8               	addwf	memmove@s,f
  7547     0E0B  0873               	movf	memmove@n+1,w
  7548     0E0C  3DF9               	addwfc	memmove@s+1,f
  7549     0E0D                     l1760:
  7550     0E0D  0872               	movf	memmove@n,w
  7551     0E0E  00F4               	movwf	??_memmove
  7552     0E0F  0874               	movf	??_memmove,w
  7553     0E10  07FA               	addwf	memmove@d,f
  7554     0E11                     l1762:
  7555     0E11  3001               	movlw	1
  7556     0E12  02F8               	subwf	memmove@s,f
  7557     0E13  3000               	movlw	0
  7558     0E14  3BF9               	subwfb	memmove@s+1,f
  7559     0E15  0878               	movf	memmove@s,w
  7560     0E16  0084               	movwf	4
  7561     0E17  0879               	movf	memmove@s+1,w
  7562     0E18  0085               	movwf	5
  7563     0E19  0800               	movf	0,w	;code access
  7564     0E1A  00F7               	movwf	memmove@c
  7565     0E1B                     l1764:
  7566     0E1B  3001               	movlw	1
  7567     0E1C  02FA               	subwf	memmove@d,f
  7568     0E1D                     l1766:
  7569     0E1D  087A               	movf	memmove@d,w
  7570     0E1E  0086               	movwf	6
  7571     0E1F  0187               	clrf	7
  7572     0E20  0877               	movf	memmove@c,w
  7573     0E21  0081               	movwf	1
  7574     0E22                     l1768:
  7575     0E22  3001               	movlw	1
  7576     0E23  02F2               	subwf	memmove@n,f
  7577     0E24  3000               	movlw	0
  7578     0E25  3BF3               	subwfb	memmove@n+1,f
  7579     0E26  0872               	movf	memmove@n,w
  7580     0E27  0473               	iorwf	memmove@n+1,w
  7581     0E28  1D03               	btfss	3,2
  7582     0E29  2E2B               	goto	u1791
  7583     0E2A  2E2C               	goto	u1790
  7584     0E2B                     u1791:
  7585     0E2B  2E11               	goto	l1762
  7586     0E2C                     u1790:
  7587     0E2C  2E50               	goto	l762
  7588     0E2D                     l1770:
  7589     0E2D  0872               	movf	memmove@n,w
  7590     0E2E  0473               	iorwf	memmove@n+1,w
  7591     0E2F  1903               	btfsc	3,2
  7592     0E30  2E32               	goto	u1801
  7593     0E31  2E33               	goto	u1800
  7594     0E32                     u1801:
  7595     0E32  2E50               	goto	l762
  7596     0E33                     u1800:
  7597     0E33                     l1772:
  7598     0E33  0878               	movf	memmove@s,w
  7599     0E34  0084               	movwf	4
  7600     0E35  0879               	movf	memmove@s+1,w
  7601     0E36  0085               	movwf	5
  7602     0E37  0800               	movf	0,w	;code access
  7603     0E38  00F7               	movwf	memmove@c
  7604     0E39                     l1774:
  7605     0E39  3001               	movlw	1
  7606     0E3A  07F8               	addwf	memmove@s,f
  7607     0E3B  3000               	movlw	0
  7608     0E3C  3DF9               	addwfc	memmove@s+1,f
  7609     0E3D                     l1776:
  7610     0E3D  087A               	movf	memmove@d,w
  7611     0E3E  0086               	movwf	6
  7612     0E3F  0187               	clrf	7
  7613     0E40  0877               	movf	memmove@c,w
  7614     0E41  0081               	movwf	1
  7615     0E42                     l1778:
  7616     0E42  3001               	movlw	1
  7617     0E43  00F4               	movwf	??_memmove
  7618     0E44  0874               	movf	??_memmove,w
  7619     0E45  07FA               	addwf	memmove@d,f
  7620     0E46                     l1780:
  7621     0E46  3001               	movlw	1
  7622     0E47  02F2               	subwf	memmove@n,f
  7623     0E48  3000               	movlw	0
  7624     0E49  3BF3               	subwfb	memmove@n+1,f
  7625     0E4A  0872               	movf	memmove@n,w
  7626     0E4B  0473               	iorwf	memmove@n+1,w
  7627     0E4C  1D03               	btfss	3,2
  7628     0E4D  2E4F               	goto	u1811
  7629     0E4E  2E50               	goto	u1810
  7630     0E4F                     u1811:
  7631     0E4F  2E33               	goto	l1772
  7632     0E50                     u1810:
  7633     0E50                     l762:
  7634     0E50  0008               	return
  7635     0E51                     __end_of_memmove:
  7636                           
  7637                           	psect	text21
  7638     0B70                     __ptext21:	
  7639 ;; *************** function _Send_I2C_StopBit *****************
  7640 ;; Defined at:
  7641 ;;		line 106 in file "I2C.c"
  7642 ;; Parameters:    Size  Location     Type
  7643 ;;		None
  7644 ;; Auto vars:     Size  Location     Type
  7645 ;;		None
  7646 ;; Return value:  Size  Location     Type
  7647 ;;                  1    wreg      void 
  7648 ;; Registers used:
  7649 ;;		None
  7650 ;; Tracked objects:
  7651 ;;		On entry : 0/0
  7652 ;;		On exit  : 0/0
  7653 ;;		Unchanged: 0/0
  7654 ;; Data sizes:     COMMON   BANK0   BANK1   BANK2   BANK3   BANK4   BANK5   BANK6   BANK7   BANK8   BANK9  BANK10  BANK1
      +1  BANK12  BANK13  BANK14  BANK15  BANK16  BANK17  BANK18  BANK19  BANK20  BANK21  BANK22  BANK23  BANK24  BANK25
  7655 ;;      Params:         0       0       0       0       0       0       0       0       0       0       0       0       
      +0       0       0       0       0       0       0       0       0       0       0       0       0       0       0
  7656 ;;      Locals:         0       0       0       0       0       0       0       0       0       0       0       0       
      +0       0       0       0       0       0       0       0       0       0       0       0       0       0       0
  7657 ;;      Temps:          0       0       0       0       0       0       0       0       0       0       0       0       
      +0       0       0       0       0       0       0       0       0       0       0       0       0       0       0
  7658 ;;      Totals:         0       0       0       0       0       0       0       0       0       0       0       0       
      +0       0       0       0       0       0       0       0       0       0       0       0       0       0       0
  7659 ;;Total ram usage:        0 bytes
  7660 ;; Hardware stack levels used: 1
  7661 ;; This function calls:
  7662 ;;		Nothing
  7663 ;; This function is called by:
  7664 ;;		_OLED_Command
  7665 ;;		_OLED_PutChar
  7666 ;;		_OLED_Data
  7667 ;; This function uses a non-reentrant model
  7668 ;;
  7669                           
  7670     0B70                     _Send_I2C_StopBit:	
  7671                           ;psect for function _Send_I2C_StopBit
  7672                           
  7673     0B70                     l1746:	
  7674                           ;incstack = 0
  7675                           ; Regs used in _Send_I2C_StopBit: []
  7676                           
  7677                           
  7678                           ;I2C.c: 108:     PIR1bits.SSP1IF=0;
  7679     0B70  0020               	movlb	0	; select bank0
  7680     0B71  1191               	bcf	17,3	;volatile
  7681                           
  7682                           ;I2C.c: 109:     SSPCON2bits.PEN=1;
  7683     0B72  0024               	movlb	4	; select bank4
  7684     0B73  1516               	bsf	22,2	;volatile
  7685     0B74                     l42:	
  7686                           ;I2C.c: 110:     while(!PIR1bits.SSP1IF);
  7687                           
  7688     0B74  0020               	movlb	0	; select bank0
  7689     0B75  1D91               	btfss	17,3	;volatile
  7690     0B76  2B78               	goto	u1761
  7691     0B77  2B79               	goto	u1760
  7692     0B78                     u1761:
  7693     0B78  2B74               	goto	l42
  7694     0B79                     u1760:
  7695     0B79                     l45:
  7696     0B79  0008               	return
  7697     0B7A                     __end_of_Send_I2C_StopBit:
  7698                           
  7699                           	psect	text22
  7700     0B66                     __ptext22:	
  7701 ;; *************** function _Send_I2C_StartBit *****************
  7702 ;; Defined at:
  7703 ;;		line 96 in file "I2C.c"
  7704 ;; Parameters:    Size  Location     Type
  7705 ;;		None
  7706 ;; Auto vars:     Size  Location     Type
  7707 ;;		None
  7708 ;; Return value:  Size  Location     Type
  7709 ;;                  1    wreg      void 
  7710 ;; Registers used:
  7711 ;;		None
  7712 ;; Tracked objects:
  7713 ;;		On entry : 0/0
  7714 ;;		On exit  : 0/0
  7715 ;;		Unchanged: 0/0
  7716 ;; Data sizes:     COMMON   BANK0   BANK1   BANK2   BANK3   BANK4   BANK5   BANK6   BANK7   BANK8   BANK9  BANK10  BANK1
      +1  BANK12  BANK13  BANK14  BANK15  BANK16  BANK17  BANK18  BANK19  BANK20  BANK21  BANK22  BANK23  BANK24  BANK25
  7717 ;;      Params:         0       0       0       0       0       0       0       0       0       0       0       0       
      +0       0       0       0       0       0       0       0       0       0       0       0       0       0       0
  7718 ;;      Locals:         0       0       0       0       0       0       0       0       0       0       0       0       
      +0       0       0       0       0       0       0       0       0       0       0       0       0       0       0
  7719 ;;      Temps:          0       0       0       0       0       0       0       0       0       0       0       0       
      +0       0       0       0       0       0       0       0       0       0       0       0       0       0       0
  7720 ;;      Totals:         0       0       0       0       0       0       0       0       0       0       0       0       
      +0       0       0       0       0       0       0       0       0       0       0       0       0       0       0
  7721 ;;Total ram usage:        0 bytes
  7722 ;; Hardware stack levels used: 1
  7723 ;; This function calls:
  7724 ;;		Nothing
  7725 ;; This function is called by:
  7726 ;;		_OLED_Command
  7727 ;;		_OLED_PutChar
  7728 ;;		_OLED_Data
  7729 ;; This function uses a non-reentrant model
  7730 ;;
  7731                           
  7732     0B66                     _Send_I2C_StartBit:	
  7733                           ;psect for function _Send_I2C_StartBit
  7734                           
  7735     0B66                     l1744:	
  7736                           ;incstack = 0
  7737                           ; Regs used in _Send_I2C_StartBit: []
  7738                           
  7739                           
  7740                           ;I2C.c: 98:     PIR1bits.SSP1IF=0;
  7741     0B66  0020               	movlb	0	; select bank0
  7742     0B67  1191               	bcf	17,3	;volatile
  7743                           
  7744                           ;I2C.c: 99:     SSPCON2bits.SEN=1;
  7745     0B68  0024               	movlb	4	; select bank4
  7746     0B69  1416               	bsf	22,0	;volatile
  7747     0B6A                     l36:	
  7748                           ;I2C.c: 100:     while(!PIR1bits.SSP1IF);
  7749                           
  7750     0B6A  0020               	movlb	0	; select bank0
  7751     0B6B  1D91               	btfss	17,3	;volatile
  7752     0B6C  2B6E               	goto	u1751
  7753     0B6D  2B6F               	goto	u1750
  7754     0B6E                     u1751:
  7755     0B6E  2B6A               	goto	l36
  7756     0B6F                     u1750:
  7757     0B6F                     l39:
  7758     0B6F  0008               	return
  7759     0B70                     __end_of_Send_I2C_StartBit:
  7760                           
  7761                           	psect	text23
  7762     0B7A                     __ptext23:	
  7763 ;; *************** function _Send_I2C_Data *****************
  7764 ;; Defined at:
  7765 ;;		line 48 in file "I2C.c"
  7766 ;; Parameters:    Size  Location     Type
  7767 ;;  databyte        2    0[COMMON] unsigned int 
  7768 ;; Auto vars:     Size  Location     Type
  7769 ;;		None
  7770 ;; Return value:  Size  Location     Type
  7771 ;;                  1    wreg      void 
  7772 ;; Registers used:
  7773 ;;		wreg
  7774 ;; Tracked objects:
  7775 ;;		On entry : 0/0
  7776 ;;		On exit  : 0/0
  7777 ;;		Unchanged: 0/0
  7778 ;; Data sizes:     COMMON   BANK0   BANK1   BANK2   BANK3   BANK4   BANK5   BANK6   BANK7   BANK8   BANK9  BANK10  BANK1
      +1  BANK12  BANK13  BANK14  BANK15  BANK16  BANK17  BANK18  BANK19  BANK20  BANK21  BANK22  BANK23  BANK24  BANK25
  7779 ;;      Params:         2       0       0       0       0       0       0       0       0       0       0       0       
      +0       0       0       0       0       0       0       0       0       0       0       0       0       0       0
  7780 ;;      Locals:         0       0       0       0       0       0       0       0       0       0       0       0       
      +0       0       0       0       0       0       0       0       0       0       0       0       0       0       0
  7781 ;;      Temps:          0       0       0       0       0       0       0       0       0       0       0       0       
      +0       0       0       0       0       0       0       0       0       0       0       0       0       0       0
  7782 ;;      Totals:         2       0       0       0       0       0       0       0       0       0       0       0       
      +0       0       0       0       0       0       0       0       0       0       0       0       0       0       0
  7783 ;;Total ram usage:        2 bytes
  7784 ;; Hardware stack levels used: 1
  7785 ;; This function calls:
  7786 ;;		Nothing
  7787 ;; This function is called by:
  7788 ;;		_OLED_Command
  7789 ;;		_OLED_PutChar
  7790 ;;		_OLED_Data
  7791 ;; This function uses a non-reentrant model
  7792 ;;
  7793                           
  7794     0B7A                     _Send_I2C_Data:	
  7795                           ;psect for function _Send_I2C_Data
  7796                           
  7797     0B7A                     l1740:	
  7798                           ;incstack = 0
  7799                           ; Regs used in _Send_I2C_Data: [wreg]
  7800                           
  7801                           
  7802                           ;I2C.c: 48: void Send_I2C_Data(unsigned int databyte);I2C.c: 49: {;I2C.c: 50:     PIR1bi
      +                          ts.SSP1IF=0;
  7803     0B7A  0020               	movlb	0	; select bank0
  7804     0B7B  1191               	bcf	17,3	;volatile
  7805     0B7C                     l1742:
  7806                           
  7807                           ;I2C.c: 51:     SSPBUF = databyte;
  7808     0B7C  0870               	movf	Send_I2C_Data@databyte,w
  7809     0B7D  0024               	movlb	4	; select bank4
  7810     0B7E  0091               	movwf	17	;volatile
  7811     0B7F                     l18:	
  7812                           ;I2C.c: 52:     while(!PIR1bits.SSP1IF);
  7813                           
  7814     0B7F  0020               	movlb	0	; select bank0
  7815     0B80  1D91               	btfss	17,3	;volatile
  7816     0B81  2B83               	goto	u1741
  7817     0B82  2B84               	goto	u1740
  7818     0B83                     u1741:
  7819     0B83  2B7F               	goto	l18
  7820     0B84                     u1740:
  7821     0B84                     l21:
  7822     0B84  0008               	return
  7823     0B85                     __end_of_Send_I2C_Data:
  7824                           
  7825                           	psect	text24
  7826     0B85                     __ptext24:	
  7827 ;; *************** function _I2C_Init *****************
  7828 ;; Defined at:
  7829 ;;		line 19 in file "I2C.c"
  7830 ;; Parameters:    Size  Location     Type
  7831 ;;		None
  7832 ;; Auto vars:     Size  Location     Type
  7833 ;;		None
  7834 ;; Return value:  Size  Location     Type
  7835 ;;                  1    wreg      void 
  7836 ;; Registers used:
  7837 ;;		wreg, status,2, status,0
  7838 ;; Tracked objects:
  7839 ;;		On entry : 0/0
  7840 ;;		On exit  : 0/0
  7841 ;;		Unchanged: 0/0
  7842 ;; Data sizes:     COMMON   BANK0   BANK1   BANK2   BANK3   BANK4   BANK5   BANK6   BANK7   BANK8   BANK9  BANK10  BANK1
      +1  BANK12  BANK13  BANK14  BANK15  BANK16  BANK17  BANK18  BANK19  BANK20  BANK21  BANK22  BANK23  BANK24  BANK25
  7843 ;;      Params:         0       0       0       0       0       0       0       0       0       0       0       0       
      +0       0       0       0       0       0       0       0       0       0       0       0       0       0       0
  7844 ;;      Locals:         0       0       0       0       0       0       0       0       0       0       0       0       
      +0       0       0       0       0       0       0       0       0       0       0       0       0       0       0
  7845 ;;      Temps:          1       0       0       0       0       0       0       0       0       0       0       0       
      +0       0       0       0       0       0       0       0       0       0       0       0       0       0       0
  7846 ;;      Totals:         1       0       0       0       0       0       0       0       0       0       0       0       
      +0       0       0       0       0       0       0       0       0       0       0       0       0       0       0
  7847 ;;Total ram usage:        1 bytes
  7848 ;; Hardware stack levels used: 1
  7849 ;; This function calls:
  7850 ;;		Nothing
  7851 ;; This function is called by:
  7852 ;;		_main
  7853 ;; This function uses a non-reentrant model
  7854 ;;
  7855                           
  7856     0B85                     _I2C_Init:	
  7857                           ;psect for function _I2C_Init
  7858                           
  7859     0B85                     l1964:	
  7860                           ;incstack = 0
  7861                           ; Regs used in _I2C_Init: [wreg+status,2+status,0]
  7862                           
  7863                           
  7864                           ;I2C.c: 25:     SSPCONbits.SSPM=0x08;
  7865     0B85  0024               	movlb	4	; select bank4
  7866     0B86  0815               	movf	21,w	;volatile
  7867     0B87  39F0               	andlw	-16
  7868     0B88  3808               	iorlw	8
  7869     0B89  0095               	movwf	21	;volatile
  7870     0B8A                     l1966:
  7871                           
  7872                           ;I2C.c: 26:     SSPCONbits.SSPEN=1;
  7873     0B8A  1695               	bsf	21,5	;volatile
  7874     0B8B                     l1968:
  7875                           
  7876                           ;I2C.c: 38:     SSPADD = 39;
  7877     0B8B  3027               	movlw	39
  7878     0B8C  0092               	movwf	18	;volatile
  7879     0B8D                     l1970:
  7880                           
  7881                           ;I2C.c: 42:     _delay((unsigned long)((10)*(16000000/4000.0)));
  7882     0B8D  3034               	movlw	52
  7883     0B8E  00F0               	movwf	??_I2C_Init
  7884     0B8F  30F2               	movlw	242
  7885     0B90                     u3477:
  7886     0B90  0B89               	decfsz	9,f
  7887     0B91  2B90               	goto	u3477
  7888     0B92  0BF0               	decfsz	??_I2C_Init,f
  7889     0B93  2B90               	goto	u3477
  7890     0B94                     l15:
  7891     0B94  0008               	return
  7892     0B95                     __end_of_I2C_Init:
  7893     007E                     btemp	set	126	;btemp
  7894     007E                     wtemp0	set	126
  7895                           
  7896                           	psect	config
  7897                           
  7898                           ;Config register CONFIG1 @ 0x8007
  7899                           ;	Oscillator Selection Bits
  7900                           ;	FOSC = INTOSC, INTOSC oscillator: I/O function on CLKIN pin
  7901                           ;	Watchdog Timer Enable
  7902                           ;	WDTE = OFF, WDT disabled
  7903                           ;	Power-up Timer Enable
  7904                           ;	PWRTE = OFF, PWRT disabled
  7905                           ;	MCLR Pin Function Select
  7906                           ;	MCLRE = OFF, MCLR/VPP pin function is digital input if LVP bit is also 0.
  7907                           ;	Flash Program Memory Code Protection
  7908                           ;	CP = OFF, Program memory code protection is disabled
  7909                           ;	Brown-out Reset Enable
  7910                           ;	BOREN = OFF, Brown-out Reset disabled
  7911                           ;	Clock Out Enable
  7912                           ;	CLKOUTEN = OFF, CLKOUT function is disabled. I/O or oscillator function on the CLKOUT 
      +                          pin
  7913                           ;	Internal/External Switchover Mode
  7914                           ;	IESO = ON, Internal/External Switchover Mode is enabled
  7915                           ;	Fail-Safe Clock Monitor Enable
  7916                           ;	FCMEN = OFF, Fail-Safe Clock Monitor is disabled
  7917     8007                     	org	32775
  7918     8007  19A4               	dw	6564
  7919                           
  7920                           ;Config register CONFIG2 @ 0x8008
  7921                           ;	Flash Memory Self-Write Protection
  7922                           ;	WRT = OFF, Write protection off
  7923                           ;	Peripheral Pin Select one-way control
  7924                           ;	PPS1WAY = ON, The PPSLOCK bit cannot be cleared once it is set by software
  7925                           ;	Zero-cross detect disable
  7926                           ;	ZCDDIS = ON, ZCD disabled. ZCD can be enabled by setting the ZCDSEN bit of ZCDCON
  7927                           ;	Phase Lock Loop enable
  7928                           ;	PLLEN = OFF, 4x PLL is disabled
  7929                           ;	Stack Overflow/Underflow Reset Enable
  7930                           ;	STVREN = ON, Stack Overflow or Underflow will cause a Reset
  7931                           ;	Brown-out Reset Voltage Selection
  7932                           ;	BORV = LO, Brown-out Reset Voltage (Vbor), low trip point selected.
  7933                           ;	Low-Power Brown Out Reset
  7934                           ;	LPBOR = OFF, Low-Power BOR is disabled
  7935                           ;	In-Circuit Debugger Mode
  7936                           ;	DEBUG = 0x1, unprogrammed default
  7937                           ;	Low-Voltage Programming Enable
  7938                           ;	LVP = OFF, High-voltage on MCLR/VPP must be used for programming
  7939     8008                     	org	32776
  7940     8008  1EFF               	dw	7935

Data Sizes:
    Strings     29
    Constant    768
    Data        0
    BSS         0
    Persistent  32
    Stack       0

Auto Spaces:
    Space          Size  Autos    Used
    COMMON           14     14      14
    BANK0            80     65      65
    BANK1            80     16      16
    BANK2            80      0       0
    BANK3            80      0       0
    BANK4            80      0       0
    BANK5            80      0       0
    BANK6            80      0       0
    BANK7            80      0       0
    BANK8            80      0       0
    BANK9            80      0       0
    BANK10           80      0       0
    BANK11           80      0       0
    BANK12           80      0       0
    BANK13           80      0       0
    BANK14           80      0       0
    BANK15           80      0       0
    BANK16           80      0       0
    BANK17           80      0       0
    BANK18           80      0       0
    BANK19           80      0       0
    BANK20           80      0       0
    BANK21           80      0       0
    BANK22           80      0       0
    BANK23           80      0       0
    BANK24           80      0       0
    BANK25           32      0       0

Pointer List with Targets:

    cusitoa@buf	PTR PTR unsigned char  size(1) Largest target is 1
		 -> OLED_Write_Integer@ptr(BANK0[1]), 

    d$cp	PTR const unsigned char  size(2) Largest target is 0

    d$p	PTR unsigned char  size(2) Largest target is 0

    memmove@d1	PTR void  size(1) Largest target is 9
		 -> OLED_PutChar@bytes(BANK0[9]), 

    memmove@s1	PTR const void  size(2) Largest target is 768
		 -> OledFont(CODE[768]), 

    OLED_PutChar@base	PTR const unsigned char  size(2) Largest target is 768
		 -> OledFont(CODE[768]), 

    OLED_Write_Integer@ptr	PTR unsigned char  size(1) Largest target is 20
		 -> OLED_Write_Integer@buffer(BANK0[20]), 

    OLED_Write_String@s	PTR unsigned char  size(2) Largest target is 4096
		 -> RAM(DATA[4096]), STR_1(CODE[6]), STR_2(CODE[5]), STR_3(CODE[10]), 
		 -> STR_4(CODE[8]), 

    s$cp	PTR const unsigned char  size(2) Largest target is 0

    s$p	PTR unsigned char  size(2) Largest target is 0

    S899$cp	PTR const unsigned char  size(2) Largest target is 0

    S899$p	PTR unsigned char  size(2) Largest target is 0

    sp__memmove	PTR void  size(1) Largest target is 9
		 -> OLED_PutChar@bytes(BANK0[9]), 


Critical Paths under _main in COMMON

    _main->_OLED_Write_String
    _main->___xxtofl
    ___flmul->___fladd
    ___fldiv->___fladd
    _OLED_Write_Integer->_OLED_Write_String
    _cusitoa->___awdiv
    _OLED_Init->_OLED_Command
    _OLED_YX->_OLED_Command
    _OLED_Command->_Send_I2C_Data
    _OLED_PutChar->_memmove

Critical Paths under _main in BANK0

    _main->___fldiv
    ___flmul->___fladd
    ___fldiv->___flmul
    _OLED_Write_Integer->_OLED_Write_String
    _OLED_Write_String->_OLED_PutChar
    _OLED_Clear->_OLED_PutChar

Critical Paths under _main in BANK1

    None.

Critical Paths under _main in BANK2

    None.

Critical Paths under _main in BANK3

    None.

Critical Paths under _main in BANK4

    None.

Critical Paths under _main in BANK5

    None.

Critical Paths under _main in BANK6

    None.

Critical Paths under _main in BANK7

    None.

Critical Paths under _main in BANK8

    None.

Critical Paths under _main in BANK9

    None.

Critical Paths under _main in BANK10

    None.

Critical Paths under _main in BANK11

    None.

Critical Paths under _main in BANK12

    None.

Critical Paths under _main in BANK13

    None.

Critical Paths under _main in BANK14

    None.

Critical Paths under _main in BANK15

    None.

Critical Paths under _main in BANK16

    None.

Critical Paths under _main in BANK17

    None.

Critical Paths under _main in BANK18

    None.

Critical Paths under _main in BANK19

    None.

Critical Paths under _main in BANK20

    None.

Critical Paths under _main in BANK21

    None.

Critical Paths under _main in BANK22

    None.

Critical Paths under _main in BANK23

    None.

Critical Paths under _main in BANK24

    None.

Critical Paths under _main in BANK25

    None.

Call Graph Tables:

 ---------------------------------------------------------------------------------
 (Depth) Function   	        Calls       Base Space   Used Autos Params    Refs
 ---------------------------------------------------------------------------------
 (0) _main                                                21    21      0   18068
                                             60 BANK0      5     5      0
                                              0 BANK1     16    16      0
                           _I2C_Init
                         _OLED_Clear
                          _OLED_Init
                 _OLED_Write_Integer
                  _OLED_Write_String
                            _OLED_YX
                            ___fladd
                            ___fldiv
                            ___flmul
                            ___fltol
                           ___xxtofl
                           _initMain
 ---------------------------------------------------------------------------------
 (1) _initMain                                             0     0      0       0
                        _internal_16
 ---------------------------------------------------------------------------------
 (2) _internal_16                                          0     0      0       0
 ---------------------------------------------------------------------------------
 (1) ___xxtofl                                            14    10      4     398
                                              0 COMMON    14    10      4
 ---------------------------------------------------------------------------------
 (1) ___fltol                                             10     6      4     381
                                              0 COMMON    10     6      4
 ---------------------------------------------------------------------------------
 (1) ___flmul                                             26    18      8    2569
                                              8 BANK0     26    18      8
                          __Umul8_16
                            ___fladd (ARG)
 ---------------------------------------------------------------------------------
 (2) __Umul8_16                                            9     7      2     799
                                              0 COMMON     9     7      2
 ---------------------------------------------------------------------------------
 (1) ___fldiv                                             26    18      8    1577
                                             34 BANK0     26    18      8
                            ___fladd (ARG)
                            ___flmul (ARG)
 ---------------------------------------------------------------------------------
 (1) ___fladd                                             20    12      8    2262
                                              0 COMMON    12     4      8
                                              0 BANK0      8     8      0
 ---------------------------------------------------------------------------------
 (1) _OLED_Write_Integer                                  24    24      0    4106
                                             19 BANK0     24    24      0
                  _OLED_Write_String
                            _cusitoa
 ---------------------------------------------------------------------------------
 (2) _cusitoa                                              9     7      2    2069
                                              9 COMMON     2     0      2
                                              0 BANK0      7     7      0
                            ___awdiv
                            ___awmod
                             ___wmul
 ---------------------------------------------------------------------------------
 (3) ___wmul                                               6     2      4     244
                                              0 COMMON     6     2      4
 ---------------------------------------------------------------------------------
 (3) ___awmod                                              7     3      4     448
                                              0 COMMON     7     3      4
 ---------------------------------------------------------------------------------
 (3) ___awdiv                                              9     5      4     908
                                              0 COMMON     9     5      4
 ---------------------------------------------------------------------------------
 (1) _OLED_Write_String                                    3     1      2    1937
                                             12 COMMON     2     0      2
                                             18 BANK0      1     1      0
                       _OLED_PutChar
 ---------------------------------------------------------------------------------
 (1) _OLED_Init                                            0     0      0     728
                       _OLED_Command
 ---------------------------------------------------------------------------------
 (1) _OLED_Clear                                           4     4      0    2822
                                             18 BANK0      4     4      0
                       _OLED_PutChar
                            _OLED_YX
 ---------------------------------------------------------------------------------
 (1) _OLED_YX                                              5     4      1    1174
                                              5 COMMON     5     4      1
                       _OLED_Command
 ---------------------------------------------------------------------------------
 (2) _OLED_Command                                         3     3      0     728
                                              2 COMMON     3     3      0
                      _Send_I2C_Data
                  _Send_I2C_StartBit
                   _Send_I2C_StopBit
 ---------------------------------------------------------------------------------
 (2) _OLED_PutChar                                        18    18      0    1512
                                              0 BANK0     18    18      0
                      _Send_I2C_Data
                  _Send_I2C_StartBit
                   _Send_I2C_StopBit
                            _memmove
 ---------------------------------------------------------------------------------
 (3) _memmove                                             12     8      4     598
                                              0 COMMON    12     8      4
 ---------------------------------------------------------------------------------
 (3) _Send_I2C_StopBit                                     0     0      0       0
 ---------------------------------------------------------------------------------
 (3) _Send_I2C_StartBit                                    0     0      0       0
 ---------------------------------------------------------------------------------
 (3) _Send_I2C_Data                                        2     0      2     706
                                              0 COMMON     2     0      2
 ---------------------------------------------------------------------------------
 (1) _I2C_Init                                             1     1      0       0
                                              0 COMMON     1     1      0
 ---------------------------------------------------------------------------------
 Estimated maximum stack depth 3
 ---------------------------------------------------------------------------------

 Call Graph Graphs:

 _main (ROOT)
   _I2C_Init
   _OLED_Clear
     _OLED_PutChar
       _Send_I2C_Data
       _Send_I2C_StartBit
       _Send_I2C_StopBit
       _memmove
     _OLED_YX
       _OLED_Command
         _Send_I2C_Data
         _Send_I2C_StartBit
         _Send_I2C_StopBit
   _OLED_Init
     _OLED_Command
   _OLED_Write_Integer
     _OLED_Write_String
       _OLED_PutChar
     _cusitoa
       ___awdiv
       ___awmod
       ___wmul
   _OLED_Write_String
   _OLED_YX
   ___fladd
   ___fldiv
     ___fladd (ARG)
     ___flmul (ARG)
       __Umul8_16
       ___fladd (ARG)
   ___flmul
   ___fltol
   ___xxtofl
   _initMain
     _internal_16

 Address spaces:
Name               Size   Autos  Total    Cost      Usage
BIGRAM             7F0      0       0       0        0.0%
NULL                 0      0       0       0        0.0%
CODE                 0      0       0       0        0.0%
BITCOMMON            E      0       0       1        0.0%
BITSFR0              0      0       0       1        0.0%
SFR0                 0      0       0       1        0.0%
COMMON               E      E       E       2      100.0%
BITSFR1              0      0       0       2        0.0%
SFR1                 0      0       0       2        0.0%
BITSFR2              0      0       0       3        0.0%
SFR2                 0      0       0       3        0.0%
STACK                0      0       0       3        0.0%
BITBANK0            50      0       0       4        0.0%
BITSFR3              0      0       0       4        0.0%
SFR3                 0      0       0       4        0.0%
BANK0               50     41      41       5       81.2%
BITSFR4              0      0       0       5        0.0%
SFR4                 0      0       0       5        0.0%
BITBANK1            50      0       0       6        0.0%
BITSFR5              0      0       0       6        0.0%
SFR5                 0      0       0       6        0.0%
BANK1               50     10      10       7       20.0%
BITSFR6              0      0       0       7        0.0%
SFR6                 0      0       0       7        0.0%
BITBANK2            50      0       0       8        0.0%
BITSFR7              0      0       0       8        0.0%
SFR7                 0      0       0       8        0.0%
BANK2               50      0       0       9        0.0%
BITSFR8              0      0       0       9        0.0%
SFR8                 0      0       0       9        0.0%
BITBANK3            50      0       0      10        0.0%
BITSFR9              0      0       0      10        0.0%
SFR9                 0      0       0      10        0.0%
BANK3               50      0       0      11        0.0%
BITSFR10             0      0       0      11        0.0%
SFR10                0      0       0      11        0.0%
BITBANK4            50      0       0      12        0.0%
BITSFR11             0      0       0      12        0.0%
SFR11                0      0       0      12        0.0%
BANK4               50      0       0      13        0.0%
BITSFR12             0      0       0      13        0.0%
SFR12                0      0       0      13        0.0%
BITSFR13             0      0       0      14        0.0%
SFR13                0      0       0      14        0.0%
ABS                  0      0       0      14        0.0%
BITBANK5            50      0       0      15        0.0%
BITSFR14             0      0       0      15        0.0%
SFR14                0      0       0      15        0.0%
BANK5               50      0       0      16        0.0%
BITSFR15             0      0       0      16        0.0%
SFR15                0      0       0      16        0.0%
BITBANK6            50      0       0      17        0.0%
BITSFR16             0      0       0      17        0.0%
SFR16                0      0       0      17        0.0%
BANK6               50      0       0      18        0.0%
BITSFR17             0      0       0      18        0.0%
SFR17                0      0       0      18        0.0%
BITBANK7            50      0       0      19        0.0%
BITSFR18             0      0       0      19        0.0%
SFR18                0      0       0      19        0.0%
BANK7               50      0       0      20        0.0%
BITSFR19             0      0       0      20        0.0%
SFR19                0      0       0      20        0.0%
BITBANK8            50      0       0      21        0.0%
BITSFR20             0      0       0      21        0.0%
SFR20                0      0       0      21        0.0%
BANK8               50      0       0      22        0.0%
BITSFR21             0      0       0      22        0.0%
SFR21                0      0       0      22        0.0%
BITBANK9            50      0       0      23        0.0%
BITSFR22             0      0       0      23        0.0%
SFR22                0      0       0      23        0.0%
BANK9               50      0       0      24        0.0%
BITSFR23             0      0       0      24        0.0%
SFR23                0      0       0      24        0.0%
BITBANK10           50      0       0      25        0.0%
BITSFR24             0      0       0      25        0.0%
SFR24                0      0       0      25        0.0%
BANK10              50      0       0      26        0.0%
BITSFR25             0      0       0      26        0.0%
SFR25                0      0       0      26        0.0%
BITBANK11           50      0       0      27        0.0%
BITSFR26             0      0       0      27        0.0%
SFR26                0      0       0      27        0.0%
BITSFR27             0      0       0      28        0.0%
SFR27                0      0       0      28        0.0%
DATA                 0      0       0      28        0.0%
BANK11              50      0       0      29        0.0%
BITSFR28             0      0       0      29        0.0%
SFR28                0      0       0      29        0.0%
BITBANK12           50      0       0      30        0.0%
BITSFR29             0      0       0      30        0.0%
SFR29                0      0       0      30        0.0%
BANK12              50      0       0      31        0.0%
BITSFR30             0      0       0      31        0.0%
SFR30                0      0       0      31        0.0%
BITBANK13           50      0       0      32        0.0%
BITSFR31             0      0       0      32        0.0%
SFR31                0      0       0      32        0.0%
BANK13              50      0       0      33        0.0%
BITBANK14           50      0       0      34        0.0%
BANK14              50      0       0      35        0.0%
BITBANK15           50      0       0      36        0.0%
BANK15              50      0       0      37        0.0%
BITBANK16           50      0       0      38        0.0%
BANK16              50      0       0      39        0.0%
BITBANK17           50      0       0      40        0.0%
BANK17              50      0       0      41        0.0%
BITBANK18           50      0       0      42        0.0%
BANK18              50      0       0      43        0.0%
BITBANK19           50      0       0      44        0.0%
BANK19              50      0       0      45        0.0%
BITBANK20           50      0       0      46        0.0%
BANK20              50      0       0      47        0.0%
BITBANK21           50      0       0      48        0.0%
BANK21              50      0       0      49        0.0%
BITBANK22           50      0       0      50        0.0%
BANK22              50      0       0      51        0.0%
BITBANK23           50      0       0      52        0.0%
BANK23              50      0       0      53        0.0%
BITBANK24           50      0       0      54        0.0%
BANK24              50      0       0      55        0.0%
BITBANK25           20      0       0      56        0.0%
BANK25              20      0       0      57        0.0%


Microchip Technology PIC Macro Assembler V2.45 build 20230818022343 
Symbol Table                                                                                   Wed Apr 10 18:55:17 2024

              ___fldiv@aexp 005B                ___fldiv@bexp 005A                ___fldiv@sign 0053  
                        l21 0B84                          l15 0B94                          l18 0B7F  
                        l42 0B74                          l36 0B6A                          l45 0B79  
                        l70 0BB3                          l39 0B6F                          l76 0DE5  
                        l94 0C6B                          l87 0EBC                          l79 0C40  
              ___awdiv@sign 0076         ___wmul@multiplicand 0072         __Umul8_16@word_mpld 0076  
        OLED_Write_String@s 007C                         l100 001C                         l110 0F55  
                       l104 0EFB                         l113 0BF4                         l133 0B65  
                       l221 00CA                         l215 0D80                         l500 008C  
                       l601 0489                         l610 05C1                         l603 0467  
                       l462 0CBE                         l622 053D                         l631 0597  
                       l296 0BBE                         l640 05C1                         l712 0C07  
                       l449 0D1D                         l705 07F0                         l298 0BD2  
                       l618 051B                         l714 0C17                         l490 008C  
                       l628 055F                         l653 025D                         l750 0FCB  
                       l639 05BA                         l655 03B5                         l751 0FD7  
                       l743 0FB1                         l497 0077                         l737 0F78  
                       l762 0E50                         l674 0387                         l675 03A1  
                       l739 0FFF                         l597 040B                         l677 03AE  
                       l669 033B                         l693 07FC                         l699 077C  
                       _PR6 041D                ___awmod@sign 0076                         wreg 0009  
              ___flmul@aexp 003A                ___flmul@bexp 003B            OLED_Command@temp 0074  
              ___flmul@sign 0035                ___flmul@temp 0040                ___flmul@prod 003C  
               main@celsius 00AC                ___fltol@exp1 0079                        l2000 0BE2  
                      l2002 0BED                        l2010 0D24                        l2100 0057  
                      l2020 0D33                        l2012 0D26                        l2004 0D1E  
                      l2110 007C                        l2102 0067                        l2030 0D42  
                      l2022 0D35                        l2014 0D2B                        l2006 0D21  
                      l2200 046F                        l2120 03BF                        l2112 0081  
                      l2040 0D4B                        l2032 0D44                        l2024 0D38  
                      l2016 0D2F                        l2008 0D23                        l2202 0471  
                      l2210 0483                        l2130 03D3                        l2122 03C0  
                      l2114 03B6                        l2050 0D5B                        l2042 0D4D  
                      l2034 0D45                        l2026 0D3C                        l2018 0D32  
                      l2300 05B3                        l2220 04A3                        l2212 048D  
                      l2204 0475                        l2140 03E7                        l2124 03C5  
                      l2132 03D5                        l2116 03B9                        l2108 006E  
                      l2060 0D6E                        l2052 0D60                        l2044 0D4E  
                      l2036 0D47                        l2028 0D3E                        l2302 05B5  
                      l2230 04B5                        l2222 04A7                        l2214 0492  
                      l2206 0476                        l2150 03F8                        l2142 03E9  
                      l2134 03DD                        l2126 03CA                        l2118 03BB  
                      l2310 0210                        l2070 0D78                        l2062 0D6F  
                      l2054 0D64                        l2046 0D53                        l2038 0D48  
                      l2304 05BC                        l2240 04FF                        l2232 04B6  
                      l2224 04AB                        l2208 047F                        l2160 0415  
                      l2152 0400                        l2144 03ED                        l2136 03E0  
                      l2128 03D2                        l2400 030F                        l2320 0221  
                      l2312 0212                        l2080 0026                        l2072 0D7C  
                      l2064 0D74                        l2056 0D69                        l2048 0D57  
                      l2306 05C0                        l2250 0528                        l2242 0505  
                      l2234 04BF                        l2226 04AF                        l2218 049B  
                      l2170 0422                        l2162 041A                        l2154 0401  
                      l2146 03EE                        l2138 03E6                        l2410 0320  
                      l2402 0310                        l2330 0239                        l2322 0229  
                      l2314 0216                        l2090 0049                        l2074 0D7D  
                      l2066 0D75                        l2058 0D6C                        l2260 0541  
                      l2244 050A                        l2228 04B1                        l2236 04C4  
                      l2180 042C                        l2172 0424                        l2164 041C  
                      l2148 03F3                        l2156 0403                        l2420 0345  
                      l2412 0324                        l2404 0317                        l2340 024A  
                      l2332 023B                        l2324 022A                        l2316 0217  
                      l2308 020C                        l2500 0661                        l2092 004B  
                      l2084 002F                        l2076 0D7E                        l2068 0D76  
                      l2262 0544                        l2254 0531                        l2238 04DB  
                      l2246 0513                        l2270 0551                        l2190 0436  
                      l2182 042E                        l2174 0426                        l2166 041E  
                      l2158 0411                        l2430 037A                        l2422 034D  
                      l2414 0338                        l2406 031B                        l2350 0271  
                      l2342 0252                        l2334 023F                        l2318 021C  
                      l2326 022C                        l2510 06A5                        l2502 0679  
                      l2094 004F                        l2086 0040                        l2078 001D  
                      l1800 0E74                        l2280 0564                        l2272 0552  
                      l2264 0546                        l2256 0538                        l2248 0523  
                      l2184 0430                        l2176 0428                        l2168 0420  
                      l2192 0438                        l2440 03A8                        l2432 0395  
                      l2424 0351                        l2408 031F                        l2352 0275  
                      l2344 0253                        l2336 0240                        l2328 0234  
                      l2520 06D7                        l2512 06AC                        l2504 0686  
                      l2088 0041                        l2600 0F89                        l1810 0E93  
                      l1802 0E76                        l2290 059C                        l2282 0569  
                      l2274 0556                        l2266 054B                        l2258 053C  
                      l2194 0439                        l2186 0432                        l2178 042A  
                      l2442 03AA                        l2434 0398                        l2426 0369  
                      l2418 0340                        l2370 02B4                        l2362 028C  
                      l2338 0245                        l2346 0255                        l2530 0732  
                      l2522 06E9                        l2514 06B7                        l2506 0693  
                      l2450 05C6                        l2610 0FAA                        l2602 0F8C  
                      l1740 0B7A                        l1820 0EAC                        l1804 0E82  
                      l1900 0C8F                        l2292 05A1                        l2284 0571  
                      l2276 055C                        l2268 054D                        l2196 0451  
                      l2188 0434                        l2436 03A0                        l2428 036D  
                      l2380 02CE                        l2372 02B6                        l2364 029C  
                      l2348 0265                        l2356 027E                        l2540 0751  
                      l2532 0739                        l2524 06F4                        l2516 06BE  
                      l2508 069A                        l2460 05D7                        l2452 05C8  
                      l2620 0FD9                        l2612 0FB8                        l2604 0F97  
                      l1742 0B7C                        l1750 0DE9                        l1822 0EB9  
                      l1806 0E85                        l1910 0CAA                        l1902 0C93  
                      l1830 0BC3                        l2294 05A9                        l2286 0575  
                      l2198 046B                        l2438 03A4                        l2374 02BB  
                      l2382 02D5                        l2390 02F4                        l2366 02A4  
                      l2358 0283                        l2550 0765                        l2542 0758  
                      l2534 0745                        l2526 0706                        l2518 06D0  
                      l2470 05F0                        l2462 05DF                        l2454 05CC  
                      l2622 0FED                        l2614 0FC1                        l2606 0F9E  
                      l1744 0B66                        l1760 0E0D                        l1752 0DED  
                      l1816 0E98                        l1808 0E8C                        l1920 0C19  
                      l1840 0CC0                        l1904 0C97                        l1912 0CB0  
                      l1832 0BC8                        l1824 0BB4                        l2296 05AE  
                      l2288 0593                        l2392 02FA                        l2384 02E7  
                      l2376 02C9                        l2368 02AC                        l2560 078E  
                      l2552 0779                        l2536 074C                        l2544 075C  
                      l2528 071B                        l2480 0607                        l2472 05F4  
                      l2464 05E1                        l2456 05CD                        l2448 05C2  
                      l2624 0FF2                        l2616 0FC5                        l2608 0FA2  
                      l1746 0B70                        l1762 0E11                        l1770 0E2D  
                      l1754 0DEF                        l1818 0EA7                        l1922 0006  
                      l1850 0CD4                        l1842 0CC4                        l1914 0CB5  
                      l1906 0CA1                        l1834 0BCE                        l1826 0BB6  
                      l1930 0EBF                        l2298 05AF                        l2394 0302  
                      l2386 02E8                        l2378 02CD                        l2570 07C5  
                      l2562 0792                        l2546 0760                        l2538 0750  
                      l2482 0609                        l2474 05F5                        l2466 05E9  
                      l2458 05D2                        l2626 0FF6                        l2618 0FCF  
                      l2650 00B3                        l2642 008D                        l1780 0E46  
                      l1772 0E33                        l1764 0E1B                        l1756 0DF9  
                      l1748 0DE7                        l1924 0007                        l1860 0CE8  
                      l1852 0CD8                        l1844 0CC9                        l1916 0CBA  
                      l1908 0CA5                        l1828 0BBA                        l1940 0F0D  
                      l1932 0EC7                        l2396 0304                        l2388 02F0  
                      l2580 07ED                        l2572 07D3                        l2564 07AA  
                      l2556 0781                        l2548 0761                        l2492 0624  
                      l2484 0611                        l2476 05FA                        l2468 05EE  
                      l2628 0FF7                        l2660 00C4                        l2652 00B5  
                      l2644 0093                        l1774 0E39                        l1766 0E1D  
                      l1758 0E09                        l1790 0BB0                        l1782 0B96  
                      l1926 000F                        l1870 0D04                        l1862 0CEC  
                      l1854 0CDA                        l1846 0CCB                        l1838 0CBF  
                      l1942 0F3D                        l1934 0ED0                        l2398 030B  
                      l1950 0BF6                        l2582 07EE                        l2574 07DC  
                      l2558 0786                        l2566 07AE                        l2494 062F  
                      l2486 0616                        l2478 05FF                        l2590 0F5C  
                      l2670 01CC                        l2662 00C8                        l2654 00B6  
                      l2646 00A0                        l1776 0E3D                        l1768 0E22  
                      l1792 0E53                        l1784 0B99                        l1928 0013  
                      l1872 0D09                        l1864 0CF0                        l1856 0CE0  
                      l1848 0CCF                        l1944 0F47                        l1936 0ED5  
                      l1960 0C13                        l1952 0BF8                        l2584 07F4  
                      l2576 07DE                        l2568 07BB                        l2496 063C  
                      l2488 061B                        l2592 0F60                        l2680 01F2  
                      l2672 01E6                        l2664 00CE                        l2656 00BB  
                      l2648 00B0                        l1970 0B8D                        l1778 0E42  
                      l1794 0E59                        l1786 0BA0                        l1866 0CFF  
                      l1858 0CE3                        l1874 0D0F                        l1890 0C78  
                      l1882 0C6C                        l1946 0F4E                        l1938 0EDA  
                      l1954 0BFF                        l2578 07E9                        l2498 0654  
                      l2594 0F70                        l2674 01E9                        l2682 01FA  
                      l2666 01B0                        l2658 00C2                        l1964 0B85  
                      l1796 0E5F                        l1788 0BA6                        l1980 0C44  
                      l1972 0D81                        l1876 0D14                        l1868 0D03  
                      l1892 0C7C                        l1884 0C6D                        l1956 0C03  
                      l2596 0F80                        l2588 0F57                        l1948 0B5D  
                      l2684 01FF                        l2676 01EA                        l2668 01C0  
                      l1966 0B8A                        l1798 0E61                        l1990 0C50  
                      l1974 0C41                        l1878 0D19                        l1894 0C81  
                      l1886 0C71                        l1958 0C0E                        l2686 0206  
                      l2678 01ED                        l1968 0B8B                        l1992 0C55  
                      l1896 0C87                        l1888 0C76                        l2688 0208  
                      l1994 0C5E                        l1986 0C46                        l1898 0C8A  
                      l1988 0C4C                        l1996 0BD5                        l1998 0BD7  
                      STR_1 1008                        STR_2 100E                        STR_3 0B00  
                      STR_4 1000             __end_of_OLED_YX 0C41                        u2000 0C7C  
                      u2001 0C7B                        u2010 0C87                        u2011 0C86  
                      u2100 001C                        u2101 001B                        u2030 0C97  
                      u2110 0EC7                        u2031 0C96                        u2111 0EC6  
               ?_OLED_Clear 0070                        u2040 0CA1                        u2120 0F0C  
                      u3000 03A8                        u2200 003C                        u2041 0CA0  
                      u2025 0C8B                        u2121 0F0B                        u3001 03A7  
                      u2130 0F4E                        u3010 05CC                        u2210 004F  
                      u2131 0F4D                        u3011 05CB                        u2211 004E  
                      u2060 0CB0                        u2300 03C5                        u2140 0C03  
                      u3020 05D2                        u2220 0056                        u2061 0CAF  
                      u2045 0C9D                        u2301 03C4                        u2141 0C02  
                      u3021 05D1                        u2221 0055                        u2205 0038  
                      u2070 0CB5                        u2310 03CA                        u3110 0711  
                      u3030 05D7                        u2071 0CB4                        u2055 0CA6  
                      u2311 03C9                        u3031 05D6                        u2400 045B  
                      u2320 03E6                        u2160 0C13                        u3200 0780  
                      u3120 0728                        u3040 05F4                        u2240 0066  
                      u2321 03E5                        u2161 0C12                        u3201 077F  
                      u3105 06BF                        u3041 05F3                        u2241 0065  
                      u2170 0C5E                        u2410 046B                        u2330 03ED  
                      u3210 0786                        u3050 05FA                        u2250 006D  
                      u2171 0C5D                        u2411 046A                        u2331 03EC  
                      u2155 0C08                        u3211 0785                        u3115 070D  
                      u3051 05F9                        u2251 006C                        u2235 0058  
                      u2180 0C6B                        u2420 0475                        u2340 03F3  
                      u3220 0792                        u3060 05FF                        u2085 0C21  
                      u2181 0C6A                        u2421 0474                        u2341 03F2  
                      u3221 0791                        u3125 0724                        u3061 05FE  
                      u2510 04DB                        u2350 03F8                        u3230 07A0  
                      u3150 0750                        u3070 0616                        u2270 007C  
                      u2190 0026                        u3310 0F9D                        u2095 0C35  
                      u2511 04DA                        u2351 03F7                        u3151 074F  
                      u3135 0733                        u3071 0615                        u2271 007B  
                      u2191 0025                        u3311 0F9C                        u1800 0E33  
                      u2600 0556                        u2520 050A                        u2440 0489  
                      u2360 0411                        u3240 07BB                        u3080 061B  
                      u2280 0081                        u3400 0FF6                        u1801 0E32  
                      u2601 0555                        u2521 0509                        u2513 04D7  
                      u2505 04B9                        u2441 0488                        u2361 0410  
                      u3241 07BA                        u3145 0746                        u3081 061A  
                      u2281 0080                        u2265 006F                        u3401 0FF5  
                      u3305 0F91                        u1810 0E50                        u2610 055C  
                      u2530 0523                        u2450 048D                        u2370 0415  
                      u2290 03BF                        u3250 07D3                        u3170 0760  
                      u3330 0FB7                        u3410 00CE                        u1811 0E4F  
                      u2611 055B                        u2531 0522                        u2451 048C  
                      u2435 0479                        u2371 0414                        u2291 03BE  
                      u3251 07D2                        u3235 079C                        u3171 075F  
                      u3331 0FB6                        u3411 00CD                        u1740 0B84  
                      u1820 0E59                        u1900 0CCF                        u2700 05B3  
                      u2620 0563                        u2540 0528                        u2460 0492  
                      u2380 0451                        u3260 07ED                        u3180 0765  
                      u3420 01E6                        u1741 0B83                        u1821 0E58  
                      u1901 0CCE                        u2701 05B2                        u2621 0562  
                      u2541 0527                        u2461 0491                        u2381 0450  
                      u3261 07EC                        u3245 07B7                        u3181 0764  
                      u3165 0752                        u3325 0FAB                        u3421 01E5  
                      u1750 0B6F                        u1830 0E5F                        u1910 0CE0  
                      u2710 05C0                        u2630 0569                        u2470 04A7  
                      u2390 045A                        u3190 0779                        u3350 0FC5  
                      u3270 0F5C                        u1751 0B6E                        u1831 0E5E  
                      u1911 0CDF                        u2711 05BF                        u2631 0568  
                      u2471 04A6                        u2391 0458                        u3255 07CF  
                      u3191 0778                        u3095 0694                        u3351 0FC4  
                      u3271 0F5B                        u1760 0B79                        u1840 0EB9  
                      u2640 0575                        u2560 053C                        u2480 04AB  
                      u2800 02BB                        u2720 0216                        u3360 0FCB  
                      u3280 0F60                        u1761 0B78                        u1841 0EB8  
                      u2641 0574                        u2561 053B                        u2481 04AA  
                      u2385 044D                        u2801 02BA                        u2721 0215  
                      u3361 0FCA                        u3345 0FBB                        u3281 0F5F  
                      u3425 01E2                        u1770 0DF9                        u1930 0CF0  
                      u1850 0BBA                        u2650 0584                        u2570 0541  
                      u2490 04B5                        u2730 021C                        u3370 0FCF  
                      u3290 0F80                        u1771 0DF8                        u1931 0CEF  
                      u1851 0BB9                        u2571 0540                        u2555 0532  
                      u2491 04B4                        u2731 021B                        u3371 0FCE  
                      u3291 0F7F                        u1780 0E09                        u2660 0593  
                      u2580 054B                        u2740 0221                        u3380 0FE3  
                      u1781 0E08                        u1845 0EB5                        u1925 0CE4  
                      u2661 0592                        u2581 054A                        u2741 0220  
                      u3437 0099                        u1790 0E2C                        u1950 0CFF  
                      u2670 059C                        u2590 0551                        u2910 031F  
                      u2830 02CD                        u2750 023F                        u3390 0FF2  
                      u1791 0E2B                        u1775 0DF5                        u1951 0CFE  
                      u2671 059B                        u2655 0580                        u2591 0550  
                      u2911 031E                        u2831 02CC                        u2815 02BC  
                      u2751 023E                        u3391 0FF1                        u3447 00A9  
                      u1880 0BCE                        u2680 05A1                        u2920 0324  
                      u2760 0245                        u1785 0E05                        u1945 0CF1  
                      u1881 0BCD                        u1865 0BBF                        u2681 05A0  
                      u2921 0323                        u2905 0311                        u2825 02C3  
                      u2761 0244                        u3385 0FDF                        u3457 00C5  
                      u1970 0D0F                        u1890 0CC4                        u2690 05AE  
                      u2930 0338                        u2850 02E7                        u2770 024A  
                      u1971 0D0E                        u1955 0CFB                        u1891 0CC3  
                      u1875 0BC4                        u2691 05AD                        u2931 0337  
                      u2851 02E6                        u2771 0249                        u3467 01C6  
                      u1980 0D14                        u2940 033F                        u2860 02FA  
                      u2780 0265                        u3477 0B90                        u1981 0D13  
                      u1965 0D05                        u2941 033E                        u2861 02F9  
                      u2845 02CF                        u2781 0264                        u1990 0C71  
                      u2950 0345                        u2870 0302                        u2790 0283  
                      u1991 0C70                        u2951 0344                        u2871 0301  
                      u2855 02E3                        u2791 0282                        u2960 0351  
                      u2961 0350                        u2970 035F                        u2890 030F  
                      u2891 030E                        u2980 037A                        u2981 0379  
                      u2885 0305                        u2990 0395                        u2991 0394  
                      u2975 035B                        u2985 0376                        _SCS0 04C8  
                      u2995 0391                        _SCS1 04C9                        _main 008D  
          __end_of_I2C_Init 0B95                        fsr0h 0005                        fsr1h 0007  
                      indf0 0000                        fsr0l 0004                        indf1 0001  
                      fsr1l 0006                        btemp 007E                        start 0002  
           ___fldiv@new_exp 0054               ___fltol@sign1 0078             __end_of___fladd 05C2  
                     ?_main 0070             __end_of___fldiv 03B6             __end_of___awdiv 0D1E  
           __end_of___awmod 0CBF             __end_of___flmul 07FD             __end_of___fltol 008D  
           ___awdiv@divisor 0070                       _IRCF0 04CB                       _IRCF1 04CC  
                     _IRCF2 04CD                       _IRCF3 04CE             ___awdiv@counter 0075  
           __end_of_cusitoa 0F56             __end_of_memmove 0E51                       status 0003  
                     wtemp0 007E                ?_internal_16 0070             __initialization 07FD  
              __end_of_main 020C            __end_of_OledFont 0B00                      ??_main 005C  
             main@farenheit 00A8                   ??_OLED_YX 0076                      _ADRESH 009C  
                    _ADRESL 009B                      _CCPR1L 0291                      _CCPR2L 0298  
          ___awdiv@dividend 0072          _OLED_Write_Integer 0BD3                      _ANSELB 018D  
         __end_of_OLED_Init 0DE6               ?_OLED_Command 0070                      _SPLLEN 04CF  
                    _SSPADD 0212                      _SSPBUF 0211            __end_of___xxtofl 1000  
       ?_OLED_Write_Integer 0070               ?_OLED_PutChar 0070                   ??___fladd 0020  
                    ___wmul 0BB4                   ??___fldiv 004A                   ??___awdiv 0074  
                 ??___awmod 0074                   ??___flmul 0030                   ??___fltol 0074  
               cusitoa@temp 0022            __end_of_initMain 0D81            ___awdiv@quotient 0077  
           ___awmod@divisor 0070             ___awmod@counter 0075        ??_OLED_Write_Integer 0033  
                 ??_cusitoa 007B                   ?_I2C_Init 0070                   ??_memmove 0074  
     Send_I2C_Data@databyte 0070              ??_OLED_Command 0072                ___xxtofl@arg 007A  
              ___xxtofl@exp 0079                ___xxtofl@val 0070     __end_of__initialization 07FD  
                ___fltol@f1 0070              ??_OLED_PutChar 0020              __pcstackCOMMON 0070  
                ??_I2C_Init 0070               _Send_I2C_Data 0B7A                ??_OLED_Clear 007C  
         __end_of__Umul8_16 0C18                  __pmaintext 008D                     ?___wmul 0070  
        __end_of_OLED_Clear 0C6C                   ?___xxtofl 0070                     _OLED_YX 0C18  
            ?_Send_I2C_Data 0070                     _PPSLOCK 0E0F                   ?_initMain 0070  
                   ___fladd 03B6                     ___fldiv 020C                     ___awdiv 0CBF  
                   ___awmod 0C6C                     ___flmul 05C2                     ___fltol 001D  
          main@conversion10 00A4        __end_of_OLED_Command 0BB4                     __ptext1 0D1E  
                   __ptext2 0B5D                     __ptext3 0F56                     __ptext4 001D  
                   __ptext5 05C2                     __ptext6 0BF5                     __ptext7 020C  
                   __ptext8 03B6                     __ptext9 0BD3                     _cusitoa 0EBD  
                   _memmove 0DE6                  ??___xxtofl 0074            ___awmod@dividend 0072  
      __end_of_OLED_PutChar 0EBD                   _T6CONbits 041E        end_of_initialization 07FD  
                ??_initMain 0070                   _OLED_Init 0D81            OLED_PutChar@base 002D  
          _Send_I2C_StopBit 0B70                 ___fladd@grs 007B             ??_Send_I2C_Data 0072  
             ___xxtofl@sign 0078                   _TRISBbits 008D                   _TRISCbits 008E  
               ___fldiv@grs 0056                 ___fldiv@rem 004F                 ___flmul@grs 0036  
               _CCP1CONbits 0293                 _CCP2CONbits 029A                  ?_OLED_Init 0070  
                main@result 00A0              __end_of___wmul 0BD3    OLED_Write_Integer@buffer 0035  
       start_initialization 07FD           _OLED_Write_String 0006          ?_OLED_Write_String 007C  
                cusitoa@div 0025                  cusitoa@buf 0024                  cusitoa@num 0020  
                  ??___wmul 0074                 _CCPTMRSbits 029E                  OLED_YX@Row 0079  
                 __Umul8_16 0BF5         ??_OLED_Write_String 0032                   ___fladd@a 0074  
                 ___fladd@b 0070                   ___fldiv@a 0042                   ___fldiv@b 0046  
                 ___flmul@a 002C                   ___flmul@b 0028                   ___latbits 0003  
                  ?_OLED_YX 0075               __pcstackBANK0 0020               __pcstackBANK1 00A0  
              _OLED_Command 0B95   __end_of_OLED_Write_String 001D               ??_internal_16 0070  
               ??_OLED_Init 0075                _OLED_PutChar 0E51                    ?___fladd 0070  
                  ?___fldiv 0042                    ?___awdiv 0070                    ?___awmod 0070  
                  ?___flmul 0028                    ?___fltol 0070                  ?__Umul8_16 0070  
                  ?_cusitoa 0079                    _I2C_Init 0B85                    ?_memmove 0070  
  __end_of_Send_I2C_StopBit 0B7A              ___wmul@product 0074                    _PIR1bits 0011  
       __end_of_internal_16 0B66                  _ADCON0bits 009D                  _ADCON1bits 009E  
         ___wmul@multiplier 0070                    _OledFont 0800                 ??__Umul8_16 0072  
                 memmove@d1 0076                   memmove@s1 0070                  _ANSELCbits 018E  
                _ANSELEbits 0190                    ___xxtofl 0F56       __end_of_Send_I2C_Data 0B85  
                  __ptext10 0EBD                    __ptext11 0BB4                    __ptext20 0DE6  
                  __ptext12 0C6C                    __ptext21 0B70                    __ptext13 0CBF  
                  __ptext22 0B66                    __ptext14 0006                    __ptext23 0B7A  
                  __ptext15 0D81                    __ptext24 0B85                    __ptext16 0C41  
                  __ptext17 0C18                    __ptext18 0B95                    __ptext19 0E51  
                  _initMain 0D1E               _SSPDATPPSbits 0E21               OLED_Clear@col 0034  
               _internal_16 0B5D               OLED_Clear@row 0032                  _RB0PPSbits 0E98  
             OLED_YX@Column 0075                  _RB1PPSbits 0E99              OLED_PutChar@ch 0031  
                _RC4PPSbits 0EA4               _SSPCLKPPSbits 0E20                  _RC5PPSbits 0EA5  
__end_of_OLED_Write_Integer 0BF5                    cusitoa@d 0079                    memmove@c 0077  
                  memmove@d 007A                    memmove@n 0072                    memmove@s 0078  
                _OLED_Clear 0C41                 _PPSLOCKbits 0E0F           _Send_I2C_StartBit 0B66  
         OLED_PutChar@bytes 0024               OLED_PutChar@i 002F          ?_Send_I2C_StartBit 0070  
     OLED_Write_Integer@ptr 004A               __pstringtext1 0800               __pstringtext2 1000  
             __pstringtext3 1008               __pstringtext4 100E               __pstringtext5 0000  
       ??_Send_I2C_StartBit 0070      __Umul8_16@multiplicand 0070                 _SSPCON2bits 0216  
         ?_Send_I2C_StopBit 0070               ___fladd@signs 0078          ??_Send_I2C_StopBit 0070  
              ___fladd@aexp 0079                ___fladd@bexp 007A         OLED_Write_Integer@i 0049  
 __end_of_Send_I2C_StartBit 0B70        __Umul8_16@multiplier 0078                  _SSPCONbits 0215  
         __Umul8_16@product 0074  
