

Microchip MPLAB XC8 Assembler V2.46 build 20240104201356 
                                                                                               Fri Jan 30 02:13:46 2026

Microchip MPLAB XC8 C Compiler v2.46 (Free license) build 20240104201356 Og1 
     1                           	processor	16F1718
     2                           	pagewidth 120
     3                           	opt	flic
     4                           	psect	idataBANK3,global,class=CODE,delta=2,noexec
     5                           	psect	idataBANK4,global,class=CODE,delta=2,noexec
     6                           	psect	stringtext1,global,class=STRCODE,delta=2,noexec
     7                           	psect	stringtext2,global,class=STRCODE,delta=2,noexec
     8                           	psect	stringtext3,global,class=STRCODE,delta=2,noexec
     9                           	psect	stringtext4,global,class=STRCODE,delta=2,noexec
    10                           	psect	stringtext5,global,class=STRCODE,delta=2,noexec
    11                           	psect	stringtext6,global,class=STRCODE,delta=2,noexec
    12                           	psect	stringtext7,global,class=STRCODE,delta=2,noexec
    13                           	psect	stringtext8,global,class=STRCODE,delta=2,noexec
    14                           	psect	stringtext9,global,class=STRCODE,delta=2,noexec
    15                           	psect	stringtext10,global,class=STRCODE,delta=2,noexec
    16                           	psect	stringtext11,global,class=STRCODE,delta=2,noexec
    17                           	psect	stringtext12,global,class=STRCODE,delta=2,noexec
    18                           	psect	stringtext13,global,class=STRCODE,delta=2,noexec
    19                           	psect	stringtext14,global,class=STRCODE,delta=2,noexec
    20                           	psect	stringtext15,global,class=STRCODE,delta=2,noexec
    21                           	psect	stringtext16,global,class=STRCODE,delta=2,noexec
    22                           	psect	stringtext17,global,class=STRCODE,delta=2,noexec
    23                           	psect	stringtext18,global,class=STRCODE,delta=2,noexec
    24                           	psect	stringtext19,global,class=STRCODE,delta=2,noexec
    25                           	psect	stringtext20,global,class=STRCODE,delta=2,noexec
    26                           	psect	stringtext21,global,class=STRCODE,delta=2,noexec
    27                           	psect	stringtext22,global,class=STRCODE,delta=2,noexec
    28                           	psect	stringtext23,global,class=STRCODE,delta=2,noexec
    29                           	psect	stringtext24,global,class=STRCODE,delta=2,noexec
    30                           	psect	stringtext25,global,class=STRCODE,delta=2,noexec
    31                           	psect	stringtext26,global,class=STRCODE,delta=2,noexec
    32                           	psect	stringtext27,global,class=STRCODE,delta=2,noexec
    33                           	psect	cinit,global,class=CODE,merge=1,delta=2
    34                           	psect	bssBANK2,global,class=BANK2,space=1,delta=1,noexec
    35                           	psect	bssBANK3,global,class=BANK3,space=1,delta=1,noexec
    36                           	psect	dataBANK3,global,class=BANK3,space=1,delta=1,noexec
    37                           	psect	dataBANK4,global,class=BANK4,space=1,delta=1,noexec
    38                           	psect	bssBANK5,global,class=BANK5,space=1,delta=1,noexec
    39                           	psect	inittext,global,class=CODE,delta=2
    40                           	psect	clrtext,global,class=CODE,delta=2
    41                           	psect	cstackBANK3,global,class=BANK3,space=1,delta=1,noexec
    42                           	psect	cstackBANK2,global,class=BANK2,space=1,delta=1,noexec
    43                           	psect	cstackBANK1,global,class=BANK1,space=1,delta=1,noexec
    44                           	psect	cstackCOMMON,global,class=COMMON,space=1,delta=1,noexec
    45                           	psect	cstackBANK0,global,class=BANK0,space=1,delta=1,noexec
    46                           	psect	maintext,global,class=CODE,merge=1,split=1,delta=2
    47                           	psect	text1,local,class=CODE,merge=1,delta=2
    48                           	psect	text2,local,class=CODE,merge=1,delta=2
    49                           	psect	text3,local,class=CODE,merge=1,delta=2
    50                           	psect	text4,local,class=CODE,merge=1,delta=2,group=1
    51                           	psect	text5,local,class=CODE,merge=1,delta=2
    52                           	psect	text6,local,class=CODE,merge=1,delta=2
    53                           	psect	text7,local,class=CODE,merge=1,delta=2,group=1
    54                           	psect	text8,local,class=CODE,merge=1,delta=2,group=1
    55                           	psect	text9,local,class=CODE,merge=1,delta=2
    56                           	psect	text10,local,class=CODE,merge=1,delta=2
    57                           	psect	text11,local,class=CODE,merge=1,delta=2,group=1
    58                           	psect	text12,local,class=CODE,merge=1,delta=2,group=1
    59                           	psect	text13,local,class=CODE,merge=1,delta=2
    60                           	psect	text14,local,class=CODE,merge=1,delta=2
    61                           	psect	text15,local,class=CODE,merge=1,delta=2
    62                           	psect	text16,local,class=CODE,merge=1,delta=2
    63                           	psect	text17,local,class=CODE,merge=1,delta=2
    64                           	psect	text18,local,class=CODE,merge=1,delta=2,group=2
    65                           	psect	text19,local,class=CODE,merge=1,delta=2,group=2
    66                           	psect	text20,local,class=CODE,merge=1,delta=2,group=2
    67                           	psect	text21,local,class=CODE,merge=1,delta=2,group=2
    68                           	psect	text22,local,class=CODE,merge=1,delta=2,group=2
    69                           	psect	text23,local,class=CODE,merge=1,delta=2,group=1
    70                           	psect	text24,local,class=CODE,merge=1,delta=2,group=1
    71                           	psect	text25,local,class=CODE,merge=1,delta=2,group=1
    72                           	psect	text26,local,class=CODE,merge=1,delta=2,group=1
    73                           	psect	text27,local,class=CODE,merge=1,delta=2,group=1
    74                           	psect	text28,local,class=CODE,merge=1,delta=2,group=1
    75                           	psect	text29,local,class=CODE,merge=1,delta=2,group=1
    76                           	psect	text30,local,class=CODE,merge=1,delta=2,group=1
    77                           	psect	text31,local,class=CODE,merge=1,delta=2,group=1
    78                           	psect	text32,local,class=CODE,merge=1,delta=2,group=2
    79                           	psect	text33,local,class=CODE,merge=1,delta=2,group=2
    80                           	psect	text34,local,class=CODE,merge=1,delta=2
    81                           	psect	text35,local,class=CODE,merge=1,delta=2
    82                           	psect	text36,local,class=CODE,merge=1,delta=2
    83                           	psect	text37,local,class=CODE,merge=1,delta=2
    84                           	psect	text38,local,class=CODE,merge=1,delta=2,group=1
    85                           	psect	config,global,abs,ovrld,class=CONFIG,space=4,delta=2,noexec
    86                           	dabs	1,0xCA0,32
    87                           	dabs	1,0xC24,76
    88                           	dabs	1,0x2784,0,_kernels
    89                           	dabs	1,0x7E,2
    90     0000                     
    91                           ; Generated 07/09/2023 GMT
    92                           ; 
    93                           ; Copyright © 2023, Microchip Technology Inc. and its subsidiaries ("Microchip")
    94                           ; All rights reserved.
    95                           ; 
    96                           ; This software is developed by Microchip Technology Inc. and its subsidiaries ("Microch
      +                          ip").
    97                           ; 
    98                           ; Redistribution and use in source and binary forms, with or without modification, are
    99                           ; permitted provided that the following conditions are met:
   100                           ; 
   101                           ;     1. Redistributions of source code must retain the above copyright notice, this lis
      +                          t of
   102                           ;        conditions and the following disclaimer.
   103                           ; 
   104                           ;     2. Redistributions in binary form must reproduce the above copyright notice, this 
      +                          list
   105                           ;        of conditions and the following disclaimer in the documentation and/or other
   106                           ;        materials provided with the distribution. Publication is not required when
   107                           ;        this file is used in an embedded application.
   108                           ; 
   109                           ;     3. Microchip's name may not be used to endorse or promote products derived from th
      +                          is
   110                           ;        software without specific prior written permission.
   111                           ; 
   112                           ; THIS SOFTWARE IS PROVIDED BY MICROCHIP "AS IS" AND ANY EXPRESS OR IMPLIED WARRANTIES,
   113                           ; INCLUDING, BUT NOT LIMITED TO, THE IMPLIED WARRANTIES OF MERCHANTABILITY AND FITNESS F
      +                          OR
   114                           ; PURPOSE ARE DISCLAIMED.  IN NO EVENT SHALL MICROCHIP BE LIABLE FOR ANY DIRECT, INDIREC
      +                          T,
   115                           ; INCIDENTAL, SPECIAL, EXEMPLARY, OR CONSEQUENTIAL DAMAGES (INCLUDING BUT NOT LIMITED TO
   116                           ; PROCUREMENT OF SUBSTITUTE GOODS OR SERVICES; LOSS OF USE, DATA OR PROFITS; OR BUSINESS
   117                           ; INTERRUPTION) HOWSOEVER CAUSED AND ON ANY THEORY OF LIABILITY, WHETHER IN CONTRACT, ST
      +                          RICT
   118                           ; LIABILITY, OR TORT (INCLUDING NEGLIGENCE OR OTHERWISE) ARISING IN ANY WAY OUT OF THE U
      +                          SE OF
   119                           ; THIS SOFTWARE, EVEN IF ADVISED OF THE POSSIBILITY OF SUCH DAMAGE.
   120                           ; 
   121                           ; 
   122                           ; Code-generator required, PIC16F1718 Definitions
   123                           ; 
   124                           ; SFR Addresses
   125     0000                     	;# 
   126     0001                     	;# 
   127     0002                     	;# 
   128     0003                     	;# 
   129     0004                     	;# 
   130     0005                     	;# 
   131     0006                     	;# 
   132     0007                     	;# 
   133     0008                     	;# 
   134     0009                     	;# 
   135     000A                     	;# 
   136     000B                     	;# 
   137     000C                     	;# 
   138     000D                     	;# 
   139     000E                     	;# 
   140     0010                     	;# 
   141     0011                     	;# 
   142     0012                     	;# 
   143     0013                     	;# 
   144     0015                     	;# 
   145     0016                     	;# 
   146     0016                     	;# 
   147     0017                     	;# 
   148     0018                     	;# 
   149     0019                     	;# 
   150     001A                     	;# 
   151     001B                     	;# 
   152     001C                     	;# 
   153     008C                     	;# 
   154     008D                     	;# 
   155     008E                     	;# 
   156     0090                     	;# 
   157     0091                     	;# 
   158     0092                     	;# 
   159     0093                     	;# 
   160     0095                     	;# 
   161     0096                     	;# 
   162     0097                     	;# 
   163     0098                     	;# 
   164     0099                     	;# 
   165     009A                     	;# 
   166     009B                     	;# 
   167     009B                     	;# 
   168     009C                     	;# 
   169     009D                     	;# 
   170     009E                     	;# 
   171     009F                     	;# 
   172     010C                     	;# 
   173     010D                     	;# 
   174     010E                     	;# 
   175     0111                     	;# 
   176     0112                     	;# 
   177     0113                     	;# 
   178     0114                     	;# 
   179     0115                     	;# 
   180     0116                     	;# 
   181     0117                     	;# 
   182     0118                     	;# 
   183     0119                     	;# 
   184     011A                     	;# 
   185     011B                     	;# 
   186     011B                     	;# 
   187     011C                     	;# 
   188     018C                     	;# 
   189     018D                     	;# 
   190     018E                     	;# 
   191     0191                     	;# 
   192     0191                     	;# 
   193     0192                     	;# 
   194     0193                     	;# 
   195     0193                     	;# 
   196     0194                     	;# 
   197     0195                     	;# 
   198     0196                     	;# 
   199     0197                     	;# 
   200     0199                     	;# 
   201     0199                     	;# 
   202     0199                     	;# 
   203     019A                     	;# 
   204     019A                     	;# 
   205     019A                     	;# 
   206     019B                     	;# 
   207     019B                     	;# 
   208     019B                     	;# 
   209     019B                     	;# 
   210     019B                     	;# 
   211     019C                     	;# 
   212     019C                     	;# 
   213     019C                     	;# 
   214     019D                     	;# 
   215     019D                     	;# 
   216     019D                     	;# 
   217     019E                     	;# 
   218     019E                     	;# 
   219     019E                     	;# 
   220     019F                     	;# 
   221     019F                     	;# 
   222     019F                     	;# 
   223     019F                     	;# 
   224     019F                     	;# 
   225     020C                     	;# 
   226     020D                     	;# 
   227     020E                     	;# 
   228     0210                     	;# 
   229     0211                     	;# 
   230     0211                     	;# 
   231     0212                     	;# 
   232     0212                     	;# 
   233     0213                     	;# 
   234     0213                     	;# 
   235     0214                     	;# 
   236     0214                     	;# 
   237     0215                     	;# 
   238     0215                     	;# 
   239     0215                     	;# 
   240     0215                     	;# 
   241     0216                     	;# 
   242     0216                     	;# 
   243     0217                     	;# 
   244     0217                     	;# 
   245     028C                     	;# 
   246     028D                     	;# 
   247     028E                     	;# 
   248     0291                     	;# 
   249     0291                     	;# 
   250     0292                     	;# 
   251     0293                     	;# 
   252     0293                     	;# 
   253     0298                     	;# 
   254     0298                     	;# 
   255     0299                     	;# 
   256     029A                     	;# 
   257     029A                     	;# 
   258     029E                     	;# 
   259     030C                     	;# 
   260     030D                     	;# 
   261     030E                     	;# 
   262     038C                     	;# 
   263     038D                     	;# 
   264     038E                     	;# 
   265     0390                     	;# 
   266     0391                     	;# 
   267     0392                     	;# 
   268     0393                     	;# 
   269     0394                     	;# 
   270     0395                     	;# 
   271     0396                     	;# 
   272     0397                     	;# 
   273     0398                     	;# 
   274     0399                     	;# 
   275     039D                     	;# 
   276     039E                     	;# 
   277     039F                     	;# 
   278     0415                     	;# 
   279     0416                     	;# 
   280     0417                     	;# 
   281     041C                     	;# 
   282     041D                     	;# 
   283     041E                     	;# 
   284     0498                     	;# 
   285     0498                     	;# 
   286     0499                     	;# 
   287     049A                     	;# 
   288     049B                     	;# 
   289     049B                     	;# 
   290     049C                     	;# 
   291     049D                     	;# 
   292     049E                     	;# 
   293     049F                     	;# 
   294     0511                     	;# 
   295     0515                     	;# 
   296     0617                     	;# 
   297     0618                     	;# 
   298     0619                     	;# 
   299     0619                     	;# 
   300     061A                     	;# 
   301     061B                     	;# 
   302     061C                     	;# 
   303     061C                     	;# 
   304     0691                     	;# 
   305     0692                     	;# 
   306     0693                     	;# 
   307     0694                     	;# 
   308     0695                     	;# 
   309     0696                     	;# 
   310     0697                     	;# 
   311     0698                     	;# 
   312     0699                     	;# 
   313     069A                     	;# 
   314     069B                     	;# 
   315     069C                     	;# 
   316     069D                     	;# 
   317     069E                     	;# 
   318     069F                     	;# 
   319     0E0F                     	;# 
   320     0E10                     	;# 
   321     0E11                     	;# 
   322     0E12                     	;# 
   323     0E13                     	;# 
   324     0E14                     	;# 
   325     0E15                     	;# 
   326     0E17                     	;# 
   327     0E20                     	;# 
   328     0E21                     	;# 
   329     0E22                     	;# 
   330     0E24                     	;# 
   331     0E25                     	;# 
   332     0E28                     	;# 
   333     0E29                     	;# 
   334     0E2A                     	;# 
   335     0E2B                     	;# 
   336     0E90                     	;# 
   337     0E91                     	;# 
   338     0E92                     	;# 
   339     0E93                     	;# 
   340     0E94                     	;# 
   341     0E95                     	;# 
   342     0E96                     	;# 
   343     0E97                     	;# 
   344     0E98                     	;# 
   345     0E99                     	;# 
   346     0E9A                     	;# 
   347     0E9B                     	;# 
   348     0E9C                     	;# 
   349     0E9D                     	;# 
   350     0E9E                     	;# 
   351     0E9F                     	;# 
   352     0EA0                     	;# 
   353     0EA1                     	;# 
   354     0EA2                     	;# 
   355     0EA3                     	;# 
   356     0EA4                     	;# 
   357     0EA5                     	;# 
   358     0EA6                     	;# 
   359     0EA7                     	;# 
   360     0F0F                     	;# 
   361     0F10                     	;# 
   362     0F11                     	;# 
   363     0F12                     	;# 
   364     0F13                     	;# 
   365     0F14                     	;# 
   366     0F15                     	;# 
   367     0F16                     	;# 
   368     0F17                     	;# 
   369     0F18                     	;# 
   370     0F19                     	;# 
   371     0F1A                     	;# 
   372     0F1B                     	;# 
   373     0F1C                     	;# 
   374     0F1D                     	;# 
   375     0F1E                     	;# 
   376     0F1F                     	;# 
   377     0F20                     	;# 
   378     0F21                     	;# 
   379     0F22                     	;# 
   380     0F23                     	;# 
   381     0F24                     	;# 
   382     0F25                     	;# 
   383     0F26                     	;# 
   384     0F27                     	;# 
   385     0F28                     	;# 
   386     0F29                     	;# 
   387     0F2A                     	;# 
   388     0F2B                     	;# 
   389     0F2C                     	;# 
   390     0F2D                     	;# 
   391     0F2E                     	;# 
   392     0F2F                     	;# 
   393     0F30                     	;# 
   394     0F31                     	;# 
   395     0F32                     	;# 
   396     0F33                     	;# 
   397     0F34                     	;# 
   398     0F35                     	;# 
   399     0F36                     	;# 
   400     0F37                     	;# 
   401     0FE4                     	;# 
   402     0FE5                     	;# 
   403     0FE6                     	;# 
   404     0FE7                     	;# 
   405     0FE8                     	;# 
   406     0FE9                     	;# 
   407     0FEA                     	;# 
   408     0FEB                     	;# 
   409     0FED                     	;# 
   410     0FEE                     	;# 
   411     0FEF                     	;# 
   412     0000                     	;# 
   413     0001                     	;# 
   414     0002                     	;# 
   415     0003                     	;# 
   416     0004                     	;# 
   417     0005                     	;# 
   418     0006                     	;# 
   419     0007                     	;# 
   420     0008                     	;# 
   421     0009                     	;# 
   422     000A                     	;# 
   423     000B                     	;# 
   424     000C                     	;# 
   425     000D                     	;# 
   426     000E                     	;# 
   427     0010                     	;# 
   428     0011                     	;# 
   429     0012                     	;# 
   430     0013                     	;# 
   431     0015                     	;# 
   432     0016                     	;# 
   433     0016                     	;# 
   434     0017                     	;# 
   435     0018                     	;# 
   436     0019                     	;# 
   437     001A                     	;# 
   438     001B                     	;# 
   439     001C                     	;# 
   440     008C                     	;# 
   441     008D                     	;# 
   442     008E                     	;# 
   443     0090                     	;# 
   444     0091                     	;# 
   445     0092                     	;# 
   446     0093                     	;# 
   447     0095                     	;# 
   448     0096                     	;# 
   449     0097                     	;# 
   450     0098                     	;# 
   451     0099                     	;# 
   452     009A                     	;# 
   453     009B                     	;# 
   454     009B                     	;# 
   455     009C                     	;# 
   456     009D                     	;# 
   457     009E                     	;# 
   458     009F                     	;# 
   459     010C                     	;# 
   460     010D                     	;# 
   461     010E                     	;# 
   462     0111                     	;# 
   463     0112                     	;# 
   464     0113                     	;# 
   465     0114                     	;# 
   466     0115                     	;# 
   467     0116                     	;# 
   468     0117                     	;# 
   469     0118                     	;# 
   470     0119                     	;# 
   471     011A                     	;# 
   472     011B                     	;# 
   473     011B                     	;# 
   474     011C                     	;# 
   475     018C                     	;# 
   476     018D                     	;# 
   477     018E                     	;# 
   478     0191                     	;# 
   479     0191                     	;# 
   480     0192                     	;# 
   481     0193                     	;# 
   482     0193                     	;# 
   483     0194                     	;# 
   484     0195                     	;# 
   485     0196                     	;# 
   486     0197                     	;# 
   487     0199                     	;# 
   488     0199                     	;# 
   489     0199                     	;# 
   490     019A                     	;# 
   491     019A                     	;# 
   492     019A                     	;# 
   493     019B                     	;# 
   494     019B                     	;# 
   495     019B                     	;# 
   496     019B                     	;# 
   497     019B                     	;# 
   498     019C                     	;# 
   499     019C                     	;# 
   500     019C                     	;# 
   501     019D                     	;# 
   502     019D                     	;# 
   503     019D                     	;# 
   504     019E                     	;# 
   505     019E                     	;# 
   506     019E                     	;# 
   507     019F                     	;# 
   508     019F                     	;# 
   509     019F                     	;# 
   510     019F                     	;# 
   511     019F                     	;# 
   512     020C                     	;# 
   513     020D                     	;# 
   514     020E                     	;# 
   515     0210                     	;# 
   516     0211                     	;# 
   517     0211                     	;# 
   518     0212                     	;# 
   519     0212                     	;# 
   520     0213                     	;# 
   521     0213                     	;# 
   522     0214                     	;# 
   523     0214                     	;# 
   524     0215                     	;# 
   525     0215                     	;# 
   526     0215                     	;# 
   527     0215                     	;# 
   528     0216                     	;# 
   529     0216                     	;# 
   530     0217                     	;# 
   531     0217                     	;# 
   532     028C                     	;# 
   533     028D                     	;# 
   534     028E                     	;# 
   535     0291                     	;# 
   536     0291                     	;# 
   537     0292                     	;# 
   538     0293                     	;# 
   539     0293                     	;# 
   540     0298                     	;# 
   541     0298                     	;# 
   542     0299                     	;# 
   543     029A                     	;# 
   544     029A                     	;# 
   545     029E                     	;# 
   546     030C                     	;# 
   547     030D                     	;# 
   548     030E                     	;# 
   549     038C                     	;# 
   550     038D                     	;# 
   551     038E                     	;# 
   552     0390                     	;# 
   553     0391                     	;# 
   554     0392                     	;# 
   555     0393                     	;# 
   556     0394                     	;# 
   557     0395                     	;# 
   558     0396                     	;# 
   559     0397                     	;# 
   560     0398                     	;# 
   561     0399                     	;# 
   562     039D                     	;# 
   563     039E                     	;# 
   564     039F                     	;# 
   565     0415                     	;# 
   566     0416                     	;# 
   567     0417                     	;# 
   568     041C                     	;# 
   569     041D                     	;# 
   570     041E                     	;# 
   571     0498                     	;# 
   572     0498                     	;# 
   573     0499                     	;# 
   574     049A                     	;# 
   575     049B                     	;# 
   576     049B                     	;# 
   577     049C                     	;# 
   578     049D                     	;# 
   579     049E                     	;# 
   580     049F                     	;# 
   581     0511                     	;# 
   582     0515                     	;# 
   583     0617                     	;# 
   584     0618                     	;# 
   585     0619                     	;# 
   586     0619                     	;# 
   587     061A                     	;# 
   588     061B                     	;# 
   589     061C                     	;# 
   590     061C                     	;# 
   591     0691                     	;# 
   592     0692                     	;# 
   593     0693                     	;# 
   594     0694                     	;# 
   595     0695                     	;# 
   596     0696                     	;# 
   597     0697                     	;# 
   598     0698                     	;# 
   599     0699                     	;# 
   600     069A                     	;# 
   601     069B                     	;# 
   602     069C                     	;# 
   603     069D                     	;# 
   604     069E                     	;# 
   605     069F                     	;# 
   606     0E0F                     	;# 
   607     0E10                     	;# 
   608     0E11                     	;# 
   609     0E12                     	;# 
   610     0E13                     	;# 
   611     0E14                     	;# 
   612     0E15                     	;# 
   613     0E17                     	;# 
   614     0E20                     	;# 
   615     0E21                     	;# 
   616     0E22                     	;# 
   617     0E24                     	;# 
   618     0E25                     	;# 
   619     0E28                     	;# 
   620     0E29                     	;# 
   621     0E2A                     	;# 
   622     0E2B                     	;# 
   623     0E90                     	;# 
   624     0E91                     	;# 
   625     0E92                     	;# 
   626     0E93                     	;# 
   627     0E94                     	;# 
   628     0E95                     	;# 
   629     0E96                     	;# 
   630     0E97                     	;# 
   631     0E98                     	;# 
   632     0E99                     	;# 
   633     0E9A                     	;# 
   634     0E9B                     	;# 
   635     0E9C                     	;# 
   636     0E9D                     	;# 
   637     0E9E                     	;# 
   638     0E9F                     	;# 
   639     0EA0                     	;# 
   640     0EA1                     	;# 
   641     0EA2                     	;# 
   642     0EA3                     	;# 
   643     0EA4                     	;# 
   644     0EA5                     	;# 
   645     0EA6                     	;# 
   646     0EA7                     	;# 
   647     0F0F                     	;# 
   648     0F10                     	;# 
   649     0F11                     	;# 
   650     0F12                     	;# 
   651     0F13                     	;# 
   652     0F14                     	;# 
   653     0F15                     	;# 
   654     0F16                     	;# 
   655     0F17                     	;# 
   656     0F18                     	;# 
   657     0F19                     	;# 
   658     0F1A                     	;# 
   659     0F1B                     	;# 
   660     0F1C                     	;# 
   661     0F1D                     	;# 
   662     0F1E                     	;# 
   663     0F1F                     	;# 
   664     0F20                     	;# 
   665     0F21                     	;# 
   666     0F22                     	;# 
   667     0F23                     	;# 
   668     0F24                     	;# 
   669     0F25                     	;# 
   670     0F26                     	;# 
   671     0F27                     	;# 
   672     0F28                     	;# 
   673     0F29                     	;# 
   674     0F2A                     	;# 
   675     0F2B                     	;# 
   676     0F2C                     	;# 
   677     0F2D                     	;# 
   678     0F2E                     	;# 
   679     0F2F                     	;# 
   680     0F30                     	;# 
   681     0F31                     	;# 
   682     0F32                     	;# 
   683     0F33                     	;# 
   684     0F34                     	;# 
   685     0F35                     	;# 
   686     0F36                     	;# 
   687     0F37                     	;# 
   688     0FE4                     	;# 
   689     0FE5                     	;# 
   690     0FE6                     	;# 
   691     0FE7                     	;# 
   692     0FE8                     	;# 
   693     0FE9                     	;# 
   694     0FEA                     	;# 
   695     0FEB                     	;# 
   696     0FED                     	;# 
   697     0FEE                     	;# 
   698     0FEF                     	;# 
   699     0000                     	;# 
   700     0001                     	;# 
   701     0002                     	;# 
   702     0003                     	;# 
   703     0004                     	;# 
   704     0005                     	;# 
   705     0006                     	;# 
   706     0007                     	;# 
   707     0008                     	;# 
   708     0009                     	;# 
   709     000A                     	;# 
   710     000B                     	;# 
   711     000C                     	;# 
   712     000D                     	;# 
   713     000E                     	;# 
   714     0010                     	;# 
   715     0011                     	;# 
   716     0012                     	;# 
   717     0013                     	;# 
   718     0015                     	;# 
   719     0016                     	;# 
   720     0016                     	;# 
   721     0017                     	;# 
   722     0018                     	;# 
   723     0019                     	;# 
   724     001A                     	;# 
   725     001B                     	;# 
   726     001C                     	;# 
   727     008C                     	;# 
   728     008D                     	;# 
   729     008E                     	;# 
   730     0090                     	;# 
   731     0091                     	;# 
   732     0092                     	;# 
   733     0093                     	;# 
   734     0095                     	;# 
   735     0096                     	;# 
   736     0097                     	;# 
   737     0098                     	;# 
   738     0099                     	;# 
   739     009A                     	;# 
   740     009B                     	;# 
   741     009B                     	;# 
   742     009C                     	;# 
   743     009D                     	;# 
   744     009E                     	;# 
   745     009F                     	;# 
   746     010C                     	;# 
   747     010D                     	;# 
   748     010E                     	;# 
   749     0111                     	;# 
   750     0112                     	;# 
   751     0113                     	;# 
   752     0114                     	;# 
   753     0115                     	;# 
   754     0116                     	;# 
   755     0117                     	;# 
   756     0118                     	;# 
   757     0119                     	;# 
   758     011A                     	;# 
   759     011B                     	;# 
   760     011B                     	;# 
   761     011C                     	;# 
   762     018C                     	;# 
   763     018D                     	;# 
   764     018E                     	;# 
   765     0191                     	;# 
   766     0191                     	;# 
   767     0192                     	;# 
   768     0193                     	;# 
   769     0193                     	;# 
   770     0194                     	;# 
   771     0195                     	;# 
   772     0196                     	;# 
   773     0197                     	;# 
   774     0199                     	;# 
   775     0199                     	;# 
   776     0199                     	;# 
   777     019A                     	;# 
   778     019A                     	;# 
   779     019A                     	;# 
   780     019B                     	;# 
   781     019B                     	;# 
   782     019B                     	;# 
   783     019B                     	;# 
   784     019B                     	;# 
   785     019C                     	;# 
   786     019C                     	;# 
   787     019C                     	;# 
   788     019D                     	;# 
   789     019D                     	;# 
   790     019D                     	;# 
   791     019E                     	;# 
   792     019E                     	;# 
   793     019E                     	;# 
   794     019F                     	;# 
   795     019F                     	;# 
   796     019F                     	;# 
   797     019F                     	;# 
   798     019F                     	;# 
   799     020C                     	;# 
   800     020D                     	;# 
   801     020E                     	;# 
   802     0210                     	;# 
   803     0211                     	;# 
   804     0211                     	;# 
   805     0212                     	;# 
   806     0212                     	;# 
   807     0213                     	;# 
   808     0213                     	;# 
   809     0214                     	;# 
   810     0214                     	;# 
   811     0215                     	;# 
   812     0215                     	;# 
   813     0215                     	;# 
   814     0215                     	;# 
   815     0216                     	;# 
   816     0216                     	;# 
   817     0217                     	;# 
   818     0217                     	;# 
   819     028C                     	;# 
   820     028D                     	;# 
   821     028E                     	;# 
   822     0291                     	;# 
   823     0291                     	;# 
   824     0292                     	;# 
   825     0293                     	;# 
   826     0293                     	;# 
   827     0298                     	;# 
   828     0298                     	;# 
   829     0299                     	;# 
   830     029A                     	;# 
   831     029A                     	;# 
   832     029E                     	;# 
   833     030C                     	;# 
   834     030D                     	;# 
   835     030E                     	;# 
   836     038C                     	;# 
   837     038D                     	;# 
   838     038E                     	;# 
   839     0390                     	;# 
   840     0391                     	;# 
   841     0392                     	;# 
   842     0393                     	;# 
   843     0394                     	;# 
   844     0395                     	;# 
   845     0396                     	;# 
   846     0397                     	;# 
   847     0398                     	;# 
   848     0399                     	;# 
   849     039D                     	;# 
   850     039E                     	;# 
   851     039F                     	;# 
   852     0415                     	;# 
   853     0416                     	;# 
   854     0417                     	;# 
   855     041C                     	;# 
   856     041D                     	;# 
   857     041E                     	;# 
   858     0498                     	;# 
   859     0498                     	;# 
   860     0499                     	;# 
   861     049A                     	;# 
   862     049B                     	;# 
   863     049B                     	;# 
   864     049C                     	;# 
   865     049D                     	;# 
   866     049E                     	;# 
   867     049F                     	;# 
   868     0511                     	;# 
   869     0515                     	;# 
   870     0617                     	;# 
   871     0618                     	;# 
   872     0619                     	;# 
   873     0619                     	;# 
   874     061A                     	;# 
   875     061B                     	;# 
   876     061C                     	;# 
   877     061C                     	;# 
   878     0691                     	;# 
   879     0692                     	;# 
   880     0693                     	;# 
   881     0694                     	;# 
   882     0695                     	;# 
   883     0696                     	;# 
   884     0697                     	;# 
   885     0698                     	;# 
   886     0699                     	;# 
   887     069A                     	;# 
   888     069B                     	;# 
   889     069C                     	;# 
   890     069D                     	;# 
   891     069E                     	;# 
   892     069F                     	;# 
   893     0E0F                     	;# 
   894     0E10                     	;# 
   895     0E11                     	;# 
   896     0E12                     	;# 
   897     0E13                     	;# 
   898     0E14                     	;# 
   899     0E15                     	;# 
   900     0E17                     	;# 
   901     0E20                     	;# 
   902     0E21                     	;# 
   903     0E22                     	;# 
   904     0E24                     	;# 
   905     0E25                     	;# 
   906     0E28                     	;# 
   907     0E29                     	;# 
   908     0E2A                     	;# 
   909     0E2B                     	;# 
   910     0E90                     	;# 
   911     0E91                     	;# 
   912     0E92                     	;# 
   913     0E93                     	;# 
   914     0E94                     	;# 
   915     0E95                     	;# 
   916     0E96                     	;# 
   917     0E97                     	;# 
   918     0E98                     	;# 
   919     0E99                     	;# 
   920     0E9A                     	;# 
   921     0E9B                     	;# 
   922     0E9C                     	;# 
   923     0E9D                     	;# 
   924     0E9E                     	;# 
   925     0E9F                     	;# 
   926     0EA0                     	;# 
   927     0EA1                     	;# 
   928     0EA2                     	;# 
   929     0EA3                     	;# 
   930     0EA4                     	;# 
   931     0EA5                     	;# 
   932     0EA6                     	;# 
   933     0EA7                     	;# 
   934     0F0F                     	;# 
   935     0F10                     	;# 
   936     0F11                     	;# 
   937     0F12                     	;# 
   938     0F13                     	;# 
   939     0F14                     	;# 
   940     0F15                     	;# 
   941     0F16                     	;# 
   942     0F17                     	;# 
   943     0F18                     	;# 
   944     0F19                     	;# 
   945     0F1A                     	;# 
   946     0F1B                     	;# 
   947     0F1C                     	;# 
   948     0F1D                     	;# 
   949     0F1E                     	;# 
   950     0F1F                     	;# 
   951     0F20                     	;# 
   952     0F21                     	;# 
   953     0F22                     	;# 
   954     0F23                     	;# 
   955     0F24                     	;# 
   956     0F25                     	;# 
   957     0F26                     	;# 
   958     0F27                     	;# 
   959     0F28                     	;# 
   960     0F29                     	;# 
   961     0F2A                     	;# 
   962     0F2B                     	;# 
   963     0F2C                     	;# 
   964     0F2D                     	;# 
   965     0F2E                     	;# 
   966     0F2F                     	;# 
   967     0F30                     	;# 
   968     0F31                     	;# 
   969     0F32                     	;# 
   970     0F33                     	;# 
   971     0F34                     	;# 
   972     0F35                     	;# 
   973     0F36                     	;# 
   974     0F37                     	;# 
   975     0FE4                     	;# 
   976     0FE5                     	;# 
   977     0FE6                     	;# 
   978     0FE7                     	;# 
   979     0FE8                     	;# 
   980     0FE9                     	;# 
   981     0FEA                     	;# 
   982     0FEB                     	;# 
   983     0FED                     	;# 
   984     0FEE                     	;# 
   985     0FEF                     	;_kernels
   986                           
   987                           	psect	idataBANK3
   988     26C2                     __pidataBANK3:
   989                           
   990                           ;initializer for _ml_class_names
   991     26C2  34FA               	retlw	low (STR_1| (0+32768))
   992     26C3  34A8               	retlw	high (STR_1| (0+32768))
   993     26C4  34B8               	retlw	low (STR_2| (0+32768))
   994     26C5  34A8               	retlw	high (STR_2| (0+32768))
   995     26C6  34CD               	retlw	low (STR_3| (0+32768))
   996     26C7  34A8               	retlw	high (STR_3| (0+32768))
   997                           
   998                           	psect	idataBANK4
   999     1A1D                     __pidataBANK4:
  1000                           
  1001                           ;initializer for run_demo@F6263
  1002     1A1D  3433               	retlw	51
  1003     1A1E  3433               	retlw	51
  1004     1A1F  34A3               	retlw	163
  1005     1A20  3440               	retlw	64
  1006     1A21  3400               	retlw	0
  1007     1A22  3400               	retlw	0
  1008     1A23  3460               	retlw	96
  1009     1A24  3440               	retlw	64
  1010     1A25  3433               	retlw	51
  1011     1A26  3433               	retlw	51
  1012     1A27  34B3               	retlw	179
  1013     1A28  343F               	retlw	63
  1014     1A29  34CD               	retlw	205
  1015     1A2A  34CC               	retlw	204
  1016     1A2B  344C               	retlw	76
  1017     1A2C  343E               	retlw	62
  1018     1A2D  3400               	retlw	0
  1019     1A2E  3400               	retlw	0
  1020     1A2F  34C0               	retlw	192
  1021     1A30  3440               	retlw	64
  1022     1A31  349A               	retlw	154
  1023     1A32  3499               	retlw	153
  1024     1A33  3439               	retlw	57
  1025     1A34  3440               	retlw	64
  1026     1A35  3400               	retlw	0
  1027     1A36  3400               	retlw	0
  1028     1A37  3490               	retlw	144
  1029     1A38  3440               	retlw	64
  1030     1A39  3400               	retlw	0
  1031     1A3A  3400               	retlw	0
  1032     1A3B  34C0               	retlw	192
  1033     1A3C  343F               	retlw	63
  1034     1A3D  349A               	retlw	154
  1035     1A3E  3499               	retlw	153
  1036     1A3F  34C9               	retlw	201
  1037     1A40  3440               	retlw	64
  1038     1A41  3433               	retlw	51
  1039     1A42  3433               	retlw	51
  1040     1A43  3453               	retlw	83
  1041     1A44  3440               	retlw	64
  1042     1A45  3400               	retlw	0
  1043     1A46  3400               	retlw	0
  1044     1A47  34C0               	retlw	192
  1045     1A48  3440               	retlw	64
  1046     1A49  3400               	retlw	0
  1047     1A4A  3400               	retlw	0
  1048     1A4B  3420               	retlw	32
  1049     1A4C  3440               	retlw	64
  1050                           
  1051                           	psect	stringtext1
  1052     1800                     __pstringtext1:
  1053     1800                     _ml_support_vectors:
  1054     1800  3433               	retlw	51
  1055     1801  3433               	retlw	51
  1056     1802  34A3               	retlw	163
  1057     1803  3440               	retlw	64
  1058     1804  3433               	retlw	51
  1059     1805  3433               	retlw	51
  1060     1806  3453               	retlw	83
  1061     1807  3440               	retlw	64
  1062     1808  349A               	retlw	154
  1063     1809  3499               	retlw	153
  1064     180A  34D9               	retlw	217
  1065     180B  343F               	retlw	63
  1066     180C  3400               	retlw	0
  1067     180D  3400               	retlw	0
  1068     180E  3400               	retlw	0
  1069     180F  343F               	retlw	63
  1070     1810  349A               	retlw	154
  1071     1811  3499               	retlw	153
  1072     1812  3499               	retlw	153
  1073     1813  3440               	retlw	64
  1074     1814  349A               	retlw	154
  1075     1815  3499               	retlw	153
  1076     1816  3459               	retlw	89
  1077     1817  3440               	retlw	64
  1078     1818  3433               	retlw	51
  1079     1819  3433               	retlw	51
  1080     181A  34F3               	retlw	243
  1081     181B  343F               	retlw	63
  1082     181C  34CD               	retlw	205
  1083     181D  34CC               	retlw	204
  1084     181E  344C               	retlw	76
  1085     181F  343E               	retlw	62
  1086     1820  3400               	retlw	0
  1087     1821  3400               	retlw	0
  1088     1822  3490               	retlw	144
  1089     1823  3440               	retlw	64
  1090     1824  3433               	retlw	51
  1091     1825  3433               	retlw	51
  1092     1826  3413               	retlw	19
  1093     1827  3440               	retlw	64
  1094     1828  3466               	retlw	102
  1095     1829  3466               	retlw	102
  1096     182A  34A6               	retlw	166
  1097     182B  343F               	retlw	63
  1098     182C  349A               	retlw	154
  1099     182D  3499               	retlw	153
  1100     182E  3499               	retlw	153
  1101     182F  343E               	retlw	62
  1102     1830  34CD               	retlw	205
  1103     1831  34CC               	retlw	204
  1104     1832  34DC               	retlw	220
  1105     1833  3440               	retlw	64
  1106     1834  3466               	retlw	102
  1107     1835  3466               	retlw	102
  1108     1836  3446               	retlw	70
  1109     1837  3440               	retlw	64
  1110     1838  34CD               	retlw	205
  1111     1839  34CC               	retlw	204
  1112     183A  349C               	retlw	156
  1113     183B  3440               	retlw	64
  1114     183C  3400               	retlw	0
  1115     183D  3400               	retlw	0
  1116     183E  34C0               	retlw	192
  1117     183F  343F               	retlw	63
  1118     1840  349A               	retlw	154
  1119     1841  3499               	retlw	153
  1120     1842  34C9               	retlw	201
  1121     1843  3440               	retlw	64
  1122     1844  3433               	retlw	51
  1123     1845  3433               	retlw	51
  1124     1846  3453               	retlw	83
  1125     1847  3440               	retlw	64
  1126     1848  3466               	retlw	102
  1127     1849  3466               	retlw	102
  1128     184A  3496               	retlw	150
  1129     184B  3440               	retlw	64
  1130     184C  34CD               	retlw	205
  1131     184D  34CC               	retlw	204
  1132     184E  34CC               	retlw	204
  1133     184F  343F               	retlw	63
  1134     1850  3433               	retlw	51
  1135     1851  3433               	retlw	51
  1136     1852  34C3               	retlw	195
  1137     1853  3440               	retlw	64
  1138     1854  349A               	retlw	154
  1139     1855  3499               	retlw	153
  1140     1856  3439               	retlw	57
  1141     1857  3440               	retlw	64
  1142     1858  3466               	retlw	102
  1143     1859  3466               	retlw	102
  1144     185A  3496               	retlw	150
  1145     185B  3440               	retlw	64
  1146     185C  3433               	retlw	51
  1147     185D  3433               	retlw	51
  1148     185E  34B3               	retlw	179
  1149     185F  343F               	retlw	63
  1150     1860  3433               	retlw	51
  1151     1861  3433               	retlw	51
  1152     1862  34B3               	retlw	179
  1153     1863  3440               	retlw	64
  1154     1864  3400               	retlw	0
  1155     1865  3400               	retlw	0
  1156     1866  3440               	retlw	64
  1157     1867  3440               	retlw	64
  1158     1868  3400               	retlw	0
  1159     1869  3400               	retlw	0
  1160     186A  3490               	retlw	144
  1161     186B  3440               	retlw	64
  1162     186C  3400               	retlw	0
  1163     186D  3400               	retlw	0
  1164     186E  34C0               	retlw	192
  1165     186F  343F               	retlw	63
  1166     1870  3466               	retlw	102
  1167     1871  3466               	retlw	102
  1168     1872  34C6               	retlw	198
  1169     1873  3440               	retlw	64
  1170     1874  34CD               	retlw	205
  1171     1875  34CC               	retlw	204
  1172     1876  340C               	retlw	12
  1173     1877  3440               	retlw	64
  1174     1878  3400               	retlw	0
  1175     1879  3400               	retlw	0
  1176     187A  3490               	retlw	144
  1177     187B  3440               	retlw	64
  1178     187C  3400               	retlw	0
  1179     187D  3400               	retlw	0
  1180     187E  34C0               	retlw	192
  1181     187F  343F               	retlw	63
  1182     1880  34CD               	retlw	205
  1183     1881  34CC               	retlw	204
  1184     1882  34BC               	retlw	188
  1185     1883  3440               	retlw	64
  1186     1884  34CD               	retlw	205
  1187     1885  34CC               	retlw	204
  1188     1886  344C               	retlw	76
  1189     1887  3440               	retlw	64
  1190     1888  349A               	retlw	154
  1191     1889  3499               	retlw	153
  1192     188A  3499               	retlw	153
  1193     188B  3440               	retlw	64
  1194     188C  3466               	retlw	102
  1195     188D  3466               	retlw	102
  1196     188E  34E6               	retlw	230
  1197     188F  343F               	retlw	63
  1198     1890  349A               	retlw	154
  1199     1891  3499               	retlw	153
  1200     1892  34C9               	retlw	201
  1201     1893  3440               	retlw	64
  1202     1894  3400               	retlw	0
  1203     1895  3400               	retlw	0
  1204     1896  3420               	retlw	32
  1205     1897  3440               	retlw	64
  1206     1898  34CD               	retlw	205
  1207     1899  34CC               	retlw	204
  1208     189A  349C               	retlw	156
  1209     189B  3440               	retlw	64
  1210     189C  3400               	retlw	0
  1211     189D  3400               	retlw	0
  1212     189E  34C0               	retlw	192
  1213     189F  343F               	retlw	63
  1214     18A0  349A               	retlw	154
  1215     18A1  3499               	retlw	153
  1216     18A2  34D9               	retlw	217
  1217     18A3  3440               	retlw	64
  1218     18A4  3433               	retlw	51
  1219     18A5  3433               	retlw	51
  1220     18A6  3433               	retlw	51
  1221     18A7  3440               	retlw	64
  1222     18A8  349A               	retlw	154
  1223     18A9  3499               	retlw	153
  1224     18AA  3499               	retlw	153
  1225     18AB  3440               	retlw	64
  1226     18AC  3433               	retlw	51
  1227     18AD  3433               	retlw	51
  1228     18AE  34B3               	retlw	179
  1229     18AF  343F               	retlw	63
  1230     18B0  3466               	retlw	102
  1231     18B1  3466               	retlw	102
  1232     18B2  34D6               	retlw	214
  1233     18B3  3440               	retlw	64
  1234     18B4  3400               	retlw	0
  1235     18B5  3400               	retlw	0
  1236     18B6  3440               	retlw	64
  1237     18B7  3440               	retlw	64
  1238     18B8  3400               	retlw	0
  1239     18B9  3400               	retlw	0
  1240     18BA  34A0               	retlw	160
  1241     18BB  3440               	retlw	64
  1242     18BC  349A               	retlw	154
  1243     18BD  3499               	retlw	153
  1244     18BE  34D9               	retlw	217
  1245     18BF  343F               	retlw	63
  1246     18C0  3400               	retlw	0
  1247     18C1  3400               	retlw	0
  1248     18C2  34C0               	retlw	192
  1249     18C3  3440               	retlw	64
  1250     18C4  34CD               	retlw	205
  1251     18C5  34CC               	retlw	204
  1252     18C6  342C               	retlw	44
  1253     18C7  3440               	retlw	64
  1254     18C8  3433               	retlw	51
  1255     18C9  3433               	retlw	51
  1256     18CA  34A3               	retlw	163
  1257     18CB  3440               	retlw	64
  1258     18CC  34CD               	retlw	205
  1259     18CD  34CC               	retlw	204
  1260     18CE  34CC               	retlw	204
  1261     18CF  343F               	retlw	63
  1262     18D0  34CD               	retlw	205
  1263     18D1  34CC               	retlw	204
  1264     18D2  34AC               	retlw	172
  1265     18D3  3440               	retlw	64
  1266     18D4  3400               	retlw	0
  1267     18D5  3400               	retlw	0
  1268     18D6  3440               	retlw	64
  1269     18D7  3440               	retlw	64
  1270     18D8  3400               	retlw	0
  1271     18D9  3400               	retlw	0
  1272     18DA  3490               	retlw	144
  1273     18DB  3440               	retlw	64
  1274     18DC  3400               	retlw	0
  1275     18DD  3400               	retlw	0
  1276     18DE  34C0               	retlw	192
  1277     18DF  343F               	retlw	63
  1278     18E0  3433               	retlw	51
  1279     18E1  3433               	retlw	51
  1280     18E2  34A3               	retlw	163
  1281     18E3  3440               	retlw	64
  1282     18E4  3400               	retlw	0
  1283     18E5  3400               	retlw	0
  1284     18E6  3420               	retlw	32
  1285     18E7  3440               	retlw	64
  1286     18E8  3400               	retlw	0
  1287     18E9  3400               	retlw	0
  1288     18EA  3440               	retlw	64
  1289     18EB  3440               	retlw	64
  1290     18EC  34CD               	retlw	205
  1291     18ED  34CC               	retlw	204
  1292     18EE  348C               	retlw	140
  1293     18EF  343F               	retlw	63
  1294     18F0  34CD               	retlw	205
  1295     18F1  34CC               	retlw	204
  1296     18F2  349C               	retlw	156
  1297     18F3  3440               	retlw	64
  1298     18F4  3400               	retlw	0
  1299     18F5  3400               	retlw	0
  1300     18F6  3420               	retlw	32
  1301     18F7  3440               	retlw	64
  1302     18F8  3400               	retlw	0
  1303     18F9  3400               	retlw	0
  1304     18FA  3490               	retlw	144
  1305     18FB  3440               	retlw	64
  1306     18FC  349A               	retlw	154
  1307     18FD  3499               	retlw	153
  1308     18FE  34D9               	retlw	217
  1309     18FF  343F               	retlw	63
  1310     1900  3400               	retlw	0
  1311     1901  3400               	retlw	0
  1312     1902  34D0               	retlw	208
  1313     1903  3440               	retlw	64
  1314     1904  34CD               	retlw	205
  1315     1905  34CC               	retlw	204
  1316     1906  344C               	retlw	76
  1317     1907  3440               	retlw	64
  1318     1908  3433               	retlw	51
  1319     1909  3433               	retlw	51
  1320     190A  34A3               	retlw	163
  1321     190B  3440               	retlw	64
  1322     190C  3400               	retlw	0
  1323     190D  3400               	retlw	0
  1324     190E  3400               	retlw	0
  1325     190F  3440               	retlw	64
  1326     1910  3400               	retlw	0
  1327     1911  3400               	retlw	0
  1328     1912  34C0               	retlw	192
  1329     1913  3440               	retlw	64
  1330     1914  34CD               	retlw	205
  1331     1915  34CC               	retlw	204
  1332     1916  340C               	retlw	12
  1333     1917  3440               	retlw	64
  1334     1918  3400               	retlw	0
  1335     1919  3400               	retlw	0
  1336     191A  34A0               	retlw	160
  1337     191B  3440               	retlw	64
  1338     191C  3400               	retlw	0
  1339     191D  3400               	retlw	0
  1340     191E  34C0               	retlw	192
  1341     191F  343F               	retlw	63
  1342     1920  349A               	retlw	154
  1343     1921  3499               	retlw	153
  1344     1922  34C9               	retlw	201
  1345     1923  3440               	retlw	64
  1346     1924  34CD               	retlw	205
  1347     1925  34CC               	retlw	204
  1348     1926  342C               	retlw	44
  1349     1927  3440               	retlw	64
  1350     1928  34CD               	retlw	205
  1351     1929  34CC               	retlw	204
  1352     192A  349C               	retlw	156
  1353     192B  3440               	retlw	64
  1354     192C  3466               	retlw	102
  1355     192D  3466               	retlw	102
  1356     192E  34E6               	retlw	230
  1357     192F  343F               	retlw	63
  1358     1930  3466               	retlw	102
  1359     1931  3466               	retlw	102
  1360     1932  34C6               	retlw	198
  1361     1933  3440               	retlw	64
  1362     1934  3433               	retlw	51
  1363     1935  3433               	retlw	51
  1364     1936  3433               	retlw	51
  1365     1937  3440               	retlw	64
  1366     1938  349A               	retlw	154
  1367     1939  3499               	retlw	153
  1368     193A  3499               	retlw	153
  1369     193B  3440               	retlw	64
  1370     193C  3466               	retlw	102
  1371     193D  3466               	retlw	102
  1372     193E  34E6               	retlw	230
  1373     193F  343F               	retlw	63
  1374     1940  3433               	retlw	51
  1375     1941  3433               	retlw	51
  1376     1942  34C3               	retlw	195
  1377     1943  3440               	retlw	64
  1378     1944  3400               	retlw	0
  1379     1945  3400               	retlw	0
  1380     1946  3440               	retlw	64
  1381     1947  3440               	retlw	64
  1382     1948  34CD               	retlw	205
  1383     1949  34CC               	retlw	204
  1384     194A  349C               	retlw	156
  1385     194B  3440               	retlw	64
  1386     194C  3466               	retlw	102
  1387     194D  3466               	retlw	102
  1388     194E  34E6               	retlw	230
  1389     194F  343F               	retlw	63
  1390     1950  3466               	retlw	102
  1391     1951  3466               	retlw	102
  1392     1952  34E6               	retlw	230
  1393     1953  3440               	retlw	64
  1394     1954  3400               	retlw	0
  1395     1955  3400               	retlw	0
  1396     1956  3440               	retlw	64
  1397     1957  3440               	retlw	64
  1398     1958  349A               	retlw	154
  1399     1959  3499               	retlw	153
  1400     195A  34B9               	retlw	185
  1401     195B  3440               	retlw	64
  1402     195C  34CD               	retlw	205
  1403     195D  34CC               	retlw	204
  1404     195E  34CC               	retlw	204
  1405     195F  343F               	retlw	63
  1406     1960  349A               	retlw	154
  1407     1961  3499               	retlw	153
  1408     1962  34C9               	retlw	201
  1409     1963  3440               	retlw	64
  1410     1964  3433               	retlw	51
  1411     1965  3433               	retlw	51
  1412     1966  3433               	retlw	51
  1413     1967  3440               	retlw	64
  1414     1968  3433               	retlw	51
  1415     1969  3433               	retlw	51
  1416     196A  34A3               	retlw	163
  1417     196B  3440               	retlw	64
  1418     196C  3400               	retlw	0
  1419     196D  3400               	retlw	0
  1420     196E  34C0               	retlw	192
  1421     196F  343F               	retlw	63
  1422     1970  3400               	retlw	0
  1423     1971  3400               	retlw	0
  1424     1972  34C0               	retlw	192
  1425     1973  3440               	retlw	64
  1426     1974  3400               	retlw	0
  1427     1975  3400               	retlw	0
  1428     1976  3440               	retlw	64
  1429     1977  3440               	retlw	64
  1430     1978  349A               	retlw	154
  1431     1979  3499               	retlw	153
  1432     197A  3499               	retlw	153
  1433     197B  3440               	retlw	64
  1434     197C  3466               	retlw	102
  1435     197D  3466               	retlw	102
  1436     197E  34E6               	retlw	230
  1437     197F  343F               	retlw	63
  1438     1980  349A               	retlw	154
  1439     1981  3499               	retlw	153
  1440     1982  34C9               	retlw	201
  1441     1983  3440               	retlw	64
  1442     1984  3400               	retlw	0
  1443     1985  3400               	retlw	0
  1444     1986  3420               	retlw	32
  1445     1987  3440               	retlw	64
  1446     1988  3400               	retlw	0
  1447     1989  3400               	retlw	0
  1448     198A  34A0               	retlw	160
  1449     198B  3440               	retlw	64
  1450     198C  3433               	retlw	51
  1451     198D  3433               	retlw	51
  1452     198E  34F3               	retlw	243
  1453     198F  343F               	retlw	63
  1454     1990  3400               	retlw	0
  1455     1991  3400               	retlw	0
  1456     1992  34D0               	retlw	208
  1457     1993  3440               	retlw	64
  1458     1994  3400               	retlw	0
  1459     1995  3400               	retlw	0
  1460     1996  3440               	retlw	64
  1461     1997  3440               	retlw	64
  1462     1998  3466               	retlw	102
  1463     1999  3466               	retlw	102
  1464     199A  34A6               	retlw	166
  1465     199B  3440               	retlw	64
  1466     199C  3400               	retlw	0
  1467     199D  3400               	retlw	0
  1468     199E  3400               	retlw	0
  1469     199F  3440               	retlw	64
  1470     19A0  34CD               	retlw	205
  1471     19A1  34CC               	retlw	204
  1472     19A2  34BC               	retlw	188
  1473     19A3  3440               	retlw	64
  1474     19A4  3400               	retlw	0
  1475     19A5  3400               	retlw	0
  1476     19A6  3440               	retlw	64
  1477     19A7  3440               	retlw	64
  1478     19A8  3433               	retlw	51
  1479     19A9  3433               	retlw	51
  1480     19AA  34A3               	retlw	163
  1481     19AB  3440               	retlw	64
  1482     19AC  3466               	retlw	102
  1483     19AD  3466               	retlw	102
  1484     19AE  34E6               	retlw	230
  1485     19AF  343F               	retlw	63
  1486     19B0                     __end_of_ml_support_vectors:
  1487     0011                     _PIR1bits	set	17
  1488     008D                     _TRISBbits	set	141
  1489     04CF                     _SPLLEN	set	1231
  1490     04CE                     _IRCF3	set	1230
  1491     04CD                     _IRCF2	set	1229
  1492     04CC                     _IRCF1	set	1228
  1493     04CB                     _IRCF0	set	1227
  1494     04C9                     _SCS1	set	1225
  1495     04C8                     _SCS0	set	1224
  1496     018D                     _ANSELBbits	set	397
  1497     019A                     _TX1REG	set	410
  1498     0199                     _RC1REG	set	409
  1499     019D                     _RC1STAbits	set	413
  1500     019B                     _SPBRGL	set	411
  1501     0CF5                     _TXEN	set	3317
  1502     0CEC                     _CREN	set	3308
  1503     0CEF                     _SPEN	set	3311
  1504     0CF4                     _SYNC	set	3316
  1505     0CFB                     _BRG16	set	3323
  1506     0CF2                     _BRGH	set	3314
  1507     0E24                     _RXPPSbits	set	3620
  1508     0E0F                     _PPSLOCKbits	set	3599
  1509     0E0F                     _PPSLOCK	set	3599
  1510     0E9A                     _RB2PPSbits	set	3738
  1511     19B0                     STR_6:
  1512     19B0  343D               	retlw	61	;'='
  1513     19B1  343D               	retlw	61	;'='
  1514     19B2  343D               	retlw	61	;'='
  1515     19B3  343D               	retlw	61	;'='
  1516     19B4  343D               	retlw	61	;'='
  1517     19B5  343D               	retlw	61	;'='
  1518     19B6  343D               	retlw	61	;'='
  1519     19B7  343D               	retlw	61	;'='
  1520     19B8  343D               	retlw	61	;'='
  1521     19B9  343D               	retlw	61	;'='
  1522     19BA  343D               	retlw	61	;'='
  1523     19BB  343D               	retlw	61	;'='
  1524     19BC  343D               	retlw	61	;'='
  1525     19BD  343D               	retlw	61	;'='
  1526     19BE  343D               	retlw	61	;'='
  1527     19BF  343D               	retlw	61	;'='
  1528     19C0  343D               	retlw	61	;'='
  1529     19C1  343D               	retlw	61	;'='
  1530     19C2  343D               	retlw	61	;'='
  1531     19C3  343D               	retlw	61	;'='
  1532     19C4  343D               	retlw	61	;'='
  1533     19C5  343D               	retlw	61	;'='
  1534     19C6  343D               	retlw	61	;'='
  1535     19C7  343D               	retlw	61	;'='
  1536     19C8  343D               	retlw	61	;'='
  1537     19C9  343D               	retlw	61	;'='
  1538     19CA  343D               	retlw	61	;'='
  1539     19CB  343D               	retlw	61	;'='
  1540     19CC  343D               	retlw	61	;'='
  1541     19CD  343D               	retlw	61	;'='
  1542     19CE  343D               	retlw	61	;'='
  1543     19CF  343D               	retlw	61	;'='
  1544     19D0  340D               	retlw	13
  1545     19D1  340A               	retlw	10
  1546     19D2  3400               	retlw	0
  1547                           
  1548                           	psect	stringtext2
  1549     2800                     __pstringtext2:
  1550     2800                     STR_7:
  1551     2800  3420               	retlw	32	;' '
  1552     2801  3420               	retlw	32	;' '
  1553     2802  3450               	retlw	80	;'P'
  1554     2803  3449               	retlw	73	;'I'
  1555     2804  3443               	retlw	67	;'C'
  1556     2805  3431               	retlw	49	;'1'
  1557     2806  3436               	retlw	54	;'6'
  1558     2807  3420               	retlw	32	;' '
  1559     2808  3453               	retlw	83	;'S'
  1560     2809  3456               	retlw	86	;'V'
  1561     280A  344D               	retlw	77	;'M'
  1562     280B  3420               	retlw	32	;' '
  1563     280C  3449               	retlw	73	;'I'
  1564     280D  3472               	retlw	114	;'r'
  1565     280E  3469               	retlw	105	;'i'
  1566     280F  3473               	retlw	115	;'s'
  1567     2810  3420               	retlw	32	;' '
  1568     2811  3443               	retlw	67	;'C'
  1569     2812  346C               	retlw	108	;'l'
  1570     2813  3461               	retlw	97	;'a'
  1571     2814  3473               	retlw	115	;'s'
  1572     2815  3473               	retlw	115	;'s'
  1573     2816  3469               	retlw	105	;'i'
  1574     2817  3466               	retlw	102	;'f'
  1575     2818  3469               	retlw	105	;'i'
  1576     2819  3465               	retlw	101	;'e'
  1577     281A  3472               	retlw	114	;'r'
  1578     281B  340D               	retlw	13
  1579     281C  340A               	retlw	10
  1580     281D  3400               	retlw	0
  1581                           
  1582                           	psect	stringtext3
  1583     281E                     __pstringtext3:
  1584     281E                     STR_13:
  1585     281E  3420               	retlw	32	;' '
  1586     281F  3420               	retlw	32	;' '
  1587     2820  3445               	retlw	69	;'E'
  1588     2821  3478               	retlw	120	;'x'
  1589     2822  343A               	retlw	58	;':'
  1590     2823  3420               	retlw	32	;' '
  1591     2824  3435               	retlw	53	;'5'
  1592     2825  342E               	retlw	46	;'.'
  1593     2826  3431               	retlw	49	;'1'
  1594     2827  342C               	retlw	44	;','
  1595     2828  3433               	retlw	51	;'3'
  1596     2829  342E               	retlw	46	;'.'
  1597     282A  3435               	retlw	53	;'5'
  1598     282B  342C               	retlw	44	;','
  1599     282C  3431               	retlw	49	;'1'
  1600     282D  342E               	retlw	46	;'.'
  1601     282E  3434               	retlw	52	;'4'
  1602     282F  342C               	retlw	44	;','
  1603     2830  3430               	retlw	48	;'0'
  1604     2831  342E               	retlw	46	;'.'
  1605     2832  3432               	retlw	50	;'2'
  1606     2833  340D               	retlw	13
  1607     2834  340A               	retlw	10
  1608     2835  3400               	retlw	0
  1609                           
  1610                           	psect	stringtext4
  1611     2836                     __pstringtext4:
  1612     2836                     STR_25:
  1613     2836  3445               	retlw	69	;'E'
  1614     2837  3472               	retlw	114	;'r'
  1615     2838  3472               	retlw	114	;'r'
  1616     2839  346F               	retlw	111	;'o'
  1617     283A  3472               	retlw	114	;'r'
  1618     283B  343A               	retlw	58	;':'
  1619     283C  3420               	retlw	32	;' '
  1620     283D  344E               	retlw	78	;'N'
  1621     283E  3465               	retlw	101	;'e'
  1622     283F  3465               	retlw	101	;'e'
  1623     2840  3464               	retlw	100	;'d'
  1624     2841  3420               	retlw	32	;' '
  1625     2842  3434               	retlw	52	;'4'
  1626     2843  3420               	retlw	32	;' '
  1627     2844  3476               	retlw	118	;'v'
  1628     2845  3461               	retlw	97	;'a'
  1629     2846  346C               	retlw	108	;'l'
  1630     2847  3475               	retlw	117	;'u'
  1631     2848  3465               	retlw	101	;'e'
  1632     2849  3473               	retlw	115	;'s'
  1633     284A  340D               	retlw	13
  1634     284B  340A               	retlw	10
  1635     284C  3400               	retlw	0
  1636                           
  1637                           	psect	stringtext5
  1638     284D                     __pstringtext5:
  1639     284D                     STR_12:
  1640     284D  3420               	retlw	32	;' '
  1641     284E  3420               	retlw	32	;' '
  1642     284F  344F               	retlw	79	;'O'
  1643     2850  3472               	retlw	114	;'r'
  1644     2851  343A               	retlw	58	;':'
  1645     2852  3420               	retlw	32	;' '
  1646     2853  3453               	retlw	83	;'S'
  1647     2854  344C               	retlw	76	;'L'
  1648     2855  342C               	retlw	44	;','
  1649     2856  3453               	retlw	83	;'S'
  1650     2857  3457               	retlw	87	;'W'
  1651     2858  342C               	retlw	44	;','
  1652     2859  3450               	retlw	80	;'P'
  1653     285A  344C               	retlw	76	;'L'
  1654     285B  342C               	retlw	44	;','
  1655     285C  3450               	retlw	80	;'P'
  1656     285D  3457               	retlw	87	;'W'
  1657     285E  340D               	retlw	13
  1658     285F  340A               	retlw	10
  1659     2860  3400               	retlw	0
  1660                           
  1661                           	psect	stringtext6
  1662     2861                     __pstringtext6:
  1663     2861                     STR_23:
  1664     2861  340D               	retlw	13
  1665     2862  340A               	retlw	10
  1666     2863  342D               	retlw	45	;'-'
  1667     2864  342D               	retlw	45	;'-'
  1668     2865  342D               	retlw	45	;'-'
  1669     2866  3420               	retlw	32	;' '
  1670     2867  3444               	retlw	68	;'D'
  1671     2868  346F               	retlw	111	;'o'
  1672     2869  346E               	retlw	110	;'n'
  1673     286A  3465               	retlw	101	;'e'
  1674     286B  3420               	retlw	32	;' '
  1675     286C  342D               	retlw	45	;'-'
  1676     286D  342D               	retlw	45	;'-'
  1677     286E  342D               	retlw	45	;'-'
  1678     286F  340D               	retlw	13
  1679     2870  340A               	retlw	10
  1680     2871  3400               	retlw	0
  1681                           
  1682                           	psect	stringtext7
  1683     2872                     __pstringtext7:
  1684     2872                     STR_16:
  1685     2872  340D               	retlw	13
  1686     2873  340A               	retlw	10
  1687     2874  342D               	retlw	45	;'-'
  1688     2875  342D               	retlw	45	;'-'
  1689     2876  342D               	retlw	45	;'-'
  1690     2877  3420               	retlw	32	;' '
  1691     2878  3444               	retlw	68	;'D'
  1692     2879  3465               	retlw	101	;'e'
  1693     287A  346D               	retlw	109	;'m'
  1694     287B  346F               	retlw	111	;'o'
  1695     287C  3420               	retlw	32	;' '
  1696     287D  342D               	retlw	45	;'-'
  1697     287E  342D               	retlw	45	;'-'
  1698     287F  342D               	retlw	45	;'-'
  1699     2880  340D               	retlw	13
  1700     2881  340A               	retlw	10
  1701     2882  3400               	retlw	0
  1702                           
  1703                           	psect	stringtext8
  1704     2883                     __pstringtext8:
  1705     2883                     STR_10:
  1706     2883  3420               	retlw	32	;' '
  1707     2884  3420               	retlw	32	;' '
  1708     2885  3464               	retlw	100	;'d'
  1709     2886  3420               	retlw	32	;' '
  1710     2887  342D               	retlw	45	;'-'
  1711     2888  3420               	retlw	32	;' '
  1712     2889  3452               	retlw	82	;'R'
  1713     288A  3475               	retlw	117	;'u'
  1714     288B  346E               	retlw	110	;'n'
  1715     288C  3420               	retlw	32	;' '
  1716     288D  3464               	retlw	100	;'d'
  1717     288E  3465               	retlw	101	;'e'
  1718     288F  346D               	retlw	109	;'m'
  1719     2890  346F               	retlw	111	;'o'
  1720     2891  340D               	retlw	13
  1721     2892  340A               	retlw	10
  1722     2893  3400               	retlw	0
  1723                           
  1724                           	psect	stringtext9
  1725     2894                     __pstringtext9:
  1726     2894                     STR_11:
  1727     2894  3420               	retlw	32	;' '
  1728     2895  3420               	retlw	32	;' '
  1729     2896  3468               	retlw	104	;'h'
  1730     2897  3420               	retlw	32	;' '
  1731     2898  342D               	retlw	45	;'-'
  1732     2899  3420               	retlw	32	;' '
  1733     289A  3448               	retlw	72	;'H'
  1734     289B  3465               	retlw	101	;'e'
  1735     289C  346C               	retlw	108	;'l'
  1736     289D  3470               	retlw	112	;'p'
  1737     289E  340D               	retlw	13
  1738     289F  340A               	retlw	10
  1739     28A0  3400               	retlw	0
  1740                           
  1741                           	psect	stringtext10
  1742     28A1                     __pstringtext10:
  1743     28A1                     STR_9:
  1744     28A1  3443               	retlw	67	;'C'
  1745     28A2  346F               	retlw	111	;'o'
  1746     28A3  346D               	retlw	109	;'m'
  1747     28A4  346D               	retlw	109	;'m'
  1748     28A5  3461               	retlw	97	;'a'
  1749     28A6  346E               	retlw	110	;'n'
  1750     28A7  3464               	retlw	100	;'d'
  1751     28A8  3473               	retlw	115	;'s'
  1752     28A9  343A               	retlw	58	;':'
  1753     28AA  340D               	retlw	13
  1754     28AB  340A               	retlw	10
  1755     28AC  3400               	retlw	0
  1756                           
  1757                           	psect	stringtext11
  1758     28AD                     __pstringtext11:
  1759     28AD                     STR_27:
  1760     28AD  340D               	retlw	13
  1761     28AE  340A               	retlw	10
  1762     28AF  3449               	retlw	73	;'I'
  1763     28B0  346E               	retlw	110	;'n'
  1764     28B1  3470               	retlw	112	;'p'
  1765     28B2  3475               	retlw	117	;'u'
  1766     28B3  3474               	retlw	116	;'t'
  1767     28B4  343A               	retlw	58	;':'
  1768     28B5  3420               	retlw	32	;' '
  1769     28B6  345B               	retlw	91	;'['
  1770     28B7  3400               	retlw	0
  1771                           
  1772                           	psect	stringtext12
  1773     28B8                     __pstringtext12:
  1774     28B8                     STR_2:
  1775     28B8  3456               	retlw	86	;'V'
  1776     28B9  3465               	retlw	101	;'e'
  1777     28BA  3472               	retlw	114	;'r'
  1778     28BB  3473               	retlw	115	;'s'
  1779     28BC  3469               	retlw	105	;'i'
  1780     28BD  3463               	retlw	99	;'c'
  1781     28BE  346F               	retlw	111	;'o'
  1782     28BF  346C               	retlw	108	;'l'
  1783     28C0  346F               	retlw	111	;'o'
  1784     28C1  3472               	retlw	114	;'r'
  1785     28C2  3400               	retlw	0
  1786                           
  1787                           	psect	stringtext13
  1788     28C3                     __pstringtext13:
  1789     28C3                     STR_17:
  1790     28C3  340D               	retlw	13
  1791     28C4  340A               	retlw	10
  1792     28C5  3453               	retlw	83	;'S'
  1793     28C6  3461               	retlw	97	;'a'
  1794     28C7  346D               	retlw	109	;'m'
  1795     28C8  3470               	retlw	112	;'p'
  1796     28C9  346C               	retlw	108	;'l'
  1797     28CA  3465               	retlw	101	;'e'
  1798     28CB  3420               	retlw	32	;' '
  1799     28CC  3400               	retlw	0
  1800                           
  1801                           	psect	stringtext14
  1802     28CD                     __pstringtext14:
  1803     28CD                     STR_3:
  1804     28CD  3456               	retlw	86	;'V'
  1805     28CE  3469               	retlw	105	;'i'
  1806     28CF  3472               	retlw	114	;'r'
  1807     28D0  3467               	retlw	103	;'g'
  1808     28D1  3469               	retlw	105	;'i'
  1809     28D2  346E               	retlw	110	;'n'
  1810     28D3  3469               	retlw	105	;'i'
  1811     28D4  3463               	retlw	99	;'c'
  1812     28D5  3461               	retlw	97	;'a'
  1813     28D6  3400               	retlw	0
  1814                           
  1815                           	psect	stringtext15
  1816     28D7                     __pstringtext15:
  1817     28D7                     STR_35:
  1818     28D7  3449               	retlw	73	;'I'
  1819     28D8  344E               	retlw	78	;'N'
  1820     28D9  3446               	retlw	70	;'F'
  1821     28DA  3449               	retlw	73	;'I'
  1822     28DB  344E               	retlw	78	;'N'
  1823     28DC  3449               	retlw	73	;'I'
  1824     28DD  3454               	retlw	84	;'T'
  1825     28DE  3459               	retlw	89	;'Y'
  1826     28DF  3400               	retlw	0
  1827                           
  1828                           	psect	stringtext16
  1829     28E0                     __pstringtext16:
  1830     28E0                     STR_34:
  1831     28E0  3469               	retlw	105	;'i'
  1832     28E1  346E               	retlw	110	;'n'
  1833     28E2  3466               	retlw	102	;'f'
  1834     28E3  3469               	retlw	105	;'i'
  1835     28E4  346E               	retlw	110	;'n'
  1836     28E5  3469               	retlw	105	;'i'
  1837     28E6  3474               	retlw	116	;'t'
  1838     28E7  3479               	retlw	121	;'y'
  1839     28E8  3400               	retlw	0
  1840                           
  1841                           	psect	stringtext17
  1842     28E9                     __pstringtext17:
  1843     28E9                     STR_21:
  1844     28E9  3452               	retlw	82	;'R'
  1845     28EA  3465               	retlw	101	;'e'
  1846     28EB  3473               	retlw	115	;'s'
  1847     28EC  3475               	retlw	117	;'u'
  1848     28ED  346C               	retlw	108	;'l'
  1849     28EE  3474               	retlw	116	;'t'
  1850     28EF  343A               	retlw	58	;':'
  1851     28F0  3420               	retlw	32	;' '
  1852     28F1  3400               	retlw	0
  1853                           
  1854                           	psect	stringtext18
  1855     28F2                     __pstringtext18:
  1856     28F2                     STR_4:
  1857     28F2  3455               	retlw	85	;'U'
  1858     28F3  346E               	retlw	110	;'n'
  1859     28F4  346B               	retlw	107	;'k'
  1860     28F5  346E               	retlw	110	;'n'
  1861     28F6  346F               	retlw	111	;'o'
  1862     28F7  3477               	retlw	119	;'w'
  1863     28F8  346E               	retlw	110	;'n'
  1864     28F9  3400               	retlw	0
  1865                           
  1866                           	psect	stringtext19
  1867     28FA                     __pstringtext19:
  1868     28FA                     STR_1:
  1869     28FA  3453               	retlw	83	;'S'
  1870     28FB  3465               	retlw	101	;'e'
  1871     28FC  3474               	retlw	116	;'t'
  1872     28FD  346F               	retlw	111	;'o'
  1873     28FE  3473               	retlw	115	;'s'
  1874     28FF  3461               	retlw	97	;'a'
  1875     2900  3400               	retlw	0
  1876                           
  1877                           	psect	stringtext20
  1878     2901                     __pstringtext20:
  1879     2901                     STR_31:
  1880     2901  340D               	retlw	13
  1881     2902  340A               	retlw	10
  1882     2903  343E               	retlw	62	;'>'
  1883     2904  3420               	retlw	32	;' '
  1884     2905  3400               	retlw	0
  1885                           
  1886                           	psect	stringtext21
  1887     2906                     __pstringtext21:
  1888     2906                     STR_40:
  1889     2906  344E               	retlw	78	;'N'
  1890     2907  3441               	retlw	65	;'A'
  1891     2908  344E               	retlw	78	;'N'
  1892     2909  3400               	retlw	0
  1893                           
  1894                           	psect	stringtext22
  1895     290A                     __pstringtext22:
  1896     290A                     STR_36:
  1897     290A  3469               	retlw	105	;'i'
  1898     290B  346E               	retlw	110	;'n'
  1899     290C  3466               	retlw	102	;'f'
  1900     290D  3400               	retlw	0
  1901                           
  1902                           	psect	stringtext23
  1903     290E                     __pstringtext23:
  1904     290E                     STR_39:
  1905     290E  346E               	retlw	110	;'n'
  1906     290F  3461               	retlw	97	;'a'
  1907     2910  346E               	retlw	110	;'n'
  1908     2911  3400               	retlw	0
  1909                           
  1910                           	psect	stringtext24
  1911     2912                     __pstringtext24:
  1912     2912                     STR_20:
  1913     2912  345D               	retlw	93	;']'
  1914     2913  340D               	retlw	13
  1915     2914  340A               	retlw	10
  1916     2915  3400               	retlw	0
  1917                           
  1918                           	psect	stringtext25
  1919     2916                     __pstringtext25:
  1920     2916                     STR_33:
  1921     2916  3420               	retlw	32	;' '
  1922     2917  3408               	retlw	8
  1923     2918  3400               	retlw	0
  1924                           
  1925                           	psect	stringtext26
  1926     2919                     __pstringtext26:
  1927     2919                     STR_19:
  1928     2919  342C               	retlw	44	;','
  1929     291A  3420               	retlw	32	;' '
  1930     291B  3400               	retlw	0
  1931                           
  1932                           	psect	stringtext27
  1933     0000                     __pstringtext27:
  1934     2918                     
  1935                           	psect	cinit
  1936     07B9                     start_initialization:	
  1937                           ; #config settings
  1938                           
  1939     07B9                     __initialization:	;BIGRAM
  1940                           
  1941                           ; Initialize objects allocated to BANK3
  1942     07B9  30C2               	movlw	low __pidataBANK3
  1943     07BA  0084               	movwf	4
  1944     07BB  30A6               	movlw	(high __pidataBANK3)| (0+128)
  1945     07BC  0085               	movwf	5
  1946     07BD  30C0               	movlw	low __pdataBANK3
  1947     07BE  0086               	movwf	6
  1948     07BF  3001               	movlw	high __pdataBANK3
  1949     07C0  0087               	movwf	7
  1950     07C1  3000               	movlw	0
  1951     07C2  00FF               	movwf	btemp+1
  1952     07C3  3006               	movlw	6
  1953     07C4  31A6  26F2  3187   	fcall	init_ram
  1954                           
  1955                           ; Initialize objects allocated to BANK4
  1956     07C7  301D               	movlw	low __pidataBANK4
  1957     07C8  0084               	movwf	4
  1958     07C9  309A               	movlw	(high __pidataBANK4)| (0+128)
  1959     07CA  0085               	movwf	5
  1960     07CB  3020               	movlw	low __pdataBANK4
  1961     07CC  0086               	movwf	6
  1962     07CD  3002               	movlw	high __pdataBANK4
  1963     07CE  0087               	movwf	7
  1964     07CF  3000               	movlw	0
  1965     07D0  00FF               	movwf	btemp+1
  1966     07D1  3030               	movlw	48
  1967     07D2  31A6  26F2  3187   	fcall	init_ram
  1968                           
  1969                           ; Clear objects allocated to BIGRAM
  1970     07D5  3084               	movlw	low (0+10116)
  1971     07D6  0084               	movwf	4
  1972     07D7  3027               	movlw	high (0+10116)
  1973     07D8  0085               	movwf	5
  1974     07D9  306C               	movlw	108
  1975     07DA  00FE               	movwf	btemp
  1976     07DB  3000               	movlw	0
  1977     07DC  00FF               	movwf	btemp+1
  1978     07DD  31A6  26E6  3187   	fcall	clear_ram0
  1979                           
  1980                           ; Clear objects allocated to BANK2
  1981     07E0  0022               	movlb	2	; select bank2
  1982     07E1  01E9               	clrf	__pbssBANK2& (0+127)
  1983     07E2  01EA               	clrf	(__pbssBANK2+1)& (0+127)
  1984     07E3  01EB               	clrf	(__pbssBANK2+2)& (0+127)
  1985     07E4  01EC               	clrf	(__pbssBANK2+3)& (0+127)
  1986     07E5  01ED               	clrf	(__pbssBANK2+4)& (0+127)
  1987     07E6  01EE               	clrf	(__pbssBANK2+5)& (0+127)
  1988                           
  1989                           ; Clear objects allocated to BANK3
  1990     07E7  30B4               	movlw	low __pbssBANK3
  1991     07E8  0084               	movwf	4
  1992     07E9  3001               	movlw	high __pbssBANK3
  1993     07EA  0085               	movwf	5
  1994     07EB  300C               	movlw	12
  1995     07EC  00FE               	movwf	btemp
  1996     07ED  3000               	movlw	0
  1997     07EE  00FF               	movwf	btemp+1
  1998     07EF  31A6  26E6  3187   	fcall	clear_ram0
  1999                           
  2000                           ; Clear objects allocated to BANK5
  2001     07F2  30A0               	movlw	low __pbssBANK5
  2002     07F3  0084               	movwf	4
  2003     07F4  3002               	movlw	high __pbssBANK5
  2004     07F5  0085               	movwf	5
  2005     07F6  3040               	movlw	64
  2006     07F7  00FE               	movwf	btemp
  2007     07F8  3000               	movlw	0
  2008     07F9  00FF               	movwf	btemp+1
  2009     07FA  31A6  26E6  3187   	fcall	clear_ram0
  2010     07FD                     end_of_initialization:	
  2011                           ;End of C runtime variable initialization code
  2012                           
  2013     07FD                     __end_of__initialization:
  2014     07FD  0020               	movlb	0
  2015     07FE  319E  2EC9         	ljmp	_main	;jump to C main() function
  2016                           
  2017                           	psect	bssBANK2
  2018     0169                     __pbssBANK2:
  2019     0169                     _votes:
  2020     0169                     	ds	3
  2021     016C                     _errno:
  2022     016C                     	ds	2
  2023     016E                     _rx_index:
  2024     016E                     	ds	1
  2025                           
  2026                           	psect	bssBANK3
  2027     01B4                     __pbssBANK3:
  2028     01B4                     _decisions:
  2029     01B4                     	ds	12
  2030                           
  2031                           	psect	dataBANK3
  2032     01C0                     __pdataBANK3:
  2033     01C0                     _ml_class_names:
  2034     01C0                     	ds	6
  2035                           
  2036                           	psect	dataBANK4
  2037     0220                     __pdataBANK4:
  2038     0220                     run_demo@F6263:
  2039     0220                     	ds	48
  2040                           
  2041                           	psect	bssBANK5
  2042     02A0                     __pbssBANK5:
  2043     02A0                     _rx_buffer:
  2044     02A0                     	ds	64
  2045                           
  2046                           	psect	inittext
  2047     26F2                     init_ram:
  2048     26F2  00FE               	movwf	btemp
  2049     26F3                     initloop:
  2050     26F3  0012               	moviw fsr0++
  2051     26F4  001E               	movwi fsr1++
  2052     26F5  3001               	movlw	1
  2053     26F6  02FE               	subwf	btemp,f
  2054     26F7  3000               	movlw	0
  2055     26F8  3BFF               	subwfb	btemp+1,f
  2056     26F9  087F               	movf	btemp+1,w
  2057     26FA  047E               	iorwf	btemp,w
  2058     26FB  1D03               	skipz
  2059     26FC  2EF3               	goto	initloop
  2060     26FD  3400               	retlw	0
  2061                           
  2062                           	psect	clrtext
  2063     26E6                     clear_ram0:	
  2064                           ;	Called with FSR0 containing the base address, and
  2065                           ;	btemp/btemp+1 has the size to clear
  2066                           
  2067     26E6  0064               	clrwdt	;clear the watchdog before getting into this loop
  2068     26E7                     clrloop0:
  2069     26E7  0180               	clrf	0	;clear RAM location pointed to by FSR
  2070     26E8  3101               	addfsr 0,1
  2071     26E9  3001               	movlw	1
  2072     26EA  02FE               	subwf	btemp,f
  2073     26EB  3000               	movlw	0
  2074     26EC  3BFF               	subwfb	btemp+1,f
  2075     26ED  087F               	movf	btemp+1,w
  2076     26EE  047E               	iorwf	btemp,w
  2077     26EF  1D03               	skipz
  2078     26F0  2EE7               	goto	clrloop0	;have we reached the end yet?
  2079     26F1  3400               	retlw	0	;all done for this memory range, return
  2080                           
  2081                           	psect	cstackBANK3
  2082     01A0                     __pcstackBANK3:
  2083     01A0                     process_command@features:
  2084                           
  2085                           ; 16 bytes @ 0x0
  2086     01A0                     	ds	16
  2087     01B0                     process_command@prediction:
  2088                           
  2089                           ; 1 bytes @ 0x10
  2090     01B0                     	ds	1
  2091     01B1                     process_command@num_parsed:
  2092                           
  2093                           ; 1 bytes @ 0x11
  2094     01B1                     	ds	1
  2095     01B2                     process_command@i:
  2096                           
  2097                           ; 1 bytes @ 0x12
  2098     01B2                     	ds	1
  2099     01B3                     process_command@buffer:
  2100                           
  2101                           ; 1 bytes @ 0x13
  2102     01B3                     	ds	1
  2103                           
  2104                           	psect	cstackBANK2
  2105     0120                     __pcstackBANK2:
  2106     0120                     _ml_predict$253:
  2107                           
  2108                           ; 2 bytes @ 0x0
  2109     0120                     	ds	2
  2110     0122                     _ml_predict$254:
  2111                           
  2112                           ; 2 bytes @ 0x2
  2113     0122                     	ds	2
  2114     0124                     ml_predict@max_votes:
  2115                           
  2116                           ; 1 bytes @ 0x4
  2117     0124                     	ds	1
  2118     0125                     _ml_predict$960:
  2119                           
  2120                           ; 4 bytes @ 0x5
  2121     0125                     	ds	4
  2122     0129                     _ml_predict$961:
  2123                           
  2124                           ; 4 bytes @ 0x9
  2125     0129                     	ds	4
  2126     012D                     ml_predict@i:
  2127                           
  2128                           ; 1 bytes @ 0xD
  2129     012D                     	ds	1
  2130     012E                     ??_run_demo:
  2131                           
  2132                           ; 1 bytes @ 0xE
  2133     012E                     	ds	4
  2134     0132                     run_demo@test_samples:
  2135                           
  2136                           ; 48 bytes @ 0x12
  2137     0132                     	ds	48
  2138     0162                     run_demo@prediction:
  2139                           
  2140                           ; 1 bytes @ 0x42
  2141     0162                     	ds	1
  2142     0163                     run_demo@j:
  2143                           
  2144                           ; 1 bytes @ 0x43
  2145     0163                     	ds	1
  2146     0164                     run_demo@i:
  2147                           
  2148                           ; 1 bytes @ 0x44
  2149     0164                     	ds	1
  2150     0165                     ??_process_command:
  2151                           
  2152                           ; 1 bytes @ 0x45
  2153     0165                     	ds	1
  2154     0166                     ??_main:
  2155                           
  2156                           ; 1 bytes @ 0x46
  2157     0166                     	ds	2
  2158     0168                     main@rx_char:
  2159                           
  2160                           ; 1 bytes @ 0x48
  2161     0168                     	ds	1
  2162                           
  2163                           	psect	cstackBANK1
  2164     00A0                     __pcstackBANK1:
  2165     00A0                     ??_parse_features:
  2166     00A0                     _ml_predict$962:	
  2167                           ; 1 bytes @ 0x0
  2168                           
  2169                           
  2170                           ; 4 bytes @ 0x0
  2171     00A0                     	ds	2
  2172     00A2                     parse_features@buffer:
  2173                           
  2174                           ; 1 bytes @ 0x2
  2175     00A2                     	ds	1
  2176     00A3                     parse_features@token:
  2177                           
  2178                           ; 1 bytes @ 0x3
  2179     00A3                     	ds	1
  2180     00A4                     parse_features@count:
  2181     00A4                     _ml_predict$963:	
  2182                           ; 1 bytes @ 0x4
  2183                           
  2184                           
  2185                           ; 4 bytes @ 0x4
  2186     00A4                     	ds	1
  2187     00A5                     parse_features@saveptr:
  2188                           
  2189                           ; 1 bytes @ 0x5
  2190     00A5                     	ds	3
  2191     00A8                     _ml_predict$964:
  2192                           
  2193                           ; 4 bytes @ 0x8
  2194     00A8                     	ds	4
  2195     00AC                     _ml_predict$965:
  2196                           
  2197                           ; 4 bytes @ 0xC
  2198     00AC                     	ds	4
  2199     00B0                     _ml_predict$966:
  2200                           
  2201                           ; 4 bytes @ 0x10
  2202     00B0                     	ds	4
  2203     00B4                     _ml_predict$967:
  2204                           
  2205                           ; 4 bytes @ 0x14
  2206     00B4                     	ds	4
  2207     00B8                     _ml_predict$968:
  2208                           
  2209                           ; 4 bytes @ 0x18
  2210     00B8                     	ds	4
  2211     00BC                     _ml_predict$969:
  2212                           
  2213                           ; 4 bytes @ 0x1C
  2214     00BC                     	ds	4
  2215     00C0                     _ml_predict$970:
  2216                           
  2217                           ; 4 bytes @ 0x20
  2218     00C0                     	ds	4
  2219     00C4                     _ml_predict$971:
  2220                           
  2221                           ; 4 bytes @ 0x24
  2222     00C4                     	ds	4
  2223     00C8                     _ml_predict$972:
  2224                           
  2225                           ; 4 bytes @ 0x28
  2226     00C8                     	ds	4
  2227     00CC                     _ml_predict$973:
  2228                           
  2229                           ; 4 bytes @ 0x2C
  2230     00CC                     	ds	4
  2231     00D0                     _ml_predict$974:
  2232                           
  2233                           ; 4 bytes @ 0x30
  2234     00D0                     	ds	4
  2235     00D4                     _ml_predict$975:
  2236                           
  2237                           ; 4 bytes @ 0x34
  2238     00D4                     	ds	4
  2239     00D8                     _ml_predict$976:
  2240                           
  2241                           ; 4 bytes @ 0x38
  2242     00D8                     	ds	4
  2243     00DC                     _ml_predict$977:
  2244                           
  2245                           ; 4 bytes @ 0x3C
  2246     00DC                     	ds	4
  2247     00E0                     _ml_predict$978:
  2248                           
  2249                           ; 4 bytes @ 0x40
  2250     00E0                     	ds	4
  2251     00E4                     _ml_predict$979:
  2252                           
  2253                           ; 4 bytes @ 0x44
  2254     00E4                     	ds	4
  2255     00E8                     _ml_predict$980:
  2256                           
  2257                           ; 4 bytes @ 0x48
  2258     00E8                     	ds	4
  2259     00EC                     _ml_predict$981:
  2260                           
  2261                           ; 4 bytes @ 0x4C
  2262     00EC                     	ds	4
  2263                           
  2264                           	psect	cstackCOMMON
  2265     0070                     __pcstackCOMMON:
  2266     0070                     ?___fleq:
  2267     0070                     ?___flge:	
  2268                           ; 1 bit 
  2269                           
  2270     0070                     ?_memset:	
  2271                           ; 1 bit 
  2272                           
  2273     0070                     ?_EUSART_Read:	
  2274                           ; 1 bytes @ 0x0
  2275                           
  2276     0070                     ??_EUSART_Read:	
  2277                           ; 1 bytes @ 0x0
  2278                           
  2279     0070                     ?_EUSART_Write:	
  2280                           ; 1 bytes @ 0x0
  2281                           
  2282     0070                     ??_EUSART_Write:	
  2283                           ; 1 bytes @ 0x0
  2284                           
  2285     0070                     ?_internal_32:	
  2286                           ; 1 bytes @ 0x0
  2287                           
  2288     0070                     ??_internal_32:	
  2289                           ; 1 bytes @ 0x0
  2290                           
  2291     0070                     ?_initMain:	
  2292                           ; 1 bytes @ 0x0
  2293                           
  2294     0070                     ??_initMain:	
  2295                           ; 1 bytes @ 0x0
  2296                           
  2297     0070                     ?_print_menu:	
  2298                           ; 1 bytes @ 0x0
  2299                           
  2300     0070                     ?_run_demo:	
  2301                           ; 1 bytes @ 0x0
  2302                           
  2303     0070                     ?_process_command:	
  2304                           ; 1 bytes @ 0x0
  2305                           
  2306     0070                     ?_main:	
  2307                           ; 1 bytes @ 0x0
  2308                           
  2309     0070                     ?_strlen:	
  2310                           ; 1 bytes @ 0x0
  2311                           
  2312     0070                     ?_ml_get_class_name:	
  2313                           ; 2 bytes @ 0x0
  2314                           
  2315     0070                     ?__Umul8_16:	
  2316                           ; 2 bytes @ 0x0
  2317                           
  2318     0070                     ?_isxdigit:	
  2319                           ; 2 bytes @ 0x0
  2320                           
  2321     0070                     ?_isdigit:	
  2322                           ; 2 bytes @ 0x0
  2323                           
  2324     0070                     ?_toupper:	
  2325                           ; 2 bytes @ 0x0
  2326                           
  2327     0070                     ?___wmul:	
  2328                           ; 2 bytes @ 0x0
  2329                           
  2330     0070                     ?___awdiv:	
  2331                           ; 2 bytes @ 0x0
  2332                           
  2333     0070                     ?___awmod:	
  2334                           ; 2 bytes @ 0x0
  2335                           
  2336     0070                     ?_nanf:	
  2337                           ; 2 bytes @ 0x0
  2338                           
  2339     0070                     ?___lmul:	
  2340                           ; 4 bytes @ 0x0
  2341                           
  2342     0070                     ?___aldiv:	
  2343                           ; 4 bytes @ 0x0
  2344                           
  2345     0070                     ?___flneg:	
  2346                           ; 4 bytes @ 0x0
  2347                           
  2348     0070                     ?___fldiv:	
  2349                           ; 4 bytes @ 0x0
  2350                           
  2351     0070                     ?___xxtofl:	
  2352                           ; 4 bytes @ 0x0
  2353                           
  2354     0070                     EUSART_Write@txData:	
  2355                           ; 4 bytes @ 0x0
  2356                           
  2357     0070                     __Umul8_16@multiplicand:	
  2358                           ; 1 bytes @ 0x0
  2359                           
  2360     0070                     ___wmul@multiplier:	
  2361                           ; 1 bytes @ 0x0
  2362                           
  2363     0070                     ___awdiv@divisor:	
  2364                           ; 2 bytes @ 0x0
  2365                           
  2366     0070                     ___awmod@divisor:	
  2367                           ; 2 bytes @ 0x0
  2368                           
  2369     0070                     memset@c:	
  2370                           ; 2 bytes @ 0x0
  2371                           
  2372     0070                     isdigit@c:	
  2373                           ; 2 bytes @ 0x0
  2374                           
  2375     0070                     isxdigit@c:	
  2376                           ; 2 bytes @ 0x0
  2377                           
  2378     0070                     nanf@s:	
  2379                           ; 2 bytes @ 0x0
  2380                           
  2381     0070                     toupper@c:	
  2382                           ; 2 bytes @ 0x0
  2383                           
  2384     0070                     ___lmul@multiplier:	
  2385                           ; 2 bytes @ 0x0
  2386                           
  2387     0070                     ___aldiv@divisor:	
  2388                           ; 4 bytes @ 0x0
  2389                           
  2390     0070                     ___fleq@ff1:	
  2391                           ; 4 bytes @ 0x0
  2392                           
  2393     0070                     ___flge@ff1:	
  2394                           ; 4 bytes @ 0x0
  2395                           
  2396     0070                     ___flneg@f1:	
  2397                           ; 4 bytes @ 0x0
  2398                           
  2399     0070                     ___fldiv@a:	
  2400                           ; 4 bytes @ 0x0
  2401                           
  2402     0070                     ___xxtofl@val:	
  2403                           ; 4 bytes @ 0x0
  2404                           
  2405                           
  2406                           ; 4 bytes @ 0x0
  2407     0070                     	ds	2
  2408     0072                     ??_strlen:
  2409     0072                     ??_ml_get_class_name:	
  2410                           ; 1 bytes @ 0x2
  2411                           
  2412     0072                     ??__Umul8_16:	
  2413                           ; 1 bytes @ 0x2
  2414                           
  2415     0072                     ??_isxdigit:	
  2416                           ; 1 bytes @ 0x2
  2417                           
  2418     0072                     ??_isdigit:	
  2419                           ; 1 bytes @ 0x2
  2420                           
  2421     0072                     ??_toupper:	
  2422                           ; 1 bytes @ 0x2
  2423                           
  2424     0072                     ml_get_class_name@class_idx:	
  2425                           ; 1 bytes @ 0x2
  2426                           
  2427     0072                     ___wmul@multiplicand:	
  2428                           ; 1 bytes @ 0x2
  2429                           
  2430     0072                     ___awdiv@dividend:	
  2431                           ; 2 bytes @ 0x2
  2432                           
  2433     0072                     ___awmod@dividend:	
  2434                           ; 2 bytes @ 0x2
  2435                           
  2436     0072                     memset@n:	
  2437                           ; 2 bytes @ 0x2
  2438                           
  2439                           
  2440                           ; 2 bytes @ 0x2
  2441     0072                     	ds	1
  2442     0073                     ?_EUSART_Write_Text:
  2443     0073                     strlen@a:	
  2444                           ; 1 bytes @ 0x3
  2445                           
  2446     0073                     EUSART_Write_Text@text:	
  2447                           ; 1 bytes @ 0x3
  2448                           
  2449                           
  2450                           ; 2 bytes @ 0x3
  2451     0073                     	ds	1
  2452     0074                     ??_memset:
  2453     0074                     ??_nanf:	
  2454                           ; 1 bytes @ 0x4
  2455                           
  2456     0074                     ??___wmul:	
  2457                           ; 1 bytes @ 0x4
  2458                           
  2459     0074                     ??___awdiv:	
  2460                           ; 1 bytes @ 0x4
  2461                           
  2462     0074                     ??___awmod:	
  2463                           ; 1 bytes @ 0x4
  2464                           
  2465     0074                     ??___flneg:	
  2466                           ; 1 bytes @ 0x4
  2467                           
  2468     0074                     ??___xxtofl:	
  2469                           ; 1 bytes @ 0x4
  2470                           
  2471     0074                     strlen@s:	
  2472                           ; 1 bytes @ 0x4
  2473                           
  2474     0074                     ___wmul@product:	
  2475                           ; 1 bytes @ 0x4
  2476                           
  2477     0074                     __Umul8_16@product:	
  2478                           ; 2 bytes @ 0x4
  2479                           
  2480     0074                     ___lmul@multiplicand:	
  2481                           ; 2 bytes @ 0x4
  2482                           
  2483     0074                     ___aldiv@dividend:	
  2484                           ; 4 bytes @ 0x4
  2485                           
  2486     0074                     ___fleq@ff2:	
  2487                           ; 4 bytes @ 0x4
  2488                           
  2489     0074                     ___flge@ff2:	
  2490                           ; 4 bytes @ 0x4
  2491                           
  2492     0074                     ___fldiv@b:	
  2493                           ; 4 bytes @ 0x4
  2494                           
  2495     0074                     nanf@u:	
  2496                           ; 4 bytes @ 0x4
  2497                           
  2498                           
  2499                           ; 4 bytes @ 0x4
  2500     0074                     	ds	1
  2501     0075                     ??_EUSART_Write_Text:
  2502     0075                     ___awdiv@counter:	
  2503                           ; 1 bytes @ 0x5
  2504                           
  2505     0075                     ___awmod@counter:	
  2506                           ; 1 bytes @ 0x5
  2507                           
  2508     0075                     memset@p:	
  2509                           ; 1 bytes @ 0x5
  2510                           
  2511                           
  2512                           ; 1 bytes @ 0x5
  2513     0075                     	ds	1
  2514     0076                     ___awdiv@sign:
  2515     0076                     ___awmod@sign:	
  2516                           ; 1 bytes @ 0x6
  2517                           
  2518     0076                     memset@dest:	
  2519                           ; 1 bytes @ 0x6
  2520                           
  2521     0076                     _isxdigit$754:	
  2522                           ; 1 bytes @ 0x6
  2523                           
  2524     0076                     EUSART_Write_Text@i:	
  2525                           ; 1 bytes @ 0x6
  2526                           
  2527     0076                     __Umul8_16@word_mpld:	
  2528                           ; 2 bytes @ 0x6
  2529                           
  2530                           
  2531                           ; 2 bytes @ 0x6
  2532     0076                     	ds	1
  2533     0077                     ___awdiv@quotient:
  2534                           
  2535                           ; 2 bytes @ 0x7
  2536     0077                     	ds	1
  2537     0078                     ??_print_menu:
  2538     0078                     ??___lmul:	
  2539                           ; 1 bytes @ 0x8
  2540                           
  2541     0078                     ??___aldiv:	
  2542                           ; 1 bytes @ 0x8
  2543                           
  2544     0078                     ??___fleq:	
  2545                           ; 1 bytes @ 0x8
  2546                           
  2547     0078                     ??___flge:	
  2548                           ; 1 bytes @ 0x8
  2549                           
  2550     0078                     ??___fldiv:	
  2551                           ; 1 bytes @ 0x8
  2552                           
  2553     0078                     __Umul8_16@multiplier:	
  2554                           ; 1 bytes @ 0x8
  2555                           
  2556     0078                     ___xxtofl@sign:	
  2557                           ; 1 bytes @ 0x8
  2558                           
  2559     0078                     ___lmul@product:	
  2560                           ; 1 bytes @ 0x8
  2561                           
  2562                           
  2563                           ; 4 bytes @ 0x8
  2564     0078                     	ds	1
  2565     0079                     ?_itoa:
  2566     0079                     ___fladd@signs:	
  2567                           ; 1 bytes @ 0x9
  2568                           
  2569     0079                     ___xxtofl@exp:	
  2570                           ; 1 bytes @ 0x9
  2571                           
  2572     0079                     EUSART_Initialize@x:	
  2573                           ; 1 bytes @ 0x9
  2574                           
  2575     0079                     itoa@d:	
  2576                           ; 2 bytes @ 0x9
  2577                           
  2578                           
  2579                           ; 2 bytes @ 0x9
  2580     0079                     	ds	1
  2581     007A                     ___fladd@aexp:
  2582     007A                     ___xxtofl@arg:	
  2583                           ; 1 bytes @ 0xA
  2584                           
  2585                           
  2586                           ; 4 bytes @ 0xA
  2587     007A                     	ds	1
  2588     007B                     ??_itoa:
  2589     007B                     ?_EUSART_Write_Integer:	
  2590                           ; 1 bytes @ 0xB
  2591                           
  2592     007B                     ___fladd@bexp:	
  2593                           ; 1 bytes @ 0xB
  2594                           
  2595     007B                     EUSART_Write_Integer@value_to_send:	
  2596                           ; 1 bytes @ 0xB
  2597                           
  2598                           
  2599                           ; 2 bytes @ 0xB
  2600     007B                     	ds	1
  2601     007C                     ___fladd@grs:
  2602                           
  2603                           ; 1 bytes @ 0xC
  2604     007C                     	ds	1
  2605     007D                     ??_EUSART_Write_Integer:
  2606                           
  2607                           ; 1 bytes @ 0xD
  2608     007D                     	ds	1
  2609     007E                     ??_print_float:
  2610     007E                     ??___flsub:	
  2611                           ; 1 bytes @ 0xE
  2612                           
  2613                           
  2614                           	psect	cstackBANK0
  2615     0020                     __pcstackBANK0:	
  2616                           ; 1 bytes @ 0xE
  2617                           
  2618     0020                     ?___fladd:
  2619     0020                     ___aldiv@counter:	
  2620                           ; 4 bytes @ 0x0
  2621                           
  2622     0020                     itoa@num:	
  2623                           ; 1 bytes @ 0x0
  2624                           
  2625     0020                     ___fladd@b:	
  2626                           ; 2 bytes @ 0x0
  2627                           
  2628     0020                     ___fldiv@rem:	
  2629                           ; 4 bytes @ 0x0
  2630                           
  2631                           
  2632                           ; 4 bytes @ 0x0
  2633     0020                     	ds	1
  2634     0021                     ___aldiv@sign:
  2635                           
  2636                           ; 1 bytes @ 0x1
  2637     0021                     	ds	1
  2638     0022                     itoa@temp:
  2639     0022                     ___aldiv@quotient:	
  2640                           ; 2 bytes @ 0x2
  2641                           
  2642                           
  2643                           ; 4 bytes @ 0x2
  2644     0022                     	ds	2
  2645     0024                     itoa@buf:
  2646     0024                     ___fldiv@sign:	
  2647                           ; 1 bytes @ 0x4
  2648                           
  2649     0024                     ___fladd@a:	
  2650                           ; 1 bytes @ 0x4
  2651                           
  2652                           
  2653                           ; 4 bytes @ 0x4
  2654     0024                     	ds	1
  2655     0025                     itoa@div:
  2656     0025                     ___fldiv@new_exp:	
  2657                           ; 2 bytes @ 0x5
  2658                           
  2659                           
  2660                           ; 2 bytes @ 0x5
  2661     0025                     	ds	1
  2662     0026                     ?_EUSART_Initialize:
  2663     0026                     EUSART_Initialize@baudrate:	
  2664                           ; 1 bytes @ 0x6
  2665                           
  2666                           
  2667                           ; 4 bytes @ 0x6
  2668     0026                     	ds	1
  2669     0027                     ___fldiv@grs:
  2670     0027                     EUSART_Write_Integer@buffer:	
  2671                           ; 4 bytes @ 0x7
  2672                           
  2673                           
  2674                           ; 20 bytes @ 0x7
  2675     0027                     	ds	1
  2676     0028                     ??___fladd:
  2677                           
  2678                           ; 1 bytes @ 0x8
  2679     0028                     	ds	2
  2680     002A                     ??_EUSART_Initialize:
  2681                           
  2682                           ; 1 bytes @ 0xA
  2683     002A                     	ds	1
  2684     002B                     ___fldiv@bexp:
  2685                           
  2686                           ; 1 bytes @ 0xB
  2687     002B                     	ds	1
  2688     002C                     ___fldiv@aexp:
  2689                           
  2690                           ; 1 bytes @ 0xC
  2691     002C                     	ds	4
  2692     0030                     ?___flsub:
  2693     0030                     ___flsub@a:	
  2694                           ; 4 bytes @ 0x10
  2695                           
  2696                           
  2697                           ; 4 bytes @ 0x10
  2698     0030                     	ds	4
  2699     0034                     ___flsub@b:
  2700                           
  2701                           ; 4 bytes @ 0x14
  2702     0034                     	ds	4
  2703     0038                     ?___flmul:
  2704     0038                     ___flmul@b:	
  2705                           ; 4 bytes @ 0x18
  2706                           
  2707                           
  2708                           ; 4 bytes @ 0x18
  2709     0038                     	ds	3
  2710     003B                     EUSART_Write_Integer@ptr:
  2711                           
  2712                           ; 1 bytes @ 0x1B
  2713     003B                     	ds	1
  2714     003C                     EUSART_Write_Integer@temp_ptr:
  2715     003C                     ___flmul@a:	
  2716                           ; 1 bytes @ 0x1C
  2717                           
  2718                           
  2719                           ; 4 bytes @ 0x1C
  2720     003C                     	ds	4
  2721     0040                     ??___flmul:
  2722                           
  2723                           ; 1 bytes @ 0x20
  2724     0040                     	ds	5
  2725     0045                     ___flmul@sign:
  2726                           
  2727                           ; 1 bytes @ 0x25
  2728     0045                     	ds	1
  2729     0046                     ___flmul@grs:
  2730                           
  2731                           ; 4 bytes @ 0x26
  2732     0046                     	ds	4
  2733     004A                     ___flmul@aexp:
  2734                           
  2735                           ; 1 bytes @ 0x2A
  2736     004A                     	ds	1
  2737     004B                     ___flmul@bexp:
  2738                           
  2739                           ; 1 bytes @ 0x2B
  2740     004B                     	ds	1
  2741     004C                     ___flmul@prod:
  2742                           
  2743                           ; 4 bytes @ 0x2C
  2744     004C                     	ds	4
  2745     0050                     ___flmul@temp:
  2746                           
  2747                           ; 2 bytes @ 0x30
  2748     0050                     	ds	2
  2749     0052                     ?_strtof:
  2750     0052                     ?_ml_compute_kernel:	
  2751                           ; 4 bytes @ 0x32
  2752                           
  2753     0052                     ?___fltol:	
  2754                           ; 4 bytes @ 0x32
  2755                           
  2756     0052                     ml_compute_kernel@sv_idx:	
  2757                           ; 4 bytes @ 0x32
  2758                           
  2759     0052                     strtof@res:	
  2760                           ; 1 bytes @ 0x32
  2761                           
  2762     0052                     ___fltol@f1:	
  2763                           ; 2 bytes @ 0x32
  2764                           
  2765                           
  2766                           ; 4 bytes @ 0x32
  2767     0052                     	ds	4
  2768     0056                     ??_strtof:
  2769     0056                     ??_ml_compute_kernel:	
  2770                           ; 1 bytes @ 0x36
  2771                           
  2772     0056                     ??___fltol:	
  2773                           ; 1 bytes @ 0x36
  2774                           
  2775                           
  2776                           ; 1 bytes @ 0x36
  2777     0056                     	ds	4
  2778     005A                     ___fltol@sign1:
  2779                           
  2780                           ; 1 bytes @ 0x3A
  2781     005A                     	ds	1
  2782     005B                     ___fltol@exp1:
  2783                           
  2784                           ; 1 bytes @ 0x3B
  2785     005B                     	ds	1
  2786     005C                     ?_print_float:
  2787     005C                     print_float@val:	
  2788                           ; 1 bytes @ 0x3C
  2789                           
  2790                           
  2791                           ; 4 bytes @ 0x3C
  2792     005C                     	ds	2
  2793     005E                     strtof@err:
  2794                           
  2795                           ; 2 bytes @ 0x3E
  2796     005E                     	ds	2
  2797     0060                     strtof@xpos:
  2798     0060                     print_float@frac:	
  2799                           ; 1 bytes @ 0x40
  2800                           
  2801                           
  2802                           ; 2 bytes @ 0x40
  2803     0060                     	ds	1
  2804     0061                     strtof@dpos:
  2805                           
  2806                           ; 1 bytes @ 0x41
  2807     0061                     	ds	1
  2808     0062                     strtof@digit:
  2809     0062                     print_float@whole:	
  2810                           ; 1 bytes @ 0x42
  2811                           
  2812                           
  2813                           ; 2 bytes @ 0x42
  2814     0062                     	ds	1
  2815     0063                     strtof@flags:
  2816                           
  2817                           ; 1 bytes @ 0x43
  2818     0063                     	ds	1
  2819     0064                     ml_compute_kernel@x:
  2820     0064                     strtof@expon:	
  2821                           ; 1 bytes @ 0x44
  2822                           
  2823                           
  2824                           ; 2 bytes @ 0x44
  2825     0064                     	ds	1
  2826     0065                     ml_compute_kernel@kernel:
  2827                           
  2828                           ; 4 bytes @ 0x45
  2829     0065                     	ds	1
  2830     0066                     strtof@eexp:
  2831                           
  2832                           ; 2 bytes @ 0x46
  2833     0066                     	ds	2
  2834     0068                     strtof@_u:
  2835                           
  2836                           ; 4 bytes @ 0x48
  2837     0068                     	ds	1
  2838     0069                     ?_ml_predict:
  2839     0069                     ml_compute_kernel@i:	
  2840                           ; 1 bytes @ 0x49
  2841                           
  2842                           
  2843                           ; 1 bytes @ 0x49
  2844     0069                     	ds	1
  2845     006A                     ??_ml_predict:
  2846                           
  2847                           ; 1 bytes @ 0x4A
  2848     006A                     	ds	2
  2849     006C                     strtof@i:
  2850                           
  2851                           ; 1 bytes @ 0x4C
  2852     006C                     	ds	1
  2853     006D                     strtof@s:
  2854                           
  2855                           ; 1 bytes @ 0x4D
  2856     006D                     	ds	1
  2857     006E                     ?_parse_features:
  2858     006E                     ml_predict@class_idx:	
  2859                           ; 1 bytes @ 0x4E
  2860                           
  2861     006E                     parse_features@features:	
  2862                           ; 1 bytes @ 0x4E
  2863                           
  2864                           
  2865                           ; 1 bytes @ 0x4E
  2866     006E                     	ds	1
  2867     006F                     ml_predict@x:
  2868                           
  2869                           ; 1 bytes @ 0x4F
  2870     006F                     	ds	1
  2871                           
  2872                           	psect	maintext
  2873     1EC9                     __pmaintext:	
  2874 ;;
  2875 ;;Main: autosize = 0, tempsize = 2, incstack = 0, save=0
  2876 ;;
  2877 ;; *************** function _main *****************
  2878 ;; Defined at:
  2879 ;;		line 225 in file "main.c"
  2880 ;; Parameters:    Size  Location     Type
  2881 ;;		None
  2882 ;; Auto vars:     Size  Location     Type
  2883 ;;  rx_char         1   72[BANK2 ] unsigned char 
  2884 ;; Return value:  Size  Location     Type
  2885 ;;                  1    wreg      void 
  2886 ;; Registers used:
  2887 ;;		wreg, fsr0l, fsr0h, fsr1l, fsr1h, status,2, status,0, pclath, cstack
  2888 ;; Tracked objects:
  2889 ;;		On entry : B1F/0
  2890 ;;		On exit  : 0/0
  2891 ;;		Unchanged: 0/0
  2892 ;; Data sizes:     COMMON   BANK0   BANK1   BANK2   BANK3   BANK4   BANK5   BANK6   BANK7   BANK8   BANK9  BANK10  BANK1
      +1  BANK12  BANK13  BANK14  BANK15  BANK16  BANK17  BANK18  BANK19  BANK20  BANK21  BANK22  BANK23  BANK24  BANK25
  2893 ;;      Params:         0       0       0       0       0       0       0       0       0       0       0       0       
      +0       0       0       0       0       0       0       0       0       0       0       0       0       0       0
  2894 ;;      Locals:         0       0       0       1       0       0       0       0       0       0       0       0       
      +0       0       0       0       0       0       0       0       0       0       0       0       0       0       0
  2895 ;;      Temps:          0       0       0       2       0       0       0       0       0       0       0       0       
      +0       0       0       0       0       0       0       0       0       0       0       0       0       0       0
  2896 ;;      Totals:         0       0       0       3       0       0       0       0       0       0       0       0       
      +0       0       0       0       0       0       0       0       0       0       0       0       0       0       0
  2897 ;;Total ram usage:        3 bytes
  2898 ;; Hardware stack levels required when called: 6
  2899 ;; This function calls:
  2900 ;;		_EUSART_Initialize
  2901 ;;		_EUSART_Read
  2902 ;;		_EUSART_Write
  2903 ;;		_EUSART_Write_Text
  2904 ;;		_initMain
  2905 ;;		_memset
  2906 ;;		_print_menu
  2907 ;;		_process_command
  2908 ;; This function is called by:
  2909 ;;		Startup code after reset
  2910 ;; This function uses a non-reentrant model
  2911 ;;
  2912                           
  2913     1EC9                     _main:	
  2914                           ;psect for function _main
  2915                           
  2916     1EC9                     l4448:	
  2917                           ;incstack = 0
  2918                           ; Regs used in _main: [wreg-fsr1h+status,2+status,0+pclath+cstack]
  2919                           
  2920                           
  2921                           ;main.c: 227:     uint8_t rx_char;;main.c: 229:     initMain();
  2922     1EC9  3199  21F0  319E   	fcall	_initMain
  2923                           
  2924                           ;main.c: 230:     EUSART_Initialize(19200);
  2925     1ECC  3000               	movlw	0
  2926     1ECD  0020               	movlb	0	; select bank0
  2927     1ECE  00A9               	movwf	EUSART_Initialize@baudrate+3
  2928     1ECF  3000               	movlw	0
  2929     1ED0  00A8               	movwf	EUSART_Initialize@baudrate+2
  2930     1ED1  304B               	movlw	75
  2931     1ED2  00A7               	movwf	EUSART_Initialize@baudrate+1
  2932     1ED3  3000               	movlw	0
  2933     1ED4  00A6               	movwf	EUSART_Initialize@baudrate
  2934     1ED5  319B  231C  319E   	fcall	_EUSART_Initialize
  2935     1ED8                     l4450:
  2936                           
  2937                           ;main.c: 231:     _delay((unsigned long)((500)*(32000000/4000.0)));
  2938     1ED8  3015               	movlw	21
  2939     1ED9  0022               	movlb	2	; select bank2
  2940     1EDA  00E7               	movwf	(??_main^(0+256)+1)
  2941     1EDB  304B               	movlw	75
  2942     1EDC  00E6               	movwf	??_main^(0+256)
  2943     1EDD  30BE               	movlw	190
  2944     1EDE                     u6967:
  2945     1EDE  0B89               	decfsz	9,f
  2946     1EDF  2EDE               	goto	u6967
  2947     1EE0  0BE6               	decfsz	??_main^(0+256),f
  2948     1EE1  2EDE               	goto	u6967
  2949     1EE2  0BE7               	decfsz	(??_main^(0+256)+1),f
  2950     1EE3  2EDE               	goto	u6967
  2951     1EE4  0000               	nop
  2952     1EE5                     l4452:
  2953                           
  2954                           ;main.c: 233:     print_menu();
  2955     1EE5  319A  22CE  319E   	fcall	_print_menu
  2956     1EE8                     l4454:
  2957                           
  2958                           ;main.c: 235:     memset(rx_buffer, 0, 64);
  2959     1EE8  3000               	movlw	0
  2960     1EE9  00F0               	movwf	memset@c
  2961     1EEA  00F1               	movwf	memset@c+1
  2962     1EEB  3040               	movlw	64
  2963     1EEC  00F2               	movwf	memset@n
  2964     1EED  3000               	movlw	0
  2965     1EEE  00F3               	movwf	memset@n+1
  2966     1EEF  30A0               	movlw	(low (_rx_buffer| (0+512)))& (0+255)
  2967     1EF0  31A7  273F  319E   	fcall	_memset
  2968     1EF3                     l4456:
  2969                           
  2970                           ;main.c: 236:     rx_index = 0;
  2971     1EF3  0022               	movlb	2	; select bank2
  2972     1EF4  01EE               	clrf	_rx_index^(0+256)
  2973     1EF5                     l4458:
  2974                           
  2975                           ;main.c: 239:     {;main.c: 240:         if (PIR1bits.RCIF) {
  2976     1EF5  0020               	movlb	0	; select bank0
  2977     1EF6  1E91               	btfss	17,5	;volatile
  2978     1EF7  2EF9               	goto	u6891
  2979     1EF8  2EFA               	goto	u6890
  2980     1EF9                     u6891:
  2981     1EF9  2EF5               	goto	l4458
  2982     1EFA                     u6890:
  2983     1EFA                     l4460:
  2984                           
  2985                           ;main.c: 241:             rx_char = EUSART_Read();
  2986     1EFA  3188  2000  319E   	fcall	_EUSART_Read
  2987     1EFD  0022               	movlb	2	; select bank2
  2988     1EFE  00E8               	movwf	main@rx_char^(0+256)
  2989     1EFF                     l4462:
  2990                           
  2991                           ;main.c: 242:             EUSART_Write(rx_char);
  2992     1EFF  0868               	movf	main@rx_char^(0+256),w
  2993     1F00  31A6  26D1  319E   	fcall	_EUSART_Write
  2994     1F03                     l4464:
  2995                           
  2996                           ;main.c: 244:             if (rx_char == '\r' || rx_char == '\n') {
  2997     1F03  300D               	movlw	13
  2998     1F04  0022               	movlb	2	; select bank2
  2999     1F05  0668               	xorwf	main@rx_char^(0+256),w
  3000     1F06  1903               	btfsc	3,2
  3001     1F07  2F09               	goto	u6901
  3002     1F08  2F0A               	goto	u6900
  3003     1F09                     u6901:
  3004     1F09  2F10               	goto	l4468
  3005     1F0A                     u6900:
  3006     1F0A                     l4466:
  3007     1F0A  300A               	movlw	10
  3008     1F0B  0668               	xorwf	main@rx_char^(0+256),w
  3009     1F0C  1D03               	btfss	3,2
  3010     1F0D  2F0F               	goto	u6911
  3011     1F0E  2F10               	goto	u6910
  3012     1F0F                     u6911:
  3013     1F0F  2F2E               	goto	l4478
  3014     1F10                     u6910:
  3015     1F10                     l4468:
  3016                           
  3017                           ;main.c: 245:                 EUSART_Write_Text("\r\n");
  3018     1F10  306F               	movlw	low ((STR_23+14)| (0+32768))
  3019     1F11  00F3               	movwf	EUSART_Write_Text@text
  3020     1F12  30A8               	movlw	high ((STR_23+14)| (0+32768))
  3021     1F13  00F4               	movwf	EUSART_Write_Text@text+1
  3022     1F14  3199  21D3  319E   	fcall	_EUSART_Write_Text
  3023     1F17                     l4470:
  3024                           
  3025                           ;main.c: 246:                 rx_buffer[rx_index] = '\0';
  3026     1F17  0022               	movlb	2	; select bank2
  3027     1F18  086E               	movf	_rx_index^(0+256),w
  3028     1F19  3EA0               	addlw	(low (_rx_buffer| (0+512)))& (0+255)
  3029     1F1A  0086               	movwf	6
  3030     1F1B  3002               	movlw	2	; select bank5/6
  3031     1F1C  0087               	movwf	7
  3032     1F1D  0181               	clrf	1
  3033     1F1E                     l4472:
  3034                           
  3035                           ;main.c: 247:                 process_command(rx_buffer);
  3036     1F1E  30A0               	movlw	(low (_rx_buffer| (0+512)))& (0+255)
  3037     1F1F  3188  2010  319E   	fcall	_process_command
  3038     1F22                     l4474:
  3039                           
  3040                           ;main.c: 248:                 memset(rx_buffer, 0, 64);
  3041     1F22  3000               	movlw	0
  3042     1F23  00F0               	movwf	memset@c
  3043     1F24  00F1               	movwf	memset@c+1
  3044     1F25  3040               	movlw	64
  3045     1F26  00F2               	movwf	memset@n
  3046     1F27  3000               	movlw	0
  3047     1F28  00F3               	movwf	memset@n+1
  3048     1F29  30A0               	movlw	(low (_rx_buffer| (0+512)))& (0+255)
  3049     1F2A  31A7  273F  319E   	fcall	_memset
  3050     1F2D  2EF3               	goto	l4456
  3051     1F2E                     l4478:
  3052     1F2E  3008               	movlw	8
  3053     1F2F  0668               	xorwf	main@rx_char^(0+256),w
  3054     1F30  1903               	btfsc	3,2
  3055     1F31  2F33               	goto	u6921
  3056     1F32  2F34               	goto	u6920
  3057     1F33                     u6921:
  3058     1F33  2F3A               	goto	l4482
  3059     1F34                     u6920:
  3060     1F34                     l4480:
  3061     1F34  307F               	movlw	127
  3062     1F35  0668               	xorwf	main@rx_char^(0+256),w
  3063     1F36  1D03               	btfss	3,2
  3064     1F37  2F39               	goto	u6931
  3065     1F38  2F3A               	goto	u6930
  3066     1F39                     u6931:
  3067     1F39  2F4F               	goto	l4490
  3068     1F3A                     u6930:
  3069     1F3A                     l4482:
  3070                           
  3071                           ;main.c: 252:                 if (rx_index > 0) {
  3072     1F3A  086E               	movf	_rx_index^(0+256),w
  3073     1F3B  1903               	btfsc	3,2
  3074     1F3C  2F3E               	goto	u6941
  3075     1F3D  2F3F               	goto	u6940
  3076     1F3E                     u6941:
  3077     1F3E  2F61               	goto	l235
  3078     1F3F                     u6940:
  3079     1F3F                     l4484:
  3080                           
  3081                           ;main.c: 253:                     rx_index--;
  3082     1F3F  3001               	movlw	1
  3083     1F40  02EE               	subwf	_rx_index^(0+256),f
  3084     1F41                     l4486:
  3085                           
  3086                           ;main.c: 254:                     rx_buffer[rx_index] = '\0';
  3087     1F41  086E               	movf	_rx_index^(0+256),w
  3088     1F42  3EA0               	addlw	(low (_rx_buffer| (0+512)))& (0+255)
  3089     1F43  0086               	movwf	6
  3090     1F44  3002               	movlw	2	; select bank5/6
  3091     1F45  0087               	movwf	7
  3092     1F46  0181               	clrf	1
  3093     1F47                     l4488:
  3094                           
  3095                           ;main.c: 255:                     EUSART_Write_Text(" \b");
  3096     1F47  3016               	movlw	low (STR_33| (0+32768))
  3097     1F48  00F3               	movwf	EUSART_Write_Text@text
  3098     1F49  30A9               	movlw	high (STR_33| (0+32768))
  3099     1F4A  00F4               	movwf	EUSART_Write_Text@text+1
  3100     1F4B  3199  21D3  319E   	fcall	_EUSART_Write_Text
  3101     1F4E  2EF5               	goto	l4458
  3102     1F4F                     l4490:
  3103     1F4F  303F               	movlw	63
  3104     1F50  026E               	subwf	_rx_index^(0+256),w
  3105     1F51  1803               	skipnc
  3106     1F52  2F54               	goto	u6951
  3107     1F53  2F55               	goto	u6950
  3108     1F54                     u6951:
  3109     1F54  2F61               	goto	l235
  3110     1F55                     u6950:
  3111     1F55                     l4492:
  3112                           
  3113                           ;main.c: 259:                 rx_buffer[rx_index++] = (char)rx_char;
  3114     1F55  086E               	movf	_rx_index^(0+256),w
  3115     1F56  3EA0               	addlw	(low (_rx_buffer| (0+512)))& (0+255)
  3116     1F57  0086               	movwf	6
  3117     1F58  3002               	movlw	2	; select bank5/6
  3118     1F59  0087               	movwf	7
  3119     1F5A  0868               	movf	main@rx_char^(0+256),w
  3120     1F5B  0081               	movwf	1
  3121     1F5C                     l4494:
  3122     1F5C  3001               	movlw	1
  3123     1F5D  00E6               	movwf	??_main^(0+256)
  3124     1F5E  0866               	movf	??_main^(0+256),w
  3125     1F5F  07EE               	addwf	_rx_index^(0+256),f
  3126     1F60  2EF5               	goto	l4458
  3127     1F61                     l235:	
  3128                           ;main.c: 261:         }
  3129                           
  3130     1F61  2EF5               	goto	l4458
  3131     1F62  3180  2803         	ljmp	start
  3132     1F64                     __end_of_main:
  3133                           
  3134                           	psect	text1
  3135     0810                     __ptext1:	
  3136 ;; *************** function _process_command *****************
  3137 ;; Defined at:
  3138 ;;		line 176 in file "main.c"
  3139 ;; Parameters:    Size  Location     Type
  3140 ;;  buffer          1    wreg     PTR unsigned char 
  3141 ;;		 -> rx_buffer(64), 
  3142 ;; Auto vars:     Size  Location     Type
  3143 ;;  buffer          1   19[BANK3 ] PTR unsigned char 
  3144 ;;		 -> rx_buffer(64), 
  3145 ;;  features       16    0[BANK3 ] float [4]
  3146 ;;  i               1   18[BANK3 ] unsigned char 
  3147 ;;  num_parsed      1   17[BANK3 ] unsigned char 
  3148 ;;  prediction      1   16[BANK3 ] char 
  3149 ;; Return value:  Size  Location     Type
  3150 ;;                  1    wreg      void 
  3151 ;; Registers used:
  3152 ;;		wreg, fsr0l, fsr0h, fsr1l, fsr1h, status,2, status,0, pclath, cstack
  3153 ;; Tracked objects:
  3154 ;;		On entry : 0/0
  3155 ;;		On exit  : 0/0
  3156 ;;		Unchanged: 0/0
  3157 ;; Data sizes:     COMMON   BANK0   BANK1   BANK2   BANK3   BANK4   BANK5   BANK6   BANK7   BANK8   BANK9  BANK10  BANK1
      +1  BANK12  BANK13  BANK14  BANK15  BANK16  BANK17  BANK18  BANK19  BANK20  BANK21  BANK22  BANK23  BANK24  BANK25
  3158 ;;      Params:         0       0       0       0       0       0       0       0       0       0       0       0       
      +0       0       0       0       0       0       0       0       0       0       0       0       0       0       0
  3159 ;;      Locals:         0       0       0       0      20       0       0       0       0       0       0       0       
      +0       0       0       0       0       0       0       0       0       0       0       0       0       0       0
  3160 ;;      Temps:          0       0       0       1       0       0       0       0       0       0       0       0       
      +0       0       0       0       0       0       0       0       0       0       0       0       0       0       0
  3161 ;;      Totals:         0       0       0       1      20       0       0       0       0       0       0       0       
      +0       0       0       0       0       0       0       0       0       0       0       0       0       0       0
  3162 ;;Total ram usage:       21 bytes
  3163 ;; Hardware stack levels used: 1
  3164 ;; Hardware stack levels required when called: 5
  3165 ;; This function calls:
  3166 ;;		_EUSART_Write_Text
  3167 ;;		_ml_get_class_name
  3168 ;;		_ml_predict
  3169 ;;		_parse_features
  3170 ;;		_print_float
  3171 ;;		_print_menu
  3172 ;;		_run_demo
  3173 ;;		_strlen
  3174 ;; This function is called by:
  3175 ;;		_main
  3176 ;; This function uses a non-reentrant model
  3177 ;;
  3178                           
  3179     0810                     _process_command:	
  3180                           ;psect for function _process_command
  3181                           
  3182                           
  3183                           ;incstack = 0
  3184                           ; Regs used in _process_command: [wreg-fsr1h+status,2+status,0+pclath+cstack]
  3185                           ;process_command@buffer stored from wreg
  3186     0810  0023               	movlb	3	; select bank3
  3187     0811  00B3               	movwf	process_command@buffer^(0+384)
  3188     0812                     l4380:
  3189                           
  3190                           ;main.c: 176: void process_command(char *buffer);main.c: 177: {;main.c: 178:     float f
      +                          eatures[4];;main.c: 179:     signed char prediction;;main.c: 180:     unsigned char num_
      +                          parsed;;main.c: 181:     unsigned char i;;main.c: 183:     if (strlen(buffer) == 0) {
  3191     0812  0833               	movf	process_command@buffer^(0+384),w
  3192     0813  31A7  270F  3188   	fcall	_strlen
  3193     0816  0870               	movf	?_strlen,w
  3194     0817  0471               	iorwf	?_strlen+1,w
  3195     0818  1D03               	btfss	3,2
  3196     0819  281B               	goto	u6791
  3197     081A  281C               	goto	u6790
  3198     081B                     u6791:
  3199     081B  281D               	goto	l4384
  3200     081C                     u6790:
  3201     081C  28E1               	goto	l219
  3202     081D                     l4384:
  3203                           
  3204                           ;main.c: 187:     if (buffer[0] == 'd' || buffer[0] == 'D') {
  3205     081D  0023               	movlb	3	; select bank3
  3206     081E  0833               	movf	process_command@buffer^(0+384),w
  3207     081F  0086               	movwf	6
  3208     0820  3002               	movlw	2	; select bank4/5
  3209     0821  0087               	movwf	7
  3210     0822  3064               	movlw	100
  3211     0823  0601               	xorwf	1,w
  3212     0824  1903               	btfsc	3,2
  3213     0825  2827               	goto	u6801
  3214     0826  2828               	goto	u6800
  3215     0827                     u6801:
  3216     0827  2832               	goto	l4388
  3217     0828                     u6800:
  3218     0828                     l4386:
  3219     0828  0833               	movf	process_command@buffer^(0+384),w
  3220     0829  0086               	movwf	6
  3221     082A  3002               	movlw	2	; select bank4/5
  3222     082B  0087               	movwf	7
  3223     082C  3044               	movlw	68
  3224     082D  0601               	xorwf	1,w
  3225     082E  1D03               	btfss	3,2
  3226     082F  2831               	goto	u6811
  3227     0830  2832               	goto	u6810
  3228     0831                     u6811:
  3229     0831  283D               	goto	l4394
  3230     0832                     u6810:
  3231     0832                     l4388:
  3232                           
  3233                           ;main.c: 188:         run_demo();
  3234     0832  3191  215E  3188   	fcall	_run_demo
  3235     0835                     l4390:
  3236                           
  3237                           ;main.c: 189:         EUSART_Write_Text("> ");
  3238     0835  3003               	movlw	low ((STR_31+2)| (0+32768))
  3239     0836  00F3               	movwf	EUSART_Write_Text@text
  3240     0837  30A9               	movlw	high ((STR_31+2)| (0+32768))
  3241     0838  00F4               	movwf	EUSART_Write_Text@text+1
  3242     0839  3199  21D3  3188   	fcall	_EUSART_Write_Text
  3243     083C  28E1               	goto	l219
  3244     083D                     l4394:
  3245                           
  3246                           ;main.c: 193:     if (buffer[0] == 'h' || buffer[0] == 'H' || buffer[0] == '?') {
  3247     083D  0833               	movf	process_command@buffer^(0+384),w
  3248     083E  0086               	movwf	6
  3249     083F  3002               	movlw	2	; select bank4/5
  3250     0840  0087               	movwf	7
  3251     0841  3068               	movlw	104
  3252     0842  0601               	xorwf	1,w
  3253     0843  1903               	btfsc	3,2
  3254     0844  2846               	goto	u6821
  3255     0845  2847               	goto	u6820
  3256     0846                     u6821:
  3257     0846  285B               	goto	l4400
  3258     0847                     u6820:
  3259     0847                     l4396:
  3260     0847  0833               	movf	process_command@buffer^(0+384),w
  3261     0848  0086               	movwf	6
  3262     0849  3002               	movlw	2	; select bank4/5
  3263     084A  0087               	movwf	7
  3264     084B  3048               	movlw	72
  3265     084C  0601               	xorwf	1,w
  3266     084D  1903               	btfsc	3,2
  3267     084E  2850               	goto	u6831
  3268     084F  2851               	goto	u6830
  3269     0850                     u6831:
  3270     0850  285B               	goto	l4400
  3271     0851                     u6830:
  3272     0851                     l4398:
  3273     0851  0833               	movf	process_command@buffer^(0+384),w
  3274     0852  0086               	movwf	6
  3275     0853  3002               	movlw	2	; select bank4/5
  3276     0854  0087               	movwf	7
  3277     0855  303F               	movlw	63
  3278     0856  0601               	xorwf	1,w
  3279     0857  1D03               	btfss	3,2
  3280     0858  285A               	goto	u6841
  3281     0859  285B               	goto	u6840
  3282     085A                     u6841:
  3283     085A  285F               	goto	l4404
  3284     085B                     u6840:
  3285     085B                     l4400:
  3286                           
  3287                           ;main.c: 194:         print_menu();
  3288     085B  319A  22CE  3188   	fcall	_print_menu
  3289     085E  28E1               	goto	l219
  3290     085F                     l4404:
  3291                           
  3292                           ;main.c: 198:     num_parsed = parse_features(buffer, features);
  3293     085F  30A0               	movlw	(low (process_command@features| (0+256)))& (0+255)
  3294     0860  0020               	movlb	0	; select bank0
  3295     0861  00EE               	movwf	parse_features@features
  3296     0862  0023               	movlb	3	; select bank3
  3297     0863  0833               	movf	process_command@buffer^(0+384),w
  3298     0864  3190  2015  3188   	fcall	_parse_features
  3299     0867  0023               	movlb	3	; select bank3
  3300     0868  00B1               	movwf	process_command@num_parsed^(0+384)
  3301     0869                     l4406:
  3302                           
  3303                           ;main.c: 200:     if (num_parsed != 4) {
  3304     0869  3004               	movlw	4
  3305     086A  0631               	xorwf	process_command@num_parsed^(0+384),w
  3306     086B  1903               	btfsc	3,2
  3307     086C  286E               	goto	u6851
  3308     086D  286F               	goto	u6850
  3309     086E                     u6851:
  3310     086E  287E               	goto	l4412
  3311     086F                     u6850:
  3312     086F                     l4408:
  3313                           
  3314                           ;main.c: 201:         EUSART_Write_Text("Error: Need 4 values\r\n");
  3315     086F  3036               	movlw	low (STR_25| (0+32768))
  3316     0870  00F3               	movwf	EUSART_Write_Text@text
  3317     0871  30A8               	movlw	high (STR_25| (0+32768))
  3318     0872  00F4               	movwf	EUSART_Write_Text@text+1
  3319     0873  3199  21D3  3188   	fcall	_EUSART_Write_Text
  3320                           
  3321                           ;main.c: 202:         EUSART_Write_Text("> ");
  3322     0876  3003               	movlw	low ((STR_31+2)| (0+32768))
  3323     0877  00F3               	movwf	EUSART_Write_Text@text
  3324     0878  30A9               	movlw	high ((STR_31+2)| (0+32768))
  3325     0879  00F4               	movwf	EUSART_Write_Text@text+1
  3326     087A  3199  21D3  3188   	fcall	_EUSART_Write_Text
  3327     087D  28E1               	goto	l219
  3328     087E                     l4412:
  3329                           
  3330                           ;main.c: 206:     EUSART_Write_Text("\r\nInput: [");
  3331     087E  30AD               	movlw	low (STR_27| (0+32768))
  3332     087F  00F3               	movwf	EUSART_Write_Text@text
  3333     0880  30A8               	movlw	high (STR_27| (0+32768))
  3334     0881  00F4               	movwf	EUSART_Write_Text@text+1
  3335     0882  3199  21D3  3188   	fcall	_EUSART_Write_Text
  3336     0885                     l4414:
  3337                           
  3338                           ;main.c: 207:     for (i = 0; i < 4; i++) {
  3339     0885  0023               	movlb	3	; select bank3
  3340     0886  01B2               	clrf	process_command@i^(0+384)
  3341     0887                     l4420:
  3342                           
  3343                           ;main.c: 208:         print_float(features[i]);
  3344     0887  0832               	movf	process_command@i^(0+384),w
  3345     0888  0022               	movlb	2	; select bank2
  3346     0889  00E5               	movwf	??_process_command^(0+256)
  3347     088A  3001               	movlw	1
  3348     088B                     u6865:
  3349     088B  35E5               	lslf	??_process_command^(0+256),f
  3350     088C  3EFF               	addlw	-1
  3351     088D  1D03               	skipz
  3352     088E  288B               	goto	u6865
  3353     088F  3565               	lslf	??_process_command^(0+256),w
  3354     0890  3EA0               	addlw	(low (process_command@features| (0+256)))& (0+255)
  3355     0891  0086               	movwf	6
  3356     0892  3001               	movlw	1	; select bank3/4
  3357     0893  0087               	movwf	7
  3358     0894  3F40               	moviw [0]fsr1
  3359     0895  0020               	movlb	0	; select bank0
  3360     0896  00DC               	movwf	print_float@val
  3361     0897  3F41               	moviw [1]fsr1
  3362     0898  00DD               	movwf	print_float@val+1
  3363     0899  3F42               	moviw [2]fsr1
  3364     089A  00DE               	movwf	print_float@val+2
  3365     089B  3F43               	moviw [3]fsr1
  3366     089C  00DF               	movwf	print_float@val+3
  3367     089D  319F  2764  3188   	fcall	_print_float
  3368     08A0                     l4422:
  3369                           
  3370                           ;main.c: 209:         if (i < 4 - 1) {
  3371     08A0  3003               	movlw	3
  3372     08A1  0023               	movlb	3	; select bank3
  3373     08A2  0232               	subwf	process_command@i^(0+384),w
  3374     08A3  1803               	skipnc
  3375     08A4  28A6               	goto	u6871
  3376     08A5  28A7               	goto	u6870
  3377     08A6                     u6871:
  3378     08A6  28AE               	goto	l4426
  3379     08A7                     u6870:
  3380     08A7                     l4424:
  3381                           
  3382                           ;main.c: 210:             EUSART_Write_Text(", ");
  3383     08A7  3019               	movlw	low (STR_19| (0+32768))
  3384     08A8  00F3               	movwf	EUSART_Write_Text@text
  3385     08A9  30A9               	movlw	high (STR_19| (0+32768))
  3386     08AA  00F4               	movwf	EUSART_Write_Text@text+1
  3387     08AB  3199  21D3  3188   	fcall	_EUSART_Write_Text
  3388     08AE                     l4426:
  3389                           
  3390                           ;main.c: 212:     }
  3391     08AE  3001               	movlw	1
  3392     08AF  0022               	movlb	2	; select bank2
  3393     08B0  00E5               	movwf	??_process_command^(0+256)
  3394     08B1  0865               	movf	??_process_command^(0+256),w
  3395     08B2  0023               	movlb	3	; select bank3
  3396     08B3  07B2               	addwf	process_command@i^(0+384),f
  3397     08B4                     l4428:
  3398     08B4  3004               	movlw	4
  3399     08B5  0232               	subwf	process_command@i^(0+384),w
  3400     08B6  1C03               	skipc
  3401     08B7  28B9               	goto	u6881
  3402     08B8  28BA               	goto	u6880
  3403     08B9                     u6881:
  3404     08B9  2887               	goto	l4420
  3405     08BA                     u6880:
  3406     08BA                     l4430:
  3407                           
  3408                           ;main.c: 213:     EUSART_Write_Text("]\r\n");
  3409     08BA  3012               	movlw	low (STR_20| (0+32768))
  3410     08BB  00F3               	movwf	EUSART_Write_Text@text
  3411     08BC  30A9               	movlw	high (STR_20| (0+32768))
  3412     08BD  00F4               	movwf	EUSART_Write_Text@text+1
  3413     08BE  3199  21D3  3188   	fcall	_EUSART_Write_Text
  3414     08C1                     l4432:
  3415                           
  3416                           ;main.c: 215:     prediction = ml_predict(features);
  3417     08C1  30A0               	movlw	(low (process_command@features| (0+256)))& (0+255)
  3418     08C2  3188  20E2  3188   	fcall	_ml_predict
  3419     08C5  0023               	movlb	3	; select bank3
  3420     08C6  00B0               	movwf	process_command@prediction^(0+384)
  3421     08C7                     l4434:
  3422                           
  3423                           ;main.c: 217:     EUSART_Write_Text("Result: ");
  3424     08C7  30E9               	movlw	low (STR_21| (0+32768))
  3425     08C8  00F3               	movwf	EUSART_Write_Text@text
  3426     08C9  30A8               	movlw	high (STR_21| (0+32768))
  3427     08CA  00F4               	movwf	EUSART_Write_Text@text+1
  3428     08CB  3199  21D3  3188   	fcall	_EUSART_Write_Text
  3429                           
  3430                           ;main.c: 218:     EUSART_Write_Text((char*)ml_get_class_name(prediction));
  3431     08CE  0023               	movlb	3	; select bank3
  3432     08CF  0830               	movf	process_command@prediction^(0+384),w
  3433     08D0  31A7  275A  3188   	fcall	_ml_get_class_name
  3434     08D3  0871               	movf	?_ml_get_class_name+1,w
  3435     08D4  00F4               	movwf	EUSART_Write_Text@text+1
  3436     08D5  0870               	movf	?_ml_get_class_name,w
  3437     08D6  00F3               	movwf	EUSART_Write_Text@text
  3438     08D7  3199  21D3  3188   	fcall	_EUSART_Write_Text
  3439     08DA                     l4436:
  3440                           
  3441                           ;main.c: 219:     EUSART_Write_Text("\r\n> ");
  3442     08DA  3001               	movlw	low (STR_31| (0+32768))
  3443     08DB  00F3               	movwf	EUSART_Write_Text@text
  3444     08DC  30A9               	movlw	high (STR_31| (0+32768))
  3445     08DD  00F4               	movwf	EUSART_Write_Text@text+1
  3446     08DE  3199  21D3  3188   	fcall	_EUSART_Write_Text
  3447     08E1                     l219:
  3448     08E1  0008               	return
  3449     08E2                     __end_of_process_command:
  3450                           
  3451                           	psect	text2
  3452     115E                     __ptext2:	
  3453 ;; *************** function _run_demo *****************
  3454 ;; Defined at:
  3455 ;;		line 137 in file "main.c"
  3456 ;; Parameters:    Size  Location     Type
  3457 ;;		None
  3458 ;; Auto vars:     Size  Location     Type
  3459 ;;  test_samples   48   18[BANK2 ] float [4][3]
  3460 ;;  i               1   68[BANK2 ] unsigned char 
  3461 ;;  j               1   67[BANK2 ] unsigned char 
  3462 ;;  prediction      1   66[BANK2 ] char 
  3463 ;; Return value:  Size  Location     Type
  3464 ;;                  1    wreg      void 
  3465 ;; Registers used:
  3466 ;;		wreg, fsr0l, fsr0h, fsr1l, fsr1h, status,2, status,0, pclath, cstack
  3467 ;; Tracked objects:
  3468 ;;		On entry : 0/0
  3469 ;;		On exit  : 0/0
  3470 ;;		Unchanged: 0/0
  3471 ;; Data sizes:     COMMON   BANK0   BANK1   BANK2   BANK3   BANK4   BANK5   BANK6   BANK7   BANK8   BANK9  BANK10  BANK1
      +1  BANK12  BANK13  BANK14  BANK15  BANK16  BANK17  BANK18  BANK19  BANK20  BANK21  BANK22  BANK23  BANK24  BANK25
  3472 ;;      Params:         0       0       0       0       0       0       0       0       0       0       0       0       
      +0       0       0       0       0       0       0       0       0       0       0       0       0       0       0
  3473 ;;      Locals:         0       0       0      51       0       0       0       0       0       0       0       0       
      +0       0       0       0       0       0       0       0       0       0       0       0       0       0       0
  3474 ;;      Temps:          0       0       0       4       0       0       0       0       0       0       0       0       
      +0       0       0       0       0       0       0       0       0       0       0       0       0       0       0
  3475 ;;      Totals:         0       0       0      55       0       0       0       0       0       0       0       0       
      +0       0       0       0       0       0       0       0       0       0       0       0       0       0       0
  3476 ;;Total ram usage:       55 bytes
  3477 ;; Hardware stack levels used: 1
  3478 ;; Hardware stack levels required when called: 4
  3479 ;; This function calls:
  3480 ;;		_EUSART_Write_Integer
  3481 ;;		_EUSART_Write_Text
  3482 ;;		_ml_get_class_name
  3483 ;;		_ml_predict
  3484 ;;		_print_float
  3485 ;; This function is called by:
  3486 ;;		_process_command
  3487 ;; This function uses a non-reentrant model
  3488 ;;
  3489                           
  3490     115E                     _run_demo:	
  3491                           ;psect for function _run_demo
  3492                           
  3493     115E                     l4334:	
  3494                           ;incstack = 0
  3495                           ; Regs used in _run_demo: [wreg-fsr1h+status,2+status,0+pclath+cstack]
  3496                           
  3497                           
  3498                           ;main.c: 139:     float test_samples[3][4] = {
  3499     115E  3020               	movlw	low run_demo@F6263
  3500     115F  0086               	movwf	6
  3501     1160  3002               	movlw	high run_demo@F6263
  3502     1161  0087               	movwf	7
  3503     1162  3032               	movlw	low run_demo@test_samples
  3504     1163  0084               	movwf	4
  3505     1164  3001               	movlw	high run_demo@test_samples
  3506     1165  0085               	movwf	5
  3507     1166  3030               	movlw	48
  3508     1167  0022               	movlb	2	; select bank2
  3509     1168  00AE               	movwf	??_run_demo^(0+256)
  3510     1169                     u6720:
  3511     1169  0016               	moviw fsr1++
  3512     116A  001A               	movwi fsr0++
  3513     116B  0BAE               	decfsz	??_run_demo^(0+256),f
  3514     116C  2969               	goto	u6720
  3515     116D                     l4336:
  3516                           
  3517                           ;main.c: 145:     unsigned char i, j;;main.c: 146:     signed char prediction;;main.c: 1
      +                          48:     EUSART_Write_Text("\r\n--- Demo ---\r\n");
  3518     116D  3072               	movlw	low (STR_16| (0+32768))
  3519     116E  00F3               	movwf	EUSART_Write_Text@text
  3520     116F  30A8               	movlw	high (STR_16| (0+32768))
  3521     1170  00F4               	movwf	EUSART_Write_Text@text+1
  3522     1171  3199  21D3  3191   	fcall	_EUSART_Write_Text
  3523     1174                     l4338:
  3524                           
  3525                           ;main.c: 150:     for (i = 0; i < 3; i++) {
  3526     1174  0022               	movlb	2	; select bank2
  3527     1175  01E4               	clrf	run_demo@i^(0+256)
  3528     1176                     l4344:
  3529                           
  3530                           ;main.c: 151:         EUSART_Write_Text("\r\nSample ");
  3531     1176  30C3               	movlw	low (STR_17| (0+32768))
  3532     1177  00F3               	movwf	EUSART_Write_Text@text
  3533     1178  30A8               	movlw	high (STR_17| (0+32768))
  3534     1179  00F4               	movwf	EUSART_Write_Text@text+1
  3535     117A  3199  21D3  3191   	fcall	_EUSART_Write_Text
  3536     117D                     l4346:
  3537                           
  3538                           ;main.c: 152:         EUSART_Write_Integer(i + 1);
  3539     117D  0022               	movlb	2	; select bank2
  3540     117E  0864               	movf	run_demo@i^(0+256),w
  3541     117F  3E01               	addlw	1
  3542     1180  00FB               	movwf	EUSART_Write_Integer@value_to_send
  3543     1181  3000               	movlw	0
  3544     1182  1803               	skipnc
  3545     1183  3001               	movlw	1
  3546     1184  00FC               	movwf	EUSART_Write_Integer@value_to_send+1
  3547     1185  3180  2005  3191   	fcall	_EUSART_Write_Integer
  3548     1188                     l4348:
  3549                           
  3550                           ;main.c: 153:         EUSART_Write_Text(": [");
  3551     1188  30B4               	movlw	low ((STR_27+7)| (0+32768))
  3552     1189  00F3               	movwf	EUSART_Write_Text@text
  3553     118A  30A8               	movlw	high ((STR_27+7)| (0+32768))
  3554     118B  00F4               	movwf	EUSART_Write_Text@text+1
  3555     118C  3199  21D3  3191   	fcall	_EUSART_Write_Text
  3556     118F                     l4350:
  3557                           
  3558                           ;main.c: 155:         for (j = 0; j < 4; j++) {
  3559     118F  0022               	movlb	2	; select bank2
  3560     1190  01E3               	clrf	run_demo@j^(0+256)
  3561     1191                     l4356:
  3562                           
  3563                           ;main.c: 156:             print_float(test_samples[i][j]);
  3564     1191  0864               	movf	run_demo@i^(0+256),w
  3565     1192  00AE               	movwf	??_run_demo^(0+256)
  3566     1193  3004               	movlw	4
  3567     1194                     u6735:
  3568     1194  35AE               	lslf	??_run_demo^(0+256),f
  3569     1195  0B89               	decfsz	9,f
  3570     1196  2994               	goto	u6735
  3571     1197  3032               	movlw	(low (run_demo@test_samples| (0+256)))& (0+255)
  3572     1198  072E               	addwf	??_run_demo^(0+256),w
  3573     1199  00AF               	movwf	(??_run_demo+1)^(0+256)
  3574     119A  0863               	movf	run_demo@j^(0+256),w
  3575     119B  00B0               	movwf	(??_run_demo+2)^(0+256)
  3576     119C  3001               	movlw	1
  3577     119D                     u6745:
  3578     119D  35B0               	lslf	(??_run_demo+2)^(0+256),f
  3579     119E  3EFF               	addlw	-1
  3580     119F  1D03               	skipz
  3581     11A0  299D               	goto	u6745
  3582     11A1  3530               	lslf	(??_run_demo+2)^(0+256),w
  3583     11A2  072F               	addwf	(??_run_demo+1)^(0+256),w
  3584     11A3  00B1               	movwf	(??_run_demo+3)^(0+256)
  3585     11A4  0831               	movf	(??_run_demo+3)^(0+256),w
  3586     11A5  0086               	movwf	6
  3587     11A6  3001               	movlw	1	; select bank2/3
  3588     11A7  0087               	movwf	7
  3589     11A8  3F40               	moviw [0]fsr1
  3590     11A9  0020               	movlb	0	; select bank0
  3591     11AA  00DC               	movwf	print_float@val
  3592     11AB  3F41               	moviw [1]fsr1
  3593     11AC  00DD               	movwf	print_float@val+1
  3594     11AD  3F42               	moviw [2]fsr1
  3595     11AE  00DE               	movwf	print_float@val+2
  3596     11AF  3F43               	moviw [3]fsr1
  3597     11B0  00DF               	movwf	print_float@val+3
  3598     11B1  319F  2764  3191   	fcall	_print_float
  3599     11B4                     l4358:
  3600                           
  3601                           ;main.c: 157:             if (j < 4 - 1) {
  3602     11B4  3003               	movlw	3
  3603     11B5  0022               	movlb	2	; select bank2
  3604     11B6  0263               	subwf	run_demo@j^(0+256),w
  3605     11B7  1803               	skipnc
  3606     11B8  29BA               	goto	u6751
  3607     11B9  29BB               	goto	u6750
  3608     11BA                     u6751:
  3609     11BA  29C2               	goto	l4362
  3610     11BB                     u6750:
  3611     11BB                     l4360:
  3612                           
  3613                           ;main.c: 158:                 EUSART_Write_Text(", ");
  3614     11BB  3019               	movlw	low (STR_19| (0+32768))
  3615     11BC  00F3               	movwf	EUSART_Write_Text@text
  3616     11BD  30A9               	movlw	high (STR_19| (0+32768))
  3617     11BE  00F4               	movwf	EUSART_Write_Text@text+1
  3618     11BF  3199  21D3  3191   	fcall	_EUSART_Write_Text
  3619     11C2                     l4362:
  3620                           
  3621                           ;main.c: 160:         }
  3622     11C2  3001               	movlw	1
  3623     11C3  0022               	movlb	2	; select bank2
  3624     11C4  00AE               	movwf	??_run_demo^(0+256)
  3625     11C5  082E               	movf	??_run_demo^(0+256),w
  3626     11C6  07E3               	addwf	run_demo@j^(0+256),f
  3627     11C7                     l4364:
  3628     11C7  3004               	movlw	4
  3629     11C8  0263               	subwf	run_demo@j^(0+256),w
  3630     11C9  1C03               	skipc
  3631     11CA  29CC               	goto	u6761
  3632     11CB  29CD               	goto	u6760
  3633     11CC                     u6761:
  3634     11CC  2991               	goto	l4356
  3635     11CD                     u6760:
  3636     11CD                     l4366:
  3637                           
  3638                           ;main.c: 161:         EUSART_Write_Text("]\r\n");
  3639     11CD  3012               	movlw	low (STR_20| (0+32768))
  3640     11CE  00F3               	movwf	EUSART_Write_Text@text
  3641     11CF  30A9               	movlw	high (STR_20| (0+32768))
  3642     11D0  00F4               	movwf	EUSART_Write_Text@text+1
  3643     11D1  3199  21D3  3191   	fcall	_EUSART_Write_Text
  3644     11D4                     l4368:
  3645                           
  3646                           ;main.c: 163:         prediction = ml_predict(test_samples[i]);
  3647     11D4  0022               	movlb	2	; select bank2
  3648     11D5  0864               	movf	run_demo@i^(0+256),w
  3649     11D6  00AE               	movwf	??_run_demo^(0+256)
  3650     11D7  3003               	movlw	3
  3651     11D8                     u6775:
  3652     11D8  35AE               	lslf	??_run_demo^(0+256),f
  3653     11D9  3EFF               	addlw	-1
  3654     11DA  1D03               	skipz
  3655     11DB  29D8               	goto	u6775
  3656     11DC  352E               	lslf	??_run_demo^(0+256),w
  3657     11DD  3E32               	addlw	(low (run_demo@test_samples| (0+256)))& (0+255)
  3658     11DE  3188  20E2  3191   	fcall	_ml_predict
  3659     11E1  0022               	movlb	2	; select bank2
  3660     11E2  00E2               	movwf	run_demo@prediction^(0+256)
  3661     11E3                     l4370:
  3662                           
  3663                           ;main.c: 165:         EUSART_Write_Text("Result: ");
  3664     11E3  30E9               	movlw	low (STR_21| (0+32768))
  3665     11E4  00F3               	movwf	EUSART_Write_Text@text
  3666     11E5  30A8               	movlw	high (STR_21| (0+32768))
  3667     11E6  00F4               	movwf	EUSART_Write_Text@text+1
  3668     11E7  3199  21D3  3191   	fcall	_EUSART_Write_Text
  3669                           
  3670                           ;main.c: 166:         EUSART_Write_Text((char*)ml_get_class_name(prediction));
  3671     11EA  0022               	movlb	2	; select bank2
  3672     11EB  0862               	movf	run_demo@prediction^(0+256),w
  3673     11EC  31A7  275A  3191   	fcall	_ml_get_class_name
  3674     11EF  0871               	movf	?_ml_get_class_name+1,w
  3675     11F0  00F4               	movwf	EUSART_Write_Text@text+1
  3676     11F1  0870               	movf	?_ml_get_class_name,w
  3677     11F2  00F3               	movwf	EUSART_Write_Text@text
  3678     11F3  3199  21D3  3191   	fcall	_EUSART_Write_Text
  3679     11F6                     l4372:
  3680                           
  3681                           ;main.c: 167:         EUSART_Write_Text("\r\n");
  3682     11F6  306F               	movlw	low ((STR_23+14)| (0+32768))
  3683     11F7  00F3               	movwf	EUSART_Write_Text@text
  3684     11F8  30A8               	movlw	high ((STR_23+14)| (0+32768))
  3685     11F9  00F4               	movwf	EUSART_Write_Text@text+1
  3686     11FA  3199  21D3  3191   	fcall	_EUSART_Write_Text
  3687     11FD                     l4374:
  3688                           
  3689                           ;main.c: 168:     }
  3690     11FD  3001               	movlw	1
  3691     11FE  0022               	movlb	2	; select bank2
  3692     11FF  00AE               	movwf	??_run_demo^(0+256)
  3693     1200  082E               	movf	??_run_demo^(0+256),w
  3694     1201  07E4               	addwf	run_demo@i^(0+256),f
  3695     1202                     l4376:
  3696     1202  3003               	movlw	3
  3697     1203  0264               	subwf	run_demo@i^(0+256),w
  3698     1204  1C03               	skipc
  3699     1205  2A07               	goto	u6781
  3700     1206  2A08               	goto	u6780
  3701     1207                     u6781:
  3702     1207  2976               	goto	l4344
  3703     1208                     u6780:
  3704     1208                     l4378:
  3705                           
  3706                           ;main.c: 170:     EUSART_Write_Text("\r\n--- Done ---\r\n");
  3707     1208  3061               	movlw	low (STR_23| (0+32768))
  3708     1209  00F3               	movwf	EUSART_Write_Text@text
  3709     120A  30A8               	movlw	high (STR_23| (0+32768))
  3710     120B  00F4               	movwf	EUSART_Write_Text@text+1
  3711     120C  3199  21D3  3191   	fcall	_EUSART_Write_Text
  3712     120F                     l215:
  3713     120F  0008               	return
  3714     1210                     __end_of_run_demo:
  3715                           
  3716                           	psect	text3
  3717     1F64                     __ptext3:	
  3718 ;; *************** function _print_float *****************
  3719 ;; Defined at:
  3720 ;;		line 84 in file "main.c"
  3721 ;; Parameters:    Size  Location     Type
  3722 ;;  val             4   60[BANK0 ] float 
  3723 ;; Auto vars:     Size  Location     Type
  3724 ;;  whole           2   66[BANK0 ] int 
  3725 ;;  frac            2   64[BANK0 ] int 
  3726 ;; Return value:  Size  Location     Type
  3727 ;;                  1    wreg      void 
  3728 ;; Registers used:
  3729 ;;		wreg, fsr0l, fsr0h, fsr1l, fsr1h, status,2, status,0, pclath, cstack
  3730 ;; Tracked objects:
  3731 ;;		On entry : 0/0
  3732 ;;		On exit  : 0/0
  3733 ;;		Unchanged: 0/0
  3734 ;; Data sizes:     COMMON   BANK0   BANK1   BANK2   BANK3   BANK4   BANK5   BANK6   BANK7   BANK8   BANK9  BANK10  BANK1
      +1  BANK12  BANK13  BANK14  BANK15  BANK16  BANK17  BANK18  BANK19  BANK20  BANK21  BANK22  BANK23  BANK24  BANK25
  3735 ;;      Params:         0       4       0       0       0       0       0       0       0       0       0       0       
      +0       0       0       0       0       0       0       0       0       0       0       0       0       0       0
  3736 ;;      Locals:         0       4       0       0       0       0       0       0       0       0       0       0       
      +0       0       0       0       0       0       0       0       0       0       0       0       0       0       0
  3737 ;;      Temps:          0       0       0       0       0       0       0       0       0       0       0       0       
      +0       0       0       0       0       0       0       0       0       0       0       0       0       0       0
  3738 ;;      Totals:         0       8       0       0       0       0       0       0       0       0       0       0       
      +0       0       0       0       0       0       0       0       0       0       0       0       0       0       0
  3739 ;;Total ram usage:        8 bytes
  3740 ;; Hardware stack levels used: 1
  3741 ;; Hardware stack levels required when called: 3
  3742 ;; This function calls:
  3743 ;;		_EUSART_Write
  3744 ;;		_EUSART_Write_Integer
  3745 ;;		___flge
  3746 ;;		___flmul
  3747 ;;		___flneg
  3748 ;;		___flsub
  3749 ;;		___fltol
  3750 ;;		___xxtofl
  3751 ;; This function is called by:
  3752 ;;		_run_demo
  3753 ;;		_process_command
  3754 ;; This function uses a non-reentrant model
  3755 ;;
  3756                           
  3757     1F64                     _print_float:	
  3758                           ;psect for function _print_float
  3759                           
  3760     1F64                     l3504:	
  3761                           ;incstack = 0
  3762                           ; Regs used in _print_float: [wreg-fsr1h+status,2+status,0+pclath+cstack]
  3763                           
  3764                           
  3765                           ;main.c: 84: void print_float(float val);main.c: 85: {;main.c: 86:     int whole, frac;;
      +                          main.c: 88:     if (val < 0) {
  3766     1F64  0020               	movlb	0	; select bank0
  3767     1F65  085F               	movf	print_float@val+3,w
  3768     1F66  00F3               	movwf	___flge@ff1+3
  3769     1F67  085E               	movf	print_float@val+2,w
  3770     1F68  00F2               	movwf	___flge@ff1+2
  3771     1F69  085D               	movf	print_float@val+1,w
  3772     1F6A  00F1               	movwf	___flge@ff1+1
  3773     1F6B  085C               	movf	print_float@val,w
  3774     1F6C  00F0               	movwf	___flge@ff1
  3775     1F6D  3000               	movlw	0
  3776     1F6E  00F7               	movwf	___flge@ff2+3
  3777     1F6F  3000               	movlw	0
  3778     1F70  00F6               	movwf	___flge@ff2+2
  3779     1F71  3000               	movlw	0
  3780     1F72  00F5               	movwf	___flge@ff2+1
  3781     1F73  3000               	movlw	0
  3782     1F74  00F4               	movwf	___flge@ff2
  3783     1F75  319D  2516  319F   	fcall	___flge
  3784     1F78  1803               	btfsc	3,0
  3785     1F79  2F7B               	goto	u5141
  3786     1F7A  2F7C               	goto	u5140
  3787     1F7B                     u5141:
  3788     1F7B  2F95               	goto	l3510
  3789     1F7C                     u5140:
  3790     1F7C                     l3506:
  3791                           
  3792                           ;main.c: 89:         EUSART_Write('-');
  3793     1F7C  302D               	movlw	45
  3794     1F7D  31A6  26D1  319F   	fcall	_EUSART_Write
  3795     1F80                     l3508:
  3796                           
  3797                           ;main.c: 90:         val = -val;
  3798     1F80  0020               	movlb	0	; select bank0
  3799     1F81  085F               	movf	print_float@val+3,w
  3800     1F82  00F3               	movwf	___flneg@f1+3
  3801     1F83  085E               	movf	print_float@val+2,w
  3802     1F84  00F2               	movwf	___flneg@f1+2
  3803     1F85  085D               	movf	print_float@val+1,w
  3804     1F86  00F1               	movwf	___flneg@f1+1
  3805     1F87  085C               	movf	print_float@val,w
  3806     1F88  00F0               	movwf	___flneg@f1
  3807     1F89  31A6  26DB  319F   	fcall	___flneg
  3808     1F8C  0873               	movf	?___flneg+3,w
  3809     1F8D  0020               	movlb	0	; select bank0
  3810     1F8E  00DF               	movwf	print_float@val+3
  3811     1F8F  0872               	movf	?___flneg+2,w
  3812     1F90  00DE               	movwf	print_float@val+2
  3813     1F91  0871               	movf	?___flneg+1,w
  3814     1F92  00DD               	movwf	print_float@val+1
  3815     1F93  0870               	movf	?___flneg,w
  3816     1F94  00DC               	movwf	print_float@val
  3817     1F95                     l3510:
  3818                           
  3819                           ;main.c: 93:     whole = (int)val;
  3820     1F95  0020               	movlb	0	; select bank0
  3821     1F96  085F               	movf	print_float@val+3,w
  3822     1F97  00D5               	movwf	___fltol@f1+3
  3823     1F98  085E               	movf	print_float@val+2,w
  3824     1F99  00D4               	movwf	___fltol@f1+2
  3825     1F9A  085D               	movf	print_float@val+1,w
  3826     1F9B  00D3               	movwf	___fltol@f1+1
  3827     1F9C  085C               	movf	print_float@val,w
  3828     1F9D  00D2               	movwf	___fltol@f1
  3829     1F9E  319C  241E  319F   	fcall	___fltol
  3830     1FA1  0020               	movlb	0	; select bank0
  3831     1FA2  0853               	movf	?___fltol+1,w
  3832     1FA3  00E3               	movwf	print_float@whole+1
  3833     1FA4  0852               	movf	?___fltol,w
  3834     1FA5  00E2               	movwf	print_float@whole
  3835     1FA6                     l3512:
  3836                           
  3837                           ;main.c: 94:     frac = (int)((val - (float)whole) * 10.0f);
  3838     1FA6  085F               	movf	print_float@val+3,w
  3839     1FA7  00B7               	movwf	___flsub@b+3
  3840     1FA8  085E               	movf	print_float@val+2,w
  3841     1FA9  00B6               	movwf	___flsub@b+2
  3842     1FAA  085D               	movf	print_float@val+1,w
  3843     1FAB  00B5               	movwf	___flsub@b+1
  3844     1FAC  085C               	movf	print_float@val,w
  3845     1FAD  00B4               	movwf	___flsub@b
  3846     1FAE  0862               	movf	print_float@whole,w
  3847     1FAF  00F0               	movwf	___xxtofl@val
  3848     1FB0  0863               	movf	print_float@whole+1,w
  3849     1FB1  00F1               	movwf	___xxtofl@val+1
  3850     1FB2  0D89               	rlf	9,f
  3851     1FB3  3B89               	subwfb	9,f
  3852     1FB4  0989               	comf	9,f
  3853     1FB5  00F2               	movwf	___xxtofl@val+2
  3854     1FB6  00F3               	movwf	___xxtofl@val+3
  3855     1FB7  3001               	movlw	1
  3856     1FB8  3190  20B4  319F   	fcall	___xxtofl
  3857     1FBB  0873               	movf	?___xxtofl+3,w
  3858     1FBC  0020               	movlb	0	; select bank0
  3859     1FBD  00B3               	movwf	___flsub@a+3
  3860     1FBE  0872               	movf	?___xxtofl+2,w
  3861     1FBF  00B2               	movwf	___flsub@a+2
  3862     1FC0  0871               	movf	?___xxtofl+1,w
  3863     1FC1  00B1               	movwf	___flsub@a+1
  3864     1FC2  0870               	movf	?___xxtofl,w
  3865     1FC3  00B0               	movwf	___flsub@a
  3866     1FC4  31A7  2794  319F   	fcall	___flsub
  3867     1FC7  0020               	movlb	0	; select bank0
  3868     1FC8  0833               	movf	?___flsub+3,w
  3869     1FC9  00BF               	movwf	___flmul@a+3
  3870     1FCA  0832               	movf	?___flsub+2,w
  3871     1FCB  00BE               	movwf	___flmul@a+2
  3872     1FCC  0831               	movf	?___flsub+1,w
  3873     1FCD  00BD               	movwf	___flmul@a+1
  3874     1FCE  0830               	movf	?___flsub,w
  3875     1FCF  00BC               	movwf	___flmul@a
  3876     1FD0  3041               	movlw	65
  3877     1FD1  00BB               	movwf	___flmul@b+3
  3878     1FD2  3020               	movlw	32
  3879     1FD3  00BA               	movwf	___flmul@b+2
  3880     1FD4  3000               	movlw	0
  3881     1FD5  00B9               	movwf	___flmul@b+1
  3882     1FD6  3000               	movlw	0
  3883     1FD7  00B8               	movwf	___flmul@b
  3884     1FD8  3195  25C5  319F   	fcall	___flmul
  3885     1FDB  0020               	movlb	0	; select bank0
  3886     1FDC  083B               	movf	?___flmul+3,w
  3887     1FDD  00D5               	movwf	___fltol@f1+3
  3888     1FDE  083A               	movf	?___flmul+2,w
  3889     1FDF  00D4               	movwf	___fltol@f1+2
  3890     1FE0  0839               	movf	?___flmul+1,w
  3891     1FE1  00D3               	movwf	___fltol@f1+1
  3892     1FE2  0838               	movf	?___flmul,w
  3893     1FE3  00D2               	movwf	___fltol@f1
  3894     1FE4  319C  241E  319F   	fcall	___fltol
  3895     1FE7  0020               	movlb	0	; select bank0
  3896     1FE8  0853               	movf	?___fltol+1,w
  3897     1FE9  00E1               	movwf	print_float@frac+1
  3898     1FEA  0852               	movf	?___fltol,w
  3899     1FEB  00E0               	movwf	print_float@frac
  3900     1FEC                     l3514:
  3901                           
  3902                           ;main.c: 96:     EUSART_Write_Integer(whole);
  3903     1FEC  0863               	movf	print_float@whole+1,w
  3904     1FED  00FC               	movwf	EUSART_Write_Integer@value_to_send+1
  3905     1FEE  0862               	movf	print_float@whole,w
  3906     1FEF  00FB               	movwf	EUSART_Write_Integer@value_to_send
  3907     1FF0  3180  2005  319F   	fcall	_EUSART_Write_Integer
  3908     1FF3                     l3516:
  3909                           
  3910                           ;main.c: 97:     EUSART_Write('.');
  3911     1FF3  302E               	movlw	46
  3912     1FF4  31A6  26D1  319F   	fcall	_EUSART_Write
  3913     1FF7                     l3518:
  3914                           
  3915                           ;main.c: 98:     EUSART_Write_Integer(frac);
  3916     1FF7  0020               	movlb	0	; select bank0
  3917     1FF8  0861               	movf	print_float@frac+1,w
  3918     1FF9  00FC               	movwf	EUSART_Write_Integer@value_to_send+1
  3919     1FFA  0860               	movf	print_float@frac,w
  3920     1FFB  00FB               	movwf	EUSART_Write_Integer@value_to_send
  3921     1FFC  3180  2005  319F   	fcall	_EUSART_Write_Integer
  3922     1FFF                     l189:
  3923     1FFF  0008               	return
  3924     2000                     __end_of_print_float:
  3925                           
  3926                           	psect	text4
  3927     1C1E                     __ptext4:	
  3928 ;; *************** function ___fltol *****************
  3929 ;; Defined at:
  3930 ;;		line 43 in file "C:\Program Files\Microchip\xc8\v2.46\pic\sources\c99\common\fltol.c"
  3931 ;; Parameters:    Size  Location     Type
  3932 ;;  f1              4   50[BANK0 ] void 
  3933 ;; Auto vars:     Size  Location     Type
  3934 ;;  exp1            1   59[BANK0 ] unsigned char 
  3935 ;;  sign1           1   58[BANK0 ] unsigned char 
  3936 ;; Return value:  Size  Location     Type
  3937 ;;                  4   50[BANK0 ] long 
  3938 ;; Registers used:
  3939 ;;		wreg, status,2, status,0
  3940 ;; Tracked objects:
  3941 ;;		On entry : 0/0
  3942 ;;		On exit  : 0/0
  3943 ;;		Unchanged: 0/0
  3944 ;; Data sizes:     COMMON   BANK0   BANK1   BANK2   BANK3   BANK4   BANK5   BANK6   BANK7   BANK8   BANK9  BANK10  BANK1
      +1  BANK12  BANK13  BANK14  BANK15  BANK16  BANK17  BANK18  BANK19  BANK20  BANK21  BANK22  BANK23  BANK24  BANK25
  3945 ;;      Params:         0       4       0       0       0       0       0       0       0       0       0       0       
      +0       0       0       0       0       0       0       0       0       0       0       0       0       0       0
  3946 ;;      Locals:         0       2       0       0       0       0       0       0       0       0       0       0       
      +0       0       0       0       0       0       0       0       0       0       0       0       0       0       0
  3947 ;;      Temps:          0       4       0       0       0       0       0       0       0       0       0       0       
      +0       0       0       0       0       0       0       0       0       0       0       0       0       0       0
  3948 ;;      Totals:         0      10       0       0       0       0       0       0       0       0       0       0       
      +0       0       0       0       0       0       0       0       0       0       0       0       0       0       0
  3949 ;;Total ram usage:       10 bytes
  3950 ;; Hardware stack levels used: 1
  3951 ;; This function calls:
  3952 ;;		Nothing
  3953 ;; This function is called by:
  3954 ;;		_print_float
  3955 ;; This function uses a non-reentrant model
  3956 ;;
  3957                           
  3958     1C1E                     ___fltol:	
  3959                           ;psect for function ___fltol
  3960                           
  3961     1C1E                     l3172:	
  3962                           ;incstack = 0
  3963                           ; Regs used in ___fltol: [wreg+status,2+status,0]
  3964                           
  3965     1C1E  1003               	clrc
  3966     1C1F  0020               	movlb	0	; select bank0
  3967     1C20  0D54               	rlf	___fltol@f1+2,w
  3968     1C21  0D55               	rlf	___fltol@f1+3,w
  3969     1C22  00DB               	movwf	___fltol@exp1
  3970     1C23  085B               	movf	___fltol@exp1,w
  3971     1C24  1D03               	btfss	3,2
  3972     1C25  2C27               	goto	u4471
  3973     1C26  2C28               	goto	u4470
  3974     1C27                     u4471:
  3975     1C27  2C31               	goto	l3178
  3976     1C28                     u4470:
  3977     1C28                     l3174:
  3978     1C28  3000               	movlw	0
  3979     1C29  00D5               	movwf	?___fltol+3
  3980     1C2A  3000               	movlw	0
  3981     1C2B  00D4               	movwf	?___fltol+2
  3982     1C2C  3000               	movlw	0
  3983     1C2D  00D3               	movwf	?___fltol+1
  3984     1C2E  3000               	movlw	0
  3985     1C2F  00D2               	movwf	?___fltol
  3986     1C30  2C8E               	goto	l510
  3987     1C31                     l3178:
  3988     1C31  0852               	movf	___fltol@f1,w
  3989     1C32  00D6               	movwf	??___fltol
  3990     1C33  0853               	movf	___fltol@f1+1,w
  3991     1C34  00D7               	movwf	??___fltol+1
  3992     1C35  0854               	movf	___fltol@f1+2,w
  3993     1C36  00D8               	movwf	??___fltol+2
  3994     1C37  0855               	movf	___fltol@f1+3,w
  3995     1C38  00D9               	movwf	??___fltol+3
  3996     1C39  301F               	movlw	31
  3997     1C3A                     u4485:
  3998     1C3A  36D9               	lsrf	??___fltol+3,f
  3999     1C3B  0CD8               	rrf	??___fltol+2,f
  4000     1C3C  0CD7               	rrf	??___fltol+1,f
  4001     1C3D  0CD6               	rrf	??___fltol,f
  4002     1C3E                     u4480:
  4003     1C3E  0B89               	decfsz	9,f
  4004     1C3F  2C3A               	goto	u4485
  4005     1C40  0856               	movf	??___fltol,w
  4006     1C41  00DA               	movwf	___fltol@sign1
  4007     1C42                     l3180:
  4008     1C42  17D4               	bsf	___fltol@f1+2,7
  4009     1C43                     l3182:
  4010     1C43  30FF               	movlw	255
  4011     1C44  05D2               	andwf	___fltol@f1,f
  4012     1C45  30FF               	movlw	255
  4013     1C46  05D3               	andwf	___fltol@f1+1,f
  4014     1C47  30FF               	movlw	255
  4015     1C48  05D4               	andwf	___fltol@f1+2,f
  4016     1C49  3000               	movlw	0
  4017     1C4A  05D5               	andwf	___fltol@f1+3,f
  4018     1C4B                     l3184:
  4019     1C4B  3096               	movlw	150
  4020     1C4C  02DB               	subwf	___fltol@exp1,f
  4021     1C4D                     l3186:
  4022     1C4D  1FDB               	btfss	___fltol@exp1,7
  4023     1C4E  2C50               	goto	u4491
  4024     1C4F  2C51               	goto	u4490
  4025     1C50                     u4491:
  4026     1C50  2C69               	goto	l3196
  4027     1C51                     u4490:
  4028     1C51                     l3188:
  4029     1C51  085B               	movf	___fltol@exp1,w
  4030     1C52  3A80               	xorlw	128
  4031     1C53  3E97               	addlw	151
  4032     1C54  1803               	skipnc
  4033     1C55  2C57               	goto	u4501
  4034     1C56  2C58               	goto	u4500
  4035     1C57                     u4501:
  4036     1C57  2C59               	goto	l3194
  4037     1C58                     u4500:
  4038     1C58  2C28               	goto	l3174
  4039     1C59                     l3194:
  4040     1C59  3001               	movlw	1
  4041     1C5A                     u4515:
  4042     1C5A  36D5               	lsrf	___fltol@f1+3,f
  4043     1C5B  0CD4               	rrf	___fltol@f1+2,f
  4044     1C5C  0CD3               	rrf	___fltol@f1+1,f
  4045     1C5D  0CD2               	rrf	___fltol@f1,f
  4046     1C5E  0B89               	decfsz	9,f
  4047     1C5F  2C5A               	goto	u4515
  4048     1C60  3001               	movlw	1
  4049     1C61  00D6               	movwf	??___fltol
  4050     1C62  0856               	movf	??___fltol,w
  4051     1C63  07DB               	addwf	___fltol@exp1,f
  4052     1C64  1D03               	btfss	3,2
  4053     1C65  2C67               	goto	u4521
  4054     1C66  2C68               	goto	u4520
  4055     1C67                     u4521:
  4056     1C67  2C59               	goto	l3194
  4057     1C68                     u4520:
  4058     1C68  2C7E               	goto	l3204
  4059     1C69                     l3196:
  4060     1C69  3020               	movlw	32
  4061     1C6A  025B               	subwf	___fltol@exp1,w
  4062     1C6B  1C03               	skipc
  4063     1C6C  2C6E               	goto	u4531
  4064     1C6D  2C6F               	goto	u4530
  4065     1C6E                     u4531:
  4066     1C6E  2C79               	goto	l517
  4067     1C6F                     u4530:
  4068     1C6F  2C28               	goto	l3174
  4069     1C70                     l3202:
  4070     1C70  3001               	movlw	1
  4071     1C71                     u4545:
  4072     1C71  35D2               	lslf	___fltol@f1,f
  4073     1C72  0DD3               	rlf	___fltol@f1+1,f
  4074     1C73  0DD4               	rlf	___fltol@f1+2,f
  4075     1C74  0DD5               	rlf	___fltol@f1+3,f
  4076     1C75  0B89               	decfsz	9,f
  4077     1C76  2C71               	goto	u4545
  4078     1C77  3001               	movlw	1
  4079     1C78  02DB               	subwf	___fltol@exp1,f
  4080     1C79                     l517:
  4081     1C79  085B               	movf	___fltol@exp1,w
  4082     1C7A  1D03               	btfss	3,2
  4083     1C7B  2C7D               	goto	u4551
  4084     1C7C  2C7E               	goto	u4550
  4085     1C7D                     u4551:
  4086     1C7D  2C70               	goto	l3202
  4087     1C7E                     u4550:
  4088     1C7E                     l3204:
  4089     1C7E  085A               	movf	___fltol@sign1,w
  4090     1C7F  1903               	btfsc	3,2
  4091     1C80  2C82               	goto	u4561
  4092     1C81  2C83               	goto	u4560
  4093     1C82                     u4561:
  4094     1C82  2C8E               	goto	l520
  4095     1C83                     u4560:
  4096     1C83                     l3206:
  4097     1C83  09D2               	comf	___fltol@f1,f
  4098     1C84  09D3               	comf	___fltol@f1+1,f
  4099     1C85  09D4               	comf	___fltol@f1+2,f
  4100     1C86  09D5               	comf	___fltol@f1+3,f
  4101     1C87  0AD2               	incf	___fltol@f1,f
  4102     1C88  1903               	skipnz
  4103     1C89  0AD3               	incf	___fltol@f1+1,f
  4104     1C8A  1903               	skipnz
  4105     1C8B  0AD4               	incf	___fltol@f1+2,f
  4106     1C8C  1903               	skipnz
  4107     1C8D  0AD5               	incf	___fltol@f1+3,f
  4108     1C8E                     l520:
  4109     1C8E                     l510:
  4110     1C8E  0008               	return
  4111     1C8F                     __end_of___fltol:
  4112                           
  4113                           	psect	text5
  4114     0005                     __ptext5:	
  4115 ;; *************** function _EUSART_Write_Integer *****************
  4116 ;; Defined at:
  4117 ;;		line 185 in file "EUSART.c"
  4118 ;; Parameters:    Size  Location     Type
  4119 ;;  value_to_sen    2   11[COMMON] int 
  4120 ;; Auto vars:     Size  Location     Type
  4121 ;;  buffer         20    7[BANK0 ] unsigned char [20]
  4122 ;;  temp_ptr        1   28[BANK0 ] PTR unsigned char 
  4123 ;;		 -> EUSART_Write_Integer@buffer(20), 
  4124 ;;  ptr             1   27[BANK0 ] PTR unsigned char 
  4125 ;;		 -> EUSART_Write_Integer@buffer(20), 
  4126 ;; Return value:  Size  Location     Type
  4127 ;;                  1    wreg      void 
  4128 ;; Registers used:
  4129 ;;		wreg, fsr0l, fsr0h, fsr1l, fsr1h, status,2, status,0, pclath, cstack
  4130 ;; Tracked objects:
  4131 ;;		On entry : 0/0
  4132 ;;		On exit  : 0/0
  4133 ;;		Unchanged: 0/0
  4134 ;; Data sizes:     COMMON   BANK0   BANK1   BANK2   BANK3   BANK4   BANK5   BANK6   BANK7   BANK8   BANK9  BANK10  BANK1
      +1  BANK12  BANK13  BANK14  BANK15  BANK16  BANK17  BANK18  BANK19  BANK20  BANK21  BANK22  BANK23  BANK24  BANK25
  4135 ;;      Params:         2       0       0       0       0       0       0       0       0       0       0       0       
      +0       0       0       0       0       0       0       0       0       0       0       0       0       0       0
  4136 ;;      Locals:         0      22       0       0       0       0       0       0       0       0       0       0       
      +0       0       0       0       0       0       0       0       0       0       0       0       0       0       0
  4137 ;;      Temps:          1       0       0       0       0       0       0       0       0       0       0       0       
      +0       0       0       0       0       0       0       0       0       0       0       0       0       0       0
  4138 ;;      Totals:         3      22       0       0       0       0       0       0       0       0       0       0       
      +0       0       0       0       0       0       0       0       0       0       0       0       0       0       0
  4139 ;;Total ram usage:       25 bytes
  4140 ;; Hardware stack levels used: 1
  4141 ;; Hardware stack levels required when called: 2
  4142 ;; This function calls:
  4143 ;;		_EUSART_Write
  4144 ;;		_itoa
  4145 ;; This function is called by:
  4146 ;;		_print_float
  4147 ;;		_run_demo
  4148 ;; This function uses a non-reentrant model
  4149 ;;
  4150                           
  4151     0005                     _EUSART_Write_Integer:	
  4152                           ;psect for function _EUSART_Write_Integer
  4153                           
  4154     0005                     l3088:	
  4155                           ;incstack = 0
  4156                           ; Regs used in _EUSART_Write_Integer: [wreg-fsr1h+status,2+status,0+pclath+cstack]
  4157                           
  4158                           
  4159                           ;EUSART.c: 185: void EUSART_Write_Integer(int value_to_send);EUSART.c: 186: {;EUSART.c: 
      +                          187:     char buffer[20];;EUSART.c: 188:     char *ptr = buffer;
  4160     0005  3027               	movlw	(low (EUSART_Write_Integer@buffer| 0))& (0+255)
  4161     0006  0020               	movlb	0	; select bank0
  4162     0007  00BB               	movwf	EUSART_Write_Integer@ptr
  4163     0008                     l3090:
  4164                           
  4165                           ;EUSART.c: 190:     itoa(&ptr, value_to_send);
  4166     0008  087C               	movf	EUSART_Write_Integer@value_to_send+1,w
  4167     0009  00FA               	movwf	itoa@d+1
  4168     000A  087B               	movf	EUSART_Write_Integer@value_to_send,w
  4169     000B  00F9               	movwf	itoa@d
  4170     000C  303B               	movlw	(low (EUSART_Write_Integer@ptr| 0))& (0+255)
  4171     000D  319E  2630  3180   	fcall	_itoa
  4172     0010                     l3092:
  4173                           
  4174                           ;EUSART.c: 193:     char *temp_ptr = buffer;
  4175     0010  3027               	movlw	(low (EUSART_Write_Integer@buffer| 0))& (0+255)
  4176     0011  0020               	movlb	0	; select bank0
  4177     0012  00BC               	movwf	EUSART_Write_Integer@temp_ptr
  4178                           
  4179                           ;EUSART.c: 194:     while (*temp_ptr != '\0') {
  4180     0013  2820               	goto	l3098
  4181     0014                     l3094:
  4182                           
  4183                           ;EUSART.c: 195:         EUSART_Write(*temp_ptr++);
  4184     0014  083C               	movf	EUSART_Write_Integer@temp_ptr,w
  4185     0015  0086               	movwf	6
  4186     0016  0187               	clrf	7
  4187     0017  0801               	movf	1,w
  4188     0018  31A6  26D1  3180   	fcall	_EUSART_Write
  4189     001B                     l3096:
  4190     001B  3001               	movlw	1
  4191     001C  00FD               	movwf	??_EUSART_Write_Integer
  4192     001D  087D               	movf	??_EUSART_Write_Integer,w
  4193     001E  0020               	movlb	0	; select bank0
  4194     001F  07BC               	addwf	EUSART_Write_Integer@temp_ptr,f
  4195     0020                     l3098:
  4196                           
  4197                           ;EUSART.c: 194:     while (*temp_ptr != '\0') {
  4198     0020  083C               	movf	EUSART_Write_Integer@temp_ptr,w
  4199     0021  0086               	movwf	6
  4200     0022  0187               	clrf	7
  4201     0023  0801               	movf	1,w
  4202     0024  1D03               	btfss	3,2
  4203     0025  2827               	goto	u4311
  4204     0026  2828               	goto	u4310
  4205     0027                     u4311:
  4206     0027  2814               	goto	l3094
  4207     0028                     u4310:
  4208     0028                     l66:
  4209     0028  0008               	return
  4210     0029                     __end_of_EUSART_Write_Integer:
  4211                           
  4212                           	psect	text6
  4213     1E30                     __ptext6:	
  4214 ;; *************** function _itoa *****************
  4215 ;; Defined at:
  4216 ;;		line 149 in file "EUSART.c"
  4217 ;; Parameters:    Size  Location     Type
  4218 ;;  buf             1    wreg     PTR PTR unsigned char 
  4219 ;;		 -> EUSART_Write_Integer@ptr(1), 
  4220 ;;  d               2    9[COMMON] int 
  4221 ;; Auto vars:     Size  Location     Type
  4222 ;;  buf             1    4[BANK0 ] PTR PTR unsigned char 
  4223 ;;		 -> EUSART_Write_Integer@ptr(1), 
  4224 ;;  num             2    0[BANK0 ] int 
  4225 ;;  div             2    5[BANK0 ] int 
  4226 ;;  temp            2    2[BANK0 ] int 
  4227 ;; Return value:  Size  Location     Type
  4228 ;;                  1    wreg      void 
  4229 ;; Registers used:
  4230 ;;		wreg, fsr0l, fsr0h, fsr1l, fsr1h, status,2, status,0, pclath, cstack
  4231 ;; Tracked objects:
  4232 ;;		On entry : 0/0
  4233 ;;		On exit  : 0/0
  4234 ;;		Unchanged: 0/0
  4235 ;; Data sizes:     COMMON   BANK0   BANK1   BANK2   BANK3   BANK4   BANK5   BANK6   BANK7   BANK8   BANK9  BANK10  BANK1
      +1  BANK12  BANK13  BANK14  BANK15  BANK16  BANK17  BANK18  BANK19  BANK20  BANK21  BANK22  BANK23  BANK24  BANK25
  4236 ;;      Params:         2       0       0       0       0       0       0       0       0       0       0       0       
      +0       0       0       0       0       0       0       0       0       0       0       0       0       0       0
  4237 ;;      Locals:         0       7       0       0       0       0       0       0       0       0       0       0       
      +0       0       0       0       0       0       0       0       0       0       0       0       0       0       0
  4238 ;;      Temps:          0       0       0       0       0       0       0       0       0       0       0       0       
      +0       0       0       0       0       0       0       0       0       0       0       0       0       0       0
  4239 ;;      Totals:         2       7       0       0       0       0       0       0       0       0       0       0       
      +0       0       0       0       0       0       0       0       0       0       0       0       0       0       0
  4240 ;;Total ram usage:        9 bytes
  4241 ;; Hardware stack levels used: 1
  4242 ;; Hardware stack levels required when called: 1
  4243 ;; This function calls:
  4244 ;;		___awdiv
  4245 ;;		___awmod
  4246 ;;		___wmul
  4247 ;; This function is called by:
  4248 ;;		_EUSART_Write_Integer
  4249 ;; This function uses a non-reentrant model
  4250 ;;
  4251                           
  4252     1E30                     _itoa:	
  4253                           ;psect for function _itoa
  4254                           
  4255                           
  4256                           ;incstack = 0
  4257                           ; Regs used in _itoa: [wreg-fsr1h+status,2+status,0+pclath+cstack]
  4258                           ;itoa@buf stored from wreg
  4259     1E30  0020               	movlb	0	; select bank0
  4260     1E31  00A4               	movwf	itoa@buf
  4261     1E32                     l2736:
  4262                           
  4263                           ;EUSART.c: 149: void itoa(char **buf, int d);EUSART.c: 150: {;EUSART.c: 151:     int div
      +                           = 1;
  4264     1E32  3001               	movlw	1
  4265     1E33  00A5               	movwf	itoa@div
  4266     1E34  3000               	movlw	0
  4267     1E35  00A6               	movwf	itoa@div+1
  4268                           
  4269                           ;EUSART.c: 152:     if (d < 0)
  4270     1E36  1FFA               	btfss	itoa@d+1,7
  4271     1E37  2E39               	goto	u3591
  4272     1E38  2E3A               	goto	u3590
  4273     1E39                     u3591:
  4274     1E39  2E48               	goto	l2742
  4275     1E3A                     u3590:
  4276     1E3A                     l2738:
  4277                           
  4278                           ;EUSART.c: 153:     {;EUSART.c: 154:         *((*buf)++) = '-';
  4279     1E3A  0824               	movf	itoa@buf,w
  4280     1E3B  0086               	movwf	6
  4281     1E3C  0187               	clrf	7
  4282     1E3D  3F40               	moviw [0]fsr1
  4283     1E3E  0084               	movwf	4
  4284     1E3F  0185               	clrf	5
  4285     1E40  0A81               	incf	1,f
  4286     1E41  302D               	movlw	45
  4287     1E42  0080               	movwf	0
  4288     1E43                     l2740:
  4289                           
  4290                           ;EUSART.c: 155:         d = -d;
  4291     1E43  09F9               	comf	itoa@d,f
  4292     1E44  09FA               	comf	itoa@d+1,f
  4293     1E45  0AF9               	incf	itoa@d,f
  4294     1E46  1903               	skipnz
  4295     1E47  0AFA               	incf	itoa@d+1,f
  4296     1E48                     l2742:
  4297                           
  4298                           ;EUSART.c: 158:     int temp = d;
  4299     1E48  087A               	movf	itoa@d+1,w
  4300     1E49  00A3               	movwf	itoa@temp+1
  4301     1E4A  0879               	movf	itoa@d,w
  4302     1E4B  00A2               	movwf	itoa@temp
  4303                           
  4304                           ;EUSART.c: 159:     while (temp / 10)
  4305     1E4C  2E6E               	goto	l54
  4306     1E4D                     l2744:
  4307                           
  4308                           ;EUSART.c: 160:     {;EUSART.c: 161:         temp /= 10;
  4309     1E4D  300A               	movlw	10
  4310     1E4E  00F0               	movwf	___awdiv@divisor
  4311     1E4F  3000               	movlw	0
  4312     1E50  00F1               	movwf	___awdiv@divisor+1
  4313     1E51  0020               	movlb	0	; select bank0
  4314     1E52  0823               	movf	itoa@temp+1,w
  4315     1E53  00F3               	movwf	___awdiv@dividend+1
  4316     1E54  0822               	movf	itoa@temp,w
  4317     1E55  00F2               	movwf	___awdiv@dividend
  4318     1E56  319B  23BF  319E   	fcall	___awdiv
  4319     1E59  0871               	movf	?___awdiv+1,w
  4320     1E5A  0020               	movlb	0	; select bank0
  4321     1E5B  00A3               	movwf	itoa@temp+1
  4322     1E5C  0870               	movf	?___awdiv,w
  4323     1E5D  00A2               	movwf	itoa@temp
  4324                           
  4325                           ;EUSART.c: 162:         div *= 10;
  4326     1E5E  300A               	movlw	10
  4327     1E5F  00F0               	movwf	___wmul@multiplier
  4328     1E60  3000               	movlw	0
  4329     1E61  00F1               	movwf	___wmul@multiplier+1
  4330     1E62  0826               	movf	itoa@div+1,w
  4331     1E63  00F3               	movwf	___wmul@multiplicand+1
  4332     1E64  0825               	movf	itoa@div,w
  4333     1E65  00F2               	movwf	___wmul@multiplicand
  4334     1E66  31A7  2775  319E   	fcall	___wmul
  4335     1E69  0871               	movf	?___wmul+1,w
  4336     1E6A  0020               	movlb	0	; select bank0
  4337     1E6B  00A6               	movwf	itoa@div+1
  4338     1E6C  0870               	movf	?___wmul,w
  4339     1E6D  00A5               	movwf	itoa@div
  4340     1E6E                     l54:	
  4341                           ;EUSART.c: 163:     }
  4342                           
  4343                           
  4344                           ;EUSART.c: 159:     while (temp / 10)
  4345     1E6E  300A               	movlw	10
  4346     1E6F  00F0               	movwf	___awdiv@divisor
  4347     1E70  3000               	movlw	0
  4348     1E71  00F1               	movwf	___awdiv@divisor+1
  4349     1E72  0823               	movf	itoa@temp+1,w
  4350     1E73  00F3               	movwf	___awdiv@dividend+1
  4351     1E74  0822               	movf	itoa@temp,w
  4352     1E75  00F2               	movwf	___awdiv@dividend
  4353     1E76  319B  23BF  319E   	fcall	___awdiv
  4354     1E79  0870               	movf	?___awdiv,w
  4355     1E7A  0471               	iorwf	?___awdiv+1,w
  4356     1E7B  1D03               	btfss	3,2
  4357     1E7C  2E7E               	goto	u3601
  4358     1E7D  2E7F               	goto	u3600
  4359     1E7E                     u3601:
  4360     1E7E  2E4D               	goto	l2744
  4361     1E7F                     u3600:
  4362     1E7F  2EBA               	goto	l2750
  4363     1E80                     l2746:
  4364                           
  4365                           ;EUSART.c: 166:     {;EUSART.c: 167:         int num = d / div;
  4366     1E80  0826               	movf	itoa@div+1,w
  4367     1E81  00F1               	movwf	___awdiv@divisor+1
  4368     1E82  0825               	movf	itoa@div,w
  4369     1E83  00F0               	movwf	___awdiv@divisor
  4370     1E84  087A               	movf	itoa@d+1,w
  4371     1E85  00F3               	movwf	___awdiv@dividend+1
  4372     1E86  0879               	movf	itoa@d,w
  4373     1E87  00F2               	movwf	___awdiv@dividend
  4374     1E88  319B  23BF  319E   	fcall	___awdiv
  4375     1E8B  0871               	movf	?___awdiv+1,w
  4376     1E8C  0020               	movlb	0	; select bank0
  4377     1E8D  00A1               	movwf	itoa@num+1
  4378     1E8E  0870               	movf	?___awdiv,w
  4379     1E8F  00A0               	movwf	itoa@num
  4380                           
  4381                           ;EUSART.c: 168:         d %= div;
  4382     1E90  0826               	movf	itoa@div+1,w
  4383     1E91  00F1               	movwf	___awmod@divisor+1
  4384     1E92  0825               	movf	itoa@div,w
  4385     1E93  00F0               	movwf	___awmod@divisor
  4386     1E94  087A               	movf	itoa@d+1,w
  4387     1E95  00F3               	movwf	___awmod@dividend+1
  4388     1E96  0879               	movf	itoa@d,w
  4389     1E97  00F2               	movwf	___awmod@dividend
  4390     1E98  319B  236C  319E   	fcall	___awmod
  4391     1E9B  0871               	movf	?___awmod+1,w
  4392     1E9C  00FA               	movwf	itoa@d+1
  4393     1E9D  0870               	movf	?___awmod,w
  4394     1E9E  00F9               	movwf	itoa@d
  4395                           
  4396                           ;EUSART.c: 169:         div /= 10;
  4397     1E9F  300A               	movlw	10
  4398     1EA0  00F0               	movwf	___awdiv@divisor
  4399     1EA1  3000               	movlw	0
  4400     1EA2  00F1               	movwf	___awdiv@divisor+1
  4401     1EA3  0020               	movlb	0	; select bank0
  4402     1EA4  0826               	movf	itoa@div+1,w
  4403     1EA5  00F3               	movwf	___awdiv@dividend+1
  4404     1EA6  0825               	movf	itoa@div,w
  4405     1EA7  00F2               	movwf	___awdiv@dividend
  4406     1EA8  319B  23BF  319E   	fcall	___awdiv
  4407     1EAB  0871               	movf	?___awdiv+1,w
  4408     1EAC  0020               	movlb	0	; select bank0
  4409     1EAD  00A6               	movwf	itoa@div+1
  4410     1EAE  0870               	movf	?___awdiv,w
  4411     1EAF  00A5               	movwf	itoa@div
  4412     1EB0                     l2748:
  4413                           
  4414                           ;EUSART.c: 170:         *((*buf)++) = num + '0';
  4415     1EB0  0824               	movf	itoa@buf,w
  4416     1EB1  0086               	movwf	6
  4417     1EB2  0187               	clrf	7
  4418     1EB3  3F40               	moviw [0]fsr1
  4419     1EB4  0084               	movwf	4
  4420     1EB5  0185               	clrf	5
  4421     1EB6  0A81               	incf	1,f
  4422     1EB7  0820               	movf	itoa@num,w
  4423     1EB8  3E30               	addlw	48
  4424     1EB9  0080               	movwf	0
  4425     1EBA                     l2750:
  4426                           
  4427                           ;EUSART.c: 165:     while (div != 0)
  4428     1EBA  0020               	movlb	0	; select bank0
  4429     1EBB  0825               	movf	itoa@div,w
  4430     1EBC  0426               	iorwf	itoa@div+1,w
  4431     1EBD  1D03               	btfss	3,2
  4432     1EBE  2EC0               	goto	u3611
  4433     1EBF  2EC1               	goto	u3610
  4434     1EC0                     u3611:
  4435     1EC0  2E80               	goto	l2746
  4436     1EC1                     u3610:
  4437     1EC1                     l2752:
  4438                           
  4439                           ;EUSART.c: 172:     *(*buf) = '\0';
  4440     1EC1  0824               	movf	itoa@buf,w
  4441     1EC2  0086               	movwf	6
  4442     1EC3  0187               	clrf	7
  4443     1EC4  0801               	movf	1,w
  4444     1EC5  0086               	movwf	6
  4445     1EC6  0187               	clrf	7
  4446     1EC7  0181               	clrf	1
  4447     1EC8                     l60:
  4448     1EC8  0008               	return
  4449     1EC9                     __end_of_itoa:
  4450                           
  4451                           	psect	text7
  4452     1B6C                     __ptext7:	
  4453 ;; *************** function ___awmod *****************
  4454 ;; Defined at:
  4455 ;;		line 5 in file "C:\Program Files\Microchip\xc8\v2.46\pic\sources\c99\common\awmod.c"
  4456 ;; Parameters:    Size  Location     Type
  4457 ;;  divisor         2    0[COMMON] int 
  4458 ;;  dividend        2    2[COMMON] int 
  4459 ;; Auto vars:     Size  Location     Type
  4460 ;;  sign            1    6[COMMON] unsigned char 
  4461 ;;  counter         1    5[COMMON] unsigned char 
  4462 ;; Return value:  Size  Location     Type
  4463 ;;                  2    0[COMMON] int 
  4464 ;; Registers used:
  4465 ;;		wreg, status,2, status,0
  4466 ;; Tracked objects:
  4467 ;;		On entry : 0/0
  4468 ;;		On exit  : 0/0
  4469 ;;		Unchanged: 0/0
  4470 ;; Data sizes:     COMMON   BANK0   BANK1   BANK2   BANK3   BANK4   BANK5   BANK6   BANK7   BANK8   BANK9  BANK10  BANK1
      +1  BANK12  BANK13  BANK14  BANK15  BANK16  BANK17  BANK18  BANK19  BANK20  BANK21  BANK22  BANK23  BANK24  BANK25
  4471 ;;      Params:         4       0       0       0       0       0       0       0       0       0       0       0       
      +0       0       0       0       0       0       0       0       0       0       0       0       0       0       0
  4472 ;;      Locals:         2       0       0       0       0       0       0       0       0       0       0       0       
      +0       0       0       0       0       0       0       0       0       0       0       0       0       0       0
  4473 ;;      Temps:          1       0       0       0       0       0       0       0       0       0       0       0       
      +0       0       0       0       0       0       0       0       0       0       0       0       0       0       0
  4474 ;;      Totals:         7       0       0       0       0       0       0       0       0       0       0       0       
      +0       0       0       0       0       0       0       0       0       0       0       0       0       0       0
  4475 ;;Total ram usage:        7 bytes
  4476 ;; Hardware stack levels used: 1
  4477 ;; This function calls:
  4478 ;;		Nothing
  4479 ;; This function is called by:
  4480 ;;		_itoa
  4481 ;; This function uses a non-reentrant model
  4482 ;;
  4483                           
  4484     1B6C                     ___awmod:	
  4485                           ;psect for function ___awmod
  4486                           
  4487     1B6C                     l2680:	
  4488                           ;incstack = 0
  4489                           ; Regs used in ___awmod: [wreg+status,2+status,0]
  4490                           
  4491     1B6C  01F6               	clrf	___awmod@sign
  4492     1B6D                     l2682:
  4493     1B6D  1FF3               	btfss	___awmod@dividend+1,7
  4494     1B6E  2B70               	goto	u3461
  4495     1B6F  2B71               	goto	u3460
  4496     1B70                     u3461:
  4497     1B70  2B78               	goto	l2688
  4498     1B71                     u3460:
  4499     1B71                     l2684:
  4500     1B71  09F2               	comf	___awmod@dividend,f
  4501     1B72  09F3               	comf	___awmod@dividend+1,f
  4502     1B73  0AF2               	incf	___awmod@dividend,f
  4503     1B74  1903               	skipnz
  4504     1B75  0AF3               	incf	___awmod@dividend+1,f
  4505     1B76                     l2686:
  4506     1B76  01F6               	clrf	___awmod@sign
  4507     1B77  0AF6               	incf	___awmod@sign,f
  4508     1B78                     l2688:
  4509     1B78  1FF1               	btfss	___awmod@divisor+1,7
  4510     1B79  2B7B               	goto	u3471
  4511     1B7A  2B7C               	goto	u3470
  4512     1B7B                     u3471:
  4513     1B7B  2B81               	goto	l2692
  4514     1B7C                     u3470:
  4515     1B7C                     l2690:
  4516     1B7C  09F0               	comf	___awmod@divisor,f
  4517     1B7D  09F1               	comf	___awmod@divisor+1,f
  4518     1B7E  0AF0               	incf	___awmod@divisor,f
  4519     1B7F  1903               	skipnz
  4520     1B80  0AF1               	incf	___awmod@divisor+1,f
  4521     1B81                     l2692:
  4522     1B81  0870               	movf	___awmod@divisor,w
  4523     1B82  0471               	iorwf	___awmod@divisor+1,w
  4524     1B83  1903               	btfsc	3,2
  4525     1B84  2B86               	goto	u3481
  4526     1B85  2B87               	goto	u3480
  4527     1B86                     u3481:
  4528     1B86  2BB0               	goto	l2710
  4529     1B87                     u3480:
  4530     1B87                     l2694:
  4531     1B87  01F5               	clrf	___awmod@counter
  4532     1B88  0AF5               	incf	___awmod@counter,f
  4533     1B89  2B93               	goto	l2700
  4534     1B8A                     l2696:
  4535     1B8A  3001               	movlw	1
  4536     1B8B                     u3495:
  4537     1B8B  35F0               	lslf	___awmod@divisor,f
  4538     1B8C  0DF1               	rlf	___awmod@divisor+1,f
  4539     1B8D  0B89               	decfsz	9,f
  4540     1B8E  2B8B               	goto	u3495
  4541     1B8F                     l2698:
  4542     1B8F  3001               	movlw	1
  4543     1B90  00F4               	movwf	??___awmod
  4544     1B91  0874               	movf	??___awmod,w
  4545     1B92  07F5               	addwf	___awmod@counter,f
  4546     1B93                     l2700:
  4547     1B93  1FF1               	btfss	___awmod@divisor+1,7
  4548     1B94  2B96               	goto	u3501
  4549     1B95  2B97               	goto	u3500
  4550     1B96                     u3501:
  4551     1B96  2B8A               	goto	l2696
  4552     1B97                     u3500:
  4553     1B97                     l2702:
  4554     1B97  0871               	movf	___awmod@divisor+1,w
  4555     1B98  0273               	subwf	___awmod@dividend+1,w
  4556     1B99  1D03               	skipz
  4557     1B9A  2B9D               	goto	u3515
  4558     1B9B  0870               	movf	___awmod@divisor,w
  4559     1B9C  0272               	subwf	___awmod@dividend,w
  4560     1B9D                     u3515:
  4561     1B9D  1C03               	skipc
  4562     1B9E  2BA0               	goto	u3511
  4563     1B9F  2BA1               	goto	u3510
  4564     1BA0                     u3511:
  4565     1BA0  2BA5               	goto	l2706
  4566     1BA1                     u3510:
  4567     1BA1                     l2704:
  4568     1BA1  0870               	movf	___awmod@divisor,w
  4569     1BA2  02F2               	subwf	___awmod@dividend,f
  4570     1BA3  0871               	movf	___awmod@divisor+1,w
  4571     1BA4  3BF3               	subwfb	___awmod@dividend+1,f
  4572     1BA5                     l2706:
  4573     1BA5  3001               	movlw	1
  4574     1BA6                     u3525:
  4575     1BA6  36F1               	lsrf	___awmod@divisor+1,f
  4576     1BA7  0CF0               	rrf	___awmod@divisor,f
  4577     1BA8  0B89               	decfsz	9,f
  4578     1BA9  2BA6               	goto	u3525
  4579     1BAA                     l2708:
  4580     1BAA  3001               	movlw	1
  4581     1BAB  02F5               	subwf	___awmod@counter,f
  4582     1BAC  1D03               	btfss	3,2
  4583     1BAD  2BAF               	goto	u3531
  4584     1BAE  2BB0               	goto	u3530
  4585     1BAF                     u3531:
  4586     1BAF  2B97               	goto	l2702
  4587     1BB0                     u3530:
  4588     1BB0                     l2710:
  4589     1BB0  0876               	movf	___awmod@sign,w
  4590     1BB1  1903               	btfsc	3,2
  4591     1BB2  2BB4               	goto	u3541
  4592     1BB3  2BB5               	goto	u3540
  4593     1BB4                     u3541:
  4594     1BB4  2BBA               	goto	l2714
  4595     1BB5                     u3540:
  4596     1BB5                     l2712:
  4597     1BB5  09F2               	comf	___awmod@dividend,f
  4598     1BB6  09F3               	comf	___awmod@dividend+1,f
  4599     1BB7  0AF2               	incf	___awmod@dividend,f
  4600     1BB8  1903               	skipnz
  4601     1BB9  0AF3               	incf	___awmod@dividend+1,f
  4602     1BBA                     l2714:
  4603     1BBA  0873               	movf	___awmod@dividend+1,w
  4604     1BBB  00F1               	movwf	?___awmod+1
  4605     1BBC  0872               	movf	___awmod@dividend,w
  4606     1BBD  00F0               	movwf	?___awmod
  4607     1BBE                     l482:
  4608     1BBE  0008               	return
  4609     1BBF                     __end_of___awmod:
  4610                           
  4611                           	psect	text8
  4612     1BBF                     __ptext8:	
  4613 ;; *************** function ___awdiv *****************
  4614 ;; Defined at:
  4615 ;;		line 5 in file "C:\Program Files\Microchip\xc8\v2.46\pic\sources\c99\common\awdiv.c"
  4616 ;; Parameters:    Size  Location     Type
  4617 ;;  divisor         2    0[COMMON] int 
  4618 ;;  dividend        2    2[COMMON] int 
  4619 ;; Auto vars:     Size  Location     Type
  4620 ;;  quotient        2    7[COMMON] int 
  4621 ;;  sign            1    6[COMMON] unsigned char 
  4622 ;;  counter         1    5[COMMON] unsigned char 
  4623 ;; Return value:  Size  Location     Type
  4624 ;;                  2    0[COMMON] int 
  4625 ;; Registers used:
  4626 ;;		wreg, status,2, status,0
  4627 ;; Tracked objects:
  4628 ;;		On entry : 0/0
  4629 ;;		On exit  : 0/0
  4630 ;;		Unchanged: 0/0
  4631 ;; Data sizes:     COMMON   BANK0   BANK1   BANK2   BANK3   BANK4   BANK5   BANK6   BANK7   BANK8   BANK9  BANK10  BANK1
      +1  BANK12  BANK13  BANK14  BANK15  BANK16  BANK17  BANK18  BANK19  BANK20  BANK21  BANK22  BANK23  BANK24  BANK25
  4632 ;;      Params:         4       0       0       0       0       0       0       0       0       0       0       0       
      +0       0       0       0       0       0       0       0       0       0       0       0       0       0       0
  4633 ;;      Locals:         4       0       0       0       0       0       0       0       0       0       0       0       
      +0       0       0       0       0       0       0       0       0       0       0       0       0       0       0
  4634 ;;      Temps:          1       0       0       0       0       0       0       0       0       0       0       0       
      +0       0       0       0       0       0       0       0       0       0       0       0       0       0       0
  4635 ;;      Totals:         9       0       0       0       0       0       0       0       0       0       0       0       
      +0       0       0       0       0       0       0       0       0       0       0       0       0       0       0
  4636 ;;Total ram usage:        9 bytes
  4637 ;; Hardware stack levels used: 1
  4638 ;; This function calls:
  4639 ;;		Nothing
  4640 ;; This function is called by:
  4641 ;;		_itoa
  4642 ;; This function uses a non-reentrant model
  4643 ;;
  4644                           
  4645     1BBF                     ___awdiv:	
  4646                           ;psect for function ___awdiv
  4647                           
  4648     1BBF                     l2636:	
  4649                           ;incstack = 0
  4650                           ; Regs used in ___awdiv: [wreg+status,2+status,0]
  4651                           
  4652     1BBF  01F6               	clrf	___awdiv@sign
  4653     1BC0                     l2638:
  4654     1BC0  1FF1               	btfss	___awdiv@divisor+1,7
  4655     1BC1  2BC3               	goto	u3361
  4656     1BC2  2BC4               	goto	u3360
  4657     1BC3                     u3361:
  4658     1BC3  2BCB               	goto	l2644
  4659     1BC4                     u3360:
  4660     1BC4                     l2640:
  4661     1BC4  09F0               	comf	___awdiv@divisor,f
  4662     1BC5  09F1               	comf	___awdiv@divisor+1,f
  4663     1BC6  0AF0               	incf	___awdiv@divisor,f
  4664     1BC7  1903               	skipnz
  4665     1BC8  0AF1               	incf	___awdiv@divisor+1,f
  4666     1BC9                     l2642:
  4667     1BC9  01F6               	clrf	___awdiv@sign
  4668     1BCA  0AF6               	incf	___awdiv@sign,f
  4669     1BCB                     l2644:
  4670     1BCB  1FF3               	btfss	___awdiv@dividend+1,7
  4671     1BCC  2BCE               	goto	u3371
  4672     1BCD  2BCF               	goto	u3370
  4673     1BCE                     u3371:
  4674     1BCE  2BD8               	goto	l2650
  4675     1BCF                     u3370:
  4676     1BCF                     l2646:
  4677     1BCF  09F2               	comf	___awdiv@dividend,f
  4678     1BD0  09F3               	comf	___awdiv@dividend+1,f
  4679     1BD1  0AF2               	incf	___awdiv@dividend,f
  4680     1BD2  1903               	skipnz
  4681     1BD3  0AF3               	incf	___awdiv@dividend+1,f
  4682     1BD4                     l2648:
  4683     1BD4  3001               	movlw	1
  4684     1BD5  00F4               	movwf	??___awdiv
  4685     1BD6  0874               	movf	??___awdiv,w
  4686     1BD7  06F6               	xorwf	___awdiv@sign,f
  4687     1BD8                     l2650:
  4688     1BD8  01F7               	clrf	___awdiv@quotient
  4689     1BD9  01F8               	clrf	___awdiv@quotient+1
  4690     1BDA                     l2652:
  4691     1BDA  0870               	movf	___awdiv@divisor,w
  4692     1BDB  0471               	iorwf	___awdiv@divisor+1,w
  4693     1BDC  1903               	btfsc	3,2
  4694     1BDD  2BDF               	goto	u3381
  4695     1BDE  2BE0               	goto	u3380
  4696     1BDF                     u3381:
  4697     1BDF  2C0F               	goto	l2672
  4698     1BE0                     u3380:
  4699     1BE0                     l2654:
  4700     1BE0  01F5               	clrf	___awdiv@counter
  4701     1BE1  0AF5               	incf	___awdiv@counter,f
  4702     1BE2  2BEC               	goto	l2660
  4703     1BE3                     l2656:
  4704     1BE3  3001               	movlw	1
  4705     1BE4                     u3395:
  4706     1BE4  35F0               	lslf	___awdiv@divisor,f
  4707     1BE5  0DF1               	rlf	___awdiv@divisor+1,f
  4708     1BE6  0B89               	decfsz	9,f
  4709     1BE7  2BE4               	goto	u3395
  4710     1BE8                     l2658:
  4711     1BE8  3001               	movlw	1
  4712     1BE9  00F4               	movwf	??___awdiv
  4713     1BEA  0874               	movf	??___awdiv,w
  4714     1BEB  07F5               	addwf	___awdiv@counter,f
  4715     1BEC                     l2660:
  4716     1BEC  1FF1               	btfss	___awdiv@divisor+1,7
  4717     1BED  2BEF               	goto	u3401
  4718     1BEE  2BF0               	goto	u3400
  4719     1BEF                     u3401:
  4720     1BEF  2BE3               	goto	l2656
  4721     1BF0                     u3400:
  4722     1BF0                     l2662:
  4723     1BF0  3001               	movlw	1
  4724     1BF1                     u3415:
  4725     1BF1  35F7               	lslf	___awdiv@quotient,f
  4726     1BF2  0DF8               	rlf	___awdiv@quotient+1,f
  4727     1BF3  0B89               	decfsz	9,f
  4728     1BF4  2BF1               	goto	u3415
  4729     1BF5  0871               	movf	___awdiv@divisor+1,w
  4730     1BF6  0273               	subwf	___awdiv@dividend+1,w
  4731     1BF7  1D03               	skipz
  4732     1BF8  2BFB               	goto	u3425
  4733     1BF9  0870               	movf	___awdiv@divisor,w
  4734     1BFA  0272               	subwf	___awdiv@dividend,w
  4735     1BFB                     u3425:
  4736     1BFB  1C03               	skipc
  4737     1BFC  2BFE               	goto	u3421
  4738     1BFD  2BFF               	goto	u3420
  4739     1BFE                     u3421:
  4740     1BFE  2C04               	goto	l2668
  4741     1BFF                     u3420:
  4742     1BFF                     l2664:
  4743     1BFF  0870               	movf	___awdiv@divisor,w
  4744     1C00  02F2               	subwf	___awdiv@dividend,f
  4745     1C01  0871               	movf	___awdiv@divisor+1,w
  4746     1C02  3BF3               	subwfb	___awdiv@dividend+1,f
  4747     1C03                     l2666:
  4748     1C03  1477               	bsf	___awdiv@quotient,0
  4749     1C04                     l2668:
  4750     1C04  3001               	movlw	1
  4751     1C05                     u3435:
  4752     1C05  36F1               	lsrf	___awdiv@divisor+1,f
  4753     1C06  0CF0               	rrf	___awdiv@divisor,f
  4754     1C07  0B89               	decfsz	9,f
  4755     1C08  2C05               	goto	u3435
  4756     1C09                     l2670:
  4757     1C09  3001               	movlw	1
  4758     1C0A  02F5               	subwf	___awdiv@counter,f
  4759     1C0B  1D03               	btfss	3,2
  4760     1C0C  2C0E               	goto	u3441
  4761     1C0D  2C0F               	goto	u3440
  4762     1C0E                     u3441:
  4763     1C0E  2BF0               	goto	l2662
  4764     1C0F                     u3440:
  4765     1C0F                     l2672:
  4766     1C0F  0876               	movf	___awdiv@sign,w
  4767     1C10  1903               	btfsc	3,2
  4768     1C11  2C13               	goto	u3451
  4769     1C12  2C14               	goto	u3450
  4770     1C13                     u3451:
  4771     1C13  2C19               	goto	l2676
  4772     1C14                     u3450:
  4773     1C14                     l2674:
  4774     1C14  09F7               	comf	___awdiv@quotient,f
  4775     1C15  09F8               	comf	___awdiv@quotient+1,f
  4776     1C16  0AF7               	incf	___awdiv@quotient,f
  4777     1C17  1903               	skipnz
  4778     1C18  0AF8               	incf	___awdiv@quotient+1,f
  4779     1C19                     l2676:
  4780     1C19  0878               	movf	___awdiv@quotient+1,w
  4781     1C1A  00F1               	movwf	?___awdiv+1
  4782     1C1B  0877               	movf	___awdiv@quotient,w
  4783     1C1C  00F0               	movwf	?___awdiv
  4784     1C1D                     l469:
  4785     1C1D  0008               	return
  4786     1C1E                     __end_of___awdiv:
  4787                           
  4788                           	psect	text9
  4789     08E2                     __ptext9:	
  4790 ;; *************** function _ml_predict *****************
  4791 ;; Defined at:
  4792 ;;		line 91 in file "./ml.h"
  4793 ;; Parameters:    Size  Location     Type
  4794 ;;  x               1    wreg     PTR const float 
  4795 ;;		 -> process_command@features(16), run_demo@test_samples(48), 
  4796 ;; Auto vars:     Size  Location     Type
  4797 ;;  x               1   79[BANK0 ] PTR const float 
  4798 ;;		 -> process_command@features(16), run_demo@test_samples(48), 
  4799 ;;  i               1   13[BANK2 ] unsigned char 
  4800 ;;  max_votes       1    4[BANK2 ] char 
  4801 ;;  class_idx       1   78[BANK0 ] char 
  4802 ;; Return value:  Size  Location     Type
  4803 ;;                  1    wreg      char 
  4804 ;; Registers used:
  4805 ;;		wreg, fsr0l, fsr0h, fsr1l, fsr1h, status,2, status,0, pclath, cstack
  4806 ;; Tracked objects:
  4807 ;;		On entry : 0/0
  4808 ;;		On exit  : 0/0
  4809 ;;		Unchanged: 0/0
  4810 ;; Data sizes:     COMMON   BANK0   BANK1   BANK2   BANK3   BANK4   BANK5   BANK6   BANK7   BANK8   BANK9  BANK10  BANK1
      +1  BANK12  BANK13  BANK14  BANK15  BANK16  BANK17  BANK18  BANK19  BANK20  BANK21  BANK22  BANK23  BANK24  BANK25
  4811 ;;      Params:         0       0       0       0       0       0       0       0       0       0       0       0       
      +0       0       0       0       0       0       0       0       0       0       0       0       0       0       0
  4812 ;;      Locals:         0       2      80      14       0       0       0       0       0       0       0       0       
      +0       0       0       0       0       0       0       0       0       0       0       0       0       0       0
  4813 ;;      Temps:          0       4       0       0       0       0       0       0       0       0       0       0       
      +0       0       0       0       0       0       0       0       0       0       0       0       0       0       0
  4814 ;;      Totals:         0       6      80      14       0       0       0       0       0       0       0       0       
      +0       0       0       0       0       0       0       0       0       0       0       0       0       0       0
  4815 ;;Total ram usage:      100 bytes
  4816 ;; Hardware stack levels used: 1
  4817 ;; Hardware stack levels required when called: 3
  4818 ;; This function calls:
  4819 ;;		___fladd
  4820 ;;		___flge
  4821 ;;		___flmul
  4822 ;;		___flsub
  4823 ;;		_ml_compute_kernel
  4824 ;; This function is called by:
  4825 ;;		_run_demo
  4826 ;;		_process_command
  4827 ;;		_ml_get_votes
  4828 ;; This function uses a non-reentrant model
  4829 ;;
  4830                           
  4831     08E2                     _ml_predict:	
  4832                           ;psect for function _ml_predict
  4833                           
  4834                           
  4835                           ;incstack = 0
  4836                           ; Regs used in _ml_predict: [wreg-fsr1h+status,2+status,0+pclath+cstack]
  4837                           ;ml_predict@x stored from wreg
  4838     08E2  0020               	movlb	0	; select bank0
  4839     08E3  00EF               	movwf	ml_predict@x
  4840     08E4                     l4274:
  4841                           
  4842                           ;./ml.h: 91: signed char ml_predict(const float *x);./ml.h: 92: {;./ml.h: 93:     unsign
      +                          ed char i;;./ml.h: 94:     signed char class_idx = 0;
  4843     08E4  01EE               	clrf	ml_predict@class_idx
  4844                           
  4845                           ;./ml.h: 95:     signed char max_votes = 0;
  4846     08E5  0022               	movlb	2	; select bank2
  4847     08E6  01A4               	clrf	ml_predict@max_votes^(0+256)
  4848                           
  4849                           ;./ml.h: 98:     for (i = 0; i < 3; i++) {
  4850     08E7  01AD               	clrf	ml_predict@i^(0+256)
  4851     08E8                     l4280:
  4852                           
  4853                           ;./ml.h: 99:         votes[i] = 0;
  4854     08E8  082D               	movf	ml_predict@i^(0+256),w
  4855     08E9  3E69               	addlw	(low (_votes| (0+256)))& (0+255)
  4856     08EA  0086               	movwf	6
  4857     08EB  3001               	movlw	1	; select bank2/3
  4858     08EC  0087               	movwf	7
  4859     08ED  0181               	clrf	1
  4860     08EE                     l4282:
  4861                           
  4862                           ;./ml.h: 100:     }
  4863     08EE  3001               	movlw	1
  4864     08EF  0020               	movlb	0	; select bank0
  4865     08F0  00EA               	movwf	??_ml_predict
  4866     08F1  086A               	movf	??_ml_predict,w
  4867     08F2  0022               	movlb	2	; select bank2
  4868     08F3  07AD               	addwf	ml_predict@i^(0+256),f
  4869     08F4                     l4284:
  4870     08F4  3003               	movlw	3
  4871     08F5  022D               	subwf	ml_predict@i^(0+256),w
  4872     08F6  1C03               	skipc
  4873     08F7  28F9               	goto	u6661
  4874     08F8  28FA               	goto	u6660
  4875     08F9                     u6661:
  4876     08F9  28E8               	goto	l4280
  4877     08FA                     u6660:
  4878     08FA                     l4286:
  4879                           
  4880                           ;./ml.h: 103:     for (i = 0; i < 27; i++) {
  4881     08FA  01AD               	clrf	ml_predict@i^(0+256)
  4882     08FB                     l4292:
  4883                           
  4884                           ;./ml.h: 104:         kernels[i] = ml_compute_kernel(x, i);
  4885     08FB  082D               	movf	ml_predict@i^(0+256),w
  4886     08FC  0020               	movlb	0	; select bank0
  4887     08FD  00D2               	movwf	ml_compute_kernel@sv_idx
  4888     08FE  086F               	movf	ml_predict@x,w
  4889     08FF  319C  248F  3188   	fcall	_ml_compute_kernel
  4890     0902  0022               	movlb	2	; select bank2
  4891     0903  082D               	movf	ml_predict@i^(0+256),w
  4892     0904  0020               	movlb	0	; select bank0
  4893     0905  00EA               	movwf	??_ml_predict
  4894     0906  01EB               	clrf	??_ml_predict+1
  4895     0907  35EA               	lslf	??_ml_predict,f
  4896     0908  0DEB               	rlf	??_ml_predict+1,f
  4897     0909  35EA               	lslf	??_ml_predict,f
  4898     090A  0DEB               	rlf	??_ml_predict+1,f
  4899     090B  3084               	movlw	132
  4900     090C  00EC               	movwf	??_ml_predict+2
  4901     090D  3027               	movlw	39
  4902     090E  00ED               	movwf	??_ml_predict+3
  4903     090F  086A               	movf	??_ml_predict,w
  4904     0910  076C               	addwf	??_ml_predict+2,w
  4905     0911  0086               	movwf	6
  4906     0912  086B               	movf	??_ml_predict+1,w
  4907     0913  3D6D               	addwfc	??_ml_predict+3,w
  4908     0914  0087               	movwf	7
  4909     0915  0852               	movf	?_ml_compute_kernel,w
  4910     0916  3FC0               	movwi [0]fsr1
  4911     0917  0853               	movf	?_ml_compute_kernel+1,w
  4912     0918  3FC1               	movwi [1]fsr1
  4913     0919  0854               	movf	?_ml_compute_kernel+2,w
  4914     091A  3FC2               	movwi [2]fsr1
  4915     091B  0855               	movf	?_ml_compute_kernel+3,w
  4916     091C  3FC3               	movwi [3]fsr1
  4917     091D                     l4294:
  4918                           
  4919                           ;./ml.h: 105:     }
  4920     091D  3001               	movlw	1
  4921     091E  00EA               	movwf	??_ml_predict
  4922     091F  086A               	movf	??_ml_predict,w
  4923     0920  0022               	movlb	2	; select bank2
  4924     0921  07AD               	addwf	ml_predict@i^(0+256),f
  4925     0922                     l4296:
  4926     0922  301B               	movlw	27
  4927     0923  022D               	subwf	ml_predict@i^(0+256),w
  4928     0924  1C03               	skipc
  4929     0925  2927               	goto	u6671
  4930     0926  2928               	goto	u6670
  4931     0927                     u6671:
  4932     0927  28FB               	goto	l4292
  4933     0928                     u6670:
  4934     0928                     l4298:
  4935                           
  4936                           ;./ml.h: 108:     decisions[0] = 1.4528444969775751f + kernels[0] * 0.670752890310352f +
      +                           kernels[2] * 0.07709756347590406f + kernels[14] * -0.747850453786256f;
  4937     0928  303F               	movlw	63
  4938     0929  0020               	movlb	0	; select bank0
  4939     092A  00A3               	movwf	___fladd@b+3
  4940     092B  30B9               	movlw	185
  4941     092C  00A2               	movwf	___fladd@b+2
  4942     092D  30F6               	movlw	246
  4943     092E  00A1               	movwf	___fladd@b+1
  4944     092F  30CF               	movlw	207
  4945     0930  00A0               	movwf	___fladd@b
  4946     0931  303F               	movlw	63
  4947     0932  00BB               	movwf	___flmul@b+3
  4948     0933  302B               	movlw	43
  4949     0934  00BA               	movwf	___flmul@b+2
  4950     0935  30B6               	movlw	182
  4951     0936  00B9               	movwf	___flmul@b+1
  4952     0937  3076               	movlw	118
  4953     0938  00B8               	movwf	___flmul@b
  4954     0939  3084               	movlw	132
  4955     093A  0086               	movwf	6
  4956     093B  3027               	movlw	39
  4957     093C  0087               	movwf	7
  4958     093D  3F40               	moviw [0]fsr1
  4959     093E  00BC               	movwf	___flmul@a
  4960     093F  3F41               	moviw [1]fsr1
  4961     0940  00BD               	movwf	___flmul@a+1
  4962     0941  3F42               	moviw [2]fsr1
  4963     0942  00BE               	movwf	___flmul@a+2
  4964     0943  3F43               	moviw [3]fsr1
  4965     0944  00BF               	movwf	___flmul@a+3
  4966     0945  3195  25C5  3188   	fcall	___flmul
  4967     0948  0020               	movlb	0	; select bank0
  4968     0949  083B               	movf	?___flmul+3,w
  4969     094A  00A7               	movwf	___fladd@a+3
  4970     094B  083A               	movf	?___flmul+2,w
  4971     094C  00A6               	movwf	___fladd@a+2
  4972     094D  0839               	movf	?___flmul+1,w
  4973     094E  00A5               	movwf	___fladd@a+1
  4974     094F  0838               	movf	?___flmul,w
  4975     0950  00A4               	movwf	___fladd@a
  4976     0951  3193  23BA  3188   	fcall	___fladd
  4977     0954  0020               	movlb	0	; select bank0
  4978     0955  0823               	movf	?___fladd+3,w
  4979     0956  0022               	movlb	2	; select bank2
  4980     0957  00A8               	movwf	(_ml_predict$960+3)^(0+256)
  4981     0958  0020               	movlb	0	; select bank0
  4982     0959  0822               	movf	?___fladd+2,w
  4983     095A  0022               	movlb	2	; select bank2
  4984     095B  00A7               	movwf	(_ml_predict$960+2)^(0+256)
  4985     095C  0020               	movlb	0	; select bank0
  4986     095D  0821               	movf	?___fladd+1,w
  4987     095E  0022               	movlb	2	; select bank2
  4988     095F  00A6               	movwf	(_ml_predict$960+1)^(0+256)
  4989     0960  0020               	movlb	0	; select bank0
  4990     0961  0820               	movf	?___fladd,w
  4991     0962  0022               	movlb	2	; select bank2
  4992     0963  00A5               	movwf	_ml_predict$960^(0+256)
  4993                           
  4994                           ;./ml.h: 108:     decisions[0] = 1.4528444969775751f + kernels[0] * 0.670752890310352f +
      +                           kernels[2] * 0.07709756347590406f + kernels[14] * -0.747850453786256f;
  4995     0964  303D               	movlw	61
  4996     0965  0020               	movlb	0	; select bank0
  4997     0966  00BB               	movwf	___flmul@b+3
  4998     0967  309D               	movlw	157
  4999     0968  00BA               	movwf	___flmul@b+2
  5000     0969  30E5               	movlw	229
  5001     096A  00B9               	movwf	___flmul@b+1
  5002     096B  3054               	movlw	84
  5003     096C  00B8               	movwf	___flmul@b
  5004     096D  3084               	movlw	132
  5005     096E  0086               	movwf	6
  5006     096F  3027               	movlw	39
  5007     0970  0087               	movwf	7
  5008     0971  3148               	addfsr 1,8
  5009     0972  3F40               	moviw [0]fsr1
  5010     0973  00BC               	movwf	___flmul@a
  5011     0974  3F41               	moviw [1]fsr1
  5012     0975  00BD               	movwf	___flmul@a+1
  5013     0976  3F42               	moviw [2]fsr1
  5014     0977  00BE               	movwf	___flmul@a+2
  5015     0978  3F43               	moviw [3]fsr1
  5016     0979  00BF               	movwf	___flmul@a+3
  5017     097A  3195  25C5  3188   	fcall	___flmul
  5018     097D  0020               	movlb	0	; select bank0
  5019     097E  083B               	movf	?___flmul+3,w
  5020     097F  00A3               	movwf	___fladd@b+3
  5021     0980  083A               	movf	?___flmul+2,w
  5022     0981  00A2               	movwf	___fladd@b+2
  5023     0982  0839               	movf	?___flmul+1,w
  5024     0983  00A1               	movwf	___fladd@b+1
  5025     0984  0838               	movf	?___flmul,w
  5026     0985  00A0               	movwf	___fladd@b
  5027     0986  0022               	movlb	2	; select bank2
  5028     0987  0828               	movf	(_ml_predict$960+3)^(0+256),w
  5029     0988  0020               	movlb	0	; select bank0
  5030     0989  00A7               	movwf	___fladd@a+3
  5031     098A  0022               	movlb	2	; select bank2
  5032     098B  0827               	movf	(_ml_predict$960+2)^(0+256),w
  5033     098C  0020               	movlb	0	; select bank0
  5034     098D  00A6               	movwf	___fladd@a+2
  5035     098E  0022               	movlb	2	; select bank2
  5036     098F  0826               	movf	(_ml_predict$960+1)^(0+256),w
  5037     0990  0020               	movlb	0	; select bank0
  5038     0991  00A5               	movwf	___fladd@a+1
  5039     0992  0022               	movlb	2	; select bank2
  5040     0993  0825               	movf	_ml_predict$960^(0+256),w
  5041     0994  0020               	movlb	0	; select bank0
  5042     0995  00A4               	movwf	___fladd@a
  5043     0996  3193  23BA  3188   	fcall	___fladd
  5044     0999  0020               	movlb	0	; select bank0
  5045     099A  0823               	movf	?___fladd+3,w
  5046     099B  0022               	movlb	2	; select bank2
  5047     099C  00AC               	movwf	(_ml_predict$961+3)^(0+256)
  5048     099D  0020               	movlb	0	; select bank0
  5049     099E  0822               	movf	?___fladd+2,w
  5050     099F  0022               	movlb	2	; select bank2
  5051     09A0  00AB               	movwf	(_ml_predict$961+2)^(0+256)
  5052     09A1  0020               	movlb	0	; select bank0
  5053     09A2  0821               	movf	?___fladd+1,w
  5054     09A3  0022               	movlb	2	; select bank2
  5055     09A4  00AA               	movwf	(_ml_predict$961+1)^(0+256)
  5056     09A5  0020               	movlb	0	; select bank0
  5057     09A6  0820               	movf	?___fladd,w
  5058     09A7  0022               	movlb	2	; select bank2
  5059     09A8  00A9               	movwf	_ml_predict$961^(0+256)
  5060                           
  5061                           ;./ml.h: 108:     decisions[0] = 1.4528444969775751f + kernels[0] * 0.670752890310352f +
      +                           kernels[2] * 0.07709756347590406f + kernels[14] * -0.747850453786256f;
  5062     09A9  30BF               	movlw	191
  5063     09AA  0020               	movlb	0	; select bank0
  5064     09AB  00BB               	movwf	___flmul@b+3
  5065     09AC  303F               	movlw	63
  5066     09AD  00BA               	movwf	___flmul@b+2
  5067     09AE  3073               	movlw	115
  5068     09AF  00B9               	movwf	___flmul@b+1
  5069     09B0  3021               	movlw	33
  5070     09B1  00B8               	movwf	___flmul@b
  5071     09B2  30BC               	movlw	188
  5072     09B3  0086               	movwf	6
  5073     09B4  3027               	movlw	39
  5074     09B5  0087               	movwf	7
  5075     09B6  3F40               	moviw [0]fsr1
  5076     09B7  00BC               	movwf	___flmul@a
  5077     09B8  3F41               	moviw [1]fsr1
  5078     09B9  00BD               	movwf	___flmul@a+1
  5079     09BA  3F42               	moviw [2]fsr1
  5080     09BB  00BE               	movwf	___flmul@a+2
  5081     09BC  3F43               	moviw [3]fsr1
  5082     09BD  00BF               	movwf	___flmul@a+3
  5083     09BE  3195  25C5  3188   	fcall	___flmul
  5084     09C1  0020               	movlb	0	; select bank0
  5085     09C2  083B               	movf	?___flmul+3,w
  5086     09C3  00A3               	movwf	___fladd@b+3
  5087     09C4  083A               	movf	?___flmul+2,w
  5088     09C5  00A2               	movwf	___fladd@b+2
  5089     09C6  0839               	movf	?___flmul+1,w
  5090     09C7  00A1               	movwf	___fladd@b+1
  5091     09C8  0838               	movf	?___flmul,w
  5092     09C9  00A0               	movwf	___fladd@b
  5093     09CA  0022               	movlb	2	; select bank2
  5094     09CB  082C               	movf	(_ml_predict$961+3)^(0+256),w
  5095     09CC  0020               	movlb	0	; select bank0
  5096     09CD  00A7               	movwf	___fladd@a+3
  5097     09CE  0022               	movlb	2	; select bank2
  5098     09CF  082B               	movf	(_ml_predict$961+2)^(0+256),w
  5099     09D0  0020               	movlb	0	; select bank0
  5100     09D1  00A6               	movwf	___fladd@a+2
  5101     09D2  0022               	movlb	2	; select bank2
  5102     09D3  082A               	movf	(_ml_predict$961+1)^(0+256),w
  5103     09D4  0020               	movlb	0	; select bank0
  5104     09D5  00A5               	movwf	___fladd@a+1
  5105     09D6  0022               	movlb	2	; select bank2
  5106     09D7  0829               	movf	_ml_predict$961^(0+256),w
  5107     09D8  0020               	movlb	0	; select bank0
  5108     09D9  00A4               	movwf	___fladd@a
  5109     09DA  3193  23BA  3188   	fcall	___fladd
  5110     09DD  0020               	movlb	0	; select bank0
  5111     09DE  0823               	movf	?___fladd+3,w
  5112     09DF  0023               	movlb	3	; select bank3
  5113     09E0  00B7               	movwf	(_decisions+3)^(0+384)
  5114     09E1  0020               	movlb	0	; select bank0
  5115     09E2  0822               	movf	?___fladd+2,w
  5116     09E3  0023               	movlb	3	; select bank3
  5117     09E4  00B6               	movwf	(_decisions+2)^(0+384)
  5118     09E5  0020               	movlb	0	; select bank0
  5119     09E6  0821               	movf	?___fladd+1,w
  5120     09E7  0023               	movlb	3	; select bank3
  5121     09E8  00B5               	movwf	(_decisions+1)^(0+384)
  5122     09E9  0020               	movlb	0	; select bank0
  5123     09EA  0820               	movf	?___fladd,w
  5124     09EB  0023               	movlb	3	; select bank3
  5125     09EC  00B4               	movwf	_decisions^(0+384)
  5126                           
  5127                           ;./ml.h: 109:     decisions[1] = 1.5077131251781049f + kernels[0] * 0.04382041507584284f
      +                           + kernels[1] * 0.15987208671811695f + kernels[15] * -0.20369250179395978f;
  5128     09ED  303F               	movlw	63
  5129     09EE  0020               	movlb	0	; select bank0
  5130     09EF  00A3               	movwf	___fladd@b+3
  5131     09F0  30C0               	movlw	192
  5132     09F1  00A2               	movwf	___fladd@b+2
  5133     09F2  30FC               	movlw	252
  5134     09F3  00A1               	movwf	___fladd@b+1
  5135     09F4  30BE               	movlw	190
  5136     09F5  00A0               	movwf	___fladd@b
  5137     09F6  303D               	movlw	61
  5138     09F7  00BB               	movwf	___flmul@b+3
  5139     09F8  3033               	movlw	51
  5140     09F9  00BA               	movwf	___flmul@b+2
  5141     09FA  307D               	movlw	125
  5142     09FB  00B9               	movwf	___flmul@b+1
  5143     09FC  3009               	movlw	9
  5144     09FD  00B8               	movwf	___flmul@b
  5145     09FE  3084               	movlw	132
  5146     09FF  0086               	movwf	6
  5147     0A00  3027               	movlw	39
  5148     0A01  0087               	movwf	7
  5149     0A02  3F40               	moviw [0]fsr1
  5150     0A03  00BC               	movwf	___flmul@a
  5151     0A04  3F41               	moviw [1]fsr1
  5152     0A05  00BD               	movwf	___flmul@a+1
  5153     0A06  3F42               	moviw [2]fsr1
  5154     0A07  00BE               	movwf	___flmul@a+2
  5155     0A08  3F43               	moviw [3]fsr1
  5156     0A09  00BF               	movwf	___flmul@a+3
  5157     0A0A  3195  25C5  3188   	fcall	___flmul
  5158     0A0D  0020               	movlb	0	; select bank0
  5159     0A0E  083B               	movf	?___flmul+3,w
  5160     0A0F  00A7               	movwf	___fladd@a+3
  5161     0A10  083A               	movf	?___flmul+2,w
  5162     0A11  00A6               	movwf	___fladd@a+2
  5163     0A12  0839               	movf	?___flmul+1,w
  5164     0A13  00A5               	movwf	___fladd@a+1
  5165     0A14  0838               	movf	?___flmul,w
  5166     0A15  00A4               	movwf	___fladd@a
  5167     0A16  3193  23BA  3188   	fcall	___fladd
  5168     0A19  0020               	movlb	0	; select bank0
  5169     0A1A  0823               	movf	?___fladd+3,w
  5170     0A1B  0022               	movlb	2	; select bank2
  5171     0A1C  00A8               	movwf	(_ml_predict$960+3)^(0+256)
  5172     0A1D  0020               	movlb	0	; select bank0
  5173     0A1E  0822               	movf	?___fladd+2,w
  5174     0A1F  0022               	movlb	2	; select bank2
  5175     0A20  00A7               	movwf	(_ml_predict$960+2)^(0+256)
  5176     0A21  0020               	movlb	0	; select bank0
  5177     0A22  0821               	movf	?___fladd+1,w
  5178     0A23  0022               	movlb	2	; select bank2
  5179     0A24  00A6               	movwf	(_ml_predict$960+1)^(0+256)
  5180     0A25  0020               	movlb	0	; select bank0
  5181     0A26  0820               	movf	?___fladd,w
  5182     0A27  0022               	movlb	2	; select bank2
  5183     0A28  00A5               	movwf	_ml_predict$960^(0+256)
  5184                           
  5185                           ;./ml.h: 109:     decisions[1] = 1.5077131251781049f + kernels[0] * 0.04382041507584284f
      +                           + kernels[1] * 0.15987208671811695f + kernels[15] * -0.20369250179395978f;
  5186     0A29  303E               	movlw	62
  5187     0A2A  0020               	movlb	0	; select bank0
  5188     0A2B  00BB               	movwf	___flmul@b+3
  5189     0A2C  3023               	movlw	35
  5190     0A2D  00BA               	movwf	___flmul@b+2
  5191     0A2E  30B5               	movlw	181
  5192     0A2F  00B9               	movwf	___flmul@b+1
  5193     0A30  3082               	movlw	130
  5194     0A31  00B8               	movwf	___flmul@b
  5195     0A32  3084               	movlw	132
  5196     0A33  0086               	movwf	6
  5197     0A34  3027               	movlw	39
  5198     0A35  0087               	movwf	7
  5199     0A36  3144               	addfsr 1,4
  5200     0A37  3F40               	moviw [0]fsr1
  5201     0A38  00BC               	movwf	___flmul@a
  5202     0A39  3F41               	moviw [1]fsr1
  5203     0A3A  00BD               	movwf	___flmul@a+1
  5204     0A3B  3F42               	moviw [2]fsr1
  5205     0A3C  00BE               	movwf	___flmul@a+2
  5206     0A3D  3F43               	moviw [3]fsr1
  5207     0A3E  00BF               	movwf	___flmul@a+3
  5208     0A3F  3195  25C5  3188   	fcall	___flmul
  5209     0A42  0020               	movlb	0	; select bank0
  5210     0A43  083B               	movf	?___flmul+3,w
  5211     0A44  00A3               	movwf	___fladd@b+3
  5212     0A45  083A               	movf	?___flmul+2,w
  5213     0A46  00A2               	movwf	___fladd@b+2
  5214     0A47  0839               	movf	?___flmul+1,w
  5215     0A48  00A1               	movwf	___fladd@b+1
  5216     0A49  0838               	movf	?___flmul,w
  5217     0A4A  00A0               	movwf	___fladd@b
  5218     0A4B  0022               	movlb	2	; select bank2
  5219     0A4C  0828               	movf	(_ml_predict$960+3)^(0+256),w
  5220     0A4D  0020               	movlb	0	; select bank0
  5221     0A4E  00A7               	movwf	___fladd@a+3
  5222     0A4F  0022               	movlb	2	; select bank2
  5223     0A50  0827               	movf	(_ml_predict$960+2)^(0+256),w
  5224     0A51  0020               	movlb	0	; select bank0
  5225     0A52  00A6               	movwf	___fladd@a+2
  5226     0A53  0022               	movlb	2	; select bank2
  5227     0A54  0826               	movf	(_ml_predict$960+1)^(0+256),w
  5228     0A55  0020               	movlb	0	; select bank0
  5229     0A56  00A5               	movwf	___fladd@a+1
  5230     0A57  0022               	movlb	2	; select bank2
  5231     0A58  0825               	movf	_ml_predict$960^(0+256),w
  5232     0A59  0020               	movlb	0	; select bank0
  5233     0A5A  00A4               	movwf	___fladd@a
  5234     0A5B  3193  23BA  3188   	fcall	___fladd
  5235     0A5E  0020               	movlb	0	; select bank0
  5236     0A5F  0823               	movf	?___fladd+3,w
  5237     0A60  0022               	movlb	2	; select bank2
  5238     0A61  00AC               	movwf	(_ml_predict$961+3)^(0+256)
  5239     0A62  0020               	movlb	0	; select bank0
  5240     0A63  0822               	movf	?___fladd+2,w
  5241     0A64  0022               	movlb	2	; select bank2
  5242     0A65  00AB               	movwf	(_ml_predict$961+2)^(0+256)
  5243     0A66  0020               	movlb	0	; select bank0
  5244     0A67  0821               	movf	?___fladd+1,w
  5245     0A68  0022               	movlb	2	; select bank2
  5246     0A69  00AA               	movwf	(_ml_predict$961+1)^(0+256)
  5247     0A6A  0020               	movlb	0	; select bank0
  5248     0A6B  0820               	movf	?___fladd,w
  5249     0A6C  0022               	movlb	2	; select bank2
  5250     0A6D  00A9               	movwf	_ml_predict$961^(0+256)
  5251                           
  5252                           ;./ml.h: 109:     decisions[1] = 1.5077131251781049f + kernels[0] * 0.04382041507584284f
      +                           + kernels[1] * 0.15987208671811695f + kernels[15] * -0.20369250179395978f;
  5253     0A6E  30BE               	movlw	190
  5254     0A6F  0020               	movlb	0	; select bank0
  5255     0A70  00BB               	movwf	___flmul@b+3
  5256     0A71  3050               	movlw	80
  5257     0A72  00BA               	movwf	___flmul@b+2
  5258     0A73  3094               	movlw	148
  5259     0A74  00B9               	movwf	___flmul@b+1
  5260     0A75  30C4               	movlw	196
  5261     0A76  00B8               	movwf	___flmul@b
  5262     0A77  30C0               	movlw	192
  5263     0A78  0086               	movwf	6
  5264     0A79  3027               	movlw	39
  5265     0A7A  0087               	movwf	7
  5266     0A7B  3F40               	moviw [0]fsr1
  5267     0A7C  00BC               	movwf	___flmul@a
  5268     0A7D  3F41               	moviw [1]fsr1
  5269     0A7E  00BD               	movwf	___flmul@a+1
  5270     0A7F  3F42               	moviw [2]fsr1
  5271     0A80  00BE               	movwf	___flmul@a+2
  5272     0A81  3F43               	moviw [3]fsr1
  5273     0A82  00BF               	movwf	___flmul@a+3
  5274     0A83  3195  25C5  3188   	fcall	___flmul
  5275     0A86  0020               	movlb	0	; select bank0
  5276     0A87  083B               	movf	?___flmul+3,w
  5277     0A88  00A3               	movwf	___fladd@b+3
  5278     0A89  083A               	movf	?___flmul+2,w
  5279     0A8A  00A2               	movwf	___fladd@b+2
  5280     0A8B  0839               	movf	?___flmul+1,w
  5281     0A8C  00A1               	movwf	___fladd@b+1
  5282     0A8D  0838               	movf	?___flmul,w
  5283     0A8E  00A0               	movwf	___fladd@b
  5284     0A8F  0022               	movlb	2	; select bank2
  5285     0A90  082C               	movf	(_ml_predict$961+3)^(0+256),w
  5286     0A91  0020               	movlb	0	; select bank0
  5287     0A92  00A7               	movwf	___fladd@a+3
  5288     0A93  0022               	movlb	2	; select bank2
  5289     0A94  082B               	movf	(_ml_predict$961+2)^(0+256),w
  5290     0A95  0020               	movlb	0	; select bank0
  5291     0A96  00A6               	movwf	___fladd@a+2
  5292     0A97  0022               	movlb	2	; select bank2
  5293     0A98  082A               	movf	(_ml_predict$961+1)^(0+256),w
  5294     0A99  0020               	movlb	0	; select bank0
  5295     0A9A  00A5               	movwf	___fladd@a+1
  5296     0A9B  0022               	movlb	2	; select bank2
  5297     0A9C  0829               	movf	_ml_predict$961^(0+256),w
  5298     0A9D  0020               	movlb	0	; select bank0
  5299     0A9E  00A4               	movwf	___fladd@a
  5300     0A9F  3193  23BA  3188   	fcall	___fladd
  5301     0AA2  0020               	movlb	0	; select bank0
  5302     0AA3  0823               	movf	?___fladd+3,w
  5303     0AA4  0023               	movlb	3	; select bank3
  5304     0AA5  00BB               	movwf	((_decisions+3)^(0+384)+4)
  5305     0AA6  0020               	movlb	0	; select bank0
  5306     0AA7  0822               	movf	?___fladd+2,w
  5307     0AA8  0023               	movlb	3	; select bank3
  5308     0AA9  00BA               	movwf	((_decisions+2)^(0+384)+4)
  5309     0AAA  0020               	movlb	0	; select bank0
  5310     0AAB  0821               	movf	?___fladd+1,w
  5311     0AAC  0023               	movlb	3	; select bank3
  5312     0AAD  00B9               	movwf	((_decisions+1)^(0+384)+4)
  5313     0AAE  0020               	movlb	0	; select bank0
  5314     0AAF  0820               	movf	?___fladd,w
  5315     0AB0  0023               	movlb	3	; select bank3
  5316     0AB1  00B8               	movwf	(_decisions^(0+384)+4)
  5317                           
  5318                           ;./ml.h: 110:     decisions[2] = 6.780971185110271f + kernels[3] + kernels[4] + kernels[
      +                          5] + kernels[6] + kernels[7] + kernels[8] + kernels[9] + kernels[10] * 0.243261886420926
      +                          1f + kernels[11] + kernels[12] + kernels[13] - kernels[15] - kernels[16] - kernels[17] -
      +                           kernels[18] - kernels[19] - kernels[20] + kernels[21] * -0.43785981786340306f - kernels
      +                          [22] - kernels[23] + kernels[24] * -0.6451053479812653f + kernels[25] * -0.1602967205762
      +                          578f - kernels[26];
  5319     0AB2  3040               	movlw	64
  5320     0AB3  0020               	movlb	0	; select bank0
  5321     0AB4  00A3               	movwf	___fladd@b+3
  5322     0AB5  30D8               	movlw	216
  5323     0AB6  00A2               	movwf	___fladd@b+2
  5324     0AB7  30FD               	movlw	253
  5325     0AB8  00A1               	movwf	___fladd@b+1
  5326     0AB9  30B7               	movlw	183
  5327     0ABA  00A0               	movwf	___fladd@b
  5328     0ABB  3084               	movlw	132
  5329     0ABC  0086               	movwf	6
  5330     0ABD  3027               	movlw	39
  5331     0ABE  0087               	movwf	7
  5332     0ABF  314C               	addfsr 1,12
  5333     0AC0  3F40               	moviw [0]fsr1
  5334     0AC1  00A4               	movwf	___fladd@a
  5335     0AC2  3F41               	moviw [1]fsr1
  5336     0AC3  00A5               	movwf	___fladd@a+1
  5337     0AC4  3F42               	moviw [2]fsr1
  5338     0AC5  00A6               	movwf	___fladd@a+2
  5339     0AC6  3F43               	moviw [3]fsr1
  5340     0AC7  00A7               	movwf	___fladd@a+3
  5341     0AC8  3193  23BA  3188   	fcall	___fladd
  5342     0ACB  0020               	movlb	0	; select bank0
  5343     0ACC  0823               	movf	?___fladd+3,w
  5344     0ACD  0022               	movlb	2	; select bank2
  5345     0ACE  00A8               	movwf	(_ml_predict$960+3)^(0+256)
  5346     0ACF  0020               	movlb	0	; select bank0
  5347     0AD0  0822               	movf	?___fladd+2,w
  5348     0AD1  0022               	movlb	2	; select bank2
  5349     0AD2  00A7               	movwf	(_ml_predict$960+2)^(0+256)
  5350     0AD3  0020               	movlb	0	; select bank0
  5351     0AD4  0821               	movf	?___fladd+1,w
  5352     0AD5  0022               	movlb	2	; select bank2
  5353     0AD6  00A6               	movwf	(_ml_predict$960+1)^(0+256)
  5354     0AD7  0020               	movlb	0	; select bank0
  5355     0AD8  0820               	movf	?___fladd,w
  5356     0AD9  0022               	movlb	2	; select bank2
  5357     0ADA  00A5               	movwf	_ml_predict$960^(0+256)
  5358                           
  5359                           ;./ml.h: 110:     decisions[2] = 6.780971185110271f + kernels[3] + kernels[4] + kernels[
      +                          5] + kernels[6] + kernels[7] + kernels[8] + kernels[9] + kernels[10] * 0.243261886420926
      +                          1f + kernels[11] + kernels[12] + kernels[13] - kernels[15] - kernels[16] - kernels[17] -
      +                           kernels[18] - kernels[19] - kernels[20] + kernels[21] * -0.43785981786340306f - kernels
      +                          [22] - kernels[23] + kernels[24] * -0.6451053479812653f + kernels[25] * -0.1602967205762
      +                          578f - kernels[26];
  5360     0ADB  3084               	movlw	132
  5361     0ADC  0086               	movwf	6
  5362     0ADD  3027               	movlw	39
  5363     0ADE  0087               	movwf	7
  5364     0ADF  3150               	addfsr 1,16
  5365     0AE0  3F40               	moviw [0]fsr1
  5366     0AE1  0020               	movlb	0	; select bank0
  5367     0AE2  00A0               	movwf	___fladd@b
  5368     0AE3  3F41               	moviw [1]fsr1
  5369     0AE4  00A1               	movwf	___fladd@b+1
  5370     0AE5  3F42               	moviw [2]fsr1
  5371     0AE6  00A2               	movwf	___fladd@b+2
  5372     0AE7  3F43               	moviw [3]fsr1
  5373     0AE8  00A3               	movwf	___fladd@b+3
  5374     0AE9  0022               	movlb	2	; select bank2
  5375     0AEA  0828               	movf	(_ml_predict$960+3)^(0+256),w
  5376     0AEB  0020               	movlb	0	; select bank0
  5377     0AEC  00A7               	movwf	___fladd@a+3
  5378     0AED  0022               	movlb	2	; select bank2
  5379     0AEE  0827               	movf	(_ml_predict$960+2)^(0+256),w
  5380     0AEF  0020               	movlb	0	; select bank0
  5381     0AF0  00A6               	movwf	___fladd@a+2
  5382     0AF1  0022               	movlb	2	; select bank2
  5383     0AF2  0826               	movf	(_ml_predict$960+1)^(0+256),w
  5384     0AF3  0020               	movlb	0	; select bank0
  5385     0AF4  00A5               	movwf	___fladd@a+1
  5386     0AF5  0022               	movlb	2	; select bank2
  5387     0AF6  0825               	movf	_ml_predict$960^(0+256),w
  5388     0AF7  0020               	movlb	0	; select bank0
  5389     0AF8  00A4               	movwf	___fladd@a
  5390     0AF9  3193  23BA  3188   	fcall	___fladd
  5391     0AFC  0020               	movlb	0	; select bank0
  5392     0AFD  0823               	movf	?___fladd+3,w
  5393     0AFE  0022               	movlb	2	; select bank2
  5394     0AFF  00AC               	movwf	(_ml_predict$961+3)^(0+256)
  5395     0B00  0020               	movlb	0	; select bank0
  5396     0B01  0822               	movf	?___fladd+2,w
  5397     0B02  0022               	movlb	2	; select bank2
  5398     0B03  00AB               	movwf	(_ml_predict$961+2)^(0+256)
  5399     0B04  0020               	movlb	0	; select bank0
  5400     0B05  0821               	movf	?___fladd+1,w
  5401     0B06  0022               	movlb	2	; select bank2
  5402     0B07  00AA               	movwf	(_ml_predict$961+1)^(0+256)
  5403     0B08  0020               	movlb	0	; select bank0
  5404     0B09  0820               	movf	?___fladd,w
  5405     0B0A  0022               	movlb	2	; select bank2
  5406     0B0B  00A9               	movwf	_ml_predict$961^(0+256)
  5407                           
  5408                           ;./ml.h: 110:     decisions[2] = 6.780971185110271f + kernels[3] + kernels[4] + kernels[
      +                          5] + kernels[6] + kernels[7] + kernels[8] + kernels[9] + kernels[10] * 0.243261886420926
      +                          1f + kernels[11] + kernels[12] + kernels[13] - kernels[15] - kernels[16] - kernels[17] -
      +                           kernels[18] - kernels[19] - kernels[20] + kernels[21] * -0.43785981786340306f - kernels
      +                          [22] - kernels[23] + kernels[24] * -0.6451053479812653f + kernels[25] * -0.1602967205762
      +                          578f - kernels[26];
  5409     0B0C  3084               	movlw	132
  5410     0B0D  0086               	movwf	6
  5411     0B0E  3027               	movlw	39
  5412     0B0F  0087               	movwf	7
  5413     0B10  3154               	addfsr 1,20
  5414     0B11  3F40               	moviw [0]fsr1
  5415     0B12  0020               	movlb	0	; select bank0
  5416     0B13  00A0               	movwf	___fladd@b
  5417     0B14  3F41               	moviw [1]fsr1
  5418     0B15  00A1               	movwf	___fladd@b+1
  5419     0B16  3F42               	moviw [2]fsr1
  5420     0B17  00A2               	movwf	___fladd@b+2
  5421     0B18  3F43               	moviw [3]fsr1
  5422     0B19  00A3               	movwf	___fladd@b+3
  5423     0B1A  0022               	movlb	2	; select bank2
  5424     0B1B  082C               	movf	(_ml_predict$961+3)^(0+256),w
  5425     0B1C  0020               	movlb	0	; select bank0
  5426     0B1D  00A7               	movwf	___fladd@a+3
  5427     0B1E  0022               	movlb	2	; select bank2
  5428     0B1F  082B               	movf	(_ml_predict$961+2)^(0+256),w
  5429     0B20  0020               	movlb	0	; select bank0
  5430     0B21  00A6               	movwf	___fladd@a+2
  5431     0B22  0022               	movlb	2	; select bank2
  5432     0B23  082A               	movf	(_ml_predict$961+1)^(0+256),w
  5433     0B24  0020               	movlb	0	; select bank0
  5434     0B25  00A5               	movwf	___fladd@a+1
  5435     0B26  0022               	movlb	2	; select bank2
  5436     0B27  0829               	movf	_ml_predict$961^(0+256),w
  5437     0B28  0020               	movlb	0	; select bank0
  5438     0B29  00A4               	movwf	___fladd@a
  5439     0B2A  3193  23BA  3188   	fcall	___fladd
  5440     0B2D  0020               	movlb	0	; select bank0
  5441     0B2E  0823               	movf	?___fladd+3,w
  5442     0B2F  0021               	movlb	1	; select bank1
  5443     0B30  00A3               	movwf	(_ml_predict$962+3)^(0+128)
  5444     0B31  0020               	movlb	0	; select bank0
  5445     0B32  0822               	movf	?___fladd+2,w
  5446     0B33  0021               	movlb	1	; select bank1
  5447     0B34  00A2               	movwf	(_ml_predict$962+2)^(0+128)
  5448     0B35  0020               	movlb	0	; select bank0
  5449     0B36  0821               	movf	?___fladd+1,w
  5450     0B37  0021               	movlb	1	; select bank1
  5451     0B38  00A1               	movwf	(_ml_predict$962+1)^(0+128)
  5452     0B39  0020               	movlb	0	; select bank0
  5453     0B3A  0820               	movf	?___fladd,w
  5454     0B3B  0021               	movlb	1	; select bank1
  5455     0B3C  00A0               	movwf	_ml_predict$962^(0+128)
  5456                           
  5457                           ;./ml.h: 110:     decisions[2] = 6.780971185110271f + kernels[3] + kernels[4] + kernels[
      +                          5] + kernels[6] + kernels[7] + kernels[8] + kernels[9] + kernels[10] * 0.243261886420926
      +                          1f + kernels[11] + kernels[12] + kernels[13] - kernels[15] - kernels[16] - kernels[17] -
      +                           kernels[18] - kernels[19] - kernels[20] + kernels[21] * -0.43785981786340306f - kernels
      +                          [22] - kernels[23] + kernels[24] * -0.6451053479812653f + kernels[25] * -0.1602967205762
      +                          578f - kernels[26];
  5458     0B3D  3084               	movlw	132
  5459     0B3E  0086               	movwf	6
  5460     0B3F  3027               	movlw	39
  5461     0B40  0087               	movwf	7
  5462     0B41  3158               	addfsr 1,24
  5463     0B42  3F40               	moviw [0]fsr1
  5464     0B43  0020               	movlb	0	; select bank0
  5465     0B44  00A0               	movwf	___fladd@b
  5466     0B45  3F41               	moviw [1]fsr1
  5467     0B46  00A1               	movwf	___fladd@b+1
  5468     0B47  3F42               	moviw [2]fsr1
  5469     0B48  00A2               	movwf	___fladd@b+2
  5470     0B49  3F43               	moviw [3]fsr1
  5471     0B4A  00A3               	movwf	___fladd@b+3
  5472     0B4B  0021               	movlb	1	; select bank1
  5473     0B4C  0823               	movf	(_ml_predict$962+3)^(0+128),w
  5474     0B4D  0020               	movlb	0	; select bank0
  5475     0B4E  00A7               	movwf	___fladd@a+3
  5476     0B4F  0021               	movlb	1	; select bank1
  5477     0B50  0822               	movf	(_ml_predict$962+2)^(0+128),w
  5478     0B51  0020               	movlb	0	; select bank0
  5479     0B52  00A6               	movwf	___fladd@a+2
  5480     0B53  0021               	movlb	1	; select bank1
  5481     0B54  0821               	movf	(_ml_predict$962+1)^(0+128),w
  5482     0B55  0020               	movlb	0	; select bank0
  5483     0B56  00A5               	movwf	___fladd@a+1
  5484     0B57  0021               	movlb	1	; select bank1
  5485     0B58  0820               	movf	_ml_predict$962^(0+128),w
  5486     0B59  0020               	movlb	0	; select bank0
  5487     0B5A  00A4               	movwf	___fladd@a
  5488     0B5B  3193  23BA  3188   	fcall	___fladd
  5489     0B5E  0020               	movlb	0	; select bank0
  5490     0B5F  0823               	movf	?___fladd+3,w
  5491     0B60  0021               	movlb	1	; select bank1
  5492     0B61  00A7               	movwf	(_ml_predict$963+3)^(0+128)
  5493     0B62  0020               	movlb	0	; select bank0
  5494     0B63  0822               	movf	?___fladd+2,w
  5495     0B64  0021               	movlb	1	; select bank1
  5496     0B65  00A6               	movwf	(_ml_predict$963+2)^(0+128)
  5497     0B66  0020               	movlb	0	; select bank0
  5498     0B67  0821               	movf	?___fladd+1,w
  5499     0B68  0021               	movlb	1	; select bank1
  5500     0B69  00A5               	movwf	(_ml_predict$963+1)^(0+128)
  5501     0B6A  0020               	movlb	0	; select bank0
  5502     0B6B  0820               	movf	?___fladd,w
  5503     0B6C  0021               	movlb	1	; select bank1
  5504     0B6D  00A4               	movwf	_ml_predict$963^(0+128)
  5505                           
  5506                           ;./ml.h: 110:     decisions[2] = 6.780971185110271f + kernels[3] + kernels[4] + kernels[
      +                          5] + kernels[6] + kernels[7] + kernels[8] + kernels[9] + kernels[10] * 0.243261886420926
      +                          1f + kernels[11] + kernels[12] + kernels[13] - kernels[15] - kernels[16] - kernels[17] -
      +                           kernels[18] - kernels[19] - kernels[20] + kernels[21] * -0.43785981786340306f - kernels
      +                          [22] - kernels[23] + kernels[24] * -0.6451053479812653f + kernels[25] * -0.1602967205762
      +                          578f - kernels[26];
  5507     0B6E  3084               	movlw	132
  5508     0B6F  0086               	movwf	6
  5509     0B70  3027               	movlw	39
  5510     0B71  0087               	movwf	7
  5511     0B72  315C               	addfsr 1,28
  5512     0B73  3F40               	moviw [0]fsr1
  5513     0B74  0020               	movlb	0	; select bank0
  5514     0B75  00A0               	movwf	___fladd@b
  5515     0B76  3F41               	moviw [1]fsr1
  5516     0B77  00A1               	movwf	___fladd@b+1
  5517     0B78  3F42               	moviw [2]fsr1
  5518     0B79  00A2               	movwf	___fladd@b+2
  5519     0B7A  3F43               	moviw [3]fsr1
  5520     0B7B  00A3               	movwf	___fladd@b+3
  5521     0B7C  0021               	movlb	1	; select bank1
  5522     0B7D  0827               	movf	(_ml_predict$963+3)^(0+128),w
  5523     0B7E  0020               	movlb	0	; select bank0
  5524     0B7F  00A7               	movwf	___fladd@a+3
  5525     0B80  0021               	movlb	1	; select bank1
  5526     0B81  0826               	movf	(_ml_predict$963+2)^(0+128),w
  5527     0B82  0020               	movlb	0	; select bank0
  5528     0B83  00A6               	movwf	___fladd@a+2
  5529     0B84  0021               	movlb	1	; select bank1
  5530     0B85  0825               	movf	(_ml_predict$963+1)^(0+128),w
  5531     0B86  0020               	movlb	0	; select bank0
  5532     0B87  00A5               	movwf	___fladd@a+1
  5533     0B88  0021               	movlb	1	; select bank1
  5534     0B89  0824               	movf	_ml_predict$963^(0+128),w
  5535     0B8A  0020               	movlb	0	; select bank0
  5536     0B8B  00A4               	movwf	___fladd@a
  5537     0B8C  3193  23BA  3188   	fcall	___fladd
  5538     0B8F  0020               	movlb	0	; select bank0
  5539     0B90  0823               	movf	?___fladd+3,w
  5540     0B91  0021               	movlb	1	; select bank1
  5541     0B92  00AB               	movwf	(_ml_predict$964+3)^(0+128)
  5542     0B93  0020               	movlb	0	; select bank0
  5543     0B94  0822               	movf	?___fladd+2,w
  5544     0B95  0021               	movlb	1	; select bank1
  5545     0B96  00AA               	movwf	(_ml_predict$964+2)^(0+128)
  5546     0B97  0020               	movlb	0	; select bank0
  5547     0B98  0821               	movf	?___fladd+1,w
  5548     0B99  0021               	movlb	1	; select bank1
  5549     0B9A  00A9               	movwf	(_ml_predict$964+1)^(0+128)
  5550     0B9B  0020               	movlb	0	; select bank0
  5551     0B9C  0820               	movf	?___fladd,w
  5552     0B9D  0021               	movlb	1	; select bank1
  5553     0B9E  00A8               	movwf	_ml_predict$964^(0+128)
  5554                           
  5555                           ;./ml.h: 110:     decisions[2] = 6.780971185110271f + kernels[3] + kernels[4] + kernels[
      +                          5] + kernels[6] + kernels[7] + kernels[8] + kernels[9] + kernels[10] * 0.243261886420926
      +                          1f + kernels[11] + kernels[12] + kernels[13] - kernels[15] - kernels[16] - kernels[17] -
      +                           kernels[18] - kernels[19] - kernels[20] + kernels[21] * -0.43785981786340306f - kernels
      +                          [22] - kernels[23] + kernels[24] * -0.6451053479812653f + kernels[25] * -0.1602967205762
      +                          578f - kernels[26];
  5556     0B9F  30A4               	movlw	164
  5557     0BA0  0086               	movwf	6
  5558     0BA1  3027               	movlw	39
  5559     0BA2  0087               	movwf	7
  5560     0BA3  3F40               	moviw [0]fsr1
  5561     0BA4  0020               	movlb	0	; select bank0
  5562     0BA5  00A0               	movwf	___fladd@b
  5563     0BA6  3F41               	moviw [1]fsr1
  5564     0BA7  00A1               	movwf	___fladd@b+1
  5565     0BA8  3F42               	moviw [2]fsr1
  5566     0BA9  00A2               	movwf	___fladd@b+2
  5567     0BAA  3F43               	moviw [3]fsr1
  5568     0BAB  00A3               	movwf	___fladd@b+3
  5569     0BAC  0021               	movlb	1	; select bank1
  5570     0BAD  082B               	movf	(_ml_predict$964+3)^(0+128),w
  5571     0BAE  0020               	movlb	0	; select bank0
  5572     0BAF  00A7               	movwf	___fladd@a+3
  5573     0BB0  0021               	movlb	1	; select bank1
  5574     0BB1  082A               	movf	(_ml_predict$964+2)^(0+128),w
  5575     0BB2  0020               	movlb	0	; select bank0
  5576     0BB3  00A6               	movwf	___fladd@a+2
  5577     0BB4  0021               	movlb	1	; select bank1
  5578     0BB5  0829               	movf	(_ml_predict$964+1)^(0+128),w
  5579     0BB6  0020               	movlb	0	; select bank0
  5580     0BB7  00A5               	movwf	___fladd@a+1
  5581     0BB8  0021               	movlb	1	; select bank1
  5582     0BB9  0828               	movf	_ml_predict$964^(0+128),w
  5583     0BBA  0020               	movlb	0	; select bank0
  5584     0BBB  00A4               	movwf	___fladd@a
  5585     0BBC  3193  23BA  3188   	fcall	___fladd
  5586     0BBF  0020               	movlb	0	; select bank0
  5587     0BC0  0823               	movf	?___fladd+3,w
  5588     0BC1  0021               	movlb	1	; select bank1
  5589     0BC2  00AF               	movwf	(_ml_predict$965+3)^(0+128)
  5590     0BC3  0020               	movlb	0	; select bank0
  5591     0BC4  0822               	movf	?___fladd+2,w
  5592     0BC5  0021               	movlb	1	; select bank1
  5593     0BC6  00AE               	movwf	(_ml_predict$965+2)^(0+128)
  5594     0BC7  0020               	movlb	0	; select bank0
  5595     0BC8  0821               	movf	?___fladd+1,w
  5596     0BC9  0021               	movlb	1	; select bank1
  5597     0BCA  00AD               	movwf	(_ml_predict$965+1)^(0+128)
  5598     0BCB  0020               	movlb	0	; select bank0
  5599     0BCC  0820               	movf	?___fladd,w
  5600     0BCD  0021               	movlb	1	; select bank1
  5601     0BCE  00AC               	movwf	_ml_predict$965^(0+128)
  5602                           
  5603                           ;./ml.h: 110:     decisions[2] = 6.780971185110271f + kernels[3] + kernels[4] + kernels[
      +                          5] + kernels[6] + kernels[7] + kernels[8] + kernels[9] + kernels[10] * 0.243261886420926
      +                          1f + kernels[11] + kernels[12] + kernels[13] - kernels[15] - kernels[16] - kernels[17] -
      +                           kernels[18] - kernels[19] - kernels[20] + kernels[21] * -0.43785981786340306f - kernels
      +                          [22] - kernels[23] + kernels[24] * -0.6451053479812653f + kernels[25] * -0.1602967205762
      +                          578f - kernels[26];
  5604     0BCF  30A8               	movlw	168
  5605     0BD0  0086               	movwf	6
  5606     0BD1  3027               	movlw	39
  5607     0BD2  0087               	movwf	7
  5608     0BD3  3F40               	moviw [0]fsr1
  5609     0BD4  0020               	movlb	0	; select bank0
  5610     0BD5  00A0               	movwf	___fladd@b
  5611     0BD6  3F41               	moviw [1]fsr1
  5612     0BD7  00A1               	movwf	___fladd@b+1
  5613     0BD8  3F42               	moviw [2]fsr1
  5614     0BD9  00A2               	movwf	___fladd@b+2
  5615     0BDA  3F43               	moviw [3]fsr1
  5616     0BDB  00A3               	movwf	___fladd@b+3
  5617     0BDC  0021               	movlb	1	; select bank1
  5618     0BDD  082F               	movf	(_ml_predict$965+3)^(0+128),w
  5619     0BDE  0020               	movlb	0	; select bank0
  5620     0BDF  00A7               	movwf	___fladd@a+3
  5621     0BE0  0021               	movlb	1	; select bank1
  5622     0BE1  082E               	movf	(_ml_predict$965+2)^(0+128),w
  5623     0BE2  0020               	movlb	0	; select bank0
  5624     0BE3  00A6               	movwf	___fladd@a+2
  5625     0BE4  0021               	movlb	1	; select bank1
  5626     0BE5  082D               	movf	(_ml_predict$965+1)^(0+128),w
  5627     0BE6  0020               	movlb	0	; select bank0
  5628     0BE7  00A5               	movwf	___fladd@a+1
  5629     0BE8  0021               	movlb	1	; select bank1
  5630     0BE9  082C               	movf	_ml_predict$965^(0+128),w
  5631     0BEA  0020               	movlb	0	; select bank0
  5632     0BEB  00A4               	movwf	___fladd@a
  5633     0BEC  3193  23BA  3188   	fcall	___fladd
  5634     0BEF  0020               	movlb	0	; select bank0
  5635     0BF0  0823               	movf	?___fladd+3,w
  5636     0BF1  0021               	movlb	1	; select bank1
  5637     0BF2  00B3               	movwf	(_ml_predict$966+3)^(0+128)
  5638     0BF3  0020               	movlb	0	; select bank0
  5639     0BF4  0822               	movf	?___fladd+2,w
  5640     0BF5  0021               	movlb	1	; select bank1
  5641     0BF6  00B2               	movwf	(_ml_predict$966+2)^(0+128)
  5642     0BF7  0020               	movlb	0	; select bank0
  5643     0BF8  0821               	movf	?___fladd+1,w
  5644     0BF9  0021               	movlb	1	; select bank1
  5645     0BFA  00B1               	movwf	(_ml_predict$966+1)^(0+128)
  5646     0BFB  0020               	movlb	0	; select bank0
  5647     0BFC  0820               	movf	?___fladd,w
  5648     0BFD  0021               	movlb	1	; select bank1
  5649     0BFE  00B0               	movwf	_ml_predict$966^(0+128)
  5650                           
  5651                           ;./ml.h: 110:     decisions[2] = 6.780971185110271f + kernels[3] + kernels[4] + kernels[
      +                          5] + kernels[6] + kernels[7] + kernels[8] + kernels[9] + kernels[10] * 0.243261886420926
      +                          1f + kernels[11] + kernels[12] + kernels[13] - kernels[15] - kernels[16] - kernels[17] -
      +                           kernels[18] - kernels[19] - kernels[20] + kernels[21] * -0.43785981786340306f - kernels
      +                          [22] - kernels[23] + kernels[24] * -0.6451053479812653f + kernels[25] * -0.1602967205762
      +                          578f - kernels[26];
  5652     0BFF  303E               	movlw	62
  5653     0C00  0020               	movlb	0	; select bank0
  5654     0C01  00BB               	movwf	___flmul@b+3
  5655     0C02  3079               	movlw	121
  5656     0C03  00BA               	movwf	___flmul@b+2
  5657     0C04  3019               	movlw	25
  5658     0C05  00B9               	movwf	___flmul@b+1
  5659     0C06  30A5               	movlw	165
  5660     0C07  00B8               	movwf	___flmul@b
  5661     0C08  30AC               	movlw	172
  5662     0C09  0086               	movwf	6
  5663     0C0A  3027               	movlw	39
  5664     0C0B  0087               	movwf	7
  5665     0C0C  3F40               	moviw [0]fsr1
  5666     0C0D  00BC               	movwf	___flmul@a
  5667     0C0E  3F41               	moviw [1]fsr1
  5668     0C0F  00BD               	movwf	___flmul@a+1
  5669     0C10  3F42               	moviw [2]fsr1
  5670     0C11  00BE               	movwf	___flmul@a+2
  5671     0C12  3F43               	moviw [3]fsr1
  5672     0C13  00BF               	movwf	___flmul@a+3
  5673     0C14  3195  25C5  3188   	fcall	___flmul
  5674     0C17  0020               	movlb	0	; select bank0
  5675     0C18  083B               	movf	?___flmul+3,w
  5676     0C19  00A3               	movwf	___fladd@b+3
  5677     0C1A  083A               	movf	?___flmul+2,w
  5678     0C1B  00A2               	movwf	___fladd@b+2
  5679     0C1C  0839               	movf	?___flmul+1,w
  5680     0C1D  00A1               	movwf	___fladd@b+1
  5681     0C1E  0838               	movf	?___flmul,w
  5682     0C1F  00A0               	movwf	___fladd@b
  5683     0C20  0021               	movlb	1	; select bank1
  5684     0C21  0833               	movf	(_ml_predict$966+3)^(0+128),w
  5685     0C22  0020               	movlb	0	; select bank0
  5686     0C23  00A7               	movwf	___fladd@a+3
  5687     0C24  0021               	movlb	1	; select bank1
  5688     0C25  0832               	movf	(_ml_predict$966+2)^(0+128),w
  5689     0C26  0020               	movlb	0	; select bank0
  5690     0C27  00A6               	movwf	___fladd@a+2
  5691     0C28  0021               	movlb	1	; select bank1
  5692     0C29  0831               	movf	(_ml_predict$966+1)^(0+128),w
  5693     0C2A  0020               	movlb	0	; select bank0
  5694     0C2B  00A5               	movwf	___fladd@a+1
  5695     0C2C  0021               	movlb	1	; select bank1
  5696     0C2D  0830               	movf	_ml_predict$966^(0+128),w
  5697     0C2E  0020               	movlb	0	; select bank0
  5698     0C2F  00A4               	movwf	___fladd@a
  5699     0C30  3193  23BA  3188   	fcall	___fladd
  5700     0C33  0020               	movlb	0	; select bank0
  5701     0C34  0823               	movf	?___fladd+3,w
  5702     0C35  0021               	movlb	1	; select bank1
  5703     0C36  00B7               	movwf	(_ml_predict$967+3)^(0+128)
  5704     0C37  0020               	movlb	0	; select bank0
  5705     0C38  0822               	movf	?___fladd+2,w
  5706     0C39  0021               	movlb	1	; select bank1
  5707     0C3A  00B6               	movwf	(_ml_predict$967+2)^(0+128)
  5708     0C3B  0020               	movlb	0	; select bank0
  5709     0C3C  0821               	movf	?___fladd+1,w
  5710     0C3D  0021               	movlb	1	; select bank1
  5711     0C3E  00B5               	movwf	(_ml_predict$967+1)^(0+128)
  5712     0C3F  0020               	movlb	0	; select bank0
  5713     0C40  0820               	movf	?___fladd,w
  5714     0C41  0021               	movlb	1	; select bank1
  5715     0C42  00B4               	movwf	_ml_predict$967^(0+128)
  5716                           
  5717                           ;./ml.h: 110:     decisions[2] = 6.780971185110271f + kernels[3] + kernels[4] + kernels[
      +                          5] + kernels[6] + kernels[7] + kernels[8] + kernels[9] + kernels[10] * 0.243261886420926
      +                          1f + kernels[11] + kernels[12] + kernels[13] - kernels[15] - kernels[16] - kernels[17] -
      +                           kernels[18] - kernels[19] - kernels[20] + kernels[21] * -0.43785981786340306f - kernels
      +                          [22] - kernels[23] + kernels[24] * -0.6451053479812653f + kernels[25] * -0.1602967205762
      +                          578f - kernels[26];
  5718     0C43  30B0               	movlw	176
  5719     0C44  0086               	movwf	6
  5720     0C45  3027               	movlw	39
  5721     0C46  0087               	movwf	7
  5722     0C47  3F40               	moviw [0]fsr1
  5723     0C48  0020               	movlb	0	; select bank0
  5724     0C49  00A0               	movwf	___fladd@b
  5725     0C4A  3F41               	moviw [1]fsr1
  5726     0C4B  00A1               	movwf	___fladd@b+1
  5727     0C4C  3F42               	moviw [2]fsr1
  5728     0C4D  00A2               	movwf	___fladd@b+2
  5729     0C4E  3F43               	moviw [3]fsr1
  5730     0C4F  00A3               	movwf	___fladd@b+3
  5731     0C50  0021               	movlb	1	; select bank1
  5732     0C51  0837               	movf	(_ml_predict$967+3)^(0+128),w
  5733     0C52  0020               	movlb	0	; select bank0
  5734     0C53  00A7               	movwf	___fladd@a+3
  5735     0C54  0021               	movlb	1	; select bank1
  5736     0C55  0836               	movf	(_ml_predict$967+2)^(0+128),w
  5737     0C56  0020               	movlb	0	; select bank0
  5738     0C57  00A6               	movwf	___fladd@a+2
  5739     0C58  0021               	movlb	1	; select bank1
  5740     0C59  0835               	movf	(_ml_predict$967+1)^(0+128),w
  5741     0C5A  0020               	movlb	0	; select bank0
  5742     0C5B  00A5               	movwf	___fladd@a+1
  5743     0C5C  0021               	movlb	1	; select bank1
  5744     0C5D  0834               	movf	_ml_predict$967^(0+128),w
  5745     0C5E  0020               	movlb	0	; select bank0
  5746     0C5F  00A4               	movwf	___fladd@a
  5747     0C60  3193  23BA  3188   	fcall	___fladd
  5748     0C63  0020               	movlb	0	; select bank0
  5749     0C64  0823               	movf	?___fladd+3,w
  5750     0C65  0021               	movlb	1	; select bank1
  5751     0C66  00BB               	movwf	(_ml_predict$968+3)^(0+128)
  5752     0C67  0020               	movlb	0	; select bank0
  5753     0C68  0822               	movf	?___fladd+2,w
  5754     0C69  0021               	movlb	1	; select bank1
  5755     0C6A  00BA               	movwf	(_ml_predict$968+2)^(0+128)
  5756     0C6B  0020               	movlb	0	; select bank0
  5757     0C6C  0821               	movf	?___fladd+1,w
  5758     0C6D  0021               	movlb	1	; select bank1
  5759     0C6E  00B9               	movwf	(_ml_predict$968+1)^(0+128)
  5760     0C6F  0020               	movlb	0	; select bank0
  5761     0C70  0820               	movf	?___fladd,w
  5762     0C71  0021               	movlb	1	; select bank1
  5763     0C72  00B8               	movwf	_ml_predict$968^(0+128)
  5764                           
  5765                           ;./ml.h: 110:     decisions[2] = 6.780971185110271f + kernels[3] + kernels[4] + kernels[
      +                          5] + kernels[6] + kernels[7] + kernels[8] + kernels[9] + kernels[10] * 0.243261886420926
      +                          1f + kernels[11] + kernels[12] + kernels[13] - kernels[15] - kernels[16] - kernels[17] -
      +                           kernels[18] - kernels[19] - kernels[20] + kernels[21] * -0.43785981786340306f - kernels
      +                          [22] - kernels[23] + kernels[24] * -0.6451053479812653f + kernels[25] * -0.1602967205762
      +                          578f - kernels[26];
  5766     0C73  30B4               	movlw	180
  5767     0C74  0086               	movwf	6
  5768     0C75  3027               	movlw	39
  5769     0C76  0087               	movwf	7
  5770     0C77  3F40               	moviw [0]fsr1
  5771     0C78  0020               	movlb	0	; select bank0
  5772     0C79  00A0               	movwf	___fladd@b
  5773     0C7A  3F41               	moviw [1]fsr1
  5774     0C7B  00A1               	movwf	___fladd@b+1
  5775     0C7C  3F42               	moviw [2]fsr1
  5776     0C7D  00A2               	movwf	___fladd@b+2
  5777     0C7E  3F43               	moviw [3]fsr1
  5778     0C7F  00A3               	movwf	___fladd@b+3
  5779     0C80  0021               	movlb	1	; select bank1
  5780     0C81  083B               	movf	(_ml_predict$968+3)^(0+128),w
  5781     0C82  0020               	movlb	0	; select bank0
  5782     0C83  00A7               	movwf	___fladd@a+3
  5783     0C84  0021               	movlb	1	; select bank1
  5784     0C85  083A               	movf	(_ml_predict$968+2)^(0+128),w
  5785     0C86  0020               	movlb	0	; select bank0
  5786     0C87  00A6               	movwf	___fladd@a+2
  5787     0C88  0021               	movlb	1	; select bank1
  5788     0C89  0839               	movf	(_ml_predict$968+1)^(0+128),w
  5789     0C8A  0020               	movlb	0	; select bank0
  5790     0C8B  00A5               	movwf	___fladd@a+1
  5791     0C8C  0021               	movlb	1	; select bank1
  5792     0C8D  0838               	movf	_ml_predict$968^(0+128),w
  5793     0C8E  0020               	movlb	0	; select bank0
  5794     0C8F  00A4               	movwf	___fladd@a
  5795     0C90  3193  23BA  3188   	fcall	___fladd
  5796     0C93  0020               	movlb	0	; select bank0
  5797     0C94  0823               	movf	?___fladd+3,w
  5798     0C95  0021               	movlb	1	; select bank1
  5799     0C96  00BF               	movwf	(_ml_predict$969+3)^(0+128)
  5800     0C97  0020               	movlb	0	; select bank0
  5801     0C98  0822               	movf	?___fladd+2,w
  5802     0C99  0021               	movlb	1	; select bank1
  5803     0C9A  00BE               	movwf	(_ml_predict$969+2)^(0+128)
  5804     0C9B  0020               	movlb	0	; select bank0
  5805     0C9C  0821               	movf	?___fladd+1,w
  5806     0C9D  0021               	movlb	1	; select bank1
  5807     0C9E  00BD               	movwf	(_ml_predict$969+1)^(0+128)
  5808     0C9F  0020               	movlb	0	; select bank0
  5809     0CA0  0820               	movf	?___fladd,w
  5810     0CA1  0021               	movlb	1	; select bank1
  5811     0CA2  00BC               	movwf	_ml_predict$969^(0+128)
  5812                           
  5813                           ;./ml.h: 110:     decisions[2] = 6.780971185110271f + kernels[3] + kernels[4] + kernels[
      +                          5] + kernels[6] + kernels[7] + kernels[8] + kernels[9] + kernels[10] * 0.243261886420926
      +                          1f + kernels[11] + kernels[12] + kernels[13] - kernels[15] - kernels[16] - kernels[17] -
      +                           kernels[18] - kernels[19] - kernels[20] + kernels[21] * -0.43785981786340306f - kernels
      +                          [22] - kernels[23] + kernels[24] * -0.6451053479812653f + kernels[25] * -0.1602967205762
      +                          578f - kernels[26];
  5814     0CA3  30B8               	movlw	184
  5815     0CA4  0086               	movwf	6
  5816     0CA5  3027               	movlw	39
  5817     0CA6  0087               	movwf	7
  5818     0CA7  3F40               	moviw [0]fsr1
  5819     0CA8  0020               	movlb	0	; select bank0
  5820     0CA9  00A0               	movwf	___fladd@b
  5821     0CAA  3F41               	moviw [1]fsr1
  5822     0CAB  00A1               	movwf	___fladd@b+1
  5823     0CAC  3F42               	moviw [2]fsr1
  5824     0CAD  00A2               	movwf	___fladd@b+2
  5825     0CAE  3F43               	moviw [3]fsr1
  5826     0CAF  00A3               	movwf	___fladd@b+3
  5827     0CB0  0021               	movlb	1	; select bank1
  5828     0CB1  083F               	movf	(_ml_predict$969+3)^(0+128),w
  5829     0CB2  0020               	movlb	0	; select bank0
  5830     0CB3  00A7               	movwf	___fladd@a+3
  5831     0CB4  0021               	movlb	1	; select bank1
  5832     0CB5  083E               	movf	(_ml_predict$969+2)^(0+128),w
  5833     0CB6  0020               	movlb	0	; select bank0
  5834     0CB7  00A6               	movwf	___fladd@a+2
  5835     0CB8  0021               	movlb	1	; select bank1
  5836     0CB9  083D               	movf	(_ml_predict$969+1)^(0+128),w
  5837     0CBA  0020               	movlb	0	; select bank0
  5838     0CBB  00A5               	movwf	___fladd@a+1
  5839     0CBC  0021               	movlb	1	; select bank1
  5840     0CBD  083C               	movf	_ml_predict$969^(0+128),w
  5841     0CBE  0020               	movlb	0	; select bank0
  5842     0CBF  00A4               	movwf	___fladd@a
  5843     0CC0  3193  23BA  3188   	fcall	___fladd
  5844     0CC3  0020               	movlb	0	; select bank0
  5845     0CC4  0823               	movf	?___fladd+3,w
  5846     0CC5  0021               	movlb	1	; select bank1
  5847     0CC6  00C3               	movwf	(_ml_predict$970+3)^(0+128)
  5848     0CC7  0020               	movlb	0	; select bank0
  5849     0CC8  0822               	movf	?___fladd+2,w
  5850     0CC9  0021               	movlb	1	; select bank1
  5851     0CCA  00C2               	movwf	(_ml_predict$970+2)^(0+128)
  5852     0CCB  0020               	movlb	0	; select bank0
  5853     0CCC  0821               	movf	?___fladd+1,w
  5854     0CCD  0021               	movlb	1	; select bank1
  5855     0CCE  00C1               	movwf	(_ml_predict$970+1)^(0+128)
  5856     0CCF  0020               	movlb	0	; select bank0
  5857     0CD0  0820               	movf	?___fladd,w
  5858     0CD1  0021               	movlb	1	; select bank1
  5859     0CD2  00C0               	movwf	_ml_predict$970^(0+128)
  5860                           
  5861                           ;./ml.h: 110:     decisions[2] = 6.780971185110271f + kernels[3] + kernels[4] + kernels[
      +                          5] + kernels[6] + kernels[7] + kernels[8] + kernels[9] + kernels[10] * 0.243261886420926
      +                          1f + kernels[11] + kernels[12] + kernels[13] - kernels[15] - kernels[16] - kernels[17] -
      +                           kernels[18] - kernels[19] - kernels[20] + kernels[21] * -0.43785981786340306f - kernels
      +                          [22] - kernels[23] + kernels[24] * -0.6451053479812653f + kernels[25] * -0.1602967205762
      +                          578f - kernels[26];
  5862     0CD3  30C0               	movlw	192
  5863     0CD4  0086               	movwf	6
  5864     0CD5  3027               	movlw	39
  5865     0CD6  0087               	movwf	7
  5866     0CD7  3F40               	moviw [0]fsr1
  5867     0CD8  0020               	movlb	0	; select bank0
  5868     0CD9  00B0               	movwf	___flsub@a
  5869     0CDA  3F41               	moviw [1]fsr1
  5870     0CDB  00B1               	movwf	___flsub@a+1
  5871     0CDC  3F42               	moviw [2]fsr1
  5872     0CDD  00B2               	movwf	___flsub@a+2
  5873     0CDE  3F43               	moviw [3]fsr1
  5874     0CDF  00B3               	movwf	___flsub@a+3
  5875     0CE0  0021               	movlb	1	; select bank1
  5876     0CE1  0843               	movf	(_ml_predict$970+3)^(0+128),w
  5877     0CE2  0020               	movlb	0	; select bank0
  5878     0CE3  00B7               	movwf	___flsub@b+3
  5879     0CE4  0021               	movlb	1	; select bank1
  5880     0CE5  0842               	movf	(_ml_predict$970+2)^(0+128),w
  5881     0CE6  0020               	movlb	0	; select bank0
  5882     0CE7  00B6               	movwf	___flsub@b+2
  5883     0CE8  0021               	movlb	1	; select bank1
  5884     0CE9  0841               	movf	(_ml_predict$970+1)^(0+128),w
  5885     0CEA  0020               	movlb	0	; select bank0
  5886     0CEB  00B5               	movwf	___flsub@b+1
  5887     0CEC  0021               	movlb	1	; select bank1
  5888     0CED  0840               	movf	_ml_predict$970^(0+128),w
  5889     0CEE  0020               	movlb	0	; select bank0
  5890     0CEF  00B4               	movwf	___flsub@b
  5891     0CF0  31A7  2794  3188   	fcall	___flsub
  5892     0CF3  0020               	movlb	0	; select bank0
  5893     0CF4  0833               	movf	?___flsub+3,w
  5894     0CF5  0021               	movlb	1	; select bank1
  5895     0CF6  00C7               	movwf	(_ml_predict$971+3)^(0+128)
  5896     0CF7  0020               	movlb	0	; select bank0
  5897     0CF8  0832               	movf	?___flsub+2,w
  5898     0CF9  0021               	movlb	1	; select bank1
  5899     0CFA  00C6               	movwf	(_ml_predict$971+2)^(0+128)
  5900     0CFB  0020               	movlb	0	; select bank0
  5901     0CFC  0831               	movf	?___flsub+1,w
  5902     0CFD  0021               	movlb	1	; select bank1
  5903     0CFE  00C5               	movwf	(_ml_predict$971+1)^(0+128)
  5904     0CFF  0020               	movlb	0	; select bank0
  5905     0D00  0830               	movf	?___flsub,w
  5906     0D01  0021               	movlb	1	; select bank1
  5907     0D02  00C4               	movwf	_ml_predict$971^(0+128)
  5908                           
  5909                           ;./ml.h: 110:     decisions[2] = 6.780971185110271f + kernels[3] + kernels[4] + kernels[
      +                          5] + kernels[6] + kernels[7] + kernels[8] + kernels[9] + kernels[10] * 0.243261886420926
      +                          1f + kernels[11] + kernels[12] + kernels[13] - kernels[15] - kernels[16] - kernels[17] -
      +                           kernels[18] - kernels[19] - kernels[20] + kernels[21] * -0.43785981786340306f - kernels
      +                          [22] - kernels[23] + kernels[24] * -0.6451053479812653f + kernels[25] * -0.1602967205762
      +                          578f - kernels[26];
  5910     0D03  30C4               	movlw	196
  5911     0D04  0086               	movwf	6
  5912     0D05  3027               	movlw	39
  5913     0D06  0087               	movwf	7
  5914     0D07  3F40               	moviw [0]fsr1
  5915     0D08  0020               	movlb	0	; select bank0
  5916     0D09  00B0               	movwf	___flsub@a
  5917     0D0A  3F41               	moviw [1]fsr1
  5918     0D0B  00B1               	movwf	___flsub@a+1
  5919     0D0C  3F42               	moviw [2]fsr1
  5920     0D0D  00B2               	movwf	___flsub@a+2
  5921     0D0E  3F43               	moviw [3]fsr1
  5922     0D0F  00B3               	movwf	___flsub@a+3
  5923     0D10  0021               	movlb	1	; select bank1
  5924     0D11  0847               	movf	(_ml_predict$971+3)^(0+128),w
  5925     0D12  0020               	movlb	0	; select bank0
  5926     0D13  00B7               	movwf	___flsub@b+3
  5927     0D14  0021               	movlb	1	; select bank1
  5928     0D15  0846               	movf	(_ml_predict$971+2)^(0+128),w
  5929     0D16  0020               	movlb	0	; select bank0
  5930     0D17  00B6               	movwf	___flsub@b+2
  5931     0D18  0021               	movlb	1	; select bank1
  5932     0D19  0845               	movf	(_ml_predict$971+1)^(0+128),w
  5933     0D1A  0020               	movlb	0	; select bank0
  5934     0D1B  00B5               	movwf	___flsub@b+1
  5935     0D1C  0021               	movlb	1	; select bank1
  5936     0D1D  0844               	movf	_ml_predict$971^(0+128),w
  5937     0D1E  0020               	movlb	0	; select bank0
  5938     0D1F  00B4               	movwf	___flsub@b
  5939     0D20  31A7  2794  3188   	fcall	___flsub
  5940     0D23  0020               	movlb	0	; select bank0
  5941     0D24  0833               	movf	?___flsub+3,w
  5942     0D25  0021               	movlb	1	; select bank1
  5943     0D26  00CB               	movwf	(_ml_predict$972+3)^(0+128)
  5944     0D27  0020               	movlb	0	; select bank0
  5945     0D28  0832               	movf	?___flsub+2,w
  5946     0D29  0021               	movlb	1	; select bank1
  5947     0D2A  00CA               	movwf	(_ml_predict$972+2)^(0+128)
  5948     0D2B  0020               	movlb	0	; select bank0
  5949     0D2C  0831               	movf	?___flsub+1,w
  5950     0D2D  0021               	movlb	1	; select bank1
  5951     0D2E  00C9               	movwf	(_ml_predict$972+1)^(0+128)
  5952     0D2F  0020               	movlb	0	; select bank0
  5953     0D30  0830               	movf	?___flsub,w
  5954     0D31  0021               	movlb	1	; select bank1
  5955     0D32  00C8               	movwf	_ml_predict$972^(0+128)
  5956                           
  5957                           ;./ml.h: 110:     decisions[2] = 6.780971185110271f + kernels[3] + kernels[4] + kernels[
      +                          5] + kernels[6] + kernels[7] + kernels[8] + kernels[9] + kernels[10] * 0.243261886420926
      +                          1f + kernels[11] + kernels[12] + kernels[13] - kernels[15] - kernels[16] - kernels[17] -
      +                           kernels[18] - kernels[19] - kernels[20] + kernels[21] * -0.43785981786340306f - kernels
      +                          [22] - kernels[23] + kernels[24] * -0.6451053479812653f + kernels[25] * -0.1602967205762
      +                          578f - kernels[26];
  5958     0D33  30C8               	movlw	200
  5959     0D34  0086               	movwf	6
  5960     0D35  3027               	movlw	39
  5961     0D36  0087               	movwf	7
  5962     0D37  3F40               	moviw [0]fsr1
  5963     0D38  0020               	movlb	0	; select bank0
  5964     0D39  00B0               	movwf	___flsub@a
  5965     0D3A  3F41               	moviw [1]fsr1
  5966     0D3B  00B1               	movwf	___flsub@a+1
  5967     0D3C  3F42               	moviw [2]fsr1
  5968     0D3D  00B2               	movwf	___flsub@a+2
  5969     0D3E  3F43               	moviw [3]fsr1
  5970     0D3F  00B3               	movwf	___flsub@a+3
  5971     0D40  0021               	movlb	1	; select bank1
  5972     0D41  084B               	movf	(_ml_predict$972+3)^(0+128),w
  5973     0D42  0020               	movlb	0	; select bank0
  5974     0D43  00B7               	movwf	___flsub@b+3
  5975     0D44  0021               	movlb	1	; select bank1
  5976     0D45  084A               	movf	(_ml_predict$972+2)^(0+128),w
  5977     0D46  0020               	movlb	0	; select bank0
  5978     0D47  00B6               	movwf	___flsub@b+2
  5979     0D48  0021               	movlb	1	; select bank1
  5980     0D49  0849               	movf	(_ml_predict$972+1)^(0+128),w
  5981     0D4A  0020               	movlb	0	; select bank0
  5982     0D4B  00B5               	movwf	___flsub@b+1
  5983     0D4C  0021               	movlb	1	; select bank1
  5984     0D4D  0848               	movf	_ml_predict$972^(0+128),w
  5985     0D4E  0020               	movlb	0	; select bank0
  5986     0D4F  00B4               	movwf	___flsub@b
  5987     0D50  31A7  2794  3188   	fcall	___flsub
  5988     0D53  0020               	movlb	0	; select bank0
  5989     0D54  0833               	movf	?___flsub+3,w
  5990     0D55  0021               	movlb	1	; select bank1
  5991     0D56  00CF               	movwf	(_ml_predict$973+3)^(0+128)
  5992     0D57  0020               	movlb	0	; select bank0
  5993     0D58  0832               	movf	?___flsub+2,w
  5994     0D59  0021               	movlb	1	; select bank1
  5995     0D5A  00CE               	movwf	(_ml_predict$973+2)^(0+128)
  5996     0D5B  0020               	movlb	0	; select bank0
  5997     0D5C  0831               	movf	?___flsub+1,w
  5998     0D5D  0021               	movlb	1	; select bank1
  5999     0D5E  00CD               	movwf	(_ml_predict$973+1)^(0+128)
  6000     0D5F  0020               	movlb	0	; select bank0
  6001     0D60  0830               	movf	?___flsub,w
  6002     0D61  0021               	movlb	1	; select bank1
  6003     0D62  00CC               	movwf	_ml_predict$973^(0+128)
  6004                           
  6005                           ;./ml.h: 110:     decisions[2] = 6.780971185110271f + kernels[3] + kernels[4] + kernels[
      +                          5] + kernels[6] + kernels[7] + kernels[8] + kernels[9] + kernels[10] * 0.243261886420926
      +                          1f + kernels[11] + kernels[12] + kernels[13] - kernels[15] - kernels[16] - kernels[17] -
      +                           kernels[18] - kernels[19] - kernels[20] + kernels[21] * -0.43785981786340306f - kernels
      +                          [22] - kernels[23] + kernels[24] * -0.6451053479812653f + kernels[25] * -0.1602967205762
      +                          578f - kernels[26];
  6006     0D63  30CC               	movlw	204
  6007     0D64  0086               	movwf	6
  6008     0D65  3027               	movlw	39
  6009     0D66  0087               	movwf	7
  6010     0D67  3F40               	moviw [0]fsr1
  6011     0D68  0020               	movlb	0	; select bank0
  6012     0D69  00B0               	movwf	___flsub@a
  6013     0D6A  3F41               	moviw [1]fsr1
  6014     0D6B  00B1               	movwf	___flsub@a+1
  6015     0D6C  3F42               	moviw [2]fsr1
  6016     0D6D  00B2               	movwf	___flsub@a+2
  6017     0D6E  3F43               	moviw [3]fsr1
  6018     0D6F  00B3               	movwf	___flsub@a+3
  6019     0D70  0021               	movlb	1	; select bank1
  6020     0D71  084F               	movf	(_ml_predict$973+3)^(0+128),w
  6021     0D72  0020               	movlb	0	; select bank0
  6022     0D73  00B7               	movwf	___flsub@b+3
  6023     0D74  0021               	movlb	1	; select bank1
  6024     0D75  084E               	movf	(_ml_predict$973+2)^(0+128),w
  6025     0D76  0020               	movlb	0	; select bank0
  6026     0D77  00B6               	movwf	___flsub@b+2
  6027     0D78  0021               	movlb	1	; select bank1
  6028     0D79  084D               	movf	(_ml_predict$973+1)^(0+128),w
  6029     0D7A  0020               	movlb	0	; select bank0
  6030     0D7B  00B5               	movwf	___flsub@b+1
  6031     0D7C  0021               	movlb	1	; select bank1
  6032     0D7D  084C               	movf	_ml_predict$973^(0+128),w
  6033     0D7E  0020               	movlb	0	; select bank0
  6034     0D7F  00B4               	movwf	___flsub@b
  6035     0D80  31A7  2794  3188   	fcall	___flsub
  6036     0D83  0020               	movlb	0	; select bank0
  6037     0D84  0833               	movf	?___flsub+3,w
  6038     0D85  0021               	movlb	1	; select bank1
  6039     0D86  00D3               	movwf	(_ml_predict$974+3)^(0+128)
  6040     0D87  0020               	movlb	0	; select bank0
  6041     0D88  0832               	movf	?___flsub+2,w
  6042     0D89  0021               	movlb	1	; select bank1
  6043     0D8A  00D2               	movwf	(_ml_predict$974+2)^(0+128)
  6044     0D8B  0020               	movlb	0	; select bank0
  6045     0D8C  0831               	movf	?___flsub+1,w
  6046     0D8D  0021               	movlb	1	; select bank1
  6047     0D8E  00D1               	movwf	(_ml_predict$974+1)^(0+128)
  6048     0D8F  0020               	movlb	0	; select bank0
  6049     0D90  0830               	movf	?___flsub,w
  6050     0D91  0021               	movlb	1	; select bank1
  6051     0D92  00D0               	movwf	_ml_predict$974^(0+128)
  6052                           
  6053                           ;./ml.h: 110:     decisions[2] = 6.780971185110271f + kernels[3] + kernels[4] + kernels[
      +                          5] + kernels[6] + kernels[7] + kernels[8] + kernels[9] + kernels[10] * 0.243261886420926
      +                          1f + kernels[11] + kernels[12] + kernels[13] - kernels[15] - kernels[16] - kernels[17] -
      +                           kernels[18] - kernels[19] - kernels[20] + kernels[21] * -0.43785981786340306f - kernels
      +                          [22] - kernels[23] + kernels[24] * -0.6451053479812653f + kernels[25] * -0.1602967205762
      +                          578f - kernels[26];
  6054     0D93  30D0               	movlw	208
  6055     0D94  0086               	movwf	6
  6056     0D95  3027               	movlw	39
  6057     0D96  0087               	movwf	7
  6058     0D97  3F40               	moviw [0]fsr1
  6059     0D98  0020               	movlb	0	; select bank0
  6060     0D99  00B0               	movwf	___flsub@a
  6061     0D9A  3F41               	moviw [1]fsr1
  6062     0D9B  00B1               	movwf	___flsub@a+1
  6063     0D9C  3F42               	moviw [2]fsr1
  6064     0D9D  00B2               	movwf	___flsub@a+2
  6065     0D9E  3F43               	moviw [3]fsr1
  6066     0D9F  00B3               	movwf	___flsub@a+3
  6067     0DA0  0021               	movlb	1	; select bank1
  6068     0DA1  0853               	movf	(_ml_predict$974+3)^(0+128),w
  6069     0DA2  0020               	movlb	0	; select bank0
  6070     0DA3  00B7               	movwf	___flsub@b+3
  6071     0DA4  0021               	movlb	1	; select bank1
  6072     0DA5  0852               	movf	(_ml_predict$974+2)^(0+128),w
  6073     0DA6  0020               	movlb	0	; select bank0
  6074     0DA7  00B6               	movwf	___flsub@b+2
  6075     0DA8  0021               	movlb	1	; select bank1
  6076     0DA9  0851               	movf	(_ml_predict$974+1)^(0+128),w
  6077     0DAA  0020               	movlb	0	; select bank0
  6078     0DAB  00B5               	movwf	___flsub@b+1
  6079     0DAC  0021               	movlb	1	; select bank1
  6080     0DAD  0850               	movf	_ml_predict$974^(0+128),w
  6081     0DAE  0020               	movlb	0	; select bank0
  6082     0DAF  00B4               	movwf	___flsub@b
  6083     0DB0  31A7  2794  3188   	fcall	___flsub
  6084     0DB3  0020               	movlb	0	; select bank0
  6085     0DB4  0833               	movf	?___flsub+3,w
  6086     0DB5  0021               	movlb	1	; select bank1
  6087     0DB6  00D7               	movwf	(_ml_predict$975+3)^(0+128)
  6088     0DB7  0020               	movlb	0	; select bank0
  6089     0DB8  0832               	movf	?___flsub+2,w
  6090     0DB9  0021               	movlb	1	; select bank1
  6091     0DBA  00D6               	movwf	(_ml_predict$975+2)^(0+128)
  6092     0DBB  0020               	movlb	0	; select bank0
  6093     0DBC  0831               	movf	?___flsub+1,w
  6094     0DBD  0021               	movlb	1	; select bank1
  6095     0DBE  00D5               	movwf	(_ml_predict$975+1)^(0+128)
  6096     0DBF  0020               	movlb	0	; select bank0
  6097     0DC0  0830               	movf	?___flsub,w
  6098     0DC1  0021               	movlb	1	; select bank1
  6099     0DC2  00D4               	movwf	_ml_predict$975^(0+128)
  6100                           
  6101                           ;./ml.h: 110:     decisions[2] = 6.780971185110271f + kernels[3] + kernels[4] + kernels[
      +                          5] + kernels[6] + kernels[7] + kernels[8] + kernels[9] + kernels[10] * 0.243261886420926
      +                          1f + kernels[11] + kernels[12] + kernels[13] - kernels[15] - kernels[16] - kernels[17] -
      +                           kernels[18] - kernels[19] - kernels[20] + kernels[21] * -0.43785981786340306f - kernels
      +                          [22] - kernels[23] + kernels[24] * -0.6451053479812653f + kernels[25] * -0.1602967205762
      +                          578f - kernels[26];
  6102     0DC3  30D4               	movlw	212
  6103     0DC4  0086               	movwf	6
  6104     0DC5  3027               	movlw	39
  6105     0DC6  0087               	movwf	7
  6106     0DC7  3F40               	moviw [0]fsr1
  6107     0DC8  0020               	movlb	0	; select bank0
  6108     0DC9  00B0               	movwf	___flsub@a
  6109     0DCA  3F41               	moviw [1]fsr1
  6110     0DCB  00B1               	movwf	___flsub@a+1
  6111     0DCC  3F42               	moviw [2]fsr1
  6112     0DCD  00B2               	movwf	___flsub@a+2
  6113     0DCE  3F43               	moviw [3]fsr1
  6114     0DCF  00B3               	movwf	___flsub@a+3
  6115     0DD0  0021               	movlb	1	; select bank1
  6116     0DD1  0857               	movf	(_ml_predict$975+3)^(0+128),w
  6117     0DD2  0020               	movlb	0	; select bank0
  6118     0DD3  00B7               	movwf	___flsub@b+3
  6119     0DD4  0021               	movlb	1	; select bank1
  6120     0DD5  0856               	movf	(_ml_predict$975+2)^(0+128),w
  6121     0DD6  0020               	movlb	0	; select bank0
  6122     0DD7  00B6               	movwf	___flsub@b+2
  6123     0DD8  0021               	movlb	1	; select bank1
  6124     0DD9  0855               	movf	(_ml_predict$975+1)^(0+128),w
  6125     0DDA  0020               	movlb	0	; select bank0
  6126     0DDB  00B5               	movwf	___flsub@b+1
  6127     0DDC  0021               	movlb	1	; select bank1
  6128     0DDD  0854               	movf	_ml_predict$975^(0+128),w
  6129     0DDE  0020               	movlb	0	; select bank0
  6130     0DDF  00B4               	movwf	___flsub@b
  6131     0DE0  31A7  2794  3188   	fcall	___flsub
  6132     0DE3  0020               	movlb	0	; select bank0
  6133     0DE4  0833               	movf	?___flsub+3,w
  6134     0DE5  0021               	movlb	1	; select bank1
  6135     0DE6  00DB               	movwf	(_ml_predict$976+3)^(0+128)
  6136     0DE7  0020               	movlb	0	; select bank0
  6137     0DE8  0832               	movf	?___flsub+2,w
  6138     0DE9  0021               	movlb	1	; select bank1
  6139     0DEA  00DA               	movwf	(_ml_predict$976+2)^(0+128)
  6140     0DEB  0020               	movlb	0	; select bank0
  6141     0DEC  0831               	movf	?___flsub+1,w
  6142     0DED  0021               	movlb	1	; select bank1
  6143     0DEE  00D9               	movwf	(_ml_predict$976+1)^(0+128)
  6144     0DEF  0020               	movlb	0	; select bank0
  6145     0DF0  0830               	movf	?___flsub,w
  6146     0DF1  0021               	movlb	1	; select bank1
  6147     0DF2  00D8               	movwf	_ml_predict$976^(0+128)
  6148                           
  6149                           ;./ml.h: 110:     decisions[2] = 6.780971185110271f + kernels[3] + kernels[4] + kernels[
      +                          5] + kernels[6] + kernels[7] + kernels[8] + kernels[9] + kernels[10] * 0.243261886420926
      +                          1f + kernels[11] + kernels[12] + kernels[13] - kernels[15] - kernels[16] - kernels[17] -
      +                           kernels[18] - kernels[19] - kernels[20] + kernels[21] * -0.43785981786340306f - kernels
      +                          [22] - kernels[23] + kernels[24] * -0.6451053479812653f + kernels[25] * -0.1602967205762
      +                          578f - kernels[26];
  6150     0DF3  30BE               	movlw	190
  6151     0DF4  0020               	movlb	0	; select bank0
  6152     0DF5  00BB               	movwf	___flmul@b+3
  6153     0DF6  30E0               	movlw	224
  6154     0DF7  00BA               	movwf	___flmul@b+2
  6155     0DF8  302F               	movlw	47
  6156     0DF9  00B9               	movwf	___flmul@b+1
  6157     0DFA  3029               	movlw	41
  6158     0DFB  00B8               	movwf	___flmul@b
  6159     0DFC  30D8               	movlw	216
  6160     0DFD  0086               	movwf	6
  6161     0DFE  3027               	movlw	39
  6162     0DFF  0087               	movwf	7
  6163     0E00  3F40               	moviw [0]fsr1
  6164     0E01  00BC               	movwf	___flmul@a
  6165     0E02  3F41               	moviw [1]fsr1
  6166     0E03  00BD               	movwf	___flmul@a+1
  6167     0E04  3F42               	moviw [2]fsr1
  6168     0E05  00BE               	movwf	___flmul@a+2
  6169     0E06  3F43               	moviw [3]fsr1
  6170     0E07  00BF               	movwf	___flmul@a+3
  6171     0E08  3195  25C5  3188   	fcall	___flmul
  6172     0E0B  0020               	movlb	0	; select bank0
  6173     0E0C  083B               	movf	?___flmul+3,w
  6174     0E0D  00A3               	movwf	___fladd@b+3
  6175     0E0E  083A               	movf	?___flmul+2,w
  6176     0E0F  00A2               	movwf	___fladd@b+2
  6177     0E10  0839               	movf	?___flmul+1,w
  6178     0E11  00A1               	movwf	___fladd@b+1
  6179     0E12  0838               	movf	?___flmul,w
  6180     0E13  00A0               	movwf	___fladd@b
  6181     0E14  0021               	movlb	1	; select bank1
  6182     0E15  085B               	movf	(_ml_predict$976+3)^(0+128),w
  6183     0E16  0020               	movlb	0	; select bank0
  6184     0E17  00A7               	movwf	___fladd@a+3
  6185     0E18  0021               	movlb	1	; select bank1
  6186     0E19  085A               	movf	(_ml_predict$976+2)^(0+128),w
  6187     0E1A  0020               	movlb	0	; select bank0
  6188     0E1B  00A6               	movwf	___fladd@a+2
  6189     0E1C  0021               	movlb	1	; select bank1
  6190     0E1D  0859               	movf	(_ml_predict$976+1)^(0+128),w
  6191     0E1E  0020               	movlb	0	; select bank0
  6192     0E1F  00A5               	movwf	___fladd@a+1
  6193     0E20  0021               	movlb	1	; select bank1
  6194     0E21  0858               	movf	_ml_predict$976^(0+128),w
  6195     0E22  0020               	movlb	0	; select bank0
  6196     0E23  00A4               	movwf	___fladd@a
  6197     0E24  3193  23BA  3188   	fcall	___fladd
  6198     0E27  0020               	movlb	0	; select bank0
  6199     0E28  0823               	movf	?___fladd+3,w
  6200     0E29  0021               	movlb	1	; select bank1
  6201     0E2A  00DF               	movwf	(_ml_predict$977+3)^(0+128)
  6202     0E2B  0020               	movlb	0	; select bank0
  6203     0E2C  0822               	movf	?___fladd+2,w
  6204     0E2D  0021               	movlb	1	; select bank1
  6205     0E2E  00DE               	movwf	(_ml_predict$977+2)^(0+128)
  6206     0E2F  0020               	movlb	0	; select bank0
  6207     0E30  0821               	movf	?___fladd+1,w
  6208     0E31  0021               	movlb	1	; select bank1
  6209     0E32  00DD               	movwf	(_ml_predict$977+1)^(0+128)
  6210     0E33  0020               	movlb	0	; select bank0
  6211     0E34  0820               	movf	?___fladd,w
  6212     0E35  0021               	movlb	1	; select bank1
  6213     0E36  00DC               	movwf	_ml_predict$977^(0+128)
  6214                           
  6215                           ;./ml.h: 110:     decisions[2] = 6.780971185110271f + kernels[3] + kernels[4] + kernels[
      +                          5] + kernels[6] + kernels[7] + kernels[8] + kernels[9] + kernels[10] * 0.243261886420926
      +                          1f + kernels[11] + kernels[12] + kernels[13] - kernels[15] - kernels[16] - kernels[17] -
      +                           kernels[18] - kernels[19] - kernels[20] + kernels[21] * -0.43785981786340306f - kernels
      +                          [22] - kernels[23] + kernels[24] * -0.6451053479812653f + kernels[25] * -0.1602967205762
      +                          578f - kernels[26];
  6216     0E37  30DC               	movlw	220
  6217     0E38  0086               	movwf	6
  6218     0E39  3027               	movlw	39
  6219     0E3A  0087               	movwf	7
  6220     0E3B  3F40               	moviw [0]fsr1
  6221     0E3C  0020               	movlb	0	; select bank0
  6222     0E3D  00B0               	movwf	___flsub@a
  6223     0E3E  3F41               	moviw [1]fsr1
  6224     0E3F  00B1               	movwf	___flsub@a+1
  6225     0E40  3F42               	moviw [2]fsr1
  6226     0E41  00B2               	movwf	___flsub@a+2
  6227     0E42  3F43               	moviw [3]fsr1
  6228     0E43  00B3               	movwf	___flsub@a+3
  6229     0E44  0021               	movlb	1	; select bank1
  6230     0E45  085F               	movf	(_ml_predict$977+3)^(0+128),w
  6231     0E46  0020               	movlb	0	; select bank0
  6232     0E47  00B7               	movwf	___flsub@b+3
  6233     0E48  0021               	movlb	1	; select bank1
  6234     0E49  085E               	movf	(_ml_predict$977+2)^(0+128),w
  6235     0E4A  0020               	movlb	0	; select bank0
  6236     0E4B  00B6               	movwf	___flsub@b+2
  6237     0E4C  0021               	movlb	1	; select bank1
  6238     0E4D  085D               	movf	(_ml_predict$977+1)^(0+128),w
  6239     0E4E  0020               	movlb	0	; select bank0
  6240     0E4F  00B5               	movwf	___flsub@b+1
  6241     0E50  0021               	movlb	1	; select bank1
  6242     0E51  085C               	movf	_ml_predict$977^(0+128),w
  6243     0E52  0020               	movlb	0	; select bank0
  6244     0E53  00B4               	movwf	___flsub@b
  6245     0E54  31A7  2794  3188   	fcall	___flsub
  6246     0E57  0020               	movlb	0	; select bank0
  6247     0E58  0833               	movf	?___flsub+3,w
  6248     0E59  0021               	movlb	1	; select bank1
  6249     0E5A  00E3               	movwf	(_ml_predict$978+3)^(0+128)
  6250     0E5B  0020               	movlb	0	; select bank0
  6251     0E5C  0832               	movf	?___flsub+2,w
  6252     0E5D  0021               	movlb	1	; select bank1
  6253     0E5E  00E2               	movwf	(_ml_predict$978+2)^(0+128)
  6254     0E5F  0020               	movlb	0	; select bank0
  6255     0E60  0831               	movf	?___flsub+1,w
  6256     0E61  0021               	movlb	1	; select bank1
  6257     0E62  00E1               	movwf	(_ml_predict$978+1)^(0+128)
  6258     0E63  0020               	movlb	0	; select bank0
  6259     0E64  0830               	movf	?___flsub,w
  6260     0E65  0021               	movlb	1	; select bank1
  6261     0E66  00E0               	movwf	_ml_predict$978^(0+128)
  6262                           
  6263                           ;./ml.h: 110:     decisions[2] = 6.780971185110271f + kernels[3] + kernels[4] + kernels[
      +                          5] + kernels[6] + kernels[7] + kernels[8] + kernels[9] + kernels[10] * 0.243261886420926
      +                          1f + kernels[11] + kernels[12] + kernels[13] - kernels[15] - kernels[16] - kernels[17] -
      +                           kernels[18] - kernels[19] - kernels[20] + kernels[21] * -0.43785981786340306f - kernels
      +                          [22] - kernels[23] + kernels[24] * -0.6451053479812653f + kernels[25] * -0.1602967205762
      +                          578f - kernels[26];
  6264     0E67  30E0               	movlw	224
  6265     0E68  0086               	movwf	6
  6266     0E69  3027               	movlw	39
  6267     0E6A  0087               	movwf	7
  6268     0E6B  3F40               	moviw [0]fsr1
  6269     0E6C  0020               	movlb	0	; select bank0
  6270     0E6D  00B0               	movwf	___flsub@a
  6271     0E6E  3F41               	moviw [1]fsr1
  6272     0E6F  00B1               	movwf	___flsub@a+1
  6273     0E70  3F42               	moviw [2]fsr1
  6274     0E71  00B2               	movwf	___flsub@a+2
  6275     0E72  3F43               	moviw [3]fsr1
  6276     0E73  00B3               	movwf	___flsub@a+3
  6277     0E74  0021               	movlb	1	; select bank1
  6278     0E75  0863               	movf	(_ml_predict$978+3)^(0+128),w
  6279     0E76  0020               	movlb	0	; select bank0
  6280     0E77  00B7               	movwf	___flsub@b+3
  6281     0E78  0021               	movlb	1	; select bank1
  6282     0E79  0862               	movf	(_ml_predict$978+2)^(0+128),w
  6283     0E7A  0020               	movlb	0	; select bank0
  6284     0E7B  00B6               	movwf	___flsub@b+2
  6285     0E7C  0021               	movlb	1	; select bank1
  6286     0E7D  0861               	movf	(_ml_predict$978+1)^(0+128),w
  6287     0E7E  0020               	movlb	0	; select bank0
  6288     0E7F  00B5               	movwf	___flsub@b+1
  6289     0E80  0021               	movlb	1	; select bank1
  6290     0E81  0860               	movf	_ml_predict$978^(0+128),w
  6291     0E82  0020               	movlb	0	; select bank0
  6292     0E83  00B4               	movwf	___flsub@b
  6293     0E84  31A7  2794  3188   	fcall	___flsub
  6294     0E87  0020               	movlb	0	; select bank0
  6295     0E88  0833               	movf	?___flsub+3,w
  6296     0E89  0021               	movlb	1	; select bank1
  6297     0E8A  00E7               	movwf	(_ml_predict$979+3)^(0+128)
  6298     0E8B  0020               	movlb	0	; select bank0
  6299     0E8C  0832               	movf	?___flsub+2,w
  6300     0E8D  0021               	movlb	1	; select bank1
  6301     0E8E  00E6               	movwf	(_ml_predict$979+2)^(0+128)
  6302     0E8F  0020               	movlb	0	; select bank0
  6303     0E90  0831               	movf	?___flsub+1,w
  6304     0E91  0021               	movlb	1	; select bank1
  6305     0E92  00E5               	movwf	(_ml_predict$979+1)^(0+128)
  6306     0E93  0020               	movlb	0	; select bank0
  6307     0E94  0830               	movf	?___flsub,w
  6308     0E95  0021               	movlb	1	; select bank1
  6309     0E96  00E4               	movwf	_ml_predict$979^(0+128)
  6310                           
  6311                           ;./ml.h: 110:     decisions[2] = 6.780971185110271f + kernels[3] + kernels[4] + kernels[
      +                          5] + kernels[6] + kernels[7] + kernels[8] + kernels[9] + kernels[10] * 0.243261886420926
      +                          1f + kernels[11] + kernels[12] + kernels[13] - kernels[15] - kernels[16] - kernels[17] -
      +                           kernels[18] - kernels[19] - kernels[20] + kernels[21] * -0.43785981786340306f - kernels
      +                          [22] - kernels[23] + kernels[24] * -0.6451053479812653f + kernels[25] * -0.1602967205762
      +                          578f - kernels[26];
  6312     0E97  30BF               	movlw	191
  6313     0E98  0020               	movlb	0	; select bank0
  6314     0E99  00BB               	movwf	___flmul@b+3
  6315     0E9A  3025               	movlw	37
  6316     0E9B  00BA               	movwf	___flmul@b+2
  6317     0E9C  3025               	movlw	37
  6318     0E9D  00B9               	movwf	___flmul@b+1
  6319     0E9E  30A0               	movlw	160
  6320     0E9F  00B8               	movwf	___flmul@b
  6321     0EA0  30E4               	movlw	228
  6322     0EA1  0086               	movwf	6
  6323     0EA2  3027               	movlw	39
  6324     0EA3  0087               	movwf	7
  6325     0EA4  3F40               	moviw [0]fsr1
  6326     0EA5  00BC               	movwf	___flmul@a
  6327     0EA6  3F41               	moviw [1]fsr1
  6328     0EA7  00BD               	movwf	___flmul@a+1
  6329     0EA8  3F42               	moviw [2]fsr1
  6330     0EA9  00BE               	movwf	___flmul@a+2
  6331     0EAA  3F43               	moviw [3]fsr1
  6332     0EAB  00BF               	movwf	___flmul@a+3
  6333     0EAC  3195  25C5  3188   	fcall	___flmul
  6334     0EAF  0020               	movlb	0	; select bank0
  6335     0EB0  083B               	movf	?___flmul+3,w
  6336     0EB1  00A3               	movwf	___fladd@b+3
  6337     0EB2  083A               	movf	?___flmul+2,w
  6338     0EB3  00A2               	movwf	___fladd@b+2
  6339     0EB4  0839               	movf	?___flmul+1,w
  6340     0EB5  00A1               	movwf	___fladd@b+1
  6341     0EB6  0838               	movf	?___flmul,w
  6342     0EB7  00A0               	movwf	___fladd@b
  6343     0EB8  0021               	movlb	1	; select bank1
  6344     0EB9  0867               	movf	(_ml_predict$979+3)^(0+128),w
  6345     0EBA  0020               	movlb	0	; select bank0
  6346     0EBB  00A7               	movwf	___fladd@a+3
  6347     0EBC  0021               	movlb	1	; select bank1
  6348     0EBD  0866               	movf	(_ml_predict$979+2)^(0+128),w
  6349     0EBE  0020               	movlb	0	; select bank0
  6350     0EBF  00A6               	movwf	___fladd@a+2
  6351     0EC0  0021               	movlb	1	; select bank1
  6352     0EC1  0865               	movf	(_ml_predict$979+1)^(0+128),w
  6353     0EC2  0020               	movlb	0	; select bank0
  6354     0EC3  00A5               	movwf	___fladd@a+1
  6355     0EC4  0021               	movlb	1	; select bank1
  6356     0EC5  0864               	movf	_ml_predict$979^(0+128),w
  6357     0EC6  0020               	movlb	0	; select bank0
  6358     0EC7  00A4               	movwf	___fladd@a
  6359     0EC8  3193  23BA  3188   	fcall	___fladd
  6360     0ECB  0020               	movlb	0	; select bank0
  6361     0ECC  0823               	movf	?___fladd+3,w
  6362     0ECD  0021               	movlb	1	; select bank1
  6363     0ECE  00EB               	movwf	(_ml_predict$980+3)^(0+128)
  6364     0ECF  0020               	movlb	0	; select bank0
  6365     0ED0  0822               	movf	?___fladd+2,w
  6366     0ED1  0021               	movlb	1	; select bank1
  6367     0ED2  00EA               	movwf	(_ml_predict$980+2)^(0+128)
  6368     0ED3  0020               	movlb	0	; select bank0
  6369     0ED4  0821               	movf	?___fladd+1,w
  6370     0ED5  0021               	movlb	1	; select bank1
  6371     0ED6  00E9               	movwf	(_ml_predict$980+1)^(0+128)
  6372     0ED7  0020               	movlb	0	; select bank0
  6373     0ED8  0820               	movf	?___fladd,w
  6374     0ED9  0021               	movlb	1	; select bank1
  6375     0EDA  00E8               	movwf	_ml_predict$980^(0+128)
  6376                           
  6377                           ;./ml.h: 110:     decisions[2] = 6.780971185110271f + kernels[3] + kernels[4] + kernels[
      +                          5] + kernels[6] + kernels[7] + kernels[8] + kernels[9] + kernels[10] * 0.243261886420926
      +                          1f + kernels[11] + kernels[12] + kernels[13] - kernels[15] - kernels[16] - kernels[17] -
      +                           kernels[18] - kernels[19] - kernels[20] + kernels[21] * -0.43785981786340306f - kernels
      +                          [22] - kernels[23] + kernels[24] * -0.6451053479812653f + kernels[25] * -0.1602967205762
      +                          578f - kernels[26];
  6378     0EDB  30BE               	movlw	190
  6379     0EDC  0020               	movlb	0	; select bank0
  6380     0EDD  00BB               	movwf	___flmul@b+3
  6381     0EDE  3024               	movlw	36
  6382     0EDF  00BA               	movwf	___flmul@b+2
  6383     0EE0  3024               	movlw	36
  6384     0EE1  00B9               	movwf	___flmul@b+1
  6385     0EE2  30D3               	movlw	211
  6386     0EE3  00B8               	movwf	___flmul@b
  6387     0EE4  30E8               	movlw	232
  6388     0EE5  0086               	movwf	6
  6389     0EE6  3027               	movlw	39
  6390     0EE7  0087               	movwf	7
  6391     0EE8  3F40               	moviw [0]fsr1
  6392     0EE9  00BC               	movwf	___flmul@a
  6393     0EEA  3F41               	moviw [1]fsr1
  6394     0EEB  00BD               	movwf	___flmul@a+1
  6395     0EEC  3F42               	moviw [2]fsr1
  6396     0EED  00BE               	movwf	___flmul@a+2
  6397     0EEE  3F43               	moviw [3]fsr1
  6398     0EEF  00BF               	movwf	___flmul@a+3
  6399     0EF0  3195  25C5  3188   	fcall	___flmul
  6400     0EF3  0020               	movlb	0	; select bank0
  6401     0EF4  083B               	movf	?___flmul+3,w
  6402     0EF5  00A3               	movwf	___fladd@b+3
  6403     0EF6  083A               	movf	?___flmul+2,w
  6404     0EF7  00A2               	movwf	___fladd@b+2
  6405     0EF8  0839               	movf	?___flmul+1,w
  6406     0EF9  00A1               	movwf	___fladd@b+1
  6407     0EFA  0838               	movf	?___flmul,w
  6408     0EFB  00A0               	movwf	___fladd@b
  6409     0EFC  0021               	movlb	1	; select bank1
  6410     0EFD  086B               	movf	(_ml_predict$980+3)^(0+128),w
  6411     0EFE  0020               	movlb	0	; select bank0
  6412     0EFF  00A7               	movwf	___fladd@a+3
  6413     0F00  0021               	movlb	1	; select bank1
  6414     0F01  086A               	movf	(_ml_predict$980+2)^(0+128),w
  6415     0F02  0020               	movlb	0	; select bank0
  6416     0F03  00A6               	movwf	___fladd@a+2
  6417     0F04  0021               	movlb	1	; select bank1
  6418     0F05  0869               	movf	(_ml_predict$980+1)^(0+128),w
  6419     0F06  0020               	movlb	0	; select bank0
  6420     0F07  00A5               	movwf	___fladd@a+1
  6421     0F08  0021               	movlb	1	; select bank1
  6422     0F09  0868               	movf	_ml_predict$980^(0+128),w
  6423     0F0A  0020               	movlb	0	; select bank0
  6424     0F0B  00A4               	movwf	___fladd@a
  6425     0F0C  3193  23BA  3188   	fcall	___fladd
  6426     0F0F  0020               	movlb	0	; select bank0
  6427     0F10  0823               	movf	?___fladd+3,w
  6428     0F11  0021               	movlb	1	; select bank1
  6429     0F12  00EF               	movwf	(_ml_predict$981+3)^(0+128)
  6430     0F13  0020               	movlb	0	; select bank0
  6431     0F14  0822               	movf	?___fladd+2,w
  6432     0F15  0021               	movlb	1	; select bank1
  6433     0F16  00EE               	movwf	(_ml_predict$981+2)^(0+128)
  6434     0F17  0020               	movlb	0	; select bank0
  6435     0F18  0821               	movf	?___fladd+1,w
  6436     0F19  0021               	movlb	1	; select bank1
  6437     0F1A  00ED               	movwf	(_ml_predict$981+1)^(0+128)
  6438     0F1B  0020               	movlb	0	; select bank0
  6439     0F1C  0820               	movf	?___fladd,w
  6440     0F1D  0021               	movlb	1	; select bank1
  6441     0F1E  00EC               	movwf	_ml_predict$981^(0+128)
  6442                           
  6443                           ;./ml.h: 110:     decisions[2] = 6.780971185110271f + kernels[3] + kernels[4] + kernels[
      +                          5] + kernels[6] + kernels[7] + kernels[8] + kernels[9] + kernels[10] * 0.243261886420926
      +                          1f + kernels[11] + kernels[12] + kernels[13] - kernels[15] - kernels[16] - kernels[17] -
      +                           kernels[18] - kernels[19] - kernels[20] + kernels[21] * -0.43785981786340306f - kernels
      +                          [22] - kernels[23] + kernels[24] * -0.6451053479812653f + kernels[25] * -0.1602967205762
      +                          578f - kernels[26];
  6444     0F1F  30EC               	movlw	236
  6445     0F20  0086               	movwf	6
  6446     0F21  3027               	movlw	39
  6447     0F22  0087               	movwf	7
  6448     0F23  3F40               	moviw [0]fsr1
  6449     0F24  0020               	movlb	0	; select bank0
  6450     0F25  00B0               	movwf	___flsub@a
  6451     0F26  3F41               	moviw [1]fsr1
  6452     0F27  00B1               	movwf	___flsub@a+1
  6453     0F28  3F42               	moviw [2]fsr1
  6454     0F29  00B2               	movwf	___flsub@a+2
  6455     0F2A  3F43               	moviw [3]fsr1
  6456     0F2B  00B3               	movwf	___flsub@a+3
  6457     0F2C  0021               	movlb	1	; select bank1
  6458     0F2D  086F               	movf	(_ml_predict$981+3)^(0+128),w
  6459     0F2E  0020               	movlb	0	; select bank0
  6460     0F2F  00B7               	movwf	___flsub@b+3
  6461     0F30  0021               	movlb	1	; select bank1
  6462     0F31  086E               	movf	(_ml_predict$981+2)^(0+128),w
  6463     0F32  0020               	movlb	0	; select bank0
  6464     0F33  00B6               	movwf	___flsub@b+2
  6465     0F34  0021               	movlb	1	; select bank1
  6466     0F35  086D               	movf	(_ml_predict$981+1)^(0+128),w
  6467     0F36  0020               	movlb	0	; select bank0
  6468     0F37  00B5               	movwf	___flsub@b+1
  6469     0F38  0021               	movlb	1	; select bank1
  6470     0F39  086C               	movf	_ml_predict$981^(0+128),w
  6471     0F3A  0020               	movlb	0	; select bank0
  6472     0F3B  00B4               	movwf	___flsub@b
  6473     0F3C  31A7  2794  3188   	fcall	___flsub
  6474     0F3F  0020               	movlb	0	; select bank0
  6475     0F40  0833               	movf	?___flsub+3,w
  6476     0F41  0023               	movlb	3	; select bank3
  6477     0F42  00BF               	movwf	((_decisions+3)^(0+384)+8)
  6478     0F43  0020               	movlb	0	; select bank0
  6479     0F44  0832               	movf	?___flsub+2,w
  6480     0F45  0023               	movlb	3	; select bank3
  6481     0F46  00BE               	movwf	((_decisions+2)^(0+384)+8)
  6482     0F47  0020               	movlb	0	; select bank0
  6483     0F48  0831               	movf	?___flsub+1,w
  6484     0F49  0023               	movlb	3	; select bank3
  6485     0F4A  00BD               	movwf	((_decisions+1)^(0+384)+8)
  6486     0F4B  0020               	movlb	0	; select bank0
  6487     0F4C  0830               	movf	?___flsub,w
  6488     0F4D  0023               	movlb	3	; select bank3
  6489     0F4E  00BC               	movwf	(_decisions^(0+384)+8)
  6490                           
  6491                           ;./ml.h: 113:     votes[decisions[0] > 0.0f ? 0 : 1]++;
  6492     0F4F  3001               	movlw	1
  6493     0F50  0020               	movlb	0	; select bank0
  6494     0F51  00EA               	movwf	??_ml_predict
  6495     0F52  3000               	movlw	0
  6496     0F53  00F3               	movwf	___flge@ff1+3
  6497     0F54  3000               	movlw	0
  6498     0F55  00F2               	movwf	___flge@ff1+2
  6499     0F56  3000               	movlw	0
  6500     0F57  00F1               	movwf	___flge@ff1+1
  6501     0F58  3000               	movlw	0
  6502     0F59  00F0               	movwf	___flge@ff1
  6503     0F5A  0023               	movlb	3	; select bank3
  6504     0F5B  0837               	movf	(_decisions+3)^(0+384),w
  6505     0F5C  00F7               	movwf	___flge@ff2+3
  6506     0F5D  0836               	movf	(_decisions+2)^(0+384),w
  6507     0F5E  00F6               	movwf	___flge@ff2+2
  6508     0F5F  0835               	movf	(_decisions+1)^(0+384),w
  6509     0F60  00F5               	movwf	___flge@ff2+1
  6510     0F61  0834               	movf	_decisions^(0+384),w
  6511     0F62  00F4               	movwf	___flge@ff2
  6512     0F63  319D  2516  3188   	fcall	___flge
  6513     0F66  3000               	movlw	0
  6514     0F67  3D09               	addwfc	9,w
  6515     0F68  3E69               	addlw	(low (_votes| (0+256)))& (0+255)
  6516     0F69  0086               	movwf	6
  6517     0F6A  3001               	movlw	1	; select bank2/3
  6518     0F6B  0087               	movwf	7
  6519     0F6C  0020               	movlb	0	; select bank0
  6520     0F6D  086A               	movf	??_ml_predict,w
  6521     0F6E  0781               	addwf	1,f
  6522                           
  6523                           ;./ml.h: 114:     votes[decisions[1] > 0.0f ? 0 : 2]++;
  6524     0F6F  3000               	movlw	0
  6525     0F70  00F3               	movwf	___flge@ff1+3
  6526     0F71  3000               	movlw	0
  6527     0F72  00F2               	movwf	___flge@ff1+2
  6528     0F73  3000               	movlw	0
  6529     0F74  00F1               	movwf	___flge@ff1+1
  6530     0F75  3000               	movlw	0
  6531     0F76  00F0               	movwf	___flge@ff1
  6532     0F77  3004               	movlw	4
  6533     0F78  3EB4               	addlw	(low (_decisions| (0+256)))& (0+255)
  6534     0F79  0086               	movwf	6
  6535     0F7A  3001               	movlw	1	; select bank3/4
  6536     0F7B  0087               	movwf	7
  6537     0F7C  3F40               	moviw [0]fsr1
  6538     0F7D  00F4               	movwf	___flge@ff2
  6539     0F7E  3F41               	moviw [1]fsr1
  6540     0F7F  00F5               	movwf	___flge@ff2+1
  6541     0F80  3F42               	moviw [2]fsr1
  6542     0F81  00F6               	movwf	___flge@ff2+2
  6543     0F82  3F43               	moviw [3]fsr1
  6544     0F83  00F7               	movwf	___flge@ff2+3
  6545     0F84  319D  2516  3188   	fcall	___flge
  6546     0F87  1C03               	btfss	3,0
  6547     0F88  2F8A               	goto	u6681
  6548     0F89  2F8B               	goto	u6680
  6549     0F8A                     u6681:
  6550     0F8A  2F91               	goto	l4302
  6551     0F8B                     u6680:
  6552     0F8B                     l4300:
  6553     0F8B  3002               	movlw	2
  6554     0F8C  0022               	movlb	2	; select bank2
  6555     0F8D  00A0               	movwf	_ml_predict$253^(0+256)
  6556     0F8E  3000               	movlw	0
  6557     0F8F  00A1               	movwf	(_ml_predict$253^(0+256)+1)
  6558     0F90  2F94               	goto	l4304
  6559     0F91                     l4302:
  6560     0F91  0022               	movlb	2	; select bank2
  6561     0F92  01A0               	clrf	_ml_predict$253^(0+256)
  6562     0F93  01A1               	clrf	(_ml_predict$253+1)^(0+256)
  6563     0F94                     l4304:
  6564     0F94  3001               	movlw	1
  6565     0F95  0020               	movlb	0	; select bank0
  6566     0F96  00EA               	movwf	??_ml_predict
  6567     0F97  0022               	movlb	2	; select bank2
  6568     0F98  0820               	movf	_ml_predict$253^(0+256),w
  6569     0F99  3E69               	addlw	(low (_votes| (0+256)))& (0+255)
  6570     0F9A  0086               	movwf	6
  6571     0F9B  3001               	movlw	1	; select bank2/3
  6572     0F9C  0087               	movwf	7
  6573     0F9D  0020               	movlb	0	; select bank0
  6574     0F9E  086A               	movf	??_ml_predict,w
  6575     0F9F  0781               	addwf	1,f
  6576     0FA0                     l4306:
  6577                           
  6578                           ;./ml.h: 115:     votes[decisions[2] > 0.0f ? 1 : 2]++;
  6579     0FA0  3000               	movlw	0
  6580     0FA1  00F3               	movwf	___flge@ff1+3
  6581     0FA2  3000               	movlw	0
  6582     0FA3  00F2               	movwf	___flge@ff1+2
  6583     0FA4  3000               	movlw	0
  6584     0FA5  00F1               	movwf	___flge@ff1+1
  6585     0FA6  3000               	movlw	0
  6586     0FA7  00F0               	movwf	___flge@ff1
  6587     0FA8  3008               	movlw	8
  6588     0FA9  3EB4               	addlw	(low (_decisions| (0+256)))& (0+255)
  6589     0FAA  0086               	movwf	6
  6590     0FAB  3001               	movlw	1	; select bank3/4
  6591     0FAC  0087               	movwf	7
  6592     0FAD  3F40               	moviw [0]fsr1
  6593     0FAE  00F4               	movwf	___flge@ff2
  6594     0FAF  3F41               	moviw [1]fsr1
  6595     0FB0  00F5               	movwf	___flge@ff2+1
  6596     0FB1  3F42               	moviw [2]fsr1
  6597     0FB2  00F6               	movwf	___flge@ff2+2
  6598     0FB3  3F43               	moviw [3]fsr1
  6599     0FB4  00F7               	movwf	___flge@ff2+3
  6600     0FB5  319D  2516  3188   	fcall	___flge
  6601     0FB8  1C03               	btfss	3,0
  6602     0FB9  2FBB               	goto	u6691
  6603     0FBA  2FBC               	goto	u6690
  6604     0FBB                     u6691:
  6605     0FBB  2FC2               	goto	l4310
  6606     0FBC                     u6690:
  6607     0FBC                     l4308:
  6608     0FBC  3002               	movlw	2
  6609     0FBD  0022               	movlb	2	; select bank2
  6610     0FBE  00A2               	movwf	_ml_predict$254^(0+256)
  6611     0FBF  3000               	movlw	0
  6612     0FC0  00A3               	movwf	(_ml_predict$254^(0+256)+1)
  6613     0FC1  2FC7               	goto	l4312
  6614     0FC2                     l4310:
  6615     0FC2  3001               	movlw	1
  6616     0FC3  0022               	movlb	2	; select bank2
  6617     0FC4  00A2               	movwf	_ml_predict$254^(0+256)
  6618     0FC5  3000               	movlw	0
  6619     0FC6  00A3               	movwf	(_ml_predict$254^(0+256)+1)
  6620     0FC7                     l4312:
  6621     0FC7  3001               	movlw	1
  6622     0FC8  0020               	movlb	0	; select bank0
  6623     0FC9  00EA               	movwf	??_ml_predict
  6624     0FCA  0022               	movlb	2	; select bank2
  6625     0FCB  0822               	movf	_ml_predict$254^(0+256),w
  6626     0FCC  3E69               	addlw	(low (_votes| (0+256)))& (0+255)
  6627     0FCD  0086               	movwf	6
  6628     0FCE  3001               	movlw	1	; select bank2/3
  6629     0FCF  0087               	movwf	7
  6630     0FD0  0020               	movlb	0	; select bank0
  6631     0FD1  086A               	movf	??_ml_predict,w
  6632     0FD2  0781               	addwf	1,f
  6633     0FD3                     l4314:
  6634                           
  6635                           ;./ml.h: 118:     for (i = 0; i < 3; i++) {
  6636     0FD3  0022               	movlb	2	; select bank2
  6637     0FD4  01AD               	clrf	ml_predict@i^(0+256)
  6638     0FD5                     l4320:
  6639                           
  6640                           ;./ml.h: 119:         if (votes[i] > max_votes) {
  6641     0FD5  0824               	movf	ml_predict@max_votes^(0+256),w
  6642     0FD6  3A80               	xorlw	128
  6643     0FD7  0020               	movlb	0	; select bank0
  6644     0FD8  00EA               	movwf	??_ml_predict
  6645     0FD9  0022               	movlb	2	; select bank2
  6646     0FDA  082D               	movf	ml_predict@i^(0+256),w
  6647     0FDB  3E69               	addlw	(low (_votes| (0+256)))& (0+255)
  6648     0FDC  0086               	movwf	6
  6649     0FDD  3001               	movlw	1	; select bank2/3
  6650     0FDE  0087               	movwf	7
  6651     0FDF  0801               	movf	1,w
  6652     0FE0  3A80               	xorlw	128
  6653     0FE1  0020               	movlb	0	; select bank0
  6654     0FE2  02EA               	subwf	??_ml_predict,f
  6655     0FE3  1803               	skipnc
  6656     0FE4  2FE6               	goto	u6701
  6657     0FE5  2FE7               	goto	u6700
  6658     0FE6                     u6701:
  6659     0FE6  2FF2               	goto	l4326
  6660     0FE7                     u6700:
  6661     0FE7                     l4322:
  6662                           
  6663                           ;./ml.h: 120:             max_votes = votes[i];
  6664     0FE7  0022               	movlb	2	; select bank2
  6665     0FE8  082D               	movf	ml_predict@i^(0+256),w
  6666     0FE9  3E69               	addlw	(low (_votes| (0+256)))& (0+255)
  6667     0FEA  0086               	movwf	6
  6668     0FEB  3001               	movlw	1	; select bank2/3
  6669     0FEC  0087               	movwf	7
  6670     0FED  0801               	movf	1,w
  6671     0FEE  00A4               	movwf	ml_predict@max_votes^(0+256)
  6672     0FEF                     l4324:
  6673                           
  6674                           ;./ml.h: 121:             class_idx = (signed char)i;
  6675     0FEF  082D               	movf	ml_predict@i^(0+256),w
  6676     0FF0  0020               	movlb	0	; select bank0
  6677     0FF1  00EE               	movwf	ml_predict@class_idx
  6678     0FF2                     l4326:
  6679                           
  6680                           ;./ml.h: 123:     }
  6681     0FF2  3001               	movlw	1
  6682     0FF3  00EA               	movwf	??_ml_predict
  6683     0FF4  086A               	movf	??_ml_predict,w
  6684     0FF5  0022               	movlb	2	; select bank2
  6685     0FF6  07AD               	addwf	ml_predict@i^(0+256),f
  6686     0FF7                     l4328:
  6687     0FF7  3003               	movlw	3
  6688     0FF8  022D               	subwf	ml_predict@i^(0+256),w
  6689     0FF9  1C03               	skipc
  6690     0FFA  2FFC               	goto	u6711
  6691     0FFB  2FFD               	goto	u6710
  6692     0FFC                     u6711:
  6693     0FFC  2FD5               	goto	l4320
  6694     0FFD                     u6710:
  6695     0FFD                     l4330:
  6696                           
  6697                           ;./ml.h: 125:     return class_idx;
  6698     0FFD  0020               	movlb	0	; select bank0
  6699     0FFE  086E               	movf	ml_predict@class_idx,w
  6700     0FFF                     l168:
  6701     0FFF  0008               	return
  6702     1000                     __end_of_ml_predict:
  6703                           
  6704                           	psect	text10
  6705     1C8F                     __ptext10:	
  6706 ;; *************** function _ml_compute_kernel *****************
  6707 ;; Defined at:
  6708 ;;		line 71 in file "./ml.h"
  6709 ;; Parameters:    Size  Location     Type
  6710 ;;  x               1    wreg     PTR const float 
  6711 ;;		 -> process_command@features(16), run_demo@test_samples(48), 
  6712 ;;  sv_idx          1   50[BANK0 ] unsigned char 
  6713 ;; Auto vars:     Size  Location     Type
  6714 ;;  x               1   68[BANK0 ] PTR const float 
  6715 ;;		 -> process_command@features(16), run_demo@test_samples(48), 
  6716 ;;  kernel          4   69[BANK0 ] float 
  6717 ;;  i               1   73[BANK0 ] unsigned char 
  6718 ;; Return value:  Size  Location     Type
  6719 ;;                  4   50[BANK0 ] float 
  6720 ;; Registers used:
  6721 ;;		wreg, fsr0l, fsr0h, fsr1l, fsr1h, status,2, status,0, pclath, cstack
  6722 ;; Tracked objects:
  6723 ;;		On entry : 0/0
  6724 ;;		On exit  : 0/0
  6725 ;;		Unchanged: 0/0
  6726 ;; Data sizes:     COMMON   BANK0   BANK1   BANK2   BANK3   BANK4   BANK5   BANK6   BANK7   BANK8   BANK9  BANK10  BANK1
      +1  BANK12  BANK13  BANK14  BANK15  BANK16  BANK17  BANK18  BANK19  BANK20  BANK21  BANK22  BANK23  BANK24  BANK25
  6727 ;;      Params:         0       4       0       0       0       0       0       0       0       0       0       0       
      +0       0       0       0       0       0       0       0       0       0       0       0       0       0       0
  6728 ;;      Locals:         0       6       0       0       0       0       0       0       0       0       0       0       
      +0       0       0       0       0       0       0       0       0       0       0       0       0       0       0
  6729 ;;      Temps:          0      14       0       0       0       0       0       0       0       0       0       0       
      +0       0       0       0       0       0       0       0       0       0       0       0       0       0       0
  6730 ;;      Totals:         0      24       0       0       0       0       0       0       0       0       0       0       
      +0       0       0       0       0       0       0       0       0       0       0       0       0       0       0
  6731 ;;Total ram usage:       24 bytes
  6732 ;; Hardware stack levels used: 1
  6733 ;; Hardware stack levels required when called: 2
  6734 ;; This function calls:
  6735 ;;		___fladd
  6736 ;;		___flmul
  6737 ;; This function is called by:
  6738 ;;		_ml_predict
  6739 ;; This function uses a non-reentrant model
  6740 ;;
  6741                           
  6742     1C8F                     _ml_compute_kernel:	
  6743                           ;psect for function _ml_compute_kernel
  6744                           
  6745                           
  6746                           ;incstack = 0
  6747                           ; Regs used in _ml_compute_kernel: [wreg-fsr1h+status,2+status,0+pclath+cstack]
  6748                           ;ml_compute_kernel@x stored from wreg
  6749     1C8F  0020               	movlb	0	; select bank0
  6750     1C90  00E4               	movwf	ml_compute_kernel@x
  6751     1C91                     l4256:
  6752                           
  6753                           ;./ml.h: 71: static float ml_compute_kernel(const float *x, unsigned char sv_idx);./ml.h
      +                          : 72: {;./ml.h: 73:     float kernel = 0.0f;
  6754     1C91  3000               	movlw	0
  6755     1C92  00E8               	movwf	ml_compute_kernel@kernel+3
  6756     1C93  3000               	movlw	0
  6757     1C94  00E7               	movwf	ml_compute_kernel@kernel+2
  6758     1C95  3000               	movlw	0
  6759     1C96  00E6               	movwf	ml_compute_kernel@kernel+1
  6760     1C97  3000               	movlw	0
  6761     1C98  00E5               	movwf	ml_compute_kernel@kernel
  6762     1C99                     l4258:
  6763                           
  6764                           ;./ml.h: 74:     unsigned char i;;./ml.h: 76:     for (i = 0; i < 4; i++) {
  6765     1C99  01E9               	clrf	ml_compute_kernel@i
  6766     1C9A                     l4264:
  6767                           
  6768                           ;./ml.h: 77:         kernel += x[i] * ml_support_vectors[sv_idx][i];
  6769     1C9A  0869               	movf	ml_compute_kernel@i,w
  6770     1C9B  00D6               	movwf	??_ml_compute_kernel
  6771     1C9C  3001               	movlw	1
  6772     1C9D                     u6645:
  6773     1C9D  35D6               	lslf	??_ml_compute_kernel,f
  6774     1C9E  3EFF               	addlw	-1
  6775     1C9F  1D03               	skipz
  6776     1CA0  2C9D               	goto	u6645
  6777     1CA1  3556               	lslf	??_ml_compute_kernel,w
  6778     1CA2  0764               	addwf	ml_compute_kernel@x,w
  6779     1CA3  00D7               	movwf	??_ml_compute_kernel+1
  6780     1CA4  0857               	movf	??_ml_compute_kernel+1,w
  6781     1CA5  0086               	movwf	6
  6782     1CA6  3001               	movlw	1	; select bank2/3
  6783     1CA7  0087               	movwf	7
  6784     1CA8  3F40               	moviw [0]fsr1
  6785     1CA9  00BC               	movwf	___flmul@a
  6786     1CAA  3F41               	moviw [1]fsr1
  6787     1CAB  00BD               	movwf	___flmul@a+1
  6788     1CAC  3F42               	moviw [2]fsr1
  6789     1CAD  00BE               	movwf	___flmul@a+2
  6790     1CAE  3F43               	moviw [3]fsr1
  6791     1CAF  00BF               	movwf	___flmul@a+3
  6792     1CB0  0869               	movf	ml_compute_kernel@i,w
  6793     1CB1  00D8               	movwf	??_ml_compute_kernel+2
  6794     1CB2  01D9               	clrf	??_ml_compute_kernel+3
  6795     1CB3  35D8               	lslf	??_ml_compute_kernel+2,f
  6796     1CB4  0DD9               	rlf	??_ml_compute_kernel+3,f
  6797     1CB5  35D8               	lslf	??_ml_compute_kernel+2,f
  6798     1CB6  0DD9               	rlf	??_ml_compute_kernel+3,f
  6799     1CB7  0852               	movf	ml_compute_kernel@sv_idx,w
  6800     1CB8  00DA               	movwf	??_ml_compute_kernel+4
  6801     1CB9  01DB               	clrf	??_ml_compute_kernel+5
  6802     1CBA  0EDA               	swapf	??_ml_compute_kernel+4,f
  6803     1CBB  0EDB               	swapf	??_ml_compute_kernel+5,f
  6804     1CBC  30F0               	movlw	240
  6805     1CBD  05DB               	andwf	??_ml_compute_kernel+5,f
  6806     1CBE  085A               	movf	??_ml_compute_kernel+4,w
  6807     1CBF  390F               	andlw	15
  6808     1CC0  04DB               	iorwf	??_ml_compute_kernel+5,f
  6809     1CC1  30F0               	movlw	240
  6810     1CC2  05DA               	andwf	??_ml_compute_kernel+4,f
  6811     1CC3  3000               	movlw	low (_ml_support_vectors| (0+32768))
  6812     1CC4  00DC               	movwf	??_ml_compute_kernel+6
  6813     1CC5  3098               	movlw	high (_ml_support_vectors| (0+32768))
  6814     1CC6  00DD               	movwf	??_ml_compute_kernel+7
  6815     1CC7  085A               	movf	??_ml_compute_kernel+4,w
  6816     1CC8  075C               	addwf	??_ml_compute_kernel+6,w
  6817     1CC9  00DE               	movwf	??_ml_compute_kernel+8
  6818     1CCA  085B               	movf	??_ml_compute_kernel+5,w
  6819     1CCB  3D5D               	addwfc	??_ml_compute_kernel+7,w
  6820     1CCC  00DF               	movwf	??_ml_compute_kernel+9
  6821     1CCD  085E               	movf	??_ml_compute_kernel+8,w
  6822     1CCE  0758               	addwf	??_ml_compute_kernel+2,w
  6823     1CCF  0084               	movwf	4
  6824     1CD0  085F               	movf	??_ml_compute_kernel+9,w
  6825     1CD1  3D59               	addwfc	??_ml_compute_kernel+3,w
  6826     1CD2  0085               	movwf	5
  6827     1CD3  3F00               	moviw [0]fsr0
  6828     1CD4  00E0               	movwf	??_ml_compute_kernel+10
  6829     1CD5  3F01               	moviw [1]fsr0
  6830     1CD6  00E1               	movwf	??_ml_compute_kernel+11
  6831     1CD7  3F02               	moviw [2]fsr0
  6832     1CD8  00E2               	movwf	??_ml_compute_kernel+12
  6833     1CD9  3F03               	moviw [3]fsr0
  6834     1CDA  00E3               	movwf	??_ml_compute_kernel+13
  6835     1CDB  0863               	movf	??_ml_compute_kernel+13,w
  6836     1CDC  00BB               	movwf	___flmul@b+3
  6837     1CDD  0862               	movf	??_ml_compute_kernel+12,w
  6838     1CDE  00BA               	movwf	___flmul@b+2
  6839     1CDF  0861               	movf	??_ml_compute_kernel+11,w
  6840     1CE0  00B9               	movwf	___flmul@b+1
  6841     1CE1  0860               	movf	??_ml_compute_kernel+10,w
  6842     1CE2  00B8               	movwf	___flmul@b
  6843     1CE3  3195  25C5  319C   	fcall	___flmul
  6844     1CE6  0020               	movlb	0	; select bank0
  6845     1CE7  083B               	movf	?___flmul+3,w
  6846     1CE8  00A3               	movwf	___fladd@b+3
  6847     1CE9  083A               	movf	?___flmul+2,w
  6848     1CEA  00A2               	movwf	___fladd@b+2
  6849     1CEB  0839               	movf	?___flmul+1,w
  6850     1CEC  00A1               	movwf	___fladd@b+1
  6851     1CED  0838               	movf	?___flmul,w
  6852     1CEE  00A0               	movwf	___fladd@b
  6853     1CEF  0868               	movf	ml_compute_kernel@kernel+3,w
  6854     1CF0  00A7               	movwf	___fladd@a+3
  6855     1CF1  0867               	movf	ml_compute_kernel@kernel+2,w
  6856     1CF2  00A6               	movwf	___fladd@a+2
  6857     1CF3  0866               	movf	ml_compute_kernel@kernel+1,w
  6858     1CF4  00A5               	movwf	___fladd@a+1
  6859     1CF5  0865               	movf	ml_compute_kernel@kernel,w
  6860     1CF6  00A4               	movwf	___fladd@a
  6861     1CF7  3193  23BA  319C   	fcall	___fladd
  6862     1CFA  0020               	movlb	0	; select bank0
  6863     1CFB  0823               	movf	?___fladd+3,w
  6864     1CFC  00E8               	movwf	ml_compute_kernel@kernel+3
  6865     1CFD  0822               	movf	?___fladd+2,w
  6866     1CFE  00E7               	movwf	ml_compute_kernel@kernel+2
  6867     1CFF  0821               	movf	?___fladd+1,w
  6868     1D00  00E6               	movwf	ml_compute_kernel@kernel+1
  6869     1D01  0820               	movf	?___fladd,w
  6870     1D02  00E5               	movwf	ml_compute_kernel@kernel
  6871     1D03                     l4266:
  6872                           
  6873                           ;./ml.h: 78:     }
  6874     1D03  3001               	movlw	1
  6875     1D04  00D6               	movwf	??_ml_compute_kernel
  6876     1D05  0856               	movf	??_ml_compute_kernel,w
  6877     1D06  07E9               	addwf	ml_compute_kernel@i,f
  6878     1D07                     l4268:
  6879     1D07  3004               	movlw	4
  6880     1D08  0269               	subwf	ml_compute_kernel@i,w
  6881     1D09  1C03               	skipc
  6882     1D0A  2D0C               	goto	u6651
  6883     1D0B  2D0D               	goto	u6650
  6884     1D0C                     u6651:
  6885     1D0C  2C9A               	goto	l4264
  6886     1D0D                     u6650:
  6887     1D0D                     l4270:
  6888                           
  6889                           ;./ml.h: 79:     return kernel;
  6890     1D0D  0868               	movf	ml_compute_kernel@kernel+3,w
  6891     1D0E  00D5               	movwf	?_ml_compute_kernel+3
  6892     1D0F  0867               	movf	ml_compute_kernel@kernel+2,w
  6893     1D10  00D4               	movwf	?_ml_compute_kernel+2
  6894     1D11  0866               	movf	ml_compute_kernel@kernel+1,w
  6895     1D12  00D3               	movwf	?_ml_compute_kernel+1
  6896     1D13  0865               	movf	ml_compute_kernel@kernel,w
  6897     1D14  00D2               	movwf	?_ml_compute_kernel
  6898     1D15                     l144:
  6899     1D15  0008               	return
  6900     1D16                     __end_of_ml_compute_kernel:
  6901                           
  6902                           	psect	text11
  6903     2794                     __ptext11:	
  6904 ;; *************** function ___flsub *****************
  6905 ;; Defined at:
  6906 ;;		line 242 in file "C:\Program Files\Microchip\xc8\v2.46\pic\sources\c99\common\sprcadd.c"
  6907 ;; Parameters:    Size  Location     Type
  6908 ;;  a               4   16[BANK0 ] float 
  6909 ;;  b               4   20[BANK0 ] float 
  6910 ;; Auto vars:     Size  Location     Type
  6911 ;;		None
  6912 ;; Return value:  Size  Location     Type
  6913 ;;                  4   16[BANK0 ] float 
  6914 ;; Registers used:
  6915 ;;		wreg, status,2, status,0, pclath, cstack
  6916 ;; Tracked objects:
  6917 ;;		On entry : 0/0
  6918 ;;		On exit  : 0/0
  6919 ;;		Unchanged: 0/0
  6920 ;; Data sizes:     COMMON   BANK0   BANK1   BANK2   BANK3   BANK4   BANK5   BANK6   BANK7   BANK8   BANK9  BANK10  BANK1
      +1  BANK12  BANK13  BANK14  BANK15  BANK16  BANK17  BANK18  BANK19  BANK20  BANK21  BANK22  BANK23  BANK24  BANK25
  6921 ;;      Params:         0       8       0       0       0       0       0       0       0       0       0       0       
      +0       0       0       0       0       0       0       0       0       0       0       0       0       0       0
  6922 ;;      Locals:         0       0       0       0       0       0       0       0       0       0       0       0       
      +0       0       0       0       0       0       0       0       0       0       0       0       0       0       0
  6923 ;;      Temps:          0       0       0       0       0       0       0       0       0       0       0       0       
      +0       0       0       0       0       0       0       0       0       0       0       0       0       0       0
  6924 ;;      Totals:         0       8       0       0       0       0       0       0       0       0       0       0       
      +0       0       0       0       0       0       0       0       0       0       0       0       0       0       0
  6925 ;;Total ram usage:        8 bytes
  6926 ;; Hardware stack levels used: 1
  6927 ;; Hardware stack levels required when called: 1
  6928 ;; This function calls:
  6929 ;;		___fladd
  6930 ;; This function is called by:
  6931 ;;		_ml_predict
  6932 ;;		_print_float
  6933 ;; This function uses a non-reentrant model
  6934 ;;
  6935                           
  6936     2794                     ___flsub:	
  6937                           ;psect for function ___flsub
  6938                           
  6939     2794                     l3208:	
  6940                           ;incstack = 0
  6941                           ; Regs used in ___flsub: [wreg+status,2+status,0+pclath+cstack]
  6942                           
  6943     2794  3080               	movlw	128
  6944     2795  0020               	movlb	0	; select bank0
  6945     2796  06B3               	xorwf	___flsub@a+3,f
  6946     2797                     l3210:
  6947     2797  0837               	movf	___flsub@b+3,w
  6948     2798  00A3               	movwf	___fladd@b+3
  6949     2799  0836               	movf	___flsub@b+2,w
  6950     279A  00A2               	movwf	___fladd@b+2
  6951     279B  0835               	movf	___flsub@b+1,w
  6952     279C  00A1               	movwf	___fladd@b+1
  6953     279D  0834               	movf	___flsub@b,w
  6954     279E  00A0               	movwf	___fladd@b
  6955     279F  0833               	movf	___flsub@a+3,w
  6956     27A0  00A7               	movwf	___fladd@a+3
  6957     27A1  0832               	movf	___flsub@a+2,w
  6958     27A2  00A6               	movwf	___fladd@a+2
  6959     27A3  0831               	movf	___flsub@a+1,w
  6960     27A4  00A5               	movwf	___fladd@a+1
  6961     27A5  0830               	movf	___flsub@a,w
  6962     27A6  00A4               	movwf	___fladd@a
  6963     27A7  3193  23BA  31A7   	fcall	___fladd
  6964     27AA  0020               	movlb	0	; select bank0
  6965     27AB  0823               	movf	?___fladd+3,w
  6966     27AC  00B3               	movwf	?___flsub+3
  6967     27AD  0822               	movf	?___fladd+2,w
  6968     27AE  00B2               	movwf	?___flsub+2
  6969     27AF  0821               	movf	?___fladd+1,w
  6970     27B0  00B1               	movwf	?___flsub+1
  6971     27B1  0820               	movf	?___fladd,w
  6972     27B2  00B0               	movwf	?___flsub
  6973     27B3                     l663:
  6974     27B3  0008               	return
  6975     27B4                     __end_of___flsub:
  6976                           
  6977                           	psect	text12
  6978     13BA                     __ptext12:	
  6979 ;; *************** function ___fladd *****************
  6980 ;; Defined at:
  6981 ;;		line 10 in file "C:\Program Files\Microchip\xc8\v2.46\pic\sources\c99\common\sprcadd.c"
  6982 ;; Parameters:    Size  Location     Type
  6983 ;;  b               4    0[BANK0 ] float 
  6984 ;;  a               4    4[BANK0 ] float 
  6985 ;; Auto vars:     Size  Location     Type
  6986 ;;  grs             1   12[COMMON] unsigned char 
  6987 ;;  bexp            1   11[COMMON] unsigned char 
  6988 ;;  aexp            1   10[COMMON] unsigned char 
  6989 ;;  signs           1    9[COMMON] unsigned char 
  6990 ;; Return value:  Size  Location     Type
  6991 ;;                  4    0[BANK0 ] unsigned char 
  6992 ;; Registers used:
  6993 ;;		wreg, status,2, status,0
  6994 ;; Tracked objects:
  6995 ;;		On entry : 0/0
  6996 ;;		On exit  : 0/0
  6997 ;;		Unchanged: 0/0
  6998 ;; Data sizes:     COMMON   BANK0   BANK1   BANK2   BANK3   BANK4   BANK5   BANK6   BANK7   BANK8   BANK9  BANK10  BANK1
      +1  BANK12  BANK13  BANK14  BANK15  BANK16  BANK17  BANK18  BANK19  BANK20  BANK21  BANK22  BANK23  BANK24  BANK25
  6999 ;;      Params:         0       8       0       0       0       0       0       0       0       0       0       0       
      +0       0       0       0       0       0       0       0       0       0       0       0       0       0       0
  7000 ;;      Locals:         4       0       0       0       0       0       0       0       0       0       0       0       
      +0       0       0       0       0       0       0       0       0       0       0       0       0       0       0
  7001 ;;      Temps:          0       8       0       0       0       0       0       0       0       0       0       0       
      +0       0       0       0       0       0       0       0       0       0       0       0       0       0       0
  7002 ;;      Totals:         4      16       0       0       0       0       0       0       0       0       0       0       
      +0       0       0       0       0       0       0       0       0       0       0       0       0       0       0
  7003 ;;Total ram usage:       20 bytes
  7004 ;; Hardware stack levels used: 1
  7005 ;; This function calls:
  7006 ;;		Nothing
  7007 ;; This function is called by:
  7008 ;;		_ml_compute_kernel
  7009 ;;		_ml_predict
  7010 ;;		___flsub
  7011 ;; This function uses a non-reentrant model
  7012 ;;
  7013                           
  7014     13BA                     ___fladd:	
  7015                           ;psect for function ___fladd
  7016                           
  7017     13BA                     l2754:	
  7018                           ;incstack = 0
  7019                           ; Regs used in ___fladd: [wreg+status,2+status,0]
  7020                           
  7021     13BA  0020               	movlb	0	; select bank0
  7022     13BB  0823               	movf	___fladd@b+3,w
  7023     13BC  3980               	andlw	128
  7024     13BD  00F9               	movwf	___fladd@signs
  7025     13BE                     l2756:
  7026     13BE  3523               	lslf	___fladd@b+3,w
  7027     13BF  00FB               	movwf	___fladd@bexp
  7028     13C0                     l2758:
  7029     13C0  1FA2               	btfss	___fladd@b+2,7
  7030     13C1  2BC3               	goto	u3621
  7031     13C2  2BC4               	goto	u3620
  7032     13C3                     u3621:
  7033     13C3  2BC5               	goto	l2762
  7034     13C4                     u3620:
  7035     13C4                     l2760:
  7036     13C4  147B               	bsf	___fladd@bexp,0
  7037     13C5                     l2762:
  7038     13C5  087B               	movf	___fladd@bexp,w
  7039     13C6  1903               	btfsc	3,2
  7040     13C7  2BC9               	goto	u3631
  7041     13C8  2BCA               	goto	u3630
  7042     13C9                     u3631:
  7043     13C9  2BDA               	goto	l2772
  7044     13CA                     u3630:
  7045     13CA                     l2764:
  7046     13CA  0A7B               	incf	___fladd@bexp,w
  7047     13CB  1D03               	btfss	3,2
  7048     13CC  2BCE               	goto	u3641
  7049     13CD  2BCF               	goto	u3640
  7050     13CE                     u3641:
  7051     13CE  2BD7               	goto	l2768
  7052     13CF                     u3640:
  7053     13CF                     l2766:
  7054     13CF  3000               	movlw	0
  7055     13D0  00A3               	movwf	___fladd@b+3
  7056     13D1  3000               	movlw	0
  7057     13D2  00A2               	movwf	___fladd@b+2
  7058     13D3  3000               	movlw	0
  7059     13D4  00A1               	movwf	___fladd@b+1
  7060     13D5  3000               	movlw	0
  7061     13D6  00A0               	movwf	___fladd@b
  7062     13D7                     l2768:
  7063     13D7  17A2               	bsf	___fladd@b+2,7
  7064     13D8                     l2770:
  7065     13D8  01A3               	clrf	___fladd@b+3
  7066     13D9  2BE2               	goto	l2774
  7067     13DA                     l2772:
  7068     13DA  3000               	movlw	0
  7069     13DB  00A3               	movwf	___fladd@b+3
  7070     13DC  3000               	movlw	0
  7071     13DD  00A2               	movwf	___fladd@b+2
  7072     13DE  3000               	movlw	0
  7073     13DF  00A1               	movwf	___fladd@b+1
  7074     13E0  3000               	movlw	0
  7075     13E1  00A0               	movwf	___fladd@b
  7076     13E2                     l2774:
  7077     13E2  0827               	movf	___fladd@a+3,w
  7078     13E3  3980               	andlw	128
  7079     13E4  00FA               	movwf	___fladd@aexp
  7080     13E5                     l2776:
  7081     13E5  087A               	movf	___fladd@aexp,w
  7082     13E6  0679               	xorwf	___fladd@signs,w
  7083     13E7  1903               	skipnz
  7084     13E8  2BEA               	goto	u3651
  7085     13E9  2BEB               	goto	u3650
  7086     13EA                     u3651:
  7087     13EA  2BEC               	goto	l2780
  7088     13EB                     u3650:
  7089     13EB                     l2778:
  7090     13EB  1779               	bsf	___fladd@signs,6
  7091     13EC                     l2780:
  7092     13EC  3527               	lslf	___fladd@a+3,w
  7093     13ED  00FA               	movwf	___fladd@aexp
  7094     13EE                     l2782:
  7095     13EE  1FA6               	btfss	___fladd@a+2,7
  7096     13EF  2BF1               	goto	u3661
  7097     13F0  2BF2               	goto	u3660
  7098     13F1                     u3661:
  7099     13F1  2BF3               	goto	l2786
  7100     13F2                     u3660:
  7101     13F2                     l2784:
  7102     13F2  147A               	bsf	___fladd@aexp,0
  7103     13F3                     l2786:
  7104     13F3  087A               	movf	___fladd@aexp,w
  7105     13F4  1903               	btfsc	3,2
  7106     13F5  2BF7               	goto	u3671
  7107     13F6  2BF8               	goto	u3670
  7108     13F7                     u3671:
  7109     13F7  2C08               	goto	l2796
  7110     13F8                     u3670:
  7111     13F8                     l2788:
  7112     13F8  0A7A               	incf	___fladd@aexp,w
  7113     13F9  1D03               	btfss	3,2
  7114     13FA  2BFC               	goto	u3681
  7115     13FB  2BFD               	goto	u3680
  7116     13FC                     u3681:
  7117     13FC  2C05               	goto	l2792
  7118     13FD                     u3680:
  7119     13FD                     l2790:
  7120     13FD  3000               	movlw	0
  7121     13FE  00A7               	movwf	___fladd@a+3
  7122     13FF  3000               	movlw	0
  7123     1400  00A6               	movwf	___fladd@a+2
  7124     1401  3000               	movlw	0
  7125     1402  00A5               	movwf	___fladd@a+1
  7126     1403  3000               	movlw	0
  7127     1404  00A4               	movwf	___fladd@a
  7128     1405                     l2792:
  7129     1405  17A6               	bsf	___fladd@a+2,7
  7130     1406                     l2794:
  7131     1406  01A7               	clrf	___fladd@a+3
  7132     1407  2C10               	goto	l617
  7133     1408                     l2796:
  7134     1408  3000               	movlw	0
  7135     1409  00A7               	movwf	___fladd@a+3
  7136     140A  3000               	movlw	0
  7137     140B  00A6               	movwf	___fladd@a+2
  7138     140C  3000               	movlw	0
  7139     140D  00A5               	movwf	___fladd@a+1
  7140     140E  3000               	movlw	0
  7141     140F  00A4               	movwf	___fladd@a
  7142     1410                     l617:
  7143     1410  087B               	movf	___fladd@bexp,w
  7144     1411  027A               	subwf	___fladd@aexp,w
  7145     1412  1803               	skipnc
  7146     1413  2C15               	goto	u3691
  7147     1414  2C16               	goto	u3690
  7148     1415                     u3691:
  7149     1415  2C3C               	goto	l2832
  7150     1416                     u3690:
  7151     1416                     l2798:
  7152     1416  1F79               	btfss	___fladd@signs,6
  7153     1417  2C19               	goto	u3701
  7154     1418  2C1A               	goto	u3700
  7155     1419                     u3701:
  7156     1419  2C1E               	goto	l2802
  7157     141A                     u3700:
  7158     141A                     l2800:
  7159     141A  3080               	movlw	128
  7160     141B  00A8               	movwf	??___fladd
  7161     141C  0828               	movf	??___fladd,w
  7162     141D  06F9               	xorwf	___fladd@signs,f
  7163     141E                     l2802:
  7164     141E  087B               	movf	___fladd@bexp,w
  7165     141F  00FC               	movwf	___fladd@grs
  7166     1420                     l2804:
  7167     1420  087A               	movf	___fladd@aexp,w
  7168     1421  00FB               	movwf	___fladd@bexp
  7169     1422                     l2806:
  7170     1422  087C               	movf	___fladd@grs,w
  7171     1423  00FA               	movwf	___fladd@aexp
  7172     1424                     l2808:
  7173     1424  0820               	movf	___fladd@b,w
  7174     1425  00FC               	movwf	___fladd@grs
  7175     1426                     l2810:
  7176     1426  0824               	movf	___fladd@a,w
  7177     1427  00A0               	movwf	___fladd@b
  7178     1428                     l2812:
  7179     1428  087C               	movf	___fladd@grs,w
  7180     1429  00A4               	movwf	___fladd@a
  7181     142A                     l2814:
  7182     142A  0821               	movf	___fladd@b+1,w
  7183     142B  00FC               	movwf	___fladd@grs
  7184     142C                     l2816:
  7185     142C  0825               	movf	___fladd@a+1,w
  7186     142D  00A1               	movwf	___fladd@b+1
  7187     142E                     l2818:
  7188     142E  087C               	movf	___fladd@grs,w
  7189     142F  00A5               	movwf	___fladd@a+1
  7190     1430                     l2820:
  7191     1430  0822               	movf	___fladd@b+2,w
  7192     1431  00FC               	movwf	___fladd@grs
  7193     1432                     l2822:
  7194     1432  0826               	movf	___fladd@a+2,w
  7195     1433  00A2               	movwf	___fladd@b+2
  7196     1434                     l2824:
  7197     1434  087C               	movf	___fladd@grs,w
  7198     1435  00A6               	movwf	___fladd@a+2
  7199     1436                     l2826:
  7200     1436  0823               	movf	___fladd@b+3,w
  7201     1437  00FC               	movwf	___fladd@grs
  7202     1438                     l2828:
  7203     1438  0827               	movf	___fladd@a+3,w
  7204     1439  00A3               	movwf	___fladd@b+3
  7205     143A                     l2830:
  7206     143A  087C               	movf	___fladd@grs,w
  7207     143B  00A7               	movwf	___fladd@a+3
  7208     143C                     l2832:
  7209     143C  01FC               	clrf	___fladd@grs
  7210     143D                     l2834:
  7211     143D  087A               	movf	___fladd@aexp,w
  7212     143E  00A8               	movwf	??___fladd
  7213     143F  01A9               	clrf	??___fladd+1
  7214     1440  0829               	movf	??___fladd+1,w
  7215     1441  00AB               	movwf	??___fladd+3
  7216     1442  087B               	movf	___fladd@bexp,w
  7217     1443  0228               	subwf	??___fladd,w
  7218     1444  00AA               	movwf	??___fladd+2
  7219     1445  1C03               	skipc
  7220     1446  03AB               	decf	??___fladd+3,f
  7221     1447  082B               	movf	??___fladd+3,w
  7222     1448  3A80               	xorlw	128
  7223     1449  00AC               	movwf	??___fladd+4
  7224     144A  3080               	movlw	128
  7225     144B  022C               	subwf	??___fladd+4,w
  7226     144C  1D03               	skipz
  7227     144D  2C50               	goto	u3715
  7228     144E  301A               	movlw	26
  7229     144F  022A               	subwf	??___fladd+2,w
  7230     1450                     u3715:
  7231     1450  1C03               	skipc
  7232     1451  2C53               	goto	u3711
  7233     1452  2C54               	goto	u3710
  7234     1453                     u3711:
  7235     1453  2C87               	goto	l2850
  7236     1454                     u3710:
  7237     1454                     l2836:
  7238     1454  0020               	movlb	0	; select bank0
  7239     1455  0823               	movf	___fladd@b+3,w
  7240     1456  0422               	iorwf	___fladd@b+2,w
  7241     1457  0421               	iorwf	___fladd@b+1,w
  7242     1458  0420               	iorwf	___fladd@b,w
  7243     1459  1D03               	skipz
  7244     145A  2C5C               	goto	u3721
  7245     145B  2C5E               	goto	u3720
  7246     145C                     u3721:
  7247     145C  3001               	movlw	1
  7248     145D  2C5F               	goto	u3730
  7249     145E                     u3720:
  7250     145E  3000               	movlw	0
  7251     145F                     u3730:
  7252     145F  00FC               	movwf	___fladd@grs
  7253     1460  3000               	movlw	0
  7254     1461  00A3               	movwf	___fladd@b+3
  7255     1462  3000               	movlw	0
  7256     1463  00A2               	movwf	___fladd@b+2
  7257     1464  3000               	movlw	0
  7258     1465  00A1               	movwf	___fladd@b+1
  7259     1466  3000               	movlw	0
  7260     1467  00A0               	movwf	___fladd@b
  7261     1468  087A               	movf	___fladd@aexp,w
  7262     1469  00FB               	movwf	___fladd@bexp
  7263     146A  2C8D               	goto	l621
  7264     146B                     l623:
  7265     146B  1C7C               	btfss	___fladd@grs,0
  7266     146C  2C6E               	goto	u3741
  7267     146D  2C6F               	goto	u3740
  7268     146E                     u3741:
  7269     146E  2C73               	goto	l2840
  7270     146F                     u3740:
  7271     146F                     l2838:
  7272     146F  367C               	lsrf	___fladd@grs,w
  7273     1470  3801               	iorlw	1
  7274     1471  00FC               	movwf	___fladd@grs
  7275     1472  2C75               	goto	l2842
  7276     1473                     l2840:
  7277     1473  1003               	clrc
  7278     1474  0CFC               	rrf	___fladd@grs,f
  7279     1475                     l2842:
  7280     1475  0020               	movlb	0	; select bank0
  7281     1476  1C20               	btfss	___fladd@b,0
  7282     1477  2C79               	goto	u3751
  7283     1478  2C7A               	goto	u3750
  7284     1479                     u3751:
  7285     1479  2C7B               	goto	l2846
  7286     147A                     u3750:
  7287     147A                     l2844:
  7288     147A  17FC               	bsf	___fladd@grs,7
  7289     147B                     l2846:
  7290     147B  3001               	movlw	1
  7291     147C  00A8               	movwf	??___fladd
  7292     147D                     u3765:
  7293     147D  37A3               	asrf	___fladd@b+3,f
  7294     147E  0CA2               	rrf	___fladd@b+2,f
  7295     147F  0CA1               	rrf	___fladd@b+1,f
  7296     1480  0CA0               	rrf	___fladd@b,f
  7297     1481  0BA8               	decfsz	??___fladd& (0+127),f
  7298     1482  2C7D               	goto	u3765
  7299     1483                     l2848:
  7300     1483  3001               	movlw	1
  7301     1484  00A8               	movwf	??___fladd
  7302     1485  0828               	movf	??___fladd,w
  7303     1486  07FB               	addwf	___fladd@bexp,f
  7304     1487                     l2850:
  7305     1487  087A               	movf	___fladd@aexp,w
  7306     1488  027B               	subwf	___fladd@bexp,w
  7307     1489  1C03               	skipc
  7308     148A  2C8C               	goto	u3771
  7309     148B  2C8D               	goto	u3770
  7310     148C                     u3771:
  7311     148C  2C6B               	goto	l623
  7312     148D                     u3770:
  7313     148D                     l621:
  7314     148D  1B79               	btfsc	___fladd@signs,6
  7315     148E  2C90               	goto	u3781
  7316     148F  2C91               	goto	u3780
  7317     1490                     u3781:
  7318     1490  2CC9               	goto	l2876
  7319     1491                     u3780:
  7320     1491                     l2852:
  7321     1491  087B               	movf	___fladd@bexp,w
  7322     1492  1D03               	btfss	3,2
  7323     1493  2C95               	goto	u3791
  7324     1494  2C96               	goto	u3790
  7325     1495                     u3791:
  7326     1495  2CA0               	goto	l2858
  7327     1496                     u3790:
  7328     1496                     l2854:
  7329     1496  3000               	movlw	0
  7330     1497  0020               	movlb	0	; select bank0
  7331     1498  00A3               	movwf	?___fladd+3
  7332     1499  3000               	movlw	0
  7333     149A  00A2               	movwf	?___fladd+2
  7334     149B  3000               	movlw	0
  7335     149C  00A1               	movwf	?___fladd+1
  7336     149D  3000               	movlw	0
  7337     149E  00A0               	movwf	?___fladd
  7338     149F  2DC4               	goto	l630
  7339     14A0                     l2858:
  7340     14A0  0020               	movlb	0	; select bank0
  7341     14A1  0824               	movf	___fladd@a,w
  7342     14A2  07A0               	addwf	___fladd@b,f
  7343     14A3  0825               	movf	___fladd@a+1,w
  7344     14A4  3DA1               	addwfc	___fladd@b+1,f
  7345     14A5  0826               	movf	___fladd@a+2,w
  7346     14A6  3DA2               	addwfc	___fladd@b+2,f
  7347     14A7  0827               	movf	___fladd@a+3,w
  7348     14A8  3DA3               	addwfc	___fladd@b+3,f
  7349     14A9                     l2860:
  7350     14A9  1C23               	btfss	___fladd@b+3,0
  7351     14AA  2CAC               	goto	u3801
  7352     14AB  2CAD               	goto	u3800
  7353     14AC                     u3801:
  7354     14AC  2D56               	goto	l2910
  7355     14AD                     u3800:
  7356     14AD                     l2862:
  7357     14AD  1C7C               	btfss	___fladd@grs,0
  7358     14AE  2CB0               	goto	u3811
  7359     14AF  2CB1               	goto	u3810
  7360     14B0                     u3811:
  7361     14B0  2CB5               	goto	l2866
  7362     14B1                     u3810:
  7363     14B1                     l2864:
  7364     14B1  367C               	lsrf	___fladd@grs,w
  7365     14B2  3801               	iorlw	1
  7366     14B3  00FC               	movwf	___fladd@grs
  7367     14B4  2CB7               	goto	l2868
  7368     14B5                     l2866:
  7369     14B5  1003               	clrc
  7370     14B6  0CFC               	rrf	___fladd@grs,f
  7371     14B7                     l2868:
  7372     14B7  1C20               	btfss	___fladd@b,0
  7373     14B8  2CBA               	goto	u3821
  7374     14B9  2CBB               	goto	u3820
  7375     14BA                     u3821:
  7376     14BA  2CBC               	goto	l2872
  7377     14BB                     u3820:
  7378     14BB                     l2870:
  7379     14BB  17FC               	bsf	___fladd@grs,7
  7380     14BC                     l2872:
  7381     14BC  3001               	movlw	1
  7382     14BD  00A8               	movwf	??___fladd
  7383     14BE                     u3835:
  7384     14BE  37A3               	asrf	___fladd@b+3,f
  7385     14BF  0CA2               	rrf	___fladd@b+2,f
  7386     14C0  0CA1               	rrf	___fladd@b+1,f
  7387     14C1  0CA0               	rrf	___fladd@b,f
  7388     14C2  0BA8               	decfsz	??___fladd& (0+127),f
  7389     14C3  2CBE               	goto	u3835
  7390     14C4                     l2874:
  7391     14C4  3001               	movlw	1
  7392     14C5  00A8               	movwf	??___fladd
  7393     14C6  0828               	movf	??___fladd,w
  7394     14C7  07FB               	addwf	___fladd@bexp,f
  7395     14C8  2D56               	goto	l2910
  7396     14C9                     l2876:
  7397     14C9  0020               	movlb	0	; select bank0
  7398     14CA  0823               	movf	___fladd@b+3,w
  7399     14CB  3A80               	xorlw	128
  7400     14CC  00A8               	movwf	??___fladd
  7401     14CD  0827               	movf	___fladd@a+3,w
  7402     14CE  3A80               	xorlw	128
  7403     14CF  0228               	subwf	??___fladd,w
  7404     14D0  1D03               	skipz
  7405     14D1  2CDC               	goto	u3843
  7406     14D2  0826               	movf	___fladd@a+2,w
  7407     14D3  0222               	subwf	___fladd@b+2,w
  7408     14D4  1D03               	skipz
  7409     14D5  2CDC               	goto	u3843
  7410     14D6  0825               	movf	___fladd@a+1,w
  7411     14D7  0221               	subwf	___fladd@b+1,w
  7412     14D8  1D03               	skipz
  7413     14D9  2CDC               	goto	u3843
  7414     14DA  0824               	movf	___fladd@a,w
  7415     14DB  0220               	subwf	___fladd@b,w
  7416     14DC                     u3843:
  7417     14DC  1803               	skipnc
  7418     14DD  2CDF               	goto	u3841
  7419     14DE  2CE0               	goto	u3840
  7420     14DF                     u3841:
  7421     14DF  2D18               	goto	l2886
  7422     14E0                     u3840:
  7423     14E0                     l2878:
  7424     14E0  30FF               	movlw	255
  7425     14E1  00A8               	movwf	??___fladd
  7426     14E2  30FF               	movlw	255
  7427     14E3  00A9               	movwf	??___fladd+1
  7428     14E4  30FF               	movlw	255
  7429     14E5  00AA               	movwf	??___fladd+2
  7430     14E6  30FF               	movlw	255
  7431     14E7  00AB               	movwf	??___fladd+3
  7432     14E8  0820               	movf	___fladd@b,w
  7433     14E9  0224               	subwf	___fladd@a,w
  7434     14EA  00AC               	movwf	??___fladd+4
  7435     14EB  0821               	movf	___fladd@b+1,w
  7436     14EC  3B25               	subwfb	___fladd@a+1,w
  7437     14ED  00AD               	movwf	??___fladd+5
  7438     14EE  0822               	movf	___fladd@b+2,w
  7439     14EF  3B26               	subwfb	___fladd@a+2,w
  7440     14F0  00AE               	movwf	??___fladd+6
  7441     14F1  0823               	movf	___fladd@b+3,w
  7442     14F2  3B27               	subwfb	___fladd@a+3,w
  7443     14F3  00AF               	movwf	??___fladd+7
  7444     14F4  082C               	movf	??___fladd+4,w
  7445     14F5  07A8               	addwf	??___fladd,f
  7446     14F6  082D               	movf	??___fladd+5,w
  7447     14F7  3DA9               	addwfc	??___fladd+1,f
  7448     14F8  082E               	movf	??___fladd+6,w
  7449     14F9  3DAA               	addwfc	??___fladd+2,f
  7450     14FA  082F               	movf	??___fladd+7,w
  7451     14FB  3DAB               	addwfc	??___fladd+3,f
  7452     14FC  082B               	movf	??___fladd+3,w
  7453     14FD  00A3               	movwf	___fladd@b+3
  7454     14FE  082A               	movf	??___fladd+2,w
  7455     14FF  00A2               	movwf	___fladd@b+2
  7456     1500  0829               	movf	??___fladd+1,w
  7457     1501  00A1               	movwf	___fladd@b+1
  7458     1502  0828               	movf	??___fladd,w
  7459     1503  00A0               	movwf	___fladd@b
  7460     1504                     l2880:
  7461     1504  3080               	movlw	128
  7462     1505  00A8               	movwf	??___fladd
  7463     1506  0828               	movf	??___fladd,w
  7464     1507  06F9               	xorwf	___fladd@signs,f
  7465     1508  09FC               	comf	___fladd@grs,f
  7466     1509  0AFC               	incf	___fladd@grs,f
  7467     150A                     l2882:
  7468     150A  087C               	movf	___fladd@grs,w
  7469     150B  1D03               	btfss	3,2
  7470     150C  2D0E               	goto	u3851
  7471     150D  2D0F               	goto	u3850
  7472     150E                     u3851:
  7473     150E  2D20               	goto	l638
  7474     150F                     u3850:
  7475     150F                     l2884:
  7476     150F  3001               	movlw	1
  7477     1510  07A0               	addwf	___fladd@b,f
  7478     1511  3000               	movlw	0
  7479     1512  3DA1               	addwfc	___fladd@b+1,f
  7480     1513  3000               	movlw	0
  7481     1514  3DA2               	addwfc	___fladd@b+2,f
  7482     1515  3000               	movlw	0
  7483     1516  3DA3               	addwfc	___fladd@b+3,f
  7484     1517  2D20               	goto	l638
  7485     1518                     l2886:
  7486     1518  0824               	movf	___fladd@a,w
  7487     1519  02A0               	subwf	___fladd@b,f
  7488     151A  0825               	movf	___fladd@a+1,w
  7489     151B  3BA1               	subwfb	___fladd@b+1,f
  7490     151C  0826               	movf	___fladd@a+2,w
  7491     151D  3BA2               	subwfb	___fladd@b+2,f
  7492     151E  0827               	movf	___fladd@a+3,w
  7493     151F  3BA3               	subwfb	___fladd@b+3,f
  7494     1520                     l638:
  7495     1520  0823               	movf	___fladd@b+3,w
  7496     1521  0422               	iorwf	___fladd@b+2,w
  7497     1522  0421               	iorwf	___fladd@b+1,w
  7498     1523  0420               	iorwf	___fladd@b,w
  7499     1524  1D03               	skipz
  7500     1525  2D27               	goto	u3861
  7501     1526  2D28               	goto	u3860
  7502     1527                     u3861:
  7503     1527  2D52               	goto	l2908
  7504     1528                     u3860:
  7505     1528                     l2888:
  7506     1528  087C               	movf	___fladd@grs,w
  7507     1529  1D03               	btfss	3,2
  7508     152A  2D2C               	goto	u3871
  7509     152B  2D2D               	goto	u3870
  7510     152C                     u3871:
  7511     152C  2D52               	goto	l2908
  7512     152D                     u3870:
  7513     152D                     l2890:
  7514     152D  3000               	movlw	0
  7515     152E  00A3               	movwf	?___fladd+3
  7516     152F  3000               	movlw	0
  7517     1530  00A2               	movwf	?___fladd+2
  7518     1531  3000               	movlw	0
  7519     1532  00A1               	movwf	?___fladd+1
  7520     1533  3000               	movlw	0
  7521     1534  00A0               	movwf	?___fladd
  7522     1535  2DC4               	goto	l630
  7523     1536                     l2894:
  7524     1536  3001               	movlw	1
  7525     1537                     u3885:
  7526     1537  35A0               	lslf	___fladd@b,f
  7527     1538  0DA1               	rlf	___fladd@b+1,f
  7528     1539  0DA2               	rlf	___fladd@b+2,f
  7529     153A  0DA3               	rlf	___fladd@b+3,f
  7530     153B  0B89               	decfsz	9,f
  7531     153C  2D37               	goto	u3885
  7532     153D                     l2896:
  7533     153D  1FFC               	btfss	___fladd@grs,7
  7534     153E  2D40               	goto	u3891
  7535     153F  2D41               	goto	u3890
  7536     1540                     u3891:
  7537     1540  2D42               	goto	l642
  7538     1541                     u3890:
  7539     1541                     l2898:
  7540     1541  1420               	bsf	___fladd@b,0
  7541     1542                     l642:
  7542     1542  1C7C               	btfss	___fladd@grs,0
  7543     1543  2D45               	goto	u3901
  7544     1544  2D46               	goto	u3900
  7545     1545                     u3901:
  7546     1545  2D49               	goto	l2902
  7547     1546                     u3900:
  7548     1546                     l2900:
  7549     1546  1403               	setc
  7550     1547  0DFC               	rlf	___fladd@grs,f
  7551     1548  2D4B               	goto	l2904
  7552     1549                     l2902:
  7553     1549  1003               	clrc
  7554     154A  0DFC               	rlf	___fladd@grs,f
  7555     154B                     l2904:
  7556     154B  087B               	movf	___fladd@bexp,w
  7557     154C  1903               	btfsc	3,2
  7558     154D  2D4F               	goto	u3911
  7559     154E  2D50               	goto	u3910
  7560     154F                     u3911:
  7561     154F  2D52               	goto	l2908
  7562     1550                     u3910:
  7563     1550                     l2906:
  7564     1550  3001               	movlw	1
  7565     1551  02FB               	subwf	___fladd@bexp,f
  7566     1552                     l2908:
  7567     1552  1FA2               	btfss	___fladd@b+2,7
  7568     1553  2D55               	goto	u3921
  7569     1554  2D56               	goto	u3920
  7570     1555                     u3921:
  7571     1555  2D36               	goto	l2894
  7572     1556                     u3920:
  7573     1556                     l2910:
  7574     1556  01FA               	clrf	___fladd@aexp
  7575     1557                     l2912:
  7576     1557  1FFC               	btfss	___fladd@grs,7
  7577     1558  2D5A               	goto	u3931
  7578     1559  2D5B               	goto	u3930
  7579     155A                     u3931:
  7580     155A  2D69               	goto	l2920
  7581     155B                     u3930:
  7582     155B                     l2914:
  7583     155B  087C               	movf	___fladd@grs,w
  7584     155C  397F               	andlw	127
  7585     155D  1903               	btfsc	3,2
  7586     155E  2D60               	goto	u3941
  7587     155F  2D61               	goto	u3940
  7588     1560                     u3941:
  7589     1560  2D64               	goto	l648
  7590     1561                     u3940:
  7591     1561                     l2916:
  7592     1561  01FA               	clrf	___fladd@aexp
  7593     1562  0AFA               	incf	___fladd@aexp,f
  7594     1563  2D69               	goto	l2920
  7595     1564                     l648:
  7596     1564  1C20               	btfss	___fladd@b,0
  7597     1565  2D67               	goto	u3951
  7598     1566  2D68               	goto	u3950
  7599     1567                     u3951:
  7600     1567  2D69               	goto	l2920
  7601     1568                     u3950:
  7602     1568  2D61               	goto	l2916
  7603     1569                     l2920:
  7604     1569  087A               	movf	___fladd@aexp,w
  7605     156A  1903               	btfsc	3,2
  7606     156B  2D6D               	goto	u3961
  7607     156C  2D6E               	goto	u3960
  7608     156D                     u3961:
  7609     156D  2D9B               	goto	l651
  7610     156E                     u3960:
  7611     156E                     l2922:
  7612     156E  3001               	movlw	1
  7613     156F  07A0               	addwf	___fladd@b,f
  7614     1570  3000               	movlw	0
  7615     1571  3DA1               	addwfc	___fladd@b+1,f
  7616     1572  3000               	movlw	0
  7617     1573  3DA2               	addwfc	___fladd@b+2,f
  7618     1574  3000               	movlw	0
  7619     1575  3DA3               	addwfc	___fladd@b+3,f
  7620     1576                     l2924:
  7621     1576  1C23               	btfss	___fladd@b+3,0
  7622     1577  2D79               	goto	u3971
  7623     1578  2D7A               	goto	u3970
  7624     1579                     u3971:
  7625     1579  2D9B               	goto	l651
  7626     157A                     u3970:
  7627     157A                     l2926:
  7628     157A  0820               	movf	___fladd@b,w
  7629     157B  00A8               	movwf	??___fladd
  7630     157C  0821               	movf	___fladd@b+1,w
  7631     157D  00A9               	movwf	??___fladd+1
  7632     157E  0822               	movf	___fladd@b+2,w
  7633     157F  00AA               	movwf	??___fladd+2
  7634     1580  0823               	movf	___fladd@b+3,w
  7635     1581  00AB               	movwf	??___fladd+3
  7636     1582  3001               	movlw	1
  7637     1583  00AC               	movwf	??___fladd+4
  7638     1584                     u3985:
  7639     1584  37AB               	asrf	??___fladd+3,f
  7640     1585  0CAA               	rrf	??___fladd+2,f
  7641     1586  0CA9               	rrf	??___fladd+1,f
  7642     1587  0CA8               	rrf	??___fladd,f
  7643     1588                     u3980:
  7644     1588  0BAC               	decfsz	??___fladd+4,f
  7645     1589  2D84               	goto	u3985
  7646     158A  082B               	movf	??___fladd+3,w
  7647     158B  00A3               	movwf	___fladd@b+3
  7648     158C  082A               	movf	??___fladd+2,w
  7649     158D  00A2               	movwf	___fladd@b+2
  7650     158E  0829               	movf	??___fladd+1,w
  7651     158F  00A1               	movwf	___fladd@b+1
  7652     1590  0828               	movf	??___fladd,w
  7653     1591  00A0               	movwf	___fladd@b
  7654     1592  0A7B               	incf	___fladd@bexp,w
  7655     1593  1903               	btfsc	3,2
  7656     1594  2D96               	goto	u3991
  7657     1595  2D97               	goto	u3990
  7658     1596                     u3991:
  7659     1596  2D9B               	goto	l651
  7660     1597                     u3990:
  7661     1597                     l2928:
  7662     1597  3001               	movlw	1
  7663     1598  00A8               	movwf	??___fladd
  7664     1599  0828               	movf	??___fladd,w
  7665     159A  07FB               	addwf	___fladd@bexp,f
  7666     159B                     l651:
  7667     159B  0A7B               	incf	___fladd@bexp,w
  7668     159C  1903               	btfsc	3,2
  7669     159D  2D9F               	goto	u4001
  7670     159E  2DA0               	goto	u4000
  7671     159F                     u4001:
  7672     159F  2DA5               	goto	l2932
  7673     15A0                     u4000:
  7674     15A0                     l2930:
  7675     15A0  087B               	movf	___fladd@bexp,w
  7676     15A1  1D03               	btfss	3,2
  7677     15A2  2DA4               	goto	u4011
  7678     15A3  2DA5               	goto	u4010
  7679     15A4                     u4011:
  7680     15A4  2DB3               	goto	l2938
  7681     15A5                     u4010:
  7682     15A5                     l2932:
  7683     15A5  3000               	movlw	0
  7684     15A6  00A3               	movwf	___fladd@b+3
  7685     15A7  3000               	movlw	0
  7686     15A8  00A2               	movwf	___fladd@b+2
  7687     15A9  3000               	movlw	0
  7688     15AA  00A1               	movwf	___fladd@b+1
  7689     15AB  3000               	movlw	0
  7690     15AC  00A0               	movwf	___fladd@b
  7691     15AD                     l2934:
  7692     15AD  087B               	movf	___fladd@bexp,w
  7693     15AE  1D03               	btfss	3,2
  7694     15AF  2DB1               	goto	u4021
  7695     15B0  2DB2               	goto	u4020
  7696     15B1                     u4021:
  7697     15B1  2DB3               	goto	l2938
  7698     15B2                     u4020:
  7699     15B2                     l2936:
  7700     15B2  01F9               	clrf	___fladd@signs
  7701     15B3                     l2938:
  7702     15B3  1C7B               	btfss	___fladd@bexp,0
  7703     15B4  2DB6               	goto	u4031
  7704     15B5  2DB7               	goto	u4030
  7705     15B6                     u4031:
  7706     15B6  2DB9               	goto	l2942
  7707     15B7                     u4030:
  7708     15B7                     l2940:
  7709     15B7  17A2               	bsf	___fladd@b+2,7
  7710     15B8  2DBD               	goto	l659
  7711     15B9                     l2942:
  7712     15B9  307F               	movlw	127
  7713     15BA  00A8               	movwf	??___fladd
  7714     15BB  0828               	movf	??___fladd,w
  7715     15BC  05A2               	andwf	___fladd@b+2,f
  7716     15BD                     l659:
  7717     15BD  367B               	lsrf	___fladd@bexp,w
  7718     15BE  00A3               	movwf	___fladd@b+3
  7719     15BF                     l2944:
  7720     15BF  1FF9               	btfss	___fladd@signs,7
  7721     15C0  2DC2               	goto	u4041
  7722     15C1  2DC3               	goto	u4040
  7723     15C2                     u4041:
  7724     15C2  2DC4               	goto	l660
  7725     15C3                     u4040:
  7726     15C3                     l2946:
  7727     15C3  17A3               	bsf	___fladd@b+3,7
  7728     15C4                     l660:
  7729     15C4                     l630:
  7730     15C4  0008               	return
  7731     15C5                     __end_of___fladd:
  7732                           
  7733                           	psect	text13
  7734     275A                     __ptext13:	
  7735 ;; *************** function _ml_get_class_name *****************
  7736 ;; Defined at:
  7737 ;;		line 134 in file "./ml.h"
  7738 ;; Parameters:    Size  Location     Type
  7739 ;;  class_idx       1    wreg     char 
  7740 ;; Auto vars:     Size  Location     Type
  7741 ;;  class_idx       1    2[COMMON] char 
  7742 ;; Return value:  Size  Location     Type
  7743 ;;                  2    0[COMMON] PTR const unsigned char 
  7744 ;; Registers used:
  7745 ;;		wreg, fsr1l, fsr1h, status,2, status,0
  7746 ;; Tracked objects:
  7747 ;;		On entry : 0/0
  7748 ;;		On exit  : 0/0
  7749 ;;		Unchanged: 0/0
  7750 ;; Data sizes:     COMMON   BANK0   BANK1   BANK2   BANK3   BANK4   BANK5   BANK6   BANK7   BANK8   BANK9  BANK10  BANK1
      +1  BANK12  BANK13  BANK14  BANK15  BANK16  BANK17  BANK18  BANK19  BANK20  BANK21  BANK22  BANK23  BANK24  BANK25
  7751 ;;      Params:         2       0       0       0       0       0       0       0       0       0       0       0       
      +0       0       0       0       0       0       0       0       0       0       0       0       0       0       0
  7752 ;;      Locals:         1       0       0       0       0       0       0       0       0       0       0       0       
      +0       0       0       0       0       0       0       0       0       0       0       0       0       0       0
  7753 ;;      Temps:          0       0       0       0       0       0       0       0       0       0       0       0       
      +0       0       0       0       0       0       0       0       0       0       0       0       0       0       0
  7754 ;;      Totals:         3       0       0       0       0       0       0       0       0       0       0       0       
      +0       0       0       0       0       0       0       0       0       0       0       0       0       0       0
  7755 ;;Total ram usage:        3 bytes
  7756 ;; Hardware stack levels used: 1
  7757 ;; This function calls:
  7758 ;;		Nothing
  7759 ;; This function is called by:
  7760 ;;		_run_demo
  7761 ;;		_process_command
  7762 ;; This function uses a non-reentrant model
  7763 ;;
  7764                           
  7765     275A                     _ml_get_class_name:	
  7766                           ;psect for function _ml_get_class_name
  7767                           
  7768                           
  7769                           ;incstack = 0
  7770                           ; Regs used in _ml_get_class_name: [wreg+fsr1l+fsr1h+status,2+status,0]
  7771                           ;ml_get_class_name@class_idx stored from wreg
  7772     275A  00F2               	movwf	ml_get_class_name@class_idx
  7773     275B                     l3492:
  7774                           
  7775                           ;./ml.h: 134: const char* ml_get_class_name(signed char class_idx);./ml.h: 135: {;./ml.h
      +                          : 136:     if (class_idx >= 0 && class_idx < 3) {
  7776     275B  1BF2               	btfsc	ml_get_class_name@class_idx,7
  7777     275C  2F5E               	goto	u5121
  7778     275D  2F5F               	goto	u5120
  7779     275E                     u5121:
  7780     275E  2F70               	goto	l3500
  7781     275F                     u5120:
  7782     275F                     l3494:
  7783     275F  0872               	movf	ml_get_class_name@class_idx,w
  7784     2760  3A80               	xorlw	128
  7785     2761  3E7D               	addlw	-131
  7786     2762  1803               	skipnc
  7787     2763  2F65               	goto	u5131
  7788     2764  2F66               	goto	u5130
  7789     2765                     u5131:
  7790     2765  2F70               	goto	l3500
  7791     2766                     u5130:
  7792     2766                     l3496:
  7793                           
  7794                           ;./ml.h: 137:         return ml_class_names[class_idx];
  7795     2766  3572               	lslf	ml_get_class_name@class_idx,w
  7796     2767  3EC0               	addlw	(low (_ml_class_names| (0+256)))& (0+255)
  7797     2768  0086               	movwf	6
  7798     2769  3001               	movlw	1	; select bank3/4
  7799     276A  0087               	movwf	7
  7800     276B  3F40               	moviw [0]fsr1
  7801     276C  00F0               	movwf	?_ml_get_class_name
  7802     276D  3F41               	moviw [1]fsr1
  7803     276E  00F1               	movwf	?_ml_get_class_name+1
  7804     276F  2F74               	goto	l172
  7805     2770                     l3500:
  7806                           
  7807                           ;./ml.h: 139:     return "Unknown";
  7808     2770  30F2               	movlw	low (STR_4| (0+32768))
  7809     2771  00F0               	movwf	?_ml_get_class_name
  7810     2772  30A8               	movlw	high (STR_4| (0+32768))
  7811     2773  00F1               	movwf	?_ml_get_class_name+1
  7812     2774                     l172:
  7813     2774  0008               	return
  7814     2775                     __end_of_ml_get_class_name:
  7815                           
  7816                           	psect	text14
  7817     1ACE                     __ptext14:	
  7818 ;; *************** function _print_menu *****************
  7819 ;; Defined at:
  7820 ;;		line 66 in file "main.c"
  7821 ;; Parameters:    Size  Location     Type
  7822 ;;		None
  7823 ;; Auto vars:     Size  Location     Type
  7824 ;;		None
  7825 ;; Return value:  Size  Location     Type
  7826 ;;                  1    wreg      void 
  7827 ;; Registers used:
  7828 ;;		wreg, fsr0l, fsr0h, status,2, status,0, pclath, cstack
  7829 ;; Tracked objects:
  7830 ;;		On entry : 0/0
  7831 ;;		On exit  : 0/0
  7832 ;;		Unchanged: 0/0
  7833 ;; Data sizes:     COMMON   BANK0   BANK1   BANK2   BANK3   BANK4   BANK5   BANK6   BANK7   BANK8   BANK9  BANK10  BANK1
      +1  BANK12  BANK13  BANK14  BANK15  BANK16  BANK17  BANK18  BANK19  BANK20  BANK21  BANK22  BANK23  BANK24  BANK25
  7834 ;;      Params:         0       0       0       0       0       0       0       0       0       0       0       0       
      +0       0       0       0       0       0       0       0       0       0       0       0       0       0       0
  7835 ;;      Locals:         0       0       0       0       0       0       0       0       0       0       0       0       
      +0       0       0       0       0       0       0       0       0       0       0       0       0       0       0
  7836 ;;      Temps:          0       0       0       0       0       0       0       0       0       0       0       0       
      +0       0       0       0       0       0       0       0       0       0       0       0       0       0       0
  7837 ;;      Totals:         0       0       0       0       0       0       0       0       0       0       0       0       
      +0       0       0       0       0       0       0       0       0       0       0       0       0       0       0
  7838 ;;Total ram usage:        0 bytes
  7839 ;; Hardware stack levels used: 1
  7840 ;; Hardware stack levels required when called: 2
  7841 ;; This function calls:
  7842 ;;		_EUSART_Write_Text
  7843 ;; This function is called by:
  7844 ;;		_process_command
  7845 ;;		_main
  7846 ;; This function uses a non-reentrant model
  7847 ;;
  7848                           
  7849     1ACE                     _print_menu:	
  7850                           ;psect for function _print_menu
  7851                           
  7852     1ACE                     l3942:	
  7853                           ;incstack = 0
  7854                           ; Regs used in _print_menu: [wreg-fsr0h+status,2+status,0+pclath+cstack]
  7855                           
  7856                           
  7857                           ;main.c: 68:     EUSART_Write_Text("\r\n");
  7858     1ACE  306F               	movlw	low ((STR_23+14)| (0+32768))
  7859     1ACF  00F3               	movwf	EUSART_Write_Text@text
  7860     1AD0  30A8               	movlw	high ((STR_23+14)| (0+32768))
  7861     1AD1  00F4               	movwf	EUSART_Write_Text@text+1
  7862     1AD2  3199  21D3  319A   	fcall	_EUSART_Write_Text
  7863                           
  7864                           ;main.c: 69:     EUSART_Write_Text("================================\r\n");
  7865     1AD5  30B0               	movlw	low (STR_6| (0+32768))
  7866     1AD6  00F3               	movwf	EUSART_Write_Text@text
  7867     1AD7  3099               	movlw	high (STR_6| (0+32768))
  7868     1AD8  00F4               	movwf	EUSART_Write_Text@text+1
  7869     1AD9  3199  21D3  319A   	fcall	_EUSART_Write_Text
  7870                           
  7871                           ;main.c: 70:     EUSART_Write_Text("  PIC16 SVM Iris Classifier\r\n");
  7872     1ADC  3000               	movlw	low (STR_7| (0+32768))
  7873     1ADD  00F3               	movwf	EUSART_Write_Text@text
  7874     1ADE  30A8               	movlw	high (STR_7| (0+32768))
  7875     1ADF  00F4               	movwf	EUSART_Write_Text@text+1
  7876     1AE0  3199  21D3  319A   	fcall	_EUSART_Write_Text
  7877                           
  7878                           ;main.c: 71:     EUSART_Write_Text("================================\r\n");
  7879     1AE3  30B0               	movlw	low (STR_6| (0+32768))
  7880     1AE4  00F3               	movwf	EUSART_Write_Text@text
  7881     1AE5  3099               	movlw	high (STR_6| (0+32768))
  7882     1AE6  00F4               	movwf	EUSART_Write_Text@text+1
  7883     1AE7  3199  21D3  319A   	fcall	_EUSART_Write_Text
  7884                           
  7885                           ;main.c: 72:     EUSART_Write_Text("Commands:\r\n");
  7886     1AEA  30A1               	movlw	low (STR_9| (0+32768))
  7887     1AEB  00F3               	movwf	EUSART_Write_Text@text
  7888     1AEC  30A8               	movlw	high (STR_9| (0+32768))
  7889     1AED  00F4               	movwf	EUSART_Write_Text@text+1
  7890     1AEE  3199  21D3  319A   	fcall	_EUSART_Write_Text
  7891                           
  7892                           ;main.c: 73:     EUSART_Write_Text("  d - Run demo\r\n");
  7893     1AF1  3083               	movlw	low (STR_10| (0+32768))
  7894     1AF2  00F3               	movwf	EUSART_Write_Text@text
  7895     1AF3  30A8               	movlw	high (STR_10| (0+32768))
  7896     1AF4  00F4               	movwf	EUSART_Write_Text@text+1
  7897     1AF5  3199  21D3  319A   	fcall	_EUSART_Write_Text
  7898                           
  7899                           ;main.c: 74:     EUSART_Write_Text("  h - Help\r\n");
  7900     1AF8  3094               	movlw	low (STR_11| (0+32768))
  7901     1AF9  00F3               	movwf	EUSART_Write_Text@text
  7902     1AFA  30A8               	movlw	high (STR_11| (0+32768))
  7903     1AFB  00F4               	movwf	EUSART_Write_Text@text+1
  7904     1AFC  3199  21D3  319A   	fcall	_EUSART_Write_Text
  7905                           
  7906                           ;main.c: 75:     EUSART_Write_Text("  Or: SL,SW,PL,PW\r\n");
  7907     1AFF  304D               	movlw	low (STR_12| (0+32768))
  7908     1B00  00F3               	movwf	EUSART_Write_Text@text
  7909     1B01  30A8               	movlw	high (STR_12| (0+32768))
  7910     1B02  00F4               	movwf	EUSART_Write_Text@text+1
  7911     1B03  3199  21D3  319A   	fcall	_EUSART_Write_Text
  7912                           
  7913                           ;main.c: 76:     EUSART_Write_Text("  Ex: 5.1,3.5,1.4,0.2\r\n");
  7914     1B06  301E               	movlw	low (STR_13| (0+32768))
  7915     1B07  00F3               	movwf	EUSART_Write_Text@text
  7916     1B08  30A8               	movlw	high (STR_13| (0+32768))
  7917     1B09  00F4               	movwf	EUSART_Write_Text@text+1
  7918     1B0A  3199  21D3  319A   	fcall	_EUSART_Write_Text
  7919                           
  7920                           ;main.c: 77:     EUSART_Write_Text("================================\r\n");
  7921     1B0D  30B0               	movlw	low (STR_6| (0+32768))
  7922     1B0E  00F3               	movwf	EUSART_Write_Text@text
  7923     1B0F  3099               	movlw	high (STR_6| (0+32768))
  7924     1B10  00F4               	movwf	EUSART_Write_Text@text+1
  7925     1B11  3199  21D3  319A   	fcall	_EUSART_Write_Text
  7926                           
  7927                           ;main.c: 78:     EUSART_Write_Text("> ");
  7928     1B14  3003               	movlw	low ((STR_31+2)| (0+32768))
  7929     1B15  00F3               	movwf	EUSART_Write_Text@text
  7930     1B16  30A9               	movlw	high ((STR_31+2)| (0+32768))
  7931     1B17  00F4               	movwf	EUSART_Write_Text@text+1
  7932     1B18  3199  21D3  319A   	fcall	_EUSART_Write_Text
  7933     1B1B                     l185:
  7934     1B1B  0008               	return
  7935     1B1C                     __end_of_print_menu:
  7936                           
  7937                           	psect	text15
  7938     19D3                     __ptext15:	
  7939 ;; *************** function _EUSART_Write_Text *****************
  7940 ;; Defined at:
  7941 ;;		line 127 in file "EUSART.c"
  7942 ;; Parameters:    Size  Location     Type
  7943 ;;  text            2    3[COMMON] PTR unsigned char 
  7944 ;;		 -> STR_33(3), STR_32(3), STR_31(5), STR_30(9), 
  7945 ;;		 -> STR_29(4), STR_28(3), STR_27(11), STR_26(3), 
  7946 ;;		 -> STR_25(23), STR_24(3), STR_23(17), STR_22(3), 
  7947 ;;		 -> STR_21(9), STR_20(4), STR_19(3), STR_18(4), 
  7948 ;;		 -> STR_17(10), STR_16(17), STR_15(3), STR_14(35), 
  7949 ;;		 -> STR_13(24), STR_12(20), STR_11(13), STR_10(17), 
  7950 ;;		 -> STR_9(12), STR_8(35), STR_7(30), STR_6(35), 
  7951 ;;		 -> STR_5(3), STR_4(8), STR_3(10), STR_2(11), 
  7952 ;;		 -> STR_1(7), 
  7953 ;; Auto vars:     Size  Location     Type
  7954 ;;  i               2    6[COMMON] int 
  7955 ;; Return value:  Size  Location     Type
  7956 ;;                  1    wreg      void 
  7957 ;; Registers used:
  7958 ;;		wreg, fsr0l, fsr0h, status,2, status,0, pclath, cstack
  7959 ;; Tracked objects:
  7960 ;;		On entry : 0/0
  7961 ;;		On exit  : 0/0
  7962 ;;		Unchanged: 0/0
  7963 ;; Data sizes:     COMMON   BANK0   BANK1   BANK2   BANK3   BANK4   BANK5   BANK6   BANK7   BANK8   BANK9  BANK10  BANK1
      +1  BANK12  BANK13  BANK14  BANK15  BANK16  BANK17  BANK18  BANK19  BANK20  BANK21  BANK22  BANK23  BANK24  BANK25
  7964 ;;      Params:         2       0       0       0       0       0       0       0       0       0       0       0       
      +0       0       0       0       0       0       0       0       0       0       0       0       0       0       0
  7965 ;;      Locals:         2       0       0       0       0       0       0       0       0       0       0       0       
      +0       0       0       0       0       0       0       0       0       0       0       0       0       0       0
  7966 ;;      Temps:          1       0       0       0       0       0       0       0       0       0       0       0       
      +0       0       0       0       0       0       0       0       0       0       0       0       0       0       0
  7967 ;;      Totals:         5       0       0       0       0       0       0       0       0       0       0       0       
      +0       0       0       0       0       0       0       0       0       0       0       0       0       0       0
  7968 ;;Total ram usage:        5 bytes
  7969 ;; Hardware stack levels used: 1
  7970 ;; Hardware stack levels required when called: 1
  7971 ;; This function calls:
  7972 ;;		_EUSART_Write
  7973 ;; This function is called by:
  7974 ;;		_print_menu
  7975 ;;		_run_demo
  7976 ;;		_process_command
  7977 ;;		_main
  7978 ;; This function uses a non-reentrant model
  7979 ;;
  7980                           
  7981     19D3                     _EUSART_Write_Text:	
  7982                           ;psect for function _EUSART_Write_Text
  7983                           
  7984     19D3                     l3424:	
  7985                           ;incstack = 0
  7986                           ; Regs used in _EUSART_Write_Text: [wreg-fsr0h+status,2+status,0+pclath+cstack]
  7987                           
  7988                           
  7989                           ;EUSART.c: 127: void EUSART_Write_Text(char *text);EUSART.c: 128: {;EUSART.c: 129:   int
      +                           i;;EUSART.c: 130:   for(i=0;text[i]!='\0';i++)
  7990     19D3  01F6               	clrf	EUSART_Write_Text@i
  7991     19D4  01F7               	clrf	EUSART_Write_Text@i+1
  7992     19D5  29E4               	goto	l3430
  7993     19D6                     l3426:
  7994                           
  7995                           ;EUSART.c: 131:    EUSART_Write(text[i]);
  7996     19D6  0873               	movf	EUSART_Write_Text@text,w
  7997     19D7  0776               	addwf	EUSART_Write_Text@i,w
  7998     19D8  0084               	movwf	4
  7999     19D9  0874               	movf	EUSART_Write_Text@text+1,w
  8000     19DA  3D77               	addwfc	EUSART_Write_Text@i+1,w
  8001     19DB  0085               	movwf	5
  8002     19DC  0800               	movf	0,w	;code access
  8003     19DD  31A6  26D1  3199   	fcall	_EUSART_Write
  8004     19E0                     l3428:
  8005     19E0  3001               	movlw	1
  8006     19E1  07F6               	addwf	EUSART_Write_Text@i,f
  8007     19E2  3000               	movlw	0
  8008     19E3  3DF7               	addwfc	EUSART_Write_Text@i+1,f
  8009     19E4                     l3430:
  8010     19E4  0873               	movf	EUSART_Write_Text@text,w
  8011     19E5  0776               	addwf	EUSART_Write_Text@i,w
  8012     19E6  0084               	movwf	4
  8013     19E7  0874               	movf	EUSART_Write_Text@text+1,w
  8014     19E8  3D77               	addwfc	EUSART_Write_Text@i+1,w
  8015     19E9  0085               	movwf	5
  8016     19EA  0012               	moviw fsr0++
  8017     19EB  1D03               	btfss	3,2
  8018     19EC  29EE               	goto	u5051
  8019     19ED  29EF               	goto	u5050
  8020     19EE                     u5051:
  8021     19EE  29D6               	goto	l3426
  8022     19EF                     u5050:
  8023     19EF                     l50:
  8024     19EF  0008               	return
  8025     19F0                     __end_of_EUSART_Write_Text:
  8026                           
  8027                           	psect	text16
  8028     26D1                     __ptext16:	
  8029 ;; *************** function _EUSART_Write *****************
  8030 ;; Defined at:
  8031 ;;		line 108 in file "EUSART.c"
  8032 ;; Parameters:    Size  Location     Type
  8033 ;;  txData          1    wreg     unsigned char 
  8034 ;; Auto vars:     Size  Location     Type
  8035 ;;  txData          1    0[COMMON] unsigned char 
  8036 ;; Return value:  Size  Location     Type
  8037 ;;                  1    wreg      void 
  8038 ;; Registers used:
  8039 ;;		wreg
  8040 ;; Tracked objects:
  8041 ;;		On entry : 0/0
  8042 ;;		On exit  : 0/0
  8043 ;;		Unchanged: 0/0
  8044 ;; Data sizes:     COMMON   BANK0   BANK1   BANK2   BANK3   BANK4   BANK5   BANK6   BANK7   BANK8   BANK9  BANK10  BANK1
      +1  BANK12  BANK13  BANK14  BANK15  BANK16  BANK17  BANK18  BANK19  BANK20  BANK21  BANK22  BANK23  BANK24  BANK25
  8045 ;;      Params:         0       0       0       0       0       0       0       0       0       0       0       0       
      +0       0       0       0       0       0       0       0       0       0       0       0       0       0       0
  8046 ;;      Locals:         1       0       0       0       0       0       0       0       0       0       0       0       
      +0       0       0       0       0       0       0       0       0       0       0       0       0       0       0
  8047 ;;      Temps:          0       0       0       0       0       0       0       0       0       0       0       0       
      +0       0       0       0       0       0       0       0       0       0       0       0       0       0       0
  8048 ;;      Totals:         1       0       0       0       0       0       0       0       0       0       0       0       
      +0       0       0       0       0       0       0       0       0       0       0       0       0       0       0
  8049 ;;Total ram usage:        1 bytes
  8050 ;; Hardware stack levels used: 1
  8051 ;; This function calls:
  8052 ;;		Nothing
  8053 ;; This function is called by:
  8054 ;;		_EUSART_Write_Text
  8055 ;;		_EUSART_Write_Integer
  8056 ;;		_print_float
  8057 ;;		_main
  8058 ;; This function uses a non-reentrant model
  8059 ;;
  8060                           
  8061     26D1                     _EUSART_Write:	
  8062                           ;psect for function _EUSART_Write
  8063                           
  8064                           
  8065                           ;incstack = 0
  8066                           ; Regs used in _EUSART_Write: [wreg]
  8067                           ;EUSART_Write@txData stored from wreg
  8068     26D1  00F0               	movwf	EUSART_Write@txData
  8069     26D2                     l2732:
  8070     26D2                     l41:	
  8071                           ;EUSART.c: 111:     {;EUSART.c: 112:     }
  8072                           
  8073                           
  8074                           ;EUSART.c: 110:     while(0 == PIR1bits.TXIF)
  8075     26D2  0020               	movlb	0	; select bank0
  8076     26D3  1E11               	btfss	17,4	;volatile
  8077     26D4  2ED6               	goto	u3581
  8078     26D5  2ED7               	goto	u3580
  8079     26D6                     u3581:
  8080     26D6  2ED2               	goto	l41
  8081     26D7                     u3580:
  8082     26D7                     l2734:
  8083                           
  8084                           ;EUSART.c: 114:     TX1REG = txData;
  8085     26D7  0870               	movf	EUSART_Write@txData,w
  8086     26D8  0023               	movlb	3	; select bank3
  8087     26D9  009A               	movwf	26	;volatile
  8088     26DA                     l44:
  8089     26DA  0008               	return
  8090     26DB                     __end_of_EUSART_Write:
  8091                           
  8092                           	psect	text17
  8093     1015                     __ptext17:	
  8094 ;; *************** function _parse_features *****************
  8095 ;; Defined at:
  8096 ;;		line 104 in file "main.c"
  8097 ;; Parameters:    Size  Location     Type
  8098 ;;  buffer          1    wreg     PTR unsigned char 
  8099 ;;		 -> rx_buffer(64), 
  8100 ;;  features        1   78[BANK0 ] PTR float 
  8101 ;;		 -> process_command@features(16), 
  8102 ;; Auto vars:     Size  Location     Type
  8103 ;;  buffer          1    2[BANK1 ] PTR unsigned char 
  8104 ;;		 -> rx_buffer(64), 
  8105 ;;  saveptr         1    5[BANK1 ] PTR unsigned char 
  8106 ;;		 -> rx_buffer(64), 
  8107 ;;  count           1    4[BANK1 ] unsigned char 
  8108 ;;  token           1    3[BANK1 ] PTR unsigned char 
  8109 ;;		 -> rx_buffer(64), 
  8110 ;; Return value:  Size  Location     Type
  8111 ;;                  1    wreg      unsigned char 
  8112 ;; Registers used:
  8113 ;;		wreg, fsr0l, fsr0h, fsr1l, fsr1h, status,2, status,0, pclath, cstack
  8114 ;; Tracked objects:
  8115 ;;		On entry : 0/0
  8116 ;;		On exit  : 0/0
  8117 ;;		Unchanged: 0/0
  8118 ;; Data sizes:     COMMON   BANK0   BANK1   BANK2   BANK3   BANK4   BANK5   BANK6   BANK7   BANK8   BANK9  BANK10  BANK1
      +1  BANK12  BANK13  BANK14  BANK15  BANK16  BANK17  BANK18  BANK19  BANK20  BANK21  BANK22  BANK23  BANK24  BANK25
  8119 ;;      Params:         0       1       0       0       0       0       0       0       0       0       0       0       
      +0       0       0       0       0       0       0       0       0       0       0       0       0       0       0
  8120 ;;      Locals:         0       0       4       0       0       0       0       0       0       0       0       0       
      +0       0       0       0       0       0       0       0       0       0       0       0       0       0       0
  8121 ;;      Temps:          0       0       2       0       0       0       0       0       0       0       0       0       
      +0       0       0       0       0       0       0       0       0       0       0       0       0       0       0
  8122 ;;      Totals:         0       1       6       0       0       0       0       0       0       0       0       0       
      +0       0       0       0       0       0       0       0       0       0       0       0       0       0       0
  8123 ;;Total ram usage:        7 bytes
  8124 ;; Hardware stack levels used: 1
  8125 ;; Hardware stack levels required when called: 3
  8126 ;; This function calls:
  8127 ;;		_strlen
  8128 ;;		_strtof
  8129 ;; This function is called by:
  8130 ;;		_process_command
  8131 ;; This function uses a non-reentrant model
  8132 ;;
  8133                           
  8134     1015                     _parse_features:	
  8135                           ;psect for function _parse_features
  8136                           
  8137                           
  8138                           ;incstack = 0
  8139                           ; Regs used in _parse_features: [wreg-fsr1h+status,2+status,0+pclath+cstack]
  8140                           ;parse_features@buffer stored from wreg
  8141     1015  0021               	movlb	1	; select bank1
  8142     1016  00A2               	movwf	parse_features@buffer^(0+128)
  8143     1017                     l3944:
  8144                           
  8145                           ;main.c: 104: unsigned char parse_features(char *buffer, float *features);main.c: 105: {
      +                          ;main.c: 106:     unsigned char count = 0;
  8146     1017  01A4               	clrf	parse_features@count^(0+128)
  8147     1018                     l3946:
  8148                           
  8149                           ;main.c: 107:     char *token;;main.c: 108:     char *saveptr = buffer;
  8150     1018  0822               	movf	parse_features@buffer^(0+128),w
  8151     1019  00A5               	movwf	parse_features@saveptr^(0+128)
  8152                           
  8153                           ;main.c: 110:     while (count < 4) {
  8154     101A  28AC               	goto	l3978
  8155     101B                     l3948:
  8156                           
  8157                           ;main.c: 111:         token = saveptr;
  8158     101B  0825               	movf	parse_features@saveptr^(0+128),w
  8159     101C  00A3               	movwf	parse_features@token^(0+128)
  8160                           
  8161                           ;main.c: 112:         while (*saveptr != ',' && *saveptr != '\0' && *saveptr != '\r' && 
      +                          *saveptr != '\n') {
  8162     101D  2822               	goto	l3952
  8163     101E                     l3950:
  8164                           
  8165                           ;main.c: 113:             saveptr++;
  8166     101E  3001               	movlw	1
  8167     101F  00A0               	movwf	??_parse_features^(0+128)
  8168     1020  0820               	movf	??_parse_features^(0+128),w
  8169     1021  07A5               	addwf	parse_features@saveptr^(0+128),f
  8170     1022                     l3952:
  8171                           
  8172                           ;main.c: 112:         while (*saveptr != ',' && *saveptr != '\0' && *saveptr != '\r' && 
      +                          *saveptr != '\n') {
  8173     1022  0825               	movf	parse_features@saveptr^(0+128),w
  8174     1023  0086               	movwf	6
  8175     1024  3002               	movlw	2	; select bank4/5
  8176     1025  0087               	movwf	7
  8177     1026  302C               	movlw	44
  8178     1027  0601               	xorwf	1,w
  8179     1028  1903               	btfsc	3,2
  8180     1029  282B               	goto	u6131
  8181     102A  282C               	goto	u6130
  8182     102B                     u6131:
  8183     102B  2849               	goto	l3960
  8184     102C                     u6130:
  8185     102C                     l3954:
  8186     102C  0825               	movf	parse_features@saveptr^(0+128),w
  8187     102D  0086               	movwf	6
  8188     102E  3002               	movlw	2	; select bank4/5
  8189     102F  0087               	movwf	7
  8190     1030  0801               	movf	1,w
  8191     1031  1903               	btfsc	3,2
  8192     1032  2834               	goto	u6141
  8193     1033  2835               	goto	u6140
  8194     1034                     u6141:
  8195     1034  2849               	goto	l3960
  8196     1035                     u6140:
  8197     1035                     l3956:
  8198     1035  0825               	movf	parse_features@saveptr^(0+128),w
  8199     1036  0086               	movwf	6
  8200     1037  3002               	movlw	2	; select bank4/5
  8201     1038  0087               	movwf	7
  8202     1039  300D               	movlw	13
  8203     103A  0601               	xorwf	1,w
  8204     103B  1903               	btfsc	3,2
  8205     103C  283E               	goto	u6151
  8206     103D  283F               	goto	u6150
  8207     103E                     u6151:
  8208     103E  2849               	goto	l3960
  8209     103F                     u6150:
  8210     103F                     l3958:
  8211     103F  0825               	movf	parse_features@saveptr^(0+128),w
  8212     1040  0086               	movwf	6
  8213     1041  3002               	movlw	2	; select bank4/5
  8214     1042  0087               	movwf	7
  8215     1043  300A               	movlw	10
  8216     1044  0601               	xorwf	1,w
  8217     1045  1D03               	btfss	3,2
  8218     1046  2848               	goto	u6161
  8219     1047  2849               	goto	u6160
  8220     1048                     u6161:
  8221     1048  281E               	goto	l3950
  8222     1049                     u6160:
  8223     1049                     l3960:
  8224                           
  8225                           ;main.c: 116:         if (*saveptr != '\0') {
  8226     1049  0825               	movf	parse_features@saveptr^(0+128),w
  8227     104A  0086               	movwf	6
  8228     104B  3002               	movlw	2	; select bank4/5
  8229     104C  0087               	movwf	7
  8230     104D  0801               	movf	1,w
  8231     104E  1903               	btfsc	3,2
  8232     104F  2851               	goto	u6171
  8233     1050  2852               	goto	u6170
  8234     1051                     u6171:
  8235     1051  285B               	goto	l3966
  8236     1052                     u6170:
  8237     1052                     l3962:
  8238                           
  8239                           ;main.c: 117:             *saveptr = '\0';
  8240     1052  0825               	movf	parse_features@saveptr^(0+128),w
  8241     1053  0086               	movwf	6
  8242     1054  3002               	movlw	2	; select bank4/5
  8243     1055  0087               	movwf	7
  8244     1056  0181               	clrf	1
  8245     1057                     l3964:
  8246                           
  8247                           ;main.c: 118:             saveptr++;
  8248     1057  3001               	movlw	1
  8249     1058  00A0               	movwf	??_parse_features^(0+128)
  8250     1059  0820               	movf	??_parse_features^(0+128),w
  8251     105A  07A5               	addwf	parse_features@saveptr^(0+128),f
  8252     105B                     l3966:
  8253                           
  8254                           ;main.c: 121:         if (strlen(token) > 0) {
  8255     105B  0823               	movf	parse_features@token^(0+128),w
  8256     105C  31A7  270F  3190   	fcall	_strlen
  8257     105F  0870               	movf	?_strlen,w
  8258     1060  0471               	iorwf	?_strlen+1,w
  8259     1061  1903               	btfsc	3,2
  8260     1062  2864               	goto	u6181
  8261     1063  2865               	goto	u6180
  8262     1064                     u6181:
  8263     1064  288D               	goto	l3972
  8264     1065                     u6180:
  8265     1065                     l3968:
  8266                           
  8267                           ;main.c: 122:             features[count] = (float)strtof(token,0);
  8268     1065  3000               	movlw	0
  8269     1066  0020               	movlb	0	; select bank0
  8270     1067  00D2               	movwf	strtof@res
  8271     1068  00D3               	movwf	strtof@res+1
  8272     1069  0021               	movlb	1	; select bank1
  8273     106A  0823               	movf	parse_features@token^(0+128),w
  8274     106B  3180  2029  3190   	fcall	_strtof
  8275     106E  0021               	movlb	1	; select bank1
  8276     106F  0824               	movf	parse_features@count^(0+128),w
  8277     1070  00A0               	movwf	??_parse_features^(0+128)
  8278     1071  3001               	movlw	1
  8279     1072                     u6195:
  8280     1072  35A0               	lslf	??_parse_features^(0+128),f
  8281     1073  3EFF               	addlw	-1
  8282     1074  1D03               	skipz
  8283     1075  2872               	goto	u6195
  8284     1076  3520               	lslf	??_parse_features^(0+128),w
  8285     1077  0020               	movlb	0	; select bank0
  8286     1078  076E               	addwf	parse_features@features,w
  8287     1079  0021               	movlb	1	; select bank1
  8288     107A  00A1               	movwf	(??_parse_features+1)^(0+128)
  8289     107B  0821               	movf	(??_parse_features+1)^(0+128),w
  8290     107C  0086               	movwf	6
  8291     107D  3001               	movlw	1	; select bank2/3
  8292     107E  0087               	movwf	7
  8293     107F  0020               	movlb	0	; select bank0
  8294     1080  0852               	movf	?_strtof,w
  8295     1081  3FC0               	movwi [0]fsr1
  8296     1082  0853               	movf	?_strtof+1,w
  8297     1083  3FC1               	movwi [1]fsr1
  8298     1084  0854               	movf	?_strtof+2,w
  8299     1085  3FC2               	movwi [2]fsr1
  8300     1086  0855               	movf	?_strtof+3,w
  8301     1087  3FC3               	movwi [3]fsr1
  8302     1088                     l3970:
  8303                           
  8304                           ;main.c: 123:             count++;
  8305     1088  3001               	movlw	1
  8306     1089  0021               	movlb	1	; select bank1
  8307     108A  00A0               	movwf	??_parse_features^(0+128)
  8308     108B  0820               	movf	??_parse_features^(0+128),w
  8309     108C  07A4               	addwf	parse_features@count^(0+128),f
  8310     108D                     l3972:
  8311                           
  8312                           ;main.c: 126:         if (*saveptr == '\0' || *saveptr == '\r' || *saveptr == '\n') {
  8313     108D  0021               	movlb	1	; select bank1
  8314     108E  0825               	movf	parse_features@saveptr^(0+128),w
  8315     108F  0086               	movwf	6
  8316     1090  3002               	movlw	2	; select bank4/5
  8317     1091  0087               	movwf	7
  8318     1092  0801               	movf	1,w
  8319     1093  1903               	btfsc	3,2
  8320     1094  2896               	goto	u6201
  8321     1095  2897               	goto	u6200
  8322     1096                     u6201:
  8323     1096  28B2               	goto	l3980
  8324     1097                     u6200:
  8325     1097                     l3974:
  8326     1097  0825               	movf	parse_features@saveptr^(0+128),w
  8327     1098  0086               	movwf	6
  8328     1099  3002               	movlw	2	; select bank4/5
  8329     109A  0087               	movwf	7
  8330     109B  300D               	movlw	13
  8331     109C  0601               	xorwf	1,w
  8332     109D  1903               	btfsc	3,2
  8333     109E  28A0               	goto	u6211
  8334     109F  28A1               	goto	u6210
  8335     10A0                     u6211:
  8336     10A0  28B2               	goto	l3980
  8337     10A1                     u6210:
  8338     10A1                     l3976:
  8339     10A1  0825               	movf	parse_features@saveptr^(0+128),w
  8340     10A2  0086               	movwf	6
  8341     10A3  3002               	movlw	2	; select bank4/5
  8342     10A4  0087               	movwf	7
  8343     10A5  300A               	movlw	10
  8344     10A6  0601               	xorwf	1,w
  8345     10A7  1D03               	btfss	3,2
  8346     10A8  28AA               	goto	u6221
  8347     10A9  28AB               	goto	u6220
  8348     10AA                     u6221:
  8349     10AA  28AC               	goto	l3978
  8350     10AB                     u6220:
  8351     10AB  28B2               	goto	l3980
  8352     10AC                     l3978:
  8353                           
  8354                           ;main.c: 110:     while (count < 4) {
  8355     10AC  3004               	movlw	4
  8356     10AD  0224               	subwf	parse_features@count^(0+128),w
  8357     10AE  1C03               	skipc
  8358     10AF  28B1               	goto	u6231
  8359     10B0  28B2               	goto	u6230
  8360     10B1                     u6231:
  8361     10B1  281B               	goto	l3948
  8362     10B2                     u6230:
  8363     10B2                     l3980:
  8364                           
  8365                           ;main.c: 131:     return count;
  8366     10B2  0824               	movf	parse_features@count^(0+128),w
  8367     10B3                     l205:
  8368     10B3  0008               	return
  8369     10B4                     __end_of_parse_features:
  8370                           
  8371                           	psect	text18
  8372     0029                     __ptext18:	
  8373 ;; *************** function _strtof *****************
  8374 ;; Defined at:
  8375 ;;		line 100 in file "C:\Program Files\Microchip\xc8\v2.46\pic\sources\c99\common\strtof.c"
  8376 ;; Parameters:    Size  Location     Type
  8377 ;;  s               1    wreg     PTR const unsigned char 
  8378 ;;		 -> rx_buffer(64), 
  8379 ;;  res             2   50[BANK0 ] PTR PTR unsigned char 
  8380 ;;		 -> NULL(0), 
  8381 ;; Auto vars:     Size  Location     Type
  8382 ;;  s               1   77[BANK0 ] PTR const unsigned char 
  8383 ;;		 -> rx_buffer(64), 
  8384 ;;  _u              4   72[BANK0 ] struct .
  8385 ;;  eexp            2   70[BANK0 ] int 
  8386 ;;  expon           2   68[BANK0 ] int 
  8387 ;;  err             2   62[BANK0 ] int 
  8388 ;;  i               1   76[BANK0 ] unsigned char 
  8389 ;;  flags           1   67[BANK0 ] unsigned char 
  8390 ;;  digit           1   66[BANK0 ] unsigned char 
  8391 ;;  dpos            1   65[BANK0 ] unsigned char 
  8392 ;;  xpos            1   64[BANK0 ] unsigned char 
  8393 ;; Return value:  Size  Location     Type
  8394 ;;                  4   50[BANK0 ] float 
  8395 ;; Registers used:
  8396 ;;		wreg, fsr0l, fsr0h, fsr1l, fsr1h, status,2, status,0, pclath, cstack
  8397 ;; Tracked objects:
  8398 ;;		On entry : 0/0
  8399 ;;		On exit  : 0/0
  8400 ;;		Unchanged: 0/0
  8401 ;; Data sizes:     COMMON   BANK0   BANK1   BANK2   BANK3   BANK4   BANK5   BANK6   BANK7   BANK8   BANK9  BANK10  BANK1
      +1  BANK12  BANK13  BANK14  BANK15  BANK16  BANK17  BANK18  BANK19  BANK20  BANK21  BANK22  BANK23  BANK24  BANK25
  8402 ;;      Params:         0       4       0       0       0       0       0       0       0       0       0       0       
      +0       0       0       0       0       0       0       0       0       0       0       0       0       0       0
  8403 ;;      Locals:         0      16       0       0       0       0       0       0       0       0       0       0       
      +0       0       0       0       0       0       0       0       0       0       0       0       0       0       0
  8404 ;;      Temps:          0       8       0       0       0       0       0       0       0       0       0       0       
      +0       0       0       0       0       0       0       0       0       0       0       0       0       0       0
  8405 ;;      Totals:         0      28       0       0       0       0       0       0       0       0       0       0       
      +0       0       0       0       0       0       0       0       0       0       0       0       0       0       0
  8406 ;;Total ram usage:       28 bytes
  8407 ;; Hardware stack levels used: 1
  8408 ;; Hardware stack levels required when called: 2
  8409 ;; This function calls:
  8410 ;;		___fldiv
  8411 ;;		___fleq
  8412 ;;		___flge
  8413 ;;		___flmul
  8414 ;;		___flneg
  8415 ;;		___lmul
  8416 ;;		___wmul
  8417 ;;		___xxtofl
  8418 ;;		_isdigit
  8419 ;;		_isxdigit
  8420 ;;		_nanf
  8421 ;;		_toupper
  8422 ;; This function is called by:
  8423 ;;		_parse_features
  8424 ;; This function uses a non-reentrant model
  8425 ;;
  8426                           
  8427     0029                     _strtof:	
  8428                           ;psect for function _strtof
  8429                           
  8430                           
  8431                           ;incstack = 0
  8432                           ; Regs used in _strtof: [wreg-fsr1h+status,2+status,0+pclath+cstack]
  8433                           ;strtof@s stored from wreg
  8434     0029  0020               	movlb	0	; select bank0
  8435     002A  00ED               	movwf	strtof@s
  8436     002B                     l3530:
  8437     002B  01DE               	clrf	strtof@err
  8438     002C  01DF               	clrf	strtof@err+1
  8439     002D                     l3532:
  8440     002D  0852               	movf	strtof@res,w
  8441     002E  0453               	iorwf	strtof@res+1,w
  8442     002F  1903               	btfsc	3,2
  8443     0030  2832               	goto	u5161
  8444     0031  2833               	goto	u5160
  8445     0032                     u5161:
  8446     0032  283E               	goto	l3538
  8447     0033                     u5160:
  8448     0033                     l3534:
  8449     0033  0852               	movf	strtof@res,w
  8450     0034  0086               	movwf	6
  8451     0035  0853               	movf	strtof@res+1,w
  8452     0036  0087               	movwf	7
  8453     0037  086D               	movf	strtof@s,w
  8454     0038  0081               	movwf	1
  8455     0039  283E               	goto	l3538
  8456     003A                     l3536:
  8457     003A  3001               	movlw	1
  8458     003B  00D6               	movwf	??_strtof
  8459     003C  0856               	movf	??_strtof,w
  8460     003D  07ED               	addwf	strtof@s,f
  8461     003E                     l3538:
  8462     003E  086D               	movf	strtof@s,w
  8463     003F  0086               	movwf	6
  8464     0040  3002               	movlw	2	; select bank4/5
  8465     0041  0087               	movwf	7
  8466     0042  3020               	movlw	32
  8467     0043  0601               	xorwf	1,w
  8468     0044  1903               	btfsc	3,2
  8469     0045  2847               	goto	u5171
  8470     0046  2849               	goto	u5170
  8471     0047                     u5171:
  8472     0047  3001               	movlw	1
  8473     0048  284A               	goto	u5180
  8474     0049                     u5170:
  8475     0049  3000               	movlw	0
  8476     004A                     u5180:
  8477     004A  00D6               	movwf	??_strtof
  8478     004B  01D7               	clrf	??_strtof+1
  8479     004C  0856               	movf	??_strtof,w
  8480     004D  00E6               	movwf	strtof@eexp
  8481     004E  0857               	movf	??_strtof+1,w
  8482     004F  00E7               	movwf	strtof@eexp+1
  8483     0050  0866               	movf	strtof@eexp,w
  8484     0051  0467               	iorwf	strtof@eexp+1,w
  8485     0052  1D03               	btfss	3,2
  8486     0053  2855               	goto	u5191
  8487     0054  2856               	goto	u5190
  8488     0055                     u5191:
  8489     0055  283A               	goto	l3536
  8490     0056                     u5190:
  8491     0056                     l3540:
  8492     0056  086D               	movf	strtof@s,w
  8493     0057  0086               	movwf	6
  8494     0058  3002               	movlw	2	; select bank4/5
  8495     0059  0087               	movwf	7
  8496     005A  0801               	movf	1,w
  8497     005B  00D6               	movwf	??_strtof
  8498     005C  01D7               	clrf	??_strtof+1
  8499     005D  0856               	movf	??_strtof,w
  8500     005E  00E6               	movwf	strtof@eexp
  8501     005F  0857               	movf	??_strtof+1,w
  8502     0060  00E7               	movwf	strtof@eexp+1
  8503     0061  0867               	movf	strtof@eexp+1,w
  8504     0062  00D9               	movwf	??_strtof+3
  8505     0063  0866               	movf	strtof@eexp,w
  8506     0064  00D8               	movwf	??_strtof+2
  8507     0065  30F7               	movlw	247
  8508     0066  0758               	addwf	??_strtof+2,w
  8509     0067  00DA               	movwf	??_strtof+4
  8510     0068  3005               	movlw	5
  8511     0069  025A               	subwf	??_strtof+4,w
  8512     006A  1C03               	skipc
  8513     006B  286D               	goto	u5201
  8514     006C  286E               	goto	u5200
  8515     006D                     u5201:
  8516     006D  283A               	goto	l3536
  8517     006E                     u5200:
  8518     006E                     l3542:
  8519     006E  01E3               	clrf	strtof@flags
  8520     006F                     l3544:
  8521     006F  302D               	movlw	45
  8522     0070  0666               	xorwf	strtof@eexp,w
  8523     0071  0467               	iorwf	strtof@eexp+1,w
  8524     0072  1D03               	btfss	3,2
  8525     0073  2875               	goto	u5211
  8526     0074  2876               	goto	u5210
  8527     0075                     u5211:
  8528     0075  287D               	goto	l3550
  8529     0076                     u5210:
  8530     0076                     l3546:
  8531     0076  01E3               	clrf	strtof@flags
  8532     0077  0AE3               	incf	strtof@flags,f
  8533     0078                     l3548:
  8534     0078  3001               	movlw	1
  8535     0079  00D6               	movwf	??_strtof
  8536     007A  0856               	movf	??_strtof,w
  8537     007B  07ED               	addwf	strtof@s,f
  8538     007C  2885               	goto	l3554
  8539     007D                     l3550:
  8540     007D  302B               	movlw	43
  8541     007E  0666               	xorwf	strtof@eexp,w
  8542     007F  0467               	iorwf	strtof@eexp+1,w
  8543     0080  1D03               	btfss	3,2
  8544     0081  2883               	goto	u5221
  8545     0082  2884               	goto	u5220
  8546     0083                     u5221:
  8547     0083  2885               	goto	l3554
  8548     0084                     u5220:
  8549     0084  2878               	goto	l3548
  8550     0085                     l3554:
  8551     0085  01EC               	clrf	strtof@i
  8552     0086  288B               	goto	l3558
  8553     0087                     l3556:
  8554     0087  3001               	movlw	1
  8555     0088  00D6               	movwf	??_strtof
  8556     0089  0856               	movf	??_strtof,w
  8557     008A  07EC               	addwf	strtof@i,f
  8558     008B                     l3558:
  8559     008B  086C               	movf	strtof@i,w
  8560     008C  076D               	addwf	strtof@s,w
  8561     008D  00D6               	movwf	??_strtof
  8562     008E  0856               	movf	??_strtof,w
  8563     008F  0086               	movwf	6
  8564     0090  3002               	movlw	2	; select bank4/5
  8565     0091  0087               	movwf	7
  8566     0092  0801               	movf	1,w
  8567     0093  1903               	btfsc	3,2
  8568     0094  2896               	goto	u5231
  8569     0095  2897               	goto	u5230
  8570     0096                     u5231:
  8571     0096  28C3               	goto	l3564
  8572     0097                     u5230:
  8573     0097                     l3560:
  8574     0097  086C               	movf	strtof@i,w
  8575     0098  3EE0               	addlw	low (STR_34| (0+32768))
  8576     0099  0084               	movwf	4
  8577     009A  30A8               	movlw	high (STR_34| (0+32768))
  8578     009B  1803               	skipnc
  8579     009C  3E01               	addlw	1
  8580     009D  0085               	movwf	5
  8581     009E  0800               	movf	0,w	;code access
  8582     009F  00D6               	movwf	??_strtof
  8583     00A0  086C               	movf	strtof@i,w
  8584     00A1  076D               	addwf	strtof@s,w
  8585     00A2  00D7               	movwf	??_strtof+1
  8586     00A3  0857               	movf	??_strtof+1,w
  8587     00A4  0086               	movwf	6
  8588     00A5  3002               	movlw	2	; select bank4/5
  8589     00A6  0087               	movwf	7
  8590     00A7  0801               	movf	1,w
  8591     00A8  0656               	xorwf	??_strtof,w
  8592     00A9  1903               	skipnz
  8593     00AA  28AC               	goto	u5241
  8594     00AB  28AD               	goto	u5240
  8595     00AC                     u5241:
  8596     00AC  2887               	goto	l3556
  8597     00AD                     u5240:
  8598     00AD                     l3562:
  8599     00AD  086C               	movf	strtof@i,w
  8600     00AE  3ED7               	addlw	low (STR_35| (0+32768))
  8601     00AF  0084               	movwf	4
  8602     00B0  30A8               	movlw	high (STR_35| (0+32768))
  8603     00B1  1803               	skipnc
  8604     00B2  3E01               	addlw	1
  8605     00B3  0085               	movwf	5
  8606     00B4  0800               	movf	0,w	;code access
  8607     00B5  00D6               	movwf	??_strtof
  8608     00B6  086C               	movf	strtof@i,w
  8609     00B7  076D               	addwf	strtof@s,w
  8610     00B8  00D7               	movwf	??_strtof+1
  8611     00B9  0857               	movf	??_strtof+1,w
  8612     00BA  0086               	movwf	6
  8613     00BB  3002               	movlw	2	; select bank4/5
  8614     00BC  0087               	movwf	7
  8615     00BD  0801               	movf	1,w
  8616     00BE  0656               	xorwf	??_strtof,w
  8617     00BF  1903               	skipnz
  8618     00C0  28C2               	goto	u5251
  8619     00C1  28C3               	goto	u5250
  8620     00C2                     u5251:
  8621     00C2  2887               	goto	l3556
  8622     00C3                     u5250:
  8623     00C3                     l3564:
  8624     00C3  3003               	movlw	3
  8625     00C4  026C               	subwf	strtof@i,w
  8626     00C5  1C03               	skipc
  8627     00C6  28C8               	goto	u5261
  8628     00C7  28C9               	goto	u5260
  8629     00C8                     u5261:
  8630     00C8  28E9               	goto	l3576
  8631     00C9                     u5260:
  8632     00C9                     l3566:
  8633     00C9  307F               	movlw	127
  8634     00CA  00EB               	movwf	strtof@_u+3
  8635     00CB  3080               	movlw	128
  8636     00CC  00EA               	movwf	strtof@_u+2
  8637     00CD  3000               	movlw	0
  8638     00CE  00E9               	movwf	strtof@_u+1
  8639     00CF  3000               	movlw	0
  8640     00D0  00E8               	movwf	strtof@_u
  8641     00D1                     l3568:
  8642     00D1  0852               	movf	strtof@res,w
  8643     00D2  0453               	iorwf	strtof@res+1,w
  8644     00D3  1903               	btfsc	3,2
  8645     00D4  28D6               	goto	u5271
  8646     00D5  28D7               	goto	u5270
  8647     00D6                     u5271:
  8648     00D6  2F81               	goto	l3928
  8649     00D7                     u5270:
  8650     00D7                     l3570:
  8651     00D7  3008               	movlw	8
  8652     00D8  066C               	xorwf	strtof@i,w
  8653     00D9  1903               	btfsc	3,2
  8654     00DA  28DC               	goto	u5281
  8655     00DB  28DD               	goto	u5280
  8656     00DC                     u5281:
  8657     00DC  28DF               	goto	l3574
  8658     00DD                     u5280:
  8659     00DD                     l3572:
  8660     00DD  3003               	movlw	3
  8661     00DE  00EC               	movwf	strtof@i
  8662     00DF                     l3574:
  8663     00DF  086D               	movf	strtof@s,w
  8664     00E0  076C               	addwf	strtof@i,w
  8665     00E1  00D6               	movwf	??_strtof
  8666     00E2  0852               	movf	strtof@res,w
  8667     00E3  0086               	movwf	6
  8668     00E4  0853               	movf	strtof@res+1,w
  8669     00E5  0087               	movwf	7
  8670     00E6  0856               	movf	??_strtof,w
  8671     00E7  0081               	movwf	1
  8672     00E8  2F81               	goto	l3928
  8673     00E9                     l3576:
  8674     00E9  01EC               	clrf	strtof@i
  8675     00EA  28EF               	goto	l3580
  8676     00EB                     l3578:
  8677     00EB  3001               	movlw	1
  8678     00EC  00D6               	movwf	??_strtof
  8679     00ED  0856               	movf	??_strtof,w
  8680     00EE  07EC               	addwf	strtof@i,f
  8681     00EF                     l3580:
  8682     00EF  086C               	movf	strtof@i,w
  8683     00F0  076D               	addwf	strtof@s,w
  8684     00F1  00D6               	movwf	??_strtof
  8685     00F2  0856               	movf	??_strtof,w
  8686     00F3  0086               	movwf	6
  8687     00F4  3002               	movlw	2	; select bank4/5
  8688     00F5  0087               	movwf	7
  8689     00F6  0801               	movf	1,w
  8690     00F7  1903               	btfsc	3,2
  8691     00F8  28FA               	goto	u5291
  8692     00F9  28FB               	goto	u5290
  8693     00FA                     u5291:
  8694     00FA  2927               	goto	l3586
  8695     00FB                     u5290:
  8696     00FB                     l3582:
  8697     00FB  086C               	movf	strtof@i,w
  8698     00FC  3E0E               	addlw	low (STR_39| (0+32768))
  8699     00FD  0084               	movwf	4
  8700     00FE  30A9               	movlw	high (STR_39| (0+32768))
  8701     00FF  1803               	skipnc
  8702     0100  3E01               	addlw	1
  8703     0101  0085               	movwf	5
  8704     0102  0800               	movf	0,w	;code access
  8705     0103  00D6               	movwf	??_strtof
  8706     0104  086C               	movf	strtof@i,w
  8707     0105  076D               	addwf	strtof@s,w
  8708     0106  00D7               	movwf	??_strtof+1
  8709     0107  0857               	movf	??_strtof+1,w
  8710     0108  0086               	movwf	6
  8711     0109  3002               	movlw	2	; select bank4/5
  8712     010A  0087               	movwf	7
  8713     010B  0801               	movf	1,w
  8714     010C  0656               	xorwf	??_strtof,w
  8715     010D  1903               	skipnz
  8716     010E  2910               	goto	u5301
  8717     010F  2911               	goto	u5300
  8718     0110                     u5301:
  8719     0110  28EB               	goto	l3578
  8720     0111                     u5300:
  8721     0111                     l3584:
  8722     0111  086C               	movf	strtof@i,w
  8723     0112  3E06               	addlw	low (STR_40| (0+32768))
  8724     0113  0084               	movwf	4
  8725     0114  30A9               	movlw	high (STR_40| (0+32768))
  8726     0115  1803               	skipnc
  8727     0116  3E01               	addlw	1
  8728     0117  0085               	movwf	5
  8729     0118  0800               	movf	0,w	;code access
  8730     0119  00D6               	movwf	??_strtof
  8731     011A  086C               	movf	strtof@i,w
  8732     011B  076D               	addwf	strtof@s,w
  8733     011C  00D7               	movwf	??_strtof+1
  8734     011D  0857               	movf	??_strtof+1,w
  8735     011E  0086               	movwf	6
  8736     011F  3002               	movlw	2	; select bank4/5
  8737     0120  0087               	movwf	7
  8738     0121  0801               	movf	1,w
  8739     0122  0656               	xorwf	??_strtof,w
  8740     0123  1903               	skipnz
  8741     0124  2926               	goto	u5311
  8742     0125  2927               	goto	u5310
  8743     0126                     u5311:
  8744     0126  28EB               	goto	l3578
  8745     0127                     u5310:
  8746     0127                     l3586:
  8747     0127  3003               	movlw	3
  8748     0128  066C               	xorwf	strtof@i,w
  8749     0129  1D03               	btfss	3,2
  8750     012A  292C               	goto	u5321
  8751     012B  292D               	goto	u5320
  8752     012C                     u5321:
  8753     012C  2989               	goto	l3610
  8754     012D                     u5320:
  8755     012D                     l3588:
  8756     012D  3018               	movlw	low ((STR_33+2)| (0+32768))
  8757     012E  00F0               	movwf	nanf@s
  8758     012F  30A9               	movlw	high ((STR_33+2)| (0+32768))
  8759     0130  00F1               	movwf	nanf@s+1
  8760     0131  31A6  26FE  3180   	fcall	_nanf
  8761     0134  0873               	movf	?_nanf+3,w
  8762     0135  0020               	movlb	0	; select bank0
  8763     0136  00EB               	movwf	strtof@_u+3
  8764     0137  0872               	movf	?_nanf+2,w
  8765     0138  00EA               	movwf	strtof@_u+2
  8766     0139  0871               	movf	?_nanf+1,w
  8767     013A  00E9               	movwf	strtof@_u+1
  8768     013B  0870               	movf	?_nanf,w
  8769     013C  00E8               	movwf	strtof@_u
  8770     013D                     l3590:
  8771     013D  0852               	movf	strtof@res,w
  8772     013E  0453               	iorwf	strtof@res+1,w
  8773     013F  1903               	btfsc	3,2
  8774     0140  2942               	goto	u5331
  8775     0141  2943               	goto	u5330
  8776     0142                     u5331:
  8777     0142  2F81               	goto	l3928
  8778     0143                     u5330:
  8779     0143                     l3592:
  8780     0143  086C               	movf	strtof@i,w
  8781     0144  00D6               	movwf	??_strtof
  8782     0145  0856               	movf	??_strtof,w
  8783     0146  07ED               	addwf	strtof@s,f
  8784     0147                     l3594:
  8785     0147  086D               	movf	strtof@s,w
  8786     0148  0086               	movwf	6
  8787     0149  3002               	movlw	2	; select bank4/5
  8788     014A  0087               	movwf	7
  8789     014B  3028               	movlw	40
  8790     014C  0601               	xorwf	1,w
  8791     014D  1D03               	btfss	3,2
  8792     014E  2950               	goto	u5341
  8793     014F  2951               	goto	u5340
  8794     0150                     u5341:
  8795     0150  2982               	goto	l3608
  8796     0151                     u5340:
  8797     0151                     l3596:
  8798     0151  01EC               	clrf	strtof@i
  8799     0152  2957               	goto	l3600
  8800     0153                     l3598:
  8801     0153  3001               	movlw	1
  8802     0154  00D6               	movwf	??_strtof
  8803     0155  0856               	movf	??_strtof,w
  8804     0156  07EC               	addwf	strtof@i,f
  8805     0157                     l3600:
  8806     0157  086C               	movf	strtof@i,w
  8807     0158  076D               	addwf	strtof@s,w
  8808     0159  00D6               	movwf	??_strtof
  8809     015A  0856               	movf	??_strtof,w
  8810     015B  0086               	movwf	6
  8811     015C  3002               	movlw	2	; select bank4/5
  8812     015D  0087               	movwf	7
  8813     015E  0801               	movf	1,w
  8814     015F  1903               	btfsc	3,2
  8815     0160  2962               	goto	u5351
  8816     0161  2963               	goto	u5350
  8817     0162                     u5351:
  8818     0162  2970               	goto	l3604
  8819     0163                     u5350:
  8820     0163                     l3602:
  8821     0163  086C               	movf	strtof@i,w
  8822     0164  076D               	addwf	strtof@s,w
  8823     0165  00D6               	movwf	??_strtof
  8824     0166  0856               	movf	??_strtof,w
  8825     0167  0086               	movwf	6
  8826     0168  3002               	movlw	2	; select bank4/5
  8827     0169  0087               	movwf	7
  8828     016A  3029               	movlw	41
  8829     016B  0601               	xorwf	1,w
  8830     016C  1D03               	btfss	3,2
  8831     016D  296F               	goto	u5361
  8832     016E  2970               	goto	u5360
  8833     016F                     u5361:
  8834     016F  2953               	goto	l3598
  8835     0170                     u5360:
  8836     0170                     l3604:
  8837     0170  086C               	movf	strtof@i,w
  8838     0171  076D               	addwf	strtof@s,w
  8839     0172  00D6               	movwf	??_strtof
  8840     0173  0856               	movf	??_strtof,w
  8841     0174  0086               	movwf	6
  8842     0175  3002               	movlw	2	; select bank4/5
  8843     0176  0087               	movwf	7
  8844     0177  3029               	movlw	41
  8845     0178  0601               	xorwf	1,w
  8846     0179  1D03               	btfss	3,2
  8847     017A  297C               	goto	u5371
  8848     017B  297D               	goto	u5370
  8849     017C                     u5371:
  8850     017C  2982               	goto	l3608
  8851     017D                     u5370:
  8852     017D                     l3606:
  8853     017D  086C               	movf	strtof@i,w
  8854     017E  3E01               	addlw	1
  8855     017F  00D6               	movwf	??_strtof
  8856     0180  0856               	movf	??_strtof,w
  8857     0181  07ED               	addwf	strtof@s,f
  8858     0182                     l3608:
  8859     0182  0852               	movf	strtof@res,w
  8860     0183  0086               	movwf	6
  8861     0184  0853               	movf	strtof@res+1,w
  8862     0185  0087               	movwf	7
  8863     0186  086D               	movf	strtof@s,w
  8864     0187  0081               	movwf	1
  8865     0188  2F81               	goto	l3928
  8866     0189                     l3610:
  8867     0189  01E6               	clrf	strtof@eexp
  8868     018A  01E7               	clrf	strtof@eexp+1
  8869     018B                     l3612:
  8870     018B  3000               	movlw	0
  8871     018C  00EB               	movwf	strtof@_u+3
  8872     018D  3000               	movlw	0
  8873     018E  00EA               	movwf	strtof@_u+2
  8874     018F  3000               	movlw	0
  8875     0190  00E9               	movwf	strtof@_u+1
  8876     0191  3000               	movlw	0
  8877     0192  00E8               	movwf	strtof@_u
  8878     0193                     l3614:
  8879     0193  01E0               	clrf	strtof@xpos
  8880     0194                     l3616:
  8881     0194  01E1               	clrf	strtof@dpos
  8882     0195                     l3618:
  8883     0195  01E4               	clrf	strtof@expon
  8884     0196  01E5               	clrf	strtof@expon+1
  8885     0197                     l3620:
  8886     0197  01EC               	clrf	strtof@i
  8887     0198  299D               	goto	l3624
  8888     0199                     l3622:
  8889     0199  3001               	movlw	1
  8890     019A  00D6               	movwf	??_strtof
  8891     019B  0856               	movf	??_strtof,w
  8892     019C  07EC               	addwf	strtof@i,f
  8893     019D                     l3624:
  8894     019D  086C               	movf	strtof@i,w
  8895     019E  076D               	addwf	strtof@s,w
  8896     019F  00D6               	movwf	??_strtof
  8897     01A0  0856               	movf	??_strtof,w
  8898     01A1  0086               	movwf	6
  8899     01A2  3002               	movlw	2	; select bank4/5
  8900     01A3  0087               	movwf	7
  8901     01A4  3030               	movlw	48
  8902     01A5  0601               	xorwf	1,w
  8903     01A6  1903               	btfsc	3,2
  8904     01A7  29A9               	goto	u5381
  8905     01A8  29AA               	goto	u5380
  8906     01A9                     u5381:
  8907     01A9  2999               	goto	l3622
  8908     01AA                     u5380:
  8909     01AA                     l3626:
  8910     01AA  086C               	movf	strtof@i,w
  8911     01AB  1903               	btfsc	3,2
  8912     01AC  29AE               	goto	u5391
  8913     01AD  29AF               	goto	u5390
  8914     01AE                     u5391:
  8915     01AE  2D22               	goto	l893
  8916     01AF                     u5390:
  8917     01AF                     l3628:
  8918     01AF  086C               	movf	strtof@i,w
  8919     01B0  076D               	addwf	strtof@s,w
  8920     01B1  00D6               	movwf	??_strtof
  8921     01B2  0856               	movf	??_strtof,w
  8922     01B3  0086               	movwf	6
  8923     01B4  3002               	movlw	2	; select bank4/5
  8924     01B5  0087               	movwf	7
  8925     01B6  3078               	movlw	120
  8926     01B7  0601               	xorwf	1,w
  8927     01B8  1903               	btfsc	3,2
  8928     01B9  29BB               	goto	u5401
  8929     01BA  29BC               	goto	u5400
  8930     01BB                     u5401:
  8931     01BB  29C9               	goto	l3632
  8932     01BC                     u5400:
  8933     01BC                     l3630:
  8934     01BC  086C               	movf	strtof@i,w
  8935     01BD  076D               	addwf	strtof@s,w
  8936     01BE  00D6               	movwf	??_strtof
  8937     01BF  0856               	movf	??_strtof,w
  8938     01C0  0086               	movwf	6
  8939     01C1  3002               	movlw	2	; select bank4/5
  8940     01C2  0087               	movwf	7
  8941     01C3  3058               	movlw	88
  8942     01C4  0601               	xorwf	1,w
  8943     01C5  1D03               	btfss	3,2
  8944     01C6  29C8               	goto	u5411
  8945     01C7  29C9               	goto	u5410
  8946     01C8                     u5411:
  8947     01C8  2D22               	goto	l893
  8948     01C9                     u5410:
  8949     01C9                     l3632:
  8950     01C9  086C               	movf	strtof@i,w
  8951     01CA  076D               	addwf	strtof@s,w
  8952     01CB  00D6               	movwf	??_strtof
  8953     01CC  0A56               	incf	??_strtof,w
  8954     01CD  0086               	movwf	6
  8955     01CE  3002               	movlw	2	; select bank4/5
  8956     01CF  0087               	movwf	7
  8957     01D0  0801               	movf	1,w
  8958     01D1  00D7               	movwf	??_strtof+1
  8959     01D2  01D8               	clrf	??_strtof+2
  8960     01D3  0857               	movf	??_strtof+1,w
  8961     01D4  00F0               	movwf	isxdigit@c
  8962     01D5  0858               	movf	??_strtof+2,w
  8963     01D6  00F1               	movwf	isxdigit@c+1
  8964     01D7  31A7  27D7  3180   	fcall	_isxdigit
  8965     01DA  0870               	movf	?_isxdigit,w
  8966     01DB  0471               	iorwf	?_isxdigit+1,w
  8967     01DC  1D03               	btfss	3,2
  8968     01DD  29DF               	goto	u5421
  8969     01DE  29E0               	goto	u5420
  8970     01DF                     u5421:
  8971     01DF  29EF               	goto	l3638
  8972     01E0                     u5420:
  8973     01E0                     l3634:
  8974     01E0  0020               	movlb	0	; select bank0
  8975     01E1  086C               	movf	strtof@i,w
  8976     01E2  076D               	addwf	strtof@s,w
  8977     01E3  00D6               	movwf	??_strtof
  8978     01E4  0A56               	incf	??_strtof,w
  8979     01E5  0086               	movwf	6
  8980     01E6  3002               	movlw	2	; select bank4/5
  8981     01E7  0087               	movwf	7
  8982     01E8  302E               	movlw	46
  8983     01E9  0601               	xorwf	1,w
  8984     01EA  1903               	btfsc	3,2
  8985     01EB  29ED               	goto	u5431
  8986     01EC  29EE               	goto	u5430
  8987     01ED                     u5431:
  8988     01ED  29EF               	goto	l3638
  8989     01EE                     u5430:
  8990     01EE  2C4C               	goto	l838
  8991     01EF                     l3638:
  8992     01EF  0020               	movlb	0	; select bank0
  8993     01F0  086C               	movf	strtof@i,w
  8994     01F1  00E0               	movwf	strtof@xpos
  8995     01F2                     l3640:
  8996     01F2  3001               	movlw	1
  8997     01F3  00D6               	movwf	??_strtof
  8998     01F4  0856               	movf	??_strtof,w
  8999     01F5  07EC               	addwf	strtof@i,f
  9000     01F6                     l3644:
  9001     01F6  086C               	movf	strtof@i,w
  9002     01F7  076D               	addwf	strtof@s,w
  9003     01F8  00D6               	movwf	??_strtof
  9004     01F9  0856               	movf	??_strtof,w
  9005     01FA  0086               	movwf	6
  9006     01FB  3002               	movlw	2	; select bank4/5
  9007     01FC  0087               	movwf	7
  9008     01FD  3030               	movlw	48
  9009     01FE  0601               	xorwf	1,w
  9010     01FF  1903               	btfsc	3,2
  9011     0200  2A02               	goto	u5441
  9012     0201  2A03               	goto	u5440
  9013     0202                     u5441:
  9014     0202  29F2               	goto	l3640
  9015     0203                     u5440:
  9016     0203                     l3646:
  9017     0203  086C               	movf	strtof@i,w
  9018     0204  076D               	addwf	strtof@s,w
  9019     0205  00D6               	movwf	??_strtof
  9020     0206  0856               	movf	??_strtof,w
  9021     0207  0086               	movwf	6
  9022     0208  3002               	movlw	2	; select bank4/5
  9023     0209  0087               	movwf	7
  9024     020A  3070               	movlw	112
  9025     020B  0601               	xorwf	1,w
  9026     020C  1903               	btfsc	3,2
  9027     020D  2A0F               	goto	u5451
  9028     020E  2A10               	goto	u5450
  9029     020F                     u5451:
  9030     020F  2B7B               	goto	l3712
  9031     0210                     u5450:
  9032     0210                     l3648:
  9033     0210  086C               	movf	strtof@i,w
  9034     0211  076D               	addwf	strtof@s,w
  9035     0212  00D6               	movwf	??_strtof
  9036     0213  0856               	movf	??_strtof,w
  9037     0214  0086               	movwf	6
  9038     0215  3002               	movlw	2	; select bank4/5
  9039     0216  0087               	movwf	7
  9040     0217  3050               	movlw	80
  9041     0218  0601               	xorwf	1,w
  9042     0219  1D03               	btfss	3,2
  9043     021A  2A1C               	goto	u5461
  9044     021B  2A1D               	goto	u5460
  9045     021C                     u5461:
  9046     021C  2A1E               	goto	l3652
  9047     021D                     u5460:
  9048     021D  2B7B               	goto	l3712
  9049     021E                     l3652:
  9050     021E  086C               	movf	strtof@i,w
  9051     021F  076D               	addwf	strtof@s,w
  9052     0220  00D6               	movwf	??_strtof
  9053     0221  0856               	movf	??_strtof,w
  9054     0222  0086               	movwf	6
  9055     0223  3002               	movlw	2	; select bank4/5
  9056     0224  0087               	movwf	7
  9057     0225  302E               	movlw	46
  9058     0226  0601               	xorwf	1,w
  9059     0227  1D03               	btfss	3,2
  9060     0228  2A2A               	goto	u5471
  9061     0229  2A2B               	goto	u5470
  9062     022A                     u5471:
  9063     022A  2A33               	goto	l3662
  9064     022B                     u5470:
  9065     022B                     l3654:
  9066     022B  1663               	bsf	strtof@flags,4
  9067     022C                     l3656:
  9068     022C  086C               	movf	strtof@i,w
  9069     022D  00E1               	movwf	strtof@dpos
  9070     022E                     l3658:
  9071     022E  3001               	movlw	1
  9072     022F  00D6               	movwf	??_strtof
  9073     0230  0856               	movf	??_strtof,w
  9074     0231  07EC               	addwf	strtof@i,f
  9075     0232  2B7B               	goto	l3712
  9076     0233                     l3662:
  9077     0233  086C               	movf	strtof@i,w
  9078     0234  076D               	addwf	strtof@s,w
  9079     0235  00D6               	movwf	??_strtof
  9080     0236  0856               	movf	??_strtof,w
  9081     0237  0086               	movwf	6
  9082     0238  3002               	movlw	2	; select bank4/5
  9083     0239  0087               	movwf	7
  9084     023A  0801               	movf	1,w
  9085     023B  00D7               	movwf	??_strtof+1
  9086     023C  01D8               	clrf	??_strtof+2
  9087     023D  0857               	movf	??_strtof+1,w
  9088     023E  00F0               	movwf	isxdigit@c
  9089     023F  0858               	movf	??_strtof+2,w
  9090     0240  00F1               	movwf	isxdigit@c+1
  9091     0241  31A7  27D7  3180   	fcall	_isxdigit
  9092     0244  0870               	movf	?_isxdigit,w
  9093     0245  0471               	iorwf	?_isxdigit+1,w
  9094     0246  1903               	btfsc	3,2
  9095     0247  2A49               	goto	u5481
  9096     0248  2A4A               	goto	u5480
  9097     0249                     u5481:
  9098     0249  2C4C               	goto	l838
  9099     024A                     u5480:
  9100     024A                     l3664:
  9101     024A  0020               	movlb	0	; select bank0
  9102     024B  01E2               	clrf	strtof@digit
  9103     024C                     l3666:
  9104     024C  086C               	movf	strtof@i,w
  9105     024D  076D               	addwf	strtof@s,w
  9106     024E  00D6               	movwf	??_strtof
  9107     024F  0856               	movf	??_strtof,w
  9108     0250  0086               	movwf	6
  9109     0251  3002               	movlw	2	; select bank4/5
  9110     0252  0087               	movwf	7
  9111     0253  0801               	movf	1,w
  9112     0254  00D7               	movwf	??_strtof+1
  9113     0255  01D8               	clrf	??_strtof+2
  9114     0256  0857               	movf	??_strtof+1,w
  9115     0257  00F0               	movwf	isdigit@c
  9116     0258  0858               	movf	??_strtof+2,w
  9117     0259  00F1               	movwf	isdigit@c+1
  9118     025A  31A7  2727  3180   	fcall	_isdigit
  9119     025D  0870               	movf	?_isdigit,w
  9120     025E  0471               	iorwf	?_isdigit+1,w
  9121     025F  1903               	btfsc	3,2
  9122     0260  2A62               	goto	u5491
  9123     0261  2A63               	goto	u5490
  9124     0262                     u5491:
  9125     0262  2A6F               	goto	l3670
  9126     0263                     u5490:
  9127     0263                     l3668:
  9128     0263  0020               	movlb	0	; select bank0
  9129     0264  086C               	movf	strtof@i,w
  9130     0265  076D               	addwf	strtof@s,w
  9131     0266  00D6               	movwf	??_strtof
  9132     0267  0856               	movf	??_strtof,w
  9133     0268  0086               	movwf	6
  9134     0269  3002               	movlw	2	; select bank4/5
  9135     026A  0087               	movwf	7
  9136     026B  0801               	movf	1,w
  9137     026C  3ED0               	addlw	208
  9138     026D  00E2               	movwf	strtof@digit
  9139     026E  2A85               	goto	l3672
  9140     026F                     l3670:
  9141     026F  0020               	movlb	0	; select bank0
  9142     0270  086C               	movf	strtof@i,w
  9143     0271  076D               	addwf	strtof@s,w
  9144     0272  00D6               	movwf	??_strtof
  9145     0273  0856               	movf	??_strtof,w
  9146     0274  0086               	movwf	6
  9147     0275  3002               	movlw	2	; select bank4/5
  9148     0276  0087               	movwf	7
  9149     0277  0801               	movf	1,w
  9150     0278  00D7               	movwf	??_strtof+1
  9151     0279  01D8               	clrf	??_strtof+2
  9152     027A  0857               	movf	??_strtof+1,w
  9153     027B  00F0               	movwf	toupper@c
  9154     027C  0858               	movf	??_strtof+2,w
  9155     027D  00F1               	movwf	toupper@c+1
  9156     027E  3190  2004  3180   	fcall	_toupper
  9157     0281  0870               	movf	?_toupper,w
  9158     0282  3EC9               	addlw	201
  9159     0283  0020               	movlb	0	; select bank0
  9160     0284  00E2               	movwf	strtof@digit
  9161     0285                     l3672:
  9162     0285  0867               	movf	strtof@eexp+1,w
  9163     0286  3A80               	xorlw	128
  9164     0287  00D6               	movwf	??_strtof
  9165     0288  3080               	movlw	128
  9166     0289  0256               	subwf	??_strtof,w
  9167     028A  1D03               	skipz
  9168     028B  2A8E               	goto	u5505
  9169     028C  3008               	movlw	8
  9170     028D  0266               	subwf	strtof@eexp,w
  9171     028E                     u5505:
  9172     028E  1803               	skipnc
  9173     028F  2A91               	goto	u5501
  9174     0290  2A92               	goto	u5500
  9175     0291                     u5501:
  9176     0291  2AB1               	goto	l3676
  9177     0292                     u5500:
  9178     0292                     l3674:
  9179     0292  0020               	movlb	0	; select bank0
  9180     0293  0862               	movf	strtof@digit,w
  9181     0294  00D6               	movwf	??_strtof
  9182     0295  01D7               	clrf	??_strtof+1
  9183     0296  01D8               	clrf	??_strtof+2
  9184     0297  01D9               	clrf	??_strtof+3
  9185     0298  0866               	movf	strtof@eexp,w
  9186     0299  3C07               	sublw	7
  9187     029A  00DA               	movwf	??_strtof+4
  9188     029B  3001               	movlw	1
  9189     029C                     u5515:
  9190     029C  35DA               	lslf	??_strtof+4,f
  9191     029D  3EFF               	addlw	-1
  9192     029E  1D03               	skipz
  9193     029F  2A9C               	goto	u5515
  9194     02A0  355A               	lslf	??_strtof+4,w
  9195     02A1  0A89               	incf	9,f
  9196     02A2  2AA7               	goto	u5520
  9197     02A3                     u5525:
  9198     02A3  35D6               	lslf	??_strtof,f
  9199     02A4  0DD7               	rlf	??_strtof+1,f
  9200     02A5  0DD8               	rlf	??_strtof+2,f
  9201     02A6  0DD9               	rlf	??_strtof+3,f
  9202     02A7                     u5520:
  9203     02A7  0B89               	decfsz	9,f
  9204     02A8  2AA3               	goto	u5525
  9205     02A9  0856               	movf	??_strtof,w
  9206     02AA  04E8               	iorwf	strtof@_u,f
  9207     02AB  0857               	movf	??_strtof+1,w
  9208     02AC  04E9               	iorwf	strtof@_u+1,f
  9209     02AD  0858               	movf	??_strtof+2,w
  9210     02AE  04EA               	iorwf	strtof@_u+2,f
  9211     02AF  0859               	movf	??_strtof+3,w
  9212     02B0  04EB               	iorwf	strtof@_u+3,f
  9213     02B1                     l3676:
  9214     02B1  3001               	movlw	1
  9215     02B2  0020               	movlb	0	; select bank0
  9216     02B3  07E6               	addwf	strtof@eexp,f
  9217     02B4  3000               	movlw	0
  9218     02B5  3DE7               	addwfc	strtof@eexp+1,f
  9219     02B6                     l3678:
  9220     02B6  3004               	movlw	4
  9221     02B7  07E4               	addwf	strtof@expon,f
  9222     02B8  3000               	movlw	0
  9223     02B9  3DE5               	addwfc	strtof@expon+1,f
  9224     02BA                     l3680:
  9225     02BA  3001               	movlw	1
  9226     02BB  00D6               	movwf	??_strtof
  9227     02BC  0856               	movf	??_strtof,w
  9228     02BD  07EC               	addwf	strtof@i,f
  9229     02BE  2A03               	goto	l3646
  9230     02BF                     l3682:
  9231     02BF  086C               	movf	strtof@i,w
  9232     02C0  076D               	addwf	strtof@s,w
  9233     02C1  00D6               	movwf	??_strtof
  9234     02C2  0856               	movf	??_strtof,w
  9235     02C3  0086               	movwf	6
  9236     02C4  3002               	movlw	2	; select bank4/5
  9237     02C5  0087               	movwf	7
  9238     02C6  3030               	movlw	48
  9239     02C7  0601               	xorwf	1,w
  9240     02C8  1D03               	btfss	3,2
  9241     02C9  2ACB               	goto	u5531
  9242     02CA  2ACC               	goto	u5530
  9243     02CB                     u5531:
  9244     02CB  2AD7               	goto	l3688
  9245     02CC                     u5530:
  9246     02CC                     l3684:
  9247     02CC  0866               	movf	strtof@eexp,w
  9248     02CD  0467               	iorwf	strtof@eexp+1,w
  9249     02CE  1D03               	btfss	3,2
  9250     02CF  2AD1               	goto	u5541
  9251     02D0  2AD2               	goto	u5540
  9252     02D1                     u5541:
  9253     02D1  2AD7               	goto	l3688
  9254     02D2                     u5540:
  9255     02D2                     l3686:
  9256     02D2  30FC               	movlw	252
  9257     02D3  07E4               	addwf	strtof@expon,f
  9258     02D4  30FF               	movlw	255
  9259     02D5  3DE5               	addwfc	strtof@expon+1,f
  9260     02D6  2A2E               	goto	l3658
  9261     02D7                     l3688:
  9262     02D7  086C               	movf	strtof@i,w
  9263     02D8  076D               	addwf	strtof@s,w
  9264     02D9  00D6               	movwf	??_strtof
  9265     02DA  0856               	movf	??_strtof,w
  9266     02DB  0086               	movwf	6
  9267     02DC  3002               	movlw	2	; select bank4/5
  9268     02DD  0087               	movwf	7
  9269     02DE  0801               	movf	1,w
  9270     02DF  00D7               	movwf	??_strtof+1
  9271     02E0  01D8               	clrf	??_strtof+2
  9272     02E1  0857               	movf	??_strtof+1,w
  9273     02E2  00F0               	movwf	isxdigit@c
  9274     02E3  0858               	movf	??_strtof+2,w
  9275     02E4  00F1               	movwf	isxdigit@c+1
  9276     02E5  31A7  27D7  3180   	fcall	_isxdigit
  9277     02E8  0870               	movf	?_isxdigit,w
  9278     02E9  0471               	iorwf	?_isxdigit+1,w
  9279     02EA  1903               	btfsc	3,2
  9280     02EB  2AED               	goto	u5551
  9281     02EC  2AEE               	goto	u5550
  9282     02ED                     u5551:
  9283     02ED  2B5B               	goto	l3704
  9284     02EE                     u5550:
  9285     02EE                     l3690:
  9286     02EE  0020               	movlb	0	; select bank0
  9287     02EF  01E2               	clrf	strtof@digit
  9288     02F0                     l3692:
  9289     02F0  086C               	movf	strtof@i,w
  9290     02F1  076D               	addwf	strtof@s,w
  9291     02F2  00D6               	movwf	??_strtof
  9292     02F3  0856               	movf	??_strtof,w
  9293     02F4  0086               	movwf	6
  9294     02F5  3002               	movlw	2	; select bank4/5
  9295     02F6  0087               	movwf	7
  9296     02F7  0801               	movf	1,w
  9297     02F8  00D7               	movwf	??_strtof+1
  9298     02F9  01D8               	clrf	??_strtof+2
  9299     02FA  0857               	movf	??_strtof+1,w
  9300     02FB  00F0               	movwf	isdigit@c
  9301     02FC  0858               	movf	??_strtof+2,w
  9302     02FD  00F1               	movwf	isdigit@c+1
  9303     02FE  31A7  2727  3180   	fcall	_isdigit
  9304     0301  0870               	movf	?_isdigit,w
  9305     0302  0471               	iorwf	?_isdigit+1,w
  9306     0303  1903               	btfsc	3,2
  9307     0304  2B06               	goto	u5561
  9308     0305  2B07               	goto	u5560
  9309     0306                     u5561:
  9310     0306  2B13               	goto	l3696
  9311     0307                     u5560:
  9312     0307                     l3694:
  9313     0307  0020               	movlb	0	; select bank0
  9314     0308  086C               	movf	strtof@i,w
  9315     0309  076D               	addwf	strtof@s,w
  9316     030A  00D6               	movwf	??_strtof
  9317     030B  0856               	movf	??_strtof,w
  9318     030C  0086               	movwf	6
  9319     030D  3002               	movlw	2	; select bank4/5
  9320     030E  0087               	movwf	7
  9321     030F  0801               	movf	1,w
  9322     0310  3ED0               	addlw	208
  9323     0311  00E2               	movwf	strtof@digit
  9324     0312  2B29               	goto	l3698
  9325     0313                     l3696:
  9326     0313  0020               	movlb	0	; select bank0
  9327     0314  086C               	movf	strtof@i,w
  9328     0315  076D               	addwf	strtof@s,w
  9329     0316  00D6               	movwf	??_strtof
  9330     0317  0856               	movf	??_strtof,w
  9331     0318  0086               	movwf	6
  9332     0319  3002               	movlw	2	; select bank4/5
  9333     031A  0087               	movwf	7
  9334     031B  0801               	movf	1,w
  9335     031C  00D7               	movwf	??_strtof+1
  9336     031D  01D8               	clrf	??_strtof+2
  9337     031E  0857               	movf	??_strtof+1,w
  9338     031F  00F0               	movwf	toupper@c
  9339     0320  0858               	movf	??_strtof+2,w
  9340     0321  00F1               	movwf	toupper@c+1
  9341     0322  3190  2004  3180   	fcall	_toupper
  9342     0325  0870               	movf	?_toupper,w
  9343     0326  3EC9               	addlw	201
  9344     0327  0020               	movlb	0	; select bank0
  9345     0328  00E2               	movwf	strtof@digit
  9346     0329                     l3698:
  9347     0329  0867               	movf	strtof@eexp+1,w
  9348     032A  3A80               	xorlw	128
  9349     032B  00D6               	movwf	??_strtof
  9350     032C  3080               	movlw	128
  9351     032D  0256               	subwf	??_strtof,w
  9352     032E  1D03               	skipz
  9353     032F  2B32               	goto	u5575
  9354     0330  3008               	movlw	8
  9355     0331  0266               	subwf	strtof@eexp,w
  9356     0332                     u5575:
  9357     0332  1803               	skipnc
  9358     0333  2B35               	goto	u5571
  9359     0334  2B36               	goto	u5570
  9360     0335                     u5571:
  9361     0335  2B55               	goto	l3702
  9362     0336                     u5570:
  9363     0336                     l3700:
  9364     0336  0020               	movlb	0	; select bank0
  9365     0337  0862               	movf	strtof@digit,w
  9366     0338  00D6               	movwf	??_strtof
  9367     0339  01D7               	clrf	??_strtof+1
  9368     033A  01D8               	clrf	??_strtof+2
  9369     033B  01D9               	clrf	??_strtof+3
  9370     033C  0866               	movf	strtof@eexp,w
  9371     033D  3C07               	sublw	7
  9372     033E  00DA               	movwf	??_strtof+4
  9373     033F  3001               	movlw	1
  9374     0340                     u5585:
  9375     0340  35DA               	lslf	??_strtof+4,f
  9376     0341  3EFF               	addlw	-1
  9377     0342  1D03               	skipz
  9378     0343  2B40               	goto	u5585
  9379     0344  355A               	lslf	??_strtof+4,w
  9380     0345  0A89               	incf	9,f
  9381     0346  2B4B               	goto	u5590
  9382     0347                     u5595:
  9383     0347  35D6               	lslf	??_strtof,f
  9384     0348  0DD7               	rlf	??_strtof+1,f
  9385     0349  0DD8               	rlf	??_strtof+2,f
  9386     034A  0DD9               	rlf	??_strtof+3,f
  9387     034B                     u5590:
  9388     034B  0B89               	decfsz	9,f
  9389     034C  2B47               	goto	u5595
  9390     034D  0856               	movf	??_strtof,w
  9391     034E  04E8               	iorwf	strtof@_u,f
  9392     034F  0857               	movf	??_strtof+1,w
  9393     0350  04E9               	iorwf	strtof@_u+1,f
  9394     0351  0858               	movf	??_strtof+2,w
  9395     0352  04EA               	iorwf	strtof@_u+2,f
  9396     0353  0859               	movf	??_strtof+3,w
  9397     0354  04EB               	iorwf	strtof@_u+3,f
  9398     0355                     l3702:
  9399     0355  3001               	movlw	1
  9400     0356  0020               	movlb	0	; select bank0
  9401     0357  07E6               	addwf	strtof@eexp,f
  9402     0358  3000               	movlw	0
  9403     0359  3DE7               	addwfc	strtof@eexp+1,f
  9404     035A  2A2E               	goto	l3658
  9405     035B                     l3704:
  9406     035B  0020               	movlb	0	; select bank0
  9407     035C  0861               	movf	strtof@dpos,w
  9408     035D  3E01               	addlw	1
  9409     035E  00D6               	movwf	??_strtof
  9410     035F  3000               	movlw	0
  9411     0360  1803               	skipnc
  9412     0361  3001               	movlw	1
  9413     0362  00D7               	movwf	??_strtof+1
  9414     0363  086C               	movf	strtof@i,w
  9415     0364  0656               	xorwf	??_strtof,w
  9416     0365  0457               	iorwf	??_strtof+1,w
  9417     0366  1D03               	skipz
  9418     0367  2B69               	goto	u5601
  9419     0368  2B6A               	goto	u5600
  9420     0369                     u5601:
  9421     0369  2B7F               	goto	l3714
  9422     036A                     u5600:
  9423     036A                     l3706:
  9424     036A  0860               	movf	strtof@xpos,w
  9425     036B  3E01               	addlw	1
  9426     036C  00D6               	movwf	??_strtof
  9427     036D  3000               	movlw	0
  9428     036E  1803               	skipnc
  9429     036F  3001               	movlw	1
  9430     0370  00D7               	movwf	??_strtof+1
  9431     0371  0861               	movf	strtof@dpos,w
  9432     0372  0656               	xorwf	??_strtof,w
  9433     0373  0457               	iorwf	??_strtof+1,w
  9434     0374  1D03               	skipz
  9435     0375  2B77               	goto	u5611
  9436     0376  2B78               	goto	u5610
  9437     0377                     u5611:
  9438     0377  2B7F               	goto	l3714
  9439     0378                     u5610:
  9440     0378                     l3708:
  9441     0378  0860               	movf	strtof@xpos,w
  9442     0379  00EC               	movwf	strtof@i
  9443     037A  2C4C               	goto	l838
  9444     037B                     l3712:
  9445     037B  1A63               	btfsc	strtof@flags,4
  9446     037C  2B7E               	goto	u5621
  9447     037D  2B7F               	goto	u5620
  9448     037E                     u5621:
  9449     037E  2ABF               	goto	l3682
  9450     037F                     u5620:
  9451     037F                     l3714:
  9452     037F  086C               	movf	strtof@i,w
  9453     0380  00D6               	movwf	??_strtof
  9454     0381  0856               	movf	??_strtof,w
  9455     0382  07ED               	addwf	strtof@s,f
  9456     0383                     l3716:
  9457     0383  01EC               	clrf	strtof@i
  9458     0384                     l3718:
  9459     0384  086D               	movf	strtof@s,w
  9460     0385  0086               	movwf	6
  9461     0386  3002               	movlw	2	; select bank4/5
  9462     0387  0087               	movwf	7
  9463     0388  3070               	movlw	112
  9464     0389  0601               	xorwf	1,w
  9465     038A  1903               	btfsc	3,2
  9466     038B  2B8D               	goto	u5631
  9467     038C  2B8E               	goto	u5630
  9468     038D                     u5631:
  9469     038D  2B99               	goto	l3724
  9470     038E                     u5630:
  9471     038E                     l3720:
  9472     038E  086D               	movf	strtof@s,w
  9473     038F  0086               	movwf	6
  9474     0390  3002               	movlw	2	; select bank4/5
  9475     0391  0087               	movwf	7
  9476     0392  3050               	movlw	80
  9477     0393  0601               	xorwf	1,w
  9478     0394  1903               	btfsc	3,2
  9479     0395  2B97               	goto	u5641
  9480     0396  2B98               	goto	u5640
  9481     0397                     u5641:
  9482     0397  2B99               	goto	l3724
  9483     0398                     u5640:
  9484     0398  2C4C               	goto	l838
  9485     0399                     l3724:
  9486     0399  3001               	movlw	1
  9487     039A  00D6               	movwf	??_strtof
  9488     039B  0856               	movf	??_strtof,w
  9489     039C  07EC               	addwf	strtof@i,f
  9490     039D                     l3726:
  9491     039D  0A6D               	incf	strtof@s,w
  9492     039E  0086               	movwf	6
  9493     039F  3002               	movlw	2	; select bank4/5
  9494     03A0  0087               	movwf	7
  9495     03A1  302B               	movlw	43
  9496     03A2  0601               	xorwf	1,w
  9497     03A3  1D03               	btfss	3,2
  9498     03A4  2BA6               	goto	u5651
  9499     03A5  2BA7               	goto	u5650
  9500     03A6                     u5651:
  9501     03A6  2BAC               	goto	l3730
  9502     03A7                     u5650:
  9503     03A7                     l3728:
  9504     03A7  3001               	movlw	1
  9505     03A8  00D6               	movwf	??_strtof
  9506     03A9  0856               	movf	??_strtof,w
  9507     03AA  07EC               	addwf	strtof@i,f
  9508     03AB  2BB8               	goto	l3736
  9509     03AC                     l3730:
  9510     03AC  0A6D               	incf	strtof@s,w
  9511     03AD  0086               	movwf	6
  9512     03AE  3002               	movlw	2	; select bank4/5
  9513     03AF  0087               	movwf	7
  9514     03B0  302D               	movlw	45
  9515     03B1  0601               	xorwf	1,w
  9516     03B2  1D03               	btfss	3,2
  9517     03B3  2BB5               	goto	u5661
  9518     03B4  2BB6               	goto	u5660
  9519     03B5                     u5661:
  9520     03B5  2BB8               	goto	l3736
  9521     03B6                     u5660:
  9522     03B6                     l3732:
  9523     03B6  15E3               	bsf	strtof@flags,3
  9524     03B7  2BA7               	goto	l3728
  9525     03B8                     l3736:
  9526     03B8  086C               	movf	strtof@i,w
  9527     03B9  076D               	addwf	strtof@s,w
  9528     03BA  00D6               	movwf	??_strtof
  9529     03BB  0856               	movf	??_strtof,w
  9530     03BC  0086               	movwf	6
  9531     03BD  3002               	movlw	2	; select bank4/5
  9532     03BE  0087               	movwf	7
  9533     03BF  0801               	movf	1,w
  9534     03C0  00D7               	movwf	??_strtof+1
  9535     03C1  01D8               	clrf	??_strtof+2
  9536     03C2  0857               	movf	??_strtof+1,w
  9537     03C3  00F0               	movwf	isdigit@c
  9538     03C4  0858               	movf	??_strtof+2,w
  9539     03C5  00F1               	movwf	isdigit@c+1
  9540     03C6  31A7  2727  3180   	fcall	_isdigit
  9541     03C9  0870               	movf	?_isdigit,w
  9542     03CA  0471               	iorwf	?_isdigit+1,w
  9543     03CB  1D03               	btfss	3,2
  9544     03CC  2BCE               	goto	u5671
  9545     03CD  2BCF               	goto	u5670
  9546     03CE                     u5671:
  9547     03CE  2BD2               	goto	l3740
  9548     03CF                     u5670:
  9549     03CF                     l3738:
  9550     03CF  0020               	movlb	0	; select bank0
  9551     03D0  01EC               	clrf	strtof@i
  9552     03D1  2C4C               	goto	l838
  9553     03D2                     l3740:
  9554     03D2  0020               	movlb	0	; select bank0
  9555     03D3  086C               	movf	strtof@i,w
  9556     03D4  00D6               	movwf	??_strtof
  9557     03D5  0856               	movf	??_strtof,w
  9558     03D6  07ED               	addwf	strtof@s,f
  9559     03D7                     l3742:
  9560     03D7  01EC               	clrf	strtof@i
  9561     03D8  2BDD               	goto	l3746
  9562     03D9                     l3744:
  9563     03D9  3001               	movlw	1
  9564     03DA  00D6               	movwf	??_strtof
  9565     03DB  0856               	movf	??_strtof,w
  9566     03DC  07EC               	addwf	strtof@i,f
  9567     03DD                     l3746:
  9568     03DD  086C               	movf	strtof@i,w
  9569     03DE  076D               	addwf	strtof@s,w
  9570     03DF  00D6               	movwf	??_strtof
  9571     03E0  0856               	movf	??_strtof,w
  9572     03E1  0086               	movwf	6
  9573     03E2  3002               	movlw	2	; select bank4/5
  9574     03E3  0087               	movwf	7
  9575     03E4  3030               	movlw	48
  9576     03E5  0601               	xorwf	1,w
  9577     03E6  1903               	btfsc	3,2
  9578     03E7  2BE9               	goto	u5681
  9579     03E8  2BEA               	goto	u5680
  9580     03E9                     u5681:
  9581     03E9  2BD9               	goto	l3744
  9582     03EA                     u5680:
  9583     03EA                     l3748:
  9584     03EA  01E6               	clrf	strtof@eexp
  9585     03EB  01E7               	clrf	strtof@eexp+1
  9586     03EC  2C19               	goto	l877
  9587     03ED                     l3750:
  9588     03ED  0020               	movlb	0	; select bank0
  9589     03EE  086C               	movf	strtof@i,w
  9590     03EF  1903               	btfsc	3,2
  9591     03F0  2BF2               	goto	u5691
  9592     03F1  2BF3               	goto	u5690
  9593     03F2                     u5691:
  9594     03F2  2C03               	goto	l3754
  9595     03F3                     u5690:
  9596     03F3                     l3752:
  9597     03F3  300A               	movlw	10
  9598     03F4  00F0               	movwf	___wmul@multiplier
  9599     03F5  3000               	movlw	0
  9600     03F6  00F1               	movwf	___wmul@multiplier+1
  9601     03F7  0867               	movf	strtof@eexp+1,w
  9602     03F8  00F3               	movwf	___wmul@multiplicand+1
  9603     03F9  0866               	movf	strtof@eexp,w
  9604     03FA  00F2               	movwf	___wmul@multiplicand
  9605     03FB  31A7  2775  3180   	fcall	___wmul
  9606     03FE  0871               	movf	?___wmul+1,w
  9607     03FF  0020               	movlb	0	; select bank0
  9608     0400  00E7               	movwf	strtof@eexp+1
  9609     0401  0870               	movf	?___wmul,w
  9610     0402  00E6               	movwf	strtof@eexp
  9611     0403                     l3754:
  9612     0403  086C               	movf	strtof@i,w
  9613     0404  076D               	addwf	strtof@s,w
  9614     0405  00D6               	movwf	??_strtof
  9615     0406  0856               	movf	??_strtof,w
  9616     0407  0086               	movwf	6
  9617     0408  3002               	movlw	2	; select bank4/5
  9618     0409  0087               	movwf	7
  9619     040A  0801               	movf	1,w
  9620     040B  3ED0               	addlw	208
  9621     040C  00D7               	movwf	??_strtof+1
  9622     040D  30FF               	movlw	255
  9623     040E  1803               	skipnc
  9624     040F  3000               	movlw	0
  9625     0410  00D8               	movwf	??_strtof+2
  9626     0411  0857               	movf	??_strtof+1,w
  9627     0412  07E6               	addwf	strtof@eexp,f
  9628     0413  0858               	movf	??_strtof+2,w
  9629     0414  3DE7               	addwfc	strtof@eexp+1,f
  9630     0415                     l3756:
  9631     0415  3001               	movlw	1
  9632     0416  00D6               	movwf	??_strtof
  9633     0417  0856               	movf	??_strtof,w
  9634     0418  07EC               	addwf	strtof@i,f
  9635     0419                     l877:
  9636     0419  086C               	movf	strtof@i,w
  9637     041A  076D               	addwf	strtof@s,w
  9638     041B  00D6               	movwf	??_strtof
  9639     041C  0856               	movf	??_strtof,w
  9640     041D  0086               	movwf	6
  9641     041E  3002               	movlw	2	; select bank4/5
  9642     041F  0087               	movwf	7
  9643     0420  0801               	movf	1,w
  9644     0421  00D7               	movwf	??_strtof+1
  9645     0422  01D8               	clrf	??_strtof+2
  9646     0423  0857               	movf	??_strtof+1,w
  9647     0424  00F0               	movwf	isdigit@c
  9648     0425  0858               	movf	??_strtof+2,w
  9649     0426  00F1               	movwf	isdigit@c+1
  9650     0427  31A7  2727  3180   	fcall	_isdigit
  9651     042A  0870               	movf	?_isdigit,w
  9652     042B  0471               	iorwf	?_isdigit+1,w
  9653     042C  1D03               	btfss	3,2
  9654     042D  2C2F               	goto	u5701
  9655     042E  2C30               	goto	u5700
  9656     042F                     u5701:
  9657     042F  2BED               	goto	l3750
  9658     0430                     u5700:
  9659     0430                     l3758:
  9660     0430  0020               	movlb	0	; select bank0
  9661     0431  086C               	movf	strtof@i,w
  9662     0432  1D03               	btfss	3,2
  9663     0433  2C35               	goto	u5711
  9664     0434  2C36               	goto	u5710
  9665     0435                     u5711:
  9666     0435  2C3F               	goto	l881
  9667     0436                     u5710:
  9668     0436                     l3760:
  9669     0436  3000               	movlw	0
  9670     0437  00D5               	movwf	?_strtof+3
  9671     0438  3000               	movlw	0
  9672     0439  00D4               	movwf	?_strtof+2
  9673     043A  3000               	movlw	0
  9674     043B  00D3               	movwf	?_strtof+1
  9675     043C  3000               	movlw	0
  9676     043D  00D2               	movwf	?_strtof
  9677     043E  2FB8               	goto	l882
  9678     043F                     l881:
  9679     043F  1DE3               	btfss	strtof@flags,3
  9680     0440  2C42               	goto	u5721
  9681     0441  2C43               	goto	u5720
  9682     0442                     u5721:
  9683     0442  2C48               	goto	l3766
  9684     0443                     u5720:
  9685     0443                     l3764:
  9686     0443  09E6               	comf	strtof@eexp,f
  9687     0444  09E7               	comf	strtof@eexp+1,f
  9688     0445  0AE6               	incf	strtof@eexp,f
  9689     0446  1903               	skipnz
  9690     0447  0AE7               	incf	strtof@eexp+1,f
  9691     0448                     l3766:
  9692     0448  0866               	movf	strtof@eexp,w
  9693     0449  07E4               	addwf	strtof@expon,f
  9694     044A  0867               	movf	strtof@eexp+1,w
  9695     044B  3DE5               	addwfc	strtof@expon+1,f
  9696     044C                     l838:
  9697     044C  0020               	movlb	0	; select bank0
  9698     044D  0852               	movf	strtof@res,w
  9699     044E  0453               	iorwf	strtof@res+1,w
  9700     044F  1903               	btfsc	3,2
  9701     0450  2C52               	goto	u5731
  9702     0451  2C53               	goto	u5730
  9703     0452                     u5731:
  9704     0452  2C5C               	goto	l3770
  9705     0453                     u5730:
  9706     0453                     l3768:
  9707     0453  086D               	movf	strtof@s,w
  9708     0454  076C               	addwf	strtof@i,w
  9709     0455  00D6               	movwf	??_strtof
  9710     0456  0852               	movf	strtof@res,w
  9711     0457  0086               	movwf	6
  9712     0458  0853               	movf	strtof@res+1,w
  9713     0459  0087               	movwf	7
  9714     045A  0856               	movf	??_strtof,w
  9715     045B  0081               	movwf	1
  9716     045C                     l3770:
  9717     045C  086B               	movf	strtof@_u+3,w
  9718     045D  046A               	iorwf	strtof@_u+2,w
  9719     045E  0469               	iorwf	strtof@_u+1,w
  9720     045F  0468               	iorwf	strtof@_u,w
  9721     0460  1D03               	skipz
  9722     0461  2C63               	goto	u5741
  9723     0462  2C64               	goto	u5740
  9724     0463                     u5741:
  9725     0463  2C6D               	goto	l3776
  9726     0464                     u5740:
  9727     0464                     l3772:
  9728     0464  3000               	movlw	0
  9729     0465  00D5               	movwf	?_strtof+3
  9730     0466  3000               	movlw	0
  9731     0467  00D4               	movwf	?_strtof+2
  9732     0468  3000               	movlw	0
  9733     0469  00D3               	movwf	?_strtof+1
  9734     046A  3000               	movlw	0
  9735     046B  00D2               	movwf	?_strtof
  9736     046C  2FB8               	goto	l882
  9737     046D                     l3776:
  9738     046D  30FF               	movlw	255
  9739     046E  0568               	andwf	strtof@_u,w
  9740     046F  00D6               	movwf	??_strtof
  9741     0470  3000               	movlw	0
  9742     0471  0569               	andwf	strtof@_u+1,w
  9743     0472  00D7               	movwf	??_strtof+1
  9744     0473  3000               	movlw	0
  9745     0474  056A               	andwf	strtof@_u+2,w
  9746     0475  00D8               	movwf	??_strtof+2
  9747     0476  3000               	movlw	0
  9748     0477  056B               	andwf	strtof@_u+3,w
  9749     0478  00D9               	movwf	??_strtof+3
  9750     0479  0859               	movf	??_strtof+3,w
  9751     047A  1D03               	btfss	3,2
  9752     047B  2C88               	goto	u5750
  9753     047C  0858               	movf	??_strtof+2,w
  9754     047D  1D03               	btfss	3,2
  9755     047E  2C88               	goto	u5750
  9756     047F  0857               	movf	??_strtof+1,w
  9757     0480  1D03               	btfss	3,2
  9758     0481  2C88               	goto	u5750
  9759     0482  3081               	movlw	129
  9760     0483  0256               	subwf	??_strtof,w
  9761     0484  1C03               	btfss	3,0
  9762     0485  2C87               	goto	u5751
  9763     0486  2C88               	goto	u5750
  9764     0487                     u5751:
  9765     0487  2C9D               	goto	l3784
  9766     0488                     u5750:
  9767     0488                     l3778:
  9768     0488  3000               	movlw	0
  9769     0489  0020               	movlb	0	; select bank0
  9770     048A  07E8               	addwf	strtof@_u,f
  9771     048B  3001               	movlw	1
  9772     048C  3DE9               	addwfc	strtof@_u+1,f
  9773     048D  3000               	movlw	0
  9774     048E  3DEA               	addwfc	strtof@_u+2,f
  9775     048F  3000               	movlw	0
  9776     0490  3DEB               	addwfc	strtof@_u+3,f
  9777     0491  2C9D               	goto	l3784
  9778     0492                     l3780:
  9779     0492  3001               	movlw	1
  9780     0493                     u5765:
  9781     0493  35E8               	lslf	strtof@_u,f
  9782     0494  0DE9               	rlf	strtof@_u+1,f
  9783     0495  0DEA               	rlf	strtof@_u+2,f
  9784     0496  0DEB               	rlf	strtof@_u+3,f
  9785     0497  0B89               	decfsz	9,f
  9786     0498  2C93               	goto	u5765
  9787     0499                     l3782:
  9788     0499  30FF               	movlw	255
  9789     049A  07E4               	addwf	strtof@expon,f
  9790     049B  30FF               	movlw	255
  9791     049C  3DE5               	addwfc	strtof@expon+1,f
  9792     049D                     l3784:
  9793     049D  0020               	movlb	0	; select bank0
  9794     049E  1FEB               	btfss	strtof@_u+3,7
  9795     049F  2CA1               	goto	u5771
  9796     04A0  2CA2               	goto	u5770
  9797     04A1                     u5771:
  9798     04A1  2C92               	goto	l3780
  9799     04A2                     u5770:
  9800     04A2                     l3786:
  9801     04A2  0865               	movf	strtof@expon+1,w
  9802     04A3  3A80               	xorlw	128
  9803     04A4  00D6               	movwf	??_strtof
  9804     04A5  307F               	movlw	127
  9805     04A6  0256               	subwf	??_strtof,w
  9806     04A7  1D03               	skipz
  9807     04A8  2CAB               	goto	u5785
  9808     04A9  3083               	movlw	131
  9809     04AA  0264               	subwf	strtof@expon,w
  9810     04AB                     u5785:
  9811     04AB  1803               	skipnc
  9812     04AC  2CAE               	goto	u5781
  9813     04AD  2CAF               	goto	u5780
  9814     04AE                     u5781:
  9815     04AE  2CBC               	goto	l3790
  9816     04AF                     u5780:
  9817     04AF                     l3788:
  9818     04AF  3081               	movlw	129
  9819     04B0  0020               	movlb	0	; select bank0
  9820     04B1  00E4               	movwf	strtof@expon
  9821     04B2  30FF               	movlw	255
  9822     04B3  00E5               	movwf	strtof@expon+1
  9823     04B4  3000               	movlw	0
  9824     04B5  00EB               	movwf	strtof@_u+3
  9825     04B6  3000               	movlw	0
  9826     04B7  00EA               	movwf	strtof@_u+2
  9827     04B8  3000               	movlw	0
  9828     04B9  00E9               	movwf	strtof@_u+1
  9829     04BA  3000               	movlw	0
  9830     04BB  00E8               	movwf	strtof@_u
  9831     04BC                     l3790:
  9832     04BC  3081               	movlw	129
  9833     04BD  0020               	movlb	0	; select bank0
  9834     04BE  0664               	xorwf	strtof@expon,w
  9835     04BF  1D03               	skipz
  9836     04C0  2CC6               	goto	u5790
  9837     04C1  0A65               	incf	strtof@expon+1,w
  9838     04C2  1903               	btfsc	3,2
  9839     04C3  2CC5               	goto	u5791
  9840     04C4  2CC6               	goto	u5790
  9841     04C5                     u5791:
  9842     04C5  2CD1               	goto	l3796
  9843     04C6                     u5790:
  9844     04C6                     l3792:
  9845     04C6  3001               	movlw	1
  9846     04C7                     u5805:
  9847     04C7  35E8               	lslf	strtof@_u,f
  9848     04C8  0DE9               	rlf	strtof@_u+1,f
  9849     04C9  0DEA               	rlf	strtof@_u+2,f
  9850     04CA  0DEB               	rlf	strtof@_u+3,f
  9851     04CB  0B89               	decfsz	9,f
  9852     04CC  2CC7               	goto	u5805
  9853     04CD                     l3794:
  9854     04CD  30FF               	movlw	255
  9855     04CE  07E4               	addwf	strtof@expon,f
  9856     04CF  30FF               	movlw	255
  9857     04D0  3DE5               	addwfc	strtof@expon+1,f
  9858     04D1                     l3796:
  9859     04D1  0865               	movf	strtof@expon+1,w
  9860     04D2  3A80               	xorlw	128
  9861     04D3  00D6               	movwf	??_strtof
  9862     04D4  3080               	movlw	128
  9863     04D5  0256               	subwf	??_strtof,w
  9864     04D6  1D03               	skipz
  9865     04D7  2CDA               	goto	u5815
  9866     04D8  3080               	movlw	128
  9867     04D9  0264               	subwf	strtof@expon,w
  9868     04DA                     u5815:
  9869     04DA  1C03               	skipc
  9870     04DB  2CDD               	goto	u5811
  9871     04DC  2CDE               	goto	u5810
  9872     04DD                     u5811:
  9873     04DD  2CF0               	goto	l3800
  9874     04DE                     u5810:
  9875     04DE                     l3798:
  9876     04DE  3000               	movlw	0
  9877     04DF  0020               	movlb	0	; select bank0
  9878     04E0  00EB               	movwf	strtof@_u+3
  9879     04E1  3000               	movlw	0
  9880     04E2  00EA               	movwf	strtof@_u+2
  9881     04E3  3000               	movlw	0
  9882     04E4  00E9               	movwf	strtof@_u+1
  9883     04E5  3000               	movlw	0
  9884     04E6  00E8               	movwf	strtof@_u
  9885     04E7  3080               	movlw	128
  9886     04E8  00E4               	movwf	strtof@expon
  9887     04E9  3000               	movlw	0
  9888     04EA  00E5               	movwf	strtof@expon+1
  9889     04EB  3022               	movlw	34
  9890     04EC  00DE               	movwf	strtof@err
  9891     04ED  3000               	movlw	0
  9892     04EE  00DF               	movwf	strtof@err+1
  9893     04EF  2F81               	goto	l3928
  9894     04F0                     l3800:
  9895     04F0  3009               	movlw	9
  9896     04F1                     u5825:
  9897     04F1  0020               	movlb	0	; select bank0
  9898     04F2  36EB               	lsrf	strtof@_u+3,f
  9899     04F3  0CEA               	rrf	strtof@_u+2,f
  9900     04F4  0CE9               	rrf	strtof@_u+1,f
  9901     04F5  0CE8               	rrf	strtof@_u,f
  9902     04F6  0B89               	decfsz	9,f
  9903     04F7  2CF1               	goto	u5825
  9904     04F8                     l3802:
  9905     04F8  30FF               	movlw	255
  9906     04F9  05E8               	andwf	strtof@_u,f
  9907     04FA  30FF               	movlw	255
  9908     04FB  05E9               	andwf	strtof@_u+1,f
  9909     04FC  307F               	movlw	127
  9910     04FD  05EA               	andwf	strtof@_u+2,f
  9911     04FE  3000               	movlw	0
  9912     04FF  05EB               	andwf	strtof@_u+3,f
  9913     0500                     l3804:
  9914     0500  0864               	movf	strtof@expon,w
  9915     0501  3E7F               	addlw	127
  9916     0502  00D6               	movwf	??_strtof
  9917     0503  3000               	movlw	0
  9918     0504  3D65               	addwfc	strtof@expon+1,w
  9919     0505  00D7               	movwf	??_strtof+1
  9920     0506  30FF               	movlw	255
  9921     0507  0556               	andwf	??_strtof,w
  9922     0508  00D8               	movwf	??_strtof+2
  9923     0509  3000               	movlw	0
  9924     050A  0557               	andwf	??_strtof+1,w
  9925     050B  00D9               	movwf	??_strtof+3
  9926     050C  0858               	movf	??_strtof+2,w
  9927     050D  00DA               	movwf	??_strtof+4
  9928     050E  0859               	movf	??_strtof+3,w
  9929     050F  00DB               	movwf	??_strtof+5
  9930     0510  01DC               	clrf	??_strtof+6
  9931     0511  01DD               	clrf	??_strtof+7
  9932     0512  3017               	movlw	23
  9933     0513                     u5835:
  9934     0513  35DA               	lslf	??_strtof+4,f
  9935     0514  0DDB               	rlf	??_strtof+5,f
  9936     0515  0DDC               	rlf	??_strtof+6,f
  9937     0516  0DDD               	rlf	??_strtof+7,f
  9938     0517                     u5830:
  9939     0517  0B89               	decfsz	9,f
  9940     0518  2D13               	goto	u5835
  9941     0519  085A               	movf	??_strtof+4,w
  9942     051A  04E8               	iorwf	strtof@_u,f
  9943     051B  085B               	movf	??_strtof+5,w
  9944     051C  04E9               	iorwf	strtof@_u+1,f
  9945     051D  085C               	movf	??_strtof+6,w
  9946     051E  04EA               	iorwf	strtof@_u+2,f
  9947     051F  085D               	movf	??_strtof+7,w
  9948     0520  04EB               	iorwf	strtof@_u+3,f
  9949     0521  2F81               	goto	l3928
  9950     0522                     l893:
  9951     0522  1A63               	btfsc	strtof@flags,4
  9952     0523  2D25               	goto	u5841
  9953     0524  2D26               	goto	u5840
  9954     0525                     u5841:
  9955     0525  2D36               	goto	l3812
  9956     0526                     u5840:
  9957     0526                     l3806:
  9958     0526  086D               	movf	strtof@s,w
  9959     0527  0086               	movwf	6
  9960     0528  3002               	movlw	2	; select bank4/5
  9961     0529  0087               	movwf	7
  9962     052A  302E               	movlw	46
  9963     052B  0601               	xorwf	1,w
  9964     052C  1D03               	btfss	3,2
  9965     052D  2D2F               	goto	u5851
  9966     052E  2D30               	goto	u5850
  9967     052F                     u5851:
  9968     052F  2D36               	goto	l3812
  9969     0530                     u5850:
  9970     0530                     l3808:
  9971     0530  1663               	bsf	strtof@flags,4
  9972     0531                     l3810:
  9973     0531  3001               	movlw	1
  9974     0532  00D6               	movwf	??_strtof
  9975     0533  0856               	movf	??_strtof,w
  9976     0534  07ED               	addwf	strtof@s,f
  9977     0535  2D22               	goto	l893
  9978     0536                     l3812:
  9979     0536  086D               	movf	strtof@s,w
  9980     0537  0086               	movwf	6
  9981     0538  3002               	movlw	2	; select bank4/5
  9982     0539  0087               	movwf	7
  9983     053A  0801               	movf	1,w
  9984     053B  00D6               	movwf	??_strtof
  9985     053C  01D7               	clrf	??_strtof+1
  9986     053D  0856               	movf	??_strtof,w
  9987     053E  00F0               	movwf	isdigit@c
  9988     053F  0857               	movf	??_strtof+1,w
  9989     0540  00F1               	movwf	isdigit@c+1
  9990     0541  31A7  2727  3180   	fcall	_isdigit
  9991     0544  0870               	movf	?_isdigit,w
  9992     0545  0471               	iorwf	?_isdigit+1,w
  9993     0546  1D03               	btfss	3,2
  9994     0547  2D49               	goto	u5861
  9995     0548  2D4A               	goto	u5860
  9996     0549                     u5861:
  9997     0549  2D4B               	goto	l896
  9998     054A                     u5860:
  9999     054A  2D98               	goto	l3830
 10000     054B                     l896:
 10001     054B  0020               	movlb	0	; select bank0
 10002     054C  14E3               	bsf	strtof@flags,1
 10003     054D                     l3816:
 10004     054D  3009               	movlw	9
 10005     054E  0666               	xorwf	strtof@eexp,w
 10006     054F  0467               	iorwf	strtof@eexp+1,w
 10007     0550  1903               	btfsc	3,2
 10008     0551  2D53               	goto	u5871
 10009     0552  2D54               	goto	u5870
 10010     0553                     u5871:
 10011     0553  2D8F               	goto	l898
 10012     0554                     u5870:
 10013     0554                     l3818:
 10014     0554  1E63               	btfss	strtof@flags,4
 10015     0555  2D57               	goto	u5881
 10016     0556  2D58               	goto	u5880
 10017     0557                     u5881:
 10018     0557  2D5C               	goto	l899
 10019     0558                     u5880:
 10020     0558                     l3820:
 10021     0558  30FF               	movlw	255
 10022     0559  07E4               	addwf	strtof@expon,f
 10023     055A  30FF               	movlw	255
 10024     055B  3DE5               	addwfc	strtof@expon+1,f
 10025     055C                     l899:
 10026     055C  3001               	movlw	1
 10027     055D  07E6               	addwf	strtof@eexp,f
 10028     055E  3000               	movlw	0
 10029     055F  3DE7               	addwfc	strtof@eexp+1,f
 10030     0560                     l3822:
 10031     0560  3000               	movlw	0
 10032     0561  00F3               	movwf	___lmul@multiplier+3
 10033     0562  3000               	movlw	0
 10034     0563  00F2               	movwf	___lmul@multiplier+2
 10035     0564  3000               	movlw	0
 10036     0565  00F1               	movwf	___lmul@multiplier+1
 10037     0566  300A               	movlw	10
 10038     0567  00F0               	movwf	___lmul@multiplier
 10039     0568  086B               	movf	strtof@_u+3,w
 10040     0569  00F7               	movwf	___lmul@multiplicand+3
 10041     056A  086A               	movf	strtof@_u+2,w
 10042     056B  00F6               	movwf	___lmul@multiplicand+2
 10043     056C  0869               	movf	strtof@_u+1,w
 10044     056D  00F5               	movwf	___lmul@multiplicand+1
 10045     056E  0868               	movf	strtof@_u,w
 10046     056F  00F4               	movwf	___lmul@multiplicand
 10047     0570  319A  224D  3180   	fcall	___lmul
 10048     0573  0873               	movf	?___lmul+3,w
 10049     0574  0020               	movlb	0	; select bank0
 10050     0575  00EB               	movwf	strtof@_u+3
 10051     0576  0872               	movf	?___lmul+2,w
 10052     0577  00EA               	movwf	strtof@_u+2
 10053     0578  0871               	movf	?___lmul+1,w
 10054     0579  00E9               	movwf	strtof@_u+1
 10055     057A  0870               	movf	?___lmul,w
 10056     057B  00E8               	movwf	strtof@_u
 10057     057C                     l3824:
 10058     057C  086D               	movf	strtof@s,w
 10059     057D  0086               	movwf	6
 10060     057E  3002               	movlw	2	; select bank4/5
 10061     057F  0087               	movwf	7
 10062     0580  0801               	movf	1,w
 10063     0581  3ED0               	addlw	208
 10064     0582  00D6               	movwf	??_strtof
 10065     0583  01D7               	clrf	??_strtof+1
 10066     0584  01D8               	clrf	??_strtof+2
 10067     0585  01D9               	clrf	??_strtof+3
 10068     0586  0856               	movf	??_strtof,w
 10069     0587  07E8               	addwf	strtof@_u,f
 10070     0588  0857               	movf	??_strtof+1,w
 10071     0589  3DE9               	addwfc	strtof@_u+1,f
 10072     058A  0858               	movf	??_strtof+2,w
 10073     058B  3DEA               	addwfc	strtof@_u+2,f
 10074     058C  0859               	movf	??_strtof+3,w
 10075     058D  3DEB               	addwfc	strtof@_u+3,f
 10076     058E  2D31               	goto	l3810
 10077     058F                     l898:
 10078     058F  1A63               	btfsc	strtof@flags,4
 10079     0590  2D92               	goto	u5891
 10080     0591  2D93               	goto	u5890
 10081     0592                     u5891:
 10082     0592  2D31               	goto	l3810
 10083     0593                     u5890:
 10084     0593                     l3826:
 10085     0593  3001               	movlw	1
 10086     0594  07E4               	addwf	strtof@expon,f
 10087     0595  3000               	movlw	0
 10088     0596  3DE5               	addwfc	strtof@expon+1,f
 10089     0597  2D31               	goto	l3810
 10090     0598                     l3830:
 10091     0598  0020               	movlb	0	; select bank0
 10092     0599  01E6               	clrf	strtof@eexp
 10093     059A  01E7               	clrf	strtof@eexp+1
 10094     059B                     l3832:
 10095     059B  086D               	movf	strtof@s,w
 10096     059C  0086               	movwf	6
 10097     059D  3002               	movlw	2	; select bank4/5
 10098     059E  0087               	movwf	7
 10099     059F  3065               	movlw	101
 10100     05A0  0601               	xorwf	1,w
 10101     05A1  1903               	btfsc	3,2
 10102     05A2  2DA4               	goto	u5901
 10103     05A3  2DA5               	goto	u5900
 10104     05A4                     u5901:
 10105     05A4  2DAF               	goto	l3836
 10106     05A5                     u5900:
 10107     05A5                     l3834:
 10108     05A5  086D               	movf	strtof@s,w
 10109     05A6  0086               	movwf	6
 10110     05A7  3002               	movlw	2	; select bank4/5
 10111     05A8  0087               	movwf	7
 10112     05A9  3045               	movlw	69
 10113     05AA  0601               	xorwf	1,w
 10114     05AB  1D03               	btfss	3,2
 10115     05AC  2DAE               	goto	u5911
 10116     05AD  2DAF               	goto	u5910
 10117     05AE                     u5911:
 10118     05AE  2E2D               	goto	l3868
 10119     05AF                     u5910:
 10120     05AF                     l3836:
 10121     05AF  3001               	movlw	1
 10122     05B0  00D6               	movwf	??_strtof
 10123     05B1  0856               	movf	??_strtof,w
 10124     05B2  07ED               	addwf	strtof@s,f
 10125     05B3  086D               	movf	strtof@s,w
 10126     05B4  0086               	movwf	6
 10127     05B5  3002               	movlw	2	; select bank4/5
 10128     05B6  0087               	movwf	7
 10129     05B7  302D               	movlw	45
 10130     05B8  0601               	xorwf	1,w
 10131     05B9  1D03               	btfss	3,2
 10132     05BA  2DBC               	goto	u5921
 10133     05BB  2DBD               	goto	u5920
 10134     05BC                     u5921:
 10135     05BC  2DC3               	goto	l3842
 10136     05BD                     u5920:
 10137     05BD                     l3838:
 10138     05BD  15E3               	bsf	strtof@flags,3
 10139     05BE                     l3840:
 10140     05BE  3001               	movlw	1
 10141     05BF  00D6               	movwf	??_strtof
 10142     05C0  0856               	movf	??_strtof,w
 10143     05C1  07ED               	addwf	strtof@s,f
 10144     05C2  2DCE               	goto	l3848
 10145     05C3                     l3842:
 10146     05C3  086D               	movf	strtof@s,w
 10147     05C4  0086               	movwf	6
 10148     05C5  3002               	movlw	2	; select bank4/5
 10149     05C6  0087               	movwf	7
 10150     05C7  302B               	movlw	43
 10151     05C8  0601               	xorwf	1,w
 10152     05C9  1D03               	btfss	3,2
 10153     05CA  2DCC               	goto	u5931
 10154     05CB  2DCD               	goto	u5930
 10155     05CC                     u5931:
 10156     05CC  2DCE               	goto	l3848
 10157     05CD                     u5930:
 10158     05CD  2DBE               	goto	l3840
 10159     05CE                     l3848:
 10160     05CE  086D               	movf	strtof@s,w
 10161     05CF  0086               	movwf	6
 10162     05D0  3002               	movlw	2	; select bank4/5
 10163     05D1  0087               	movwf	7
 10164     05D2  3030               	movlw	48
 10165     05D3  0601               	xorwf	1,w
 10166     05D4  1903               	btfsc	3,2
 10167     05D5  2DD7               	goto	u5941
 10168     05D6  2DD8               	goto	u5940
 10169     05D7                     u5941:
 10170     05D7  2DBE               	goto	l3840
 10171     05D8                     u5940:
 10172     05D8                     l3850:
 10173     05D8  01E2               	clrf	strtof@digit
 10174     05D9  2DFD               	goto	l911
 10175     05DA                     l3852:
 10176     05DA  0020               	movlb	0	; select bank0
 10177     05DB  086D               	movf	strtof@s,w
 10178     05DC  0086               	movwf	6
 10179     05DD  3002               	movlw	2	; select bank4/5
 10180     05DE  0087               	movwf	7
 10181     05DF  0801               	movf	1,w
 10182     05E0  3ED0               	addlw	208
 10183     05E1  00D6               	movwf	??_strtof
 10184     05E2  01D7               	clrf	??_strtof+1
 10185     05E3  0867               	movf	strtof@eexp+1,w
 10186     05E4  00F1               	movwf	___wmul@multiplier+1
 10187     05E5  0866               	movf	strtof@eexp,w
 10188     05E6  00F0               	movwf	___wmul@multiplier
 10189     05E7  300A               	movlw	10
 10190     05E8  00F2               	movwf	___wmul@multiplicand
 10191     05E9  3000               	movlw	0
 10192     05EA  00F3               	movwf	___wmul@multiplicand+1
 10193     05EB  31A7  2775  3180   	fcall	___wmul
 10194     05EE  0020               	movlb	0	; select bank0
 10195     05EF  0856               	movf	??_strtof,w
 10196     05F0  0770               	addwf	?___wmul,w
 10197     05F1  00E6               	movwf	strtof@eexp
 10198     05F2  0857               	movf	??_strtof+1,w
 10199     05F3  3D71               	addwfc	?___wmul+1,w
 10200     05F4  00E7               	movwf	strtof@eexp+1
 10201     05F5                     l3854:
 10202     05F5  3001               	movlw	1
 10203     05F6  00D6               	movwf	??_strtof
 10204     05F7  0856               	movf	??_strtof,w
 10205     05F8  07ED               	addwf	strtof@s,f
 10206     05F9                     l3856:
 10207     05F9  3001               	movlw	1
 10208     05FA  00D6               	movwf	??_strtof
 10209     05FB  0856               	movf	??_strtof,w
 10210     05FC  07E2               	addwf	strtof@digit,f
 10211     05FD                     l911:
 10212     05FD  086D               	movf	strtof@s,w
 10213     05FE  0086               	movwf	6
 10214     05FF  3002               	movlw	2	; select bank4/5
 10215     0600  0087               	movwf	7
 10216     0601  0801               	movf	1,w
 10217     0602  00D6               	movwf	??_strtof
 10218     0603  01D7               	clrf	??_strtof+1
 10219     0604  0856               	movf	??_strtof,w
 10220     0605  00F0               	movwf	isdigit@c
 10221     0606  0857               	movf	??_strtof+1,w
 10222     0607  00F1               	movwf	isdigit@c+1
 10223     0608  31A7  2727  3180   	fcall	_isdigit
 10224     060B  0870               	movf	?_isdigit,w
 10225     060C  0471               	iorwf	?_isdigit+1,w
 10226     060D  1D03               	btfss	3,2
 10227     060E  2E10               	goto	u5951
 10228     060F  2E11               	goto	u5950
 10229     0610                     u5951:
 10230     0610  2DDA               	goto	l3852
 10231     0611                     u5950:
 10232     0611                     l3858:
 10233     0611  0020               	movlb	0	; select bank0
 10234     0612  0862               	movf	strtof@digit,w
 10235     0613  1D03               	btfss	3,2
 10236     0614  2E16               	goto	u5961
 10237     0615  2E17               	goto	u5960
 10238     0616                     u5961:
 10239     0616  2E24               	goto	l3864
 10240     0617                     u5960:
 10241     0617                     l3860:
 10242     0617  086D               	movf	strtof@s,w
 10243     0618  3EFF               	addlw	-1
 10244     0619  0086               	movwf	6
 10245     061A  3002               	movlw	2	; select bank4/5
 10246     061B  0087               	movwf	7
 10247     061C  3030               	movlw	48
 10248     061D  0601               	xorwf	1,w
 10249     061E  1903               	btfsc	3,2
 10250     061F  2E21               	goto	u5971
 10251     0620  2E22               	goto	u5970
 10252     0621                     u5971:
 10253     0621  2E24               	goto	l3864
 10254     0622                     u5970:
 10255     0622                     l3862:
 10256     0622  3001               	movlw	1
 10257     0623  02ED               	subwf	strtof@s,f
 10258     0624                     l3864:
 10259     0624  1DE3               	btfss	strtof@flags,3
 10260     0625  2E27               	goto	u5981
 10261     0626  2E28               	goto	u5980
 10262     0627                     u5981:
 10263     0627  2E2D               	goto	l3868
 10264     0628                     u5980:
 10265     0628                     l3866:
 10266     0628  09E6               	comf	strtof@eexp,f
 10267     0629  09E7               	comf	strtof@eexp+1,f
 10268     062A  0AE6               	incf	strtof@eexp,f
 10269     062B  1903               	skipnz
 10270     062C  0AE7               	incf	strtof@eexp+1,f
 10271     062D                     l3868:
 10272     062D  0866               	movf	strtof@eexp,w
 10273     062E  07E4               	addwf	strtof@expon,f
 10274     062F  0867               	movf	strtof@eexp+1,w
 10275     0630  3DE5               	addwfc	strtof@expon+1,f
 10276     0631  0852               	movf	strtof@res,w
 10277     0632  0453               	iorwf	strtof@res+1,w
 10278     0633  1903               	btfsc	3,2
 10279     0634  2E36               	goto	u5991
 10280     0635  2E37               	goto	u5990
 10281     0636                     u5991:
 10282     0636  2E41               	goto	l3874
 10283     0637                     u5990:
 10284     0637                     l3870:
 10285     0637  1CE3               	btfss	strtof@flags,1
 10286     0638  2E3A               	goto	u6001
 10287     0639  2E3B               	goto	u6000
 10288     063A                     u6001:
 10289     063A  2E41               	goto	l3874
 10290     063B                     u6000:
 10291     063B                     l3872:
 10292     063B  0852               	movf	strtof@res,w
 10293     063C  0086               	movwf	6
 10294     063D  0853               	movf	strtof@res+1,w
 10295     063E  0087               	movwf	7
 10296     063F  086D               	movf	strtof@s,w
 10297     0640  0081               	movwf	1
 10298     0641                     l3874:
 10299     0641  086B               	movf	strtof@_u+3,w
 10300     0642  00F3               	movwf	___xxtofl@val+3
 10301     0643  086A               	movf	strtof@_u+2,w
 10302     0644  00F2               	movwf	___xxtofl@val+2
 10303     0645  0869               	movf	strtof@_u+1,w
 10304     0646  00F1               	movwf	___xxtofl@val+1
 10305     0647  0868               	movf	strtof@_u,w
 10306     0648  00F0               	movwf	___xxtofl@val
 10307     0649  3000               	movlw	0
 10308     064A  3190  20B4  3180   	fcall	___xxtofl
 10309     064D  0873               	movf	?___xxtofl+3,w
 10310     064E  0020               	movlb	0	; select bank0
 10311     064F  00EB               	movwf	strtof@_u+3
 10312     0650  0872               	movf	?___xxtofl+2,w
 10313     0651  00EA               	movwf	strtof@_u+2
 10314     0652  0871               	movf	?___xxtofl+1,w
 10315     0653  00E9               	movwf	strtof@_u+1
 10316     0654  0870               	movf	?___xxtofl,w
 10317     0655  00E8               	movwf	strtof@_u
 10318     0656                     l3876:
 10319     0656  086B               	movf	strtof@_u+3,w
 10320     0657  00F3               	movwf	___fleq@ff1+3
 10321     0658  086A               	movf	strtof@_u+2,w
 10322     0659  00F2               	movwf	___fleq@ff1+2
 10323     065A  0869               	movf	strtof@_u+1,w
 10324     065B  00F1               	movwf	___fleq@ff1+1
 10325     065C  0868               	movf	strtof@_u,w
 10326     065D  00F0               	movwf	___fleq@ff1
 10327     065E  3000               	movlw	0
 10328     065F  00F7               	movwf	___fleq@ff2+3
 10329     0660  3000               	movlw	0
 10330     0661  00F6               	movwf	___fleq@ff2+2
 10331     0662  3000               	movlw	0
 10332     0663  00F5               	movwf	___fleq@ff2+1
 10333     0664  3000               	movlw	0
 10334     0665  00F4               	movwf	___fleq@ff2
 10335     0666  319A  2280  3180   	fcall	___fleq
 10336     0669  1C03               	btfss	3,0
 10337     066A  2E6C               	goto	u6011
 10338     066B  2E6D               	goto	u6010
 10339     066C                     u6011:
 10340     066C  2E77               	goto	l917
 10341     066D                     u6010:
 10342     066D                     l3878:
 10343     066D  3000               	movlw	0
 10344     066E  0020               	movlb	0	; select bank0
 10345     066F  00D5               	movwf	?_strtof+3
 10346     0670  3000               	movlw	0
 10347     0671  00D4               	movwf	?_strtof+2
 10348     0672  3000               	movlw	0
 10349     0673  00D3               	movwf	?_strtof+1
 10350     0674  3000               	movlw	0
 10351     0675  00D2               	movwf	?_strtof
 10352     0676  2FB8               	goto	l882
 10353     0677                     l917:
 10354     0677  0020               	movlb	0	; select bank0
 10355     0678  1FE5               	btfss	strtof@expon+1,7
 10356     0679  2E7B               	goto	u6021
 10357     067A  2E7C               	goto	u6020
 10358     067B                     u6021:
 10359     067B  2F06               	goto	l3908
 10360     067C                     u6020:
 10361     067C                     l3882:
 10362     067C  09E4               	comf	strtof@expon,f
 10363     067D  09E5               	comf	strtof@expon+1,f
 10364     067E  0AE4               	incf	strtof@expon,f
 10365     067F  1903               	skipnz
 10366     0680  0AE5               	incf	strtof@expon+1,f
 10367     0681  2EA3               	goto	l3888
 10368     0682                     l3884:
 10369     0682  3050               	movlw	80
 10370     0683  00F3               	movwf	___fldiv@a+3
 10371     0684  3015               	movlw	21
 10372     0685  00F2               	movwf	___fldiv@a+2
 10373     0686  3002               	movlw	2
 10374     0687  00F1               	movwf	___fldiv@a+1
 10375     0688  30F9               	movlw	249
 10376     0689  00F0               	movwf	___fldiv@a
 10377     068A  0020               	movlb	0	; select bank0
 10378     068B  086B               	movf	strtof@_u+3,w
 10379     068C  00F7               	movwf	___fldiv@b+3
 10380     068D  086A               	movf	strtof@_u+2,w
 10381     068E  00F6               	movwf	___fldiv@b+2
 10382     068F  0869               	movf	strtof@_u+1,w
 10383     0690  00F5               	movwf	___fldiv@b+1
 10384     0691  0868               	movf	strtof@_u,w
 10385     0692  00F4               	movwf	___fldiv@b
 10386     0693  3192  2210  3180   	fcall	___fldiv
 10387     0696  0873               	movf	?___fldiv+3,w
 10388     0697  0020               	movlb	0	; select bank0
 10389     0698  00EB               	movwf	strtof@_u+3
 10390     0699  0872               	movf	?___fldiv+2,w
 10391     069A  00EA               	movwf	strtof@_u+2
 10392     069B  0871               	movf	?___fldiv+1,w
 10393     069C  00E9               	movwf	strtof@_u+1
 10394     069D  0870               	movf	?___fldiv,w
 10395     069E  00E8               	movwf	strtof@_u
 10396     069F                     l3886:
 10397     069F  30F6               	movlw	246
 10398     06A0  07E4               	addwf	strtof@expon,f
 10399     06A1  30FF               	movlw	255
 10400     06A2  3DE5               	addwfc	strtof@expon+1,f
 10401     06A3                     l3888:
 10402     06A3  0865               	movf	strtof@expon+1,w
 10403     06A4  3A80               	xorlw	128
 10404     06A5  00D6               	movwf	??_strtof
 10405     06A6  3080               	movlw	128
 10406     06A7  0256               	subwf	??_strtof,w
 10407     06A8  1D03               	skipz
 10408     06A9  2EAC               	goto	u6035
 10409     06AA  300A               	movlw	10
 10410     06AB  0264               	subwf	strtof@expon,w
 10411     06AC                     u6035:
 10412     06AC  1803               	skipnc
 10413     06AD  2EAF               	goto	u6031
 10414     06AE  2EB0               	goto	u6030
 10415     06AF                     u6031:
 10416     06AF  2E82               	goto	l3884
 10417     06B0                     u6030:
 10418     06B0  2ED1               	goto	l3894
 10419     06B1                     l3890:
 10420     06B1  3041               	movlw	65
 10421     06B2  00F3               	movwf	___fldiv@a+3
 10422     06B3  3020               	movlw	32
 10423     06B4  00F2               	movwf	___fldiv@a+2
 10424     06B5  3000               	movlw	0
 10425     06B6  00F1               	movwf	___fldiv@a+1
 10426     06B7  3000               	movlw	0
 10427     06B8  00F0               	movwf	___fldiv@a
 10428     06B9  086B               	movf	strtof@_u+3,w
 10429     06BA  00F7               	movwf	___fldiv@b+3
 10430     06BB  086A               	movf	strtof@_u+2,w
 10431     06BC  00F6               	movwf	___fldiv@b+2
 10432     06BD  0869               	movf	strtof@_u+1,w
 10433     06BE  00F5               	movwf	___fldiv@b+1
 10434     06BF  0868               	movf	strtof@_u,w
 10435     06C0  00F4               	movwf	___fldiv@b
 10436     06C1  3192  2210  3180   	fcall	___fldiv
 10437     06C4  0873               	movf	?___fldiv+3,w
 10438     06C5  0020               	movlb	0	; select bank0
 10439     06C6  00EB               	movwf	strtof@_u+3
 10440     06C7  0872               	movf	?___fldiv+2,w
 10441     06C8  00EA               	movwf	strtof@_u+2
 10442     06C9  0871               	movf	?___fldiv+1,w
 10443     06CA  00E9               	movwf	strtof@_u+1
 10444     06CB  0870               	movf	?___fldiv,w
 10445     06CC  00E8               	movwf	strtof@_u
 10446     06CD                     l3892:
 10447     06CD  30FF               	movlw	255
 10448     06CE  07E4               	addwf	strtof@expon,f
 10449     06CF  30FF               	movlw	255
 10450     06D0  3DE5               	addwfc	strtof@expon+1,f
 10451     06D1                     l3894:
 10452     06D1  0020               	movlb	0	; select bank0
 10453     06D2  0864               	movf	strtof@expon,w
 10454     06D3  0465               	iorwf	strtof@expon+1,w
 10455     06D4  1D03               	btfss	3,2
 10456     06D5  2ED7               	goto	u6041
 10457     06D6  2ED8               	goto	u6040
 10458     06D7                     u6041:
 10459     06D7  2EB1               	goto	l3890
 10460     06D8                     u6040:
 10461     06D8                     l3896:
 10462     06D8  086B               	movf	strtof@_u+3,w
 10463     06D9  00F3               	movwf	___flge@ff1+3
 10464     06DA  086A               	movf	strtof@_u+2,w
 10465     06DB  00F2               	movwf	___flge@ff1+2
 10466     06DC  0869               	movf	strtof@_u+1,w
 10467     06DD  00F1               	movwf	___flge@ff1+1
 10468     06DE  0868               	movf	strtof@_u,w
 10469     06DF  00F0               	movwf	___flge@ff1
 10470     06E0  3000               	movlw	0
 10471     06E1  00F7               	movwf	___flge@ff2+3
 10472     06E2  3080               	movlw	128
 10473     06E3  00F6               	movwf	___flge@ff2+2
 10474     06E4  3000               	movlw	0
 10475     06E5  00F5               	movwf	___flge@ff2+1
 10476     06E6  3000               	movlw	0
 10477     06E7  00F4               	movwf	___flge@ff2
 10478     06E8  319D  2516  3180   	fcall	___flge
 10479     06EB  1803               	btfsc	3,0
 10480     06EC  2EEE               	goto	u6051
 10481     06ED  2EEF               	goto	u6050
 10482     06EE                     u6051:
 10483     06EE  2F81               	goto	l3928
 10484     06EF                     u6050:
 10485     06EF                     l3898:
 10486     06EF  0020               	movlb	0	; select bank0
 10487     06F0  1C63               	btfss	strtof@flags,0
 10488     06F1  2EF3               	goto	u6061
 10489     06F2  2EF4               	goto	u6060
 10490     06F3                     u6061:
 10491     06F3  2EFD               	goto	l3904
 10492     06F4                     u6060:
 10493     06F4                     l3900:
 10494     06F4  3080               	movlw	128
 10495     06F5  00D5               	movwf	?_strtof+3
 10496     06F6  3080               	movlw	128
 10497     06F7  00D4               	movwf	?_strtof+2
 10498     06F8  3000               	movlw	0
 10499     06F9  00D3               	movwf	?_strtof+1
 10500     06FA  3000               	movlw	0
 10501     06FB  00D2               	movwf	?_strtof
 10502     06FC  2FB8               	goto	l882
 10503     06FD                     l3904:
 10504     06FD  3000               	movlw	0
 10505     06FE  00D5               	movwf	?_strtof+3
 10506     06FF  3080               	movlw	128
 10507     0700  00D4               	movwf	?_strtof+2
 10508     0701  3000               	movlw	0
 10509     0702  00D3               	movwf	?_strtof+1
 10510     0703  3000               	movlw	0
 10511     0704  00D2               	movwf	?_strtof
 10512     0705  2FB8               	goto	l882
 10513     0706                     l3908:
 10514     0706  0865               	movf	strtof@expon+1,w
 10515     0707  3A80               	xorlw	128
 10516     0708  00D6               	movwf	??_strtof
 10517     0709  3080               	movlw	128
 10518     070A  0256               	subwf	??_strtof,w
 10519     070B  1D03               	skipz
 10520     070C  2F0F               	goto	u6075
 10521     070D  3001               	movlw	1
 10522     070E  0264               	subwf	strtof@expon,w
 10523     070F                     u6075:
 10524     070F  1C03               	skipc
 10525     0710  2F12               	goto	u6071
 10526     0711  2F13               	goto	u6070
 10527     0712                     u6071:
 10528     0712  2F81               	goto	l3928
 10529     0713                     u6070:
 10530     0713  2F34               	goto	l3916
 10531     0714                     l3912:
 10532     0714  3050               	movlw	80
 10533     0715  00BB               	movwf	___flmul@b+3
 10534     0716  3015               	movlw	21
 10535     0717  00BA               	movwf	___flmul@b+2
 10536     0718  3002               	movlw	2
 10537     0719  00B9               	movwf	___flmul@b+1
 10538     071A  30F9               	movlw	249
 10539     071B  00B8               	movwf	___flmul@b
 10540     071C  086B               	movf	strtof@_u+3,w
 10541     071D  00BF               	movwf	___flmul@a+3
 10542     071E  086A               	movf	strtof@_u+2,w
 10543     071F  00BE               	movwf	___flmul@a+2
 10544     0720  0869               	movf	strtof@_u+1,w
 10545     0721  00BD               	movwf	___flmul@a+1
 10546     0722  0868               	movf	strtof@_u,w
 10547     0723  00BC               	movwf	___flmul@a
 10548     0724  3195  25C5  3180   	fcall	___flmul
 10549     0727  0020               	movlb	0	; select bank0
 10550     0728  083B               	movf	?___flmul+3,w
 10551     0729  00EB               	movwf	strtof@_u+3
 10552     072A  083A               	movf	?___flmul+2,w
 10553     072B  00EA               	movwf	strtof@_u+2
 10554     072C  0839               	movf	?___flmul+1,w
 10555     072D  00E9               	movwf	strtof@_u+1
 10556     072E  0838               	movf	?___flmul,w
 10557     072F  00E8               	movwf	strtof@_u
 10558     0730                     l3914:
 10559     0730  30F6               	movlw	246
 10560     0731  07E4               	addwf	strtof@expon,f
 10561     0732  30FF               	movlw	255
 10562     0733  3DE5               	addwfc	strtof@expon+1,f
 10563     0734                     l3916:
 10564     0734  3000               	movlw	0
 10565     0735  0020               	movlb	0	; select bank0
 10566     0736  0265               	subwf	strtof@expon+1,w
 10567     0737  300A               	movlw	10
 10568     0738  1903               	skipnz
 10569     0739  0264               	subwf	strtof@expon,w
 10570     073A  1803               	skipnc
 10571     073B  2F3D               	goto	u6081
 10572     073C  2F3E               	goto	u6080
 10573     073D                     u6081:
 10574     073D  2F14               	goto	l3912
 10575     073E                     u6080:
 10576     073E  2F5F               	goto	l3922
 10577     073F                     l3918:
 10578     073F  3041               	movlw	65
 10579     0740  00BB               	movwf	___flmul@b+3
 10580     0741  3020               	movlw	32
 10581     0742  00BA               	movwf	___flmul@b+2
 10582     0743  3000               	movlw	0
 10583     0744  00B9               	movwf	___flmul@b+1
 10584     0745  3000               	movlw	0
 10585     0746  00B8               	movwf	___flmul@b
 10586     0747  086B               	movf	strtof@_u+3,w
 10587     0748  00BF               	movwf	___flmul@a+3
 10588     0749  086A               	movf	strtof@_u+2,w
 10589     074A  00BE               	movwf	___flmul@a+2
 10590     074B  0869               	movf	strtof@_u+1,w
 10591     074C  00BD               	movwf	___flmul@a+1
 10592     074D  0868               	movf	strtof@_u,w
 10593     074E  00BC               	movwf	___flmul@a
 10594     074F  3195  25C5  3180   	fcall	___flmul
 10595     0752  0020               	movlb	0	; select bank0
 10596     0753  083B               	movf	?___flmul+3,w
 10597     0754  00EB               	movwf	strtof@_u+3
 10598     0755  083A               	movf	?___flmul+2,w
 10599     0756  00EA               	movwf	strtof@_u+2
 10600     0757  0839               	movf	?___flmul+1,w
 10601     0758  00E9               	movwf	strtof@_u+1
 10602     0759  0838               	movf	?___flmul,w
 10603     075A  00E8               	movwf	strtof@_u
 10604     075B                     l3920:
 10605     075B  30FF               	movlw	255
 10606     075C  07E4               	addwf	strtof@expon,f
 10607     075D  30FF               	movlw	255
 10608     075E  3DE5               	addwfc	strtof@expon+1,f
 10609     075F                     l3922:
 10610     075F  0864               	movf	strtof@expon,w
 10611     0760  0465               	iorwf	strtof@expon+1,w
 10612     0761  1D03               	btfss	3,2
 10613     0762  2F64               	goto	u6091
 10614     0763  2F65               	goto	u6090
 10615     0764                     u6091:
 10616     0764  2F3F               	goto	l3918
 10617     0765                     u6090:
 10618     0765                     l3924:
 10619     0765  307F               	movlw	127
 10620     0766  00F3               	movwf	___flge@ff1+3
 10621     0767  307F               	movlw	127
 10622     0768  00F2               	movwf	___flge@ff1+2
 10623     0769  30FF               	movlw	255
 10624     076A  00F1               	movwf	___flge@ff1+1
 10625     076B  30FF               	movlw	255
 10626     076C  00F0               	movwf	___flge@ff1
 10627     076D  086B               	movf	strtof@_u+3,w
 10628     076E  00F7               	movwf	___flge@ff2+3
 10629     076F  086A               	movf	strtof@_u+2,w
 10630     0770  00F6               	movwf	___flge@ff2+2
 10631     0771  0869               	movf	strtof@_u+1,w
 10632     0772  00F5               	movwf	___flge@ff2+1
 10633     0773  0868               	movf	strtof@_u,w
 10634     0774  00F4               	movwf	___flge@ff2
 10635     0775  319D  2516  3180   	fcall	___flge
 10636     0778  1803               	btfsc	3,0
 10637     0779  2F7B               	goto	u6101
 10638     077A  2F7C               	goto	u6100
 10639     077B                     u6101:
 10640     077B  2F81               	goto	l3928
 10641     077C                     u6100:
 10642     077C                     l3926:
 10643     077C  3022               	movlw	34
 10644     077D  0020               	movlb	0	; select bank0
 10645     077E  00DE               	movwf	strtof@err
 10646     077F  3000               	movlw	0
 10647     0780  00DF               	movwf	strtof@err+1
 10648     0781                     l3928:
 10649     0781  0020               	movlb	0	; select bank0
 10650     0782  085E               	movf	strtof@err,w
 10651     0783  045F               	iorwf	strtof@err+1,w
 10652     0784  1903               	btfsc	3,2
 10653     0785  2F87               	goto	u6111
 10654     0786  2F88               	goto	u6110
 10655     0787                     u6111:
 10656     0787  2F98               	goto	l3932
 10657     0788                     u6110:
 10658     0788                     l3930:
 10659     0788  085F               	movf	strtof@err+1,w
 10660     0789  0022               	movlb	2	; select bank2
 10661     078A  00ED               	movwf	(_errno+1)^(0+256)
 10662     078B  0020               	movlb	0	; select bank0
 10663     078C  085E               	movf	strtof@err,w
 10664     078D  0022               	movlb	2	; select bank2
 10665     078E  00EC               	movwf	_errno^(0+256)
 10666     078F  307F               	movlw	127
 10667     0790  0020               	movlb	0	; select bank0
 10668     0791  00EB               	movwf	strtof@_u+3
 10669     0792  3080               	movlw	128
 10670     0793  00EA               	movwf	strtof@_u+2
 10671     0794  3000               	movlw	0
 10672     0795  00E9               	movwf	strtof@_u+1
 10673     0796  3000               	movlw	0
 10674     0797  00E8               	movwf	strtof@_u
 10675     0798                     l3932:
 10676     0798  1C63               	btfss	strtof@flags,0
 10677     0799  2F9B               	goto	u6121
 10678     079A  2F9C               	goto	u6120
 10679     079B                     u6121:
 10680     079B  2FB0               	goto	l3936
 10681     079C                     u6120:
 10682     079C                     l3934:
 10683     079C  086B               	movf	strtof@_u+3,w
 10684     079D  00F3               	movwf	___flneg@f1+3
 10685     079E  086A               	movf	strtof@_u+2,w
 10686     079F  00F2               	movwf	___flneg@f1+2
 10687     07A0  0869               	movf	strtof@_u+1,w
 10688     07A1  00F1               	movwf	___flneg@f1+1
 10689     07A2  0868               	movf	strtof@_u,w
 10690     07A3  00F0               	movwf	___flneg@f1
 10691     07A4  31A6  26DB  3180   	fcall	___flneg
 10692     07A7  0873               	movf	?___flneg+3,w
 10693     07A8  0020               	movlb	0	; select bank0
 10694     07A9  00EB               	movwf	strtof@_u+3
 10695     07AA  0872               	movf	?___flneg+2,w
 10696     07AB  00EA               	movwf	strtof@_u+2
 10697     07AC  0871               	movf	?___flneg+1,w
 10698     07AD  00E9               	movwf	strtof@_u+1
 10699     07AE  0870               	movf	?___flneg,w
 10700     07AF  00E8               	movwf	strtof@_u
 10701     07B0                     l3936:
 10702     07B0  086B               	movf	strtof@_u+3,w
 10703     07B1  00D5               	movwf	?_strtof+3
 10704     07B2  086A               	movf	strtof@_u+2,w
 10705     07B3  00D4               	movwf	?_strtof+2
 10706     07B4  0869               	movf	strtof@_u+1,w
 10707     07B5  00D3               	movwf	?_strtof+1
 10708     07B6  0868               	movf	strtof@_u,w
 10709     07B7  00D2               	movwf	?_strtof
 10710     07B8                     l882:
 10711     07B8  0008               	return
 10712     07B9                     __end_of_strtof:
 10713                           
 10714                           	psect	text19
 10715     1004                     __ptext19:	
 10716 ;; *************** function _toupper *****************
 10717 ;; Defined at:
 10718 ;;		line 8 in file "C:\Program Files\Microchip\xc8\v2.46\pic\sources\c99\common\toupper.c"
 10719 ;; Parameters:    Size  Location     Type
 10720 ;;  c               2    0[COMMON] int 
 10721 ;; Auto vars:     Size  Location     Type
 10722 ;;		None
 10723 ;; Return value:  Size  Location     Type
 10724 ;;                  2    0[COMMON] int 
 10725 ;; Registers used:
 10726 ;;		wreg, status,2, status,0
 10727 ;; Tracked objects:
 10728 ;;		On entry : 0/0
 10729 ;;		On exit  : 0/0
 10730 ;;		Unchanged: 0/0
 10731 ;; Data sizes:     COMMON   BANK0   BANK1   BANK2   BANK3   BANK4   BANK5   BANK6   BANK7   BANK8   BANK9  BANK10  BANK1
      +1  BANK12  BANK13  BANK14  BANK15  BANK16  BANK17  BANK18  BANK19  BANK20  BANK21  BANK22  BANK23  BANK24  BANK25
 10732 ;;      Params:         2       0       0       0       0       0       0       0       0       0       0       0       
      +0       0       0       0       0       0       0       0       0       0       0       0       0       0       0
 10733 ;;      Locals:         0       0       0       0       0       0       0       0       0       0       0       0       
      +0       0       0       0       0       0       0       0       0       0       0       0       0       0       0
 10734 ;;      Temps:          1       0       0       0       0       0       0       0       0       0       0       0       
      +0       0       0       0       0       0       0       0       0       0       0       0       0       0       0
 10735 ;;      Totals:         3       0       0       0       0       0       0       0       0       0       0       0       
      +0       0       0       0       0       0       0       0       0       0       0       0       0       0       0
 10736 ;;Total ram usage:        3 bytes
 10737 ;; Hardware stack levels used: 1
 10738 ;; This function calls:
 10739 ;;		Nothing
 10740 ;; This function is called by:
 10741 ;;		_strtof
 10742 ;; This function uses a non-reentrant model
 10743 ;;
 10744                           
 10745     1004                     _toupper:	
 10746                           ;psect for function _toupper
 10747                           
 10748     1004                     l3418:	
 10749                           ;incstack = 0
 10750                           ; Regs used in _toupper: [wreg+status,2+status,0]
 10751                           
 10752     1004  309F               	movlw	159
 10753     1005  0770               	addwf	toupper@c,w
 10754     1006  00F2               	movwf	??_toupper
 10755     1007  301A               	movlw	26
 10756     1008  0272               	subwf	??_toupper,w
 10757     1009  1803               	skipnc
 10758     100A  280C               	goto	u5041
 10759     100B  280D               	goto	u5040
 10760     100C                     u5041:
 10761     100C  2814               	goto	l968
 10762     100D                     u5040:
 10763     100D                     l3420:
 10764     100D  305F               	movlw	95
 10765     100E  0570               	andwf	toupper@c,w
 10766     100F  00F0               	movwf	?_toupper
 10767     1010  3000               	movlw	0
 10768     1011  0571               	andwf	toupper@c+1,w
 10769     1012  00F1               	movwf	?_toupper+1
 10770     1013  2814               	goto	l969
 10771     1014                     l968:
 10772     1014                     l969:
 10773     1014  0008               	return
 10774     1015                     __end_of_toupper:
 10775                           
 10776                           	psect	text20
 10777     26FE                     __ptext20:	
 10778 ;; *************** function _nanf *****************
 10779 ;; Defined at:
 10780 ;;		line 4 in file "C:\Program Files\Microchip\xc8\v2.46\pic\sources\c99\common\nanf.c"
 10781 ;; Parameters:    Size  Location     Type
 10782 ;;  s               2    0[COMMON] PTR const unsigned char 
 10783 ;;		 -> STR_42(1), 
 10784 ;; Auto vars:     Size  Location     Type
 10785 ;;  u               4    4[COMMON] struct .
 10786 ;; Return value:  Size  Location     Type
 10787 ;;                  4    0[COMMON] float 
 10788 ;; Registers used:
 10789 ;;		wreg
 10790 ;; Tracked objects:
 10791 ;;		On entry : 0/0
 10792 ;;		On exit  : 0/0
 10793 ;;		Unchanged: 0/0
 10794 ;; Data sizes:     COMMON   BANK0   BANK1   BANK2   BANK3   BANK4   BANK5   BANK6   BANK7   BANK8   BANK9  BANK10  BANK1
      +1  BANK12  BANK13  BANK14  BANK15  BANK16  BANK17  BANK18  BANK19  BANK20  BANK21  BANK22  BANK23  BANK24  BANK25
 10795 ;;      Params:         4       0       0       0       0       0       0       0       0       0       0       0       
      +0       0       0       0       0       0       0       0       0       0       0       0       0       0       0
 10796 ;;      Locals:         4       0       0       0       0       0       0       0       0       0       0       0       
      +0       0       0       0       0       0       0       0       0       0       0       0       0       0       0
 10797 ;;      Temps:          0       0       0       0       0       0       0       0       0       0       0       0       
      +0       0       0       0       0       0       0       0       0       0       0       0       0       0       0
 10798 ;;      Totals:         8       0       0       0       0       0       0       0       0       0       0       0       
      +0       0       0       0       0       0       0       0       0       0       0       0       0       0       0
 10799 ;;Total ram usage:        8 bytes
 10800 ;; Hardware stack levels used: 1
 10801 ;; This function calls:
 10802 ;;		Nothing
 10803 ;; This function is called by:
 10804 ;;		_strtof
 10805 ;; This function uses a non-reentrant model
 10806 ;;
 10807                           
 10808     26FE                     _nanf:	
 10809                           ;psect for function _nanf
 10810                           
 10811     26FE                     l3398:	
 10812                           ;incstack = 0
 10813                           ; Regs used in _nanf: [wreg]
 10814                           
 10815     26FE  307F               	movlw	127
 10816     26FF  00F7               	movwf	nanf@u+3
 10817     2700  30FF               	movlw	255
 10818     2701  00F6               	movwf	nanf@u+2
 10819     2702  30FF               	movlw	255
 10820     2703  00F5               	movwf	nanf@u+1
 10821     2704  30FF               	movlw	255
 10822     2705  00F4               	movwf	nanf@u
 10823     2706  0877               	movf	nanf@u+3,w
 10824     2707  00F3               	movwf	?_nanf+3
 10825     2708  0876               	movf	nanf@u+2,w
 10826     2709  00F2               	movwf	?_nanf+2
 10827     270A  0875               	movf	nanf@u+1,w
 10828     270B  00F1               	movwf	?_nanf+1
 10829     270C  0874               	movf	nanf@u,w
 10830     270D  00F0               	movwf	?_nanf
 10831     270E                     l965:
 10832     270E  0008               	return
 10833     270F                     __end_of_nanf:
 10834                           
 10835                           	psect	text21
 10836     27D7                     __ptext21:	
 10837 ;; *************** function _isxdigit *****************
 10838 ;; Defined at:
 10839 ;;		line 8 in file "C:\Program Files\Microchip\xc8\v2.46\pic\sources\c99\common\isxdigit.c"
 10840 ;; Parameters:    Size  Location     Type
 10841 ;;  c               2    0[COMMON] int 
 10842 ;; Auto vars:     Size  Location     Type
 10843 ;;		None
 10844 ;; Return value:  Size  Location     Type
 10845 ;;                  2    0[COMMON] int 
 10846 ;; Registers used:
 10847 ;;		wreg, status,2, status,0
 10848 ;; Tracked objects:
 10849 ;;		On entry : 0/0
 10850 ;;		On exit  : 0/0
 10851 ;;		Unchanged: 0/0
 10852 ;; Data sizes:     COMMON   BANK0   BANK1   BANK2   BANK3   BANK4   BANK5   BANK6   BANK7   BANK8   BANK9  BANK10  BANK1
      +1  BANK12  BANK13  BANK14  BANK15  BANK16  BANK17  BANK18  BANK19  BANK20  BANK21  BANK22  BANK23  BANK24  BANK25
 10853 ;;      Params:         2       0       0       0       0       0       0       0       0       0       0       0       
      +0       0       0       0       0       0       0       0       0       0       0       0       0       0       0
 10854 ;;      Locals:         1       0       0       0       0       0       0       0       0       0       0       0       
      +0       0       0       0       0       0       0       0       0       0       0       0       0       0       0
 10855 ;;      Temps:          4       0       0       0       0       0       0       0       0       0       0       0       
      +0       0       0       0       0       0       0       0       0       0       0       0       0       0       0
 10856 ;;      Totals:         7       0       0       0       0       0       0       0       0       0       0       0       
      +0       0       0       0       0       0       0       0       0       0       0       0       0       0       0
 10857 ;;Total ram usage:        7 bytes
 10858 ;; Hardware stack levels used: 1
 10859 ;; This function calls:
 10860 ;;		Nothing
 10861 ;; This function is called by:
 10862 ;;		_strtof
 10863 ;; This function uses a non-reentrant model
 10864 ;;
 10865                           
 10866     27D7                     _isxdigit:	
 10867                           ;psect for function _isxdigit
 10868                           
 10869     27D7                     l3402:	
 10870                           ;incstack = 0
 10871                           ; Regs used in _isxdigit: [wreg+status,2+status,0]
 10872                           
 10873     27D7  01F6               	clrf	_isxdigit$754
 10874     27D8  0AF6               	incf	_isxdigit$754,f
 10875     27D9                     l3404:
 10876     27D9  30D0               	movlw	208
 10877     27DA  0770               	addwf	isxdigit@c,w
 10878     27DB  00F2               	movwf	??_isxdigit
 10879     27DC  300A               	movlw	10
 10880     27DD  0272               	subwf	??_isxdigit,w
 10881     27DE  1C03               	skipc
 10882     27DF  2FE1               	goto	u5001
 10883     27E0  2FE2               	goto	u5000
 10884     27E1                     u5001:
 10885     27E1  2FF8               	goto	l3410
 10886     27E2                     u5000:
 10887     27E2                     l3406:
 10888     27E2  3020               	movlw	32
 10889     27E3  0470               	iorwf	isxdigit@c,w
 10890     27E4  00F2               	movwf	??_isxdigit
 10891     27E5  3000               	movlw	0
 10892     27E6  0471               	iorwf	isxdigit@c+1,w
 10893     27E7  00F3               	movwf	??_isxdigit+1
 10894     27E8  0872               	movf	??_isxdigit,w
 10895     27E9  3E9F               	addlw	159
 10896     27EA  00F4               	movwf	??_isxdigit+2
 10897     27EB  30FF               	movlw	255
 10898     27EC  3D73               	addwfc	??_isxdigit+1,w
 10899     27ED  00F5               	movwf	??_isxdigit+3
 10900     27EE  3000               	movlw	0
 10901     27EF  0275               	subwf	??_isxdigit+3,w
 10902     27F0  3006               	movlw	6
 10903     27F1  1903               	skipnz
 10904     27F2  0274               	subwf	??_isxdigit+2,w
 10905     27F3  1C03               	skipc
 10906     27F4  2FF6               	goto	u5011
 10907     27F5  2FF7               	goto	u5010
 10908     27F6                     u5011:
 10909     27F6  2FF8               	goto	l3410
 10910     27F7                     u5010:
 10911     27F7                     l3408:
 10912     27F7  01F6               	clrf	_isxdigit$754
 10913     27F8                     l3410:
 10914     27F8  0876               	movf	_isxdigit$754,w
 10915     27F9  00F2               	movwf	??_isxdigit
 10916     27FA  01F3               	clrf	??_isxdigit+1
 10917     27FB  0872               	movf	??_isxdigit,w
 10918     27FC  00F0               	movwf	?_isxdigit
 10919     27FD  0873               	movf	??_isxdigit+1,w
 10920     27FE  00F1               	movwf	?_isxdigit+1
 10921     27FF                     l959:
 10922     27FF  0008               	return
 10923     2800                     __end_of_isxdigit:
 10924                           
 10925                           	psect	text22
 10926     2727                     __ptext22:	
 10927 ;; *************** function _isdigit *****************
 10928 ;; Defined at:
 10929 ;;		line 5 in file "C:\Program Files\Microchip\xc8\v2.46\pic\sources\c99\common\isdigit.c"
 10930 ;; Parameters:    Size  Location     Type
 10931 ;;  c               2    0[COMMON] int 
 10932 ;; Auto vars:     Size  Location     Type
 10933 ;;		None
 10934 ;; Return value:  Size  Location     Type
 10935 ;;                  2    0[COMMON] int 
 10936 ;; Registers used:
 10937 ;;		wreg, status,2, status,0
 10938 ;; Tracked objects:
 10939 ;;		On entry : 0/0
 10940 ;;		On exit  : 0/0
 10941 ;;		Unchanged: 0/0
 10942 ;; Data sizes:     COMMON   BANK0   BANK1   BANK2   BANK3   BANK4   BANK5   BANK6   BANK7   BANK8   BANK9  BANK10  BANK1
      +1  BANK12  BANK13  BANK14  BANK15  BANK16  BANK17  BANK18  BANK19  BANK20  BANK21  BANK22  BANK23  BANK24  BANK25
 10943 ;;      Params:         2       0       0       0       0       0       0       0       0       0       0       0       
      +0       0       0       0       0       0       0       0       0       0       0       0       0       0       0
 10944 ;;      Locals:         0       0       0       0       0       0       0       0       0       0       0       0       
      +0       0       0       0       0       0       0       0       0       0       0       0       0       0       0
 10945 ;;      Temps:          4       0       0       0       0       0       0       0       0       0       0       0       
      +0       0       0       0       0       0       0       0       0       0       0       0       0       0       0
 10946 ;;      Totals:         6       0       0       0       0       0       0       0       0       0       0       0       
      +0       0       0       0       0       0       0       0       0       0       0       0       0       0       0
 10947 ;;Total ram usage:        6 bytes
 10948 ;; Hardware stack levels used: 1
 10949 ;; This function calls:
 10950 ;;		Nothing
 10951 ;; This function is called by:
 10952 ;;		_strtof
 10953 ;; This function uses a non-reentrant model
 10954 ;;
 10955                           
 10956     2727                     _isdigit:	
 10957                           ;psect for function _isdigit
 10958                           
 10959     2727                     l3414:	
 10960                           ;incstack = 0
 10961                           ; Regs used in _isdigit: [wreg+status,2+status,0]
 10962                           
 10963     2727  0870               	movf	isdigit@c,w
 10964     2728  3ED0               	addlw	208
 10965     2729  00F2               	movwf	??_isdigit
 10966     272A  30FF               	movlw	255
 10967     272B  3D71               	addwfc	isdigit@c+1,w
 10968     272C  00F3               	movwf	??_isdigit+1
 10969     272D  3000               	movlw	0
 10970     272E  0273               	subwf	??_isdigit+1,w
 10971     272F  300A               	movlw	10
 10972     2730  1903               	skipnz
 10973     2731  0272               	subwf	??_isdigit,w
 10974     2732  1C03               	skipc
 10975     2733  2F35               	goto	u5021
 10976     2734  2F37               	goto	u5020
 10977     2735                     u5021:
 10978     2735  3001               	movlw	1
 10979     2736  2F38               	goto	u5030
 10980     2737                     u5020:
 10981     2737  3000               	movlw	0
 10982     2738                     u5030:
 10983     2738  00F4               	movwf	??_isdigit+2
 10984     2739  01F5               	clrf	??_isdigit+3
 10985     273A  0874               	movf	??_isdigit+2,w
 10986     273B  00F0               	movwf	?_isdigit
 10987     273C  0875               	movf	??_isdigit+3,w
 10988     273D  00F1               	movwf	?_isdigit+1
 10989     273E                     l951:
 10990     273E  0008               	return
 10991     273F                     __end_of_isdigit:
 10992                           
 10993                           	psect	text23
 10994     10B4                     __ptext23:	
 10995 ;; *************** function ___xxtofl *****************
 10996 ;; Defined at:
 10997 ;;		line 10 in file "C:\Program Files\Microchip\xc8\v2.46\pic\sources\c99\common\xxtofl.c"
 10998 ;; Parameters:    Size  Location     Type
 10999 ;;  sign            1    wreg     unsigned char 
 11000 ;;  val             4    0[COMMON] long 
 11001 ;; Auto vars:     Size  Location     Type
 11002 ;;  sign            1    8[COMMON] unsigned char 
 11003 ;;  arg             4   10[COMMON] unsigned long 
 11004 ;;  exp             1    9[COMMON] unsigned char 
 11005 ;; Return value:  Size  Location     Type
 11006 ;;                  4    0[COMMON] unsigned char 
 11007 ;; Registers used:
 11008 ;;		wreg, status,2, status,0
 11009 ;; Tracked objects:
 11010 ;;		On entry : 0/0
 11011 ;;		On exit  : 0/0
 11012 ;;		Unchanged: 0/0
 11013 ;; Data sizes:     COMMON   BANK0   BANK1   BANK2   BANK3   BANK4   BANK5   BANK6   BANK7   BANK8   BANK9  BANK10  BANK1
      +1  BANK12  BANK13  BANK14  BANK15  BANK16  BANK17  BANK18  BANK19  BANK20  BANK21  BANK22  BANK23  BANK24  BANK25
 11014 ;;      Params:         4       0       0       0       0       0       0       0       0       0       0       0       
      +0       0       0       0       0       0       0       0       0       0       0       0       0       0       0
 11015 ;;      Locals:         6       0       0       0       0       0       0       0       0       0       0       0       
      +0       0       0       0       0       0       0       0       0       0       0       0       0       0       0
 11016 ;;      Temps:          4       0       0       0       0       0       0       0       0       0       0       0       
      +0       0       0       0       0       0       0       0       0       0       0       0       0       0       0
 11017 ;;      Totals:        14       0       0       0       0       0       0       0       0       0       0       0       
      +0       0       0       0       0       0       0       0       0       0       0       0       0       0       0
 11018 ;;Total ram usage:       14 bytes
 11019 ;; Hardware stack levels used: 1
 11020 ;; This function calls:
 11021 ;;		Nothing
 11022 ;; This function is called by:
 11023 ;;		_print_float
 11024 ;;		_strtof
 11025 ;; This function uses a non-reentrant model
 11026 ;;
 11027                           
 11028     10B4                     ___xxtofl:	
 11029                           ;psect for function ___xxtofl
 11030                           
 11031                           
 11032                           ;incstack = 0
 11033                           ; Regs used in ___xxtofl: [wreg+status,2+status,0]
 11034                           ;___xxtofl@sign stored from wreg
 11035     10B4  00F8               	movwf	___xxtofl@sign
 11036     10B5                     l3354:
 11037     10B5  0878               	movf	___xxtofl@sign,w
 11038     10B6  1903               	btfsc	3,2
 11039     10B7  28B9               	goto	u4861
 11040     10B8  28BA               	goto	u4860
 11041     10B9                     u4861:
 11042     10B9  28CE               	goto	l3360
 11043     10BA                     u4860:
 11044     10BA                     l3356:
 11045     10BA  1FF3               	btfss	___xxtofl@val+3,7
 11046     10BB  28BD               	goto	u4871
 11047     10BC  28BE               	goto	u4870
 11048     10BD                     u4871:
 11049     10BD  28CE               	goto	l3360
 11050     10BE                     u4870:
 11051     10BE                     l3358:
 11052     10BE  0970               	comf	___xxtofl@val,w
 11053     10BF  00FA               	movwf	___xxtofl@arg
 11054     10C0  0971               	comf	___xxtofl@val+1,w
 11055     10C1  00FB               	movwf	___xxtofl@arg+1
 11056     10C2  0972               	comf	___xxtofl@val+2,w
 11057     10C3  00FC               	movwf	___xxtofl@arg+2
 11058     10C4  0973               	comf	___xxtofl@val+3,w
 11059     10C5  00FD               	movwf	___xxtofl@arg+3
 11060     10C6  0AFA               	incf	___xxtofl@arg,f
 11061     10C7  1903               	skipnz
 11062     10C8  0AFB               	incf	___xxtofl@arg+1,f
 11063     10C9  1903               	skipnz
 11064     10CA  0AFC               	incf	___xxtofl@arg+2,f
 11065     10CB  1903               	skipnz
 11066     10CC  0AFD               	incf	___xxtofl@arg+3,f
 11067     10CD  28D6               	goto	l757
 11068     10CE                     l3360:
 11069     10CE  0873               	movf	___xxtofl@val+3,w
 11070     10CF  00FD               	movwf	___xxtofl@arg+3
 11071     10D0  0872               	movf	___xxtofl@val+2,w
 11072     10D1  00FC               	movwf	___xxtofl@arg+2
 11073     10D2  0871               	movf	___xxtofl@val+1,w
 11074     10D3  00FB               	movwf	___xxtofl@arg+1
 11075     10D4  0870               	movf	___xxtofl@val,w
 11076     10D5  00FA               	movwf	___xxtofl@arg
 11077     10D6                     l757:
 11078     10D6  0873               	movf	___xxtofl@val+3,w
 11079     10D7  0472               	iorwf	___xxtofl@val+2,w
 11080     10D8  0471               	iorwf	___xxtofl@val+1,w
 11081     10D9  0470               	iorwf	___xxtofl@val,w
 11082     10DA  1D03               	skipz
 11083     10DB  28DD               	goto	u4881
 11084     10DC  28DE               	goto	u4880
 11085     10DD                     u4881:
 11086     10DD  28E7               	goto	l3366
 11087     10DE                     u4880:
 11088     10DE                     l3362:
 11089     10DE  3000               	movlw	0
 11090     10DF  00F3               	movwf	?___xxtofl+3
 11091     10E0  3000               	movlw	0
 11092     10E1  00F2               	movwf	?___xxtofl+2
 11093     10E2  3000               	movlw	0
 11094     10E3  00F1               	movwf	?___xxtofl+1
 11095     10E4  3000               	movlw	0
 11096     10E5  00F0               	movwf	?___xxtofl
 11097     10E6  295D               	goto	l759
 11098     10E7                     l3366:
 11099     10E7  3096               	movlw	150
 11100     10E8  00F9               	movwf	___xxtofl@exp
 11101     10E9  28F5               	goto	l3370
 11102     10EA                     l3368:
 11103     10EA  3001               	movlw	1
 11104     10EB  00F4               	movwf	??___xxtofl
 11105     10EC  0874               	movf	??___xxtofl,w
 11106     10ED  07F9               	addwf	___xxtofl@exp,f
 11107     10EE  3001               	movlw	1
 11108     10EF                     u4895:
 11109     10EF  36FD               	lsrf	___xxtofl@arg+3,f
 11110     10F0  0CFC               	rrf	___xxtofl@arg+2,f
 11111     10F1  0CFB               	rrf	___xxtofl@arg+1,f
 11112     10F2  0CFA               	rrf	___xxtofl@arg,f
 11113     10F3  0B89               	decfsz	9,f
 11114     10F4  28EF               	goto	u4895
 11115     10F5                     l3370:
 11116     10F5  30FE               	movlw	254
 11117     10F6  057D               	andwf	___xxtofl@arg+3,w
 11118     10F7  1D03               	btfss	3,2
 11119     10F8  28FA               	goto	u4901
 11120     10F9  28FB               	goto	u4900
 11121     10FA                     u4901:
 11122     10FA  28EA               	goto	l3368
 11123     10FB                     u4900:
 11124     10FB  290F               	goto	l763
 11125     10FC                     l3372:
 11126     10FC  3001               	movlw	1
 11127     10FD  00F4               	movwf	??___xxtofl
 11128     10FE  0874               	movf	??___xxtofl,w
 11129     10FF  07F9               	addwf	___xxtofl@exp,f
 11130     1100                     l3374:
 11131     1100  3001               	movlw	1
 11132     1101  07FA               	addwf	___xxtofl@arg,f
 11133     1102  3000               	movlw	0
 11134     1103  3DFB               	addwfc	___xxtofl@arg+1,f
 11135     1104  3000               	movlw	0
 11136     1105  3DFC               	addwfc	___xxtofl@arg+2,f
 11137     1106  3000               	movlw	0
 11138     1107  3DFD               	addwfc	___xxtofl@arg+3,f
 11139     1108                     l3376:
 11140     1108  3001               	movlw	1
 11141     1109                     u4915:
 11142     1109  36FD               	lsrf	___xxtofl@arg+3,f
 11143     110A  0CFC               	rrf	___xxtofl@arg+2,f
 11144     110B  0CFB               	rrf	___xxtofl@arg+1,f
 11145     110C  0CFA               	rrf	___xxtofl@arg,f
 11146     110D  0B89               	decfsz	9,f
 11147     110E  2909               	goto	u4915
 11148     110F                     l763:
 11149     110F  30FF               	movlw	255
 11150     1110  057D               	andwf	___xxtofl@arg+3,w
 11151     1111  1D03               	btfss	3,2
 11152     1112  2914               	goto	u4921
 11153     1113  2915               	goto	u4920
 11154     1114                     u4921:
 11155     1114  28FC               	goto	l3372
 11156     1115                     u4920:
 11157     1115  291F               	goto	l3380
 11158     1116                     l3378:
 11159     1116  3001               	movlw	1
 11160     1117  02F9               	subwf	___xxtofl@exp,f
 11161     1118  3001               	movlw	1
 11162     1119                     u4935:
 11163     1119  35FA               	lslf	___xxtofl@arg,f
 11164     111A  0DFB               	rlf	___xxtofl@arg+1,f
 11165     111B  0DFC               	rlf	___xxtofl@arg+2,f
 11166     111C  0DFD               	rlf	___xxtofl@arg+3,f
 11167     111D  0B89               	decfsz	9,f
 11168     111E  2919               	goto	u4935
 11169     111F                     l3380:
 11170     111F  1BFC               	btfsc	___xxtofl@arg+2,7
 11171     1120  2922               	goto	u4941
 11172     1121  2923               	goto	u4940
 11173     1122                     u4941:
 11174     1122  2929               	goto	l770
 11175     1123                     u4940:
 11176     1123                     l3382:
 11177     1123  3002               	movlw	2
 11178     1124  0279               	subwf	___xxtofl@exp,w
 11179     1125  1803               	skipnc
 11180     1126  2928               	goto	u4951
 11181     1127  2929               	goto	u4950
 11182     1128                     u4951:
 11183     1128  2916               	goto	l3378
 11184     1129                     u4950:
 11185     1129                     l770:
 11186     1129  1879               	btfsc	___xxtofl@exp,0
 11187     112A  292C               	goto	u4961
 11188     112B  292D               	goto	u4960
 11189     112C                     u4961:
 11190     112C  2935               	goto	l771
 11191     112D                     u4960:
 11192     112D                     l3384:
 11193     112D  30FF               	movlw	255
 11194     112E  05FA               	andwf	___xxtofl@arg,f
 11195     112F  30FF               	movlw	255
 11196     1130  05FB               	andwf	___xxtofl@arg+1,f
 11197     1131  307F               	movlw	127
 11198     1132  05FC               	andwf	___xxtofl@arg+2,f
 11199     1133  30FF               	movlw	255
 11200     1134  05FD               	andwf	___xxtofl@arg+3,f
 11201     1135                     l771:
 11202     1135  1003               	clrc
 11203     1136  0CF9               	rrf	___xxtofl@exp,f
 11204     1137                     l3386:
 11205     1137  0879               	movf	___xxtofl@exp,w
 11206     1138  00F4               	movwf	??___xxtofl
 11207     1139  01F5               	clrf	??___xxtofl+1
 11208     113A  01F6               	clrf	??___xxtofl+2
 11209     113B  01F7               	clrf	??___xxtofl+3
 11210     113C  3018               	movlw	24
 11211     113D                     u4975:
 11212     113D  35F4               	lslf	??___xxtofl,f
 11213     113E  0DF5               	rlf	??___xxtofl+1,f
 11214     113F  0DF6               	rlf	??___xxtofl+2,f
 11215     1140  0DF7               	rlf	??___xxtofl+3,f
 11216     1141                     u4970:
 11217     1141  0B89               	decfsz	9,f
 11218     1142  293D               	goto	u4975
 11219     1143  0874               	movf	??___xxtofl,w
 11220     1144  04FA               	iorwf	___xxtofl@arg,f
 11221     1145  0875               	movf	??___xxtofl+1,w
 11222     1146  04FB               	iorwf	___xxtofl@arg+1,f
 11223     1147  0876               	movf	??___xxtofl+2,w
 11224     1148  04FC               	iorwf	___xxtofl@arg+2,f
 11225     1149  0877               	movf	??___xxtofl+3,w
 11226     114A  04FD               	iorwf	___xxtofl@arg+3,f
 11227     114B                     l3388:
 11228     114B  0878               	movf	___xxtofl@sign,w
 11229     114C  1903               	btfsc	3,2
 11230     114D  294F               	goto	u4981
 11231     114E  2950               	goto	u4980
 11232     114F                     u4981:
 11233     114F  2955               	goto	l3394
 11234     1150                     u4980:
 11235     1150                     l3390:
 11236     1150  1FF3               	btfss	___xxtofl@val+3,7
 11237     1151  2953               	goto	u4991
 11238     1152  2954               	goto	u4990
 11239     1153                     u4991:
 11240     1153  2955               	goto	l3394
 11241     1154                     u4990:
 11242     1154                     l3392:
 11243     1154  17FD               	bsf	___xxtofl@arg+3,7
 11244     1155                     l3394:
 11245     1155  087D               	movf	___xxtofl@arg+3,w
 11246     1156  00F3               	movwf	?___xxtofl+3
 11247     1157  087C               	movf	___xxtofl@arg+2,w
 11248     1158  00F2               	movwf	?___xxtofl+2
 11249     1159  087B               	movf	___xxtofl@arg+1,w
 11250     115A  00F1               	movwf	?___xxtofl+1
 11251     115B  087A               	movf	___xxtofl@arg,w
 11252     115C  00F0               	movwf	?___xxtofl
 11253     115D                     l759:
 11254     115D  0008               	return
 11255     115E                     __end_of___xxtofl:
 11256                           
 11257                           	psect	text24
 11258     2775                     __ptext24:	
 11259 ;; *************** function ___wmul *****************
 11260 ;; Defined at:
 11261 ;;		line 15 in file "C:\Program Files\Microchip\xc8\v2.46\pic\sources\c99\common\Umul16.c"
 11262 ;; Parameters:    Size  Location     Type
 11263 ;;  multiplier      2    0[COMMON] unsigned int 
 11264 ;;  multiplicand    2    2[COMMON] unsigned int 
 11265 ;; Auto vars:     Size  Location     Type
 11266 ;;  product         2    4[COMMON] unsigned int 
 11267 ;; Return value:  Size  Location     Type
 11268 ;;                  2    0[COMMON] unsigned int 
 11269 ;; Registers used:
 11270 ;;		wreg, status,2, status,0
 11271 ;; Tracked objects:
 11272 ;;		On entry : 0/0
 11273 ;;		On exit  : 0/0
 11274 ;;		Unchanged: 0/0
 11275 ;; Data sizes:     COMMON   BANK0   BANK1   BANK2   BANK3   BANK4   BANK5   BANK6   BANK7   BANK8   BANK9  BANK10  BANK1
      +1  BANK12  BANK13  BANK14  BANK15  BANK16  BANK17  BANK18  BANK19  BANK20  BANK21  BANK22  BANK23  BANK24  BANK25
 11276 ;;      Params:         4       0       0       0       0       0       0       0       0       0       0       0       
      +0       0       0       0       0       0       0       0       0       0       0       0       0       0       0
 11277 ;;      Locals:         2       0       0       0       0       0       0       0       0       0       0       0       
      +0       0       0       0       0       0       0       0       0       0       0       0       0       0       0
 11278 ;;      Temps:          0       0       0       0       0       0       0       0       0       0       0       0       
      +0       0       0       0       0       0       0       0       0       0       0       0       0       0       0
 11279 ;;      Totals:         6       0       0       0       0       0       0       0       0       0       0       0       
      +0       0       0       0       0       0       0       0       0       0       0       0       0       0       0
 11280 ;;Total ram usage:        6 bytes
 11281 ;; Hardware stack levels used: 1
 11282 ;; This function calls:
 11283 ;;		Nothing
 11284 ;; This function is called by:
 11285 ;;		_itoa
 11286 ;;		_strtof
 11287 ;; This function uses a non-reentrant model
 11288 ;;
 11289                           
 11290     2775                     ___wmul:	
 11291                           ;psect for function ___wmul
 11292                           
 11293     2775                     l2622:	
 11294                           ;incstack = 0
 11295                           ; Regs used in ___wmul: [wreg+status,2+status,0]
 11296                           
 11297     2775  01F4               	clrf	___wmul@product
 11298     2776  01F5               	clrf	___wmul@product+1
 11299     2777                     l2624:
 11300     2777  1C70               	btfss	___wmul@multiplier,0
 11301     2778  2F7A               	goto	u3321
 11302     2779  2F7B               	goto	u3320
 11303     277A                     u3321:
 11304     277A  2F7F               	goto	l316
 11305     277B                     u3320:
 11306     277B                     l2626:
 11307     277B  0872               	movf	___wmul@multiplicand,w
 11308     277C  07F4               	addwf	___wmul@product,f
 11309     277D  0873               	movf	___wmul@multiplicand+1,w
 11310     277E  3DF5               	addwfc	___wmul@product+1,f
 11311     277F                     l316:
 11312     277F  3001               	movlw	1
 11313     2780                     u3335:
 11314     2780  35F2               	lslf	___wmul@multiplicand,f
 11315     2781  0DF3               	rlf	___wmul@multiplicand+1,f
 11316     2782  0B89               	decfsz	9,f
 11317     2783  2F80               	goto	u3335
 11318     2784                     l2628:
 11319     2784  3001               	movlw	1
 11320     2785                     u3345:
 11321     2785  36F1               	lsrf	___wmul@multiplier+1,f
 11322     2786  0CF0               	rrf	___wmul@multiplier,f
 11323     2787  0B89               	decfsz	9,f
 11324     2788  2F85               	goto	u3345
 11325     2789                     l2630:
 11326     2789  0870               	movf	___wmul@multiplier,w
 11327     278A  0471               	iorwf	___wmul@multiplier+1,w
 11328     278B  1D03               	btfss	3,2
 11329     278C  2F8E               	goto	u3351
 11330     278D  2F8F               	goto	u3350
 11331     278E                     u3351:
 11332     278E  2F77               	goto	l2624
 11333     278F                     u3350:
 11334     278F                     l2632:
 11335     278F  0875               	movf	___wmul@product+1,w
 11336     2790  00F1               	movwf	?___wmul+1
 11337     2791  0874               	movf	___wmul@product,w
 11338     2792  00F0               	movwf	?___wmul
 11339     2793                     l318:
 11340     2793  0008               	return
 11341     2794                     __end_of___wmul:
 11342                           
 11343                           	psect	text25
 11344     1A4D                     __ptext25:	
 11345 ;; *************** function ___lmul *****************
 11346 ;; Defined at:
 11347 ;;		line 15 in file "C:\Program Files\Microchip\xc8\v2.46\pic\sources\c99\common\Umul32.c"
 11348 ;; Parameters:    Size  Location     Type
 11349 ;;  multiplier      4    0[COMMON] unsigned long 
 11350 ;;  multiplicand    4    4[COMMON] unsigned long 
 11351 ;; Auto vars:     Size  Location     Type
 11352 ;;  product         4    8[COMMON] unsigned long 
 11353 ;; Return value:  Size  Location     Type
 11354 ;;                  4    0[COMMON] unsigned long 
 11355 ;; Registers used:
 11356 ;;		wreg, status,2, status,0
 11357 ;; Tracked objects:
 11358 ;;		On entry : 0/0
 11359 ;;		On exit  : 0/0
 11360 ;;		Unchanged: 0/0
 11361 ;; Data sizes:     COMMON   BANK0   BANK1   BANK2   BANK3   BANK4   BANK5   BANK6   BANK7   BANK8   BANK9  BANK10  BANK1
      +1  BANK12  BANK13  BANK14  BANK15  BANK16  BANK17  BANK18  BANK19  BANK20  BANK21  BANK22  BANK23  BANK24  BANK25
 11362 ;;      Params:         8       0       0       0       0       0       0       0       0       0       0       0       
      +0       0       0       0       0       0       0       0       0       0       0       0       0       0       0
 11363 ;;      Locals:         4       0       0       0       0       0       0       0       0       0       0       0       
      +0       0       0       0       0       0       0       0       0       0       0       0       0       0       0
 11364 ;;      Temps:          0       0       0       0       0       0       0       0       0       0       0       0       
      +0       0       0       0       0       0       0       0       0       0       0       0       0       0       0
 11365 ;;      Totals:        12       0       0       0       0       0       0       0       0       0       0       0       
      +0       0       0       0       0       0       0       0       0       0       0       0       0       0       0
 11366 ;;Total ram usage:       12 bytes
 11367 ;; Hardware stack levels used: 1
 11368 ;; This function calls:
 11369 ;;		Nothing
 11370 ;; This function is called by:
 11371 ;;		_strtof
 11372 ;; This function uses a non-reentrant model
 11373 ;;
 11374                           
 11375     1A4D                     ___lmul:	
 11376                           ;psect for function ___lmul
 11377                           
 11378     1A4D                     l3118:	
 11379                           ;incstack = 0
 11380                           ; Regs used in ___lmul: [wreg+status,2+status,0]
 11381                           
 11382     1A4D  3000               	movlw	0
 11383     1A4E  00FB               	movwf	___lmul@product+3
 11384     1A4F  3000               	movlw	0
 11385     1A50  00FA               	movwf	___lmul@product+2
 11386     1A51  3000               	movlw	0
 11387     1A52  00F9               	movwf	___lmul@product+1
 11388     1A53  3000               	movlw	0
 11389     1A54  00F8               	movwf	___lmul@product
 11390     1A55                     l3120:
 11391     1A55  1C70               	btfss	___lmul@multiplier,0
 11392     1A56  2A58               	goto	u4341
 11393     1A57  2A59               	goto	u4340
 11394     1A58                     u4341:
 11395     1A58  2A61               	goto	l3124
 11396     1A59                     u4340:
 11397     1A59                     l3122:
 11398     1A59  0874               	movf	___lmul@multiplicand,w
 11399     1A5A  07F8               	addwf	___lmul@product,f
 11400     1A5B  0875               	movf	___lmul@multiplicand+1,w
 11401     1A5C  3DF9               	addwfc	___lmul@product+1,f
 11402     1A5D  0876               	movf	___lmul@multiplicand+2,w
 11403     1A5E  3DFA               	addwfc	___lmul@product+2,f
 11404     1A5F  0877               	movf	___lmul@multiplicand+3,w
 11405     1A60  3DFB               	addwfc	___lmul@product+3,f
 11406     1A61                     l3124:
 11407     1A61  3001               	movlw	1
 11408     1A62                     u4355:
 11409     1A62  35F4               	lslf	___lmul@multiplicand,f
 11410     1A63  0DF5               	rlf	___lmul@multiplicand+1,f
 11411     1A64  0DF6               	rlf	___lmul@multiplicand+2,f
 11412     1A65  0DF7               	rlf	___lmul@multiplicand+3,f
 11413     1A66  0B89               	decfsz	9,f
 11414     1A67  2A62               	goto	u4355
 11415     1A68                     l3126:
 11416     1A68  3001               	movlw	1
 11417     1A69                     u4365:
 11418     1A69  36F3               	lsrf	___lmul@multiplier+3,f
 11419     1A6A  0CF2               	rrf	___lmul@multiplier+2,f
 11420     1A6B  0CF1               	rrf	___lmul@multiplier+1,f
 11421     1A6C  0CF0               	rrf	___lmul@multiplier,f
 11422     1A6D  0B89               	decfsz	9,f
 11423     1A6E  2A69               	goto	u4365
 11424     1A6F  0873               	movf	___lmul@multiplier+3,w
 11425     1A70  0472               	iorwf	___lmul@multiplier+2,w
 11426     1A71  0471               	iorwf	___lmul@multiplier+1,w
 11427     1A72  0470               	iorwf	___lmul@multiplier,w
 11428     1A73  1D03               	skipz
 11429     1A74  2A76               	goto	u4371
 11430     1A75  2A77               	goto	u4370
 11431     1A76                     u4371:
 11432     1A76  2A55               	goto	l3120
 11433     1A77                     u4370:
 11434     1A77                     l3128:
 11435     1A77  087B               	movf	___lmul@product+3,w
 11436     1A78  00F3               	movwf	?___lmul+3
 11437     1A79  087A               	movf	___lmul@product+2,w
 11438     1A7A  00F2               	movwf	?___lmul+2
 11439     1A7B  0879               	movf	___lmul@product+1,w
 11440     1A7C  00F1               	movwf	?___lmul+1
 11441     1A7D  0878               	movf	___lmul@product,w
 11442     1A7E  00F0               	movwf	?___lmul
 11443     1A7F                     l330:
 11444     1A7F  0008               	return
 11445     1A80                     __end_of___lmul:
 11446                           
 11447                           	psect	text26
 11448     26DB                     __ptext26:	
 11449 ;; *************** function ___flneg *****************
 11450 ;; Defined at:
 11451 ;;		line 15 in file "C:\Program Files\Microchip\xc8\v2.46\pic\sources\c99\common\flneg.c"
 11452 ;; Parameters:    Size  Location     Type
 11453 ;;  f1              4    0[COMMON] unsigned long 
 11454 ;; Auto vars:     Size  Location     Type
 11455 ;;		None
 11456 ;; Return value:  Size  Location     Type
 11457 ;;                  4    0[COMMON] unsigned long 
 11458 ;; Registers used:
 11459 ;;		wreg
 11460 ;; Tracked objects:
 11461 ;;		On entry : 0/0
 11462 ;;		On exit  : 0/0
 11463 ;;		Unchanged: 0/0
 11464 ;; Data sizes:     COMMON   BANK0   BANK1   BANK2   BANK3   BANK4   BANK5   BANK6   BANK7   BANK8   BANK9  BANK10  BANK1
      +1  BANK12  BANK13  BANK14  BANK15  BANK16  BANK17  BANK18  BANK19  BANK20  BANK21  BANK22  BANK23  BANK24  BANK25
 11465 ;;      Params:         4       0       0       0       0       0       0       0       0       0       0       0       
      +0       0       0       0       0       0       0       0       0       0       0       0       0       0       0
 11466 ;;      Locals:         0       0       0       0       0       0       0       0       0       0       0       0       
      +0       0       0       0       0       0       0       0       0       0       0       0       0       0       0
 11467 ;;      Temps:          0       0       0       0       0       0       0       0       0       0       0       0       
      +0       0       0       0       0       0       0       0       0       0       0       0       0       0       0
 11468 ;;      Totals:         4       0       0       0       0       0       0       0       0       0       0       0       
      +0       0       0       0       0       0       0       0       0       0       0       0       0       0       0
 11469 ;;Total ram usage:        4 bytes
 11470 ;; Hardware stack levels used: 1
 11471 ;; This function calls:
 11472 ;;		Nothing
 11473 ;; This function is called by:
 11474 ;;		_print_float
 11475 ;;		_strtof
 11476 ;; This function uses a non-reentrant model
 11477 ;;
 11478                           
 11479     26DB                     ___flneg:	
 11480                           ;psect for function ___flneg
 11481                           
 11482     26DB                     l3164:	
 11483                           ;incstack = 0
 11484                           ; Regs used in ___flneg: [wreg]
 11485                           
 11486     26DB  0873               	movf	___flneg@f1+3,w
 11487     26DC  0472               	iorwf	___flneg@f1+2,w
 11488     26DD  0471               	iorwf	___flneg@f1+1,w
 11489     26DE  0470               	iorwf	___flneg@f1,w
 11490     26DF  1903               	skipnz
 11491     26E0  2EE2               	goto	u4461
 11492     26E1  2EE3               	goto	u4460
 11493     26E2                     u4461:
 11494     26E2  2EE5               	goto	l3168
 11495     26E3                     u4460:
 11496     26E3                     l3166:
 11497     26E3  3080               	movlw	128
 11498     26E4  06F3               	xorwf	___flneg@f1+3,f
 11499     26E5                     l3168:
 11500     26E5                     l506:
 11501     26E5  0008               	return
 11502     26E6                     __end_of___flneg:
 11503                           
 11504                           	psect	text27
 11505     15C5                     __ptext27:	
 11506 ;; *************** function ___flmul *****************
 11507 ;; Defined at:
 11508 ;;		line 8 in file "C:\Program Files\Microchip\xc8\v2.46\pic\sources\c99\common\sprcmul.c"
 11509 ;; Parameters:    Size  Location     Type
 11510 ;;  b               4   24[BANK0 ] unsigned long 
 11511 ;;  a               4   28[BANK0 ] unsigned long 
 11512 ;; Auto vars:     Size  Location     Type
 11513 ;;  prod            4   44[BANK0 ] struct .
 11514 ;;  grs             4   38[BANK0 ] unsigned long 
 11515 ;;  temp            2   48[BANK0 ] struct .
 11516 ;;  bexp            1   43[BANK0 ] unsigned char 
 11517 ;;  aexp            1   42[BANK0 ] unsigned char 
 11518 ;;  sign            1   37[BANK0 ] unsigned char 
 11519 ;; Return value:  Size  Location     Type
 11520 ;;                  4   24[BANK0 ] unsigned char 
 11521 ;; Registers used:
 11522 ;;		wreg, status,2, status,0, pclath, cstack
 11523 ;; Tracked objects:
 11524 ;;		On entry : 0/0
 11525 ;;		On exit  : 0/0
 11526 ;;		Unchanged: 0/0
 11527 ;; Data sizes:     COMMON   BANK0   BANK1   BANK2   BANK3   BANK4   BANK5   BANK6   BANK7   BANK8   BANK9  BANK10  BANK1
      +1  BANK12  BANK13  BANK14  BANK15  BANK16  BANK17  BANK18  BANK19  BANK20  BANK21  BANK22  BANK23  BANK24  BANK25
 11528 ;;      Params:         0       8       0       0       0       0       0       0       0       0       0       0       
      +0       0       0       0       0       0       0       0       0       0       0       0       0       0       0
 11529 ;;      Locals:         0      13       0       0       0       0       0       0       0       0       0       0       
      +0       0       0       0       0       0       0       0       0       0       0       0       0       0       0
 11530 ;;      Temps:          0       5       0       0       0       0       0       0       0       0       0       0       
      +0       0       0       0       0       0       0       0       0       0       0       0       0       0       0
 11531 ;;      Totals:         0      26       0       0       0       0       0       0       0       0       0       0       
      +0       0       0       0       0       0       0       0       0       0       0       0       0       0       0
 11532 ;;Total ram usage:       26 bytes
 11533 ;; Hardware stack levels used: 1
 11534 ;; Hardware stack levels required when called: 1
 11535 ;; This function calls:
 11536 ;;		__Umul8_16
 11537 ;; This function is called by:
 11538 ;;		_ml_compute_kernel
 11539 ;;		_ml_predict
 11540 ;;		_print_float
 11541 ;;		_strtof
 11542 ;; This function uses a non-reentrant model
 11543 ;;
 11544                           
 11545     15C5                     ___flmul:	
 11546                           ;psect for function ___flmul
 11547                           
 11548     15C5                     l2948:	
 11549                           ;incstack = 0
 11550                           ; Regs used in ___flmul: [wreg+status,2+status,0+pclath+cstack]
 11551                           
 11552     15C5  0020               	movlb	0	; select bank0
 11553     15C6  083B               	movf	___flmul@b+3,w
 11554     15C7  3980               	andlw	128
 11555     15C8  00C5               	movwf	___flmul@sign
 11556     15C9                     l2950:
 11557     15C9  353B               	lslf	___flmul@b+3,w
 11558     15CA  00CB               	movwf	___flmul@bexp
 11559     15CB                     l2952:
 11560     15CB  1FBA               	btfss	___flmul@b+2,7
 11561     15CC  2DCE               	goto	u4051
 11562     15CD  2DCF               	goto	u4050
 11563     15CE                     u4051:
 11564     15CE  2DD0               	goto	l2956
 11565     15CF                     u4050:
 11566     15CF                     l2954:
 11567     15CF  144B               	bsf	___flmul@bexp,0
 11568     15D0                     l2956:
 11569     15D0  084B               	movf	___flmul@bexp,w
 11570     15D1  1903               	btfsc	3,2
 11571     15D2  2DD4               	goto	u4061
 11572     15D3  2DD5               	goto	u4060
 11573     15D4                     u4061:
 11574     15D4  2DE4               	goto	l2964
 11575     15D5                     u4060:
 11576     15D5                     l2958:
 11577     15D5  0A4B               	incf	___flmul@bexp,w
 11578     15D6  1D03               	btfss	3,2
 11579     15D7  2DD9               	goto	u4071
 11580     15D8  2DDA               	goto	u4070
 11581     15D9                     u4071:
 11582     15D9  2DE2               	goto	l2962
 11583     15DA                     u4070:
 11584     15DA                     l2960:
 11585     15DA  3000               	movlw	0
 11586     15DB  00BB               	movwf	___flmul@b+3
 11587     15DC  3000               	movlw	0
 11588     15DD  00BA               	movwf	___flmul@b+2
 11589     15DE  3000               	movlw	0
 11590     15DF  00B9               	movwf	___flmul@b+1
 11591     15E0  3000               	movlw	0
 11592     15E1  00B8               	movwf	___flmul@b
 11593     15E2                     l2962:
 11594     15E2  17BA               	bsf	___flmul@b+2,7
 11595     15E3  2DEC               	goto	l2966
 11596     15E4                     l2964:
 11597     15E4  3000               	movlw	0
 11598     15E5  00BB               	movwf	___flmul@b+3
 11599     15E6  3000               	movlw	0
 11600     15E7  00BA               	movwf	___flmul@b+2
 11601     15E8  3000               	movlw	0
 11602     15E9  00B9               	movwf	___flmul@b+1
 11603     15EA  3000               	movlw	0
 11604     15EB  00B8               	movwf	___flmul@b
 11605     15EC                     l2966:
 11606     15EC  083F               	movf	___flmul@a+3,w
 11607     15ED  3980               	andlw	128
 11608     15EE  00C0               	movwf	??___flmul
 11609     15EF  0840               	movf	??___flmul,w
 11610     15F0  06C5               	xorwf	___flmul@sign,f
 11611     15F1                     l2968:
 11612     15F1  353F               	lslf	___flmul@a+3,w
 11613     15F2  00CA               	movwf	___flmul@aexp
 11614     15F3                     l2970:
 11615     15F3  1FBE               	btfss	___flmul@a+2,7
 11616     15F4  2DF6               	goto	u4081
 11617     15F5  2DF7               	goto	u4080
 11618     15F6                     u4081:
 11619     15F6  2DF8               	goto	l2974
 11620     15F7                     u4080:
 11621     15F7                     l2972:
 11622     15F7  144A               	bsf	___flmul@aexp,0
 11623     15F8                     l2974:
 11624     15F8  084A               	movf	___flmul@aexp,w
 11625     15F9  1903               	btfsc	3,2
 11626     15FA  2DFC               	goto	u4091
 11627     15FB  2DFD               	goto	u4090
 11628     15FC                     u4091:
 11629     15FC  2E0C               	goto	l2982
 11630     15FD                     u4090:
 11631     15FD                     l2976:
 11632     15FD  0A4A               	incf	___flmul@aexp,w
 11633     15FE  1D03               	btfss	3,2
 11634     15FF  2E01               	goto	u4101
 11635     1600  2E02               	goto	u4100
 11636     1601                     u4101:
 11637     1601  2E0A               	goto	l2980
 11638     1602                     u4100:
 11639     1602                     l2978:
 11640     1602  3000               	movlw	0
 11641     1603  00BF               	movwf	___flmul@a+3
 11642     1604  3000               	movlw	0
 11643     1605  00BE               	movwf	___flmul@a+2
 11644     1606  3000               	movlw	0
 11645     1607  00BD               	movwf	___flmul@a+1
 11646     1608  3000               	movlw	0
 11647     1609  00BC               	movwf	___flmul@a
 11648     160A                     l2980:
 11649     160A  17BE               	bsf	___flmul@a+2,7
 11650     160B  2E14               	goto	l2984
 11651     160C                     l2982:
 11652     160C  3000               	movlw	0
 11653     160D  00BF               	movwf	___flmul@a+3
 11654     160E  3000               	movlw	0
 11655     160F  00BE               	movwf	___flmul@a+2
 11656     1610  3000               	movlw	0
 11657     1611  00BD               	movwf	___flmul@a+1
 11658     1612  3000               	movlw	0
 11659     1613  00BC               	movwf	___flmul@a
 11660     1614                     l2984:
 11661     1614  084A               	movf	___flmul@aexp,w
 11662     1615  1903               	btfsc	3,2
 11663     1616  2E18               	goto	u4111
 11664     1617  2E19               	goto	u4110
 11665     1618                     u4111:
 11666     1618  2E1E               	goto	l2988
 11667     1619                     u4110:
 11668     1619                     l2986:
 11669     1619  084B               	movf	___flmul@bexp,w
 11670     161A  1D03               	btfss	3,2
 11671     161B  2E1D               	goto	u4121
 11672     161C  2E1E               	goto	u4120
 11673     161D                     u4121:
 11674     161D  2E27               	goto	l2992
 11675     161E                     u4120:
 11676     161E                     l2988:
 11677     161E  3000               	movlw	0
 11678     161F  00BB               	movwf	?___flmul+3
 11679     1620  3000               	movlw	0
 11680     1621  00BA               	movwf	?___flmul+2
 11681     1622  3000               	movlw	0
 11682     1623  00B9               	movwf	?___flmul+1
 11683     1624  3000               	movlw	0
 11684     1625  00B8               	movwf	?___flmul
 11685     1626  2FFF               	goto	l713
 11686     1627                     l2992:
 11687     1627  0838               	movf	___flmul@b,w
 11688     1628  00F0               	movwf	__Umul8_16@multiplicand
 11689     1629  083E               	movf	___flmul@a+2,w
 11690     162A  31A7  27B4  3195   	fcall	__Umul8_16
 11691     162D  0871               	movf	?__Umul8_16+1,w
 11692     162E  0020               	movlb	0	; select bank0
 11693     162F  00D1               	movwf	___flmul@temp+1
 11694     1630  0870               	movf	?__Umul8_16,w
 11695     1631  00D0               	movwf	___flmul@temp
 11696     1632                     l2994:
 11697     1632  0850               	movf	___flmul@temp,w
 11698     1633  00C0               	movwf	??___flmul
 11699     1634  01C1               	clrf	??___flmul+1
 11700     1635  01C2               	clrf	??___flmul+2
 11701     1636  01C3               	clrf	??___flmul+3
 11702     1637  0843               	movf	??___flmul+3,w
 11703     1638  00C9               	movwf	___flmul@grs+3
 11704     1639  0842               	movf	??___flmul+2,w
 11705     163A  00C8               	movwf	___flmul@grs+2
 11706     163B  0841               	movf	??___flmul+1,w
 11707     163C  00C7               	movwf	___flmul@grs+1
 11708     163D  0840               	movf	??___flmul,w
 11709     163E  00C6               	movwf	___flmul@grs
 11710     163F                     l2996:
 11711     163F  0851               	movf	___flmul@temp+1,w
 11712     1640  00C0               	movwf	??___flmul
 11713     1641  01C1               	clrf	??___flmul+1
 11714     1642  01C2               	clrf	??___flmul+2
 11715     1643  01C3               	clrf	??___flmul+3
 11716     1644  0843               	movf	??___flmul+3,w
 11717     1645  00CF               	movwf	___flmul@prod+3
 11718     1646  0842               	movf	??___flmul+2,w
 11719     1647  00CE               	movwf	___flmul@prod+2
 11720     1648  0841               	movf	??___flmul+1,w
 11721     1649  00CD               	movwf	___flmul@prod+1
 11722     164A  0840               	movf	??___flmul,w
 11723     164B  00CC               	movwf	___flmul@prod
 11724     164C  0839               	movf	___flmul@b+1,w
 11725     164D  00F0               	movwf	__Umul8_16@multiplicand
 11726     164E  083D               	movf	___flmul@a+1,w
 11727     164F  31A7  27B4  3195   	fcall	__Umul8_16
 11728     1652  0871               	movf	?__Umul8_16+1,w
 11729     1653  0020               	movlb	0	; select bank0
 11730     1654  00D1               	movwf	___flmul@temp+1
 11731     1655  0870               	movf	?__Umul8_16,w
 11732     1656  00D0               	movwf	___flmul@temp
 11733     1657                     l2998:
 11734     1657  0850               	movf	___flmul@temp,w
 11735     1658  00C0               	movwf	??___flmul
 11736     1659  01C1               	clrf	??___flmul+1
 11737     165A  01C2               	clrf	??___flmul+2
 11738     165B  01C3               	clrf	??___flmul+3
 11739     165C  0840               	movf	??___flmul,w
 11740     165D  07C6               	addwf	___flmul@grs,f
 11741     165E  0841               	movf	??___flmul+1,w
 11742     165F  3DC7               	addwfc	___flmul@grs+1,f
 11743     1660  0842               	movf	??___flmul+2,w
 11744     1661  3DC8               	addwfc	___flmul@grs+2,f
 11745     1662  0843               	movf	??___flmul+3,w
 11746     1663  3DC9               	addwfc	___flmul@grs+3,f
 11747     1664                     l3000:
 11748     1664  0851               	movf	___flmul@temp+1,w
 11749     1665  00C0               	movwf	??___flmul
 11750     1666  01C1               	clrf	??___flmul+1
 11751     1667  01C2               	clrf	??___flmul+2
 11752     1668  01C3               	clrf	??___flmul+3
 11753     1669  0840               	movf	??___flmul,w
 11754     166A  07CC               	addwf	___flmul@prod,f
 11755     166B  0841               	movf	??___flmul+1,w
 11756     166C  3DCD               	addwfc	___flmul@prod+1,f
 11757     166D  0842               	movf	??___flmul+2,w
 11758     166E  3DCE               	addwfc	___flmul@prod+2,f
 11759     166F  0843               	movf	??___flmul+3,w
 11760     1670  3DCF               	addwfc	___flmul@prod+3,f
 11761     1671  083A               	movf	___flmul@b+2,w
 11762     1672  00F0               	movwf	__Umul8_16@multiplicand
 11763     1673  083C               	movf	___flmul@a,w
 11764     1674  31A7  27B4  3195   	fcall	__Umul8_16
 11765     1677  0871               	movf	?__Umul8_16+1,w
 11766     1678  0020               	movlb	0	; select bank0
 11767     1679  00D1               	movwf	___flmul@temp+1
 11768     167A  0870               	movf	?__Umul8_16,w
 11769     167B  00D0               	movwf	___flmul@temp
 11770     167C                     l3002:
 11771     167C  0850               	movf	___flmul@temp,w
 11772     167D  00C0               	movwf	??___flmul
 11773     167E  01C1               	clrf	??___flmul+1
 11774     167F  01C2               	clrf	??___flmul+2
 11775     1680  01C3               	clrf	??___flmul+3
 11776     1681  0840               	movf	??___flmul,w
 11777     1682  07C6               	addwf	___flmul@grs,f
 11778     1683  0841               	movf	??___flmul+1,w
 11779     1684  3DC7               	addwfc	___flmul@grs+1,f
 11780     1685  0842               	movf	??___flmul+2,w
 11781     1686  3DC8               	addwfc	___flmul@grs+2,f
 11782     1687  0843               	movf	??___flmul+3,w
 11783     1688  3DC9               	addwfc	___flmul@grs+3,f
 11784     1689                     l3004:
 11785     1689  0851               	movf	___flmul@temp+1,w
 11786     168A  00C0               	movwf	??___flmul
 11787     168B  01C1               	clrf	??___flmul+1
 11788     168C  01C2               	clrf	??___flmul+2
 11789     168D  01C3               	clrf	??___flmul+3
 11790     168E  0840               	movf	??___flmul,w
 11791     168F  07CC               	addwf	___flmul@prod,f
 11792     1690  0841               	movf	??___flmul+1,w
 11793     1691  3DCD               	addwfc	___flmul@prod+1,f
 11794     1692  0842               	movf	??___flmul+2,w
 11795     1693  3DCE               	addwfc	___flmul@prod+2,f
 11796     1694  0843               	movf	??___flmul+3,w
 11797     1695  3DCF               	addwfc	___flmul@prod+3,f
 11798     1696                     l3006:
 11799     1696  3008               	movlw	8
 11800     1697                     u4135:
 11801     1697  35C6               	lslf	___flmul@grs,f
 11802     1698  0DC7               	rlf	___flmul@grs+1,f
 11803     1699  0DC8               	rlf	___flmul@grs+2,f
 11804     169A  0DC9               	rlf	___flmul@grs+3,f
 11805     169B  0B89               	decfsz	9,f
 11806     169C  2E97               	goto	u4135
 11807     169D                     l3008:
 11808     169D  0839               	movf	___flmul@b+1,w
 11809     169E  00F0               	movwf	__Umul8_16@multiplicand
 11810     169F  083C               	movf	___flmul@a,w
 11811     16A0  31A7  27B4  3195   	fcall	__Umul8_16
 11812     16A3  0871               	movf	?__Umul8_16+1,w
 11813     16A4  0020               	movlb	0	; select bank0
 11814     16A5  00D1               	movwf	___flmul@temp+1
 11815     16A6  0870               	movf	?__Umul8_16,w
 11816     16A7  00D0               	movwf	___flmul@temp
 11817     16A8                     l3010:
 11818     16A8  0850               	movf	___flmul@temp,w
 11819     16A9  07C6               	addwf	___flmul@grs,f
 11820     16AA  0851               	movf	___flmul@temp+1,w
 11821     16AB  3DC7               	addwfc	___flmul@grs+1,f
 11822     16AC  3000               	movlw	0
 11823     16AD  3DC8               	addwfc	___flmul@grs+2,f
 11824     16AE  3DC9               	addwfc	___flmul@grs+3,f
 11825     16AF                     l3012:
 11826     16AF  0838               	movf	___flmul@b,w
 11827     16B0  00F0               	movwf	__Umul8_16@multiplicand
 11828     16B1  083D               	movf	___flmul@a+1,w
 11829     16B2  31A7  27B4  3195   	fcall	__Umul8_16
 11830     16B5  0871               	movf	?__Umul8_16+1,w
 11831     16B6  0020               	movlb	0	; select bank0
 11832     16B7  00D1               	movwf	___flmul@temp+1
 11833     16B8  0870               	movf	?__Umul8_16,w
 11834     16B9  00D0               	movwf	___flmul@temp
 11835     16BA                     l3014:
 11836     16BA  0850               	movf	___flmul@temp,w
 11837     16BB  07C6               	addwf	___flmul@grs,f
 11838     16BC  0851               	movf	___flmul@temp+1,w
 11839     16BD  3DC7               	addwfc	___flmul@grs+1,f
 11840     16BE  3000               	movlw	0
 11841     16BF  3DC8               	addwfc	___flmul@grs+2,f
 11842     16C0  3DC9               	addwfc	___flmul@grs+3,f
 11843     16C1                     l3016:
 11844     16C1  3008               	movlw	8
 11845     16C2                     u4145:
 11846     16C2  35C6               	lslf	___flmul@grs,f
 11847     16C3  0DC7               	rlf	___flmul@grs+1,f
 11848     16C4  0DC8               	rlf	___flmul@grs+2,f
 11849     16C5  0DC9               	rlf	___flmul@grs+3,f
 11850     16C6  0B89               	decfsz	9,f
 11851     16C7  2EC2               	goto	u4145
 11852     16C8  0838               	movf	___flmul@b,w
 11853     16C9  00F0               	movwf	__Umul8_16@multiplicand
 11854     16CA  083C               	movf	___flmul@a,w
 11855     16CB  31A7  27B4  3195   	fcall	__Umul8_16
 11856     16CE  0871               	movf	?__Umul8_16+1,w
 11857     16CF  0020               	movlb	0	; select bank0
 11858     16D0  00D1               	movwf	___flmul@temp+1
 11859     16D1  0870               	movf	?__Umul8_16,w
 11860     16D2  00D0               	movwf	___flmul@temp
 11861     16D3                     l3018:
 11862     16D3  0850               	movf	___flmul@temp,w
 11863     16D4  07C6               	addwf	___flmul@grs,f
 11864     16D5  0851               	movf	___flmul@temp+1,w
 11865     16D6  3DC7               	addwfc	___flmul@grs+1,f
 11866     16D7  3000               	movlw	0
 11867     16D8  3DC8               	addwfc	___flmul@grs+2,f
 11868     16D9  3DC9               	addwfc	___flmul@grs+3,f
 11869     16DA                     l3020:
 11870     16DA  0839               	movf	___flmul@b+1,w
 11871     16DB  00F0               	movwf	__Umul8_16@multiplicand
 11872     16DC  083E               	movf	___flmul@a+2,w
 11873     16DD  31A7  27B4  3195   	fcall	__Umul8_16
 11874     16E0  0871               	movf	?__Umul8_16+1,w
 11875     16E1  0020               	movlb	0	; select bank0
 11876     16E2  00D1               	movwf	___flmul@temp+1
 11877     16E3  0870               	movf	?__Umul8_16,w
 11878     16E4  00D0               	movwf	___flmul@temp
 11879     16E5  0850               	movf	___flmul@temp,w
 11880     16E6  07CC               	addwf	___flmul@prod,f
 11881     16E7  0851               	movf	___flmul@temp+1,w
 11882     16E8  3DCD               	addwfc	___flmul@prod+1,f
 11883     16E9  3000               	movlw	0
 11884     16EA  3DCE               	addwfc	___flmul@prod+2,f
 11885     16EB  3DCF               	addwfc	___flmul@prod+3,f
 11886     16EC                     l3022:
 11887     16EC  083A               	movf	___flmul@b+2,w
 11888     16ED  00F0               	movwf	__Umul8_16@multiplicand
 11889     16EE  083D               	movf	___flmul@a+1,w
 11890     16EF  31A7  27B4  3195   	fcall	__Umul8_16
 11891     16F2  0871               	movf	?__Umul8_16+1,w
 11892     16F3  0020               	movlb	0	; select bank0
 11893     16F4  00D1               	movwf	___flmul@temp+1
 11894     16F5  0870               	movf	?__Umul8_16,w
 11895     16F6  00D0               	movwf	___flmul@temp
 11896     16F7                     l3024:
 11897     16F7  0850               	movf	___flmul@temp,w
 11898     16F8  07CC               	addwf	___flmul@prod,f
 11899     16F9  0851               	movf	___flmul@temp+1,w
 11900     16FA  3DCD               	addwfc	___flmul@prod+1,f
 11901     16FB  3000               	movlw	0
 11902     16FC  3DCE               	addwfc	___flmul@prod+2,f
 11903     16FD  3DCF               	addwfc	___flmul@prod+3,f
 11904     16FE  083A               	movf	___flmul@b+2,w
 11905     16FF  00F0               	movwf	__Umul8_16@multiplicand
 11906     1700  083E               	movf	___flmul@a+2,w
 11907     1701  31A7  27B4  3195   	fcall	__Umul8_16
 11908     1704  0871               	movf	?__Umul8_16+1,w
 11909     1705  0020               	movlb	0	; select bank0
 11910     1706  00D1               	movwf	___flmul@temp+1
 11911     1707  0870               	movf	?__Umul8_16,w
 11912     1708  00D0               	movwf	___flmul@temp
 11913     1709                     l3026:
 11914     1709  0850               	movf	___flmul@temp,w
 11915     170A  00C0               	movwf	??___flmul
 11916     170B  0851               	movf	___flmul@temp+1,w
 11917     170C  00C1               	movwf	??___flmul+1
 11918     170D  01C2               	clrf	??___flmul+2
 11919     170E  01C3               	clrf	??___flmul+3
 11920     170F  3008               	movlw	8
 11921     1710                     u4155:
 11922     1710  35C0               	lslf	??___flmul,f
 11923     1711  0DC1               	rlf	??___flmul+1,f
 11924     1712  0DC2               	rlf	??___flmul+2,f
 11925     1713  0DC3               	rlf	??___flmul+3,f
 11926     1714                     u4150:
 11927     1714  0B89               	decfsz	9,f
 11928     1715  2F10               	goto	u4155
 11929     1716  0840               	movf	??___flmul,w
 11930     1717  07CC               	addwf	___flmul@prod,f
 11931     1718  0841               	movf	??___flmul+1,w
 11932     1719  3DCD               	addwfc	___flmul@prod+1,f
 11933     171A  0842               	movf	??___flmul+2,w
 11934     171B  3DCE               	addwfc	___flmul@prod+2,f
 11935     171C  0843               	movf	??___flmul+3,w
 11936     171D  3DCF               	addwfc	___flmul@prod+3,f
 11937     171E                     l3028:
 11938     171E  0846               	movf	___flmul@grs,w
 11939     171F  00C0               	movwf	??___flmul
 11940     1720  0847               	movf	___flmul@grs+1,w
 11941     1721  00C1               	movwf	??___flmul+1
 11942     1722  0848               	movf	___flmul@grs+2,w
 11943     1723  00C2               	movwf	??___flmul+2
 11944     1724  0849               	movf	___flmul@grs+3,w
 11945     1725  00C3               	movwf	??___flmul+3
 11946     1726  3018               	movlw	24
 11947     1727                     u4165:
 11948     1727  36C3               	lsrf	??___flmul+3,f
 11949     1728  0CC2               	rrf	??___flmul+2,f
 11950     1729  0CC1               	rrf	??___flmul+1,f
 11951     172A  0CC0               	rrf	??___flmul,f
 11952     172B                     u4160:
 11953     172B  0B89               	decfsz	9,f
 11954     172C  2F27               	goto	u4165
 11955     172D  0840               	movf	??___flmul,w
 11956     172E  07CC               	addwf	___flmul@prod,f
 11957     172F  0841               	movf	??___flmul+1,w
 11958     1730  3DCD               	addwfc	___flmul@prod+1,f
 11959     1731  0842               	movf	??___flmul+2,w
 11960     1732  3DCE               	addwfc	___flmul@prod+2,f
 11961     1733  0843               	movf	??___flmul+3,w
 11962     1734  3DCF               	addwfc	___flmul@prod+3,f
 11963     1735                     l3030:
 11964     1735  3008               	movlw	8
 11965     1736                     u4175:
 11966     1736  35C6               	lslf	___flmul@grs,f
 11967     1737  0DC7               	rlf	___flmul@grs+1,f
 11968     1738  0DC8               	rlf	___flmul@grs+2,f
 11969     1739  0DC9               	rlf	___flmul@grs+3,f
 11970     173A  0B89               	decfsz	9,f
 11971     173B  2F36               	goto	u4175
 11972     173C                     l3032:
 11973     173C  084B               	movf	___flmul@bexp,w
 11974     173D  074A               	addwf	___flmul@aexp,w
 11975     173E  00C0               	movwf	??___flmul
 11976     173F  01C1               	clrf	??___flmul+1
 11977     1740  0DC1               	rlf	??___flmul+1,f
 11978     1741  0840               	movf	??___flmul,w
 11979     1742  3E82               	addlw	130
 11980     1743  00D0               	movwf	___flmul@temp
 11981     1744  30FF               	movlw	255
 11982     1745  3D41               	addwfc	??___flmul+1,w
 11983     1746  00D1               	movwf	___flmul@temp+1
 11984     1747  2F5F               	goto	l3044
 11985     1748                     l3034:
 11986     1748  3001               	movlw	1
 11987     1749                     u4185:
 11988     1749  35CC               	lslf	___flmul@prod,f
 11989     174A  0DCD               	rlf	___flmul@prod+1,f
 11990     174B  0DCE               	rlf	___flmul@prod+2,f
 11991     174C  0DCF               	rlf	___flmul@prod+3,f
 11992     174D  0B89               	decfsz	9,f
 11993     174E  2F49               	goto	u4185
 11994     174F                     l3036:
 11995     174F  1FC9               	btfss	___flmul@grs+3,7
 11996     1750  2F52               	goto	u4191
 11997     1751  2F53               	goto	u4190
 11998     1752                     u4191:
 11999     1752  2F54               	goto	l3040
 12000     1753                     u4190:
 12001     1753                     l3038:
 12002     1753  144C               	bsf	___flmul@prod,0
 12003     1754                     l3040:
 12004     1754  3001               	movlw	1
 12005     1755                     u4205:
 12006     1755  35C6               	lslf	___flmul@grs,f
 12007     1756  0DC7               	rlf	___flmul@grs+1,f
 12008     1757  0DC8               	rlf	___flmul@grs+2,f
 12009     1758  0DC9               	rlf	___flmul@grs+3,f
 12010     1759  0B89               	decfsz	9,f
 12011     175A  2F55               	goto	u4205
 12012     175B                     l3042:
 12013     175B  30FF               	movlw	255
 12014     175C  07D0               	addwf	___flmul@temp,f
 12015     175D  30FF               	movlw	255
 12016     175E  3DD1               	addwfc	___flmul@temp+1,f
 12017     175F                     l3044:
 12018     175F  1FCE               	btfss	___flmul@prod+2,7
 12019     1760  2F62               	goto	u4211
 12020     1761  2F63               	goto	u4210
 12021     1762                     u4211:
 12022     1762  2F48               	goto	l3034
 12023     1763                     u4210:
 12024     1763                     l3046:
 12025     1763  01CA               	clrf	___flmul@aexp
 12026     1764                     l3048:
 12027     1764  1FC9               	btfss	___flmul@grs+3,7
 12028     1765  2F67               	goto	u4221
 12029     1766  2F68               	goto	u4220
 12030     1767                     u4221:
 12031     1767  2F84               	goto	l3056
 12032     1768                     u4220:
 12033     1768                     l3050:
 12034     1768  30FF               	movlw	255
 12035     1769  0546               	andwf	___flmul@grs,w
 12036     176A  00C0               	movwf	??___flmul
 12037     176B  30FF               	movlw	255
 12038     176C  0547               	andwf	___flmul@grs+1,w
 12039     176D  00C1               	movwf	??___flmul+1
 12040     176E  30FF               	movlw	255
 12041     176F  0548               	andwf	___flmul@grs+2,w
 12042     1770  00C2               	movwf	??___flmul+2
 12043     1771  307F               	movlw	127
 12044     1772  0549               	andwf	___flmul@grs+3,w
 12045     1773  00C3               	movwf	??___flmul+3
 12046     1774  0843               	movf	??___flmul+3,w
 12047     1775  0442               	iorwf	??___flmul+2,w
 12048     1776  0441               	iorwf	??___flmul+1,w
 12049     1777  0440               	iorwf	??___flmul,w
 12050     1778  1903               	skipnz
 12051     1779  2F7B               	goto	u4231
 12052     177A  2F7C               	goto	u4230
 12053     177B                     u4231:
 12054     177B  2F7F               	goto	l719
 12055     177C                     u4230:
 12056     177C                     l3052:
 12057     177C  01CA               	clrf	___flmul@aexp
 12058     177D  0ACA               	incf	___flmul@aexp,f
 12059     177E  2F84               	goto	l3056
 12060     177F                     l719:
 12061     177F  1C4C               	btfss	___flmul@prod,0
 12062     1780  2F82               	goto	u4241
 12063     1781  2F83               	goto	u4240
 12064     1782                     u4241:
 12065     1782  2F84               	goto	l3056
 12066     1783                     u4240:
 12067     1783  2F7C               	goto	l3052
 12068     1784                     l3056:
 12069     1784  084A               	movf	___flmul@aexp,w
 12070     1785  1903               	btfsc	3,2
 12071     1786  2F88               	goto	u4251
 12072     1787  2F89               	goto	u4250
 12073     1788                     u4251:
 12074     1788  2FB1               	goto	l3066
 12075     1789                     u4250:
 12076     1789                     l3058:
 12077     1789  3001               	movlw	1
 12078     178A  07CC               	addwf	___flmul@prod,f
 12079     178B  3000               	movlw	0
 12080     178C  3DCD               	addwfc	___flmul@prod+1,f
 12081     178D  3000               	movlw	0
 12082     178E  3DCE               	addwfc	___flmul@prod+2,f
 12083     178F  3000               	movlw	0
 12084     1790  3DCF               	addwfc	___flmul@prod+3,f
 12085     1791                     l3060:
 12086     1791  1C4F               	btfss	___flmul@prod+3,0
 12087     1792  2F94               	goto	u4261
 12088     1793  2F95               	goto	u4260
 12089     1794                     u4261:
 12090     1794  2FB1               	goto	l3066
 12091     1795                     u4260:
 12092     1795                     l3062:
 12093     1795  084C               	movf	___flmul@prod,w
 12094     1796  00C0               	movwf	??___flmul
 12095     1797  084D               	movf	___flmul@prod+1,w
 12096     1798  00C1               	movwf	??___flmul+1
 12097     1799  084E               	movf	___flmul@prod+2,w
 12098     179A  00C2               	movwf	??___flmul+2
 12099     179B  084F               	movf	___flmul@prod+3,w
 12100     179C  00C3               	movwf	??___flmul+3
 12101     179D  3001               	movlw	1
 12102     179E  00C4               	movwf	??___flmul+4
 12103     179F                     u4275:
 12104     179F  37C3               	asrf	??___flmul+3,f
 12105     17A0  0CC2               	rrf	??___flmul+2,f
 12106     17A1  0CC1               	rrf	??___flmul+1,f
 12107     17A2  0CC0               	rrf	??___flmul,f
 12108     17A3                     u4270:
 12109     17A3  0BC4               	decfsz	??___flmul+4,f
 12110     17A4  2F9F               	goto	u4275
 12111     17A5  0843               	movf	??___flmul+3,w
 12112     17A6  00CF               	movwf	___flmul@prod+3
 12113     17A7  0842               	movf	??___flmul+2,w
 12114     17A8  00CE               	movwf	___flmul@prod+2
 12115     17A9  0841               	movf	??___flmul+1,w
 12116     17AA  00CD               	movwf	___flmul@prod+1
 12117     17AB  0840               	movf	??___flmul,w
 12118     17AC  00CC               	movwf	___flmul@prod
 12119     17AD                     l3064:
 12120     17AD  3001               	movlw	1
 12121     17AE  07D0               	addwf	___flmul@temp,f
 12122     17AF  3000               	movlw	0
 12123     17B0  3DD1               	addwfc	___flmul@temp+1,f
 12124     17B1                     l3066:
 12125     17B1  0851               	movf	___flmul@temp+1,w
 12126     17B2  3A80               	xorlw	128
 12127     17B3  00C0               	movwf	??___flmul
 12128     17B4  3080               	movlw	128
 12129     17B5  0240               	subwf	??___flmul,w
 12130     17B6  1D03               	skipz
 12131     17B7  2FBA               	goto	u4285
 12132     17B8  30FF               	movlw	255
 12133     17B9  0250               	subwf	___flmul@temp,w
 12134     17BA                     u4285:
 12135     17BA  1C03               	skipc
 12136     17BB  2FBD               	goto	u4281
 12137     17BC  2FBE               	goto	u4280
 12138     17BD                     u4281:
 12139     17BD  2FC8               	goto	l3070
 12140     17BE                     u4280:
 12141     17BE                     l3068:
 12142     17BE  307F               	movlw	127
 12143     17BF  0020               	movlb	0	; select bank0
 12144     17C0  00CF               	movwf	___flmul@prod+3
 12145     17C1  3080               	movlw	128
 12146     17C2  00CE               	movwf	___flmul@prod+2
 12147     17C3  3000               	movlw	0
 12148     17C4  00CD               	movwf	___flmul@prod+1
 12149     17C5  3000               	movlw	0
 12150     17C6  00CC               	movwf	___flmul@prod
 12151     17C7  2FF3               	goto	l725
 12152     17C8                     l3070:
 12153     17C8  0020               	movlb	0	; select bank0
 12154     17C9  0851               	movf	___flmul@temp+1,w
 12155     17CA  3A80               	xorlw	128
 12156     17CB  00C0               	movwf	??___flmul
 12157     17CC  3080               	movlw	128
 12158     17CD  0240               	subwf	??___flmul,w
 12159     17CE  1D03               	skipz
 12160     17CF  2FD2               	goto	u4295
 12161     17D0  3001               	movlw	1
 12162     17D1  0250               	subwf	___flmul@temp,w
 12163     17D2                     u4295:
 12164     17D2  1803               	skipnc
 12165     17D3  2FD5               	goto	u4291
 12166     17D4  2FD6               	goto	u4290
 12167     17D5                     u4291:
 12168     17D5  2FE1               	goto	l3076
 12169     17D6                     u4290:
 12170     17D6                     l3072:
 12171     17D6  3000               	movlw	0
 12172     17D7  0020               	movlb	0	; select bank0
 12173     17D8  00CF               	movwf	___flmul@prod+3
 12174     17D9  3000               	movlw	0
 12175     17DA  00CE               	movwf	___flmul@prod+2
 12176     17DB  3000               	movlw	0
 12177     17DC  00CD               	movwf	___flmul@prod+1
 12178     17DD  3000               	movlw	0
 12179     17DE  00CC               	movwf	___flmul@prod
 12180     17DF                     l3074:
 12181     17DF  01C5               	clrf	___flmul@sign
 12182     17E0  2FF3               	goto	l725
 12183     17E1                     l3076:
 12184     17E1  0020               	movlb	0	; select bank0
 12185     17E2  0850               	movf	___flmul@temp,w
 12186     17E3  00CB               	movwf	___flmul@bexp
 12187     17E4  30FF               	movlw	255
 12188     17E5  05CC               	andwf	___flmul@prod,f
 12189     17E6  30FF               	movlw	255
 12190     17E7  05CD               	andwf	___flmul@prod+1,f
 12191     17E8  307F               	movlw	127
 12192     17E9  05CE               	andwf	___flmul@prod+2,f
 12193     17EA  3000               	movlw	0
 12194     17EB  05CF               	andwf	___flmul@prod+3,f
 12195     17EC                     l3078:
 12196     17EC  1C4B               	btfss	___flmul@bexp,0
 12197     17ED  2FEF               	goto	u4301
 12198     17EE  2FF0               	goto	u4300
 12199     17EF                     u4301:
 12200     17EF  2FF1               	goto	l3082
 12201     17F0                     u4300:
 12202     17F0                     l3080:
 12203     17F0  17CE               	bsf	___flmul@prod+2,7
 12204     17F1                     l3082:
 12205     17F1  364B               	lsrf	___flmul@bexp,w
 12206     17F2  00CF               	movwf	___flmul@prod+3
 12207     17F3                     l725:
 12208     17F3  0845               	movf	___flmul@sign,w
 12209     17F4  00C0               	movwf	??___flmul
 12210     17F5  0840               	movf	??___flmul,w
 12211     17F6  04CF               	iorwf	___flmul@prod+3,f
 12212     17F7                     l3084:
 12213     17F7  084F               	movf	___flmul@prod+3,w
 12214     17F8  00BB               	movwf	?___flmul+3
 12215     17F9  084E               	movf	___flmul@prod+2,w
 12216     17FA  00BA               	movwf	?___flmul+2
 12217     17FB  084D               	movf	___flmul@prod+1,w
 12218     17FC  00B9               	movwf	?___flmul+1
 12219     17FD  084C               	movf	___flmul@prod,w
 12220     17FE  00B8               	movwf	?___flmul
 12221     17FF                     l713:
 12222     17FF  0008               	return
 12223     1800                     __end_of___flmul:
 12224                           
 12225                           	psect	text28
 12226     27B4                     __ptext28:	
 12227 ;; *************** function __Umul8_16 *****************
 12228 ;; Defined at:
 12229 ;;		line 4 in file "C:\Program Files\Microchip\xc8\v2.46\pic\sources\c99\common\Umul8_16.c"
 12230 ;; Parameters:    Size  Location     Type
 12231 ;;  multiplier      1    wreg     unsigned char 
 12232 ;;  multiplicand    1    0[COMMON] unsigned char 
 12233 ;; Auto vars:     Size  Location     Type
 12234 ;;  multiplier      1    8[COMMON] unsigned char 
 12235 ;;  word_mpld       2    6[COMMON] unsigned short 
 12236 ;;  product         2    4[COMMON] unsigned short 
 12237 ;; Return value:  Size  Location     Type
 12238 ;;                  2    0[COMMON] unsigned int 
 12239 ;; Registers used:
 12240 ;;		wreg, status,2, status,0
 12241 ;; Tracked objects:
 12242 ;;		On entry : 0/0
 12243 ;;		On exit  : 0/0
 12244 ;;		Unchanged: 0/0
 12245 ;; Data sizes:     COMMON   BANK0   BANK1   BANK2   BANK3   BANK4   BANK5   BANK6   BANK7   BANK8   BANK9  BANK10  BANK1
      +1  BANK12  BANK13  BANK14  BANK15  BANK16  BANK17  BANK18  BANK19  BANK20  BANK21  BANK22  BANK23  BANK24  BANK25
 12246 ;;      Params:         2       0       0       0       0       0       0       0       0       0       0       0       
      +0       0       0       0       0       0       0       0       0       0       0       0       0       0       0
 12247 ;;      Locals:         5       0       0       0       0       0       0       0       0       0       0       0       
      +0       0       0       0       0       0       0       0       0       0       0       0       0       0       0
 12248 ;;      Temps:          2       0       0       0       0       0       0       0       0       0       0       0       
      +0       0       0       0       0       0       0       0       0       0       0       0       0       0       0
 12249 ;;      Totals:         9       0       0       0       0       0       0       0       0       0       0       0       
      +0       0       0       0       0       0       0       0       0       0       0       0       0       0       0
 12250 ;;Total ram usage:        9 bytes
 12251 ;; Hardware stack levels used: 1
 12252 ;; This function calls:
 12253 ;;		Nothing
 12254 ;; This function is called by:
 12255 ;;		___flmul
 12256 ;; This function uses a non-reentrant model
 12257 ;;
 12258                           
 12259     27B4                     __Umul8_16:	
 12260                           ;psect for function __Umul8_16
 12261                           
 12262                           
 12263                           ;incstack = 0
 12264                           ; Regs used in __Umul8_16: [wreg+status,2+status,0]
 12265                           ;__Umul8_16@multiplier stored from wreg
 12266     27B4  00F8               	movwf	__Umul8_16@multiplier
 12267     27B5                     l2718:
 12268     27B5  01F4               	clrf	__Umul8_16@product
 12269     27B6  01F5               	clrf	__Umul8_16@product+1
 12270     27B7                     l2720:
 12271     27B7  0870               	movf	__Umul8_16@multiplicand,w
 12272     27B8  00F2               	movwf	??__Umul8_16
 12273     27B9  01F3               	clrf	??__Umul8_16+1
 12274     27BA  0872               	movf	??__Umul8_16,w
 12275     27BB  00F6               	movwf	__Umul8_16@word_mpld
 12276     27BC  0873               	movf	??__Umul8_16+1,w
 12277     27BD  00F7               	movwf	__Umul8_16@word_mpld+1
 12278     27BE                     l2722:
 12279     27BE  1C78               	btfss	__Umul8_16@multiplier,0
 12280     27BF  2FC1               	goto	u3551
 12281     27C0  2FC2               	goto	u3550
 12282     27C1                     u3551:
 12283     27C1  2FC6               	goto	l732
 12284     27C2                     u3550:
 12285     27C2                     l2724:
 12286     27C2  0876               	movf	__Umul8_16@word_mpld,w
 12287     27C3  07F4               	addwf	__Umul8_16@product,f
 12288     27C4  0877               	movf	__Umul8_16@word_mpld+1,w
 12289     27C5  3DF5               	addwfc	__Umul8_16@product+1,f
 12290     27C6                     l732:
 12291     27C6  3001               	movlw	1
 12292     27C7                     u3565:
 12293     27C7  35F6               	lslf	__Umul8_16@word_mpld,f
 12294     27C8  0DF7               	rlf	__Umul8_16@word_mpld+1,f
 12295     27C9  0B89               	decfsz	9,f
 12296     27CA  2FC7               	goto	u3565
 12297     27CB  1003               	clrc
 12298     27CC  0CF8               	rrf	__Umul8_16@multiplier,f
 12299     27CD                     l2726:
 12300     27CD  0878               	movf	__Umul8_16@multiplier,w
 12301     27CE  1D03               	btfss	3,2
 12302     27CF  2FD1               	goto	u3571
 12303     27D0  2FD2               	goto	u3570
 12304     27D1                     u3571:
 12305     27D1  2FBE               	goto	l2722
 12306     27D2                     u3570:
 12307     27D2                     l2728:
 12308     27D2  0875               	movf	__Umul8_16@product+1,w
 12309     27D3  00F1               	movwf	?__Umul8_16+1
 12310     27D4  0874               	movf	__Umul8_16@product,w
 12311     27D5  00F0               	movwf	?__Umul8_16
 12312     27D6                     l734:
 12313     27D6  0008               	return
 12314     27D7                     __end_of__Umul8_16:
 12315                           
 12316                           	psect	text29
 12317     1D16                     __ptext29:	
 12318 ;; *************** function ___flge *****************
 12319 ;; Defined at:
 12320 ;;		line 4 in file "C:\Program Files\Microchip\xc8\v2.46\pic\sources\c99\common\flge.c"
 12321 ;; Parameters:    Size  Location     Type
 12322 ;;  ff1             4    0[COMMON] unsigned int 
 12323 ;;  ff2             4    4[COMMON] unsigned int 
 12324 ;; Auto vars:     Size  Location     Type
 12325 ;;		None
 12326 ;; Return value:  Size  Location     Type
 12327 ;;		None               void
 12328 ;; Registers used:
 12329 ;;		wreg, status,2, status,0
 12330 ;; Tracked objects:
 12331 ;;		On entry : 0/0
 12332 ;;		On exit  : 0/0
 12333 ;;		Unchanged: 0/0
 12334 ;; Data sizes:     COMMON   BANK0   BANK1   BANK2   BANK3   BANK4   BANK5   BANK6   BANK7   BANK8   BANK9  BANK10  BANK1
      +1  BANK12  BANK13  BANK14  BANK15  BANK16  BANK17  BANK18  BANK19  BANK20  BANK21  BANK22  BANK23  BANK24  BANK25
 12335 ;;      Params:         8       0       0       0       0       0       0       0       0       0       0       0       
      +0       0       0       0       0       0       0       0       0       0       0       0       0       0       0
 12336 ;;      Locals:         0       0       0       0       0       0       0       0       0       0       0       0       
      +0       0       0       0       0       0       0       0       0       0       0       0       0       0       0
 12337 ;;      Temps:          4       0       0       0       0       0       0       0       0       0       0       0       
      +0       0       0       0       0       0       0       0       0       0       0       0       0       0       0
 12338 ;;      Totals:        12       0       0       0       0       0       0       0       0       0       0       0       
      +0       0       0       0       0       0       0       0       0       0       0       0       0       0       0
 12339 ;;Total ram usage:       12 bytes
 12340 ;; Hardware stack levels used: 1
 12341 ;; This function calls:
 12342 ;;		Nothing
 12343 ;; This function is called by:
 12344 ;;		_ml_predict
 12345 ;;		_print_float
 12346 ;;		_strtof
 12347 ;; This function uses a non-reentrant model
 12348 ;;
 12349                           
 12350     1D16                     ___flge:	
 12351                           ;psect for function ___flge
 12352                           
 12353     1D16                     l3144:	
 12354                           ;incstack = 0
 12355                           ; Regs used in ___flge: [wreg+status,2+status,0]
 12356                           
 12357     1D16  3000               	movlw	0
 12358     1D17  0570               	andwf	___flge@ff1,w
 12359     1D18  00F8               	movwf	??___flge
 12360     1D19  3000               	movlw	0
 12361     1D1A  0571               	andwf	___flge@ff1+1,w
 12362     1D1B  00F9               	movwf	??___flge+1
 12363     1D1C  3080               	movlw	128
 12364     1D1D  0572               	andwf	___flge@ff1+2,w
 12365     1D1E  00FA               	movwf	??___flge+2
 12366     1D1F  307F               	movlw	127
 12367     1D20  0573               	andwf	___flge@ff1+3,w
 12368     1D21  00FB               	movwf	??___flge+3
 12369     1D22  087B               	movf	??___flge+3,w
 12370     1D23  047A               	iorwf	??___flge+2,w
 12371     1D24  0479               	iorwf	??___flge+1,w
 12372     1D25  0478               	iorwf	??___flge,w
 12373     1D26  1D03               	skipz
 12374     1D27  2D29               	goto	u4411
 12375     1D28  2D2A               	goto	u4410
 12376     1D29                     u4411:
 12377     1D29  2D32               	goto	l494
 12378     1D2A                     u4410:
 12379     1D2A                     l3146:
 12380     1D2A  3000               	movlw	0
 12381     1D2B  00F3               	movwf	___flge@ff1+3
 12382     1D2C  3000               	movlw	0
 12383     1D2D  00F2               	movwf	___flge@ff1+2
 12384     1D2E  3000               	movlw	0
 12385     1D2F  00F1               	movwf	___flge@ff1+1
 12386     1D30  3000               	movlw	0
 12387     1D31  00F0               	movwf	___flge@ff1
 12388     1D32                     l494:
 12389     1D32  3000               	movlw	0
 12390     1D33  0574               	andwf	___flge@ff2,w
 12391     1D34  00F8               	movwf	??___flge
 12392     1D35  3000               	movlw	0
 12393     1D36  0575               	andwf	___flge@ff2+1,w
 12394     1D37  00F9               	movwf	??___flge+1
 12395     1D38  3080               	movlw	128
 12396     1D39  0576               	andwf	___flge@ff2+2,w
 12397     1D3A  00FA               	movwf	??___flge+2
 12398     1D3B  307F               	movlw	127
 12399     1D3C  0577               	andwf	___flge@ff2+3,w
 12400     1D3D  00FB               	movwf	??___flge+3
 12401     1D3E  087B               	movf	??___flge+3,w
 12402     1D3F  047A               	iorwf	??___flge+2,w
 12403     1D40  0479               	iorwf	??___flge+1,w
 12404     1D41  0478               	iorwf	??___flge,w
 12405     1D42  1D03               	skipz
 12406     1D43  2D45               	goto	u4421
 12407     1D44  2D46               	goto	u4420
 12408     1D45                     u4421:
 12409     1D45  2D4E               	goto	l3150
 12410     1D46                     u4420:
 12411     1D46                     l3148:
 12412     1D46  3000               	movlw	0
 12413     1D47  00F7               	movwf	___flge@ff2+3
 12414     1D48  3000               	movlw	0
 12415     1D49  00F6               	movwf	___flge@ff2+2
 12416     1D4A  3000               	movlw	0
 12417     1D4B  00F5               	movwf	___flge@ff2+1
 12418     1D4C  3000               	movlw	0
 12419     1D4D  00F4               	movwf	___flge@ff2
 12420     1D4E                     l3150:
 12421     1D4E  1FF3               	btfss	___flge@ff1+3,7
 12422     1D4F  2D51               	goto	u4431
 12423     1D50  2D52               	goto	u4430
 12424     1D51                     u4431:
 12425     1D51  2D6A               	goto	l3154
 12426     1D52                     u4430:
 12427     1D52                     l3152:
 12428     1D52  3000               	movlw	0
 12429     1D53  00F8               	movwf	??___flge
 12430     1D54  3000               	movlw	0
 12431     1D55  00F9               	movwf	??___flge+1
 12432     1D56  3000               	movlw	0
 12433     1D57  00FA               	movwf	??___flge+2
 12434     1D58  3080               	movlw	128
 12435     1D59  00FB               	movwf	??___flge+3
 12436     1D5A  0870               	movf	___flge@ff1,w
 12437     1D5B  02F8               	subwf	??___flge,f
 12438     1D5C  0871               	movf	___flge@ff1+1,w
 12439     1D5D  3BF9               	subwfb	??___flge+1,f
 12440     1D5E  0872               	movf	___flge@ff1+2,w
 12441     1D5F  3BFA               	subwfb	??___flge+2,f
 12442     1D60  0873               	movf	___flge@ff1+3,w
 12443     1D61  3BFB               	subwfb	??___flge+3,f
 12444     1D62  087B               	movf	??___flge+3,w
 12445     1D63  00F3               	movwf	___flge@ff1+3
 12446     1D64  087A               	movf	??___flge+2,w
 12447     1D65  00F2               	movwf	___flge@ff1+2
 12448     1D66  0879               	movf	??___flge+1,w
 12449     1D67  00F1               	movwf	___flge@ff1+1
 12450     1D68  0878               	movf	??___flge,w
 12451     1D69  00F0               	movwf	___flge@ff1
 12452     1D6A                     l3154:
 12453     1D6A  1FF7               	btfss	___flge@ff2+3,7
 12454     1D6B  2D6D               	goto	u4441
 12455     1D6C  2D6E               	goto	u4440
 12456     1D6D                     u4441:
 12457     1D6D  2D86               	goto	l497
 12458     1D6E                     u4440:
 12459     1D6E                     l3156:
 12460     1D6E  3000               	movlw	0
 12461     1D6F  00F8               	movwf	??___flge
 12462     1D70  3000               	movlw	0
 12463     1D71  00F9               	movwf	??___flge+1
 12464     1D72  3000               	movlw	0
 12465     1D73  00FA               	movwf	??___flge+2
 12466     1D74  3080               	movlw	128
 12467     1D75  00FB               	movwf	??___flge+3
 12468     1D76  0874               	movf	___flge@ff2,w
 12469     1D77  02F8               	subwf	??___flge,f
 12470     1D78  0875               	movf	___flge@ff2+1,w
 12471     1D79  3BF9               	subwfb	??___flge+1,f
 12472     1D7A  0876               	movf	___flge@ff2+2,w
 12473     1D7B  3BFA               	subwfb	??___flge+2,f
 12474     1D7C  0877               	movf	___flge@ff2+3,w
 12475     1D7D  3BFB               	subwfb	??___flge+3,f
 12476     1D7E  087B               	movf	??___flge+3,w
 12477     1D7F  00F7               	movwf	___flge@ff2+3
 12478     1D80  087A               	movf	??___flge+2,w
 12479     1D81  00F6               	movwf	___flge@ff2+2
 12480     1D82  0879               	movf	??___flge+1,w
 12481     1D83  00F5               	movwf	___flge@ff2+1
 12482     1D84  0878               	movf	??___flge,w
 12483     1D85  00F4               	movwf	___flge@ff2
 12484     1D86                     l497:
 12485     1D86  3080               	movlw	128
 12486     1D87  06F3               	xorwf	___flge@ff1+3,f
 12487     1D88  3080               	movlw	128
 12488     1D89  06F7               	xorwf	___flge@ff2+3,f
 12489     1D8A  0877               	movf	___flge@ff2+3,w
 12490     1D8B  0273               	subwf	___flge@ff1+3,w
 12491     1D8C  1D03               	skipz
 12492     1D8D  2D98               	goto	u4455
 12493     1D8E  0876               	movf	___flge@ff2+2,w
 12494     1D8F  0272               	subwf	___flge@ff1+2,w
 12495     1D90  1D03               	skipz
 12496     1D91  2D98               	goto	u4455
 12497     1D92  0875               	movf	___flge@ff2+1,w
 12498     1D93  0271               	subwf	___flge@ff1+1,w
 12499     1D94  1D03               	skipz
 12500     1D95  2D98               	goto	u4455
 12501     1D96  0874               	movf	___flge@ff2,w
 12502     1D97  0270               	subwf	___flge@ff1,w
 12503     1D98                     u4455:
 12504     1D98  1803               	skipnc
 12505     1D99  2D9B               	goto	u4451
 12506     1D9A  2D9C               	goto	u4450
 12507     1D9B                     u4451:
 12508     1D9B  2D9E               	goto	l3160
 12509     1D9C                     u4450:
 12510     1D9C                     l3158:
 12511     1D9C  1003               	clrc
 12512     1D9D  2D9F               	goto	l502
 12513     1D9E                     l3160:
 12514     1D9E  1403               	setc
 12515     1D9F                     l502:
 12516     1D9F  0008               	return
 12517     1DA0                     __end_of___flge:
 12518                           
 12519                           	psect	text30
 12520     1A80                     __ptext30:	
 12521 ;; *************** function ___fleq *****************
 12522 ;; Defined at:
 12523 ;;		line 4 in file "C:\Program Files\Microchip\xc8\v2.46\pic\sources\c99\common\fleq.c"
 12524 ;; Parameters:    Size  Location     Type
 12525 ;;  ff1             4    0[COMMON] unsigned int 
 12526 ;;  ff2             4    4[COMMON] unsigned int 
 12527 ;; Auto vars:     Size  Location     Type
 12528 ;;		None
 12529 ;; Return value:  Size  Location     Type
 12530 ;;		None               void
 12531 ;; Registers used:
 12532 ;;		wreg, status,2, status,0
 12533 ;; Tracked objects:
 12534 ;;		On entry : 0/0
 12535 ;;		On exit  : 0/0
 12536 ;;		Unchanged: 0/0
 12537 ;; Data sizes:     COMMON   BANK0   BANK1   BANK2   BANK3   BANK4   BANK5   BANK6   BANK7   BANK8   BANK9  BANK10  BANK1
      +1  BANK12  BANK13  BANK14  BANK15  BANK16  BANK17  BANK18  BANK19  BANK20  BANK21  BANK22  BANK23  BANK24  BANK25
 12538 ;;      Params:         8       0       0       0       0       0       0       0       0       0       0       0       
      +0       0       0       0       0       0       0       0       0       0       0       0       0       0       0
 12539 ;;      Locals:         0       0       0       0       0       0       0       0       0       0       0       0       
      +0       0       0       0       0       0       0       0       0       0       0       0       0       0       0
 12540 ;;      Temps:          4       0       0       0       0       0       0       0       0       0       0       0       
      +0       0       0       0       0       0       0       0       0       0       0       0       0       0       0
 12541 ;;      Totals:        12       0       0       0       0       0       0       0       0       0       0       0       
      +0       0       0       0       0       0       0       0       0       0       0       0       0       0       0
 12542 ;;Total ram usage:       12 bytes
 12543 ;; Hardware stack levels used: 1
 12544 ;; This function calls:
 12545 ;;		Nothing
 12546 ;; This function is called by:
 12547 ;;		_strtof
 12548 ;; This function uses a non-reentrant model
 12549 ;;
 12550                           
 12551     1A80                     ___fleq:	
 12552                           ;psect for function ___fleq
 12553                           
 12554     1A80                     l3132:	
 12555                           ;incstack = 0
 12556                           ; Regs used in ___fleq: [wreg+status,2+status,0]
 12557                           
 12558     1A80  3000               	movlw	0
 12559     1A81  0570               	andwf	___fleq@ff1,w
 12560     1A82  00F8               	movwf	??___fleq
 12561     1A83  3000               	movlw	0
 12562     1A84  0571               	andwf	___fleq@ff1+1,w
 12563     1A85  00F9               	movwf	??___fleq+1
 12564     1A86  3080               	movlw	128
 12565     1A87  0572               	andwf	___fleq@ff1+2,w
 12566     1A88  00FA               	movwf	??___fleq+2
 12567     1A89  307F               	movlw	127
 12568     1A8A  0573               	andwf	___fleq@ff1+3,w
 12569     1A8B  00FB               	movwf	??___fleq+3
 12570     1A8C  087B               	movf	??___fleq+3,w
 12571     1A8D  047A               	iorwf	??___fleq+2,w
 12572     1A8E  0479               	iorwf	??___fleq+1,w
 12573     1A8F  0478               	iorwf	??___fleq,w
 12574     1A90  1D03               	skipz
 12575     1A91  2A93               	goto	u4381
 12576     1A92  2A94               	goto	u4380
 12577     1A93                     u4381:
 12578     1A93  2A9C               	goto	l485
 12579     1A94                     u4380:
 12580     1A94                     l3134:
 12581     1A94  3000               	movlw	0
 12582     1A95  00F3               	movwf	___fleq@ff1+3
 12583     1A96  3000               	movlw	0
 12584     1A97  00F2               	movwf	___fleq@ff1+2
 12585     1A98  3000               	movlw	0
 12586     1A99  00F1               	movwf	___fleq@ff1+1
 12587     1A9A  3000               	movlw	0
 12588     1A9B  00F0               	movwf	___fleq@ff1
 12589     1A9C                     l485:
 12590     1A9C  3000               	movlw	0
 12591     1A9D  0574               	andwf	___fleq@ff2,w
 12592     1A9E  00F8               	movwf	??___fleq
 12593     1A9F  3000               	movlw	0
 12594     1AA0  0575               	andwf	___fleq@ff2+1,w
 12595     1AA1  00F9               	movwf	??___fleq+1
 12596     1AA2  3080               	movlw	128
 12597     1AA3  0576               	andwf	___fleq@ff2+2,w
 12598     1AA4  00FA               	movwf	??___fleq+2
 12599     1AA5  307F               	movlw	127
 12600     1AA6  0577               	andwf	___fleq@ff2+3,w
 12601     1AA7  00FB               	movwf	??___fleq+3
 12602     1AA8  087B               	movf	??___fleq+3,w
 12603     1AA9  047A               	iorwf	??___fleq+2,w
 12604     1AAA  0479               	iorwf	??___fleq+1,w
 12605     1AAB  0478               	iorwf	??___fleq,w
 12606     1AAC  1D03               	skipz
 12607     1AAD  2AAF               	goto	u4391
 12608     1AAE  2AB0               	goto	u4390
 12609     1AAF                     u4391:
 12610     1AAF  2AB8               	goto	l486
 12611     1AB0                     u4390:
 12612     1AB0                     l3136:
 12613     1AB0  3000               	movlw	0
 12614     1AB1  00F7               	movwf	___fleq@ff2+3
 12615     1AB2  3000               	movlw	0
 12616     1AB3  00F6               	movwf	___fleq@ff2+2
 12617     1AB4  3000               	movlw	0
 12618     1AB5  00F5               	movwf	___fleq@ff2+1
 12619     1AB6  3000               	movlw	0
 12620     1AB7  00F4               	movwf	___fleq@ff2
 12621     1AB8                     l486:
 12622     1AB8  0877               	movf	___fleq@ff2+3,w
 12623     1AB9  0673               	xorwf	___fleq@ff1+3,w
 12624     1ABA  1D03               	skipz
 12625     1ABB  2AC6               	goto	u4405
 12626     1ABC  0876               	movf	___fleq@ff2+2,w
 12627     1ABD  0672               	xorwf	___fleq@ff1+2,w
 12628     1ABE  1D03               	skipz
 12629     1ABF  2AC6               	goto	u4405
 12630     1AC0  0875               	movf	___fleq@ff2+1,w
 12631     1AC1  0671               	xorwf	___fleq@ff1+1,w
 12632     1AC2  1D03               	skipz
 12633     1AC3  2AC6               	goto	u4405
 12634     1AC4  0874               	movf	___fleq@ff2,w
 12635     1AC5  0670               	xorwf	___fleq@ff1,w
 12636     1AC6                     u4405:
 12637     1AC6  1903               	skipnz
 12638     1AC7  2AC9               	goto	u4401
 12639     1AC8  2ACA               	goto	u4400
 12640     1AC9                     u4401:
 12641     1AC9  2ACC               	goto	l3140
 12642     1ACA                     u4400:
 12643     1ACA                     l3138:
 12644     1ACA  1003               	clrc
 12645     1ACB  2ACD               	goto	l491
 12646     1ACC                     l3140:
 12647     1ACC  1403               	setc
 12648     1ACD                     l491:
 12649     1ACD  0008               	return
 12650     1ACE                     __end_of___fleq:
 12651                           
 12652                           	psect	text31
 12653     1210                     __ptext31:	
 12654 ;; *************** function ___fldiv *****************
 12655 ;; Defined at:
 12656 ;;		line 8 in file "C:\Program Files\Microchip\xc8\v2.46\pic\sources\c99\common\sprcdiv.c"
 12657 ;; Parameters:    Size  Location     Type
 12658 ;;  a               4    0[COMMON] unsigned int 
 12659 ;;  b               4    4[COMMON] unsigned int 
 12660 ;; Auto vars:     Size  Location     Type
 12661 ;;  grs             4    7[BANK0 ] unsigned long 
 12662 ;;  rem             4    0[BANK0 ] unsigned long 
 12663 ;;  new_exp         2    5[BANK0 ] short 
 12664 ;;  aexp            1   12[BANK0 ] unsigned char 
 12665 ;;  bexp            1   11[BANK0 ] unsigned char 
 12666 ;;  sign            1    4[BANK0 ] unsigned char 
 12667 ;; Return value:  Size  Location     Type
 12668 ;;                  4    0[COMMON] unsigned char 
 12669 ;; Registers used:
 12670 ;;		wreg, status,2, status,0
 12671 ;; Tracked objects:
 12672 ;;		On entry : 0/0
 12673 ;;		On exit  : 0/0
 12674 ;;		Unchanged: 0/0
 12675 ;; Data sizes:     COMMON   BANK0   BANK1   BANK2   BANK3   BANK4   BANK5   BANK6   BANK7   BANK8   BANK9  BANK10  BANK1
      +1  BANK12  BANK13  BANK14  BANK15  BANK16  BANK17  BANK18  BANK19  BANK20  BANK21  BANK22  BANK23  BANK24  BANK25
 12676 ;;      Params:         8       0       0       0       0       0       0       0       0       0       0       0       
      +0       0       0       0       0       0       0       0       0       0       0       0       0       0       0
 12677 ;;      Locals:         0      13       0       0       0       0       0       0       0       0       0       0       
      +0       0       0       0       0       0       0       0       0       0       0       0       0       0       0
 12678 ;;      Temps:          5       0       0       0       0       0       0       0       0       0       0       0       
      +0       0       0       0       0       0       0       0       0       0       0       0       0       0       0
 12679 ;;      Totals:        13      13       0       0       0       0       0       0       0       0       0       0       
      +0       0       0       0       0       0       0       0       0       0       0       0       0       0       0
 12680 ;;Total ram usage:       26 bytes
 12681 ;; Hardware stack levels used: 1
 12682 ;; This function calls:
 12683 ;;		Nothing
 12684 ;; This function is called by:
 12685 ;;		_strtof
 12686 ;; This function uses a non-reentrant model
 12687 ;;
 12688                           
 12689     1210                     ___fldiv:	
 12690                           ;psect for function ___fldiv
 12691                           
 12692     1210                     l3214:	
 12693                           ;incstack = 0
 12694                           ; Regs used in ___fldiv: [wreg+status,2+status,0]
 12695                           
 12696     1210  0877               	movf	___fldiv@b+3,w
 12697     1211  3980               	andlw	128
 12698     1212  0020               	movlb	0	; select bank0
 12699     1213  00A4               	movwf	___fldiv@sign
 12700     1214                     l3216:
 12701     1214  3577               	lslf	___fldiv@b+3,w
 12702     1215  00AB               	movwf	___fldiv@bexp
 12703     1216                     l3218:
 12704     1216  1FF6               	btfss	___fldiv@b+2,7
 12705     1217  2A19               	goto	u4571
 12706     1218  2A1A               	goto	u4570
 12707     1219                     u4571:
 12708     1219  2A1B               	goto	l3222
 12709     121A                     u4570:
 12710     121A                     l3220:
 12711     121A  142B               	bsf	___fldiv@bexp,0
 12712     121B                     l3222:
 12713     121B  082B               	movf	___fldiv@bexp,w
 12714     121C  1903               	btfsc	3,2
 12715     121D  2A1F               	goto	u4581
 12716     121E  2A20               	goto	u4580
 12717     121F                     u4581:
 12718     121F  2A30               	goto	l3232
 12719     1220                     u4580:
 12720     1220                     l3224:
 12721     1220  0A2B               	incf	___fldiv@bexp,w
 12722     1221  1D03               	btfss	3,2
 12723     1222  2A24               	goto	u4591
 12724     1223  2A25               	goto	u4590
 12725     1224                     u4591:
 12726     1224  2A2D               	goto	l3228
 12727     1225                     u4590:
 12728     1225                     l3226:
 12729     1225  3000               	movlw	0
 12730     1226  00F7               	movwf	___fldiv@b+3
 12731     1227  3000               	movlw	0
 12732     1228  00F6               	movwf	___fldiv@b+2
 12733     1229  3000               	movlw	0
 12734     122A  00F5               	movwf	___fldiv@b+1
 12735     122B  3000               	movlw	0
 12736     122C  00F4               	movwf	___fldiv@b
 12737     122D                     l3228:
 12738     122D  17F6               	bsf	___fldiv@b+2,7
 12739     122E                     l3230:
 12740     122E  01F7               	clrf	___fldiv@b+3
 12741     122F  2A38               	goto	l3234
 12742     1230                     l3232:
 12743     1230  3000               	movlw	0
 12744     1231  00F7               	movwf	___fldiv@b+3
 12745     1232  3000               	movlw	0
 12746     1233  00F6               	movwf	___fldiv@b+2
 12747     1234  3000               	movlw	0
 12748     1235  00F5               	movwf	___fldiv@b+1
 12749     1236  3000               	movlw	0
 12750     1237  00F4               	movwf	___fldiv@b
 12751     1238                     l3234:
 12752     1238  0873               	movf	___fldiv@a+3,w
 12753     1239  3980               	andlw	128
 12754     123A  00F8               	movwf	??___fldiv
 12755     123B  0878               	movf	??___fldiv,w
 12756     123C  06A4               	xorwf	___fldiv@sign,f
 12757     123D                     l3236:
 12758     123D  3573               	lslf	___fldiv@a+3,w
 12759     123E  00AC               	movwf	___fldiv@aexp
 12760     123F                     l3238:
 12761     123F  1FF2               	btfss	___fldiv@a+2,7
 12762     1240  2A42               	goto	u4601
 12763     1241  2A43               	goto	u4600
 12764     1242                     u4601:
 12765     1242  2A44               	goto	l3242
 12766     1243                     u4600:
 12767     1243                     l3240:
 12768     1243  142C               	bsf	___fldiv@aexp,0
 12769     1244                     l3242:
 12770     1244  082C               	movf	___fldiv@aexp,w
 12771     1245  1903               	btfsc	3,2
 12772     1246  2A48               	goto	u4611
 12773     1247  2A49               	goto	u4610
 12774     1248                     u4611:
 12775     1248  2A59               	goto	l3252
 12776     1249                     u4610:
 12777     1249                     l3244:
 12778     1249  0A2C               	incf	___fldiv@aexp,w
 12779     124A  1D03               	btfss	3,2
 12780     124B  2A4D               	goto	u4621
 12781     124C  2A4E               	goto	u4620
 12782     124D                     u4621:
 12783     124D  2A56               	goto	l3248
 12784     124E                     u4620:
 12785     124E                     l3246:
 12786     124E  3000               	movlw	0
 12787     124F  00F3               	movwf	___fldiv@a+3
 12788     1250  3000               	movlw	0
 12789     1251  00F2               	movwf	___fldiv@a+2
 12790     1252  3000               	movlw	0
 12791     1253  00F1               	movwf	___fldiv@a+1
 12792     1254  3000               	movlw	0
 12793     1255  00F0               	movwf	___fldiv@a
 12794     1256                     l3248:
 12795     1256  17F2               	bsf	___fldiv@a+2,7
 12796     1257                     l3250:
 12797     1257  01F3               	clrf	___fldiv@a+3
 12798     1258  2A61               	goto	l673
 12799     1259                     l3252:
 12800     1259  3000               	movlw	0
 12801     125A  00F3               	movwf	___fldiv@a+3
 12802     125B  3000               	movlw	0
 12803     125C  00F2               	movwf	___fldiv@a+2
 12804     125D  3000               	movlw	0
 12805     125E  00F1               	movwf	___fldiv@a+1
 12806     125F  3000               	movlw	0
 12807     1260  00F0               	movwf	___fldiv@a
 12808     1261                     l673:
 12809     1261  0873               	movf	___fldiv@a+3,w
 12810     1262  0472               	iorwf	___fldiv@a+2,w
 12811     1263  0471               	iorwf	___fldiv@a+1,w
 12812     1264  0470               	iorwf	___fldiv@a,w
 12813     1265  1D03               	skipz
 12814     1266  2A68               	goto	u4631
 12815     1267  2A69               	goto	u4630
 12816     1268                     u4631:
 12817     1268  2A82               	goto	l3262
 12818     1269                     u4630:
 12819     1269                     l3254:
 12820     1269  3000               	movlw	0
 12821     126A  00F7               	movwf	___fldiv@b+3
 12822     126B  3000               	movlw	0
 12823     126C  00F6               	movwf	___fldiv@b+2
 12824     126D  3000               	movlw	0
 12825     126E  00F5               	movwf	___fldiv@b+1
 12826     126F  3000               	movlw	0
 12827     1270  00F4               	movwf	___fldiv@b
 12828     1271  3080               	movlw	128
 12829     1272  04F6               	iorwf	___fldiv@b+2,f
 12830     1273  307F               	movlw	127
 12831     1274  04F7               	iorwf	___fldiv@b+3,f
 12832     1275                     l3256:
 12833     1275  0824               	movf	___fldiv@sign,w
 12834     1276  00F8               	movwf	??___fldiv
 12835     1277  0878               	movf	??___fldiv,w
 12836     1278  04F7               	iorwf	___fldiv@b+3,f
 12837     1279                     l3258:
 12838     1279  0877               	movf	___fldiv@b+3,w
 12839     127A  00F3               	movwf	?___fldiv+3
 12840     127B  0876               	movf	___fldiv@b+2,w
 12841     127C  00F2               	movwf	?___fldiv+2
 12842     127D  0875               	movf	___fldiv@b+1,w
 12843     127E  00F1               	movwf	?___fldiv+1
 12844     127F  0874               	movf	___fldiv@b,w
 12845     1280  00F0               	movwf	?___fldiv
 12846     1281  2BB9               	goto	l675
 12847     1282                     l3262:
 12848     1282  082B               	movf	___fldiv@bexp,w
 12849     1283  1D03               	btfss	3,2
 12850     1284  2A86               	goto	u4641
 12851     1285  2A87               	goto	u4640
 12852     1286                     u4641:
 12853     1286  2A90               	goto	l3268
 12854     1287                     u4640:
 12855     1287                     l3264:
 12856     1287  3000               	movlw	0
 12857     1288  00F3               	movwf	?___fldiv+3
 12858     1289  3000               	movlw	0
 12859     128A  00F2               	movwf	?___fldiv+2
 12860     128B  3000               	movlw	0
 12861     128C  00F1               	movwf	?___fldiv+1
 12862     128D  3000               	movlw	0
 12863     128E  00F0               	movwf	?___fldiv
 12864     128F  2BB9               	goto	l675
 12865     1290                     l3268:
 12866     1290  082B               	movf	___fldiv@bexp,w
 12867     1291  00F8               	movwf	??___fldiv
 12868     1292  01F9               	clrf	??___fldiv+1
 12869     1293  0879               	movf	??___fldiv+1,w
 12870     1294  00FB               	movwf	??___fldiv+3
 12871     1295  082C               	movf	___fldiv@aexp,w
 12872     1296  0278               	subwf	??___fldiv,w
 12873     1297  00FA               	movwf	??___fldiv+2
 12874     1298  1C03               	skipc
 12875     1299  03FB               	decf	??___fldiv+3,f
 12876     129A  087A               	movf	??___fldiv+2,w
 12877     129B  3E7F               	addlw	127
 12878     129C  00A5               	movwf	___fldiv@new_exp
 12879     129D  3000               	movlw	0
 12880     129E  3D7B               	addwfc	??___fldiv+3,w
 12881     129F  00A6               	movwf	___fldiv@new_exp+1
 12882     12A0                     l3270:
 12883     12A0  0877               	movf	___fldiv@b+3,w
 12884     12A1  00A3               	movwf	___fldiv@rem+3
 12885     12A2  0876               	movf	___fldiv@b+2,w
 12886     12A3  00A2               	movwf	___fldiv@rem+2
 12887     12A4  0875               	movf	___fldiv@b+1,w
 12888     12A5  00A1               	movwf	___fldiv@rem+1
 12889     12A6  0874               	movf	___fldiv@b,w
 12890     12A7  00A0               	movwf	___fldiv@rem
 12891     12A8                     l3272:
 12892     12A8  3000               	movlw	0
 12893     12A9  00F7               	movwf	___fldiv@b+3
 12894     12AA  3000               	movlw	0
 12895     12AB  00F6               	movwf	___fldiv@b+2
 12896     12AC  3000               	movlw	0
 12897     12AD  00F5               	movwf	___fldiv@b+1
 12898     12AE  3000               	movlw	0
 12899     12AF  00F4               	movwf	___fldiv@b
 12900     12B0                     l3274:
 12901     12B0  3000               	movlw	0
 12902     12B1  00AA               	movwf	___fldiv@grs+3
 12903     12B2  3000               	movlw	0
 12904     12B3  00A9               	movwf	___fldiv@grs+2
 12905     12B4  3000               	movlw	0
 12906     12B5  00A8               	movwf	___fldiv@grs+1
 12907     12B6  3000               	movlw	0
 12908     12B7  00A7               	movwf	___fldiv@grs
 12909     12B8                     l3276:
 12910     12B8  01AC               	clrf	___fldiv@aexp
 12911     12B9  2AF8               	goto	l3296
 12912     12BA                     l3278:
 12913     12BA  082C               	movf	___fldiv@aexp,w
 12914     12BB  1903               	btfsc	3,2
 12915     12BC  2ABE               	goto	u4651
 12916     12BD  2ABF               	goto	u4650
 12917     12BE                     u4651:
 12918     12BE  2AD9               	goto	l3288
 12919     12BF                     u4650:
 12920     12BF                     l3280:
 12921     12BF  3001               	movlw	1
 12922     12C0                     u4665:
 12923     12C0  35A0               	lslf	___fldiv@rem,f
 12924     12C1  0DA1               	rlf	___fldiv@rem+1,f
 12925     12C2  0DA2               	rlf	___fldiv@rem+2,f
 12926     12C3  0DA3               	rlf	___fldiv@rem+3,f
 12927     12C4  0B89               	decfsz	9,f
 12928     12C5  2AC0               	goto	u4665
 12929     12C6  3001               	movlw	1
 12930     12C7                     u4675:
 12931     12C7  35F4               	lslf	___fldiv@b,f
 12932     12C8  0DF5               	rlf	___fldiv@b+1,f
 12933     12C9  0DF6               	rlf	___fldiv@b+2,f
 12934     12CA  0DF7               	rlf	___fldiv@b+3,f
 12935     12CB  0B89               	decfsz	9,f
 12936     12CC  2AC7               	goto	u4675
 12937     12CD                     l3282:
 12938     12CD  1FAA               	btfss	___fldiv@grs+3,7
 12939     12CE  2AD0               	goto	u4681
 12940     12CF  2AD1               	goto	u4680
 12941     12D0                     u4681:
 12942     12D0  2AD2               	goto	l3286
 12943     12D1                     u4680:
 12944     12D1                     l3284:
 12945     12D1  1474               	bsf	___fldiv@b,0
 12946     12D2                     l3286:
 12947     12D2  3001               	movlw	1
 12948     12D3                     u4695:
 12949     12D3  35A7               	lslf	___fldiv@grs,f
 12950     12D4  0DA8               	rlf	___fldiv@grs+1,f
 12951     12D5  0DA9               	rlf	___fldiv@grs+2,f
 12952     12D6  0DAA               	rlf	___fldiv@grs+3,f
 12953     12D7  0B89               	decfsz	9,f
 12954     12D8  2AD3               	goto	u4695
 12955     12D9                     l3288:
 12956     12D9  0873               	movf	___fldiv@a+3,w
 12957     12DA  0223               	subwf	___fldiv@rem+3,w
 12958     12DB  1D03               	skipz
 12959     12DC  2AE7               	goto	u4705
 12960     12DD  0872               	movf	___fldiv@a+2,w
 12961     12DE  0222               	subwf	___fldiv@rem+2,w
 12962     12DF  1D03               	skipz
 12963     12E0  2AE7               	goto	u4705
 12964     12E1  0871               	movf	___fldiv@a+1,w
 12965     12E2  0221               	subwf	___fldiv@rem+1,w
 12966     12E3  1D03               	skipz
 12967     12E4  2AE7               	goto	u4705
 12968     12E5  0870               	movf	___fldiv@a,w
 12969     12E6  0220               	subwf	___fldiv@rem,w
 12970     12E7                     u4705:
 12971     12E7  1C03               	skipc
 12972     12E8  2AEA               	goto	u4701
 12973     12E9  2AEB               	goto	u4700
 12974     12EA                     u4701:
 12975     12EA  2AF4               	goto	l3294
 12976     12EB                     u4700:
 12977     12EB                     l3290:
 12978     12EB  172A               	bsf	___fldiv@grs+3,6
 12979     12EC                     l3292:
 12980     12EC  0870               	movf	___fldiv@a,w
 12981     12ED  02A0               	subwf	___fldiv@rem,f
 12982     12EE  0871               	movf	___fldiv@a+1,w
 12983     12EF  3BA1               	subwfb	___fldiv@rem+1,f
 12984     12F0  0872               	movf	___fldiv@a+2,w
 12985     12F1  3BA2               	subwfb	___fldiv@rem+2,f
 12986     12F2  0873               	movf	___fldiv@a+3,w
 12987     12F3  3BA3               	subwfb	___fldiv@rem+3,f
 12988     12F4                     l3294:
 12989     12F4  3001               	movlw	1
 12990     12F5  00F8               	movwf	??___fldiv
 12991     12F6  0878               	movf	??___fldiv,w
 12992     12F7  07AC               	addwf	___fldiv@aexp,f
 12993     12F8                     l3296:
 12994     12F8  301A               	movlw	26
 12995     12F9  022C               	subwf	___fldiv@aexp,w
 12996     12FA  1C03               	skipc
 12997     12FB  2AFD               	goto	u4711
 12998     12FC  2AFE               	goto	u4710
 12999     12FD                     u4711:
 13000     12FD  2ABA               	goto	l3278
 13001     12FE                     u4710:
 13002     12FE                     l3298:
 13003     12FE  0823               	movf	___fldiv@rem+3,w
 13004     12FF  0422               	iorwf	___fldiv@rem+2,w
 13005     1300  0421               	iorwf	___fldiv@rem+1,w
 13006     1301  0420               	iorwf	___fldiv@rem,w
 13007     1302  1903               	skipnz
 13008     1303  2B05               	goto	u4721
 13009     1304  2B06               	goto	u4720
 13010     1305                     u4721:
 13011     1305  2B1F               	goto	l3312
 13012     1306                     u4720:
 13013     1306                     l3300:
 13014     1306  1427               	bsf	___fldiv@grs,0
 13015     1307  2B1F               	goto	l3312
 13016     1308                     l3302:
 13017     1308  3001               	movlw	1
 13018     1309                     u4735:
 13019     1309  35F4               	lslf	___fldiv@b,f
 13020     130A  0DF5               	rlf	___fldiv@b+1,f
 13021     130B  0DF6               	rlf	___fldiv@b+2,f
 13022     130C  0DF7               	rlf	___fldiv@b+3,f
 13023     130D  0B89               	decfsz	9,f
 13024     130E  2B09               	goto	u4735
 13025     130F                     l3304:
 13026     130F  1FAA               	btfss	___fldiv@grs+3,7
 13027     1310  2B12               	goto	u4741
 13028     1311  2B13               	goto	u4740
 13029     1312                     u4741:
 13030     1312  2B14               	goto	l3308
 13031     1313                     u4740:
 13032     1313                     l3306:
 13033     1313  1474               	bsf	___fldiv@b,0
 13034     1314                     l3308:
 13035     1314  3001               	movlw	1
 13036     1315                     u4755:
 13037     1315  35A7               	lslf	___fldiv@grs,f
 13038     1316  0DA8               	rlf	___fldiv@grs+1,f
 13039     1317  0DA9               	rlf	___fldiv@grs+2,f
 13040     1318  0DAA               	rlf	___fldiv@grs+3,f
 13041     1319  0B89               	decfsz	9,f
 13042     131A  2B15               	goto	u4755
 13043     131B                     l3310:
 13044     131B  30FF               	movlw	255
 13045     131C  07A5               	addwf	___fldiv@new_exp,f
 13046     131D  30FF               	movlw	255
 13047     131E  3DA6               	addwfc	___fldiv@new_exp+1,f
 13048     131F                     l3312:
 13049     131F  1FF6               	btfss	___fldiv@b+2,7
 13050     1320  2B22               	goto	u4761
 13051     1321  2B23               	goto	u4760
 13052     1322                     u4761:
 13053     1322  2B08               	goto	l3302
 13054     1323                     u4760:
 13055     1323                     l3314:
 13056     1323  01AC               	clrf	___fldiv@aexp
 13057     1324                     l3316:
 13058     1324  1FAA               	btfss	___fldiv@grs+3,7
 13059     1325  2B27               	goto	u4771
 13060     1326  2B28               	goto	u4770
 13061     1327                     u4771:
 13062     1327  2B44               	goto	l3324
 13063     1328                     u4770:
 13064     1328                     l3318:
 13065     1328  30FF               	movlw	255
 13066     1329  0527               	andwf	___fldiv@grs,w
 13067     132A  00F8               	movwf	??___fldiv
 13068     132B  30FF               	movlw	255
 13069     132C  0528               	andwf	___fldiv@grs+1,w
 13070     132D  00F9               	movwf	??___fldiv+1
 13071     132E  30FF               	movlw	255
 13072     132F  0529               	andwf	___fldiv@grs+2,w
 13073     1330  00FA               	movwf	??___fldiv+2
 13074     1331  307F               	movlw	127
 13075     1332  052A               	andwf	___fldiv@grs+3,w
 13076     1333  00FB               	movwf	??___fldiv+3
 13077     1334  087B               	movf	??___fldiv+3,w
 13078     1335  047A               	iorwf	??___fldiv+2,w
 13079     1336  0479               	iorwf	??___fldiv+1,w
 13080     1337  0478               	iorwf	??___fldiv,w
 13081     1338  1903               	skipnz
 13082     1339  2B3B               	goto	u4781
 13083     133A  2B3C               	goto	u4780
 13084     133B                     u4781:
 13085     133B  2B3F               	goto	l689
 13086     133C                     u4780:
 13087     133C                     l3320:
 13088     133C  01AC               	clrf	___fldiv@aexp
 13089     133D  0AAC               	incf	___fldiv@aexp,f
 13090     133E  2B44               	goto	l3324
 13091     133F                     l689:
 13092     133F  1C74               	btfss	___fldiv@b,0
 13093     1340  2B42               	goto	u4791
 13094     1341  2B43               	goto	u4790
 13095     1342                     u4791:
 13096     1342  2B44               	goto	l3324
 13097     1343                     u4790:
 13098     1343  2B3C               	goto	l3320
 13099     1344                     l3324:
 13100     1344  082C               	movf	___fldiv@aexp,w
 13101     1345  1903               	btfsc	3,2
 13102     1346  2B48               	goto	u4801
 13103     1347  2B49               	goto	u4800
 13104     1348                     u4801:
 13105     1348  2B71               	goto	l3334
 13106     1349                     u4800:
 13107     1349                     l3326:
 13108     1349  3001               	movlw	1
 13109     134A  07F4               	addwf	___fldiv@b,f
 13110     134B  3000               	movlw	0
 13111     134C  3DF5               	addwfc	___fldiv@b+1,f
 13112     134D  3000               	movlw	0
 13113     134E  3DF6               	addwfc	___fldiv@b+2,f
 13114     134F  3000               	movlw	0
 13115     1350  3DF7               	addwfc	___fldiv@b+3,f
 13116     1351                     l3328:
 13117     1351  1C77               	btfss	___fldiv@b+3,0
 13118     1352  2B54               	goto	u4811
 13119     1353  2B55               	goto	u4810
 13120     1354                     u4811:
 13121     1354  2B71               	goto	l3334
 13122     1355                     u4810:
 13123     1355                     l3330:
 13124     1355  0874               	movf	___fldiv@b,w
 13125     1356  00F8               	movwf	??___fldiv
 13126     1357  0875               	movf	___fldiv@b+1,w
 13127     1358  00F9               	movwf	??___fldiv+1
 13128     1359  0876               	movf	___fldiv@b+2,w
 13129     135A  00FA               	movwf	??___fldiv+2
 13130     135B  0877               	movf	___fldiv@b+3,w
 13131     135C  00FB               	movwf	??___fldiv+3
 13132     135D  3001               	movlw	1
 13133     135E  00FC               	movwf	??___fldiv+4
 13134     135F                     u4825:
 13135     135F  37FB               	asrf	??___fldiv+3,f
 13136     1360  0CFA               	rrf	??___fldiv+2,f
 13137     1361  0CF9               	rrf	??___fldiv+1,f
 13138     1362  0CF8               	rrf	??___fldiv,f
 13139     1363                     u4820:
 13140     1363  0BFC               	decfsz	??___fldiv+4,f
 13141     1364  2B5F               	goto	u4825
 13142     1365  087B               	movf	??___fldiv+3,w
 13143     1366  00F7               	movwf	___fldiv@b+3
 13144     1367  087A               	movf	??___fldiv+2,w
 13145     1368  00F6               	movwf	___fldiv@b+2
 13146     1369  0879               	movf	??___fldiv+1,w
 13147     136A  00F5               	movwf	___fldiv@b+1
 13148     136B  0878               	movf	??___fldiv,w
 13149     136C  00F4               	movwf	___fldiv@b
 13150     136D                     l3332:
 13151     136D  3001               	movlw	1
 13152     136E  07A5               	addwf	___fldiv@new_exp,f
 13153     136F  3000               	movlw	0
 13154     1370  3DA6               	addwfc	___fldiv@new_exp+1,f
 13155     1371                     l3334:
 13156     1371  0826               	movf	___fldiv@new_exp+1,w
 13157     1372  3A80               	xorlw	128
 13158     1373  00F8               	movwf	??___fldiv
 13159     1374  3080               	movlw	128
 13160     1375  0278               	subwf	??___fldiv,w
 13161     1376  1D03               	skipz
 13162     1377  2B7A               	goto	u4835
 13163     1378  30FF               	movlw	255
 13164     1379  0225               	subwf	___fldiv@new_exp,w
 13165     137A                     u4835:
 13166     137A  1C03               	skipc
 13167     137B  2B7D               	goto	u4831
 13168     137C  2B7E               	goto	u4830
 13169     137D                     u4831:
 13170     137D  2B8B               	goto	l694
 13171     137E                     u4830:
 13172     137E                     l3336:
 13173     137E  30FF               	movlw	255
 13174     137F  0020               	movlb	0	; select bank0
 13175     1380  00A5               	movwf	___fldiv@new_exp
 13176     1381  3000               	movlw	0
 13177     1382  00A6               	movwf	___fldiv@new_exp+1
 13178     1383  3000               	movlw	0
 13179     1384  00F7               	movwf	___fldiv@b+3
 13180     1385  3000               	movlw	0
 13181     1386  00F6               	movwf	___fldiv@b+2
 13182     1387  3000               	movlw	0
 13183     1388  00F5               	movwf	___fldiv@b+1
 13184     1389  3000               	movlw	0
 13185     138A  00F4               	movwf	___fldiv@b
 13186     138B                     l694:
 13187     138B  0020               	movlb	0	; select bank0
 13188     138C  0826               	movf	___fldiv@new_exp+1,w
 13189     138D  3A80               	xorlw	128
 13190     138E  00F8               	movwf	??___fldiv
 13191     138F  3080               	movlw	128
 13192     1390  0278               	subwf	??___fldiv,w
 13193     1391  1D03               	skipz
 13194     1392  2B95               	goto	u4845
 13195     1393  3001               	movlw	1
 13196     1394  0225               	subwf	___fldiv@new_exp,w
 13197     1395                     u4845:
 13198     1395  1803               	skipnc
 13199     1396  2B98               	goto	u4841
 13200     1397  2B99               	goto	u4840
 13201     1398                     u4841:
 13202     1398  2BA5               	goto	l695
 13203     1399                     u4840:
 13204     1399                     l3338:
 13205     1399  0020               	movlb	0	; select bank0
 13206     139A  01A5               	clrf	___fldiv@new_exp
 13207     139B  01A6               	clrf	___fldiv@new_exp+1
 13208     139C                     l3340:
 13209     139C  3000               	movlw	0
 13210     139D  00F7               	movwf	___fldiv@b+3
 13211     139E  3000               	movlw	0
 13212     139F  00F6               	movwf	___fldiv@b+2
 13213     13A0  3000               	movlw	0
 13214     13A1  00F5               	movwf	___fldiv@b+1
 13215     13A2  3000               	movlw	0
 13216     13A3  00F4               	movwf	___fldiv@b
 13217     13A4                     l3342:
 13218     13A4  01A4               	clrf	___fldiv@sign
 13219     13A5                     l695:
 13220     13A5  0020               	movlb	0	; select bank0
 13221     13A6  0825               	movf	___fldiv@new_exp,w
 13222     13A7  00AB               	movwf	___fldiv@bexp
 13223     13A8                     l3344:
 13224     13A8  1C2B               	btfss	___fldiv@bexp,0
 13225     13A9  2BAB               	goto	u4851
 13226     13AA  2BAC               	goto	u4850
 13227     13AB                     u4851:
 13228     13AB  2BAE               	goto	l3348
 13229     13AC                     u4850:
 13230     13AC                     l3346:
 13231     13AC  17F6               	bsf	___fldiv@b+2,7
 13232     13AD  2BB2               	goto	l697
 13233     13AE                     l3348:
 13234     13AE  307F               	movlw	127
 13235     13AF  00F8               	movwf	??___fldiv
 13236     13B0  0878               	movf	??___fldiv,w
 13237     13B1  05F6               	andwf	___fldiv@b+2,f
 13238     13B2                     l697:
 13239     13B2  362B               	lsrf	___fldiv@bexp,w
 13240     13B3  00F7               	movwf	___fldiv@b+3
 13241     13B4  0824               	movf	___fldiv@sign,w
 13242     13B5  00F8               	movwf	??___fldiv
 13243     13B6  0878               	movf	??___fldiv,w
 13244     13B7  04F7               	iorwf	___fldiv@b+3,f
 13245     13B8  2A79               	goto	l3258
 13246     13B9                     l675:
 13247     13B9  0008               	return
 13248     13BA                     __end_of___fldiv:
 13249                           
 13250                           	psect	text32
 13251     270F                     __ptext32:	
 13252 ;; *************** function _strlen *****************
 13253 ;; Defined at:
 13254 ;;		line 5 in file "C:\Program Files\Microchip\xc8\v2.46\pic\sources\c99\common\strlen.c"
 13255 ;; Parameters:    Size  Location     Type
 13256 ;;  s               1    wreg     PTR const unsigned char 
 13257 ;;		 -> rx_buffer(64), 
 13258 ;; Auto vars:     Size  Location     Type
 13259 ;;  s               1    4[COMMON] PTR const unsigned char 
 13260 ;;		 -> rx_buffer(64), 
 13261 ;;  a               1    3[COMMON] PTR const unsigned char 
 13262 ;;		 -> rx_buffer(64), 
 13263 ;; Return value:  Size  Location     Type
 13264 ;;                  2    0[COMMON] unsigned int 
 13265 ;; Registers used:
 13266 ;;		wreg, fsr1l, fsr1h, status,2, status,0
 13267 ;; Tracked objects:
 13268 ;;		On entry : 0/0
 13269 ;;		On exit  : 0/0
 13270 ;;		Unchanged: 0/0
 13271 ;; Data sizes:     COMMON   BANK0   BANK1   BANK2   BANK3   BANK4   BANK5   BANK6   BANK7   BANK8   BANK9  BANK10  BANK1
      +1  BANK12  BANK13  BANK14  BANK15  BANK16  BANK17  BANK18  BANK19  BANK20  BANK21  BANK22  BANK23  BANK24  BANK25
 13272 ;;      Params:         2       0       0       0       0       0       0       0       0       0       0       0       
      +0       0       0       0       0       0       0       0       0       0       0       0       0       0       0
 13273 ;;      Locals:         2       0       0       0       0       0       0       0       0       0       0       0       
      +0       0       0       0       0       0       0       0       0       0       0       0       0       0       0
 13274 ;;      Temps:          1       0       0       0       0       0       0       0       0       0       0       0       
      +0       0       0       0       0       0       0       0       0       0       0       0       0       0       0
 13275 ;;      Totals:         5       0       0       0       0       0       0       0       0       0       0       0       
      +0       0       0       0       0       0       0       0       0       0       0       0       0       0       0
 13276 ;;Total ram usage:        5 bytes
 13277 ;; Hardware stack levels used: 1
 13278 ;; This function calls:
 13279 ;;		Nothing
 13280 ;; This function is called by:
 13281 ;;		_parse_features
 13282 ;;		_process_command
 13283 ;; This function uses a non-reentrant model
 13284 ;;
 13285                           
 13286     270F                     _strlen:	
 13287                           ;psect for function _strlen
 13288                           
 13289                           
 13290                           ;incstack = 0
 13291                           ; Regs used in _strlen: [wreg+fsr1l+fsr1h+status,2+status,0]
 13292                           ;strlen@s stored from wreg
 13293     270F  00F4               	movwf	strlen@s
 13294     2710                     l3520:
 13295     2710  0874               	movf	strlen@s,w
 13296     2711  00F3               	movwf	strlen@a
 13297     2712  2F17               	goto	l3524
 13298     2713                     l3522:
 13299     2713  3001               	movlw	1
 13300     2714  00F2               	movwf	??_strlen
 13301     2715  0872               	movf	??_strlen,w
 13302     2716  07F4               	addwf	strlen@s,f
 13303     2717                     l3524:
 13304     2717  0874               	movf	strlen@s,w
 13305     2718  0086               	movwf	6
 13306     2719  3002               	movlw	2	; select bank4/5
 13307     271A  0087               	movwf	7
 13308     271B  0801               	movf	1,w
 13309     271C  1D03               	btfss	3,2
 13310     271D  2F1F               	goto	u5151
 13311     271E  2F20               	goto	u5150
 13312     271F                     u5151:
 13313     271F  2F13               	goto	l3522
 13314     2720                     u5150:
 13315     2720                     l3526:
 13316     2720  0873               	movf	strlen@a,w
 13317     2721  0274               	subwf	strlen@s,w
 13318     2722  00F0               	movwf	?_strlen
 13319     2723  01F1               	clrf	?_strlen+1
 13320     2724  1BF0               	btfsc	?_strlen,7
 13321     2725  03F1               	decf	?_strlen+1,f
 13322     2726                     l784:
 13323     2726  0008               	return
 13324     2727                     __end_of_strlen:
 13325                           
 13326                           	psect	text33
 13327     273F                     __ptext33:	
 13328 ;; *************** function _memset *****************
 13329 ;; Defined at:
 13330 ;;		line 3 in file "C:\Program Files\Microchip\xc8\v2.46\pic\sources\c99\common\memset.c"
 13331 ;; Parameters:    Size  Location     Type
 13332 ;;  dest            1    wreg     PTR void 
 13333 ;;		 -> rx_buffer(64), 
 13334 ;;  c               2    0[COMMON] int 
 13335 ;;  n               2    2[COMMON] unsigned int 
 13336 ;; Auto vars:     Size  Location     Type
 13337 ;;  dest            1    6[COMMON] PTR void 
 13338 ;;		 -> rx_buffer(64), 
 13339 ;;  p               1    5[COMMON] PTR unsigned char 
 13340 ;;		 -> rx_buffer(64), 
 13341 ;; Return value:  Size  Location     Type
 13342 ;;                  1    wreg      PTR void 
 13343 ;; Registers used:
 13344 ;;		wreg, fsr1l, fsr1h, status,2, status,0
 13345 ;; Tracked objects:
 13346 ;;		On entry : 0/0
 13347 ;;		On exit  : 0/0
 13348 ;;		Unchanged: 0/0
 13349 ;; Data sizes:     COMMON   BANK0   BANK1   BANK2   BANK3   BANK4   BANK5   BANK6   BANK7   BANK8   BANK9  BANK10  BANK1
      +1  BANK12  BANK13  BANK14  BANK15  BANK16  BANK17  BANK18  BANK19  BANK20  BANK21  BANK22  BANK23  BANK24  BANK25
 13350 ;;      Params:         4       0       0       0       0       0       0       0       0       0       0       0       
      +0       0       0       0       0       0       0       0       0       0       0       0       0       0       0
 13351 ;;      Locals:         2       0       0       0       0       0       0       0       0       0       0       0       
      +0       0       0       0       0       0       0       0       0       0       0       0       0       0       0
 13352 ;;      Temps:          1       0       0       0       0       0       0       0       0       0       0       0       
      +0       0       0       0       0       0       0       0       0       0       0       0       0       0       0
 13353 ;;      Totals:         7       0       0       0       0       0       0       0       0       0       0       0       
      +0       0       0       0       0       0       0       0       0       0       0       0       0       0       0
 13354 ;;Total ram usage:        7 bytes
 13355 ;; Hardware stack levels used: 1
 13356 ;; This function calls:
 13357 ;;		Nothing
 13358 ;; This function is called by:
 13359 ;;		_main
 13360 ;; This function uses a non-reentrant model
 13361 ;;
 13362                           
 13363     273F                     _memset:	
 13364                           ;psect for function _memset
 13365                           
 13366                           
 13367                           ;incstack = 0
 13368                           ; Regs used in _memset: [wreg+fsr1l+fsr1h+status,2+status,0]
 13369                           ;memset@dest stored from wreg
 13370     273F  00F6               	movwf	memset@dest
 13371     2740                     l4182:
 13372     2740  0876               	movf	memset@dest,w
 13373     2741  00F5               	movwf	memset@p
 13374     2742  2F4D               	goto	l4188
 13375     2743                     l4184:
 13376     2743  0875               	movf	memset@p,w
 13377     2744  0086               	movwf	6
 13378     2745  3002               	movlw	2	; select bank4/5
 13379     2746  0087               	movwf	7
 13380     2747  0870               	movf	memset@c,w
 13381     2748  0081               	movwf	1
 13382     2749                     l4186:
 13383     2749  3001               	movlw	1
 13384     274A  00F4               	movwf	??_memset
 13385     274B  0874               	movf	??_memset,w
 13386     274C  07F5               	addwf	memset@p,f
 13387     274D                     l4188:
 13388     274D  3001               	movlw	1
 13389     274E  02F2               	subwf	memset@n,f
 13390     274F  3000               	movlw	0
 13391     2750  3BF3               	subwfb	memset@n+1,f
 13392     2751  0A72               	incf	memset@n,w
 13393     2752  1D03               	skipz
 13394     2753  2F58               	goto	u6551
 13395     2754  0A73               	incf	memset@n+1,w
 13396     2755  1D03               	btfss	3,2
 13397     2756  2F58               	goto	u6551
 13398     2757  2F59               	goto	u6550
 13399     2758                     u6551:
 13400     2758  2F43               	goto	l4184
 13401     2759                     u6550:
 13402     2759                     l778:
 13403     2759  0008               	return
 13404     275A                     __end_of_memset:
 13405                           
 13406                           	psect	text34
 13407     19F0                     __ptext34:	
 13408 ;; *************** function _initMain *****************
 13409 ;; Defined at:
 13410 ;;		line 34 in file "main.c"
 13411 ;; Parameters:    Size  Location     Type
 13412 ;;		None
 13413 ;; Auto vars:     Size  Location     Type
 13414 ;;		None
 13415 ;; Return value:  Size  Location     Type
 13416 ;;                  1    wreg      void 
 13417 ;; Registers used:
 13418 ;;		wreg, status,2, status,0, pclath, cstack
 13419 ;; Tracked objects:
 13420 ;;		On entry : 0/0
 13421 ;;		On exit  : 0/0
 13422 ;;		Unchanged: 0/0
 13423 ;; Data sizes:     COMMON   BANK0   BANK1   BANK2   BANK3   BANK4   BANK5   BANK6   BANK7   BANK8   BANK9  BANK10  BANK1
      +1  BANK12  BANK13  BANK14  BANK15  BANK16  BANK17  BANK18  BANK19  BANK20  BANK21  BANK22  BANK23  BANK24  BANK25
 13424 ;;      Params:         0       0       0       0       0       0       0       0       0       0       0       0       
      +0       0       0       0       0       0       0       0       0       0       0       0       0       0       0
 13425 ;;      Locals:         0       0       0       0       0       0       0       0       0       0       0       0       
      +0       0       0       0       0       0       0       0       0       0       0       0       0       0       0
 13426 ;;      Temps:          2       0       0       0       0       0       0       0       0       0       0       0       
      +0       0       0       0       0       0       0       0       0       0       0       0       0       0       0
 13427 ;;      Totals:         2       0       0       0       0       0       0       0       0       0       0       0       
      +0       0       0       0       0       0       0       0       0       0       0       0       0       0       0
 13428 ;;Total ram usage:        2 bytes
 13429 ;; Hardware stack levels used: 1
 13430 ;; Hardware stack levels required when called: 1
 13431 ;; This function calls:
 13432 ;;		_internal_32
 13433 ;; This function is called by:
 13434 ;;		_main
 13435 ;; This function uses a non-reentrant model
 13436 ;;
 13437                           
 13438     19F0                     _initMain:	
 13439                           ;psect for function _initMain
 13440                           
 13441     19F0                     l4096:	
 13442                           ;incstack = 0
 13443                           ; Regs used in _initMain: [wreg+status,2+status,0+pclath+cstack]
 13444                           
 13445                           
 13446                           ;main.c: 37:     internal_32();
 13447     19F0  31A6  26C8  3199   	fcall	_internal_32
 13448     19F3                     l4098:
 13449                           
 13450                           ;main.c: 40:     _delay((unsigned long)((100)*(32000000/4000.0)));
 13451     19F3  3005               	movlw	5
 13452     19F4  00F1               	movwf	??_initMain+1
 13453     19F5  300F               	movlw	15
 13454     19F6  00F0               	movwf	??_initMain
 13455     19F7  30F1               	movlw	241
 13456     19F8                     u6977:
 13457     19F8  0B89               	decfsz	9,f
 13458     19F9  29F8               	goto	u6977
 13459     19FA  0BF0               	decfsz	??_initMain,f
 13460     19FB  29F8               	goto	u6977
 13461     19FC  0BF1               	decfsz	??_initMain+1,f
 13462     19FD  29F8               	goto	u6977
 13463     19FE  0000               	nop
 13464     19FF                     l4100:
 13465                           
 13466                           ;main.c: 43:     TRISBbits.TRISB2 = 0;
 13467     19FF  0021               	movlb	1	; select bank1
 13468     1A00  110D               	bcf	13,2	;volatile
 13469     1A01                     l4102:
 13470                           
 13471                           ;main.c: 44:     ANSELBbits.ANSB2 = 0;
 13472     1A01  0023               	movlb	3	; select bank3
 13473     1A02  110D               	bcf	13,2	;volatile
 13474     1A03                     l4104:
 13475                           
 13476                           ;main.c: 47:     TRISBbits.TRISB3 = 1;
 13477     1A03  0021               	movlb	1	; select bank1
 13478     1A04  158D               	bsf	13,3	;volatile
 13479     1A05                     l4106:
 13480                           
 13481                           ;main.c: 48:     ANSELBbits.ANSB3 = 0;
 13482     1A05  0023               	movlb	3	; select bank3
 13483     1A06  118D               	bcf	13,3	;volatile
 13484     1A07                     l4108:
 13485                           
 13486                           ;main.c: 51:     PPSLOCK = 0x55;
 13487     1A07  3055               	movlw	85
 13488     1A08  003C               	movlb	28	; select bank28
 13489     1A09  008F               	movwf	15	;volsfr
 13490     1A0A                     l4110:
 13491                           
 13492                           ;main.c: 52:     PPSLOCK = 0xAA;
 13493     1A0A  30AA               	movlw	170
 13494     1A0B  008F               	movwf	15	;volsfr
 13495     1A0C                     l4112:
 13496                           
 13497                           ;main.c: 53:     PPSLOCKbits.PPSLOCKED = 0x00;
 13498     1A0C  100F               	bcf	15,0	;volsfr
 13499     1A0D                     l4114:
 13500                           
 13501                           ;main.c: 55:     RB2PPSbits.RB2PPS = 0x14;
 13502     1A0D  003D               	movlb	29	; select bank29
 13503     1A0E  081A               	movf	26,w	;volatile
 13504     1A0F  39E0               	andlw	-32
 13505     1A10  3814               	iorlw	20
 13506     1A11  009A               	movwf	26	;volatile
 13507     1A12                     l4116:
 13508                           
 13509                           ;main.c: 56:     RXPPSbits.RXPPS = 0x0B;
 13510     1A12  003C               	movlb	28	; select bank28
 13511     1A13  0824               	movf	36,w	;volatile
 13512     1A14  39E0               	andlw	-32
 13513     1A15  380B               	iorlw	11
 13514     1A16  00A4               	movwf	36	;volatile
 13515     1A17                     l4118:
 13516                           
 13517                           ;main.c: 58:     PPSLOCK = 0x55;
 13518     1A17  3055               	movlw	85
 13519     1A18  008F               	movwf	15	;volsfr
 13520     1A19                     l4120:
 13521                           
 13522                           ;main.c: 59:     PPSLOCK = 0xAA;
 13523     1A19  30AA               	movlw	170
 13524     1A1A  008F               	movwf	15	;volsfr
 13525     1A1B                     l4122:
 13526                           
 13527                           ;main.c: 60:     PPSLOCKbits.PPSLOCKED = 0x01;
 13528     1A1B  140F               	bsf	15,0	;volsfr
 13529     1A1C                     l182:
 13530     1A1C  0008               	return
 13531     1A1D                     __end_of_initMain:
 13532                           
 13533                           	psect	text35
 13534     26C8                     __ptext35:	
 13535 ;; *************** function _internal_32 *****************
 13536 ;; Defined at:
 13537 ;;		line 36 in file "PIC16F1718_Internal.c"
 13538 ;; Parameters:    Size  Location     Type
 13539 ;;		None
 13540 ;; Auto vars:     Size  Location     Type
 13541 ;;		None
 13542 ;; Return value:  Size  Location     Type
 13543 ;;                  1    wreg      void 
 13544 ;; Registers used:
 13545 ;;		None
 13546 ;; Tracked objects:
 13547 ;;		On entry : 0/0
 13548 ;;		On exit  : 0/0
 13549 ;;		Unchanged: 0/0
 13550 ;; Data sizes:     COMMON   BANK0   BANK1   BANK2   BANK3   BANK4   BANK5   BANK6   BANK7   BANK8   BANK9  BANK10  BANK1
      +1  BANK12  BANK13  BANK14  BANK15  BANK16  BANK17  BANK18  BANK19  BANK20  BANK21  BANK22  BANK23  BANK24  BANK25
 13551 ;;      Params:         0       0       0       0       0       0       0       0       0       0       0       0       
      +0       0       0       0       0       0       0       0       0       0       0       0       0       0       0
 13552 ;;      Locals:         0       0       0       0       0       0       0       0       0       0       0       0       
      +0       0       0       0       0       0       0       0       0       0       0       0       0       0       0
 13553 ;;      Temps:          0       0       0       0       0       0       0       0       0       0       0       0       
      +0       0       0       0       0       0       0       0       0       0       0       0       0       0       0
 13554 ;;      Totals:         0       0       0       0       0       0       0       0       0       0       0       0       
      +0       0       0       0       0       0       0       0       0       0       0       0       0       0       0
 13555 ;;Total ram usage:        0 bytes
 13556 ;; Hardware stack levels used: 1
 13557 ;; This function calls:
 13558 ;;		Nothing
 13559 ;; This function is called by:
 13560 ;;		_initMain
 13561 ;; This function uses a non-reentrant model
 13562 ;;
 13563                           
 13564     26C8                     _internal_32:	
 13565                           ;psect for function _internal_32
 13566                           
 13567     26C8                     l3940:	
 13568                           ;incstack = 0
 13569                           ; Regs used in _internal_32: []
 13570                           
 13571                           
 13572                           ;PIC16F1718_Internal.c: 38:     SCS0 = 0;
 13573     26C8  0021               	movlb	1	; select bank1
 13574     26C9  1019               	bcf	25,0	;volatile
 13575                           
 13576                           ;PIC16F1718_Internal.c: 39:     SCS1 = 0;
 13577     26CA  1099               	bcf	25,1	;volatile
 13578                           
 13579                           ;PIC16F1718_Internal.c: 42:     IRCF0 = 0;
 13580     26CB  1199               	bcf	25,3	;volatile
 13581                           
 13582                           ;PIC16F1718_Internal.c: 43:     IRCF1 = 1;
 13583     26CC  1619               	bsf	25,4	;volatile
 13584                           
 13585                           ;PIC16F1718_Internal.c: 44:     IRCF2 = 1;
 13586     26CD  1699               	bsf	25,5	;volatile
 13587                           
 13588                           ;PIC16F1718_Internal.c: 45:     IRCF3 = 1;
 13589     26CE  1719               	bsf	25,6	;volatile
 13590                           
 13591                           ;PIC16F1718_Internal.c: 48:     SPLLEN = 1;
 13592     26CF  1799               	bsf	25,7	;volatile
 13593     26D0                     l83:
 13594     26D0  0008               	return
 13595     26D1                     __end_of_internal_32:
 13596                           
 13597                           	psect	text36
 13598     0800                     __ptext36:	
 13599 ;; *************** function _EUSART_Read *****************
 13600 ;; Defined at:
 13601 ;;		line 62 in file "EUSART.c"
 13602 ;; Parameters:    Size  Location     Type
 13603 ;;		None
 13604 ;; Auto vars:     Size  Location     Type
 13605 ;;		None
 13606 ;; Return value:  Size  Location     Type
 13607 ;;                  1    wreg      unsigned char 
 13608 ;; Registers used:
 13609 ;;		wreg
 13610 ;; Tracked objects:
 13611 ;;		On entry : 0/0
 13612 ;;		On exit  : 0/0
 13613 ;;		Unchanged: 0/0
 13614 ;; Data sizes:     COMMON   BANK0   BANK1   BANK2   BANK3   BANK4   BANK5   BANK6   BANK7   BANK8   BANK9  BANK10  BANK1
      +1  BANK12  BANK13  BANK14  BANK15  BANK16  BANK17  BANK18  BANK19  BANK20  BANK21  BANK22  BANK23  BANK24  BANK25
 13615 ;;      Params:         0       0       0       0       0       0       0       0       0       0       0       0       
      +0       0       0       0       0       0       0       0       0       0       0       0       0       0       0
 13616 ;;      Locals:         0       0       0       0       0       0       0       0       0       0       0       0       
      +0       0       0       0       0       0       0       0       0       0       0       0       0       0       0
 13617 ;;      Temps:          0       0       0       0       0       0       0       0       0       0       0       0       
      +0       0       0       0       0       0       0       0       0       0       0       0       0       0       0
 13618 ;;      Totals:         0       0       0       0       0       0       0       0       0       0       0       0       
      +0       0       0       0       0       0       0       0       0       0       0       0       0       0       0
 13619 ;;Total ram usage:        0 bytes
 13620 ;; Hardware stack levels used: 1
 13621 ;; This function calls:
 13622 ;;		Nothing
 13623 ;; This function is called by:
 13624 ;;		_main
 13625 ;;		_EUSART_Read_Text
 13626 ;; This function uses a non-reentrant model
 13627 ;;
 13628                           
 13629     0800                     _EUSART_Read:	
 13630                           ;psect for function _EUSART_Read
 13631                           
 13632     0800                     l4088:	
 13633                           ;incstack = 0
 13634                           ; Regs used in _EUSART_Read: [wreg]
 13635                           
 13636                           
 13637                           ;EUSART.c: 65:    RC1STAbits.SREN = 1;
 13638     0800  0023               	movlb	3	; select bank3
 13639     0801  169D               	bsf	29,5	;volatile
 13640     0802                     l28:	
 13641                           ;EUSART.c: 67:     {;EUSART.c: 68:     }
 13642                           
 13643                           
 13644                           ;EUSART.c: 66:     while(!PIR1bits.RCIF)
 13645     0802  0020               	movlb	0	; select bank0
 13646     0803  1E91               	btfss	17,5	;volatile
 13647     0804  2806               	goto	u6431
 13648     0805  2807               	goto	u6430
 13649     0806                     u6431:
 13650     0806  2802               	goto	l28
 13651     0807                     u6430:
 13652     0807                     l30:
 13653                           
 13654                           ;EUSART.c: 70:     if(1 == RC1STAbits.OERR)
 13655     0807  0023               	movlb	3	; select bank3
 13656     0808  1C9D               	btfss	29,1	;volatile
 13657     0809  280B               	goto	u6441
 13658     080A  280C               	goto	u6440
 13659     080B                     u6441:
 13660     080B  280E               	goto	l4092
 13661     080C                     u6440:
 13662     080C                     l4090:
 13663                           
 13664                           ;EUSART.c: 71:     {;EUSART.c: 74:         RC1STAbits.SPEN = 0;
 13665     080C  139D               	bcf	29,7	;volatile
 13666                           
 13667                           ;EUSART.c: 75:         RC1STAbits.SPEN = 1;
 13668     080D  179D               	bsf	29,7	;volatile
 13669     080E                     l4092:
 13670                           
 13671                           ;EUSART.c: 78:     return RC1REG;
 13672     080E  0819               	movf	25,w	;volatile
 13673     080F                     l32:
 13674     080F  0008               	return
 13675     0810                     __end_of_EUSART_Read:
 13676                           
 13677                           	psect	text37
 13678     1B1C                     __ptext37:	
 13679 ;; *************** function _EUSART_Initialize *****************
 13680 ;; Defined at:
 13681 ;;		line 36 in file "EUSART.c"
 13682 ;; Parameters:    Size  Location     Type
 13683 ;;  baudrate        4    6[BANK0 ] const long 
 13684 ;; Auto vars:     Size  Location     Type
 13685 ;;  x               2    9[COMMON] unsigned int 
 13686 ;; Return value:  Size  Location     Type
 13687 ;;                  1    wreg      unsigned char 
 13688 ;; Registers used:
 13689 ;;		wreg, status,2, status,0, pclath, cstack
 13690 ;; Tracked objects:
 13691 ;;		On entry : 0/0
 13692 ;;		On exit  : 0/0
 13693 ;;		Unchanged: 0/0
 13694 ;; Data sizes:     COMMON   BANK0   BANK1   BANK2   BANK3   BANK4   BANK5   BANK6   BANK7   BANK8   BANK9  BANK10  BANK1
      +1  BANK12  BANK13  BANK14  BANK15  BANK16  BANK17  BANK18  BANK19  BANK20  BANK21  BANK22  BANK23  BANK24  BANK25
 13695 ;;      Params:         0       4       0       0       0       0       0       0       0       0       0       0       
      +0       0       0       0       0       0       0       0       0       0       0       0       0       0       0
 13696 ;;      Locals:         2       0       0       0       0       0       0       0       0       0       0       0       
      +0       0       0       0       0       0       0       0       0       0       0       0       0       0       0
 13697 ;;      Temps:          0      12       0       0       0       0       0       0       0       0       0       0       
      +0       0       0       0       0       0       0       0       0       0       0       0       0       0       0
 13698 ;;      Totals:         2      16       0       0       0       0       0       0       0       0       0       0       
      +0       0       0       0       0       0       0       0       0       0       0       0       0       0       0
 13699 ;;Total ram usage:       18 bytes
 13700 ;; Hardware stack levels used: 1
 13701 ;; Hardware stack levels required when called: 1
 13702 ;; This function calls:
 13703 ;;		___aldiv
 13704 ;; This function is called by:
 13705 ;;		_main
 13706 ;; This function uses a non-reentrant model
 13707 ;;
 13708                           
 13709     1B1C                     _EUSART_Initialize:	
 13710                           ;psect for function _EUSART_Initialize
 13711                           
 13712     1B1C                     l4070:	
 13713                           ;incstack = 0
 13714                           ; Regs used in _EUSART_Initialize: [wreg+status,2+status,0+pclath+cstack]
 13715                           
 13716                           
 13717                           ;EUSART.c: 36: char EUSART_Initialize(const long int baudrate);EUSART.c: 37: {;EUSART.c:
      +                           38:     unsigned int x;;EUSART.c: 39:  x = (32000000 - baudrate*64)/(baudrate*64);
 13718     1B1C  0020               	movlb	0	; select bank0
 13719     1B1D  0826               	movf	EUSART_Initialize@baudrate,w
 13720     1B1E  00AA               	movwf	??_EUSART_Initialize
 13721     1B1F  0827               	movf	EUSART_Initialize@baudrate+1,w
 13722     1B20  00AB               	movwf	??_EUSART_Initialize+1
 13723     1B21  0828               	movf	EUSART_Initialize@baudrate+2,w
 13724     1B22  00AC               	movwf	??_EUSART_Initialize+2
 13725     1B23  0829               	movf	EUSART_Initialize@baudrate+3,w
 13726     1B24  00AD               	movwf	??_EUSART_Initialize+3
 13727     1B25  3006               	movlw	6
 13728     1B26                     u6415:
 13729     1B26  35AA               	lslf	??_EUSART_Initialize,f
 13730     1B27  0DAB               	rlf	??_EUSART_Initialize+1,f
 13731     1B28  0DAC               	rlf	??_EUSART_Initialize+2,f
 13732     1B29  0DAD               	rlf	??_EUSART_Initialize+3,f
 13733     1B2A                     u6410:
 13734     1B2A  0B89               	decfsz	9,f
 13735     1B2B  2B26               	goto	u6415
 13736     1B2C  082D               	movf	??_EUSART_Initialize+3,w
 13737     1B2D  00F3               	movwf	___aldiv@divisor+3
 13738     1B2E  082C               	movf	??_EUSART_Initialize+2,w
 13739     1B2F  00F2               	movwf	___aldiv@divisor+2
 13740     1B30  082B               	movf	??_EUSART_Initialize+1,w
 13741     1B31  00F1               	movwf	___aldiv@divisor+1
 13742     1B32  082A               	movf	??_EUSART_Initialize,w
 13743     1B33  00F0               	movwf	___aldiv@divisor
 13744     1B34  0826               	movf	EUSART_Initialize@baudrate,w
 13745     1B35  00AE               	movwf	??_EUSART_Initialize+4
 13746     1B36  0827               	movf	EUSART_Initialize@baudrate+1,w
 13747     1B37  00AF               	movwf	??_EUSART_Initialize+5
 13748     1B38  0828               	movf	EUSART_Initialize@baudrate+2,w
 13749     1B39  00B0               	movwf	??_EUSART_Initialize+6
 13750     1B3A  0829               	movf	EUSART_Initialize@baudrate+3,w
 13751     1B3B  00B1               	movwf	??_EUSART_Initialize+7
 13752     1B3C  3006               	movlw	6
 13753     1B3D                     u6425:
 13754     1B3D  35AE               	lslf	??_EUSART_Initialize+4,f
 13755     1B3E  0DAF               	rlf	??_EUSART_Initialize+5,f
 13756     1B3F  0DB0               	rlf	??_EUSART_Initialize+6,f
 13757     1B40  0DB1               	rlf	??_EUSART_Initialize+7,f
 13758     1B41                     u6420:
 13759     1B41  0B89               	decfsz	9,f
 13760     1B42  2B3D               	goto	u6425
 13761     1B43  3000               	movlw	0
 13762     1B44  00B2               	movwf	??_EUSART_Initialize+8
 13763     1B45  3048               	movlw	72
 13764     1B46  00B3               	movwf	??_EUSART_Initialize+9
 13765     1B47  30E8               	movlw	232
 13766     1B48  00B4               	movwf	??_EUSART_Initialize+10
 13767     1B49  3001               	movlw	1
 13768     1B4A  00B5               	movwf	??_EUSART_Initialize+11
 13769     1B4B  082E               	movf	??_EUSART_Initialize+4,w
 13770     1B4C  02B2               	subwf	??_EUSART_Initialize+8,f
 13771     1B4D  082F               	movf	??_EUSART_Initialize+5,w
 13772     1B4E  3BB3               	subwfb	??_EUSART_Initialize+9,f
 13773     1B4F  0830               	movf	??_EUSART_Initialize+6,w
 13774     1B50  3BB4               	subwfb	??_EUSART_Initialize+10,f
 13775     1B51  0831               	movf	??_EUSART_Initialize+7,w
 13776     1B52  3BB5               	subwfb	??_EUSART_Initialize+11,f
 13777     1B53  0835               	movf	??_EUSART_Initialize+11,w
 13778     1B54  00F7               	movwf	___aldiv@dividend+3
 13779     1B55  0834               	movf	??_EUSART_Initialize+10,w
 13780     1B56  00F6               	movwf	___aldiv@dividend+2
 13781     1B57  0833               	movf	??_EUSART_Initialize+9,w
 13782     1B58  00F5               	movwf	___aldiv@dividend+1
 13783     1B59  0832               	movf	??_EUSART_Initialize+8,w
 13784     1B5A  00F4               	movwf	___aldiv@dividend
 13785     1B5B  319D  25A0  319B   	fcall	___aldiv
 13786     1B5E  0871               	movf	?___aldiv+1,w
 13787     1B5F  00FA               	movwf	EUSART_Initialize@x+1
 13788     1B60  0870               	movf	?___aldiv,w
 13789     1B61  00F9               	movwf	EUSART_Initialize@x
 13790     1B62                     l4072:
 13791                           
 13792                           ;EUSART.c: 41:  SPBRGL = x;
 13793     1B62  0879               	movf	EUSART_Initialize@x,w
 13794     1B63  0023               	movlb	3	; select bank3
 13795     1B64  009B               	movwf	27	;volatile
 13796     1B65                     l4074:
 13797                           
 13798                           ;EUSART.c: 42:     BRGH = 0;
 13799     1B65  111E               	bcf	30,2	;volatile
 13800     1B66                     l4076:
 13801                           
 13802                           ;EUSART.c: 43:     BRG16 = 0;
 13803     1B66  119F               	bcf	31,3	;volatile
 13804     1B67                     l4078:
 13805                           
 13806                           ;EUSART.c: 44:     SYNC = 0;
 13807     1B67  121E               	bcf	30,4	;volatile
 13808     1B68                     l4080:
 13809                           
 13810                           ;EUSART.c: 45:     SPEN = 1;
 13811     1B68  179D               	bsf	29,7	;volatile
 13812     1B69                     l4082:
 13813                           
 13814                           ;EUSART.c: 46:     CREN = 1;
 13815     1B69  161D               	bsf	29,4	;volatile
 13816     1B6A                     l4084:
 13817                           
 13818                           ;EUSART.c: 47:     TXEN = 1;
 13819     1B6A  169E               	bsf	30,5	;volatile
 13820     1B6B                     l25:
 13821     1B6B  0008               	return
 13822     1B6C                     __end_of_EUSART_Initialize:
 13823                           
 13824                           	psect	text38
 13825     1DA0                     __ptext38:	
 13826 ;; *************** function ___aldiv *****************
 13827 ;; Defined at:
 13828 ;;		line 5 in file "C:\Program Files\Microchip\xc8\v2.46\pic\sources\c99\common\aldiv.c"
 13829 ;; Parameters:    Size  Location     Type
 13830 ;;  divisor         4    0[COMMON] long 
 13831 ;;  dividend        4    4[COMMON] long 
 13832 ;; Auto vars:     Size  Location     Type
 13833 ;;  quotient        4    2[BANK0 ] long 
 13834 ;;  sign            1    1[BANK0 ] unsigned char 
 13835 ;;  counter         1    0[BANK0 ] unsigned char 
 13836 ;; Return value:  Size  Location     Type
 13837 ;;                  4    0[COMMON] long 
 13838 ;; Registers used:
 13839 ;;		wreg, status,2, status,0
 13840 ;; Tracked objects:
 13841 ;;		On entry : 0/0
 13842 ;;		On exit  : 0/0
 13843 ;;		Unchanged: 0/0
 13844 ;; Data sizes:     COMMON   BANK0   BANK1   BANK2   BANK3   BANK4   BANK5   BANK6   BANK7   BANK8   BANK9  BANK10  BANK1
      +1  BANK12  BANK13  BANK14  BANK15  BANK16  BANK17  BANK18  BANK19  BANK20  BANK21  BANK22  BANK23  BANK24  BANK25
 13845 ;;      Params:         8       0       0       0       0       0       0       0       0       0       0       0       
      +0       0       0       0       0       0       0       0       0       0       0       0       0       0       0
 13846 ;;      Locals:         0       6       0       0       0       0       0       0       0       0       0       0       
      +0       0       0       0       0       0       0       0       0       0       0       0       0       0       0
 13847 ;;      Temps:          1       0       0       0       0       0       0       0       0       0       0       0       
      +0       0       0       0       0       0       0       0       0       0       0       0       0       0       0
 13848 ;;      Totals:         9       6       0       0       0       0       0       0       0       0       0       0       
      +0       0       0       0       0       0       0       0       0       0       0       0       0       0       0
 13849 ;;Total ram usage:       15 bytes
 13850 ;; Hardware stack levels used: 1
 13851 ;; This function calls:
 13852 ;;		Nothing
 13853 ;; This function is called by:
 13854 ;;		_EUSART_Initialize
 13855 ;; This function uses a non-reentrant model
 13856 ;;
 13857                           
 13858     1DA0                     ___aldiv:	
 13859                           ;psect for function ___aldiv
 13860                           
 13861     1DA0                     l4030:	
 13862                           ;incstack = 0
 13863                           ; Regs used in ___aldiv: [wreg+status,2+status,0]
 13864                           
 13865     1DA0  0020               	movlb	0	; select bank0
 13866     1DA1  01A1               	clrf	___aldiv@sign
 13867     1DA2                     l4032:
 13868     1DA2  1FF3               	btfss	___aldiv@divisor+3,7
 13869     1DA3  2DA5               	goto	u6311
 13870     1DA4  2DA6               	goto	u6310
 13871     1DA5                     u6311:
 13872     1DA5  2DB3               	goto	l381
 13873     1DA6                     u6310:
 13874     1DA6                     l4034:
 13875     1DA6  09F0               	comf	___aldiv@divisor,f
 13876     1DA7  09F1               	comf	___aldiv@divisor+1,f
 13877     1DA8  09F2               	comf	___aldiv@divisor+2,f
 13878     1DA9  09F3               	comf	___aldiv@divisor+3,f
 13879     1DAA  0AF0               	incf	___aldiv@divisor,f
 13880     1DAB  1903               	skipnz
 13881     1DAC  0AF1               	incf	___aldiv@divisor+1,f
 13882     1DAD  1903               	skipnz
 13883     1DAE  0AF2               	incf	___aldiv@divisor+2,f
 13884     1DAF  1903               	skipnz
 13885     1DB0  0AF3               	incf	___aldiv@divisor+3,f
 13886     1DB1  01A1               	clrf	___aldiv@sign
 13887     1DB2  0AA1               	incf	___aldiv@sign,f
 13888     1DB3                     l381:
 13889     1DB3  1FF7               	btfss	___aldiv@dividend+3,7
 13890     1DB4  2DB6               	goto	u6321
 13891     1DB5  2DB7               	goto	u6320
 13892     1DB6                     u6321:
 13893     1DB6  2DC6               	goto	l4040
 13894     1DB7                     u6320:
 13895     1DB7                     l4036:
 13896     1DB7  09F4               	comf	___aldiv@dividend,f
 13897     1DB8  09F5               	comf	___aldiv@dividend+1,f
 13898     1DB9  09F6               	comf	___aldiv@dividend+2,f
 13899     1DBA  09F7               	comf	___aldiv@dividend+3,f
 13900     1DBB  0AF4               	incf	___aldiv@dividend,f
 13901     1DBC  1903               	skipnz
 13902     1DBD  0AF5               	incf	___aldiv@dividend+1,f
 13903     1DBE  1903               	skipnz
 13904     1DBF  0AF6               	incf	___aldiv@dividend+2,f
 13905     1DC0  1903               	skipnz
 13906     1DC1  0AF7               	incf	___aldiv@dividend+3,f
 13907     1DC2                     l4038:
 13908     1DC2  3001               	movlw	1
 13909     1DC3  00F8               	movwf	??___aldiv
 13910     1DC4  0878               	movf	??___aldiv,w
 13911     1DC5  06A1               	xorwf	___aldiv@sign,f
 13912     1DC6                     l4040:
 13913     1DC6  3000               	movlw	0
 13914     1DC7  00A5               	movwf	___aldiv@quotient+3
 13915     1DC8  3000               	movlw	0
 13916     1DC9  00A4               	movwf	___aldiv@quotient+2
 13917     1DCA  3000               	movlw	0
 13918     1DCB  00A3               	movwf	___aldiv@quotient+1
 13919     1DCC  3000               	movlw	0
 13920     1DCD  00A2               	movwf	___aldiv@quotient
 13921     1DCE                     l4042:
 13922     1DCE  0873               	movf	___aldiv@divisor+3,w
 13923     1DCF  0472               	iorwf	___aldiv@divisor+2,w
 13924     1DD0  0471               	iorwf	___aldiv@divisor+1,w
 13925     1DD1  0470               	iorwf	___aldiv@divisor,w
 13926     1DD2  1903               	skipnz
 13927     1DD3  2DD5               	goto	u6331
 13928     1DD4  2DD6               	goto	u6330
 13929     1DD5                     u6331:
 13930     1DD5  2E17               	goto	l4062
 13931     1DD6                     u6330:
 13932     1DD6                     l4044:
 13933     1DD6  01A0               	clrf	___aldiv@counter
 13934     1DD7  0AA0               	incf	___aldiv@counter,f
 13935     1DD8  2DE4               	goto	l4048
 13936     1DD9                     l4046:
 13937     1DD9  3001               	movlw	1
 13938     1DDA                     u6345:
 13939     1DDA  35F0               	lslf	___aldiv@divisor,f
 13940     1DDB  0DF1               	rlf	___aldiv@divisor+1,f
 13941     1DDC  0DF2               	rlf	___aldiv@divisor+2,f
 13942     1DDD  0DF3               	rlf	___aldiv@divisor+3,f
 13943     1DDE  0B89               	decfsz	9,f
 13944     1DDF  2DDA               	goto	u6345
 13945     1DE0  3001               	movlw	1
 13946     1DE1  00F8               	movwf	??___aldiv
 13947     1DE2  0878               	movf	??___aldiv,w
 13948     1DE3  07A0               	addwf	___aldiv@counter,f
 13949     1DE4                     l4048:
 13950     1DE4  1FF3               	btfss	___aldiv@divisor+3,7
 13951     1DE5  2DE7               	goto	u6351
 13952     1DE6  2DE8               	goto	u6350
 13953     1DE7                     u6351:
 13954     1DE7  2DD9               	goto	l4046
 13955     1DE8                     u6350:
 13956     1DE8                     l4050:
 13957     1DE8  3001               	movlw	1
 13958     1DE9                     u6365:
 13959     1DE9  35A2               	lslf	___aldiv@quotient,f
 13960     1DEA  0DA3               	rlf	___aldiv@quotient+1,f
 13961     1DEB  0DA4               	rlf	___aldiv@quotient+2,f
 13962     1DEC  0DA5               	rlf	___aldiv@quotient+3,f
 13963     1DED  0B89               	decfsz	9,f
 13964     1DEE  2DE9               	goto	u6365
 13965     1DEF                     l4052:
 13966     1DEF  0873               	movf	___aldiv@divisor+3,w
 13967     1DF0  0277               	subwf	___aldiv@dividend+3,w
 13968     1DF1  1D03               	skipz
 13969     1DF2  2DFD               	goto	u6375
 13970     1DF3  0872               	movf	___aldiv@divisor+2,w
 13971     1DF4  0276               	subwf	___aldiv@dividend+2,w
 13972     1DF5  1D03               	skipz
 13973     1DF6  2DFD               	goto	u6375
 13974     1DF7  0871               	movf	___aldiv@divisor+1,w
 13975     1DF8  0275               	subwf	___aldiv@dividend+1,w
 13976     1DF9  1D03               	skipz
 13977     1DFA  2DFD               	goto	u6375
 13978     1DFB  0870               	movf	___aldiv@divisor,w
 13979     1DFC  0274               	subwf	___aldiv@dividend,w
 13980     1DFD                     u6375:
 13981     1DFD  1C03               	skipc
 13982     1DFE  2E00               	goto	u6371
 13983     1DFF  2E01               	goto	u6370
 13984     1E00                     u6371:
 13985     1E00  2E0A               	goto	l4058
 13986     1E01                     u6370:
 13987     1E01                     l4054:
 13988     1E01  0870               	movf	___aldiv@divisor,w
 13989     1E02  02F4               	subwf	___aldiv@dividend,f
 13990     1E03  0871               	movf	___aldiv@divisor+1,w
 13991     1E04  3BF5               	subwfb	___aldiv@dividend+1,f
 13992     1E05  0872               	movf	___aldiv@divisor+2,w
 13993     1E06  3BF6               	subwfb	___aldiv@dividend+2,f
 13994     1E07  0873               	movf	___aldiv@divisor+3,w
 13995     1E08  3BF7               	subwfb	___aldiv@dividend+3,f
 13996     1E09                     l4056:
 13997     1E09  1422               	bsf	___aldiv@quotient,0
 13998     1E0A                     l4058:
 13999     1E0A  3001               	movlw	1
 14000     1E0B                     u6385:
 14001     1E0B  36F3               	lsrf	___aldiv@divisor+3,f
 14002     1E0C  0CF2               	rrf	___aldiv@divisor+2,f
 14003     1E0D  0CF1               	rrf	___aldiv@divisor+1,f
 14004     1E0E  0CF0               	rrf	___aldiv@divisor,f
 14005     1E0F  0B89               	decfsz	9,f
 14006     1E10  2E0B               	goto	u6385
 14007     1E11                     l4060:
 14008     1E11  3001               	movlw	1
 14009     1E12  02A0               	subwf	___aldiv@counter,f
 14010     1E13  1D03               	btfss	3,2
 14011     1E14  2E16               	goto	u6391
 14012     1E15  2E17               	goto	u6390
 14013     1E16                     u6391:
 14014     1E16  2DE8               	goto	l4050
 14015     1E17                     u6390:
 14016     1E17                     l4062:
 14017     1E17  0821               	movf	___aldiv@sign,w
 14018     1E18  1903               	btfsc	3,2
 14019     1E19  2E1B               	goto	u6401
 14020     1E1A  2E1C               	goto	u6400
 14021     1E1B                     u6401:
 14022     1E1B  2E27               	goto	l4066
 14023     1E1C                     u6400:
 14024     1E1C                     l4064:
 14025     1E1C  09A2               	comf	___aldiv@quotient,f
 14026     1E1D  09A3               	comf	___aldiv@quotient+1,f
 14027     1E1E  09A4               	comf	___aldiv@quotient+2,f
 14028     1E1F  09A5               	comf	___aldiv@quotient+3,f
 14029     1E20  0AA2               	incf	___aldiv@quotient,f
 14030     1E21  1903               	skipnz
 14031     1E22  0AA3               	incf	___aldiv@quotient+1,f
 14032     1E23  1903               	skipnz
 14033     1E24  0AA4               	incf	___aldiv@quotient+2,f
 14034     1E25  1903               	skipnz
 14035     1E26  0AA5               	incf	___aldiv@quotient+3,f
 14036     1E27                     l4066:
 14037     1E27  0825               	movf	___aldiv@quotient+3,w
 14038     1E28  00F3               	movwf	?___aldiv+3
 14039     1E29  0824               	movf	___aldiv@quotient+2,w
 14040     1E2A  00F2               	movwf	?___aldiv+2
 14041     1E2B  0823               	movf	___aldiv@quotient+1,w
 14042     1E2C  00F1               	movwf	?___aldiv+1
 14043     1E2D  0822               	movf	___aldiv@quotient,w
 14044     1E2E  00F0               	movwf	?___aldiv
 14045     1E2F                     l391:
 14046     1E2F  0008               	return
 14047     1E30                     __end_of___aldiv:
 14048     007E                     btemp	set	126	;btemp
 14049     007E                     wtemp0	set	126
 14050     2784                     
 14051                           	psect	config
 14052                           
 14053                           ;Config register CONFIG1 @ 0x8007
 14054                           ;	Oscillator Selection Bits
 14055                           ;	FOSC = INTOSC, INTOSC oscillator: I/O function on CLKIN pin
 14056                           ;	Watchdog Timer Enable
 14057                           ;	WDTE = OFF, WDT disabled
 14058                           ;	Power-up Timer Enable
 14059                           ;	PWRTE = OFF, PWRT disabled
 14060                           ;	MCLR Pin Function Select
 14061                           ;	MCLRE = OFF, MCLR/VPP pin function is digital input if LVP bit is also 0.
 14062                           ;	Flash Program Memory Code Protection
 14063                           ;	CP = OFF, Program memory code protection is disabled
 14064                           ;	Brown-out Reset Enable
 14065                           ;	BOREN = OFF, Brown-out Reset disabled
 14066                           ;	Clock Out Enable
 14067                           ;	CLKOUTEN = OFF, CLKOUT function is disabled. I/O or oscillator function on the CLKOUT 
      +                          pin
 14068                           ;	Internal/External Switchover Mode
 14069                           ;	IESO = ON, Internal/External Switchover Mode is enabled
 14070                           ;	Fail-Safe Clock Monitor Enable
 14071                           ;	FCMEN = OFF, Fail-Safe Clock Monitor is disabled
 14072     8007                     	org	32775
 14073     8007  19A4               	dw	6564
 14074                           
 14075                           ;Config register CONFIG2 @ 0x8008
 14076                           ;	Flash Memory Self-Write Protection
 14077                           ;	WRT = OFF, Write protection off
 14078                           ;	Peripheral Pin Select one-way control
 14079                           ;	PPS1WAY = ON, The PPSLOCK bit cannot be cleared once it is set by software
 14080                           ;	Zero-cross detect disable
 14081                           ;	ZCDDIS = ON, ZCD disabled. ZCD can be enabled by setting the ZCDSEN bit of ZCDCON
 14082                           ;	Phase Lock Loop enable
 14083                           ;	PLLEN = OFF, 4x PLL is disabled
 14084                           ;	Stack Overflow/Underflow Reset Enable
 14085                           ;	STVREN = ON, Stack Overflow or Underflow will cause a Reset
 14086                           ;	Brown-out Reset Voltage Selection
 14087                           ;	BORV = LO, Brown-out Reset Voltage (Vbor), low trip point selected.
 14088                           ;	Low-Power Brown Out Reset
 14089                           ;	LPBOR = OFF, Low-Power BOR is disabled
 14090                           ;	In-Circuit Debugger Mode
 14091                           ;	DEBUG = 0x1, unprogrammed default
 14092                           ;	Low-Voltage Programming Enable
 14093                           ;	LVP = OFF, High-voltage on MCLR/VPP must be used for programming
 14094     8008                     	org	32776
 14095     8008  1EFF               	dw	7935

Data Sizes:
    Strings     319
    Constant    432
    Data        54
    BSS         82
    Persistent  32
    Stack       0

Auto Spaces:
    Space          Size  Autos    Used
    COMMON           14     14      14
    BANK0            80     80      80
    BANK1            80     80      80
    BANK2            80     73      79
    BANK3            80     20      38
    BANK4            80      0      48
    BANK5            80      0      64
    BANK6            80      0       0
    BANK7            80      0       0
    BANK8            80      0       0
    BANK9            80      0       0
    BANK10           80      0       0
    BANK11           80      0       0
    BANK12           80      0       0
    BANK13           80      0       0
    BANK14           80      0       0
    BANK15           80      0       0
    BANK16           80      0       0
    BANK17           80      0       0
    BANK18           80      0       0
    BANK19           80      0       0
    BANK20           80      0       0
    BANK21           80      0       0
    BANK22           80      0       0
    BANK23           80      0       0
    BANK24            4      0       0
    BANK25            0      0       0

Pointer List with Targets:

    EUSART_Write_Integer@ptr	PTR unsigned char  size(1) Largest target is 20
		 -> EUSART_Write_Integer@buffer(BANK0[20]), 

    EUSART_Write_Integer@temp_ptr	PTR unsigned char  size(1) Largest target is 20
		 -> EUSART_Write_Integer@buffer(BANK0[20]), 

    EUSART_Write_Text@text	PTR unsigned char  size(2) Largest target is 35
		 -> STR_1(CODE[7]), STR_10(CODE[17]), STR_11(CODE[13]), STR_12(CODE[20]), 
		 -> STR_13(CODE[24]), STR_14(CODE[35]), STR_15(CODE[3]), STR_16(CODE[17]), 
		 -> STR_17(CODE[10]), STR_18(CODE[4]), STR_19(CODE[3]), STR_2(CODE[11]), 
		 -> STR_20(CODE[4]), STR_21(CODE[9]), STR_22(CODE[3]), STR_23(CODE[17]), 
		 -> STR_24(CODE[3]), STR_25(CODE[23]), STR_26(CODE[3]), STR_27(CODE[11]), 
		 -> STR_28(CODE[3]), STR_29(CODE[4]), STR_3(CODE[10]), STR_30(CODE[9]), 
		 -> STR_31(CODE[5]), STR_32(CODE[3]), STR_33(CODE[3]), STR_4(CODE[8]), 
		 -> STR_5(CODE[3]), STR_6(CODE[35]), STR_7(CODE[30]), STR_8(CODE[35]), 
		 -> STR_9(CODE[12]), 

    itoa@buf	PTR PTR unsigned char  size(1) Largest target is 1
		 -> EUSART_Write_Integer@ptr(BANK0[1]), 

    memset@dest	PTR void  size(1) Largest target is 64
		 -> rx_buffer(BANK5[64]), 

    memset@p	PTR unsigned char  size(1) Largest target is 64
		 -> rx_buffer(BANK5[64]), 

    ml_class_names	PTR const unsigned char [3] size(2) Largest target is 11
		 -> STR_1(CODE[7]), STR_2(CODE[11]), STR_3(CODE[10]), 

    ml_compute_kernel@x	PTR const float  size(1) Largest target is 48
		 -> process_command@features(BANK3[16]), run_demo@test_samples(BANK2[48]), 

    ml_predict@x	PTR const float  size(1) Largest target is 48
		 -> process_command@features(BANK3[16]), run_demo@test_samples(BANK2[48]), 

    nanf@s	PTR const unsigned char  size(2) Largest target is 1
		 -> STR_42(CODE[1]), 

    parse_features@buffer	PTR unsigned char  size(1) Largest target is 64
		 -> rx_buffer(BANK5[64]), 

    parse_features@features	PTR float  size(1) Largest target is 16
		 -> process_command@features(BANK3[16]), 

    parse_features@saveptr	PTR unsigned char  size(1) Largest target is 64
		 -> rx_buffer(BANK5[64]), 

    parse_features@token	PTR unsigned char  size(1) Largest target is 64
		 -> rx_buffer(BANK5[64]), 

    process_command@buffer	PTR unsigned char  size(1) Largest target is 64
		 -> rx_buffer(BANK5[64]), 

    sp__memset	PTR void  size(1) Largest target is 64
		 -> rx_buffer(BANK5[64]), 

    sp__ml_get_class_name	PTR const unsigned char  size(2) Largest target is 11
		 -> STR_1(CODE[7]), STR_2(CODE[11]), STR_3(CODE[10]), STR_4(CODE[8]), 

    strlen@a	PTR const unsigned char  size(1) Largest target is 64
		 -> rx_buffer(BANK5[64]), 

    strlen@s	PTR const unsigned char  size(1) Largest target is 64
		 -> rx_buffer(BANK5[64]), 

    strtof@res	PTR PTR unsigned char  size(2) Largest target is 0
		 -> NULL(NULL[0]), 

    strtof@s	PTR const unsigned char  size(1) Largest target is 64
		 -> rx_buffer(BANK5[64]), 


Critical Paths under _main in COMMON

    _run_demo->_EUSART_Write_Integer
    _print_float->_EUSART_Write_Integer
    _print_float->___xxtofl
    ___fltol->___xxtofl
    _EUSART_Write_Integer->_itoa
    _itoa->___awdiv
    ___flsub->___xxtofl
    ___fladd->__Umul8_16
    _print_menu->_EUSART_Write_Text
    _EUSART_Write_Text->_ml_get_class_name
    _strtof->___xxtofl
    ___flmul->___xxtofl
    _EUSART_Initialize->___aldiv

Critical Paths under _main in BANK0

    _process_command->_ml_predict
    _run_demo->_ml_predict
    _print_float->___fltol
    ___fltol->___flmul
    _EUSART_Write_Integer->_itoa
    _ml_predict->_ml_compute_kernel
    _ml_compute_kernel->___flmul
    ___flsub->___fladd
    _parse_features->_strtof
    _strtof->___flmul
    ___flmul->___flsub
    _EUSART_Initialize->___aldiv

Critical Paths under _main in BANK1

    _process_command->_ml_predict
    _run_demo->_ml_predict

Critical Paths under _main in BANK2

    _main->_process_command
    _process_command->_run_demo
    _run_demo->_ml_predict

Critical Paths under _main in BANK3

    _main->_process_command

Critical Paths under _main in BANK4

    None.

Critical Paths under _main in BANK5

    None.

Critical Paths under _main in BANK6

    None.

Critical Paths under _main in BANK7

    None.

Critical Paths under _main in BANK8

    None.

Critical Paths under _main in BANK9

    None.

Critical Paths under _main in BANK10

    None.

Critical Paths under _main in BANK11

    None.

Critical Paths under _main in BANK12

    None.

Critical Paths under _main in BANK13

    None.

Critical Paths under _main in BANK14

    None.

Critical Paths under _main in BANK15

    None.

Critical Paths under _main in BANK16

    None.

Critical Paths under _main in BANK17

    None.

Critical Paths under _main in BANK18

    None.

Critical Paths under _main in BANK19

    None.

Critical Paths under _main in BANK20

    None.

Critical Paths under _main in BANK21

    None.

Critical Paths under _main in BANK22

    None.

Critical Paths under _main in BANK23

    None.

Critical Paths under _main in BANK24

    None.

Critical Paths under _main in BANK25

    None.

Call Graph Tables:

 ---------------------------------------------------------------------------------
 (Depth) Function   	        Calls       Base Space   Used Autos Params    Refs
 ---------------------------------------------------------------------------------
 (0) _main                                                 3     3      0  124694
                                             70 BANK2      3     3      0
                  _EUSART_Initialize
                        _EUSART_Read
                       _EUSART_Write
                  _EUSART_Write_Text
                           _initMain
                             _memset
                         _print_menu
                    _process_command
 ---------------------------------------------------------------------------------
 (1) _process_command                                     21    21      0  118486
                                             69 BANK2      1     1      0
                                              0 BANK3     20    20      0
                  _EUSART_Write_Text
                  _ml_get_class_name
                         _ml_predict
                     _parse_features
                        _print_float
                         _print_menu
                           _run_demo
                             _strlen
 ---------------------------------------------------------------------------------
 (2) _run_demo                                            55    55      0   51831
                                             14 BANK2     55    55      0
               _EUSART_Write_Integer
                  _EUSART_Write_Text
                  _ml_get_class_name
                         _ml_predict
                        _print_float
 ---------------------------------------------------------------------------------
 (3) _print_float                                          8     4      4   16634
                                             60 BANK0      8     4      4
                       _EUSART_Write
               _EUSART_Write_Integer
                             ___flge
                            ___flmul
                            ___flneg
                            ___flsub
                            ___fltol
                           ___xxtofl
 ---------------------------------------------------------------------------------
 (4) ___fltol                                             10     6      4     381
                                             50 BANK0     10     6      4
                            ___flmul (ARG)
                            ___flsub (ARG)
                           ___xxtofl (ARG)
 ---------------------------------------------------------------------------------
 (4) _EUSART_Write_Integer                                25    23      2    2871
                                             11 COMMON     3     1      2
                                              7 BANK0     22    22      0
                       _EUSART_Write
                               _itoa
 ---------------------------------------------------------------------------------
 (5) _itoa                                                 9     7      2    2473
                                              9 COMMON     2     0      2
                                              0 BANK0      7     7      0
                            ___awdiv
                            ___awmod
                             ___wmul
 ---------------------------------------------------------------------------------
 (6) ___awmod                                              7     3      4     448
                                              0 COMMON     7     3      4
 ---------------------------------------------------------------------------------
 (6) ___awdiv                                              9     5      4     908
                                              0 COMMON     9     5      4
 ---------------------------------------------------------------------------------
 (3) _ml_predict                                         100   100      0   29396
                                             74 BANK0      6     6      0
                                              0 BANK1     80    80      0
                                              0 BANK2     14    14      0
                            ___fladd
                             ___flge
                            ___flmul
                            ___flsub
                  _ml_compute_kernel
 ---------------------------------------------------------------------------------
 (4) _ml_compute_kernel                                   24    20      4   10112
                                             50 BANK0     24    20      4
                            ___fladd
                            ___flmul
 ---------------------------------------------------------------------------------
 (4) ___flsub                                              8     0      8    6893
                                             16 BANK0      8     0      8
                          __Umul8_16 (ARG)
                            ___fladd
                           ___xxtofl (ARG)
 ---------------------------------------------------------------------------------
 (5) ___fladd                                             20    12      8    5328
                                              9 COMMON     4     4      0
                                              0 BANK0     16     8      8
                          __Umul8_16 (ARG)
 ---------------------------------------------------------------------------------
 (3) _ml_get_class_name                                    3     1      2      66
                                              0 COMMON     3     1      2
 ---------------------------------------------------------------------------------
 (2) _print_menu                                           0     0      0    2468
                  _EUSART_Write_Text
 ---------------------------------------------------------------------------------
 (3) _EUSART_Write_Text                                    5     3      2    2468
                                              3 COMMON     5     3      2
                       _EUSART_Write
                  _ml_get_class_name (ARG)
 ---------------------------------------------------------------------------------
 (5) _EUSART_Write                                         1     1      0      22
                                              0 COMMON     1     1      0
 ---------------------------------------------------------------------------------
 (2) _parse_features                                       7     6      1   14911
                                             78 BANK0      1     0      1
                                              0 BANK1      6     6      0
                             _strlen
                             _strtof
 ---------------------------------------------------------------------------------
 (3) _strtof                                              28    24      4   14266
                                             50 BANK0     28    24      4
                            ___fldiv
                             ___fleq
                             ___flge
                            ___flmul
                            ___flneg
                             ___lmul
                             ___wmul
                           ___xxtofl
                            _isdigit
                           _isxdigit
                               _nanf
                            _toupper
 ---------------------------------------------------------------------------------
 (4) _toupper                                              3     1      2     281
                                              0 COMMON     3     1      2
 ---------------------------------------------------------------------------------
 (4) _nanf                                                 8     4      4      99
                                              0 COMMON     8     4      4
 ---------------------------------------------------------------------------------
 (4) _isxdigit                                             7     5      2     359
                                              0 COMMON     7     5      2
 ---------------------------------------------------------------------------------
 (4) _isdigit                                              6     4      2     541
                                              0 COMMON     6     4      2
 ---------------------------------------------------------------------------------
 (4) ___xxtofl                                            14    10      4     474
                                              0 COMMON    14    10      4
 ---------------------------------------------------------------------------------
 (6) ___wmul                                               6     2      4     648
                                              0 COMMON     6     2      4
 ---------------------------------------------------------------------------------
 (4) ___lmul                                              12     4      8     244
                                              0 COMMON    12     4      8
 ---------------------------------------------------------------------------------
 (4) ___flneg                                              4     0      4     197
                                              0 COMMON     4     0      4
 ---------------------------------------------------------------------------------
 (4) ___flmul                                             26    18      8    4393
                                             24 BANK0     26    18      8
                          __Umul8_16
                            ___fladd (ARG)
                            ___flsub (ARG)
                           ___xxtofl (ARG)
 ---------------------------------------------------------------------------------
 (5) __Umul8_16                                            9     7      2     799
                                              0 COMMON     9     7      2
 ---------------------------------------------------------------------------------
 (4) ___flge                                              12     4      8    1094
                                              0 COMMON    12     4      8
 ---------------------------------------------------------------------------------
 (4) ___fleq                                              12     4      8     242
                                              0 COMMON    12     4      8
 ---------------------------------------------------------------------------------
 (4) ___fldiv                                             26    18      8    1425
                                              0 COMMON    13     5      8
                                              0 BANK0     13    13      0
 ---------------------------------------------------------------------------------
 (2) _strlen                                               5     3      2     156
                                              0 COMMON     5     3      2
 ---------------------------------------------------------------------------------
 (1) _memset                                               7     3      4     466
                                              0 COMMON     7     3      4
 ---------------------------------------------------------------------------------
 (1) _initMain                                             2     2      0       0
                                              0 COMMON     2     2      0
                        _internal_32
 ---------------------------------------------------------------------------------
 (2) _internal_32                                          0     0      0       0
 ---------------------------------------------------------------------------------
 (1) _EUSART_Read                                          0     0      0       0
 ---------------------------------------------------------------------------------
 (1) _EUSART_Initialize                                   18    14      4     595
                                              9 COMMON     2     2      0
                                              6 BANK0     16    12      4
                            ___aldiv
 ---------------------------------------------------------------------------------
 (2) ___aldiv                                             15     7      8     452
                                              0 COMMON     9     1      8
                                              0 BANK0      6     6      0
 ---------------------------------------------------------------------------------
 Estimated maximum stack depth 6
 ---------------------------------------------------------------------------------

 Call Graph Graphs:

 _main (ROOT)
   _EUSART_Initialize
     ___aldiv
   _EUSART_Read
   _EUSART_Write
   _EUSART_Write_Text
     _EUSART_Write
     _ml_get_class_name (ARG)
   _initMain
     _internal_32
   _memset
   _print_menu
     _EUSART_Write_Text
   _process_command
     _EUSART_Write_Text
     _ml_get_class_name
     _ml_predict
       ___fladd
         __Umul8_16 (ARG)
       ___flge
       ___flmul
         __Umul8_16
         ___fladd (ARG)
         ___flsub (ARG)
           __Umul8_16 (ARG)
           ___fladd (ARG)
           ___xxtofl (ARG)
         ___xxtofl (ARG)
       ___flsub
       _ml_compute_kernel
         ___fladd
         ___flmul
     _parse_features
       _strlen
       _strtof
         ___fldiv
         ___fleq
         ___flge
         ___flmul
         ___flneg
         ___lmul
         ___wmul
         ___xxtofl
         _isdigit
         _isxdigit
         _nanf
         _toupper
     _print_float
       _EUSART_Write
       _EUSART_Write_Integer
         _EUSART_Write
         _itoa
           ___awdiv
           ___awmod
           ___wmul
       ___flge
       ___flmul
       ___flneg
       ___flsub
       ___fltol
         ___flmul (ARG)
         ___flsub (ARG)
         ___xxtofl (ARG)
       ___xxtofl
     _print_menu
     _run_demo
       _EUSART_Write_Integer
       _EUSART_Write_Text
       _ml_get_class_name
       _ml_predict
       _print_float
     _strlen

 Address spaces:
Name               Size   Autos  Total    Cost      Usage
BIGRAM             7F0      0       0       0        0.0%
NULL                 0      0       0       0        0.0%
CODE                 0      0       0       0        0.0%
BITCOMMON            E      0       0       1        0.0%
BITSFR0              0      0       0       1        0.0%
SFR0                 0      0       0       1        0.0%
COMMON               E      E       E       2      100.0%
BITSFR1              0      0       0       2        0.0%
SFR1                 0      0       0       2        0.0%
BITSFR2              0      0       0       3        0.0%
SFR2                 0      0       0       3        0.0%
STACK                0      0       0       3        0.0%
BITBANK0            50      0       0       4        0.0%
BITSFR3              0      0       0       4        0.0%
SFR3                 0      0       0       4        0.0%
BANK0               50     50      50       5      100.0%
BITSFR4              0      0       0       5        0.0%
SFR4                 0      0       0       5        0.0%
BITBANK1            50      0       0       6        0.0%
BITSFR5              0      0       0       6        0.0%
SFR5                 0      0       0       6        0.0%
BANK1               50     50      50       7      100.0%
BITSFR6              0      0       0       7        0.0%
SFR6                 0      0       0       7        0.0%
BITBANK2            50      0       0       8        0.0%
BITSFR7              0      0       0       8        0.0%
SFR7                 0      0       0       8        0.0%
BANK2               50     49      4F       9       98.8%
BITSFR8              0      0       0       9        0.0%
SFR8                 0      0       0       9        0.0%
BITBANK3            50      0       0      10        0.0%
BITSFR9              0      0       0      10        0.0%
SFR9                 0      0       0      10        0.0%
BANK3               50     14      26      11       47.5%
BITSFR10             0      0       0      11        0.0%
SFR10                0      0       0      11        0.0%
BITBANK4            50      0       0      12        0.0%
BITSFR11             0      0       0      12        0.0%
SFR11                0      0       0      12        0.0%
BANK4               50      0      30      13       60.0%
BITSFR12             0      0       0      13        0.0%
SFR12                0      0       0      13        0.0%
BITSFR13             0      0       0      14        0.0%
SFR13                0      0       0      14        0.0%
ABS                  0      0     193      14        0.0%
BITBANK5            50      0       0      15        0.0%
BITSFR14             0      0       0      15        0.0%
SFR14                0      0       0      15        0.0%
BANK5               50      0      40      16       80.0%
BITSFR15             0      0       0      16        0.0%
SFR15                0      0       0      16        0.0%
BITBANK6            50      0       0      17        0.0%
BITSFR16             0      0       0      17        0.0%
SFR16                0      0       0      17        0.0%
BANK6               50      0       0      18        0.0%
BITSFR17             0      0       0      18        0.0%
SFR17                0      0       0      18        0.0%
BITBANK7            50      0       0      19        0.0%
BITSFR18             0      0       0      19        0.0%
SFR18                0      0       0      19        0.0%
BANK7               50      0       0      20        0.0%
BITSFR19             0      0       0      20        0.0%
SFR19                0      0       0      20        0.0%
BITBANK8            50      0       0      21        0.0%
BITSFR20             0      0       0      21        0.0%
SFR20                0      0       0      21        0.0%
BANK8               50      0       0      22        0.0%
BITSFR21             0      0       0      22        0.0%
SFR21                0      0       0      22        0.0%
BITBANK9            50      0       0      23        0.0%
BITSFR22             0      0       0      23        0.0%
SFR22                0      0       0      23        0.0%
BANK9               50      0       0      24        0.0%
BITSFR23             0      0       0      24        0.0%
SFR23                0      0       0      24        0.0%
BITBANK10           50      0       0      25        0.0%
BITSFR24             0      0       0      25        0.0%
SFR24                0      0       0      25        0.0%
BANK10              50      0       0      26        0.0%
BITSFR25             0      0       0      26        0.0%
SFR25                0      0       0      26        0.0%
BITBANK11           50      0       0      27        0.0%
BITSFR26             0      0       0      27        0.0%
SFR26                0      0       0      27        0.0%
BITSFR27             0      0       0      28        0.0%
SFR27                0      0       0      28        0.0%
DATA                 0      0     193      28        0.0%
BANK11              50      0       0      29        0.0%
BITSFR28             0      0       0      29        0.0%
SFR28                0      0       0      29        0.0%
BITBANK12           50      0       0      30        0.0%
BITSFR29             0      0       0      30        0.0%
SFR29                0      0       0      30        0.0%
BANK12              50      0       0      31        0.0%
BITSFR30             0      0       0      31        0.0%
SFR30                0      0       0      31        0.0%
BITBANK13           50      0       0      32        0.0%
BITSFR31             0      0       0      32        0.0%
SFR31                0      0       0      32        0.0%
BANK13              50      0       0      33        0.0%
BITBANK14           50      0       0      34        0.0%
BANK14              50      0       0      35        0.0%
BITBANK15           50      0       0      36        0.0%
BANK15              50      0       0      37        0.0%
BITBANK16           50      0       0      38        0.0%
BANK16              50      0       0      39        0.0%
BITBANK17           50      0       0      40        0.0%
BANK17              50      0       0      41        0.0%
BITBANK18           50      0       0      42        0.0%
BANK18              50      0       0      43        0.0%
BITBANK19           50      0       0      44        0.0%
BANK19              50      0       0      45        0.0%
BITBANK20           50      0       0      46        0.0%
BANK20              50      0       0      47        0.0%
BITBANK21           50      0       0      48        0.0%
BANK21              50      0       0      49        0.0%
BITBANK22           50      0       0      50        0.0%
BANK22              50      0       0      51        0.0%
BITBANK23           50      0       0      52        0.0%
BANK23              50      0       0      53        0.0%
BITBANK24           50      0       0      54        0.0%
BANK24               4      0       0      55        0.0%
BITBANK25           20      0       0      56        0.0%
BANK25               0      0       0      57        0.0%


Microchip Technology PIC Macro Assembler V2.46 build 20240104201356 
Symbol Table                                                                                   Fri Jan 30 02:13:46 2026

                     ___fldiv@aexp 002C                       ___fldiv@bexp 002B  
                     ___fldiv@sign 0024                                 l30 0807  
                               l32 080F                                 l25 1B6B  
                               l41 26D2                                 l50 19EF  
                               l28 0802                                 l44 26DA  
                               l60 1EC8                                 l54 1E6E  
                               l66 0028                                 l83 26D0  
                     ___awdiv@sign 0076                ___wmul@multiplicand 0072  
              __Umul8_16@word_mpld 0076             __end_of_parse_features 10B4  
                              l205 10B3                                l215 120F  
                              l144 1D15                                l330 1A7F  
                              l219 08E1                                l235 1F61  
                              l316 277F                                l172 2774  
                              l182 1A1C                                l502 1D9F  
                              l318 2793                                l510 1C8E  
                              l168 0FFF                                l520 1C8E  
                              l185 1B1B                                l506 26E5  
                              l381 1DB3                                l621 148D  
                              l517 1C79                                l189 1FFF  
                              l630 15C4                                l391 1E2F  
                              l623 146B                                l713 17FF  
                              l617 1410                                l642 1542  
                              l482 1BBE                                l491 1ACD  
                              l651 159B                                l732 27C6  
                              l660 15C4                                l485 1A9C  
                              l725 17F3                                l469 1C1D  
                              l486 1AB8                                l494 1D32  
                              l734 27D6                                l638 1520  
                              l719 177F                                l911 05FD  
                              l663 27B3                                l648 1564  
                              l673 1261                                l497 1D86  
                              l770 1129                                l675 13B9  
                              l771 1135                                l763 110F  
                              l659 15BD                                l757 10D6  
                              l917 0677                                l694 138B  
                              l838 044C                                l695 13A5  
                              l759 115D                                l951 273E  
                              l784 2726                                l697 13B2  
                              l689 133F                                l881 043F  
                              l778 2759                                l882 07B8  
                              l965 270E                                l877 0419  
                              l893 0522                                l959 27FF  
                              l968 1014                                l896 054B  
                              l969 1014                                l898 058F  
                              l899 055C                   print_float@whole 0062  
          ml_compute_kernel@kernel 0065                       ___awmod@sign 0076  
                              wreg 0009                       ___flmul@aexp 004A  
          ml_compute_kernel@sv_idx 0052                       ___flmul@bexp 004B  
                     ___flmul@sign 0045                       ___flmul@temp 0050  
                     ___flmul@prod 004C                       ?_EUSART_Read 0070  
                     ___fltol@exp1 005B                               l3000 1664  
                             l3010 16A8                               l3002 167C  
                             l3020 16DA                               l3012 16AF  
                             l3004 1689                               l3030 1735  
                             l3022 16EC                               l3014 16BA  
                             l3006 1696                               l3040 1754  
                             l3032 173C                               l3024 16F7  
                             l3016 16C1                               l3008 169D  
                             l3120 1A55                               l3050 1768  
                             l3042 175B                               l3034 1748  
                             l3026 1709                               l3018 16D3  
                             l3122 1A59                               l3210 2797  
                             l3202 1C70                               l4100 19FF  
                             l3300 1306                               l3220 121A  
                             l3140 1ACC                               l3132 1A80  
                             l3060 1791                               l3052 177C  
                             l3036 174F                               l3044 175F  
                             l3028 171E                               l3124 1A61  
                             l3204 1C7E                               l4030 1DA0  
                             l4110 1A0A                               l4102 1A01  
                             l3310 131B                               l3302 1308  
                             l3230 122E                               l3222 121B  
                             l3214 1210                               l3134 1A94  
                             l3150 1D4E                               l3070 17C8  
                             l3062 1795                               l3046 1763  
                             l3038 1753                               l3126 1A68  
                             l3118 1A4D                               l3206 1C83  
                             l4040 1DC6                               l4032 1DA2  
                             l4120 1A19                               l4112 1A0C  
                             l4104 1A03                               l3320 133C  
                             l3304 130F                               l3312 131F  
                             l3240 1243                               l3224 1220  
                             l3232 1230                               l3216 1214  
                             l3136 1AB0                               l3160 1D9E  
                             l3152 1D52                               l3144 1D16  
                             l3080 17F0                               l3072 17D6  
                             l3064 17AD                               l3056 1784  
                             l3048 1764                               l3128 1A77  
                             l3208 2794                               l4050 1DE8  
                             l4042 1DCE                               l4034 1DA6  
                             l4122 1A1B                               l4114 1A0D  
                             l4106 1A05                               l3330 1355  
                             l3314 1323                               l3306 1313  
                             l3250 1257                               l3242 1244  
                             l3234 1238                               l3226 1225  
                             l3218 1216                               l3138 1ACA  
                             l3154 1D6A                               l3146 1D2A  
                             l3082 17F1                               l3074 17DF  
                             l3058 1789                               l3066 17B1  
                             l3410 27F8                               l3402 27D7  
                             l3090 0008                               l4060 1E11  
                             l4052 1DEF                               l4044 1DD6  
                             l4036 1DB7                               l4116 1A12  
                             l4108 1A07                               l3340 139C  
                             l3332 136D                               l3324 1344  
                             l3316 1324                               l3308 1314  
                             l3244 1249                               l3252 1259  
                             l3236 123D                               l3228 122D  
                             l3156 1D6E                               l3148 1D46  
                             l3084 17F7                               l3076 17E1  
                             l3068 17BE                               l3164 26DB  
                             l3404 27D9                               l3420 100D  
                             l3500 2770                               l4300 0F8B  
                             l2700 1B93                               l3092 0010  
                             l3180 1C42                               l3172 1C1E  
                             l4054 1E01                               l4046 1DD9  
                             l4062 1E17                               l4038 1DC2  
                             l4070 1B1C                               l4118 1A17  
                             l3342 13A4                               l3326 1349  
                             l3334 1371                               l3318 1328  
                             l3270 12A0                               l3254 1269  
                             l3262 1282                               l3246 124E  
                             l3238 123F                               l3158 1D9C  
                             l3078 17EC                               l3166 26E3  
                             l2630 2789                               l2622 2775  
                             l3414 2727                               l3406 27E2  
                             l3430 19E4                               l4310 0FC2  
                             l4302 0F91                               l2702 1B97  
                             l2710 1BB0                               l3094 0014  
                             l3182 1C43                               l3174 1C28  
                             l3510 1F95                               l4064 1E1C  
                             l4056 1E09                               l4048 1DE4  
                             l4080 1B68                               l4072 1B62  
                             l3520 2710                               l3344 13A8  
                             l3336 137E                               l3328 1351  
                             l3280 12BF                               l3272 12A8  
                             l3264 1287                               l3256 1275  
                             l3248 1256                               l2720 27B7  
                             l3168 26E5                               l2632 278F  
                             l2624 2777                               l3360 10CE  
                             l3408 27F7                               l3600 0157  
                             l3424 19D3                               l2800 141A  
                             l4320 0FD5                               l4312 0FC7  
                             l4304 0F94                               l2640 1BC4  
                             l2712 1BB5                               l2704 1BA1  
                             l3096 001B                               l3088 0005  
                             l3184 1C4B                               l3512 1FA6  
                             l3504 1F64                               l4400 085B  
                             l4066 1E27                               l4058 1E0A  
                             l4082 1B69                               l4074 1B65  
                             l4090 080C                               l3522 2713  
                             l3346 13AC                               l3338 1399  
                             l3290 12EB                               l3282 12CD  
                             l3274 12B0                               l3258 1279  
                             l2722 27BE                               l2626 277B  
                             l3370 10F5                               l3362 10DE  
                             l3354 10B5                               l3418 1004  
                             l3602 0163                               l3610 0189  
                             l3530 002B                               l3426 19D6  
                             l2810 1426                               l2802 141E  
                             l4330 0FFD                               l4322 0FE7  
                             l4314 0FD3                               l4306 0FA0  
                             l2650 1BD8                               l2642 1BC9  
                             l2714 1BBA                               l2706 1BA5  
                             l3098 0020                               l3194 1C59  
                             l3186 1C4D                               l3178 1C31  
                             l3514 1FEC                               l3506 1F7C  
                             l4084 1B6A                               l4076 1B66  
                             l4092 080E                               l3524 2717  
                             l3348 13AE                               l3292 12EC  
                             l3284 12D1                               l3276 12B8  
                             l3268 1290                               l2724 27C2  
                             l2628 2784                               l3380 111F  
                             l3372 10FC                               l3356 10BA  
                             l3700 0336                               l3620 0197  
                             l3612 018B                               l3604 0170  
                             l3540 0056                               l3532 002D  
                             l2732 26D2                               l3428 19E0  
                             l2900 1546                               l2820 1430  
                             l2812 1428                               l2804 1420  
                             l4324 0FEF                               l4308 0FBC  
                             l2660 1BEC                               l2652 1BDA  
                             l2644 1BCB                               l2636 1BBF  
                             l2708 1BAA                               l2740 1E43  
                             l3188 1C51                               l3196 1C69  
                             l3516 1FF3                               l3508 1F80  
                             l4420 0887                               l4412 087E  
                             l4404 085F                               l4078 1B67  
                             l4182 2740                               l3526 2720  
                             l3294 12F4                               l3286 12D2  
                             l3278 12BA                               l2726 27CD  
                             l2718 27B5                               l3390 1150  
                             l3382 1123                               l3374 1100  
                             l3366 10E7                               l3358 10BE  
                             l3702 0355                               l3630 01BC  
                             l3622 0199                               l3614 0193  
                             l3606 017D                               l3550 007D  
                             l3542 006E                               l3534 0033  
                             l2734 26D7                               l2902 1549  
                             l2910 1556                               l2830 143A  
                             l2822 1432                               l2814 142A  
                             l2806 1422                               l4270 1D0D  
                             l4326 0FF2                               l2670 1C09  
                             l2662 1BF0                               l2654 1BE0  
                             l2646 1BCF                               l2638 1BC0  
                             l2750 1EBA                               l2742 1E48  
                             l3518 1FF7                               l4350 118F  
                             l4334 115E                               l4430 08BA  
                             l4422 08A0                               l4414 0885  
                             l4406 0869                               l4088 0800  
                             l4096 19F0                               l4184 2743  
                             l3288 12D9                               l3296 12F8  
                             l2728 27D2                               l3392 1154  
                             l3384 112D                               l3376 1108  
                             l3368 10EA                               l3800 04F0  
                             l3720 038E                               l3704 035B  
                             l3712 037B                               l3640 01F2  
                             l3632 01C9                               l3624 019D  
                             l3616 0194                               l3608 0182  
                             l3560 0097                               l3544 006F  
                             l3536 003A                               l2920 1569  
                             l2912 1557                               l2904 154B  
                             l2840 1473                               l2824 1434  
                             l2816 142C                               l2808 1424  
                             l2832 143C                               l2760 13C4  
                             l4264 1C9A                               l4256 1C91  
                             l4328 0FF7                               l4280 08E8  
                             l2664 1BFF                               l2656 1BE3  
                             l2672 1C0F                               l2648 1BD4  
                             l2680 1B6C                               l2752 1EC1  
                             l2744 1E4D                               l2736 1E32  
                             l4360 11BB                               l4344 1176  
                             l4336 116D                               l4432 08C1  
                             l4424 08A7                               l4408 086F  
                             l4098 19F3                               l4186 2749  
                             l3298 12FE                               l3394 1155  
                             l3386 1137                               l3378 1116  
                             l3810 0531                               l3802 04F8  
                             l3730 03AC                               l3706 036A  
                             l3714 037F                               l3634 01E0  
                             l3626 01AA                               l3618 0195  
                             l3570 00D7                               l3562 00AD  
                             l3554 0085                               l3546 0076  
                             l3538 003E                               l2930 15A0  
                             l2922 156E                               l2914 155B  
                             l2906 1550                               l2842 1475  
                             l2850 1487                               l2834 143D  
                             l2826 1436                               l2818 142E  
                             l2770 13D8                               l2762 13C5  
                             l2754 13BA                               l4266 1D03  
                             l4258 1C99                               l4282 08EE  
                             l4274 08E4                               l2674 1C14  
                             l2666 1C03                               l2658 1BE8  
                             l2690 1B7C                               l2682 1B6D  
                             l2746 1E80                               l2738 1E3A  
                             l4370 11E3                               l4362 11C2  
                             l4346 117D                               l4338 1174  
                             l4434 08C7                               l4426 08AE  
                             l4450 1ED8                               l4188 274D  
                             l3388 114B                               l3900 06F4  
                             l3820 0558                               l3812 0536  
                             l3804 0500                               l3740 03D2  
                             l3732 03B6                               l3724 0399  
                             l3716 0383                               l3708 0378  
                             l3652 021E                               l3644 01F6  
                             l3628 01AF                               l3580 00EF  
                             l3572 00DD                               l3564 00C3  
                             l3556 0087                               l3548 0078  
                             l3492 275B                               l2940 15B7  
                             l2932 15A5                               l2924 1576  
                             l2916 1561                               l2908 1552  
                             l2860 14A9                               l2852 1491  
                             l2844 147A                               l2836 1454  
                             l2828 1438                               l2780 13EC  
                             l2764 13CA                               l2772 13DA  
                             l2756 13BE                               l4268 1D07  
                             l4292 08FB                               l4284 08F4  
                             l2676 1C19                               l2668 1C04  
                             l2692 1B81                               l2684 1B71  
                             l2748 1EB0                               l4372 11F6  
                             l4364 11C7                               l4356 1191  
                             l4348 1188                               l4436 08DA  
                             l4428 08B4                               l4380 0812  
                             l4460 1EFA                               l4452 1EE5  
                             l2950 15C9                               l3398 26FE  
                             l3822 0560                               l3830 0598  
                             l3806 0526                               l3750 03ED  
                             l3742 03D7                               l3726 039D  
                             l3718 0384                               l3670 026F  
                             l3654 022B                               l3662 0233  
                             l3646 0203                               l3638 01EF  
                             l3590 013D                               l3582 00FB  
                             l3574 00DF                               l3566 00C9  
                             l3558 008B                               l3494 275F  
                             l2942 15B9                               l2934 15AD  
                             l2926 157A                               l2870 14BB  
                             l2862 14AD                               l2854 1496  
                             l2846 147B                               l2838 146F  
                             l2790 13FD                               l2782 13EE  
                             l2774 13E2                               l2766 13CF  
                             l2758 13C0                               l4294 091D  
                             l4286 08FA                               l2694 1B87  
                             l2686 1B76                               l4374 11FD  
                             l4366 11CD                               l4358 11B4  
                             l4390 0835                               l4470 1F17  
                             l4462 1EFF                               l4454 1EE8  
                             l2960 15DA                               l2952 15CB  
                             l3920 075B                               l3912 0714  
                             l3904 06FD                               l3840 05BE  
                             l3832 059B                               l3824 057C  
                             l3816 054D                               l3808 0530  
                             l3760 0436                               l3752 03F3  
                             l3744 03D9                               l3736 03B8  
                             l3728 03A7                               l3680 02BA  
                             l3672 0285                               l3664 024A  
                             l3656 022C                               l3648 0210  
                             l3592 0143                               l3584 0111  
                             l3568 00D1                               l3576 00E9  
                             l3496 2766                               l2944 15BF  
                             l2936 15B2                               l2928 1597  
                             l2880 1504                               l2872 14BC  
                             l2864 14B1                               l2848 1483  
                             l2792 1405                               l2784 13F2  
                             l2776 13E5                               l2768 13D7  
                             l4296 0922                               l2696 1B8A  
                             l2688 1B78                               l4376 1202  
                             l4368 11D4                               l4384 081D  
                             l4480 1F34                               l4472 1F1E  
                             l4464 1F03                               l4456 1EF3  
                             l4448 1EC9         EUSART_Write_Integer@buffer 0027  
                             l2970 15F3                               l2962 15E2  
                             l2954 15CF                               l3930 0788  
                             l3922 075F                               l3914 0730  
                             l3850 05D8                               l3842 05C3  
                             l3834 05A5                               l3826 0593  
                             l3818 0554                               l3770 045C  
                             l3754 0403                               l3746 03DD  
                             l3738 03CF                               l3690 02EE  
                             l3682 02BF                               l3674 0292  
                             l3666 024C                               l3658 022E  
                             l3594 0147                               l3586 0127  
                             l3578 00EB                               l2946 15C3  
                             l2938 15B3                               l2890 152D  
                             l2882 150A                               l2874 14C4  
                             l2866 14B5                               l2858 14A0  
                             l2794 1406                               l2786 13F3  
                             l2778 13EB                               l4298 0928  
                             l2698 1B8F                               l4378 1208  
                             l4394 083D                               l4386 0828  
                             l4490 1F4F                               l4482 1F3A  
                             l4474 1F22                               l4466 1F0A  
                             l4458 1EF5                               l3940 26C8  
                             l2980 160A                               l2972 15F7  
                             l2964 15E4                               l2956 15D0  
                             l2948 15C5                               l3932 0798  
                             l3924 0765                               l3916 0734  
                             l3908 0706                               l3860 0617  
                             l3852 05DA                               l3836 05AF  
                             l3780 0492                               l3772 0464  
                             l3764 0443                               l3756 0415  
                             l3748 03EA                               l3692 02F0  
                             l3684 02CC                               l3676 02B1  
                             l3668 0263                               l3596 0151  
                             l3588 012D                               l2884 150F  
                             l2868 14B7                               l2876 14C9  
                             l2788 13F8                               l2796 1408  
                             l4396 0847                               l4388 0832  
                             l4492 1F55                               l4484 1F3F  
                             l4468 1F10                               l2982 160C  
                             l2974 15F8                               l2966 15EC  
                             l2958 15D5                               l3934 079C  
                             l3926 077C                               l3918 073F  
                             l3870 0637                               l3862 0622  
                             l3854 05F5                               l3838 05BD  
                             l3790 04BC                               l3782 0499  
                             l3766 0448                               l3758 0430  
                             l3694 0307                               l3686 02D2  
                             l3678 02B6                               l3598 0153  
                             l3950 101E                               l3942 1ACE  
                             l2894 1536                               l2878 14E0  
                             l2886 1518                               l2798 1416  
                             l4398 0851                               l4494 1F5C  
                             l4486 1F41                               l4478 1F2E  
                             l2992 1627                               l2984 1614  
                             l2976 15FD                               l2968 15F1  
                             l3936 07B0                               l3872 063B  
                             l3864 0624                               l3856 05F9  
                             l3848 05CE                               l3792 04C6  
                             l3784 049D                               l3776 046D  
                             l3768 0453                               l3696 0313  
                             l3688 02D7                               l3928 0781  
                             l3960 1049                               l3952 1022  
                             l3944 1017                               l2896 153D  
                             l2888 1528                               l4488 1F47  
                             l2994 1632                               l2986 1619  
                             l2978 1602                               l3890 06B1  
                             l3882 067C                               l3874 0641  
                             l3866 0628                               l3858 0611  
                             l3794 04CD                               l3786 04A2  
                             l3778 0488                               l3698 0329  
                             l3970 1088                               l3962 1052  
                             l3954 102C                               l3946 1018  
                             l2898 1541                               l2996 163F  
                             l2988 161E                               l3892 06CD  
                             l3884 0682                               l3876 0656  
                             l3868 062D                               l3796 04D1  
                             l3788 04AF                               l3980 10B2  
                             l3972 108D                               l3964 1057  
                             l3956 1035                               l3948 101B  
                             l2998 1657                               l3894 06D1  
                             l3886 069F                               l3878 066D  
                             l3798 04DE                               l3974 1097  
                             l3966 105B                               l3958 103F  
                             l3896 06D8                               l3888 06A3  
                             l3976 10A1                               l3968 1065  
                             l3898 06EF                               l3978 10AC  
                             STR_1 28FA                               STR_2 28B8  
                             STR_3 28CD                               STR_4 28F2  
                             STR_5 286F                               STR_6 19B0  
                             STR_7 2800                               STR_8 19B0  
                             STR_9 28A1                               _BRGH 0CF2  
                             _CREN 0CEC                               u4000 15A0  
                             u4001 159F                               u4010 15A5  
                             u4011 15A4                               u4100 1602  
                             u4020 15B2                               u4101 1601  
                             u4021 15B1                               u4110 1619  
                             u4030 15B7                               u4111 1618  
                             u4031 15B6                               u4120 161E  
                             u3320 277B                               u5000 27E2  
                             u4040 15C3                               u3400 1BF0  
                             u4121 161D                               u3321 277A  
                             u5001 27E1                               u4041 15C2  
                             u3401 1BEF                               u4210 1763  
                             u4050 15CF                               u5010 27F7  
                             u4211 1762                               u4051 15CE  
                             u5011 27F6                               u4300 17F0  
                             u4220 1768                               u4060 15D5  
                             u5020 2737                               u3420 1BFF  
                             u3500 1B97                               u4301 17EF  
                             u4221 1767                               u4205 1755  
                             u4061 15D4                               u5021 2735  
                             u3421 1BFE                               u3501 1B96  
                             u4230 177C                               u4150 1714  
                             u4070 15DA                               u3350 278F  
                             u5030 2738                               u3510 1BA1  
                             u4310 0028                               u4231 177B  
                             u4135 1697                               u4071 15D9  
                             u3351 278E                               u3335 2780  
                             u3415 1BF1                               u3511 1BA0  
                             u4311 0027                               u4400 1ACA  
                             u4240 1783                               u4160 172B  
                             u4080 15F7                               u5040 100D  
                             u6000 063B                               u5200 006E  
                             u5120 275F                               u3440 1C0F  
                             u3360 1BC4                               u3600 1E7F  
                             u4401 1AC9                               u4241 1782  
                             u4145 16C2                               u4081 15F6  
                             u3345 2785                               u5041 100C  
                             u6001 063A                               u5201 006D  
                             u5121 275E                               u3441 1C0E  
                             u3425 1BFB                               u3361 1BC3  
                             u3601 1E7E                               u4410 1D2A  
                             u4250 1789                               u4090 15FD  
                             u6010 066D                               u5210 0076  
                             u5050 19EF                               u5130 2766  
                             u3450 1C14                               u3370 1BCF  
                             u3530 1BB0                               u3610 1EC1  
                             u4411 1D29                               u4251 1788  
                             u4155 1710                               u4091 15FC  
                             u6011 066C                               u5211 0075  
                             u5051 19EE                               u5131 2765  
                             u3451 1C13                               u3435 1C05  
                             u3371 1BCE                               u3531 1BAF  
                             u3515 1B9D                               u3611 1EC0  
                             u4420 1D46                               u4260 1795  
                             u4340 1A59                               u6100 077C  
                             u6020 067C                               u5300 0111  
                             u5220 0084                               u3700 141A  
                             u3620 13C4                               u3380 1BE0  
                             u3540 1BB5                               u3460 1B71  
                             u4500 1C58                               u5140 1F7C  
                             u4405 1AC6                               u4421 1D45  
                             u4261 1794                               u4165 1727  
                             u4341 1A58                               u6101 077B  
                             u6021 067B                               u5301 0110  
                             u5221 0083                               u3701 1419  
                             u3621 13C3                               u3381 1BDF  
                             u3541 1BB4                               u3525 1BA6  
                             u3461 1B70                               u4501 1C57  
                             u5141 1F7B                               u5150 2720  
                             u4430 1D52                               u3550 27C2  
                             u4270 17A3                               u4190 1753  
                             u6110 0788                               u6030 06B0  
                             u5310 0127                               u5230 0097  
                             u3710 1454                               u3630 13CA  
                             u3470 1B7C                               u5151 271F  
                             u4431 1D51                               u3551 27C1  
                             u4191 1752                               u4175 1736  
                             u6111 0787                               u6031 06AF  
                             u5311 0126                               u5231 0096  
                             u3711 1453                               u3631 13C9  
                             u3471 1B7B                               u4600 1243  
                             u4440 1D6E                               u4280 17BE  
                             u6120 079C                               u6040 06D8  
                             u5400 01BC                               u5320 012D  
                             u5240 00AD                               u5160 0033  
                             u6200 1097                               u3800 14AD  
                             u3720 145E                               u3640 13CF  
                             u3480 1B87                               u4520 1C68  
                             u4601 1242                               u4441 1D6D  
                             u4281 17BD                               u4185 1749  
                             u6121 079B                               u6041 06D7  
                             u5401 01BB                               u5321 012C  
                             u5241 00AC                               u5161 0032  
                             u6201 1096                               u3801 14AC  
                             u3721 145C                               u3641 13CE  
                             u3481 1B86                               u4521 1C67  
                             u4610 1249                               u4450 1D9C  
                             u3570 27D2                               u4290 17D6  
                             u4370 1A77                               u6050 06EF  
                             u5410 01C9                               u5330 0143  
                             u5250 00C3                               u5170 0049  
                             u6210 10A1                               u6130 102C  
                             u3810 14B1                               u3730 145F  
                             u3650 13EB                               u4530 1C6F  
                             u4611 1248                               u4451 1D9B  
                             u3571 27D1                               u4291 17D5  
                             u4275 179F                               u4371 1A76  
                             u4355 1A62                               u6051 06EE  
                             u6035 06AC                               u5411 01C8  
                             u5331 0142                               u5251 00C2  
                             u5171 0047                               u6211 10A0  
                             u6131 102B                               u3811 14B0  
                             u3715 1450                               u3651 13EA  
                             u3395 1BE4                               u4531 1C6E  
                             u4515 1C5A                               u4700 12EB  
                             u4620 124E                               u4380 1A94  
                             u4460 26E3                               u6060 06F4  
                             u5500 0292                               u5420 01E0  
                             u5340 0151                               u5260 00C9  
                             u5180 004A                               u6220 10AB  
                             u6140 1035                               u3580 26D7  
                             u3900 1546                               u3820 14BB  
                             u3740 146F                               u3660 13F2  
                             u4701 12EA                               u4621 124D  
                             u4381 1A93                               u3565 27C7  
                             u4285 17BA                               u4461 26E2  
                             u4365 1A69                               u6061 06F3  
                             u5501 0291                               u5421 01DF  
                             u5341 0150                               u5261 00C8  
                             u6221 10AA                               u6141 1034  
                             u3581 26D6                               u3901 1545  
                             u3821 14BA                               u3741 146E  
                             u3661 13F1                               u6310 1DA6  
                             u4710 12FE                               u4630 1269  
                             u4390 1AB0                               u6070 0713  
                             u5430 01EE                               u5350 0163  
                             u5270 00D7                               u5190 0056  
                             u6230 10B2                               u6150 103F  
                             u3910 1550                               u3750 147A  
                             u3670 13F8                               u3590 1E3A  
                             u4550 1C7E                               u4470 1C28  
                             u6311 1DA5                               u4711 12FD  
                             u4631 1268                               u4391 1AAF  
                             u4455 1D98                               u4295 17D2  
                             u6071 0712                               u5431 01ED  
                             u5351 0162                               u5271 00D6  
                             u5191 0055                               u6231 10B1  
                             u6151 103E                               u3911 154F  
                             u3751 1479                               u3671 13F7  
                             u3495 1B8B                               u3591 1E39  
                             u4551 1C7D                               u4471 1C27  
                             u6400 1E1C                               u6320 1DB7  
                             u4800 1349                               u4720 1306  
                             u4640 1287                               u6080 073E  
                             u5600 036A                               u5520 02A7  
                             u5440 0203                               u5360 0170  
                             u5280 00DD                               u6160 1049  
                             u3920 1556                               u3840 14E0  
                             u3680 13FD                               u4560 1C83  
                             u4480 1C3E                               u6401 1E1B  
                             u6321 1DB6                               u4801 1348  
                             u4721 1305                               u4705 12E7  
                             u4641 1286                               u6081 073D  
                             u5601 0369                               u5505 028E  
                             u5441 0202                               u5361 016F  
                             u5281 00DC                               u6161 1048  
                             u3921 1555                               u3841 14DF  
                             u3681 13FC                               u4561 1C82  
                             u4545 1C71                               u6330 1DD6  
                             u6410 1B2A                               u4810 1355  
                             u4650 12BF                               u4570 121A  
                             u6090 0765                               u5610 0378  
                             u5530 02CC                               u5450 0210  
                             u5370 017D                               u5290 00FB  
                             u6170 1052                               u3930 155B  
                             u3850 150F                               u3770 148D  
                             u3690 1416                               u4490 1C51  
                             u6331 1DD5                               u4811 1354  
                             u4651 12BE                               u4571 1219  
                             u6091 0764                               u6075 070F  
                             u5611 0377                               u5531 02CB  
                             u5515 029C                               u5451 020F  
                             u5371 017C                               u5291 00FA  
                             u6171 1051                               u3931 155A  
                             u3851 150E                               u3843 14DC  
                             u3835 14BE                               u3771 148C  
                             u3691 1415                               u4491 1C50  
                             u6420 1B41                               u4820 1363  
                             u4740 1313                               u4580 1220  
                             u4900 10FB                               u5700 0430  
                             u5620 037F                               u5540 02D2  
                             u5460 021D                               u5380 01AA  
                             u6180 1065                               u3940 1561  
                             u3860 1528                               u3780 1491  
                             u4741 1312                               u4581 121F  
                             u4901 10FA                               u5701 042F  
                             u5621 037E                               u5541 02D1  
                             u5525 02A3                               u5461 021C  
                             u5381 01A9                               u6181 1064  
                             u3941 1560                               u3861 1527  
                             u3781 1490                               u3765 147D  
                             u4485 1C3A                               u6350 1DE8  
                             u6430 0807                               u4830 137E  
                             u4590 1225                               u5710 0436  
                             u5630 038E                               u5550 02EE  
                             u5470 022B                               u5390 01AF  
                             u3950 1568                               u3870 152D  
                             u3790 1496                               u6351 1DE7  
                             u6415 1B26                               u6431 0806  
                             u4831 137D                               u4735 1309  
                             u4591 1224                               u5711 0435  
                             u5631 038D                               u5551 02ED  
                             u5471 022A                               u5391 01AE  
                             u3951 1567                               u3871 152C  
                             u3791 1495                               u6440 080C  
                             u4840 1399                               u4760 1323  
                             u4680 12D1                               u4920 1115  
                             u5720 0443                               u5640 0398  
                             u5560 0307                               u5480 024A  
                             u3960 156E                               u6345 1DDA  
                             u6425 1B3D                               u6441 080B  
                             u4841 1398                               u4825 135F  
                             u4761 1322                               u4681 12D0  
                             u4665 12C0                               u4921 1114  
                             u5721 0442                               u5641 0397  
                             u5561 0306                               u5481 0249  
                             u3961 156D                               u6370 1E01  
                             u4850 13AC                               u4770 1328  
                             u5810 04DE                               u5730 0453  
                             u5650 03A7                               u5570 0336  
                             u5490 0263                               u3970 157A  
                             u3890 1541                               _SCS0 04C8  
                             u6371 1E00                               u4851 13AB  
                             u4835 137A                               u4771 1327  
                             u4755 1315                               u4675 12C7  
                             u4915 1109                               u5811 04DD  
                             u5731 0452                               u5651 03A6  
                             u5571 0335                               u5491 0262  
                             u6195 1072                               u3971 1579  
                             u3891 1540                               _SCS1 04C9  
                             u4780 133C                               u4940 1123  
                             u4860 10BA                               u5900 05A5  
                             u5740 0464                               u5660 03B6  
                             u3980 1588                               u6700 0FE7  
                             u6365 1DE9                               u4845 1395  
                             u4781 133B                               u4941 1122  
                             u4861 10B9                               u5901 05A4  
                             u5805 04C7                               u5741 0463  
                             u5661 03B5                               u3885 1537  
                             u6701 0FE6                               u6390 1E17  
                             u6550 2759                               u4790 1343  
                             u4950 1129                               u4870 10BE  
                             u5910 05AF                               u5830 0517  
                             u5750 0488                               u5670 03CF  
                             u5590 034B                               u3990 1597  
                             u6710 0FFD                               u6391 1E16  
                             u6375 1DFD                               u6551 2758  
                             u4791 1342                               u4695 12D3  
                             u4951 1128                               u4935 1119  
                             u4871 10BD                               u5911 05AE  
                             u5815 04DA                               u5751 0487  
                             u5671 03CE                               u5575 0332  
                             u3991 1596                               u6711 0FFC  
                             u4960 112D                               u4880 10DE  
                             u5920 05BD                               u5840 0526  
                             u5680 03EA                               u6720 1169  
                             u6800 0828                               u6385 1E0B  
                             u4961 112C                               u4881 10DD  
                             u5921 05BC                               u5841 0525  
                             u5825 04F1                               u5681 03E9  
                             u5585 0340                               u3985 1584  
                             u6801 0827                               u4970 1141  
                             u5930 05CD                               u5850 0530  
                             u5770 04A2                               u5690 03F3  
                             u6650 1D0D                               u6810 0832  
                             u5931 05CC                               u5851 052F  
                             u5835 0513                               u5771 04A1  
                             u5691 03F2                               u5595 0347  
                             u6651 1D0C                               u6811 0831  
                             u4980 1150                               u5940 05D8  
                             u5860 054A                               u5780 04AF  
                             u6660 08FA                               u6820 0847  
                             u6900 1F0A                               u4981 114F  
                             u5941 05D7                               u5861 0549  
                             u5781 04AE                               u5765 0493  
                             u6645 1C9D                               u6661 08F9  
                             u6821 0846                               u6901 1F09  
                             u4990 1154                               u5950 0611  
                             u5870 0554                               u5790 04C6  
                             u6670 0928                               u6750 11BB  
                             u6830 0851                               u6910 1F10  
                             u4991 1153                               u4975 113D  
                             u4895 10EF                               u5951 0610  
                             u5871 0553                               u5791 04C5  
                             u6671 0927                               u6751 11BA  
                             u6735 1194                               u6831 0850  
                             u6911 1F0F                               u5960 0617  
                             u5880 0558                               u6680 0F8B  
                             u6760 11CD                               u6840 085B  
                             u6920 1F34                               u5961 0616  
                             u5881 0557                               u5785 04AB  
                             u6681 0F8A                               u6761 11CC  
                             u6745 119D                               u6841 085A  
                             u6921 1F33                               u5970 0622  
                             u5890 0593                               u6690 0FBC  
                             u6850 086F                               u6930 1F3A  
                             u5971 0621                               u5891 0592  
                             u6691 0FBB                               u6851 086E  
                             u6931 1F39                               u5980 0628  
                             u6780 1208                               u6940 1F3F  
                             u5981 0627                               u6781 1207  
                             u6941 1F3E                               u5990 0637  
                             u6870 08A7                               u6790 081C  
                             u6950 1F55                               u5991 0636  
                             u6775 11D8                               u6871 08A6  
                             u6791 081B                               u6951 1F54  
                             u6880 08BA                               u6881 08B9  
                             u6865 088B                               u6890 1EFA  
                             u6891 1EF9                               u6967 1EDE  
                             u6977 19F8                               _SPEN 0CEF  
       ml_get_class_name@class_idx 0072                               _TXEN 0CF5  
                             _SYNC 0CF4                               _main 1EC9  
                             _nanf 26FE                               _itoa 1E30  
                             fsr0h 0005                               fsr1h 0007  
                             indf0 0000                               fsr0l 0004  
                             indf1 0001                               fsr1l 0006  
                             btemp 007E                        main@rx_char 0168  
                             start 0003                    ___fldiv@new_exp 0025  
             run_demo@test_samples 0132                      ?_EUSART_Write 0070  
                    ___fltol@sign1 005A                    __end_of___aldiv 1E30  
                  __end_of___fladd 15C5                              ?_main 0070  
                            ?_nanf 0070                    __end_of___fldiv 13BA  
                            ?_itoa 0079                    __end_of___awdiv 1C1E  
                  __end_of___flneg 26E6                              STR_10 2883  
                            STR_11 2894                              STR_20 2912  
                            STR_12 284D                              STR_21 28E9  
                            STR_13 281E                              STR_22 286F  
                            STR_14 19B0                              STR_30 28E9  
                            STR_15 2903                              STR_31 2901  
                            STR_23 2861                              STR_32 286F  
                            STR_24 2903                              STR_40 2906  
                            STR_16 2872                              _BRG16 0CFB  
                            STR_33 2916                              STR_17 28C3  
                            STR_25 2836                              STR_42 2918  
                            STR_26 2903                              STR_18 28B4  
                            STR_34 28E0                              STR_19 2919  
                            STR_35 28D7                              STR_27 28AD  
                            STR_28 2919                              STR_36 290A  
                  __end_of___awmod 1BBF                              STR_29 2912  
                            STR_39 290E                    __end_of___flmul 1800  
                  __end_of___flsub 27B4                    __end_of___fltol 1C8F  
                  ?_parse_features 006E                    ___awdiv@divisor 0070  
                            _IRCF0 04CB                              _IRCF1 04CC  
                            _IRCF2 04CD                              _IRCF3 04CE  
        process_command@prediction 01B0                    ___awdiv@counter 0075  
              ___lmul@multiplicand 0074          process_command@num_parsed 01B1  
                            _errno 016C                    __end_of_isdigit 273F  
                            _votes 0169                              nanf@s 0070  
                            nanf@u 0074                              itoa@d 0079  
                            status 0003                              wtemp0 007E  
                  __end_of_toupper 1015                       ?_internal_32 0070  
                  __initialization 07B9                       __end_of_main 1F64  
                     __end_of_nanf 270F                       __end_of_itoa 1EC9  
                   ??_EUSART_Write 0070                             ??_main 0166  
                           ??_nanf 0074                             ??_itoa 007B  
       __end_of_ml_support_vectors 19B0                   ___awdiv@dividend 0072  
                           _RC1REG 0199                             _SPBRGL 019B  
                           _TX1REG 019A                             _SPLLEN 04CF  
                 __end_of___xxtofl 115E                             ___flge 1D16  
                           ___fleq 1A80                             ___lmul 1A4D  
                        ??___aldiv 0078                          ??___fladd 0028  
                           ___wmul 2775                          ??___fldiv 0078  
                        ??___awdiv 0074                          ??___flneg 0074  
                        ??___awmod 0074                          ??___flmul 0040  
                        ??___flsub 007E                          ??___fltol 0056  
                 __end_of_initMain 1A1D                             _memset 273F  
                 ___awdiv@quotient 0077                    ___awmod@divisor 0070  
                _ml_get_class_name 275A                    ___awmod@counter 0075  
                           _strlen 270F                             _strtof 0029  
                 __end_of_isxdigit 2800                 ?_ml_get_class_name 0070  
                        ??_isdigit 0072                   __end_of_run_demo 1210  
              ??_ml_get_class_name 0072                          ??_toupper 0072  
                       ___flge@ff1 0070                         ___flge@ff2 0074  
                     ___xxtofl@arg 007A                       ?_print_float 005C  
                     ___xxtofl@exp 0079                       ___xxtofl@val 0070  
                       ___fleq@ff1 0070                         ___fleq@ff2 0074  
          __end_of__initialization 07FD                        ml_predict@i 012D  
                      ml_predict@x 006F                         ___flneg@f1 0070  
                   print_float@val 005C                         ___fltol@f1 0052  
                   __pcstackCOMMON 0070                       __pidataBANK3 26C2  
                     __pidataBANK4 1A1D          __end_of_ml_get_class_name 2775  
                       __pbssBANK2 0169                         __pbssBANK3 01B4  
                       __pbssBANK5 02A0               __end_of_EUSART_Write 26DB  
                __end_of__Umul8_16 27D7                         __pmaintext 1EC9  
                          ?___flge 0070                            ?___fleq 0070  
                          ?___lmul 0070                            ?___wmul 0070  
                 ??_parse_features 00A0                            ?_memset 0070  
                   ___lmul@product 0078                            ?_strlen 0070  
                          ?_strtof 0052                          ?___xxtofl 0070  
              ml_predict@class_idx 006E                            _PPSLOCK 0E0F  
                    run_demo@F6263 0220                          ?_initMain 0070  
                        ?_isxdigit 0070                ml_predict@max_votes 0124  
                          ___aldiv 1DA0                            ___fladd 13BA  
                          ___fldiv 1210                            ___awdiv 1BBF  
                          ___flneg 26DB                            ___awmod 1B6C  
                          ___flmul 15C5                            ___flsub 2794  
                          ___fltol 1C1E                          ?_run_demo 0070  
                          __ptext1 0810                            __ptext2 115E  
                          __ptext3 1F64                            __ptext4 1C1E  
                          __ptext5 0005                            __ptext6 1E30  
                          __ptext7 1B6C                            __ptext8 1BBF  
                          __ptext9 08E2                         _ml_predict 08E2  
                          _kernels 2784                            _isdigit 2727  
                       ??___xxtofl 0074                   ___awmod@dividend 0072  
                 ___aldiv@dividend 0074                            clrloop0 26E7  
                          _toupper 1004               end_of_initialization 07FD  
                ??_process_command 0165                         ??_initMain 0070  
                          itoa@div 0025                            itoa@buf 0024  
                          init_ram 26F2                            memset@c 0070  
               _ml_support_vectors 1800                            memset@n 0072  
                          memset@p 0075                            itoa@num 0020  
                          initloop 26F3                  _EUSART_Initialize 1B1C  
            process_command@buffer 01B3                         ??_isxdigit 0072  
               ?_EUSART_Initialize 0026                   ___aldiv@quotient 0022  
                       ??_run_demo 012E                 EUSART_Initialize@x 0079  
                          strlen@a 0073                            strlen@s 0074  
              ??_EUSART_Initialize 002A                            strtof@i 006C  
                          strtof@s 006D                     _ml_class_names 01C0  
                       _print_menu 1ACE                        ___fladd@grs 007C  
            parse_features@saveptr 00A5                      ___xxtofl@sign 0078  
                        _TRISBbits 008D                        ___fldiv@grs 0027  
                      ___fldiv@rem 0020                    print_float@frac 0060  
                        _RXPPSbits 0E24                        ___flmul@grs 0046  
        __end_of_EUSART_Initialize 1B6C       __end_of_EUSART_Write_Integer 0029  
                   __end_of___flge 1DA0                     __end_of___fleq 1ACE  
                   __end_of___lmul 1A80                     __end_of___wmul 2794  
                     _EUSART_Write 26D1                     __end_of_memset 275A  
                      ?_ml_predict 0069                     __end_of_strlen 2727  
                   __end_of_strtof 07B9                start_initialization 07B9  
EUSART_Write_Integer@value_to_send 007B                      ??_EUSART_Read 0070  
                _ml_compute_kernel 1C8F                 ?_ml_compute_kernel 0052  
                _EUSART_Write_Text 19D3                 ?_EUSART_Write_Text 0073  
              ??_ml_compute_kernel 0056                           ??___flge 0078  
                         ??___fleq 0078                           ??___lmul 0078  
                         ??___wmul 0074                          __Umul8_16 27B4  
                      __pdataBANK3 01C0                        __pdataBANK4 0220  
              ??_EUSART_Write_Text 0075                           ??_memset 0074  
                       memset@dest 0076                           ??_strlen 0072  
                         ??_strtof 0056                          ___fladd@a 0024  
                        ___fladd@b 0020                        ?_print_menu 0070  
                        ___fldiv@a 0070                          ___fldiv@b 0074  
                      __pbssBIGRAM 2784                          ___flmul@a 003C  
                        ___flmul@b 0038                          ___flsub@a 0030  
                        ___flsub@b 0034                          ___latbits 0003  
                    __pcstackBANK0 0020                      __pcstackBANK1 00A0  
                    __pcstackBANK2 0120                      __pcstackBANK3 01A0  
        __end_of_ml_compute_kernel 1D16          __end_of_EUSART_Write_Text 19F0  
              __end_of_EUSART_Read 0810                      ??_internal_32 0070  
                        _decisions 01B4                           ?___aldiv 0070  
                         ?___fladd 0020                           ?___fldiv 0070  
                         ?___awdiv 0070                           ?___flneg 0070  
                         ?___awmod 0070                           ?___flmul 0038  
                         ?___flsub 0030                           ?___fltol 0052  
                       ?__Umul8_16 0070          EUSART_Initialize@baudrate 0026  
                  _process_command 0810                           ?_isdigit 0070  
             _EUSART_Write_Integer 0005                           ?_toupper 0070  
                  ___aldiv@divisor 0070                    ___aldiv@counter 0020  
                   ___wmul@product 0074                          clear_ram0 26E6  
                   _ml_predict$253 0120                     _ml_predict$254 0122  
                   _ml_predict$960 0125                     _ml_predict$961 0129  
                   _ml_predict$970 00C0                     _ml_predict$962 00A0  
                   _ml_predict$971 00C4                     _ml_predict$963 00A4  
                   _ml_predict$980 00E8                     _ml_predict$972 00C8  
                   _ml_predict$964 00A8                     _ml_predict$981 00EC  
                   _ml_predict$973 00CC                     _ml_predict$965 00AC  
                   _ml_predict$974 00D0                     _ml_predict$966 00B0  
                   _ml_predict$975 00D4                     _ml_predict$967 00B4  
                   _ml_predict$976 00D8                     _ml_predict$968 00B8  
                   _ml_predict$977 00DC                     _ml_predict$969 00BC  
                   _ml_predict$978 00E0                     _ml_predict$979 00E4  
                         _PIR1bits 0011            EUSART_Write_Integer@ptr 003B  
              __end_of_internal_32 26D1               parse_features@buffer 00A2  
                      strtof@digit 0062                        strtof@flags 0063  
                      strtof@expon 0064                          _rx_buffer 02A0  
                ___wmul@multiplier 0070              ?_EUSART_Write_Integer 007B  
                      _EUSART_Read 0800                  ___lmul@multiplier 0070  
                    ??_print_float 007E       EUSART_Write_Integer@temp_ptr 003C  
                     _isxdigit$754 0076            __end_of_process_command 08E2  
                      ??__Umul8_16 0072                       ??_ml_predict 006A  
                       _ANSELBbits 018D                           ___xxtofl 10B4  
                         __ptext10 1C8F                           __ptext11 2794  
                         __ptext20 26FE                           __ptext12 13BA  
                         __ptext21 27D7                           __ptext13 275A  
                         __ptext30 1A80                           __ptext22 2727  
                         __ptext14 1ACE                           __ptext31 1210  
                         __ptext23 10B4                           __ptext15 19D3  
                         __ptext32 270F                           __ptext24 2775  
                         __ptext16 26D1                           __ptext33 273F  
                         __ptext25 1A4D                           __ptext17 1015  
                         __ptext34 19F0                           __ptext26 26DB  
                         __ptext18 0029                           __ptext35 26C8  
                         __ptext27 15C5                           __ptext19 1004  
                         __ptext36 0800                           __ptext28 27B4  
                         __ptext37 1B1C                           __ptext29 1D16  
                         __ptext38 1DA0            process_command@features 01A0  
                        isxdigit@c 0070                           _initMain 19F0  
                      _internal_32 26C8                 __end_of_ml_predict 1000  
                       _RB2PPSbits 0E9A                           _isxdigit 27D7  
              __end_of_print_float 2000                         _RC1STAbits 019D  
              parse_features@count 00A4                         strtof@eexp 0066  
                       strtof@dpos 0061                parse_features@token 00A3  
                       strtof@xpos 0060                           _rx_index 016E  
                         _run_demo 115E             ??_EUSART_Write_Integer 007D  
                     ??_print_menu 0078                          run_demo@i 0164  
                        run_demo@j 0163                     __pstringtext10 28A1  
                   __pstringtext11 28AD                     __pstringtext20 2901  
                   __pstringtext12 28B8                     __pstringtext21 2906  
                   __pstringtext13 28C3                     __pstringtext22 290A  
                   __pstringtext14 28CD                     __pstringtext23 290E  
                   __pstringtext15 28D7                     __pstringtext24 2912  
                   __pstringtext16 28E0                     __pstringtext25 2916  
                   __pstringtext17 28E9                     __pstringtext26 2919  
                   __pstringtext18 28F2                     __pstringtext27 0000  
                   __pstringtext19 28FA                           isdigit@c 0070  
                         itoa@temp 0022                   process_command@i 01B2  
                      _PPSLOCKbits 0E0F                 __end_of_print_menu 1B1C  
                        strtof@err 005E                          strtof@res 0052  
               ml_compute_kernel@i 0069                 ml_compute_kernel@x 0064  
                 ?_process_command 0070                      __pstringtext1 1800  
                    __pstringtext2 2800                      __pstringtext3 281E  
                    __pstringtext4 2836                      __pstringtext5 284D  
                    __pstringtext6 2861                      __pstringtext7 2872  
                    __pstringtext8 2883                      __pstringtext9 2894  
           __Umul8_16@multiplicand 0070             parse_features@features 006E  
                   _parse_features 1015                           toupper@c 0070  
            EUSART_Write_Text@text 0073                       ___aldiv@sign 0021  
                         strtof@_u 0068                      ___fladd@signs 0079  
               EUSART_Write@txData 0070                        _print_float 1F64  
                     ___fladd@aexp 007A                       ___fladd@bexp 007B  
             __Umul8_16@multiplier 0078                 EUSART_Write_Text@i 0076  
               run_demo@prediction 0162                  __Umul8_16@product 0074  
