

Microchip Technology PIC LITE Macro Assembler V1.41 build -162212810 
                                                                                               Tue Apr 18 21:01:23 2017

Microchip Technology Omniscient Code Generator v1.41 (Free mode) build 201701250102
     1                           	processor	16F1717
     2                           	opt	pw 120
     3                           	opt	lm
     4                           	psect	stringtext,global,class=STRCODE,delta=2
     5                           	psect	cinit,global,class=CODE,merge=1,delta=2
     6                           	psect	bssBANK0,global,class=BANK0,space=1,delta=1
     7                           	psect	clrtext,global,class=CODE,delta=2
     8                           	psect	cstackCOMMON,global,class=COMMON,space=1,delta=1
     9                           	psect	cstackBANK0,global,class=BANK0,space=1,delta=1
    10                           	psect	maintext,global,class=CODE,merge=1,split=1,delta=2
    11                           	psect	text1,local,class=CODE,merge=1,delta=2
    12                           	psect	text2,local,class=CODE,merge=1,delta=2
    13                           	psect	text3,local,class=CODE,merge=1,delta=2,group=1
    14                           	psect	text4,local,class=CODE,merge=1,delta=2
    15                           	psect	text5,local,class=CODE,merge=1,delta=2
    16                           	psect	text6,local,class=CODE,merge=1,delta=2
    17                           	psect	text7,local,class=CODE,merge=1,delta=2
    18                           	psect	text8,local,class=CODE,merge=1,delta=2
    19                           	psect	text9,local,class=CODE,merge=1,delta=2
    20                           	psect	text10,local,class=CODE,merge=1,delta=2,group=1
    21                           	psect	text11,local,class=CODE,merge=1,delta=2
    22                           	psect	text12,local,class=CODE,merge=1,delta=2
    23                           	psect	text13,local,class=CODE,merge=1,delta=2
    24                           	psect	text14,local,class=CODE,merge=1,delta=2
    25                           	psect	text15,local,class=CODE,merge=1,delta=2
    26                           	psect	text16,local,class=CODE,merge=1,delta=2
    27                           	psect	text17,local,class=CODE,merge=1,delta=2
    28                           	psect	text18,local,class=CODE,merge=1,delta=2,group=1
    29                           	psect	text19,local,class=CODE,merge=1,delta=2,group=1
    30                           	psect	text20,local,class=CODE,merge=1,delta=2
    31                           	psect	text21,local,class=CODE,merge=1,delta=2
    32                           	dabs	1,0x7E,2
    33  0000                     
    34                           ; Version 1.41
    35                           ; Generated 25/01/2017 GMT
    36                           ; 
    37                           ; Copyright © 2017, Microchip Technology Inc. and its subsidiaries ("Microchip")
    38                           ; All rights reserved.
    39                           ; 
    40                           ; This software is developed by Microchip Technology Inc. and its subsidiaries ("Microch
      +                          ip").
    41                           ; 
    42                           ; Redistribution and use in source and binary forms, with or without modification, are
    43                           ; permitted provided that the following conditions are met:
    44                           ; 
    45                           ;     1. Redistributions of source code must retain the above copyright notice, this lis
      +                          t of
    46                           ;        conditions and the following disclaimer.
    47                           ; 
    48                           ;     2. Redistributions in binary form must reproduce the above copyright notice, this 
      +                          list
    49                           ;        of conditions and the following disclaimer in the documentation and/or other
    50                           ;        materials provided with the distribution.
    51                           ; 
    52                           ;     3. Microchip's name may not be used to endorse or promote products derived from th
      +                          is
    53                           ;        software without specific prior written permission.
    54                           ; 
    55                           ; THIS SOFTWARE IS PROVIDED BY MICROCHIP "AS IS" AND ANY EXPRESS OR IMPLIED WARRANTIES,
    56                           ; INCLUDING, BUT NOT LIMITED TO, THE IMPLIED WARRANTIES OF MERCHANTABILITY AND FITNESS F
      +                          OR
    57                           ; PURPOSE ARE DISCLAIMED.  IN NO EVENT SHALL MICROCHIP BE LIABLE FOR ANY DIRECT, INDIREC
      +                          T,
    58                           ; INCIDENTAL, SPECIAL, EXEMPLARY, OR CONSEQUENTIAL DAMAGES (INCLUDING BUT NOT LIMITED TO
    59                           ; PROCUREMENT OF SUBSTITUTE GOODS OR SERVICES; LOSS OF USE, DATA OR PROFITS; OR BUSINESS
    60                           ; INTERRUPTION) HOWSOEVER CAUSED AND ON ANY THEORY OF LIABILITY, WHETHER IN CONTRACT, ST
      +                          RICT
    61                           ; LIABILITY, OR TORT (INCLUDING NEGLIGENCE OR OTHERWISE) ARISING IN ANY WAY OUT OF THE U
      +                          SE OF
    62                           ; THIS SOFTWARE, EVEN IF ADVISED OF THE POSSIBILITY OF SUCH DAMAGE.
    63                           ; 
    64                           ; 
    65                           ; Code-generator required, PIC16F1717 Definitions
    66                           ; 
    67                           ; SFR Addresses
    68  0000                     	;# 
    69  0001                     	;# 
    70  0002                     	;# 
    71  0003                     	;# 
    72  0004                     	;# 
    73  0005                     	;# 
    74  0006                     	;# 
    75  0007                     	;# 
    76  0008                     	;# 
    77  0009                     	;# 
    78  000A                     	;# 
    79  000B                     	;# 
    80  000C                     	;# 
    81  000D                     	;# 
    82  000E                     	;# 
    83  000F                     	;# 
    84  0010                     	;# 
    85  0011                     	;# 
    86  0012                     	;# 
    87  0013                     	;# 
    88  0015                     	;# 
    89  0016                     	;# 
    90  0016                     	;# 
    91  0017                     	;# 
    92  0018                     	;# 
    93  0019                     	;# 
    94  001A                     	;# 
    95  001B                     	;# 
    96  001C                     	;# 
    97  008C                     	;# 
    98  008D                     	;# 
    99  008E                     	;# 
   100  008F                     	;# 
   101  0090                     	;# 
   102  0091                     	;# 
   103  0092                     	;# 
   104  0093                     	;# 
   105  0095                     	;# 
   106  0096                     	;# 
   107  0097                     	;# 
   108  0098                     	;# 
   109  0099                     	;# 
   110  009A                     	;# 
   111  009B                     	;# 
   112  009B                     	;# 
   113  009C                     	;# 
   114  009D                     	;# 
   115  009E                     	;# 
   116  009F                     	;# 
   117  010C                     	;# 
   118  010D                     	;# 
   119  010E                     	;# 
   120  010F                     	;# 
   121  0110                     	;# 
   122  0111                     	;# 
   123  0112                     	;# 
   124  0113                     	;# 
   125  0114                     	;# 
   126  0115                     	;# 
   127  0116                     	;# 
   128  0117                     	;# 
   129  0118                     	;# 
   130  0119                     	;# 
   131  011A                     	;# 
   132  011B                     	;# 
   133  011B                     	;# 
   134  011C                     	;# 
   135  018C                     	;# 
   136  018D                     	;# 
   137  018E                     	;# 
   138  018F                     	;# 
   139  0190                     	;# 
   140  0191                     	;# 
   141  0191                     	;# 
   142  0192                     	;# 
   143  0193                     	;# 
   144  0193                     	;# 
   145  0194                     	;# 
   146  0195                     	;# 
   147  0196                     	;# 
   148  0197                     	;# 
   149  0199                     	;# 
   150  0199                     	;# 
   151  0199                     	;# 
   152  019A                     	;# 
   153  019A                     	;# 
   154  019A                     	;# 
   155  019B                     	;# 
   156  019B                     	;# 
   157  019B                     	;# 
   158  019B                     	;# 
   159  019B                     	;# 
   160  019C                     	;# 
   161  019C                     	;# 
   162  019C                     	;# 
   163  019D                     	;# 
   164  019D                     	;# 
   165  019D                     	;# 
   166  019E                     	;# 
   167  019E                     	;# 
   168  019E                     	;# 
   169  019F                     	;# 
   170  019F                     	;# 
   171  019F                     	;# 
   172  019F                     	;# 
   173  019F                     	;# 
   174  020C                     	;# 
   175  020D                     	;# 
   176  020E                     	;# 
   177  020F                     	;# 
   178  0210                     	;# 
   179  0211                     	;# 
   180  0211                     	;# 
   181  0212                     	;# 
   182  0212                     	;# 
   183  0213                     	;# 
   184  0213                     	;# 
   185  0214                     	;# 
   186  0214                     	;# 
   187  0215                     	;# 
   188  0215                     	;# 
   189  0215                     	;# 
   190  0215                     	;# 
   191  0216                     	;# 
   192  0216                     	;# 
   193  0217                     	;# 
   194  0217                     	;# 
   195  028C                     	;# 
   196  028D                     	;# 
   197  028E                     	;# 
   198  028F                     	;# 
   199  0290                     	;# 
   200  0291                     	;# 
   201  0291                     	;# 
   202  0292                     	;# 
   203  0293                     	;# 
   204  0293                     	;# 
   205  0298                     	;# 
   206  0298                     	;# 
   207  0299                     	;# 
   208  029A                     	;# 
   209  029A                     	;# 
   210  029E                     	;# 
   211  030C                     	;# 
   212  030D                     	;# 
   213  030E                     	;# 
   214  030F                     	;# 
   215  0310                     	;# 
   216  038C                     	;# 
   217  038D                     	;# 
   218  038E                     	;# 
   219  038F                     	;# 
   220  0390                     	;# 
   221  0391                     	;# 
   222  0392                     	;# 
   223  0393                     	;# 
   224  0394                     	;# 
   225  0395                     	;# 
   226  0396                     	;# 
   227  0397                     	;# 
   228  0398                     	;# 
   229  0399                     	;# 
   230  039D                     	;# 
   231  039E                     	;# 
   232  039F                     	;# 
   233  0415                     	;# 
   234  0416                     	;# 
   235  0417                     	;# 
   236  041C                     	;# 
   237  041D                     	;# 
   238  041E                     	;# 
   239  0498                     	;# 
   240  0498                     	;# 
   241  0499                     	;# 
   242  049A                     	;# 
   243  049B                     	;# 
   244  049B                     	;# 
   245  049C                     	;# 
   246  049D                     	;# 
   247  049E                     	;# 
   248  049F                     	;# 
   249  0511                     	;# 
   250  0515                     	;# 
   251  0617                     	;# 
   252  0618                     	;# 
   253  0619                     	;# 
   254  0619                     	;# 
   255  061A                     	;# 
   256  061B                     	;# 
   257  061C                     	;# 
   258  061C                     	;# 
   259  0691                     	;# 
   260  0692                     	;# 
   261  0693                     	;# 
   262  0694                     	;# 
   263  0695                     	;# 
   264  0696                     	;# 
   265  0697                     	;# 
   266  0698                     	;# 
   267  0699                     	;# 
   268  069A                     	;# 
   269  069B                     	;# 
   270  069C                     	;# 
   271  069D                     	;# 
   272  069E                     	;# 
   273  069F                     	;# 
   274  0E0F                     	;# 
   275  0E10                     	;# 
   276  0E11                     	;# 
   277  0E12                     	;# 
   278  0E13                     	;# 
   279  0E14                     	;# 
   280  0E15                     	;# 
   281  0E17                     	;# 
   282  0E20                     	;# 
   283  0E21                     	;# 
   284  0E22                     	;# 
   285  0E24                     	;# 
   286  0E25                     	;# 
   287  0E28                     	;# 
   288  0E29                     	;# 
   289  0E2A                     	;# 
   290  0E2B                     	;# 
   291  0E90                     	;# 
   292  0E91                     	;# 
   293  0E92                     	;# 
   294  0E93                     	;# 
   295  0E94                     	;# 
   296  0E95                     	;# 
   297  0E96                     	;# 
   298  0E97                     	;# 
   299  0E98                     	;# 
   300  0E99                     	;# 
   301  0E9A                     	;# 
   302  0E9B                     	;# 
   303  0E9C                     	;# 
   304  0E9D                     	;# 
   305  0E9E                     	;# 
   306  0E9F                     	;# 
   307  0EA0                     	;# 
   308  0EA1                     	;# 
   309  0EA2                     	;# 
   310  0EA3                     	;# 
   311  0EA4                     	;# 
   312  0EA5                     	;# 
   313  0EA6                     	;# 
   314  0EA7                     	;# 
   315  0EA8                     	;# 
   316  0EA9                     	;# 
   317  0EAA                     	;# 
   318  0EAB                     	;# 
   319  0EAC                     	;# 
   320  0EAD                     	;# 
   321  0EAE                     	;# 
   322  0EAF                     	;# 
   323  0EB0                     	;# 
   324  0EB1                     	;# 
   325  0EB2                     	;# 
   326  0F0F                     	;# 
   327  0F10                     	;# 
   328  0F11                     	;# 
   329  0F12                     	;# 
   330  0F13                     	;# 
   331  0F14                     	;# 
   332  0F15                     	;# 
   333  0F16                     	;# 
   334  0F17                     	;# 
   335  0F18                     	;# 
   336  0F19                     	;# 
   337  0F1A                     	;# 
   338  0F1B                     	;# 
   339  0F1C                     	;# 
   340  0F1D                     	;# 
   341  0F1E                     	;# 
   342  0F1F                     	;# 
   343  0F20                     	;# 
   344  0F21                     	;# 
   345  0F22                     	;# 
   346  0F23                     	;# 
   347  0F24                     	;# 
   348  0F25                     	;# 
   349  0F26                     	;# 
   350  0F27                     	;# 
   351  0F28                     	;# 
   352  0F29                     	;# 
   353  0F2A                     	;# 
   354  0F2B                     	;# 
   355  0F2C                     	;# 
   356  0F2D                     	;# 
   357  0F2E                     	;# 
   358  0F2F                     	;# 
   359  0F30                     	;# 
   360  0F31                     	;# 
   361  0F32                     	;# 
   362  0F33                     	;# 
   363  0F34                     	;# 
   364  0F35                     	;# 
   365  0F36                     	;# 
   366  0F37                     	;# 
   367  0FE4                     	;# 
   368  0FE5                     	;# 
   369  0FE6                     	;# 
   370  0FE7                     	;# 
   371  0FE8                     	;# 
   372  0FE9                     	;# 
   373  0FEA                     	;# 
   374  0FEB                     	;# 
   375  0FED                     	;# 
   376  0FEE                     	;# 
   377  0FEF                     	;# 
   378  0000                     	;# 
   379  0001                     	;# 
   380  0002                     	;# 
   381  0003                     	;# 
   382  0004                     	;# 
   383  0005                     	;# 
   384  0006                     	;# 
   385  0007                     	;# 
   386  0008                     	;# 
   387  0009                     	;# 
   388  000A                     	;# 
   389  000B                     	;# 
   390  000C                     	;# 
   391  000D                     	;# 
   392  000E                     	;# 
   393  000F                     	;# 
   394  0010                     	;# 
   395  0011                     	;# 
   396  0012                     	;# 
   397  0013                     	;# 
   398  0015                     	;# 
   399  0016                     	;# 
   400  0016                     	;# 
   401  0017                     	;# 
   402  0018                     	;# 
   403  0019                     	;# 
   404  001A                     	;# 
   405  001B                     	;# 
   406  001C                     	;# 
   407  008C                     	;# 
   408  008D                     	;# 
   409  008E                     	;# 
   410  008F                     	;# 
   411  0090                     	;# 
   412  0091                     	;# 
   413  0092                     	;# 
   414  0093                     	;# 
   415  0095                     	;# 
   416  0096                     	;# 
   417  0097                     	;# 
   418  0098                     	;# 
   419  0099                     	;# 
   420  009A                     	;# 
   421  009B                     	;# 
   422  009B                     	;# 
   423  009C                     	;# 
   424  009D                     	;# 
   425  009E                     	;# 
   426  009F                     	;# 
   427  010C                     	;# 
   428  010D                     	;# 
   429  010E                     	;# 
   430  010F                     	;# 
   431  0110                     	;# 
   432  0111                     	;# 
   433  0112                     	;# 
   434  0113                     	;# 
   435  0114                     	;# 
   436  0115                     	;# 
   437  0116                     	;# 
   438  0117                     	;# 
   439  0118                     	;# 
   440  0119                     	;# 
   441  011A                     	;# 
   442  011B                     	;# 
   443  011B                     	;# 
   444  011C                     	;# 
   445  018C                     	;# 
   446  018D                     	;# 
   447  018E                     	;# 
   448  018F                     	;# 
   449  0190                     	;# 
   450  0191                     	;# 
   451  0191                     	;# 
   452  0192                     	;# 
   453  0193                     	;# 
   454  0193                     	;# 
   455  0194                     	;# 
   456  0195                     	;# 
   457  0196                     	;# 
   458  0197                     	;# 
   459  0199                     	;# 
   460  0199                     	;# 
   461  0199                     	;# 
   462  019A                     	;# 
   463  019A                     	;# 
   464  019A                     	;# 
   465  019B                     	;# 
   466  019B                     	;# 
   467  019B                     	;# 
   468  019B                     	;# 
   469  019B                     	;# 
   470  019C                     	;# 
   471  019C                     	;# 
   472  019C                     	;# 
   473  019D                     	;# 
   474  019D                     	;# 
   475  019D                     	;# 
   476  019E                     	;# 
   477  019E                     	;# 
   478  019E                     	;# 
   479  019F                     	;# 
   480  019F                     	;# 
   481  019F                     	;# 
   482  019F                     	;# 
   483  019F                     	;# 
   484  020C                     	;# 
   485  020D                     	;# 
   486  020E                     	;# 
   487  020F                     	;# 
   488  0210                     	;# 
   489  0211                     	;# 
   490  0211                     	;# 
   491  0212                     	;# 
   492  0212                     	;# 
   493  0213                     	;# 
   494  0213                     	;# 
   495  0214                     	;# 
   496  0214                     	;# 
   497  0215                     	;# 
   498  0215                     	;# 
   499  0215                     	;# 
   500  0215                     	;# 
   501  0216                     	;# 
   502  0216                     	;# 
   503  0217                     	;# 
   504  0217                     	;# 
   505  028C                     	;# 
   506  028D                     	;# 
   507  028E                     	;# 
   508  028F                     	;# 
   509  0290                     	;# 
   510  0291                     	;# 
   511  0291                     	;# 
   512  0292                     	;# 
   513  0293                     	;# 
   514  0293                     	;# 
   515  0298                     	;# 
   516  0298                     	;# 
   517  0299                     	;# 
   518  029A                     	;# 
   519  029A                     	;# 
   520  029E                     	;# 
   521  030C                     	;# 
   522  030D                     	;# 
   523  030E                     	;# 
   524  030F                     	;# 
   525  0310                     	;# 
   526  038C                     	;# 
   527  038D                     	;# 
   528  038E                     	;# 
   529  038F                     	;# 
   530  0390                     	;# 
   531  0391                     	;# 
   532  0392                     	;# 
   533  0393                     	;# 
   534  0394                     	;# 
   535  0395                     	;# 
   536  0396                     	;# 
   537  0397                     	;# 
   538  0398                     	;# 
   539  0399                     	;# 
   540  039D                     	;# 
   541  039E                     	;# 
   542  039F                     	;# 
   543  0415                     	;# 
   544  0416                     	;# 
   545  0417                     	;# 
   546  041C                     	;# 
   547  041D                     	;# 
   548  041E                     	;# 
   549  0498                     	;# 
   550  0498                     	;# 
   551  0499                     	;# 
   552  049A                     	;# 
   553  049B                     	;# 
   554  049B                     	;# 
   555  049C                     	;# 
   556  049D                     	;# 
   557  049E                     	;# 
   558  049F                     	;# 
   559  0511                     	;# 
   560  0515                     	;# 
   561  0617                     	;# 
   562  0618                     	;# 
   563  0619                     	;# 
   564  0619                     	;# 
   565  061A                     	;# 
   566  061B                     	;# 
   567  061C                     	;# 
   568  061C                     	;# 
   569  0691                     	;# 
   570  0692                     	;# 
   571  0693                     	;# 
   572  0694                     	;# 
   573  0695                     	;# 
   574  0696                     	;# 
   575  0697                     	;# 
   576  0698                     	;# 
   577  0699                     	;# 
   578  069A                     	;# 
   579  069B                     	;# 
   580  069C                     	;# 
   581  069D                     	;# 
   582  069E                     	;# 
   583  069F                     	;# 
   584  0E0F                     	;# 
   585  0E10                     	;# 
   586  0E11                     	;# 
   587  0E12                     	;# 
   588  0E13                     	;# 
   589  0E14                     	;# 
   590  0E15                     	;# 
   591  0E17                     	;# 
   592  0E20                     	;# 
   593  0E21                     	;# 
   594  0E22                     	;# 
   595  0E24                     	;# 
   596  0E25                     	;# 
   597  0E28                     	;# 
   598  0E29                     	;# 
   599  0E2A                     	;# 
   600  0E2B                     	;# 
   601  0E90                     	;# 
   602  0E91                     	;# 
   603  0E92                     	;# 
   604  0E93                     	;# 
   605  0E94                     	;# 
   606  0E95                     	;# 
   607  0E96                     	;# 
   608  0E97                     	;# 
   609  0E98                     	;# 
   610  0E99                     	;# 
   611  0E9A                     	;# 
   612  0E9B                     	;# 
   613  0E9C                     	;# 
   614  0E9D                     	;# 
   615  0E9E                     	;# 
   616  0E9F                     	;# 
   617  0EA0                     	;# 
   618  0EA1                     	;# 
   619  0EA2                     	;# 
   620  0EA3                     	;# 
   621  0EA4                     	;# 
   622  0EA5                     	;# 
   623  0EA6                     	;# 
   624  0EA7                     	;# 
   625  0EA8                     	;# 
   626  0EA9                     	;# 
   627  0EAA                     	;# 
   628  0EAB                     	;# 
   629  0EAC                     	;# 
   630  0EAD                     	;# 
   631  0EAE                     	;# 
   632  0EAF                     	;# 
   633  0EB0                     	;# 
   634  0EB1                     	;# 
   635  0EB2                     	;# 
   636  0F0F                     	;# 
   637  0F10                     	;# 
   638  0F11                     	;# 
   639  0F12                     	;# 
   640  0F13                     	;# 
   641  0F14                     	;# 
   642  0F15                     	;# 
   643  0F16                     	;# 
   644  0F17                     	;# 
   645  0F18                     	;# 
   646  0F19                     	;# 
   647  0F1A                     	;# 
   648  0F1B                     	;# 
   649  0F1C                     	;# 
   650  0F1D                     	;# 
   651  0F1E                     	;# 
   652  0F1F                     	;# 
   653  0F20                     	;# 
   654  0F21                     	;# 
   655  0F22                     	;# 
   656  0F23                     	;# 
   657  0F24                     	;# 
   658  0F25                     	;# 
   659  0F26                     	;# 
   660  0F27                     	;# 
   661  0F28                     	;# 
   662  0F29                     	;# 
   663  0F2A                     	;# 
   664  0F2B                     	;# 
   665  0F2C                     	;# 
   666  0F2D                     	;# 
   667  0F2E                     	;# 
   668  0F2F                     	;# 
   669  0F30                     	;# 
   670  0F31                     	;# 
   671  0F32                     	;# 
   672  0F33                     	;# 
   673  0F34                     	;# 
   674  0F35                     	;# 
   675  0F36                     	;# 
   676  0F37                     	;# 
   677  0FE4                     	;# 
   678  0FE5                     	;# 
   679  0FE6                     	;# 
   680  0FE7                     	;# 
   681  0FE8                     	;# 
   682  0FE9                     	;# 
   683  0FEA                     	;# 
   684  0FEB                     	;# 
   685  0FED                     	;# 
   686  0FEE                     	;# 
   687  0FEF                     	;# 
   688  0000                     	;# 
   689  0001                     	;# 
   690  0002                     	;# 
   691  0003                     	;# 
   692  0004                     	;# 
   693  0005                     	;# 
   694  0006                     	;# 
   695  0007                     	;# 
   696  0008                     	;# 
   697  0009                     	;# 
   698  000A                     	;# 
   699  000B                     	;# 
   700  000C                     	;# 
   701  000D                     	;# 
   702  000E                     	;# 
   703  000F                     	;# 
   704  0010                     	;# 
   705  0011                     	;# 
   706  0012                     	;# 
   707  0013                     	;# 
   708  0015                     	;# 
   709  0016                     	;# 
   710  0016                     	;# 
   711  0017                     	;# 
   712  0018                     	;# 
   713  0019                     	;# 
   714  001A                     	;# 
   715  001B                     	;# 
   716  001C                     	;# 
   717  008C                     	;# 
   718  008D                     	;# 
   719  008E                     	;# 
   720  008F                     	;# 
   721  0090                     	;# 
   722  0091                     	;# 
   723  0092                     	;# 
   724  0093                     	;# 
   725  0095                     	;# 
   726  0096                     	;# 
   727  0097                     	;# 
   728  0098                     	;# 
   729  0099                     	;# 
   730  009A                     	;# 
   731  009B                     	;# 
   732  009B                     	;# 
   733  009C                     	;# 
   734  009D                     	;# 
   735  009E                     	;# 
   736  009F                     	;# 
   737  010C                     	;# 
   738  010D                     	;# 
   739  010E                     	;# 
   740  010F                     	;# 
   741  0110                     	;# 
   742  0111                     	;# 
   743  0112                     	;# 
   744  0113                     	;# 
   745  0114                     	;# 
   746  0115                     	;# 
   747  0116                     	;# 
   748  0117                     	;# 
   749  0118                     	;# 
   750  0119                     	;# 
   751  011A                     	;# 
   752  011B                     	;# 
   753  011B                     	;# 
   754  011C                     	;# 
   755  018C                     	;# 
   756  018D                     	;# 
   757  018E                     	;# 
   758  018F                     	;# 
   759  0190                     	;# 
   760  0191                     	;# 
   761  0191                     	;# 
   762  0192                     	;# 
   763  0193                     	;# 
   764  0193                     	;# 
   765  0194                     	;# 
   766  0195                     	;# 
   767  0196                     	;# 
   768  0197                     	;# 
   769  0199                     	;# 
   770  0199                     	;# 
   771  0199                     	;# 
   772  019A                     	;# 
   773  019A                     	;# 
   774  019A                     	;# 
   775  019B                     	;# 
   776  019B                     	;# 
   777  019B                     	;# 
   778  019B                     	;# 
   779  019B                     	;# 
   780  019C                     	;# 
   781  019C                     	;# 
   782  019C                     	;# 
   783  019D                     	;# 
   784  019D                     	;# 
   785  019D                     	;# 
   786  019E                     	;# 
   787  019E                     	;# 
   788  019E                     	;# 
   789  019F                     	;# 
   790  019F                     	;# 
   791  019F                     	;# 
   792  019F                     	;# 
   793  019F                     	;# 
   794  020C                     	;# 
   795  020D                     	;# 
   796  020E                     	;# 
   797  020F                     	;# 
   798  0210                     	;# 
   799  0211                     	;# 
   800  0211                     	;# 
   801  0212                     	;# 
   802  0212                     	;# 
   803  0213                     	;# 
   804  0213                     	;# 
   805  0214                     	;# 
   806  0214                     	;# 
   807  0215                     	;# 
   808  0215                     	;# 
   809  0215                     	;# 
   810  0215                     	;# 
   811  0216                     	;# 
   812  0216                     	;# 
   813  0217                     	;# 
   814  0217                     	;# 
   815  028C                     	;# 
   816  028D                     	;# 
   817  028E                     	;# 
   818  028F                     	;# 
   819  0290                     	;# 
   820  0291                     	;# 
   821  0291                     	;# 
   822  0292                     	;# 
   823  0293                     	;# 
   824  0293                     	;# 
   825  0298                     	;# 
   826  0298                     	;# 
   827  0299                     	;# 
   828  029A                     	;# 
   829  029A                     	;# 
   830  029E                     	;# 
   831  030C                     	;# 
   832  030D                     	;# 
   833  030E                     	;# 
   834  030F                     	;# 
   835  0310                     	;# 
   836  038C                     	;# 
   837  038D                     	;# 
   838  038E                     	;# 
   839  038F                     	;# 
   840  0390                     	;# 
   841  0391                     	;# 
   842  0392                     	;# 
   843  0393                     	;# 
   844  0394                     	;# 
   845  0395                     	;# 
   846  0396                     	;# 
   847  0397                     	;# 
   848  0398                     	;# 
   849  0399                     	;# 
   850  039D                     	;# 
   851  039E                     	;# 
   852  039F                     	;# 
   853  0415                     	;# 
   854  0416                     	;# 
   855  0417                     	;# 
   856  041C                     	;# 
   857  041D                     	;# 
   858  041E                     	;# 
   859  0498                     	;# 
   860  0498                     	;# 
   861  0499                     	;# 
   862  049A                     	;# 
   863  049B                     	;# 
   864  049B                     	;# 
   865  049C                     	;# 
   866  049D                     	;# 
   867  049E                     	;# 
   868  049F                     	;# 
   869  0511                     	;# 
   870  0515                     	;# 
   871  0617                     	;# 
   872  0618                     	;# 
   873  0619                     	;# 
   874  0619                     	;# 
   875  061A                     	;# 
   876  061B                     	;# 
   877  061C                     	;# 
   878  061C                     	;# 
   879  0691                     	;# 
   880  0692                     	;# 
   881  0693                     	;# 
   882  0694                     	;# 
   883  0695                     	;# 
   884  0696                     	;# 
   885  0697                     	;# 
   886  0698                     	;# 
   887  0699                     	;# 
   888  069A                     	;# 
   889  069B                     	;# 
   890  069C                     	;# 
   891  069D                     	;# 
   892  069E                     	;# 
   893  069F                     	;# 
   894  0E0F                     	;# 
   895  0E10                     	;# 
   896  0E11                     	;# 
   897  0E12                     	;# 
   898  0E13                     	;# 
   899  0E14                     	;# 
   900  0E15                     	;# 
   901  0E17                     	;# 
   902  0E20                     	;# 
   903  0E21                     	;# 
   904  0E22                     	;# 
   905  0E24                     	;# 
   906  0E25                     	;# 
   907  0E28                     	;# 
   908  0E29                     	;# 
   909  0E2A                     	;# 
   910  0E2B                     	;# 
   911  0E90                     	;# 
   912  0E91                     	;# 
   913  0E92                     	;# 
   914  0E93                     	;# 
   915  0E94                     	;# 
   916  0E95                     	;# 
   917  0E96                     	;# 
   918  0E97                     	;# 
   919  0E98                     	;# 
   920  0E99                     	;# 
   921  0E9A                     	;# 
   922  0E9B                     	;# 
   923  0E9C                     	;# 
   924  0E9D                     	;# 
   925  0E9E                     	;# 
   926  0E9F                     	;# 
   927  0EA0                     	;# 
   928  0EA1                     	;# 
   929  0EA2                     	;# 
   930  0EA3                     	;# 
   931  0EA4                     	;# 
   932  0EA5                     	;# 
   933  0EA6                     	;# 
   934  0EA7                     	;# 
   935  0EA8                     	;# 
   936  0EA9                     	;# 
   937  0EAA                     	;# 
   938  0EAB                     	;# 
   939  0EAC                     	;# 
   940  0EAD                     	;# 
   941  0EAE                     	;# 
   942  0EAF                     	;# 
   943  0EB0                     	;# 
   944  0EB1                     	;# 
   945  0EB2                     	;# 
   946  0F0F                     	;# 
   947  0F10                     	;# 
   948  0F11                     	;# 
   949  0F12                     	;# 
   950  0F13                     	;# 
   951  0F14                     	;# 
   952  0F15                     	;# 
   953  0F16                     	;# 
   954  0F17                     	;# 
   955  0F18                     	;# 
   956  0F19                     	;# 
   957  0F1A                     	;# 
   958  0F1B                     	;# 
   959  0F1C                     	;# 
   960  0F1D                     	;# 
   961  0F1E                     	;# 
   962  0F1F                     	;# 
   963  0F20                     	;# 
   964  0F21                     	;# 
   965  0F22                     	;# 
   966  0F23                     	;# 
   967  0F24                     	;# 
   968  0F25                     	;# 
   969  0F26                     	;# 
   970  0F27                     	;# 
   971  0F28                     	;# 
   972  0F29                     	;# 
   973  0F2A                     	;# 
   974  0F2B                     	;# 
   975  0F2C                     	;# 
   976  0F2D                     	;# 
   977  0F2E                     	;# 
   978  0F2F                     	;# 
   979  0F30                     	;# 
   980  0F31                     	;# 
   981  0F32                     	;# 
   982  0F33                     	;# 
   983  0F34                     	;# 
   984  0F35                     	;# 
   985  0F36                     	;# 
   986  0F37                     	;# 
   987  0FE4                     	;# 
   988  0FE5                     	;# 
   989  0FE6                     	;# 
   990  0FE7                     	;# 
   991  0FE8                     	;# 
   992  0FE9                     	;# 
   993  0FEA                     	;# 
   994  0FEB                     	;# 
   995  0FED                     	;# 
   996  0FEE                     	;# 
   997  0FEF                     	;# 
   998  0000                     	;# 
   999  0001                     	;# 
  1000  0002                     	;# 
  1001  0003                     	;# 
  1002  0004                     	;# 
  1003  0005                     	;# 
  1004  0006                     	;# 
  1005  0007                     	;# 
  1006  0008                     	;# 
  1007  0009                     	;# 
  1008  000A                     	;# 
  1009  000B                     	;# 
  1010  000C                     	;# 
  1011  000D                     	;# 
  1012  000E                     	;# 
  1013  000F                     	;# 
  1014  0010                     	;# 
  1015  0011                     	;# 
  1016  0012                     	;# 
  1017  0013                     	;# 
  1018  0015                     	;# 
  1019  0016                     	;# 
  1020  0016                     	;# 
  1021  0017                     	;# 
  1022  0018                     	;# 
  1023  0019                     	;# 
  1024  001A                     	;# 
  1025  001B                     	;# 
  1026  001C                     	;# 
  1027  008C                     	;# 
  1028  008D                     	;# 
  1029  008E                     	;# 
  1030  008F                     	;# 
  1031  0090                     	;# 
  1032  0091                     	;# 
  1033  0092                     	;# 
  1034  0093                     	;# 
  1035  0095                     	;# 
  1036  0096                     	;# 
  1037  0097                     	;# 
  1038  0098                     	;# 
  1039  0099                     	;# 
  1040  009A                     	;# 
  1041  009B                     	;# 
  1042  009B                     	;# 
  1043  009C                     	;# 
  1044  009D                     	;# 
  1045  009E                     	;# 
  1046  009F                     	;# 
  1047  010C                     	;# 
  1048  010D                     	;# 
  1049  010E                     	;# 
  1050  010F                     	;# 
  1051  0110                     	;# 
  1052  0111                     	;# 
  1053  0112                     	;# 
  1054  0113                     	;# 
  1055  0114                     	;# 
  1056  0115                     	;# 
  1057  0116                     	;# 
  1058  0117                     	;# 
  1059  0118                     	;# 
  1060  0119                     	;# 
  1061  011A                     	;# 
  1062  011B                     	;# 
  1063  011B                     	;# 
  1064  011C                     	;# 
  1065  018C                     	;# 
  1066  018D                     	;# 
  1067  018E                     	;# 
  1068  018F                     	;# 
  1069  0190                     	;# 
  1070  0191                     	;# 
  1071  0191                     	;# 
  1072  0192                     	;# 
  1073  0193                     	;# 
  1074  0193                     	;# 
  1075  0194                     	;# 
  1076  0195                     	;# 
  1077  0196                     	;# 
  1078  0197                     	;# 
  1079  0199                     	;# 
  1080  0199                     	;# 
  1081  0199                     	;# 
  1082  019A                     	;# 
  1083  019A                     	;# 
  1084  019A                     	;# 
  1085  019B                     	;# 
  1086  019B                     	;# 
  1087  019B                     	;# 
  1088  019B                     	;# 
  1089  019B                     	;# 
  1090  019C                     	;# 
  1091  019C                     	;# 
  1092  019C                     	;# 
  1093  019D                     	;# 
  1094  019D                     	;# 
  1095  019D                     	;# 
  1096  019E                     	;# 
  1097  019E                     	;# 
  1098  019E                     	;# 
  1099  019F                     	;# 
  1100  019F                     	;# 
  1101  019F                     	;# 
  1102  019F                     	;# 
  1103  019F                     	;# 
  1104  020C                     	;# 
  1105  020D                     	;# 
  1106  020E                     	;# 
  1107  020F                     	;# 
  1108  0210                     	;# 
  1109  0211                     	;# 
  1110  0211                     	;# 
  1111  0212                     	;# 
  1112  0212                     	;# 
  1113  0213                     	;# 
  1114  0213                     	;# 
  1115  0214                     	;# 
  1116  0214                     	;# 
  1117  0215                     	;# 
  1118  0215                     	;# 
  1119  0215                     	;# 
  1120  0215                     	;# 
  1121  0216                     	;# 
  1122  0216                     	;# 
  1123  0217                     	;# 
  1124  0217                     	;# 
  1125  028C                     	;# 
  1126  028D                     	;# 
  1127  028E                     	;# 
  1128  028F                     	;# 
  1129  0290                     	;# 
  1130  0291                     	;# 
  1131  0291                     	;# 
  1132  0292                     	;# 
  1133  0293                     	;# 
  1134  0293                     	;# 
  1135  0298                     	;# 
  1136  0298                     	;# 
  1137  0299                     	;# 
  1138  029A                     	;# 
  1139  029A                     	;# 
  1140  029E                     	;# 
  1141  030C                     	;# 
  1142  030D                     	;# 
  1143  030E                     	;# 
  1144  030F                     	;# 
  1145  0310                     	;# 
  1146  038C                     	;# 
  1147  038D                     	;# 
  1148  038E                     	;# 
  1149  038F                     	;# 
  1150  0390                     	;# 
  1151  0391                     	;# 
  1152  0392                     	;# 
  1153  0393                     	;# 
  1154  0394                     	;# 
  1155  0395                     	;# 
  1156  0396                     	;# 
  1157  0397                     	;# 
  1158  0398                     	;# 
  1159  0399                     	;# 
  1160  039D                     	;# 
  1161  039E                     	;# 
  1162  039F                     	;# 
  1163  0415                     	;# 
  1164  0416                     	;# 
  1165  0417                     	;# 
  1166  041C                     	;# 
  1167  041D                     	;# 
  1168  041E                     	;# 
  1169  0498                     	;# 
  1170  0498                     	;# 
  1171  0499                     	;# 
  1172  049A                     	;# 
  1173  049B                     	;# 
  1174  049B                     	;# 
  1175  049C                     	;# 
  1176  049D                     	;# 
  1177  049E                     	;# 
  1178  049F                     	;# 
  1179  0511                     	;# 
  1180  0515                     	;# 
  1181  0617                     	;# 
  1182  0618                     	;# 
  1183  0619                     	;# 
  1184  0619                     	;# 
  1185  061A                     	;# 
  1186  061B                     	;# 
  1187  061C                     	;# 
  1188  061C                     	;# 
  1189  0691                     	;# 
  1190  0692                     	;# 
  1191  0693                     	;# 
  1192  0694                     	;# 
  1193  0695                     	;# 
  1194  0696                     	;# 
  1195  0697                     	;# 
  1196  0698                     	;# 
  1197  0699                     	;# 
  1198  069A                     	;# 
  1199  069B                     	;# 
  1200  069C                     	;# 
  1201  069D                     	;# 
  1202  069E                     	;# 
  1203  069F                     	;# 
  1204  0E0F                     	;# 
  1205  0E10                     	;# 
  1206  0E11                     	;# 
  1207  0E12                     	;# 
  1208  0E13                     	;# 
  1209  0E14                     	;# 
  1210  0E15                     	;# 
  1211  0E17                     	;# 
  1212  0E20                     	;# 
  1213  0E21                     	;# 
  1214  0E22                     	;# 
  1215  0E24                     	;# 
  1216  0E25                     	;# 
  1217  0E28                     	;# 
  1218  0E29                     	;# 
  1219  0E2A                     	;# 
  1220  0E2B                     	;# 
  1221  0E90                     	;# 
  1222  0E91                     	;# 
  1223  0E92                     	;# 
  1224  0E93                     	;# 
  1225  0E94                     	;# 
  1226  0E95                     	;# 
  1227  0E96                     	;# 
  1228  0E97                     	;# 
  1229  0E98                     	;# 
  1230  0E99                     	;# 
  1231  0E9A                     	;# 
  1232  0E9B                     	;# 
  1233  0E9C                     	;# 
  1234  0E9D                     	;# 
  1235  0E9E                     	;# 
  1236  0E9F                     	;# 
  1237  0EA0                     	;# 
  1238  0EA1                     	;# 
  1239  0EA2                     	;# 
  1240  0EA3                     	;# 
  1241  0EA4                     	;# 
  1242  0EA5                     	;# 
  1243  0EA6                     	;# 
  1244  0EA7                     	;# 
  1245  0EA8                     	;# 
  1246  0EA9                     	;# 
  1247  0EAA                     	;# 
  1248  0EAB                     	;# 
  1249  0EAC                     	;# 
  1250  0EAD                     	;# 
  1251  0EAE                     	;# 
  1252  0EAF                     	;# 
  1253  0EB0                     	;# 
  1254  0EB1                     	;# 
  1255  0EB2                     	;# 
  1256  0F0F                     	;# 
  1257  0F10                     	;# 
  1258  0F11                     	;# 
  1259  0F12                     	;# 
  1260  0F13                     	;# 
  1261  0F14                     	;# 
  1262  0F15                     	;# 
  1263  0F16                     	;# 
  1264  0F17                     	;# 
  1265  0F18                     	;# 
  1266  0F19                     	;# 
  1267  0F1A                     	;# 
  1268  0F1B                     	;# 
  1269  0F1C                     	;# 
  1270  0F1D                     	;# 
  1271  0F1E                     	;# 
  1272  0F1F                     	;# 
  1273  0F20                     	;# 
  1274  0F21                     	;# 
  1275  0F22                     	;# 
  1276  0F23                     	;# 
  1277  0F24                     	;# 
  1278  0F25                     	;# 
  1279  0F26                     	;# 
  1280  0F27                     	;# 
  1281  0F28                     	;# 
  1282  0F29                     	;# 
  1283  0F2A                     	;# 
  1284  0F2B                     	;# 
  1285  0F2C                     	;# 
  1286  0F2D                     	;# 
  1287  0F2E                     	;# 
  1288  0F2F                     	;# 
  1289  0F30                     	;# 
  1290  0F31                     	;# 
  1291  0F32                     	;# 
  1292  0F33                     	;# 
  1293  0F34                     	;# 
  1294  0F35                     	;# 
  1295  0F36                     	;# 
  1296  0F37                     	;# 
  1297  0FE4                     	;# 
  1298  0FE5                     	;# 
  1299  0FE6                     	;# 
  1300  0FE7                     	;# 
  1301  0FE8                     	;# 
  1302  0FE9                     	;# 
  1303  0FEA                     	;# 
  1304  0FEB                     	;# 
  1305  0FED                     	;# 
  1306  0FEE                     	;# 
  1307  0FEF                     	;# 
  1308  0000                     	;# 
  1309  0001                     	;# 
  1310  0002                     	;# 
  1311  0003                     	;# 
  1312  0004                     	;# 
  1313  0005                     	;# 
  1314  0006                     	;# 
  1315  0007                     	;# 
  1316  0008                     	;# 
  1317  0009                     	;# 
  1318  000A                     	;# 
  1319  000B                     	;# 
  1320  000C                     	;# 
  1321  000D                     	;# 
  1322  000E                     	;# 
  1323  000F                     	;# 
  1324  0010                     	;# 
  1325  0011                     	;# 
  1326  0012                     	;# 
  1327  0013                     	;# 
  1328  0015                     	;# 
  1329  0016                     	;# 
  1330  0016                     	;# 
  1331  0017                     	;# 
  1332  0018                     	;# 
  1333  0019                     	;# 
  1334  001A                     	;# 
  1335  001B                     	;# 
  1336  001C                     	;# 
  1337  008C                     	;# 
  1338  008D                     	;# 
  1339  008E                     	;# 
  1340  008F                     	;# 
  1341  0090                     	;# 
  1342  0091                     	;# 
  1343  0092                     	;# 
  1344  0093                     	;# 
  1345  0095                     	;# 
  1346  0096                     	;# 
  1347  0097                     	;# 
  1348  0098                     	;# 
  1349  0099                     	;# 
  1350  009A                     	;# 
  1351  009B                     	;# 
  1352  009B                     	;# 
  1353  009C                     	;# 
  1354  009D                     	;# 
  1355  009E                     	;# 
  1356  009F                     	;# 
  1357  010C                     	;# 
  1358  010D                     	;# 
  1359  010E                     	;# 
  1360  010F                     	;# 
  1361  0110                     	;# 
  1362  0111                     	;# 
  1363  0112                     	;# 
  1364  0113                     	;# 
  1365  0114                     	;# 
  1366  0115                     	;# 
  1367  0116                     	;# 
  1368  0117                     	;# 
  1369  0118                     	;# 
  1370  0119                     	;# 
  1371  011A                     	;# 
  1372  011B                     	;# 
  1373  011B                     	;# 
  1374  011C                     	;# 
  1375  018C                     	;# 
  1376  018D                     	;# 
  1377  018E                     	;# 
  1378  018F                     	;# 
  1379  0190                     	;# 
  1380  0191                     	;# 
  1381  0191                     	;# 
  1382  0192                     	;# 
  1383  0193                     	;# 
  1384  0193                     	;# 
  1385  0194                     	;# 
  1386  0195                     	;# 
  1387  0196                     	;# 
  1388  0197                     	;# 
  1389  0199                     	;# 
  1390  0199                     	;# 
  1391  0199                     	;# 
  1392  019A                     	;# 
  1393  019A                     	;# 
  1394  019A                     	;# 
  1395  019B                     	;# 
  1396  019B                     	;# 
  1397  019B                     	;# 
  1398  019B                     	;# 
  1399  019B                     	;# 
  1400  019C                     	;# 
  1401  019C                     	;# 
  1402  019C                     	;# 
  1403  019D                     	;# 
  1404  019D                     	;# 
  1405  019D                     	;# 
  1406  019E                     	;# 
  1407  019E                     	;# 
  1408  019E                     	;# 
  1409  019F                     	;# 
  1410  019F                     	;# 
  1411  019F                     	;# 
  1412  019F                     	;# 
  1413  019F                     	;# 
  1414  020C                     	;# 
  1415  020D                     	;# 
  1416  020E                     	;# 
  1417  020F                     	;# 
  1418  0210                     	;# 
  1419  0211                     	;# 
  1420  0211                     	;# 
  1421  0212                     	;# 
  1422  0212                     	;# 
  1423  0213                     	;# 
  1424  0213                     	;# 
  1425  0214                     	;# 
  1426  0214                     	;# 
  1427  0215                     	;# 
  1428  0215                     	;# 
  1429  0215                     	;# 
  1430  0215                     	;# 
  1431  0216                     	;# 
  1432  0216                     	;# 
  1433  0217                     	;# 
  1434  0217                     	;# 
  1435  028C                     	;# 
  1436  028D                     	;# 
  1437  028E                     	;# 
  1438  028F                     	;# 
  1439  0290                     	;# 
  1440  0291                     	;# 
  1441  0291                     	;# 
  1442  0292                     	;# 
  1443  0293                     	;# 
  1444  0293                     	;# 
  1445  0298                     	;# 
  1446  0298                     	;# 
  1447  0299                     	;# 
  1448  029A                     	;# 
  1449  029A                     	;# 
  1450  029E                     	;# 
  1451  030C                     	;# 
  1452  030D                     	;# 
  1453  030E                     	;# 
  1454  030F                     	;# 
  1455  0310                     	;# 
  1456  038C                     	;# 
  1457  038D                     	;# 
  1458  038E                     	;# 
  1459  038F                     	;# 
  1460  0390                     	;# 
  1461  0391                     	;# 
  1462  0392                     	;# 
  1463  0393                     	;# 
  1464  0394                     	;# 
  1465  0395                     	;# 
  1466  0396                     	;# 
  1467  0397                     	;# 
  1468  0398                     	;# 
  1469  0399                     	;# 
  1470  039D                     	;# 
  1471  039E                     	;# 
  1472  039F                     	;# 
  1473  0415                     	;# 
  1474  0416                     	;# 
  1475  0417                     	;# 
  1476  041C                     	;# 
  1477  041D                     	;# 
  1478  041E                     	;# 
  1479  0498                     	;# 
  1480  0498                     	;# 
  1481  0499                     	;# 
  1482  049A                     	;# 
  1483  049B                     	;# 
  1484  049B                     	;# 
  1485  049C                     	;# 
  1486  049D                     	;# 
  1487  049E                     	;# 
  1488  049F                     	;# 
  1489  0511                     	;# 
  1490  0515                     	;# 
  1491  0617                     	;# 
  1492  0618                     	;# 
  1493  0619                     	;# 
  1494  0619                     	;# 
  1495  061A                     	;# 
  1496  061B                     	;# 
  1497  061C                     	;# 
  1498  061C                     	;# 
  1499  0691                     	;# 
  1500  0692                     	;# 
  1501  0693                     	;# 
  1502  0694                     	;# 
  1503  0695                     	;# 
  1504  0696                     	;# 
  1505  0697                     	;# 
  1506  0698                     	;# 
  1507  0699                     	;# 
  1508  069A                     	;# 
  1509  069B                     	;# 
  1510  069C                     	;# 
  1511  069D                     	;# 
  1512  069E                     	;# 
  1513  069F                     	;# 
  1514  0E0F                     	;# 
  1515  0E10                     	;# 
  1516  0E11                     	;# 
  1517  0E12                     	;# 
  1518  0E13                     	;# 
  1519  0E14                     	;# 
  1520  0E15                     	;# 
  1521  0E17                     	;# 
  1522  0E20                     	;# 
  1523  0E21                     	;# 
  1524  0E22                     	;# 
  1525  0E24                     	;# 
  1526  0E25                     	;# 
  1527  0E28                     	;# 
  1528  0E29                     	;# 
  1529  0E2A                     	;# 
  1530  0E2B                     	;# 
  1531  0E90                     	;# 
  1532  0E91                     	;# 
  1533  0E92                     	;# 
  1534  0E93                     	;# 
  1535  0E94                     	;# 
  1536  0E95                     	;# 
  1537  0E96                     	;# 
  1538  0E97                     	;# 
  1539  0E98                     	;# 
  1540  0E99                     	;# 
  1541  0E9A                     	;# 
  1542  0E9B                     	;# 
  1543  0E9C                     	;# 
  1544  0E9D                     	;# 
  1545  0E9E                     	;# 
  1546  0E9F                     	;# 
  1547  0EA0                     	;# 
  1548  0EA1                     	;# 
  1549  0EA2                     	;# 
  1550  0EA3                     	;# 
  1551  0EA4                     	;# 
  1552  0EA5                     	;# 
  1553  0EA6                     	;# 
  1554  0EA7                     	;# 
  1555  0EA8                     	;# 
  1556  0EA9                     	;# 
  1557  0EAA                     	;# 
  1558  0EAB                     	;# 
  1559  0EAC                     	;# 
  1560  0EAD                     	;# 
  1561  0EAE                     	;# 
  1562  0EAF                     	;# 
  1563  0EB0                     	;# 
  1564  0EB1                     	;# 
  1565  0EB2                     	;# 
  1566  0F0F                     	;# 
  1567  0F10                     	;# 
  1568  0F11                     	;# 
  1569  0F12                     	;# 
  1570  0F13                     	;# 
  1571  0F14                     	;# 
  1572  0F15                     	;# 
  1573  0F16                     	;# 
  1574  0F17                     	;# 
  1575  0F18                     	;# 
  1576  0F19                     	;# 
  1577  0F1A                     	;# 
  1578  0F1B                     	;# 
  1579  0F1C                     	;# 
  1580  0F1D                     	;# 
  1581  0F1E                     	;# 
  1582  0F1F                     	;# 
  1583  0F20                     	;# 
  1584  0F21                     	;# 
  1585  0F22                     	;# 
  1586  0F23                     	;# 
  1587  0F24                     	;# 
  1588  0F25                     	;# 
  1589  0F26                     	;# 
  1590  0F27                     	;# 
  1591  0F28                     	;# 
  1592  0F29                     	;# 
  1593  0F2A                     	;# 
  1594  0F2B                     	;# 
  1595  0F2C                     	;# 
  1596  0F2D                     	;# 
  1597  0F2E                     	;# 
  1598  0F2F                     	;# 
  1599  0F30                     	;# 
  1600  0F31                     	;# 
  1601  0F32                     	;# 
  1602  0F33                     	;# 
  1603  0F34                     	;# 
  1604  0F35                     	;# 
  1605  0F36                     	;# 
  1606  0F37                     	;# 
  1607  0FE4                     	;# 
  1608  0FE5                     	;# 
  1609  0FE6                     	;# 
  1610  0FE7                     	;# 
  1611  0FE8                     	;# 
  1612  0FE9                     	;# 
  1613  0FEA                     	;# 
  1614  0FEB                     	;# 
  1615  0FED                     	;# 
  1616  0FEE                     	;# 
  1617  0FEF                     	;# 
  1618                           
  1619                           	psect	stringtext
  1620  0800                     __pstringtext:	
  1621  0800                     _dpowers:	
  1622  0800  3401               	retlw	1
  1623  0801  3400               	retlw	0
  1624  0802  3400               	retlw	0
  1625  0803  3400               	retlw	0
  1626  0804  340A               	retlw	10
  1627  0805  3400               	retlw	0
  1628  0806  3400               	retlw	0
  1629  0807  3400               	retlw	0
  1630  0808  3464               	retlw	100
  1631  0809  3400               	retlw	0
  1632  080A  3400               	retlw	0
  1633  080B  3400               	retlw	0
  1634  080C  34E8               	retlw	232
  1635  080D  3403               	retlw	3
  1636  080E  3400               	retlw	0
  1637  080F  3400               	retlw	0
  1638  0810  3410               	retlw	16
  1639  0811  3427               	retlw	39
  1640  0812  3400               	retlw	0
  1641  0813  3400               	retlw	0
  1642  0814  34A0               	retlw	160
  1643  0815  3486               	retlw	134
  1644  0816  3401               	retlw	1
  1645  0817  3400               	retlw	0
  1646  0818  3440               	retlw	64
  1647  0819  3442               	retlw	66
  1648  081A  340F               	retlw	15
  1649  081B  3400               	retlw	0
  1650  081C  3480               	retlw	128
  1651  081D  3496               	retlw	150
  1652  081E  3498               	retlw	152
  1653  081F  3400               	retlw	0
  1654  0820  3400               	retlw	0
  1655  0821  34E1               	retlw	225
  1656  0822  34F5               	retlw	245
  1657  0823  3405               	retlw	5
  1658  0824  3400               	retlw	0
  1659  0825  34CA               	retlw	202
  1660  0826  349A               	retlw	154
  1661  0827  343B               	retlw	59
  1662  0828                     __end_of_dpowers:	
  1663  0828                     _OledFont:	
  1664  0828  3400               	retlw	0
  1665  0829  3400               	retlw	0
  1666  082A  3400               	retlw	0
  1667  082B  3400               	retlw	0
  1668  082C  3400               	retlw	0
  1669  082D  3400               	retlw	0
  1670  082E  3400               	retlw	0
  1671  082F  3400               	retlw	0
  1672  0830  3400               	retlw	0
  1673  0831  3400               	retlw	0
  1674  0832  345F               	retlw	95
  1675  0833  3400               	retlw	0
  1676  0834  3400               	retlw	0
  1677  0835  3400               	retlw	0
  1678  0836  3400               	retlw	0
  1679  0837  3400               	retlw	0
  1680  0838  3400               	retlw	0
  1681  0839  3400               	retlw	0
  1682  083A  3407               	retlw	7
  1683  083B  3400               	retlw	0
  1684  083C  3407               	retlw	7
  1685  083D  3400               	retlw	0
  1686  083E  3400               	retlw	0
  1687  083F  3400               	retlw	0
  1688  0840  3400               	retlw	0
  1689  0841  3414               	retlw	20
  1690  0842  347F               	retlw	127
  1691  0843  3414               	retlw	20
  1692  0844  347F               	retlw	127
  1693  0845  3414               	retlw	20
  1694  0846  3400               	retlw	0
  1695  0847  3400               	retlw	0
  1696  0848  3400               	retlw	0
  1697  0849  3424               	retlw	36
  1698  084A  342A               	retlw	42
  1699  084B  347F               	retlw	127
  1700  084C  342A               	retlw	42
  1701  084D  3412               	retlw	18
  1702  084E  3400               	retlw	0
  1703  084F  3400               	retlw	0
  1704  0850  3400               	retlw	0
  1705  0851  3423               	retlw	35
  1706  0852  3413               	retlw	19
  1707  0853  3408               	retlw	8
  1708  0854  3464               	retlw	100
  1709  0855  3462               	retlw	98
  1710  0856  3400               	retlw	0
  1711  0857  3400               	retlw	0
  1712  0858  3400               	retlw	0
  1713  0859  3436               	retlw	54
  1714  085A  3449               	retlw	73
  1715  085B  3455               	retlw	85
  1716  085C  3422               	retlw	34
  1717  085D  3450               	retlw	80
  1718  085E  3400               	retlw	0
  1719  085F  3400               	retlw	0
  1720  0860  3400               	retlw	0
  1721  0861  3400               	retlw	0
  1722  0862  3405               	retlw	5
  1723  0863  3403               	retlw	3
  1724  0864  3400               	retlw	0
  1725  0865  3400               	retlw	0
  1726  0866  3400               	retlw	0
  1727  0867  3400               	retlw	0
  1728  0868  3400               	retlw	0
  1729  0869  341C               	retlw	28
  1730  086A  3422               	retlw	34
  1731  086B  3441               	retlw	65
  1732  086C  3400               	retlw	0
  1733  086D  3400               	retlw	0
  1734  086E  3400               	retlw	0
  1735  086F  3400               	retlw	0
  1736  0870  3400               	retlw	0
  1737  0871  3441               	retlw	65
  1738  0872  3422               	retlw	34
  1739  0873  341C               	retlw	28
  1740  0874  3400               	retlw	0
  1741  0875  3400               	retlw	0
  1742  0876  3400               	retlw	0
  1743  0877  3400               	retlw	0
  1744  0878  3400               	retlw	0
  1745  0879  3408               	retlw	8
  1746  087A  342A               	retlw	42
  1747  087B  341C               	retlw	28
  1748  087C  342A               	retlw	42
  1749  087D  3408               	retlw	8
  1750  087E  3400               	retlw	0
  1751  087F  3400               	retlw	0
  1752  0880  3400               	retlw	0
  1753  0881  3408               	retlw	8
  1754  0882  3408               	retlw	8
  1755  0883  343E               	retlw	62
  1756  0884  3408               	retlw	8
  1757  0885  3408               	retlw	8
  1758  0886  3400               	retlw	0
  1759  0887  3400               	retlw	0
  1760  0888  3400               	retlw	0
  1761  0889  34A0               	retlw	160
  1762  088A  3460               	retlw	96
  1763  088B  3400               	retlw	0
  1764  088C  3400               	retlw	0
  1765  088D  3400               	retlw	0
  1766  088E  3400               	retlw	0
  1767  088F  3400               	retlw	0
  1768  0890  3400               	retlw	0
  1769  0891  3408               	retlw	8
  1770  0892  3408               	retlw	8
  1771  0893  3408               	retlw	8
  1772  0894  3408               	retlw	8
  1773  0895  3408               	retlw	8
  1774  0896  3400               	retlw	0
  1775  0897  3400               	retlw	0
  1776  0898  3400               	retlw	0
  1777  0899  3460               	retlw	96
  1778  089A  3460               	retlw	96
  1779  089B  3400               	retlw	0
  1780  089C  3400               	retlw	0
  1781  089D  3400               	retlw	0
  1782  089E  3400               	retlw	0
  1783  089F  3400               	retlw	0
  1784  08A0  3400               	retlw	0
  1785  08A1  3420               	retlw	32
  1786  08A2  3410               	retlw	16
  1787  08A3  3408               	retlw	8
  1788  08A4  3404               	retlw	4
  1789  08A5  3402               	retlw	2
  1790  08A6  3400               	retlw	0
  1791  08A7  3400               	retlw	0
  1792  08A8  3400               	retlw	0
  1793  08A9  343E               	retlw	62
  1794  08AA  3451               	retlw	81
  1795  08AB  3449               	retlw	73
  1796  08AC  3445               	retlw	69
  1797  08AD  343E               	retlw	62
  1798  08AE  3400               	retlw	0
  1799  08AF  3400               	retlw	0
  1800  08B0  3400               	retlw	0
  1801  08B1  3400               	retlw	0
  1802  08B2  3442               	retlw	66
  1803  08B3  347F               	retlw	127
  1804  08B4  3440               	retlw	64
  1805  08B5  3400               	retlw	0
  1806  08B6  3400               	retlw	0
  1807  08B7  3400               	retlw	0
  1808  08B8  3400               	retlw	0
  1809  08B9  3462               	retlw	98
  1810  08BA  3451               	retlw	81
  1811  08BB  3449               	retlw	73
  1812  08BC  3449               	retlw	73
  1813  08BD  3446               	retlw	70
  1814  08BE  3400               	retlw	0
  1815  08BF  3400               	retlw	0
  1816  08C0  3400               	retlw	0
  1817  08C1  3422               	retlw	34
  1818  08C2  3441               	retlw	65
  1819  08C3  3449               	retlw	73
  1820  08C4  3449               	retlw	73
  1821  08C5  3436               	retlw	54
  1822  08C6  3400               	retlw	0
  1823  08C7  3400               	retlw	0
  1824  08C8  3400               	retlw	0
  1825  08C9  3418               	retlw	24
  1826  08CA  3414               	retlw	20
  1827  08CB  3412               	retlw	18
  1828  08CC  347F               	retlw	127
  1829  08CD  3410               	retlw	16
  1830  08CE  3400               	retlw	0
  1831  08CF  3400               	retlw	0
  1832  08D0  3400               	retlw	0
  1833  08D1  3427               	retlw	39
  1834  08D2  3445               	retlw	69
  1835  08D3  3445               	retlw	69
  1836  08D4  3445               	retlw	69
  1837  08D5  3439               	retlw	57
  1838  08D6  3400               	retlw	0
  1839  08D7  3400               	retlw	0
  1840  08D8  3400               	retlw	0
  1841  08D9  343C               	retlw	60
  1842  08DA  344A               	retlw	74
  1843  08DB  3449               	retlw	73
  1844  08DC  3449               	retlw	73
  1845  08DD  3430               	retlw	48
  1846  08DE  3400               	retlw	0
  1847  08DF  3400               	retlw	0
  1848  08E0  3400               	retlw	0
  1849  08E1  3401               	retlw	1
  1850  08E2  3471               	retlw	113
  1851  08E3  3409               	retlw	9
  1852  08E4  3405               	retlw	5
  1853  08E5  3403               	retlw	3
  1854  08E6  3400               	retlw	0
  1855  08E7  3400               	retlw	0
  1856  08E8  3400               	retlw	0
  1857  08E9  3436               	retlw	54
  1858  08EA  3449               	retlw	73
  1859  08EB  3449               	retlw	73
  1860  08EC  3449               	retlw	73
  1861  08ED  3436               	retlw	54
  1862  08EE  3400               	retlw	0
  1863  08EF  3400               	retlw	0
  1864  08F0  3400               	retlw	0
  1865  08F1  3406               	retlw	6
  1866  08F2  3449               	retlw	73
  1867  08F3  3449               	retlw	73
  1868  08F4  3429               	retlw	41
  1869  08F5  341E               	retlw	30
  1870  08F6  3400               	retlw	0
  1871  08F7  3400               	retlw	0
  1872  08F8  3400               	retlw	0
  1873  08F9  3400               	retlw	0
  1874  08FA  3436               	retlw	54
  1875  08FB  3436               	retlw	54
  1876  08FC  3400               	retlw	0
  1877  08FD  3400               	retlw	0
  1878  08FE  3400               	retlw	0
  1879  08FF  3400               	retlw	0
  1880  0900  3400               	retlw	0
  1881  0901  3400               	retlw	0
  1882  0902  34AC               	retlw	172
  1883  0903  346C               	retlw	108
  1884  0904  3400               	retlw	0
  1885  0905  3400               	retlw	0
  1886  0906  3400               	retlw	0
  1887  0907  3400               	retlw	0
  1888  0908  3400               	retlw	0
  1889  0909  3408               	retlw	8
  1890  090A  3414               	retlw	20
  1891  090B  3422               	retlw	34
  1892  090C  3441               	retlw	65
  1893  090D  3400               	retlw	0
  1894  090E  3400               	retlw	0
  1895  090F  3400               	retlw	0
  1896  0910  3400               	retlw	0
  1897  0911  3414               	retlw	20
  1898  0912  3414               	retlw	20
  1899  0913  3414               	retlw	20
  1900  0914  3414               	retlw	20
  1901  0915  3414               	retlw	20
  1902  0916  3400               	retlw	0
  1903  0917  3400               	retlw	0
  1904  0918  3400               	retlw	0
  1905  0919  3441               	retlw	65
  1906  091A  3422               	retlw	34
  1907  091B  3414               	retlw	20
  1908  091C  3408               	retlw	8
  1909  091D  3400               	retlw	0
  1910  091E  3400               	retlw	0
  1911  091F  3400               	retlw	0
  1912  0920  3400               	retlw	0
  1913  0921  3402               	retlw	2
  1914  0922  3401               	retlw	1
  1915  0923  3451               	retlw	81
  1916  0924  3409               	retlw	9
  1917  0925  3406               	retlw	6
  1918  0926  3400               	retlw	0
  1919  0927  3400               	retlw	0
  1920  0928  3400               	retlw	0
  1921  0929  3432               	retlw	50
  1922  092A  3449               	retlw	73
  1923  092B  3479               	retlw	121
  1924  092C  3441               	retlw	65
  1925  092D  343E               	retlw	62
  1926  092E  3400               	retlw	0
  1927  092F  3400               	retlw	0
  1928  0930  3400               	retlw	0
  1929  0931  347E               	retlw	126
  1930  0932  3409               	retlw	9
  1931  0933  3409               	retlw	9
  1932  0934  3409               	retlw	9
  1933  0935  347E               	retlw	126
  1934  0936  3400               	retlw	0
  1935  0937  3400               	retlw	0
  1936  0938  3400               	retlw	0
  1937  0939  347F               	retlw	127
  1938  093A  3449               	retlw	73
  1939  093B  3449               	retlw	73
  1940  093C  3449               	retlw	73
  1941  093D  3436               	retlw	54
  1942  093E  3400               	retlw	0
  1943  093F  3400               	retlw	0
  1944  0940  3400               	retlw	0
  1945  0941  343E               	retlw	62
  1946  0942  3441               	retlw	65
  1947  0943  3441               	retlw	65
  1948  0944  3441               	retlw	65
  1949  0945  3422               	retlw	34
  1950  0946  3400               	retlw	0
  1951  0947  3400               	retlw	0
  1952  0948  3400               	retlw	0
  1953  0949  347F               	retlw	127
  1954  094A  3441               	retlw	65
  1955  094B  3441               	retlw	65
  1956  094C  3422               	retlw	34
  1957  094D  341C               	retlw	28
  1958  094E  3400               	retlw	0
  1959  094F  3400               	retlw	0
  1960  0950  3400               	retlw	0
  1961  0951  347F               	retlw	127
  1962  0952  3449               	retlw	73
  1963  0953  3449               	retlw	73
  1964  0954  3449               	retlw	73
  1965  0955  3441               	retlw	65
  1966  0956  3400               	retlw	0
  1967  0957  3400               	retlw	0
  1968  0958  3400               	retlw	0
  1969  0959  347F               	retlw	127
  1970  095A  3409               	retlw	9
  1971  095B  3409               	retlw	9
  1972  095C  3409               	retlw	9
  1973  095D  3401               	retlw	1
  1974  095E  3400               	retlw	0
  1975  095F  3400               	retlw	0
  1976  0960  3400               	retlw	0
  1977  0961  343E               	retlw	62
  1978  0962  3441               	retlw	65
  1979  0963  3441               	retlw	65
  1980  0964  3451               	retlw	81
  1981  0965  3472               	retlw	114
  1982  0966  3400               	retlw	0
  1983  0967  3400               	retlw	0
  1984  0968  3400               	retlw	0
  1985  0969  347F               	retlw	127
  1986  096A  3408               	retlw	8
  1987  096B  3408               	retlw	8
  1988  096C  3408               	retlw	8
  1989  096D  347F               	retlw	127
  1990  096E  3400               	retlw	0
  1991  096F  3400               	retlw	0
  1992  0970  3400               	retlw	0
  1993  0971  3441               	retlw	65
  1994  0972  347F               	retlw	127
  1995  0973  3441               	retlw	65
  1996  0974  3400               	retlw	0
  1997  0975  3400               	retlw	0
  1998  0976  3400               	retlw	0
  1999  0977  3400               	retlw	0
  2000  0978  3400               	retlw	0
  2001  0979  3420               	retlw	32
  2002  097A  3440               	retlw	64
  2003  097B  3441               	retlw	65
  2004  097C  343F               	retlw	63
  2005  097D  3401               	retlw	1
  2006  097E  3400               	retlw	0
  2007  097F  3400               	retlw	0
  2008  0980  3400               	retlw	0
  2009  0981  347F               	retlw	127
  2010  0982  3408               	retlw	8
  2011  0983  3414               	retlw	20
  2012  0984  3422               	retlw	34
  2013  0985  3441               	retlw	65
  2014  0986  3400               	retlw	0
  2015  0987  3400               	retlw	0
  2016  0988  3400               	retlw	0
  2017  0989  347F               	retlw	127
  2018  098A  3440               	retlw	64
  2019  098B  3440               	retlw	64
  2020  098C  3440               	retlw	64
  2021  098D  3440               	retlw	64
  2022  098E  3400               	retlw	0
  2023  098F  3400               	retlw	0
  2024  0990  3400               	retlw	0
  2025  0991  347F               	retlw	127
  2026  0992  3402               	retlw	2
  2027  0993  340C               	retlw	12
  2028  0994  3402               	retlw	2
  2029  0995  347F               	retlw	127
  2030  0996  3400               	retlw	0
  2031  0997  3400               	retlw	0
  2032  0998  3400               	retlw	0
  2033  0999  347F               	retlw	127
  2034  099A  3404               	retlw	4
  2035  099B  3408               	retlw	8
  2036  099C  3410               	retlw	16
  2037  099D  347F               	retlw	127
  2038  099E  3400               	retlw	0
  2039  099F  3400               	retlw	0
  2040  09A0  3400               	retlw	0
  2041  09A1  343E               	retlw	62
  2042  09A2  3441               	retlw	65
  2043  09A3  3441               	retlw	65
  2044  09A4  3441               	retlw	65
  2045  09A5  343E               	retlw	62
  2046  09A6  3400               	retlw	0
  2047  09A7  3400               	retlw	0
  2048  09A8  3400               	retlw	0
  2049  09A9  347F               	retlw	127
  2050  09AA  3409               	retlw	9
  2051  09AB  3409               	retlw	9
  2052  09AC  3409               	retlw	9
  2053  09AD  3406               	retlw	6
  2054  09AE  3400               	retlw	0
  2055  09AF  3400               	retlw	0
  2056  09B0  3400               	retlw	0
  2057  09B1  343E               	retlw	62
  2058  09B2  3441               	retlw	65
  2059  09B3  3451               	retlw	81
  2060  09B4  3421               	retlw	33
  2061  09B5  345E               	retlw	94
  2062  09B6  3400               	retlw	0
  2063  09B7  3400               	retlw	0
  2064  09B8  3400               	retlw	0
  2065  09B9  347F               	retlw	127
  2066  09BA  3409               	retlw	9
  2067  09BB  3419               	retlw	25
  2068  09BC  3429               	retlw	41
  2069  09BD  3446               	retlw	70
  2070  09BE  3400               	retlw	0
  2071  09BF  3400               	retlw	0
  2072  09C0  3400               	retlw	0
  2073  09C1  3426               	retlw	38
  2074  09C2  3449               	retlw	73
  2075  09C3  3449               	retlw	73
  2076  09C4  3449               	retlw	73
  2077  09C5  3432               	retlw	50
  2078  09C6  3400               	retlw	0
  2079  09C7  3400               	retlw	0
  2080  09C8  3400               	retlw	0
  2081  09C9  3401               	retlw	1
  2082  09CA  3401               	retlw	1
  2083  09CB  347F               	retlw	127
  2084  09CC  3401               	retlw	1
  2085  09CD  3401               	retlw	1
  2086  09CE  3400               	retlw	0
  2087  09CF  3400               	retlw	0
  2088  09D0  3400               	retlw	0
  2089  09D1  343F               	retlw	63
  2090  09D2  3440               	retlw	64
  2091  09D3  3440               	retlw	64
  2092  09D4  3440               	retlw	64
  2093  09D5  343F               	retlw	63
  2094  09D6  3400               	retlw	0
  2095  09D7  3400               	retlw	0
  2096  09D8  3400               	retlw	0
  2097  09D9  341F               	retlw	31
  2098  09DA  3420               	retlw	32
  2099  09DB  3440               	retlw	64
  2100  09DC  3420               	retlw	32
  2101  09DD  341F               	retlw	31
  2102  09DE  3400               	retlw	0
  2103  09DF  3400               	retlw	0
  2104  09E0  3400               	retlw	0
  2105  09E1  343F               	retlw	63
  2106  09E2  3440               	retlw	64
  2107  09E3  3438               	retlw	56
  2108  09E4  3440               	retlw	64
  2109  09E5  343F               	retlw	63
  2110  09E6  3400               	retlw	0
  2111  09E7  3400               	retlw	0
  2112  09E8  3400               	retlw	0
  2113  09E9  3463               	retlw	99
  2114  09EA  3414               	retlw	20
  2115  09EB  3408               	retlw	8
  2116  09EC  3414               	retlw	20
  2117  09ED  3463               	retlw	99
  2118  09EE  3400               	retlw	0
  2119  09EF  3400               	retlw	0
  2120  09F0  3400               	retlw	0
  2121  09F1  3403               	retlw	3
  2122  09F2  3404               	retlw	4
  2123  09F3  3478               	retlw	120
  2124  09F4  3404               	retlw	4
  2125  09F5  3403               	retlw	3
  2126  09F6  3400               	retlw	0
  2127  09F7  3400               	retlw	0
  2128  09F8  3400               	retlw	0
  2129  09F9  3461               	retlw	97
  2130  09FA  3451               	retlw	81
  2131  09FB  3449               	retlw	73
  2132  09FC  3445               	retlw	69
  2133  09FD  3443               	retlw	67
  2134  09FE  3400               	retlw	0
  2135  09FF  3400               	retlw	0
  2136  0A00  3400               	retlw	0
  2137  0A01  347F               	retlw	127
  2138  0A02  3441               	retlw	65
  2139  0A03  3441               	retlw	65
  2140  0A04  3400               	retlw	0
  2141  0A05  3400               	retlw	0
  2142  0A06  3400               	retlw	0
  2143  0A07  3400               	retlw	0
  2144  0A08  3400               	retlw	0
  2145  0A09  3402               	retlw	2
  2146  0A0A  3404               	retlw	4
  2147  0A0B  3408               	retlw	8
  2148  0A0C  3410               	retlw	16
  2149  0A0D  3420               	retlw	32
  2150  0A0E  3400               	retlw	0
  2151  0A0F  3400               	retlw	0
  2152  0A10  3400               	retlw	0
  2153  0A11  3441               	retlw	65
  2154  0A12  3441               	retlw	65
  2155  0A13  347F               	retlw	127
  2156  0A14  3400               	retlw	0
  2157  0A15  3400               	retlw	0
  2158  0A16  3400               	retlw	0
  2159  0A17  3400               	retlw	0
  2160  0A18  3400               	retlw	0
  2161  0A19  3404               	retlw	4
  2162  0A1A  3402               	retlw	2
  2163  0A1B  3401               	retlw	1
  2164  0A1C  3402               	retlw	2
  2165  0A1D  3404               	retlw	4
  2166  0A1E  3400               	retlw	0
  2167  0A1F  3400               	retlw	0
  2168  0A20  3400               	retlw	0
  2169  0A21  3480               	retlw	128
  2170  0A22  3480               	retlw	128
  2171  0A23  3480               	retlw	128
  2172  0A24  3480               	retlw	128
  2173  0A25  3480               	retlw	128
  2174  0A26  3400               	retlw	0
  2175  0A27  3400               	retlw	0
  2176  0A28  3400               	retlw	0
  2177  0A29  3401               	retlw	1
  2178  0A2A  3402               	retlw	2
  2179  0A2B  3404               	retlw	4
  2180  0A2C  3400               	retlw	0
  2181  0A2D  3400               	retlw	0
  2182  0A2E  3400               	retlw	0
  2183  0A2F  3400               	retlw	0
  2184  0A30  3400               	retlw	0
  2185  0A31  3420               	retlw	32
  2186  0A32  3454               	retlw	84
  2187  0A33  3454               	retlw	84
  2188  0A34  3454               	retlw	84
  2189  0A35  3478               	retlw	120
  2190  0A36  3400               	retlw	0
  2191  0A37  3400               	retlw	0
  2192  0A38  3400               	retlw	0
  2193  0A39  347F               	retlw	127
  2194  0A3A  3448               	retlw	72
  2195  0A3B  3444               	retlw	68
  2196  0A3C  3444               	retlw	68
  2197  0A3D  3438               	retlw	56
  2198  0A3E  3400               	retlw	0
  2199  0A3F  3400               	retlw	0
  2200  0A40  3400               	retlw	0
  2201  0A41  3438               	retlw	56
  2202  0A42  3444               	retlw	68
  2203  0A43  3444               	retlw	68
  2204  0A44  3428               	retlw	40
  2205  0A45  3400               	retlw	0
  2206  0A46  3400               	retlw	0
  2207  0A47  3400               	retlw	0
  2208  0A48  3400               	retlw	0
  2209  0A49  3438               	retlw	56
  2210  0A4A  3444               	retlw	68
  2211  0A4B  3444               	retlw	68
  2212  0A4C  3448               	retlw	72
  2213  0A4D  347F               	retlw	127
  2214  0A4E  3400               	retlw	0
  2215  0A4F  3400               	retlw	0
  2216  0A50  3400               	retlw	0
  2217  0A51  3438               	retlw	56
  2218  0A52  3454               	retlw	84
  2219  0A53  3454               	retlw	84
  2220  0A54  3454               	retlw	84
  2221  0A55  3418               	retlw	24
  2222  0A56  3400               	retlw	0
  2223  0A57  3400               	retlw	0
  2224  0A58  3400               	retlw	0
  2225  0A59  3408               	retlw	8
  2226  0A5A  347E               	retlw	126
  2227  0A5B  3409               	retlw	9
  2228  0A5C  3402               	retlw	2
  2229  0A5D  3400               	retlw	0
  2230  0A5E  3400               	retlw	0
  2231  0A5F  3400               	retlw	0
  2232  0A60  3400               	retlw	0
  2233  0A61  3418               	retlw	24
  2234  0A62  34A4               	retlw	164
  2235  0A63  34A4               	retlw	164
  2236  0A64  34A4               	retlw	164
  2237  0A65  347C               	retlw	124
  2238  0A66  3400               	retlw	0
  2239  0A67  3400               	retlw	0
  2240  0A68  3400               	retlw	0
  2241  0A69  347F               	retlw	127
  2242  0A6A  3408               	retlw	8
  2243  0A6B  3404               	retlw	4
  2244  0A6C  3404               	retlw	4
  2245  0A6D  3478               	retlw	120
  2246  0A6E  3400               	retlw	0
  2247  0A6F  3400               	retlw	0
  2248  0A70  3400               	retlw	0
  2249  0A71  3400               	retlw	0
  2250  0A72  347D               	retlw	125
  2251  0A73  3400               	retlw	0
  2252  0A74  3400               	retlw	0
  2253  0A75  3400               	retlw	0
  2254  0A76  3400               	retlw	0
  2255  0A77  3400               	retlw	0
  2256  0A78  3400               	retlw	0
  2257  0A79  3480               	retlw	128
  2258  0A7A  3484               	retlw	132
  2259  0A7B  347D               	retlw	125
  2260  0A7C  3400               	retlw	0
  2261  0A7D  3400               	retlw	0
  2262  0A7E  3400               	retlw	0
  2263  0A7F  3400               	retlw	0
  2264  0A80  3400               	retlw	0
  2265  0A81  347F               	retlw	127
  2266  0A82  3410               	retlw	16
  2267  0A83  3428               	retlw	40
  2268  0A84  3444               	retlw	68
  2269  0A85  3400               	retlw	0
  2270  0A86  3400               	retlw	0
  2271  0A87  3400               	retlw	0
  2272  0A88  3400               	retlw	0
  2273  0A89  3441               	retlw	65
  2274  0A8A  347F               	retlw	127
  2275  0A8B  3440               	retlw	64
  2276  0A8C  3400               	retlw	0
  2277  0A8D  3400               	retlw	0
  2278  0A8E  3400               	retlw	0
  2279  0A8F  3400               	retlw	0
  2280  0A90  3400               	retlw	0
  2281  0A91  347C               	retlw	124
  2282  0A92  3404               	retlw	4
  2283  0A93  3418               	retlw	24
  2284  0A94  3404               	retlw	4
  2285  0A95  3478               	retlw	120
  2286  0A96  3400               	retlw	0
  2287  0A97  3400               	retlw	0
  2288  0A98  3400               	retlw	0
  2289  0A99  347C               	retlw	124
  2290  0A9A  3408               	retlw	8
  2291  0A9B  3404               	retlw	4
  2292  0A9C  347C               	retlw	124
  2293  0A9D  3400               	retlw	0
  2294  0A9E  3400               	retlw	0
  2295  0A9F  3400               	retlw	0
  2296  0AA0  3400               	retlw	0
  2297  0AA1  3438               	retlw	56
  2298  0AA2  3444               	retlw	68
  2299  0AA3  3444               	retlw	68
  2300  0AA4  3438               	retlw	56
  2301  0AA5  3400               	retlw	0
  2302  0AA6  3400               	retlw	0
  2303  0AA7  3400               	retlw	0
  2304  0AA8  3400               	retlw	0
  2305  0AA9  34FC               	retlw	252
  2306  0AAA  3424               	retlw	36
  2307  0AAB  3424               	retlw	36
  2308  0AAC  3418               	retlw	24
  2309  0AAD  3400               	retlw	0
  2310  0AAE  3400               	retlw	0
  2311  0AAF  3400               	retlw	0
  2312  0AB0  3400               	retlw	0
  2313  0AB1  3418               	retlw	24
  2314  0AB2  3424               	retlw	36
  2315  0AB3  3424               	retlw	36
  2316  0AB4  34FC               	retlw	252
  2317  0AB5  3400               	retlw	0
  2318  0AB6  3400               	retlw	0
  2319  0AB7  3400               	retlw	0
  2320  0AB8  3400               	retlw	0
  2321  0AB9  3400               	retlw	0
  2322  0ABA  347C               	retlw	124
  2323  0ABB  3408               	retlw	8
  2324  0ABC  3404               	retlw	4
  2325  0ABD  3400               	retlw	0
  2326  0ABE  3400               	retlw	0
  2327  0ABF  3400               	retlw	0
  2328  0AC0  3400               	retlw	0
  2329  0AC1  3448               	retlw	72
  2330  0AC2  3454               	retlw	84
  2331  0AC3  3454               	retlw	84
  2332  0AC4  3424               	retlw	36
  2333  0AC5  3400               	retlw	0
  2334  0AC6  3400               	retlw	0
  2335  0AC7  3400               	retlw	0
  2336  0AC8  3400               	retlw	0
  2337  0AC9  3404               	retlw	4
  2338  0ACA  347F               	retlw	127
  2339  0ACB  3444               	retlw	68
  2340  0ACC  3400               	retlw	0
  2341  0ACD  3400               	retlw	0
  2342  0ACE  3400               	retlw	0
  2343  0ACF  3400               	retlw	0
  2344  0AD0  3400               	retlw	0
  2345  0AD1  343C               	retlw	60
  2346  0AD2  3440               	retlw	64
  2347  0AD3  3440               	retlw	64
  2348  0AD4  347C               	retlw	124
  2349  0AD5  3400               	retlw	0
  2350  0AD6  3400               	retlw	0
  2351  0AD7  3400               	retlw	0
  2352  0AD8  3400               	retlw	0
  2353  0AD9  341C               	retlw	28
  2354  0ADA  3420               	retlw	32
  2355  0ADB  3440               	retlw	64
  2356  0ADC  3420               	retlw	32
  2357  0ADD  341C               	retlw	28
  2358  0ADE  3400               	retlw	0
  2359  0ADF  3400               	retlw	0
  2360  0AE0  3400               	retlw	0
  2361  0AE1  343C               	retlw	60
  2362  0AE2  3440               	retlw	64
  2363  0AE3  3430               	retlw	48
  2364  0AE4  3440               	retlw	64
  2365  0AE5  343C               	retlw	60
  2366  0AE6  3400               	retlw	0
  2367  0AE7  3400               	retlw	0
  2368  0AE8  3400               	retlw	0
  2369  0AE9  3444               	retlw	68
  2370  0AEA  3428               	retlw	40
  2371  0AEB  3410               	retlw	16
  2372  0AEC  3428               	retlw	40
  2373  0AED  3444               	retlw	68
  2374  0AEE  3400               	retlw	0
  2375  0AEF  3400               	retlw	0
  2376  0AF0  3400               	retlw	0
  2377  0AF1  341C               	retlw	28
  2378  0AF2  34A0               	retlw	160
  2379  0AF3  34A0               	retlw	160
  2380  0AF4  347C               	retlw	124
  2381  0AF5  3400               	retlw	0
  2382  0AF6  3400               	retlw	0
  2383  0AF7  3400               	retlw	0
  2384  0AF8  3400               	retlw	0
  2385  0AF9  3444               	retlw	68
  2386  0AFA  3464               	retlw	100
  2387  0AFB  3454               	retlw	84
  2388  0AFC  344C               	retlw	76
  2389  0AFD  3444               	retlw	68
  2390  0AFE  3400               	retlw	0
  2391  0AFF  3400               	retlw	0
  2392  0B00  3400               	retlw	0
  2393  0B01  3408               	retlw	8
  2394  0B02  3436               	retlw	54
  2395  0B03  3441               	retlw	65
  2396  0B04  3400               	retlw	0
  2397  0B05  3400               	retlw	0
  2398  0B06  3400               	retlw	0
  2399  0B07  3400               	retlw	0
  2400  0B08  3400               	retlw	0
  2401  0B09  3400               	retlw	0
  2402  0B0A  347F               	retlw	127
  2403  0B0B  3400               	retlw	0
  2404  0B0C  3400               	retlw	0
  2405  0B0D  3400               	retlw	0
  2406  0B0E  3400               	retlw	0
  2407  0B0F  3400               	retlw	0
  2408  0B10  3400               	retlw	0
  2409  0B11  3441               	retlw	65
  2410  0B12  3436               	retlw	54
  2411  0B13  3408               	retlw	8
  2412  0B14  3400               	retlw	0
  2413  0B15  3400               	retlw	0
  2414  0B16  3400               	retlw	0
  2415  0B17  3400               	retlw	0
  2416  0B18  3400               	retlw	0
  2417  0B19  3402               	retlw	2
  2418  0B1A  3401               	retlw	1
  2419  0B1B  3401               	retlw	1
  2420  0B1C  3402               	retlw	2
  2421  0B1D  3401               	retlw	1
  2422  0B1E  3400               	retlw	0
  2423  0B1F  3400               	retlw	0
  2424  0B20  3400               	retlw	0
  2425  0B21  3402               	retlw	2
  2426  0B22  3405               	retlw	5
  2427  0B23  3405               	retlw	5
  2428  0B24  3402               	retlw	2
  2429  0B25  3400               	retlw	0
  2430  0B26  3400               	retlw	0
  2431  0B27  3400               	retlw	0
  2432  0B28                     __end_of_OledFont:	
  2433  0011                     _PIR1bits	set	17
  2434  007A                     _RD2	set	122
  2435  0078                     _RD0	set	120
  2436  0079                     _RD1	set	121
  2437  008F                     _TRISD	set	143
  2438  008E                     _TRISCbits	set	142
  2439  047A                     _TRISD2	set	1146
  2440  04CF                     _SPLLEN	set	1231
  2441  04CE                     _IRCF3	set	1230
  2442  04CD                     _IRCF2	set	1229
  2443  04CC                     _IRCF1	set	1228
  2444  04CB                     _IRCF0	set	1227
  2445  04C9                     _SCS1	set	1225
  2446  04C8                     _SCS0	set	1224
  2447  018F                     _ANSELD	set	399
  2448  018E                     _ANSELCbits	set	398
  2449  0216                     _SSPCON2bits	set	534
  2450  0211                     _SSPBUF	set	529
  2451  0212                     _SSPADD	set	530
  2452  0215                     _SSPCONbits	set	533
  2453  0E20                     _SSPCLKPPSbits	set	3616
  2454  0E21                     _SSPDATPPSbits	set	3617
  2455  0E0F                     _PPSLOCKbits	set	3599
  2456  0E0F                     _PPSLOCK	set	3599
  2457  0EA5                     _RC5PPSbits	set	3749
  2458  0EA4                     _RC4PPSbits	set	3748
  2459  0B28                     STR_4:	
  2460  0B28  3425               	retlw	37	;'%'
  2461  0B29  346C               	retlw	108	;'l'
  2462  0B2A  3475               	retlw	117	;'u'
  2463  0B2B  342E               	retlw	46	;'.'
  2464  0B2C  3425               	retlw	37	;'%'
  2465  0B2D  3436               	retlw	54	;'6'
  2466  0B2E  342E               	retlw	46	;'.'
  2467  0B2F  3436               	retlw	54	;'6'
  2468  0B30  346C               	retlw	108	;'l'
  2469  0B31  3475               	retlw	117	;'u'
  2470  0B32  3400               	retlw	0
  2471  0B33                     STR_1:	
  2472  0B33  3454               	retlw	84	;'T'
  2473  0B34  3469               	retlw	105	;'i'
  2474  0B35  346D               	retlw	109	;'m'
  2475  0B36  3465               	retlw	101	;'e'
  2476  0B37  343A               	retlw	58	;':'
  2477  0B38  3420               	retlw	32	;' '
  2478  0B39  3400               	retlw	0
  2479  0B3A                     STR_2:	
  2480  0B3A  3420               	retlw	32	;' '
  2481  0B3B  3420               	retlw	32	;' '
  2482  0B3C  3420               	retlw	32	;' '
  2483  0B3D  3420               	retlw	32	;' '
  2484  0B3E  3420               	retlw	32	;' '
  2485  0B3F  3400               	retlw	0
  2486  0B3A                     
  2487                           ; #config settings
  2488  0000                     
  2489                           	psect	cinit
  2490  07F6                     start_initialization:	
  2491  07F6                     __initialization:	
  2492                           
  2493                           ; Clear objects allocated to BANK0
  2494  07F6  305A               	movlw	low __pbssBANK0
  2495  07F7  0084               	movwf	4
  2496  07F8  3000               	movlw	high __pbssBANK0
  2497  07F9  0085               	movwf	5
  2498  07FA  3011               	movlw	17
  2499  07FB  3182  2248         	fcall	clear_ram0
  2500  07FD                     end_of_initialization:	
  2501                           ;End of C runtime variable initialization code
  2502                           
  2503  07FD                     __end_of__initialization:	
  2504  07FD  0020               	movlb	0
  2505  07FE  3186  2E09         	ljmp	_main	;jump to C main() function
  2506                           
  2507                           	psect	bssBANK0
  2508  005A                     __pbssBANK0:	
  2509  005A                     ftoa@buf:	
  2510  005A                     	ds	17
  2511                           
  2512                           	psect	clrtext
  2513  0248                     clear_ram0:	
  2514                           ;	Called with FSR0 containing the base address, and
  2515                           ;	WREG with the size to clear
  2516                           
  2517  0248  0064               	clrwdt	;clear the watchdog before getting into this loop
  2518  0249                     clrloop0:	
  2519  0249  0180               	clrf	0	;clear RAM location pointed to by FSR
  2520  024A  3101               	addfsr 0,1
  2521  024B  0B89               	decfsz	9,f	;Have we reached the end of clearing yet?
  2522  024C  2A49               	goto	clrloop0	;have we reached the end yet?
  2523  024D  3400               	retlw	0	;all done for this memory range, return
  2524                           
  2525                           	psect	cstackCOMMON
  2526  0070                     __pcstackCOMMON:	
  2527  0070                     ?_I2C_Init:	
  2528  0070                     ??_I2C_Init:	
  2529                           ; 1 bytes @ 0x0
  2530                           
  2531  0070                     ?_OLED_Init:	
  2532                           ; 1 bytes @ 0x0
  2533                           
  2534  0070                     ?_OLED_Clear:	
  2535                           ; 1 bytes @ 0x0
  2536                           
  2537  0070                     ?_DS1302_Reset:	
  2538                           ; 1 bytes @ 0x0
  2539                           
  2540  0070                     ??_DS1302_Reset:	
  2541                           ; 1 bytes @ 0x0
  2542                           
  2543  0070                     ?_DS1302_WriteByte:	
  2544                           ; 1 bytes @ 0x0
  2545                           
  2546  0070                     ??_DS1302_WriteByte:	
  2547                           ; 1 bytes @ 0x0
  2548                           
  2549  0070                     ?_DS1302_ReadByte:	
  2550                           ; 1 bytes @ 0x0
  2551                           
  2552  0070                     ??_DS1302_ReadByte:	
  2553                           ; 1 bytes @ 0x0
  2554                           
  2555  0070                     ?_memmove:	
  2556                           ; 1 bytes @ 0x0
  2557                           
  2558  0070                     ?_get_bcd:	
  2559                           ; 1 bytes @ 0x0
  2560                           
  2561  0070                     ?_internal_16:	
  2562                           ; 1 bytes @ 0x0
  2563                           
  2564  0070                     ??_internal_16:	
  2565                           ; 1 bytes @ 0x0
  2566                           
  2567  0070                     ?_initMain:	
  2568                           ; 1 bytes @ 0x0
  2569                           
  2570  0070                     ??_initMain:	
  2571                           ; 1 bytes @ 0x0
  2572                           
  2573  0070                     ?_main:	
  2574                           ; 1 bytes @ 0x0
  2575                           
  2576  0070                     ?_Send_I2C_Data:	
  2577                           ; 1 bytes @ 0x0
  2578                           
  2579  0070                     ?_Send_I2C_StartBit:	
  2580                           ; 1 bytes @ 0x0
  2581                           
  2582  0070                     ??_Send_I2C_StartBit:	
  2583                           ; 1 bytes @ 0x0
  2584                           
  2585  0070                     ?_Send_I2C_StopBit:	
  2586                           ; 1 bytes @ 0x0
  2587                           
  2588  0070                     ??_Send_I2C_StopBit:	
  2589                           ; 1 bytes @ 0x0
  2590                           
  2591  0070                     ?_OLED_Command:	
  2592                           ; 1 bytes @ 0x0
  2593                           
  2594  0070                     ?_OLED_PutChar:	
  2595                           ; 1 bytes @ 0x0
  2596                           
  2597  0070                     ?___bmul:	
  2598                           ; 1 bytes @ 0x0
  2599                           
  2600  0070                     ?___awdiv:	
  2601                           ; 1 bytes @ 0x0
  2602                           
  2603  0070                     ___bmul@multiplicand:	
  2604                           ; 2 bytes @ 0x0
  2605                           
  2606  0070                     Send_I2C_Data@databyte:	
  2607                           ; 1 bytes @ 0x0
  2608                           
  2609  0070                     ___awdiv@divisor:	
  2610                           ; 2 bytes @ 0x0
  2611                           
  2612  0070                     memmove@s1:	
  2613                           ; 2 bytes @ 0x0
  2614                           
  2615                           
  2616                           ; 2 bytes @ 0x0
  2617  0070                     	ds	1
  2618  0071                     ??___bmul:	
  2619  0071                     DS1302_WriteByte@W_Byte:	
  2620                           ; 1 bytes @ 0x1
  2621                           
  2622  0071                     DS1302_ReadByte@TmpByte:	
  2623                           ; 1 bytes @ 0x1
  2624                           
  2625                           
  2626                           ; 1 bytes @ 0x1
  2627  0071                     	ds	1
  2628  0072                     ??_Send_I2C_Data:	
  2629  0072                     ??_OLED_Command:	
  2630                           ; 1 bytes @ 0x2
  2631                           
  2632  0072                     DS1302_WriteByte@i:	
  2633                           ; 1 bytes @ 0x2
  2634                           
  2635  0072                     DS1302_ReadByte@R_Byte:	
  2636                           ; 1 bytes @ 0x2
  2637                           
  2638  0072                     ___bmul@product:	
  2639                           ; 1 bytes @ 0x2
  2640                           
  2641  0072                     ___awdiv@dividend:	
  2642                           ; 1 bytes @ 0x2
  2643                           
  2644  0072                     memmove@n:	
  2645                           ; 2 bytes @ 0x2
  2646                           
  2647                           
  2648                           ; 2 bytes @ 0x2
  2649  0072                     	ds	1
  2650  0073                     DS1302_ReadByte@i:	
  2651  0073                     ___bmul@multiplier:	
  2652                           ; 1 bytes @ 0x3
  2653                           
  2654                           
  2655                           ; 1 bytes @ 0x3
  2656  0073                     	ds	1
  2657  0074                     ??_memmove:	
  2658  0074                     ??___awdiv:	
  2659                           ; 1 bytes @ 0x4
  2660                           
  2661  0074                     OLED_Command@temp:	
  2662                           ; 1 bytes @ 0x4
  2663                           
  2664                           
  2665                           ; 1 bytes @ 0x4
  2666  0074                     	ds	1
  2667  0075                     ??_OLED_Init:	
  2668  0075                     ?_OLED_YX:	
  2669                           ; 1 bytes @ 0x5
  2670                           
  2671  0075                     OLED_YX@Column:	
  2672                           ; 1 bytes @ 0x5
  2673                           
  2674  0075                     ___awdiv@counter:	
  2675                           ; 1 bytes @ 0x5
  2676                           
  2677                           
  2678                           ; 1 bytes @ 0x5
  2679  0075                     	ds	1
  2680  0076                     ??_OLED_YX:	
  2681  0076                     ___awdiv@sign:	
  2682                           ; 1 bytes @ 0x6
  2683                           
  2684                           
  2685                           ; 1 bytes @ 0x6
  2686  0076                     	ds	1
  2687  0077                     ___awdiv@quotient:	
  2688                           
  2689                           ; 2 bytes @ 0x7
  2690  0077                     	ds	1
  2691  0078                     memmove@d1:	
  2692                           
  2693                           ; 1 bytes @ 0x8
  2694  0078                     	ds	1
  2695  0079                     ??_get_bcd:	
  2696  0079                     ?___awmod:	
  2697                           ; 1 bytes @ 0x9
  2698                           
  2699  0079                     OLED_YX@Row:	
  2700                           ; 2 bytes @ 0x9
  2701                           
  2702  0079                     ___awmod@divisor:	
  2703                           ; 1 bytes @ 0x9
  2704                           
  2705  0079                     memmove@s:	
  2706                           ; 2 bytes @ 0x9
  2707                           
  2708                           
  2709                           ; 2 bytes @ 0x9
  2710  0079                     	ds	2
  2711  007B                     memmove@d:	
  2712  007B                     ___awmod@dividend:	
  2713                           ; 1 bytes @ 0xB
  2714                           
  2715                           
  2716                           ; 2 bytes @ 0xB
  2717  007B                     	ds	1
  2718  007C                     ??_OLED_Clear:	
  2719  007C                     ??_DS1302_Initialize:	
  2720                           ; 1 bytes @ 0xC
  2721                           
  2722  007C                     ?_OLED_Write_String:	
  2723                           ; 1 bytes @ 0xC
  2724                           
  2725  007C                     OLED_Write_String@s:	
  2726                           ; 1 bytes @ 0xC
  2727                           
  2728                           
  2729                           ; 2 bytes @ 0xC
  2730  007C                     	ds	1
  2731  007D                     ??___awmod:	
  2732                           
  2733                           ; 1 bytes @ 0xD
  2734  007D                     	ds	1
  2735                           
  2736                           	psect	cstackBANK0
  2737  0020                     __pcstackBANK0:	
  2738  0020                     ??_OLED_PutChar:	
  2739  0020                     get_bcd@nibl:	
  2740                           ; 1 bytes @ 0x0
  2741                           
  2742  0020                     ___awmod@counter:	
  2743                           ; 1 bytes @ 0x0
  2744                           
  2745                           
  2746                           ; 1 bytes @ 0x0
  2747  0020                     	ds	1
  2748  0021                     get_bcd@data:	
  2749  0021                     ___awmod@sign:	
  2750                           ; 1 bytes @ 0x1
  2751                           
  2752                           
  2753                           ; 1 bytes @ 0x1
  2754  0021                     	ds	1
  2755  0022                     get_bcd@nibh:	
  2756                           
  2757                           ; 1 bytes @ 0x2
  2758  0022                     	ds	1
  2759  0023                     ?_DS1302_Initialize:	
  2760  0023                     DS1302_Initialize@min:	
  2761                           ; 1 bytes @ 0x3
  2762                           
  2763                           
  2764                           ; 1 bytes @ 0x3
  2765  0023                     	ds	1
  2766  0024                     DS1302_Initialize@hr:	
  2767                           
  2768                           ; 1 bytes @ 0x4
  2769  0024                     	ds	1
  2770  0025                     DS1302_Initialize@day:	
  2771                           
  2772                           ; 1 bytes @ 0x5
  2773  0025                     	ds	1
  2774  0026                     DS1302_Initialize@date:	
  2775  0026                     OLED_PutChar@bytes:	
  2776                           ; 1 bytes @ 0x6
  2777                           
  2778                           
  2779                           ; 9 bytes @ 0x6
  2780  0026                     	ds	1
  2781  0027                     DS1302_Initialize@mth:	
  2782                           
  2783                           ; 1 bytes @ 0x7
  2784  0027                     	ds	1
  2785  0028                     DS1302_Initialize@year:	
  2786                           
  2787                           ; 1 bytes @ 0x8
  2788  0028                     	ds	1
  2789  0029                     DS1302_Initialize@day1:	
  2790                           
  2791                           ; 1 bytes @ 0x9
  2792  0029                     	ds	1
  2793  002A                     DS1302_Initialize@sec:	
  2794                           
  2795                           ; 1 bytes @ 0xA
  2796  002A                     	ds	1
  2797  002B                     DS1302_Initialize@sec1:	
  2798                           
  2799                           ; 1 bytes @ 0xB
  2800  002B                     	ds	1
  2801  002C                     DS1302_Initialize@min1:	
  2802                           
  2803                           ; 1 bytes @ 0xC
  2804  002C                     	ds	1
  2805  002D                     DS1302_Initialize@hr1:	
  2806                           
  2807                           ; 1 bytes @ 0xD
  2808  002D                     	ds	1
  2809  002E                     DS1302_Initialize@date1:	
  2810                           
  2811                           ; 1 bytes @ 0xE
  2812  002E                     	ds	1
  2813  002F                     DS1302_Initialize@mth1:	
  2814  002F                     OLED_PutChar@base:	
  2815                           ; 1 bytes @ 0xF
  2816                           
  2817                           
  2818                           ; 2 bytes @ 0xF
  2819  002F                     	ds	1
  2820  0030                     DS1302_Initialize@year1:	
  2821                           
  2822                           ; 1 bytes @ 0x10
  2823  0030                     	ds	1
  2824  0031                     OLED_PutChar@i:	
  2825                           
  2826                           ; 2 bytes @ 0x11
  2827  0031                     	ds	2
  2828  0033                     OLED_PutChar@ch:	
  2829                           
  2830                           ; 1 bytes @ 0x13
  2831  0033                     	ds	1
  2832  0034                     ??_OLED_Write_String:	
  2833  0034                     OLED_Clear@row:	
  2834                           ; 1 bytes @ 0x14
  2835                           
  2836                           
  2837                           ; 2 bytes @ 0x14
  2838  0034                     	ds	2
  2839  0036                     OLED_Clear@col:	
  2840                           
  2841                           ; 2 bytes @ 0x16
  2842  0036                     	ds	2
  2843  0038                     ??_main:	
  2844                           
  2845                           ; 1 bytes @ 0x18
  2846  0038                     	ds	6
  2847  003E                     main@dy1:	
  2848                           
  2849                           ; 1 bytes @ 0x1E
  2850  003E                     	ds	1
  2851  003F                     main@yr2:	
  2852                           
  2853                           ; 1 bytes @ 0x1F
  2854  003F                     	ds	1
  2855  0040                     main@mn2:	
  2856                           
  2857                           ; 1 bytes @ 0x20
  2858  0040                     	ds	1
  2859  0041                     main@date2:	
  2860                           
  2861                           ; 1 bytes @ 0x21
  2862  0041                     	ds	1
  2863  0042                     main@line1:	
  2864                           
  2865                           ; 8 bytes @ 0x22
  2866  0042                     	ds	8
  2867  004A                     main@sec:	
  2868                           
  2869                           ; 1 bytes @ 0x2A
  2870  004A                     	ds	1
  2871  004B                     main@min:	
  2872                           
  2873                           ; 1 bytes @ 0x2B
  2874  004B                     	ds	1
  2875  004C                     main@hr:	
  2876                           
  2877                           ; 1 bytes @ 0x2C
  2878  004C                     	ds	1
  2879  004D                     main@day:	
  2880                           
  2881                           ; 1 bytes @ 0x2D
  2882  004D                     	ds	1
  2883  004E                     main@date:	
  2884                           
  2885                           ; 1 bytes @ 0x2E
  2886  004E                     	ds	1
  2887  004F                     main@month:	
  2888                           
  2889                           ; 1 bytes @ 0x2F
  2890  004F                     	ds	1
  2891  0050                     main@year:	
  2892                           
  2893                           ; 1 bytes @ 0x30
  2894  0050                     	ds	1
  2895  0051                     main@yr1:	
  2896                           
  2897                           ; 1 bytes @ 0x31
  2898  0051                     	ds	1
  2899  0052                     main@mn1:	
  2900                           
  2901                           ; 1 bytes @ 0x32
  2902  0052                     	ds	1
  2903  0053                     main@date1:	
  2904                           
  2905                           ; 1 bytes @ 0x33
  2906  0053                     	ds	1
  2907  0054                     main@hr1:	
  2908                           
  2909                           ; 1 bytes @ 0x34
  2910  0054                     	ds	1
  2911  0055                     main@min1:	
  2912                           
  2913                           ; 1 bytes @ 0x35
  2914  0055                     	ds	1
  2915  0056                     main@sec1:	
  2916                           
  2917                           ; 1 bytes @ 0x36
  2918  0056                     	ds	1
  2919  0057                     main@hr2:	
  2920                           
  2921                           ; 1 bytes @ 0x37
  2922  0057                     	ds	1
  2923  0058                     main@min2:	
  2924                           
  2925                           ; 1 bytes @ 0x38
  2926  0058                     	ds	1
  2927  0059                     main@sec2:	
  2928                           
  2929                           ; 1 bytes @ 0x39
  2930  0059                     	ds	1
  2931                           
  2932                           	psect	maintext
  2933  0609                     __pmaintext:	
  2934 ;;
  2935 ;;Main: autosize = 0, tempsize = 6, incstack = 0, save=0
  2936 ;;
  2937 ;; *************** function _main *****************
  2938 ;; Defined at:
  2939 ;;		line 89 in file "Main.c"
  2940 ;; Parameters:    Size  Location     Type
  2941 ;;		None
  2942 ;; Auto vars:     Size  Location     Type
  2943 ;;  line1           8   34[BANK0 ] unsigned char [8]
  2944 ;;  line2           8    0        unsigned char [8]
  2945 ;;  sec2            1   57[BANK0 ] unsigned char 
  2946 ;;  min2            1   56[BANK0 ] unsigned char 
  2947 ;;  hr2             1   55[BANK0 ] unsigned char 
  2948 ;;  sec1            1   54[BANK0 ] unsigned char 
  2949 ;;  min1            1   53[BANK0 ] unsigned char 
  2950 ;;  hr1             1   52[BANK0 ] unsigned char 
  2951 ;;  date1           1   51[BANK0 ] unsigned char 
  2952 ;;  mn1             1   50[BANK0 ] unsigned char 
  2953 ;;  yr1             1   49[BANK0 ] unsigned char 
  2954 ;;  date2           1   33[BANK0 ] unsigned char 
  2955 ;;  mn2             1   32[BANK0 ] unsigned char 
  2956 ;;  yr2             1   31[BANK0 ] unsigned char 
  2957 ;;  dy1             1   30[BANK0 ] unsigned char 
  2958 ;;  dy2             1    0        unsigned char 
  2959 ;;  year            1   48[BANK0 ] unsigned char 
  2960 ;;  month           1   47[BANK0 ] unsigned char 
  2961 ;;  date            1   46[BANK0 ] unsigned char 
  2962 ;;  day             1   45[BANK0 ] unsigned char 
  2963 ;;  hr              1   44[BANK0 ] unsigned char 
  2964 ;;  min             1   43[BANK0 ] unsigned char 
  2965 ;;  sec             1   42[BANK0 ] unsigned char 
  2966 ;; Return value:  Size  Location     Type
  2967 ;;                  1    wreg      void 
  2968 ;; Registers used:
  2969 ;;		wreg, fsr0l, fsr0h, fsr1l, fsr1h, status,2, status,0, pclath, cstack
  2970 ;; Tracked objects:
  2971 ;;		On entry : B1F/0
  2972 ;;		On exit  : 0/0
  2973 ;;		Unchanged: 0/0
  2974 ;; Data sizes:     COMMON   BANK0   BANK1   BANK2   BANK3   BANK4   BANK5   BANK6   BANK7   BANK8   BANK9  BANK10  BANK1
      +1  BANK12
  2975 ;;      Params:         0       0       0       0       0       0       0       0       0       0       0       0       
      +0       0
  2976 ;;      Locals:         0      28       0       0       0       0       0       0       0       0       0       0       
      +0       0
  2977 ;;      Temps:          0       6       0       0       0       0       0       0       0       0       0       0       
      +0       0
  2978 ;;      Totals:         0      34       0       0       0       0       0       0       0       0       0       0       
      +0       0
  2979 ;;Total ram usage:       34 bytes
  2980 ;; Hardware stack levels required when called:    4
  2981 ;; This function calls:
  2982 ;;		_DS1302_Initialize
  2983 ;;		_DS1302_ReadByte
  2984 ;;		_DS1302_Reset
  2985 ;;		_DS1302_WriteByte
  2986 ;;		_I2C_Init
  2987 ;;		_OLED_Clear
  2988 ;;		_OLED_Init
  2989 ;;		_OLED_Write_String
  2990 ;;		_OLED_YX
  2991 ;;		___awdiv
  2992 ;;		___awmod
  2993 ;;		___bmul
  2994 ;;		_initMain
  2995 ;; This function is called by:
  2996 ;;		Startup code after reset
  2997 ;; This function uses a non-reentrant model
  2998 ;;
  2999                           
  3000                           
  3001                           ;psect for function _main
  3002  0609                     _main:	
  3003                           
  3004                           ;Main.c: 90: initMain();
  3005                           
  3006                           ;incstack = 0
  3007                           ; Regs used in _main: [wreg-fsr1h+status,2+status,0+pclath+cstack]
  3008  0609  3183  2323  3186   	fcall	_initMain
  3009                           
  3010                           ;Main.c: 93: I2C_Init();
  3011  060C  3182  2270  3186   	fcall	_I2C_Init
  3012                           
  3013                           ;Main.c: 95: _delay((unsigned long)((500)*(16000000/4000.0)));
  3014  060F  300B               	movlw	11
  3015  0610  0020               	movlb	0	; select bank0
  3016  0611  00B9               	movwf	??_main+1
  3017  0612  3026               	movlw	38
  3018  0613  00B8               	movwf	??_main
  3019  0614  305D               	movlw	93
  3020  0615                     u1097:	
  3021  0615  0B89               	decfsz	9,f
  3022  0616  2E15               	goto	u1097
  3023  0617  0BB8               	decfsz	??_main,f
  3024  0618  2E15               	goto	u1097
  3025  0619  0BB9               	decfsz	??_main+1,f
  3026  061A  2E15               	goto	u1097
  3027  061B  3200               	nop2
  3028                           
  3029                           ;Main.c: 98: OLED_Init();
  3030  061C  3184  2445  3186   	fcall	_OLED_Init
  3031                           
  3032                           ;Main.c: 100: _delay((unsigned long)((500)*(16000000/4000.0)));
  3033  061F  300B               	movlw	11
  3034  0620  0020               	movlb	0	; select bank0
  3035  0621  00B9               	movwf	??_main+1
  3036  0622  3026               	movlw	38
  3037  0623  00B8               	movwf	??_main
  3038  0624  305D               	movlw	93
  3039  0625                     u1107:	
  3040  0625  0B89               	decfsz	9,f
  3041  0626  2E25               	goto	u1107
  3042  0627  0BB8               	decfsz	??_main,f
  3043  0628  2E25               	goto	u1107
  3044  0629  0BB9               	decfsz	??_main+1,f
  3045  062A  2E25               	goto	u1107
  3046  062B  3200               	nop2
  3047                           
  3048                           ;Main.c: 103: OLED_Clear();
  3049  062C  3183  237E  3186   	fcall	_OLED_Clear
  3050                           
  3051                           ;Main.c: 105: _delay((unsigned long)((500)*(16000000/4000.0)));
  3052  062F  300B               	movlw	11
  3053  0630  0020               	movlb	0	; select bank0
  3054  0631  00B9               	movwf	??_main+1
  3055  0632  3026               	movlw	38
  3056  0633  00B8               	movwf	??_main
  3057  0634  305D               	movlw	93
  3058  0635                     u1117:	
  3059  0635  0B89               	decfsz	9,f
  3060  0636  2E35               	goto	u1117
  3061  0637  0BB8               	decfsz	??_main,f
  3062  0638  2E35               	goto	u1117
  3063  0639  0BB9               	decfsz	??_main+1,f
  3064  063A  2E35               	goto	u1117
  3065  063B  3200               	nop2
  3066                           
  3067                           ;Main.c: 108: byte sec = 0;
  3068  063C  0020               	movlb	0	; select bank0
  3069  063D  01CA               	clrf	main@sec
  3070                           
  3071                           ;Main.c: 109: byte min = 59;
  3072  063E  303B               	movlw	59
  3073  063F  00B8               	movwf	??_main
  3074  0640  0838               	movf	??_main,w
  3075  0641  00CB               	movwf	main@min
  3076                           
  3077                           ;Main.c: 110: byte hr = 10;
  3078  0642  300A               	movlw	10
  3079  0643  00B8               	movwf	??_main
  3080  0644  0838               	movf	??_main,w
  3081  0645  00CC               	movwf	main@hr
  3082                           
  3083                           ;Main.c: 111: byte day = 2;
  3084  0646  3002               	movlw	2
  3085  0647  00B8               	movwf	??_main
  3086  0648  0838               	movf	??_main,w
  3087  0649  00CD               	movwf	main@day
  3088                           
  3089                           ;Main.c: 112: byte date = 18;
  3090  064A  3012               	movlw	18
  3091  064B  00B8               	movwf	??_main
  3092  064C  0838               	movf	??_main,w
  3093  064D  00CE               	movwf	main@date
  3094                           
  3095                           ;Main.c: 113: byte month = 4;
  3096  064E  3004               	movlw	4
  3097  064F  00B8               	movwf	??_main
  3098  0650  0838               	movf	??_main,w
  3099  0651  00CF               	movwf	main@month
  3100                           
  3101                           ;Main.c: 114: byte year = 17;
  3102  0652  3011               	movlw	17
  3103  0653  00B8               	movwf	??_main
  3104  0654  0838               	movf	??_main,w
  3105  0655  00D0               	movwf	main@year
  3106                           
  3107                           ;Main.c: 117: DS1302_Initialize(sec, min, hr, day, date, month, year);
  3108  0656  084B               	movf	main@min,w
  3109  0657  00B8               	movwf	??_main
  3110  0658  0838               	movf	??_main,w
  3111  0659  00A3               	movwf	DS1302_Initialize@min
  3112  065A  084C               	movf	main@hr,w
  3113  065B  00B9               	movwf	??_main+1
  3114  065C  0839               	movf	??_main+1,w
  3115  065D  00A4               	movwf	DS1302_Initialize@hr
  3116  065E  084D               	movf	main@day,w
  3117  065F  00BA               	movwf	??_main+2
  3118  0660  083A               	movf	??_main+2,w
  3119  0661  00A5               	movwf	DS1302_Initialize@day
  3120  0662  084E               	movf	main@date,w
  3121  0663  00BB               	movwf	??_main+3
  3122  0664  083B               	movf	??_main+3,w
  3123  0665  00A6               	movwf	DS1302_Initialize@date
  3124  0666  084F               	movf	main@month,w
  3125  0667  00BC               	movwf	??_main+4
  3126  0668  083C               	movf	??_main+4,w
  3127  0669  00A7               	movwf	DS1302_Initialize@mth
  3128  066A  0850               	movf	main@year,w
  3129  066B  00BD               	movwf	??_main+5
  3130  066C  083D               	movf	??_main+5,w
  3131  066D  00A8               	movwf	DS1302_Initialize@year
  3132  066E  084A               	movf	main@sec,w
  3133  066F  3185  2588  3186   	fcall	_DS1302_Initialize
  3134  0672                     l1507:	
  3135                           ;Main.c: 120: while(1){
  3136                           
  3137                           
  3138                           ;Main.c: 123: unsigned char yr1, mn1, date1, dy1, hr1, min1, sec1, line1[8];
  3139                           ;Main.c: 124: unsigned char yr2, mn2, date2, dy2, hr2, min2, sec2, line2[8];
  3140                           ;Main.c: 128: DS1302_Reset();
  3141  0672  3182  2243  3186   	fcall	_DS1302_Reset
  3142                           
  3143                           ;Main.c: 129: DS1302_WriteByte(0xBF);
  3144  0675  30BF               	movlw	191
  3145  0676  3182  2291  3186   	fcall	_DS1302_WriteByte
  3146                           
  3147                           ;Main.c: 131: sec1 = DS1302_ReadByte();
  3148  0679  3182  22D6  3186   	fcall	_DS1302_ReadByte
  3149  067C  0020               	movlb	0	; select bank0
  3150  067D  00B8               	movwf	??_main
  3151  067E  0838               	movf	??_main,w
  3152  067F  00D6               	movwf	main@sec1
  3153                           
  3154                           ;Main.c: 132: min1 = DS1302_ReadByte();
  3155  0680  3182  22D6  3186   	fcall	_DS1302_ReadByte
  3156  0683  0020               	movlb	0	; select bank0
  3157  0684  00B8               	movwf	??_main
  3158  0685  0838               	movf	??_main,w
  3159  0686  00D5               	movwf	main@min1
  3160                           
  3161                           ;Main.c: 133: hr1 = DS1302_ReadByte();
  3162  0687  3182  22D6  3186   	fcall	_DS1302_ReadByte
  3163  068A  0020               	movlb	0	; select bank0
  3164  068B  00B8               	movwf	??_main
  3165  068C  0838               	movf	??_main,w
  3166  068D  00D4               	movwf	main@hr1
  3167                           
  3168                           ;Main.c: 134: dy1 = DS1302_ReadByte();
  3169  068E  3182  22D6  3186   	fcall	_DS1302_ReadByte
  3170  0691  0020               	movlb	0	; select bank0
  3171  0692  00B8               	movwf	??_main
  3172  0693  0838               	movf	??_main,w
  3173  0694  00BE               	movwf	main@dy1
  3174                           
  3175                           ;Main.c: 135: date1 = DS1302_ReadByte();
  3176  0695  3182  22D6  3186   	fcall	_DS1302_ReadByte
  3177  0698  0020               	movlb	0	; select bank0
  3178  0699  00B8               	movwf	??_main
  3179  069A  0838               	movf	??_main,w
  3180  069B  00D3               	movwf	main@date1
  3181                           
  3182                           ;Main.c: 136: mn1 = DS1302_ReadByte();
  3183  069C  3182  22D6  3186   	fcall	_DS1302_ReadByte
  3184  069F  0020               	movlb	0	; select bank0
  3185  06A0  00B8               	movwf	??_main
  3186  06A1  0838               	movf	??_main,w
  3187  06A2  00D2               	movwf	main@mn1
  3188                           
  3189                           ;Main.c: 137: yr1 = DS1302_ReadByte();
  3190  06A3  3182  22D6  3186   	fcall	_DS1302_ReadByte
  3191  06A6  0020               	movlb	0	; select bank0
  3192  06A7  00B8               	movwf	??_main
  3193  06A8  0838               	movf	??_main,w
  3194  06A9  00D1               	movwf	main@yr1
  3195                           
  3196                           ;Main.c: 139: DS1302_Reset();
  3197  06AA  3182  2243  3186   	fcall	_DS1302_Reset
  3198                           
  3199                           ;Main.c: 144: yr2 = (yr1 >> 4) * 10;
  3200  06AD  300A               	movlw	10
  3201  06AE  0020               	movlb	0	; select bank0
  3202  06AF  00B8               	movwf	??_main
  3203  06B0  0838               	movf	??_main,w
  3204  06B1  00F0               	movwf	___bmul@multiplicand
  3205  06B2  0851               	movf	main@yr1,w
  3206  06B3  00B9               	movwf	??_main+1
  3207  06B4  3004               	movlw	4
  3208  06B5                     u1035:	
  3209  06B5  36B9               	lsrf	??_main+1,f
  3210  06B6  0B89               	decfsz	9,f
  3211  06B7  2EB5               	goto	u1035
  3212  06B8  0839               	movf	??_main+1,w
  3213  06B9  3182  2280  3186   	fcall	___bmul
  3214  06BC  0020               	movlb	0	; select bank0
  3215  06BD  00BA               	movwf	??_main+2
  3216  06BE  083A               	movf	??_main+2,w
  3217  06BF  00BF               	movwf	main@yr2
  3218                           
  3219                           ;Main.c: 145: yr2 += (yr1 & 15);
  3220  06C0  0851               	movf	main@yr1,w
  3221  06C1  390F               	andlw	15
  3222  06C2  00B8               	movwf	??_main
  3223  06C3  0838               	movf	??_main,w
  3224  06C4  07BF               	addwf	main@yr2,f
  3225                           
  3226                           ;Main.c: 148: mn2 = (mn1 >> 4) * 10;
  3227  06C5  300A               	movlw	10
  3228  06C6  00B8               	movwf	??_main
  3229  06C7  0838               	movf	??_main,w
  3230  06C8  00F0               	movwf	___bmul@multiplicand
  3231  06C9  0852               	movf	main@mn1,w
  3232  06CA  00B9               	movwf	??_main+1
  3233  06CB  3004               	movlw	4
  3234  06CC                     u1045:	
  3235  06CC  36B9               	lsrf	??_main+1,f
  3236  06CD  0B89               	decfsz	9,f
  3237  06CE  2ECC               	goto	u1045
  3238  06CF  0839               	movf	??_main+1,w
  3239  06D0  3182  2280  3186   	fcall	___bmul
  3240  06D3  0020               	movlb	0	; select bank0
  3241  06D4  00BA               	movwf	??_main+2
  3242  06D5  083A               	movf	??_main+2,w
  3243  06D6  00C0               	movwf	main@mn2
  3244                           
  3245                           ;Main.c: 149: mn2 = (mn1 & 15);
  3246  06D7  0852               	movf	main@mn1,w
  3247  06D8  390F               	andlw	15
  3248  06D9  00B8               	movwf	??_main
  3249  06DA  0838               	movf	??_main,w
  3250  06DB  00C0               	movwf	main@mn2
  3251                           
  3252                           ;Main.c: 152: date2 = (date1 >> 4) * 10;
  3253  06DC  300A               	movlw	10
  3254  06DD  00B8               	movwf	??_main
  3255  06DE  0838               	movf	??_main,w
  3256  06DF  00F0               	movwf	___bmul@multiplicand
  3257  06E0  0853               	movf	main@date1,w
  3258  06E1  00B9               	movwf	??_main+1
  3259  06E2  3004               	movlw	4
  3260  06E3                     u1055:	
  3261  06E3  36B9               	lsrf	??_main+1,f
  3262  06E4  0B89               	decfsz	9,f
  3263  06E5  2EE3               	goto	u1055
  3264  06E6  0839               	movf	??_main+1,w
  3265  06E7  3182  2280  3186   	fcall	___bmul
  3266  06EA  0020               	movlb	0	; select bank0
  3267  06EB  00BA               	movwf	??_main+2
  3268  06EC  083A               	movf	??_main+2,w
  3269  06ED  00C1               	movwf	main@date2
  3270                           
  3271                           ;Main.c: 153: date2 += (date1 & 15);
  3272  06EE  0853               	movf	main@date1,w
  3273  06EF  390F               	andlw	15
  3274  06F0  00B8               	movwf	??_main
  3275  06F1  0838               	movf	??_main,w
  3276  06F2  07C1               	addwf	main@date2,f
  3277                           
  3278                           ;Main.c: 156: hr2 = (hr1 >> 4) * 10;
  3279  06F3  300A               	movlw	10
  3280  06F4  00B8               	movwf	??_main
  3281  06F5  0838               	movf	??_main,w
  3282  06F6  00F0               	movwf	___bmul@multiplicand
  3283  06F7  0854               	movf	main@hr1,w
  3284  06F8  00B9               	movwf	??_main+1
  3285  06F9  3004               	movlw	4
  3286  06FA                     u1065:	
  3287  06FA  36B9               	lsrf	??_main+1,f
  3288  06FB  0B89               	decfsz	9,f
  3289  06FC  2EFA               	goto	u1065
  3290  06FD  0839               	movf	??_main+1,w
  3291  06FE  3182  2280  3186   	fcall	___bmul
  3292  0701  0020               	movlb	0	; select bank0
  3293  0702  00BA               	movwf	??_main+2
  3294  0703  083A               	movf	??_main+2,w
  3295  0704  00D7               	movwf	main@hr2
  3296                           
  3297                           ;Main.c: 157: hr2 += (hr1 & 15);
  3298  0705  0854               	movf	main@hr1,w
  3299  0706  390F               	andlw	15
  3300  0707  00B8               	movwf	??_main
  3301  0708  0838               	movf	??_main,w
  3302  0709  07D7               	addwf	main@hr2,f
  3303                           
  3304                           ;Main.c: 160: min2 = (min1 >> 4) * 10;
  3305  070A  300A               	movlw	10
  3306  070B  00B8               	movwf	??_main
  3307  070C  0838               	movf	??_main,w
  3308  070D  00F0               	movwf	___bmul@multiplicand
  3309  070E  0855               	movf	main@min1,w
  3310  070F  00B9               	movwf	??_main+1
  3311  0710  3004               	movlw	4
  3312  0711                     u1075:	
  3313  0711  36B9               	lsrf	??_main+1,f
  3314  0712  0B89               	decfsz	9,f
  3315  0713  2F11               	goto	u1075
  3316  0714  0839               	movf	??_main+1,w
  3317  0715  3182  2280  3186   	fcall	___bmul
  3318  0718  0020               	movlb	0	; select bank0
  3319  0719  00BA               	movwf	??_main+2
  3320  071A  083A               	movf	??_main+2,w
  3321  071B  00D8               	movwf	main@min2
  3322                           
  3323                           ;Main.c: 161: min2 += (min1 & 15);
  3324  071C  0855               	movf	main@min1,w
  3325  071D  390F               	andlw	15
  3326  071E  00B8               	movwf	??_main
  3327  071F  0838               	movf	??_main,w
  3328  0720  07D8               	addwf	main@min2,f
  3329                           
  3330                           ;Main.c: 164: sec2 = (sec1 >> 4) * 10;
  3331  0721  300A               	movlw	10
  3332  0722  00B8               	movwf	??_main
  3333  0723  0838               	movf	??_main,w
  3334  0724  00F0               	movwf	___bmul@multiplicand
  3335  0725  0856               	movf	main@sec1,w
  3336  0726  00B9               	movwf	??_main+1
  3337  0727  3004               	movlw	4
  3338  0728                     u1085:	
  3339  0728  36B9               	lsrf	??_main+1,f
  3340  0729  0B89               	decfsz	9,f
  3341  072A  2F28               	goto	u1085
  3342  072B  0839               	movf	??_main+1,w
  3343  072C  3182  2280  3186   	fcall	___bmul
  3344  072F  0020               	movlb	0	; select bank0
  3345  0730  00BA               	movwf	??_main+2
  3346  0731  083A               	movf	??_main+2,w
  3347  0732  00D9               	movwf	main@sec2
  3348                           
  3349                           ;Main.c: 165: sec2 += (sec1 & 15);
  3350  0733  0856               	movf	main@sec1,w
  3351  0734  390F               	andlw	15
  3352  0735  00B8               	movwf	??_main
  3353  0736  0838               	movf	??_main,w
  3354  0737  07D9               	addwf	main@sec2,f
  3355                           
  3356                           ;Main.c: 181: line1[0]=((hr2/10) % 10)+0x30;
  3357  0738  300A               	movlw	10
  3358  0739  00F9               	movwf	___awmod@divisor
  3359  073A  3000               	movlw	0
  3360  073B  00FA               	movwf	___awmod@divisor+1
  3361  073C  300A               	movlw	10
  3362  073D  00F0               	movwf	___awdiv@divisor
  3363  073E  3000               	movlw	0
  3364  073F  00F1               	movwf	___awdiv@divisor+1
  3365  0740  0857               	movf	main@hr2,w
  3366  0741  00B8               	movwf	??_main
  3367  0742  01B9               	clrf	??_main+1
  3368  0743  0838               	movf	??_main,w
  3369  0744  00F2               	movwf	___awdiv@dividend
  3370  0745  0839               	movf	??_main+1,w
  3371  0746  00F3               	movwf	___awdiv@dividend+1
  3372  0747  3183  23F4  3186   	fcall	___awdiv
  3373  074A  0871               	movf	?___awdiv+1,w
  3374  074B  00FC               	movwf	___awmod@dividend+1
  3375  074C  0870               	movf	?___awdiv,w
  3376  074D  00FB               	movwf	___awmod@dividend
  3377  074E  3183  23AE  3186   	fcall	___awmod
  3378  0751  0879               	movf	?___awmod,w
  3379  0752  3E30               	addlw	48
  3380  0753  0020               	movlb	0	; select bank0
  3381  0754  00BA               	movwf	??_main+2
  3382  0755  083A               	movf	??_main+2,w
  3383  0756  00C2               	movwf	main@line1
  3384                           
  3385                           ;Main.c: 182: line1[1]=((hr2) % 10)+0x30;
  3386  0757  300A               	movlw	10
  3387  0758  00F9               	movwf	___awmod@divisor
  3388  0759  3000               	movlw	0
  3389  075A  00FA               	movwf	___awmod@divisor+1
  3390  075B  0857               	movf	main@hr2,w
  3391  075C  00B8               	movwf	??_main
  3392  075D  01B9               	clrf	??_main+1
  3393  075E  0838               	movf	??_main,w
  3394  075F  00FB               	movwf	___awmod@dividend
  3395  0760  0839               	movf	??_main+1,w
  3396  0761  00FC               	movwf	___awmod@dividend+1
  3397  0762  3183  23AE  3186   	fcall	___awmod
  3398  0765  0879               	movf	?___awmod,w
  3399  0766  3E30               	addlw	48
  3400  0767  0020               	movlb	0	; select bank0
  3401  0768  00BA               	movwf	??_main+2
  3402  0769  083A               	movf	??_main+2,w
  3403  076A  00C3               	movwf	main@line1+1
  3404                           
  3405                           ;Main.c: 183: line1[2]=0x3A;
  3406  076B  303A               	movlw	58
  3407  076C  00B8               	movwf	??_main
  3408  076D  0838               	movf	??_main,w
  3409  076E  00C4               	movwf	main@line1+2
  3410                           
  3411                           ;Main.c: 184: line1[3]=((min2/10) % 10)+0x30;
  3412  076F  300A               	movlw	10
  3413  0770  00F9               	movwf	___awmod@divisor
  3414  0771  3000               	movlw	0
  3415  0772  00FA               	movwf	___awmod@divisor+1
  3416  0773  300A               	movlw	10
  3417  0774  00F0               	movwf	___awdiv@divisor
  3418  0775  3000               	movlw	0
  3419  0776  00F1               	movwf	___awdiv@divisor+1
  3420  0777  0858               	movf	main@min2,w
  3421  0778  00B8               	movwf	??_main
  3422  0779  01B9               	clrf	??_main+1
  3423  077A  0838               	movf	??_main,w
  3424  077B  00F2               	movwf	___awdiv@dividend
  3425  077C  0839               	movf	??_main+1,w
  3426  077D  00F3               	movwf	___awdiv@dividend+1
  3427  077E  3183  23F4  3186   	fcall	___awdiv
  3428  0781  0871               	movf	?___awdiv+1,w
  3429  0782  00FC               	movwf	___awmod@dividend+1
  3430  0783  0870               	movf	?___awdiv,w
  3431  0784  00FB               	movwf	___awmod@dividend
  3432  0785  3183  23AE  3186   	fcall	___awmod
  3433  0788  0879               	movf	?___awmod,w
  3434  0789  3E30               	addlw	48
  3435  078A  0020               	movlb	0	; select bank0
  3436  078B  00BA               	movwf	??_main+2
  3437  078C  083A               	movf	??_main+2,w
  3438  078D  00C5               	movwf	main@line1+3
  3439                           
  3440                           ;Main.c: 185: line1[4]=((min2) % 10)+0x30;
  3441  078E  300A               	movlw	10
  3442  078F  00F9               	movwf	___awmod@divisor
  3443  0790  3000               	movlw	0
  3444  0791  00FA               	movwf	___awmod@divisor+1
  3445  0792  0858               	movf	main@min2,w
  3446  0793  00B8               	movwf	??_main
  3447  0794  01B9               	clrf	??_main+1
  3448  0795  0838               	movf	??_main,w
  3449  0796  00FB               	movwf	___awmod@dividend
  3450  0797  0839               	movf	??_main+1,w
  3451  0798  00FC               	movwf	___awmod@dividend+1
  3452  0799  3183  23AE  3186   	fcall	___awmod
  3453  079C  0879               	movf	?___awmod,w
  3454  079D  3E30               	addlw	48
  3455  079E  0020               	movlb	0	; select bank0
  3456  079F  00BA               	movwf	??_main+2
  3457  07A0  083A               	movf	??_main+2,w
  3458  07A1  00C6               	movwf	main@line1+4
  3459                           
  3460                           ;Main.c: 186: line1[5]= 0x3A;
  3461  07A2  303A               	movlw	58
  3462  07A3  00B8               	movwf	??_main
  3463  07A4  0838               	movf	??_main,w
  3464  07A5  00C7               	movwf	main@line1+5
  3465                           
  3466                           ;Main.c: 187: line1[6]=((sec2/10) % 10)+0x30;
  3467  07A6  300A               	movlw	10
  3468  07A7  00F9               	movwf	___awmod@divisor
  3469  07A8  3000               	movlw	0
  3470  07A9  00FA               	movwf	___awmod@divisor+1
  3471  07AA  300A               	movlw	10
  3472  07AB  00F0               	movwf	___awdiv@divisor
  3473  07AC  3000               	movlw	0
  3474  07AD  00F1               	movwf	___awdiv@divisor+1
  3475  07AE  0859               	movf	main@sec2,w
  3476  07AF  00B8               	movwf	??_main
  3477  07B0  01B9               	clrf	??_main+1
  3478  07B1  0838               	movf	??_main,w
  3479  07B2  00F2               	movwf	___awdiv@dividend
  3480  07B3  0839               	movf	??_main+1,w
  3481  07B4  00F3               	movwf	___awdiv@dividend+1
  3482  07B5  3183  23F4  3186   	fcall	___awdiv
  3483  07B8  0871               	movf	?___awdiv+1,w
  3484  07B9  00FC               	movwf	___awmod@dividend+1
  3485  07BA  0870               	movf	?___awdiv,w
  3486  07BB  00FB               	movwf	___awmod@dividend
  3487  07BC  3183  23AE  3186   	fcall	___awmod
  3488  07BF  0879               	movf	?___awmod,w
  3489  07C0  3E30               	addlw	48
  3490  07C1  0020               	movlb	0	; select bank0
  3491  07C2  00BA               	movwf	??_main+2
  3492  07C3  083A               	movf	??_main+2,w
  3493  07C4  00C8               	movwf	main@line1+6
  3494                           
  3495                           ;Main.c: 188: line1[7]=((sec2) % 10)+0x30;
  3496  07C5  300A               	movlw	10
  3497  07C6  00F9               	movwf	___awmod@divisor
  3498  07C7  3000               	movlw	0
  3499  07C8  00FA               	movwf	___awmod@divisor+1
  3500  07C9  0859               	movf	main@sec2,w
  3501  07CA  00B8               	movwf	??_main
  3502  07CB  01B9               	clrf	??_main+1
  3503  07CC  0838               	movf	??_main,w
  3504  07CD  00FB               	movwf	___awmod@dividend
  3505  07CE  0839               	movf	??_main+1,w
  3506  07CF  00FC               	movwf	___awmod@dividend+1
  3507  07D0  3183  23AE  3186   	fcall	___awmod
  3508  07D3  0879               	movf	?___awmod,w
  3509  07D4  3E30               	addlw	48
  3510  07D5  0020               	movlb	0	; select bank0
  3511  07D6  00BA               	movwf	??_main+2
  3512  07D7  083A               	movf	??_main+2,w
  3513  07D8  00C9               	movwf	main@line1+7
  3514                           
  3515                           ;Main.c: 192: OLED_YX(0, 0);
  3516  07D9  01F5               	clrf	OLED_YX@Column
  3517  07DA  3000               	movlw	0
  3518  07DB  3182  22FB  3186   	fcall	_OLED_YX
  3519                           
  3520                           ;Main.c: 193: OLED_Write_String("Time: ");
  3521  07DE  3033               	movlw	low (STR_1| (0+32768))
  3522  07DF  00FC               	movwf	OLED_Write_String@s
  3523  07E0  308B               	movlw	high (STR_1| (0+32768))
  3524  07E1  00FD               	movwf	OLED_Write_String@s+1
  3525  07E2  3182  22A4  3186   	fcall	_OLED_Write_String
  3526                           
  3527                           ;Main.c: 195: OLED_YX(0, 6);
  3528  07E5  3006               	movlw	6
  3529  07E6  0020               	movlb	0	; select bank0
  3530  07E7  00B8               	movwf	??_main
  3531  07E8  0838               	movf	??_main,w
  3532  07E9  00F5               	movwf	OLED_YX@Column
  3533  07EA  3000               	movlw	0
  3534  07EB  3182  22FB  3186   	fcall	_OLED_YX
  3535                           
  3536                           ;Main.c: 196: OLED_Write_String(line1);
  3537  07EE  3042               	movlw	low main@line1
  3538  07EF  00FC               	movwf	OLED_Write_String@s
  3539  07F0  3000               	movlw	high main@line1
  3540  07F1  00FD               	movwf	OLED_Write_String@s+1
  3541  07F2  3182  22A4  3186   	fcall	_OLED_Write_String
  3542  07F5  2E72               	goto	l1507
  3543  07F6                     __end_of_main:	
  3544                           ;Main.c: 197: }
  3545                           ;Main.c: 199: return;
  3546                           
  3547                           
  3548                           	psect	text1
  3549  0323                     __ptext1:	
  3550 ;; *************** function _initMain *****************
  3551 ;; Defined at:
  3552 ;;		line 47 in file "Main.c"
  3553 ;; Parameters:    Size  Location     Type
  3554 ;;		None
  3555 ;; Auto vars:     Size  Location     Type
  3556 ;;		None
  3557 ;; Return value:  Size  Location     Type
  3558 ;;                  1    wreg      void 
  3559 ;; Registers used:
  3560 ;;		wreg, status,2, status,0, pclath, cstack
  3561 ;; Tracked objects:
  3562 ;;		On entry : 0/0
  3563 ;;		On exit  : 0/0
  3564 ;;		Unchanged: 0/0
  3565 ;; Data sizes:     COMMON   BANK0   BANK1   BANK2   BANK3   BANK4   BANK5   BANK6   BANK7   BANK8   BANK9  BANK10  BANK1
      +1  BANK12
  3566 ;;      Params:         0       0       0       0       0       0       0       0       0       0       0       0       
      +0       0
  3567 ;;      Locals:         0       0       0       0       0       0       0       0       0       0       0       0       
      +0       0
  3568 ;;      Temps:          0       0       0       0       0       0       0       0       0       0       0       0       
      +0       0
  3569 ;;      Totals:         0       0       0       0       0       0       0       0       0       0       0       0       
      +0       0
  3570 ;;Total ram usage:        0 bytes
  3571 ;; Hardware stack levels used:    1
  3572 ;; Hardware stack levels required when called:    1
  3573 ;; This function calls:
  3574 ;;		_internal_16
  3575 ;; This function is called by:
  3576 ;;		_main
  3577 ;; This function uses a non-reentrant model
  3578 ;;
  3579                           
  3580                           
  3581                           ;psect for function _initMain
  3582  0323                     _initMain:	
  3583                           
  3584                           ;Main.c: 49: internal_16();
  3585                           
  3586                           ;incstack = 0
  3587                           ; Regs used in _initMain: [wreg+status,2+status,0+pclath+cstack]
  3588  0323  3182  2267  3183   	fcall	_internal_16
  3589                           
  3590                           ;Main.c: 56: ANSELCbits.ANSC4 = 0;
  3591  0326  0023               	movlb	3	; select bank3
  3592  0327  120E               	bcf	14,4	;volatile
  3593                           
  3594                           ;Main.c: 57: ANSELCbits.ANSC5 = 0;
  3595  0328  128E               	bcf	14,5	;volatile
  3596                           
  3597                           ;Main.c: 59: TRISCbits.TRISC4 = 1;
  3598  0329  0021               	movlb	1	; select bank1
  3599  032A  160E               	bsf	14,4	;volatile
  3600                           
  3601                           ;Main.c: 60: TRISCbits.TRISC5 = 1;
  3602  032B  168E               	bsf	14,5	;volatile
  3603                           
  3604                           ;Main.c: 62: PPSLOCK = 0x55;
  3605  032C  3055               	movlw	85
  3606  032D  003C               	movlb	28	; select bank28
  3607  032E  008F               	movwf	15	;volatile
  3608                           
  3609                           ;Main.c: 63: PPSLOCK = 0xAA;
  3610  032F  30AA               	movlw	170
  3611  0330  008F               	movwf	15	;volatile
  3612                           
  3613                           ;Main.c: 64: PPSLOCKbits.PPSLOCKED = 0x00;
  3614  0331  100F               	bcf	15,0	;volatile
  3615                           
  3616                           ;Main.c: 66: RC4PPSbits.RC4PPS = 0x0011;
  3617  0332  003D               	movlb	29	; select bank29
  3618  0333  0824               	movf	36,w	;volatile
  3619  0334  39E0               	andlw	-32
  3620  0335  3811               	iorlw	17
  3621  0336  00A4               	movwf	36	;volatile
  3622                           
  3623                           ;Main.c: 67: SSPDATPPSbits.SSPDATPPS = 0x0014;
  3624  0337  003C               	movlb	28	; select bank28
  3625  0338  0821               	movf	33,w	;volatile
  3626  0339  39E0               	andlw	-32
  3627  033A  3814               	iorlw	20
  3628  033B  00A1               	movwf	33	;volatile
  3629                           
  3630                           ;Main.c: 68: SSPCLKPPSbits.SSPCLKPPS = 0x0015;
  3631  033C  0820               	movf	32,w	;volatile
  3632  033D  39E0               	andlw	-32
  3633  033E  3815               	iorlw	21
  3634  033F  00A0               	movwf	32	;volatile
  3635                           
  3636                           ;Main.c: 69: RC5PPSbits.RC5PPS = 0x0010;
  3637  0340  003D               	movlb	29	; select bank29
  3638  0341  0825               	movf	37,w	;volatile
  3639  0342  39E0               	andlw	-32
  3640  0343  3810               	iorlw	16
  3641  0344  00A5               	movwf	37	;volatile
  3642                           
  3643                           ;Main.c: 71: PPSLOCK = 0x55;
  3644  0345  3055               	movlw	85
  3645  0346  003C               	movlb	28	; select bank28
  3646  0347  008F               	movwf	15	;volatile
  3647                           
  3648                           ;Main.c: 72: PPSLOCK = 0xAA;
  3649  0348  30AA               	movlw	170
  3650  0349  008F               	movwf	15	;volatile
  3651                           
  3652                           ;Main.c: 73: PPSLOCKbits.PPSLOCKED = 0x01;
  3653  034A  140F               	bsf	15,0	;volatile
  3654                           
  3655                           ;Main.c: 76: TRISD = 0;
  3656  034B  0021               	movlb	1	; select bank1
  3657  034C  018F               	clrf	15	;volatile
  3658                           
  3659                           ;Main.c: 77: ANSELD = 0;
  3660  034D  0023               	movlb	3	; select bank3
  3661  034E  018F               	clrf	15	;volatile
  3662  034F  0008               	return
  3663  0350                     __end_of_initMain:	
  3664                           
  3665                           	psect	text2
  3666  0267                     __ptext2:	
  3667 ;; *************** function _internal_16 *****************
  3668 ;; Defined at:
  3669 ;;		line 56 in file "16F1717_Internal.c"
  3670 ;; Parameters:    Size  Location     Type
  3671 ;;		None
  3672 ;; Auto vars:     Size  Location     Type
  3673 ;;		None
  3674 ;; Return value:  Size  Location     Type
  3675 ;;                  1    wreg      void 
  3676 ;; Registers used:
  3677 ;;		None
  3678 ;; Tracked objects:
  3679 ;;		On entry : 0/0
  3680 ;;		On exit  : 0/0
  3681 ;;		Unchanged: 0/0
  3682 ;; Data sizes:     COMMON   BANK0   BANK1   BANK2   BANK3   BANK4   BANK5   BANK6   BANK7   BANK8   BANK9  BANK10  BANK1
      +1  BANK12
  3683 ;;      Params:         0       0       0       0       0       0       0       0       0       0       0       0       
      +0       0
  3684 ;;      Locals:         0       0       0       0       0       0       0       0       0       0       0       0       
      +0       0
  3685 ;;      Temps:          0       0       0       0       0       0       0       0       0       0       0       0       
      +0       0
  3686 ;;      Totals:         0       0       0       0       0       0       0       0       0       0       0       0       
      +0       0
  3687 ;;Total ram usage:        0 bytes
  3688 ;; Hardware stack levels used:    1
  3689 ;; This function calls:
  3690 ;;		Nothing
  3691 ;; This function is called by:
  3692 ;;		_initMain
  3693 ;; This function uses a non-reentrant model
  3694 ;;
  3695                           
  3696                           
  3697                           ;psect for function _internal_16
  3698  0267                     _internal_16:	
  3699                           
  3700                           ;16F1717_Internal.c: 58: SCS0 = 0;
  3701                           
  3702                           ;incstack = 0
  3703                           ; Regs used in _internal_16: []
  3704  0267  0021               	movlb	1	; select bank1
  3705  0268  1019               	bcf	25,0	;volatile
  3706                           
  3707                           ;16F1717_Internal.c: 59: SCS1 = 0;
  3708  0269  1099               	bcf	25,1	;volatile
  3709                           
  3710                           ;16F1717_Internal.c: 62: IRCF0 = 1;
  3711  026A  1599               	bsf	25,3	;volatile
  3712                           
  3713                           ;16F1717_Internal.c: 63: IRCF1 = 1;
  3714  026B  1619               	bsf	25,4	;volatile
  3715                           
  3716                           ;16F1717_Internal.c: 64: IRCF2 = 1;
  3717  026C  1699               	bsf	25,5	;volatile
  3718                           
  3719                           ;16F1717_Internal.c: 65: IRCF3 = 1;
  3720  026D  1719               	bsf	25,6	;volatile
  3721                           
  3722                           ;16F1717_Internal.c: 68: SPLLEN = 0;
  3723  026E  1399               	bcf	25,7	;volatile
  3724  026F  0008               	return
  3725  0270                     __end_of_internal_16:	
  3726                           
  3727                           	psect	text3
  3728  03AE                     __ptext3:	
  3729 ;; *************** function ___awmod *****************
  3730 ;; Defined at:
  3731 ;;		line 6 in file "C:\Program Files (x86)\Microchip\xc8\v1.41\sources\common\awmod.c"
  3732 ;; Parameters:    Size  Location     Type
  3733 ;;  divisor         2    9[COMMON] int 
  3734 ;;  dividend        2   11[COMMON] int 
  3735 ;; Auto vars:     Size  Location     Type
  3736 ;;  sign            1    1[BANK0 ] unsigned char 
  3737 ;;  counter         1    0[BANK0 ] unsigned char 
  3738 ;; Return value:  Size  Location     Type
  3739 ;;                  2    9[COMMON] int 
  3740 ;; Registers used:
  3741 ;;		wreg, status,2, status,0
  3742 ;; Tracked objects:
  3743 ;;		On entry : 0/0
  3744 ;;		On exit  : 0/0
  3745 ;;		Unchanged: 0/0
  3746 ;; Data sizes:     COMMON   BANK0   BANK1   BANK2   BANK3   BANK4   BANK5   BANK6   BANK7   BANK8   BANK9  BANK10  BANK1
      +1  BANK12
  3747 ;;      Params:         4       0       0       0       0       0       0       0       0       0       0       0       
      +0       0
  3748 ;;      Locals:         0       2       0       0       0       0       0       0       0       0       0       0       
      +0       0
  3749 ;;      Temps:          1       0       0       0       0       0       0       0       0       0       0       0       
      +0       0
  3750 ;;      Totals:         5       2       0       0       0       0       0       0       0       0       0       0       
      +0       0
  3751 ;;Total ram usage:        7 bytes
  3752 ;; Hardware stack levels used:    1
  3753 ;; This function calls:
  3754 ;;		Nothing
  3755 ;; This function is called by:
  3756 ;;		_main
  3757 ;; This function uses a non-reentrant model
  3758 ;;
  3759                           
  3760                           
  3761                           ;psect for function ___awmod
  3762  03AE                     ___awmod:	
  3763                           
  3764                           ;incstack = 0
  3765                           ; Regs used in ___awmod: [wreg+status,2+status,0]
  3766  03AE  0020               	movlb	0	; select bank0
  3767  03AF  01A1               	clrf	___awmod@sign
  3768  03B0  1FFC               	btfss	___awmod@dividend+1,7
  3769  03B1  2BB9               	goto	l1451
  3770  03B2  09FB               	comf	___awmod@dividend,f
  3771  03B3  09FC               	comf	___awmod@dividend+1,f
  3772  03B4  0AFB               	incf	___awmod@dividend,f
  3773  03B5  1903               	skipnz
  3774  03B6  0AFC               	incf	___awmod@dividend+1,f
  3775  03B7  01A1               	clrf	___awmod@sign
  3776  03B8  0AA1               	incf	___awmod@sign,f
  3777  03B9                     l1451:	
  3778  03B9  1FFA               	btfss	___awmod@divisor+1,7
  3779  03BA  2BC0               	goto	l1455
  3780  03BB  09F9               	comf	___awmod@divisor,f
  3781  03BC  09FA               	comf	___awmod@divisor+1,f
  3782  03BD  0AF9               	incf	___awmod@divisor,f
  3783  03BE  1903               	skipnz
  3784  03BF  0AFA               	incf	___awmod@divisor+1,f
  3785  03C0                     l1455:	
  3786  03C0  0879               	movf	___awmod@divisor,w
  3787  03C1  047A               	iorwf	___awmod@divisor+1,w
  3788  03C2  1903               	btfsc	3,2
  3789  03C3  2BE7               	goto	l1473
  3790  03C4  01A0               	clrf	___awmod@counter
  3791  03C5  0AA0               	incf	___awmod@counter,f
  3792  03C6                     l1463:	
  3793  03C6  1BFA               	btfsc	___awmod@divisor+1,7
  3794  03C7  2BD2               	goto	l1465
  3795  03C8  3001               	movlw	1
  3796  03C9                     u975:	
  3797  03C9  35F9               	lslf	___awmod@divisor,f
  3798  03CA  0DFA               	rlf	___awmod@divisor+1,f
  3799  03CB  0B89               	decfsz	9,f
  3800  03CC  2BC9               	goto	u975
  3801  03CD  3001               	movlw	1
  3802  03CE  00FD               	movwf	??___awmod
  3803  03CF  087D               	movf	??___awmod,w
  3804  03D0  07A0               	addwf	___awmod@counter,f
  3805  03D1  2BC6               	goto	l1463
  3806  03D2                     l1465:	
  3807  03D2  087A               	movf	___awmod@divisor+1,w
  3808  03D3  027C               	subwf	___awmod@dividend+1,w
  3809  03D4  1D03               	skipz
  3810  03D5  2BD8               	goto	u995
  3811  03D6  0879               	movf	___awmod@divisor,w
  3812  03D7  027B               	subwf	___awmod@dividend,w
  3813  03D8                     u995:	
  3814  03D8  1C03               	skipc
  3815  03D9  2BDE               	goto	l1469
  3816  03DA  0879               	movf	___awmod@divisor,w
  3817  03DB  02FB               	subwf	___awmod@dividend,f
  3818  03DC  087A               	movf	___awmod@divisor+1,w
  3819  03DD  3BFC               	subwfb	___awmod@dividend+1,f
  3820  03DE                     l1469:	
  3821  03DE  3001               	movlw	1
  3822  03DF                     u1005:	
  3823  03DF  36FA               	lsrf	___awmod@divisor+1,f
  3824  03E0  0CF9               	rrf	___awmod@divisor,f
  3825  03E1  0B89               	decfsz	9,f
  3826  03E2  2BDF               	goto	u1005
  3827  03E3  3001               	movlw	1
  3828  03E4  02A0               	subwf	___awmod@counter,f
  3829  03E5  1D03               	btfss	3,2
  3830  03E6  2BD2               	goto	l1465
  3831  03E7                     l1473:	
  3832  03E7  0821               	movf	___awmod@sign,w
  3833  03E8  1903               	btfsc	3,2
  3834  03E9  2BEF               	goto	l1477
  3835  03EA  09FB               	comf	___awmod@dividend,f
  3836  03EB  09FC               	comf	___awmod@dividend+1,f
  3837  03EC  0AFB               	incf	___awmod@dividend,f
  3838  03ED  1903               	skipnz
  3839  03EE  0AFC               	incf	___awmod@dividend+1,f
  3840  03EF                     l1477:	
  3841  03EF  087C               	movf	___awmod@dividend+1,w
  3842  03F0  00FA               	movwf	?___awmod+1
  3843  03F1  087B               	movf	___awmod@dividend,w
  3844  03F2  00F9               	movwf	?___awmod
  3845  03F3  0008               	return
  3846  03F4                     __end_of___awmod:	
  3847                           
  3848                           	psect	text4
  3849  02A4                     __ptext4:	
  3850 ;; *************** function _OLED_Write_String *****************
  3851 ;; Defined at:
  3852 ;;		line 284 in file "oled.c"
  3853 ;; Parameters:    Size  Location     Type
  3854 ;;  s               2   12[COMMON] PTR unsigned char 
  3855 ;;		 -> ftoa@buf(17), STR_3(6), STR_2(6), OLED_Write_Integer@s(20), 
  3856 ;;		 -> STR_1(7), main@line1(8), 
  3857 ;; Auto vars:     Size  Location     Type
  3858 ;;		None
  3859 ;; Return value:  Size  Location     Type
  3860 ;;                  1    wreg      void 
  3861 ;; Registers used:
  3862 ;;		wreg, fsr0l, fsr0h, fsr1l, fsr1h, status,2, status,0, pclath, cstack
  3863 ;; Tracked objects:
  3864 ;;		On entry : 0/0
  3865 ;;		On exit  : 0/0
  3866 ;;		Unchanged: 0/0
  3867 ;; Data sizes:     COMMON   BANK0   BANK1   BANK2   BANK3   BANK4   BANK5   BANK6   BANK7   BANK8   BANK9  BANK10  BANK1
      +1  BANK12
  3868 ;;      Params:         2       0       0       0       0       0       0       0       0       0       0       0       
      +0       0
  3869 ;;      Locals:         0       0       0       0       0       0       0       0       0       0       0       0       
      +0       0
  3870 ;;      Temps:          0       1       0       0       0       0       0       0       0       0       0       0       
      +0       0
  3871 ;;      Totals:         2       1       0       0       0       0       0       0       0       0       0       0       
      +0       0
  3872 ;;Total ram usage:        3 bytes
  3873 ;; Hardware stack levels used:    1
  3874 ;; Hardware stack levels required when called:    2
  3875 ;; This function calls:
  3876 ;;		_OLED_PutChar
  3877 ;; This function is called by:
  3878 ;;		_main
  3879 ;;		_OLED_Write_Integer
  3880 ;;		_OLED_Write_Float
  3881 ;; This function uses a non-reentrant model
  3882 ;;
  3883                           
  3884                           
  3885                           ;psect for function _OLED_Write_String
  3886  02A4                     _OLED_Write_String:	
  3887  02A4                     l1441:	
  3888                           ;oled.c: 286: while (*s) OLED_PutChar( *s++);
  3889                           
  3890                           ;incstack = 0
  3891                           ; Regs used in _OLED_Write_String: [wreg-fsr1h+status,2+status,0+pclath+cstack]
  3892                           
  3893  02A4  087C               	movf	OLED_Write_String@s,w
  3894  02A5  0084               	movwf	4
  3895  02A6  087D               	movf	OLED_Write_String@s+1,w
  3896  02A7  0085               	movwf	5
  3897  02A8  0012               	moviw fsr0++
  3898  02A9  1903               	btfsc	3,2
  3899  02AA  0008               	return
  3900  02AB  087C               	movf	OLED_Write_String@s,w
  3901  02AC  0084               	movwf	4
  3902  02AD  087D               	movf	OLED_Write_String@s+1,w
  3903  02AE  0085               	movwf	5
  3904  02AF  0800               	movf	0,w	;code access
  3905  02B0  3185  250E  3182   	fcall	_OLED_PutChar
  3906  02B3  3001               	movlw	1
  3907  02B4  07FC               	addwf	OLED_Write_String@s,f
  3908  02B5  3000               	movlw	0
  3909  02B6  3DFD               	addwfc	OLED_Write_String@s+1,f
  3910  02B7  2AA4               	goto	l1441
  3911  02B8                     __end_of_OLED_Write_String:	
  3912                           
  3913                           	psect	text5
  3914  0445                     __ptext5:	
  3915 ;; *************** function _OLED_Init *****************
  3916 ;; Defined at:
  3917 ;;		line 174 in file "oled.c"
  3918 ;; Parameters:    Size  Location     Type
  3919 ;;		None
  3920 ;; Auto vars:     Size  Location     Type
  3921 ;;		None
  3922 ;; Return value:  Size  Location     Type
  3923 ;;                  1    wreg      void 
  3924 ;; Registers used:
  3925 ;;		wreg, status,2, status,0, pclath, cstack
  3926 ;; Tracked objects:
  3927 ;;		On entry : 0/0
  3928 ;;		On exit  : 0/0
  3929 ;;		Unchanged: 0/0
  3930 ;; Data sizes:     COMMON   BANK0   BANK1   BANK2   BANK3   BANK4   BANK5   BANK6   BANK7   BANK8   BANK9  BANK10  BANK1
      +1  BANK12
  3931 ;;      Params:         0       0       0       0       0       0       0       0       0       0       0       0       
      +0       0
  3932 ;;      Locals:         0       0       0       0       0       0       0       0       0       0       0       0       
      +0       0
  3933 ;;      Temps:          0       0       0       0       0       0       0       0       0       0       0       0       
      +0       0
  3934 ;;      Totals:         0       0       0       0       0       0       0       0       0       0       0       0       
      +0       0
  3935 ;;Total ram usage:        0 bytes
  3936 ;; Hardware stack levels used:    1
  3937 ;; Hardware stack levels required when called:    2
  3938 ;; This function calls:
  3939 ;;		_OLED_Command
  3940 ;; This function is called by:
  3941 ;;		_main
  3942 ;; This function uses a non-reentrant model
  3943 ;;
  3944                           
  3945                           
  3946                           ;psect for function _OLED_Init
  3947  0445                     _OLED_Init:	
  3948                           
  3949                           ;oled.c: 176: OLED_Command(0xAE);
  3950                           
  3951                           ;incstack = 0
  3952                           ; Regs used in _OLED_Init: [wreg+status,2+status,0+pclath+cstack]
  3953  0445  30AE               	movlw	174
  3954  0446  3182  22B8  3184   	fcall	_OLED_Command
  3955                           
  3956                           ;oled.c: 177: OLED_Command(0xD5);
  3957  0449  30D5               	movlw	213
  3958  044A  3182  22B8  3184   	fcall	_OLED_Command
  3959                           
  3960                           ;oled.c: 178: OLED_Command(0x80);
  3961  044D  3080               	movlw	128
  3962  044E  3182  22B8  3184   	fcall	_OLED_Command
  3963                           
  3964                           ;oled.c: 179: OLED_Command(0xA8);
  3965  0451  30A8               	movlw	168
  3966  0452  3182  22B8  3184   	fcall	_OLED_Command
  3967                           
  3968                           ;oled.c: 180: OLED_Command(0x1F);
  3969  0455  301F               	movlw	31
  3970  0456  3182  22B8  3184   	fcall	_OLED_Command
  3971                           
  3972                           ;oled.c: 181: OLED_Command(0xD3);
  3973  0459  30D3               	movlw	211
  3974  045A  3182  22B8  3184   	fcall	_OLED_Command
  3975                           
  3976                           ;oled.c: 182: OLED_Command(0x0);
  3977  045D  3000               	movlw	0
  3978  045E  3182  22B8  3184   	fcall	_OLED_Command
  3979                           
  3980                           ;oled.c: 183: OLED_Command(0x40 | 0x0);
  3981  0461  3040               	movlw	64
  3982  0462  3182  22B8  3184   	fcall	_OLED_Command
  3983                           
  3984                           ;oled.c: 184: OLED_Command(0x8D);
  3985  0465  308D               	movlw	141
  3986  0466  3182  22B8  3184   	fcall	_OLED_Command
  3987                           
  3988                           ;oled.c: 185: OLED_Command(0xAF);
  3989  0469  30AF               	movlw	175
  3990  046A  3182  22B8  3184   	fcall	_OLED_Command
  3991                           
  3992                           ;oled.c: 186: OLED_Command(0x20);
  3993  046D  3020               	movlw	32
  3994  046E  3182  22B8  3184   	fcall	_OLED_Command
  3995                           
  3996                           ;oled.c: 187: OLED_Command(0x00);
  3997  0471  3000               	movlw	0
  3998  0472  3182  22B8  3184   	fcall	_OLED_Command
  3999                           
  4000                           ;oled.c: 188: OLED_Command(0xA0 | 0x1);
  4001  0475  30A1               	movlw	161
  4002  0476  3182  22B8  3184   	fcall	_OLED_Command
  4003                           
  4004                           ;oled.c: 189: OLED_Command(0xC8);
  4005  0479  30C8               	movlw	200
  4006  047A  3182  22B8  3184   	fcall	_OLED_Command
  4007                           
  4008                           ;oled.c: 190: OLED_Command(0xDA);
  4009  047D  30DA               	movlw	218
  4010  047E  3182  22B8  3184   	fcall	_OLED_Command
  4011                           
  4012                           ;oled.c: 191: OLED_Command(0x02);
  4013  0481  3002               	movlw	2
  4014  0482  3182  22B8  3184   	fcall	_OLED_Command
  4015                           
  4016                           ;oled.c: 192: OLED_Command(0x81);
  4017  0485  3081               	movlw	129
  4018  0486  3182  22B8  3184   	fcall	_OLED_Command
  4019                           
  4020                           ;oled.c: 193: OLED_Command(0x8F);
  4021  0489  308F               	movlw	143
  4022  048A  3182  22B8  3184   	fcall	_OLED_Command
  4023                           
  4024                           ;oled.c: 194: OLED_Command(0xD9);
  4025  048D  30D9               	movlw	217
  4026  048E  3182  22B8  3184   	fcall	_OLED_Command
  4027                           
  4028                           ;oled.c: 195: OLED_Command(0xF1);
  4029  0491  30F1               	movlw	241
  4030  0492  3182  22B8  3184   	fcall	_OLED_Command
  4031                           
  4032                           ;oled.c: 196: OLED_Command(0xDB);
  4033  0495  30DB               	movlw	219
  4034  0496  3182  22B8  3184   	fcall	_OLED_Command
  4035                           
  4036                           ;oled.c: 197: OLED_Command(0x40);
  4037  0499  3040               	movlw	64
  4038  049A  3182  22B8  3184   	fcall	_OLED_Command
  4039                           
  4040                           ;oled.c: 198: OLED_Command(0xA4);
  4041  049D  30A4               	movlw	164
  4042  049E  3182  22B8  3184   	fcall	_OLED_Command
  4043                           
  4044                           ;oled.c: 199: OLED_Command(0xA6);
  4045  04A1  30A6               	movlw	166
  4046  04A2  3182  22B8  3184   	fcall	_OLED_Command
  4047                           
  4048                           ;oled.c: 200: OLED_Command(0xAF);
  4049  04A5  30AF               	movlw	175
  4050  04A6  3182  22B8         	fcall	_OLED_Command
  4051  04A8  0008               	return
  4052  04A9                     __end_of_OLED_Init:	
  4053                           
  4054                           	psect	text6
  4055  037E                     __ptext6:	
  4056 ;; *************** function _OLED_Clear *****************
  4057 ;; Defined at:
  4058 ;;		line 264 in file "oled.c"
  4059 ;; Parameters:    Size  Location     Type
  4060 ;;		None
  4061 ;; Auto vars:     Size  Location     Type
  4062 ;;  col             2   22[BANK0 ] unsigned int 
  4063 ;;  row             2   20[BANK0 ] unsigned int 
  4064 ;; Return value:  Size  Location     Type
  4065 ;;                  1    wreg      void 
  4066 ;; Registers used:
  4067 ;;		wreg, fsr0l, fsr0h, fsr1l, fsr1h, status,2, status,0, pclath, cstack
  4068 ;; Tracked objects:
  4069 ;;		On entry : 0/0
  4070 ;;		On exit  : 0/0
  4071 ;;		Unchanged: 0/0
  4072 ;; Data sizes:     COMMON   BANK0   BANK1   BANK2   BANK3   BANK4   BANK5   BANK6   BANK7   BANK8   BANK9  BANK10  BANK1
      +1  BANK12
  4073 ;;      Params:         0       0       0       0       0       0       0       0       0       0       0       0       
      +0       0
  4074 ;;      Locals:         0       4       0       0       0       0       0       0       0       0       0       0       
      +0       0
  4075 ;;      Temps:          1       0       0       0       0       0       0       0       0       0       0       0       
      +0       0
  4076 ;;      Totals:         1       4       0       0       0       0       0       0       0       0       0       0       
      +0       0
  4077 ;;Total ram usage:        5 bytes
  4078 ;; Hardware stack levels used:    1
  4079 ;; Hardware stack levels required when called:    3
  4080 ;; This function calls:
  4081 ;;		_OLED_PutChar
  4082 ;;		_OLED_YX
  4083 ;; This function is called by:
  4084 ;;		_main
  4085 ;; This function uses a non-reentrant model
  4086 ;;
  4087                           
  4088                           
  4089                           ;psect for function _OLED_Clear
  4090  037E                     _OLED_Clear:	
  4091                           
  4092                           ;oled.c: 266: for ( uint16_t row = 0; row < 8; row++ ) {
  4093                           
  4094                           ;incstack = 0
  4095                           ; Regs used in _OLED_Clear: [wreg-fsr1h+status,2+status,0+pclath+cstack]
  4096  037E  0020               	movlb	0	; select bank0
  4097  037F  01B4               	clrf	OLED_Clear@row
  4098  0380  01B5               	clrf	OLED_Clear@row+1
  4099  0381                     L1:	
  4100  0381  3000               	movlw	0
  4101  0382  0235               	subwf	OLED_Clear@row+1,w
  4102  0383  3008               	movlw	8
  4103  0384  1903               	skipnz
  4104  0385  0234               	subwf	OLED_Clear@row,w
  4105  0386  1803               	btfsc	3,0
  4106  0387  0008               	return
  4107                           
  4108                           ;oled.c: 267: for ( uint16_t col = 0; col < 16; col++ ) {
  4109  0388  01B6               	clrf	OLED_Clear@col
  4110  0389  01B7               	clrf	OLED_Clear@col+1
  4111  038A  3000               	movlw	0
  4112  038B  0237               	subwf	OLED_Clear@col+1,w
  4113  038C  3010               	movlw	16
  4114  038D  1903               	skipnz
  4115  038E  0236               	subwf	OLED_Clear@col,w
  4116  038F  1803               	btfsc	3,0
  4117  0390  2BA9               	goto	l1377
  4118  0391                     l1369:	
  4119                           
  4120                           ;oled.c: 268: OLED_YX( row, col );
  4121  0391  0836               	movf	OLED_Clear@col,w
  4122  0392  00FC               	movwf	??_OLED_Clear
  4123  0393  087C               	movf	??_OLED_Clear,w
  4124  0394  00F5               	movwf	OLED_YX@Column
  4125  0395  0834               	movf	OLED_Clear@row,w
  4126  0396  3182  22FB  3183   	fcall	_OLED_YX
  4127                           
  4128                           ;oled.c: 269: OLED_PutChar(' ');
  4129  0399  3020               	movlw	32
  4130  039A  3185  250E  3183   	fcall	_OLED_PutChar
  4131  039D  3001               	movlw	1
  4132  039E  0020               	movlb	0	; select bank0
  4133  039F  07B6               	addwf	OLED_Clear@col,f
  4134  03A0  3000               	movlw	0
  4135  03A1  3DB7               	addwfc	OLED_Clear@col+1,f
  4136  03A2  3000               	movlw	0
  4137  03A3  0237               	subwf	OLED_Clear@col+1,w
  4138  03A4  3010               	movlw	16
  4139  03A5  1903               	skipnz
  4140  03A6  0236               	subwf	OLED_Clear@col,w
  4141  03A7  1C03               	skipc
  4142  03A8  2B91               	goto	l1369
  4143  03A9                     l1377:	
  4144  03A9  3001               	movlw	1
  4145  03AA  07B4               	addwf	OLED_Clear@row,f
  4146  03AB  3000               	movlw	0
  4147  03AC  3DB5               	addwfc	OLED_Clear@row+1,f
  4148  03AD  2B81               	goto	L1
  4149  03AE                     __end_of_OLED_Clear:	
  4150                           
  4151                           	psect	text7
  4152  02FB                     __ptext7:	
  4153 ;; *************** function _OLED_YX *****************
  4154 ;; Defined at:
  4155 ;;		line 213 in file "oled.c"
  4156 ;; Parameters:    Size  Location     Type
  4157 ;;  Row             1    wreg     unsigned char 
  4158 ;;  Column          1    5[COMMON] unsigned char 
  4159 ;; Auto vars:     Size  Location     Type
  4160 ;;  Row             1    9[COMMON] unsigned char 
  4161 ;; Return value:  Size  Location     Type
  4162 ;;                  1    wreg      void 
  4163 ;; Registers used:
  4164 ;;		wreg, status,2, status,0, pclath, cstack
  4165 ;; Tracked objects:
  4166 ;;		On entry : 0/0
  4167 ;;		On exit  : 0/0
  4168 ;;		Unchanged: 0/0
  4169 ;; Data sizes:     COMMON   BANK0   BANK1   BANK2   BANK3   BANK4   BANK5   BANK6   BANK7   BANK8   BANK9  BANK10  BANK1
      +1  BANK12
  4170 ;;      Params:         1       0       0       0       0       0       0       0       0       0       0       0       
      +0       0
  4171 ;;      Locals:         1       0       0       0       0       0       0       0       0       0       0       0       
      +0       0
  4172 ;;      Temps:          3       0       0       0       0       0       0       0       0       0       0       0       
      +0       0
  4173 ;;      Totals:         5       0       0       0       0       0       0       0       0       0       0       0       
      +0       0
  4174 ;;Total ram usage:        5 bytes
  4175 ;; Hardware stack levels used:    1
  4176 ;; Hardware stack levels required when called:    2
  4177 ;; This function calls:
  4178 ;;		_OLED_Command
  4179 ;; This function is called by:
  4180 ;;		_main
  4181 ;;		_OLED_Clear
  4182 ;; This function uses a non-reentrant model
  4183 ;;
  4184                           
  4185                           
  4186                           ;psect for function _OLED_YX
  4187  02FB                     _OLED_YX:	
  4188                           
  4189                           ;incstack = 0
  4190                           ; Regs used in _OLED_YX: [wreg+status,2+status,0+pclath+cstack]
  4191                           ;OLED_YX@Row stored from wreg
  4192  02FB  00F9               	movwf	OLED_YX@Row
  4193                           
  4194                           ;oled.c: 215: OLED_Command( 0xB0 + Row);
  4195  02FC  0879               	movf	OLED_YX@Row,w
  4196  02FD  3EB0               	addlw	176
  4197  02FE  3182  22B8  3182   	fcall	_OLED_Command
  4198                           
  4199                           ;oled.c: 216: OLED_Command( 0x00 + (8*Column & 0x0F) );
  4200  0301  0875               	movf	OLED_YX@Column,w
  4201  0302  00F6               	movwf	??_OLED_YX
  4202  0303  3002               	movlw	2
  4203  0304                     u805:	
  4204  0304  35F6               	lslf	??_OLED_YX,f
  4205  0305  3EFF               	addlw	-1
  4206  0306  1D03               	skipz
  4207  0307  2B04               	goto	u805
  4208  0308  3576               	lslf	??_OLED_YX,w
  4209  0309  390F               	andlw	15
  4210  030A  3182  22B8  3182   	fcall	_OLED_Command
  4211                           
  4212                           ;oled.c: 217: OLED_Command( 0x10 + ((8*Column>>4)&0x0F) );
  4213  030D  0875               	movf	OLED_YX@Column,w
  4214  030E  00F6               	movwf	??_OLED_YX
  4215  030F  01F7               	clrf	??_OLED_YX+1
  4216  0310  35F6               	lslf	??_OLED_YX,f
  4217  0311  0DF7               	rlf	??_OLED_YX+1,f
  4218  0312  35F6               	lslf	??_OLED_YX,f
  4219  0313  0DF7               	rlf	??_OLED_YX+1,f
  4220  0314  35F6               	lslf	??_OLED_YX,f
  4221  0315  0DF7               	rlf	??_OLED_YX+1,f
  4222  0316  3004               	movlw	4
  4223  0317  00F8               	movwf	??_OLED_YX+2
  4224  0318                     u815:	
  4225  0318  0D77               	rlf	??_OLED_YX+1,w
  4226  0319  0CF7               	rrf	??_OLED_YX+1,f
  4227  031A  0CF6               	rrf	??_OLED_YX,f
  4228  031B  0BF8               	decfsz	??_OLED_YX+2,f
  4229  031C  2B18               	goto	u815
  4230  031D  0876               	movf	??_OLED_YX,w
  4231  031E  390F               	andlw	15
  4232  031F  3E10               	addlw	16
  4233  0320  3182  22B8         	fcall	_OLED_Command
  4234  0322  0008               	return
  4235  0323                     __end_of_OLED_YX:	
  4236                           
  4237                           	psect	text8
  4238  02B8                     __ptext8:	
  4239 ;; *************** function _OLED_Command *****************
  4240 ;; Defined at:
  4241 ;;		line 138 in file "oled.c"
  4242 ;; Parameters:    Size  Location     Type
  4243 ;;  temp            1    wreg     unsigned char 
  4244 ;; Auto vars:     Size  Location     Type
  4245 ;;  temp            1    4[COMMON] unsigned char 
  4246 ;; Return value:  Size  Location     Type
  4247 ;;                  1    wreg      void 
  4248 ;; Registers used:
  4249 ;;		wreg, status,2, status,0, pclath, cstack
  4250 ;; Tracked objects:
  4251 ;;		On entry : 0/0
  4252 ;;		On exit  : 0/0
  4253 ;;		Unchanged: 0/0
  4254 ;; Data sizes:     COMMON   BANK0   BANK1   BANK2   BANK3   BANK4   BANK5   BANK6   BANK7   BANK8   BANK9  BANK10  BANK1
      +1  BANK12
  4255 ;;      Params:         0       0       0       0       0       0       0       0       0       0       0       0       
      +0       0
  4256 ;;      Locals:         1       0       0       0       0       0       0       0       0       0       0       0       
      +0       0
  4257 ;;      Temps:          2       0       0       0       0       0       0       0       0       0       0       0       
      +0       0
  4258 ;;      Totals:         3       0       0       0       0       0       0       0       0       0       0       0       
      +0       0
  4259 ;;Total ram usage:        3 bytes
  4260 ;; Hardware stack levels used:    1
  4261 ;; Hardware stack levels required when called:    1
  4262 ;; This function calls:
  4263 ;;		_Send_I2C_Data
  4264 ;;		_Send_I2C_StartBit
  4265 ;;		_Send_I2C_StopBit
  4266 ;; This function is called by:
  4267 ;;		_OLED_Init
  4268 ;;		_OLED_YX
  4269 ;; This function uses a non-reentrant model
  4270 ;;
  4271                           
  4272                           
  4273                           ;psect for function _OLED_Command
  4274  02B8                     _OLED_Command:	
  4275                           
  4276                           ;incstack = 0
  4277                           ; Regs used in _OLED_Command: [wreg+status,2+status,0+pclath+cstack]
  4278                           ;OLED_Command@temp stored from wreg
  4279  02B8  00F4               	movwf	OLED_Command@temp
  4280                           
  4281                           ;oled.c: 140: Send_I2C_StartBit();
  4282  02B9  3182  224E  3182   	fcall	_Send_I2C_StartBit
  4283                           
  4284                           ;oled.c: 141: Send_I2C_Data(0x3C << 1);
  4285  02BC  3078               	movlw	120
  4286  02BD  00F0               	movwf	Send_I2C_Data@databyte
  4287  02BE  3000               	movlw	0
  4288  02BF  00F1               	movwf	Send_I2C_Data@databyte+1
  4289  02C0  3182  225E  3182   	fcall	_Send_I2C_Data
  4290                           
  4291                           ;oled.c: 142: Send_I2C_Data(0x00);
  4292  02C3  3000               	movlw	0
  4293  02C4  00F0               	movwf	Send_I2C_Data@databyte
  4294  02C5  00F1               	movwf	Send_I2C_Data@databyte+1
  4295  02C6  3182  225E  3182   	fcall	_Send_I2C_Data
  4296                           
  4297                           ;oled.c: 143: Send_I2C_Data(temp);
  4298  02C9  0874               	movf	OLED_Command@temp,w
  4299  02CA  00F2               	movwf	??_OLED_Command
  4300  02CB  01F3               	clrf	??_OLED_Command+1
  4301  02CC  0872               	movf	??_OLED_Command,w
  4302  02CD  00F0               	movwf	Send_I2C_Data@databyte
  4303  02CE  0873               	movf	??_OLED_Command+1,w
  4304  02CF  00F1               	movwf	Send_I2C_Data@databyte+1
  4305  02D0  3182  225E  3182   	fcall	_Send_I2C_Data
  4306                           
  4307                           ;oled.c: 144: Send_I2C_StopBit();
  4308  02D3  3182  2256         	fcall	_Send_I2C_StopBit
  4309  02D5  0008               	return
  4310  02D6                     __end_of_OLED_Command:	
  4311                           
  4312                           	psect	text9
  4313  050E                     __ptext9:	
  4314 ;; *************** function _OLED_PutChar *****************
  4315 ;; Defined at:
  4316 ;;		line 229 in file "oled.c"
  4317 ;; Parameters:    Size  Location     Type
  4318 ;;  ch              1    wreg     unsigned char 
  4319 ;; Auto vars:     Size  Location     Type
  4320 ;;  ch              1   19[BANK0 ] unsigned char 
  4321 ;;  bytes           9    6[BANK0 ] unsigned char [9]
  4322 ;;  i               2   17[BANK0 ] int 
  4323 ;;  base            2   15[BANK0 ] PTR const unsigned char 
  4324 ;;		 -> OledFont(768), 
  4325 ;; Return value:  Size  Location     Type
  4326 ;;                  1    wreg      void 
  4327 ;; Registers used:
  4328 ;;		wreg, fsr0l, fsr0h, fsr1l, fsr1h, status,2, status,0, pclath, cstack
  4329 ;; Tracked objects:
  4330 ;;		On entry : 0/0
  4331 ;;		On exit  : 0/0
  4332 ;;		Unchanged: 0/0
  4333 ;; Data sizes:     COMMON   BANK0   BANK1   BANK2   BANK3   BANK4   BANK5   BANK6   BANK7   BANK8   BANK9  BANK10  BANK1
      +1  BANK12
  4334 ;;      Params:         0       0       0       0       0       0       0       0       0       0       0       0       
      +0       0
  4335 ;;      Locals:         0      14       0       0       0       0       0       0       0       0       0       0       
      +0       0
  4336 ;;      Temps:          0       6       0       0       0       0       0       0       0       0       0       0       
      +0       0
  4337 ;;      Totals:         0      20       0       0       0       0       0       0       0       0       0       0       
      +0       0
  4338 ;;Total ram usage:       20 bytes
  4339 ;; Hardware stack levels used:    1
  4340 ;; Hardware stack levels required when called:    1
  4341 ;; This function calls:
  4342 ;;		_Send_I2C_Data
  4343 ;;		_Send_I2C_StartBit
  4344 ;;		_Send_I2C_StopBit
  4345 ;;		_memmove
  4346 ;; This function is called by:
  4347 ;;		_OLED_Clear
  4348 ;;		_OLED_Write_String
  4349 ;; This function uses a non-reentrant model
  4350 ;;
  4351                           
  4352                           
  4353                           ;psect for function _OLED_PutChar
  4354  050E                     _OLED_PutChar:	
  4355                           
  4356                           ;incstack = 0
  4357                           ; Regs used in _OLED_PutChar: [wreg-fsr1h+status,2+status,0+pclath+cstack]
  4358                           ;OLED_PutChar@ch stored from wreg
  4359  050E  0020               	movlb	0	; select bank0
  4360  050F  00B3               	movwf	OLED_PutChar@ch
  4361                           
  4362                           ;oled.c: 231: if ( ( ch < 32 ) || ( ch > 127 ) ){
  4363  0510  3020               	movlw	32
  4364  0511  0233               	subwf	OLED_PutChar@ch,w
  4365  0512  1C03               	skipc
  4366  0513  2D18               	goto	l1279
  4367  0514  3080               	movlw	128
  4368  0515  0233               	subwf	OLED_PutChar@ch,w
  4369  0516  1C03               	skipc
  4370  0517  2D1C               	goto	l1281
  4371  0518                     l1279:	
  4372                           
  4373                           ;oled.c: 232: ch = ' ';
  4374  0518  3020               	movlw	32
  4375  0519  00A0               	movwf	??_OLED_PutChar
  4376  051A  0820               	movf	??_OLED_PutChar,w
  4377  051B  00B3               	movwf	OLED_PutChar@ch
  4378  051C                     l1281:	
  4379                           
  4380                           ;oled.c: 233: }
  4381                           ;oled.c: 235: const uint8_t *base = &OledFont[ch - 32][0];
  4382  051C  0833               	movf	OLED_PutChar@ch,w
  4383  051D  00A0               	movwf	??_OLED_PutChar
  4384  051E  01A1               	clrf	??_OLED_PutChar+1
  4385  051F  35A0               	lslf	??_OLED_PutChar,f
  4386  0520  0DA1               	rlf	??_OLED_PutChar+1,f
  4387  0521  35A0               	lslf	??_OLED_PutChar,f
  4388  0522  0DA1               	rlf	??_OLED_PutChar+1,f
  4389  0523  35A0               	lslf	??_OLED_PutChar,f
  4390  0524  0DA1               	rlf	??_OLED_PutChar+1,f
  4391  0525  0820               	movf	??_OLED_PutChar,w
  4392  0526  3E00               	addlw	0
  4393  0527  00A2               	movwf	??_OLED_PutChar+2
  4394  0528  30FF               	movlw	255
  4395  0529  3D21               	addwfc	??_OLED_PutChar+1,w
  4396  052A  00A3               	movwf	??_OLED_PutChar+3
  4397  052B  3028               	movlw	low (_OledFont| (0+32768))
  4398  052C  00A4               	movwf	??_OLED_PutChar+4
  4399  052D  3088               	movlw	high (_OledFont| (0+32768))
  4400  052E  00A5               	movwf	??_OLED_PutChar+5
  4401  052F  0822               	movf	??_OLED_PutChar+2,w
  4402  0530  0724               	addwf	??_OLED_PutChar+4,w
  4403  0531  00AF               	movwf	OLED_PutChar@base
  4404  0532  0823               	movf	??_OLED_PutChar+3,w
  4405  0533  3D25               	addwfc	??_OLED_PutChar+5,w
  4406  0534  00B0               	movwf	OLED_PutChar@base+1
  4407                           
  4408                           ;oled.c: 237: uint8_t bytes[9];
  4409                           ;oled.c: 238: bytes[0] = 0x40;
  4410  0535  3040               	movlw	64
  4411  0536  00A0               	movwf	??_OLED_PutChar
  4412  0537  0820               	movf	??_OLED_PutChar,w
  4413  0538  00A6               	movwf	OLED_PutChar@bytes
  4414                           
  4415                           ;oled.c: 239: memmove( bytes + 1, base, 8 );
  4416  0539  0830               	movf	OLED_PutChar@base+1,w
  4417  053A  00F1               	movwf	memmove@s1+1
  4418  053B  082F               	movf	OLED_PutChar@base,w
  4419  053C  00F0               	movwf	memmove@s1
  4420  053D  3008               	movlw	8
  4421  053E  00F2               	movwf	memmove@n
  4422  053F  3000               	movlw	0
  4423  0540  00F3               	movwf	memmove@n+1
  4424  0541  3027               	movlw	(low ((OLED_PutChar@bytes| 0+1)))& (0+255)
  4425  0542  3184  24A9  3185   	fcall	_memmove
  4426                           
  4427                           ;oled.c: 241: Send_I2C_StartBit();
  4428  0545  3182  224E  3185   	fcall	_Send_I2C_StartBit
  4429                           
  4430                           ;oled.c: 242: Send_I2C_Data(0x3C << 1);
  4431  0548  3078               	movlw	120
  4432  0549  00F0               	movwf	Send_I2C_Data@databyte
  4433  054A  3000               	movlw	0
  4434  054B  00F1               	movwf	Send_I2C_Data@databyte+1
  4435  054C  3182  225E  3185   	fcall	_Send_I2C_Data
  4436                           
  4437                           ;oled.c: 243: Send_I2C_Data(0x40);
  4438  054F  3040               	movlw	64
  4439  0550  00F0               	movwf	Send_I2C_Data@databyte
  4440  0551  3000               	movlw	0
  4441  0552  00F1               	movwf	Send_I2C_Data@databyte+1
  4442  0553  3182  225E  3185   	fcall	_Send_I2C_Data
  4443                           
  4444                           ;oled.c: 245: int i;
  4445                           ;oled.c: 247: for (i = 1; i <= 8; i++){
  4446  0556  3001               	movlw	1
  4447  0557  0020               	movlb	0	; select bank0
  4448  0558  00B1               	movwf	OLED_PutChar@i
  4449  0559  3000               	movlw	0
  4450  055A  00B2               	movwf	OLED_PutChar@i+1
  4451  055B  0832               	movf	OLED_PutChar@i+1,w
  4452  055C  3A80               	xorlw	128
  4453  055D  00A0               	movwf	??_OLED_PutChar
  4454  055E  3080               	movlw	128
  4455  055F  0220               	subwf	??_OLED_PutChar,w
  4456  0560  1D03               	skipz
  4457  0561  2D64               	goto	u845
  4458  0562  3009               	movlw	9
  4459  0563  0231               	subwf	OLED_PutChar@i,w
  4460  0564                     u845:	
  4461  0564  1803               	btfsc	3,0
  4462  0565  2D85               	goto	l1305
  4463  0566                     l1299:	
  4464                           
  4465                           ;oled.c: 248: Send_I2C_Data(bytes[i]);
  4466  0566  0020               	movlb	0	; select bank0
  4467  0567  0831               	movf	OLED_PutChar@i,w
  4468  0568  3E26               	addlw	(low (OLED_PutChar@bytes| 0))& (0+255)
  4469  0569  0086               	movwf	6
  4470  056A  0187               	clrf	7
  4471  056B  0801               	movf	1,w
  4472  056C  00A0               	movwf	??_OLED_PutChar
  4473  056D  01A1               	clrf	??_OLED_PutChar+1
  4474  056E  0820               	movf	??_OLED_PutChar,w
  4475  056F  00F0               	movwf	Send_I2C_Data@databyte
  4476  0570  0821               	movf	??_OLED_PutChar+1,w
  4477  0571  00F1               	movwf	Send_I2C_Data@databyte+1
  4478  0572  3182  225E  3185   	fcall	_Send_I2C_Data
  4479  0575  3001               	movlw	1
  4480  0576  0020               	movlb	0	; select bank0
  4481  0577  07B1               	addwf	OLED_PutChar@i,f
  4482  0578  3000               	movlw	0
  4483  0579  3DB2               	addwfc	OLED_PutChar@i+1,f
  4484  057A  0832               	movf	OLED_PutChar@i+1,w
  4485  057B  3A80               	xorlw	128
  4486  057C  00A0               	movwf	??_OLED_PutChar
  4487  057D  3080               	movlw	128
  4488  057E  0220               	subwf	??_OLED_PutChar,w
  4489  057F  1D03               	skipz
  4490  0580  2D83               	goto	u855
  4491  0581  3009               	movlw	9
  4492  0582  0231               	subwf	OLED_PutChar@i,w
  4493  0583                     u855:	
  4494  0583  1C03               	skipc
  4495  0584  2D66               	goto	l1299
  4496  0585                     l1305:	
  4497                           
  4498                           ;oled.c: 249: }
  4499                           ;oled.c: 251: Send_I2C_StopBit();
  4500  0585  3182  2256         	fcall	_Send_I2C_StopBit
  4501  0587  0008               	return
  4502  0588                     __end_of_OLED_PutChar:	
  4503                           
  4504                           	psect	text10
  4505  04A9                     __ptext10:	
  4506 ;; *************** function _memmove *****************
  4507 ;; Defined at:
  4508 ;;		line 8 in file "C:\Program Files (x86)\Microchip\xc8\v1.41\sources\common\memmove.c"
  4509 ;; Parameters:    Size  Location     Type
  4510 ;;  d1              1    wreg     PTR void 
  4511 ;;		 -> OLED_PutChar@bytes(9), 
  4512 ;;  s1              2    0[COMMON] PTR const void 
  4513 ;;		 -> OledFont(768), 
  4514 ;;  n               2    2[COMMON] unsigned int 
  4515 ;; Auto vars:     Size  Location     Type
  4516 ;;  d1              1    8[COMMON] PTR void 
  4517 ;;		 -> OLED_PutChar@bytes(9), 
  4518 ;;  s               2    9[COMMON] PTR const unsigned char 
  4519 ;;		 -> OledFont(768), 
  4520 ;;  d               1   11[COMMON] PTR unsigned char 
  4521 ;;		 -> OLED_PutChar@bytes(9), 
  4522 ;; Return value:  Size  Location     Type
  4523 ;;                  1    wreg      PTR void 
  4524 ;; Registers used:
  4525 ;;		wreg, fsr0l, fsr0h, fsr1l, fsr1h, status,2, status,0, pclath
  4526 ;; Tracked objects:
  4527 ;;		On entry : 0/0
  4528 ;;		On exit  : 0/0
  4529 ;;		Unchanged: 0/0
  4530 ;; Data sizes:     COMMON   BANK0   BANK1   BANK2   BANK3   BANK4   BANK5   BANK6   BANK7   BANK8   BANK9  BANK10  BANK1
      +1  BANK12
  4531 ;;      Params:         4       0       0       0       0       0       0       0       0       0       0       0       
      +0       0
  4532 ;;      Locals:         4       0       0       0       0       0       0       0       0       0       0       0       
      +0       0
  4533 ;;      Temps:          4       0       0       0       0       0       0       0       0       0       0       0       
      +0       0
  4534 ;;      Totals:        12       0       0       0       0       0       0       0       0       0       0       0       
      +0       0
  4535 ;;Total ram usage:       12 bytes
  4536 ;; Hardware stack levels used:    1
  4537 ;; This function calls:
  4538 ;;		Nothing
  4539 ;; This function is called by:
  4540 ;;		_OLED_PutChar
  4541 ;; This function uses a non-reentrant model
  4542 ;;
  4543                           
  4544                           
  4545                           ;psect for function _memmove
  4546  04A9                     _memmove:	
  4547                           
  4548                           ;incstack = 0
  4549                           ; Regs used in _memmove: [wreg-fsr1h+status,2+status,0+pclath]
  4550                           ;memmove@d1 stored from wreg
  4551  04A9  00F8               	movwf	memmove@d1
  4552  04AA  0871               	movf	memmove@s1+1,w
  4553  04AB  00FA               	movwf	memmove@s+1
  4554  04AC  0870               	movf	memmove@s1,w
  4555  04AD  00F9               	movwf	memmove@s
  4556  04AE  0878               	movf	memmove@d1,w
  4557  04AF  00F4               	movwf	??_memmove
  4558  04B0  0874               	movf	??_memmove,w
  4559  04B1  00FB               	movwf	memmove@d
  4560  04B2  087B               	movf	memmove@d,w
  4561  04B3  00F4               	movwf	??_memmove
  4562  04B4  3000               	movlw	0
  4563  04B5  00F5               	movwf	??_memmove+1
  4564  04B6  0875               	movf	??_memmove+1,w
  4565  04B7  027A               	subwf	memmove@s+1,w
  4566  04B8  1D03               	skipz
  4567  04B9  2CBC               	goto	u605
  4568  04BA  0874               	movf	??_memmove,w
  4569  04BB  0279               	subwf	memmove@s,w
  4570  04BC                     u605:	
  4571  04BC  1803               	skipnc
  4572  04BD  2CF2               	goto	l1187
  4573  04BE  0872               	movf	memmove@n,w
  4574  04BF  0779               	addwf	memmove@s,w
  4575  04C0  00F4               	movwf	??_memmove
  4576  04C1  0873               	movf	memmove@n+1,w
  4577  04C2  3D7A               	addwfc	memmove@s+1,w
  4578  04C3  00F5               	movwf	??_memmove+1
  4579  04C4  087B               	movf	memmove@d,w
  4580  04C5  00F6               	movwf	??_memmove+2
  4581  04C6  3000               	movlw	0
  4582  04C7  00F7               	movwf	??_memmove+3
  4583  04C8  0875               	movf	??_memmove+1,w
  4584  04C9  0277               	subwf	??_memmove+3,w
  4585  04CA  1D03               	skipz
  4586  04CB  2CCE               	goto	u615
  4587  04CC  0874               	movf	??_memmove,w
  4588  04CD  0276               	subwf	??_memmove+2,w
  4589  04CE                     u615:	
  4590  04CE  1803               	skipnc
  4591  04CF  2CF2               	goto	l1187
  4592  04D0  0872               	movf	memmove@n,w
  4593  04D1  07F9               	addwf	memmove@s,f
  4594  04D2  0873               	movf	memmove@n+1,w
  4595  04D3  3DFA               	addwfc	memmove@s+1,f
  4596  04D4  0872               	movf	memmove@n,w
  4597  04D5  00F4               	movwf	??_memmove
  4598  04D6  0874               	movf	??_memmove,w
  4599  04D7  07FB               	addwf	memmove@d,f
  4600  04D8                     l1183:	
  4601  04D8  3001               	movlw	1
  4602  04D9  02F9               	subwf	memmove@s,f
  4603  04DA  3000               	movlw	0
  4604  04DB  3BFA               	subwfb	memmove@s+1,f
  4605  04DC  0879               	movf	memmove@s,w
  4606  04DD  0084               	movwf	4
  4607  04DE  087A               	movf	memmove@s+1,w
  4608  04DF  0085               	movwf	5
  4609  04E0  0800               	movf	0,w	;code access
  4610  04E1  00F4               	movwf	??_memmove
  4611  04E2  3001               	movlw	1
  4612  04E3  02FB               	subwf	memmove@d,f
  4613  04E4  087B               	movf	memmove@d,w
  4614  04E5  0086               	movwf	6
  4615  04E6  0187               	clrf	7
  4616  04E7  0874               	movf	??_memmove,w
  4617  04E8  0081               	movwf	1
  4618  04E9  3001               	movlw	1
  4619  04EA  02F2               	subwf	memmove@n,f
  4620  04EB  3000               	movlw	0
  4621  04EC  3BF3               	subwfb	memmove@n+1,f
  4622  04ED  0872               	movf	memmove@n,w
  4623  04EE  0473               	iorwf	memmove@n+1,w
  4624  04EF  1903               	btfsc	3,2
  4625  04F0  0008               	return
  4626  04F1  2CD8               	goto	l1183
  4627  04F2                     l1187:	
  4628  04F2  0872               	movf	memmove@n,w
  4629  04F3  0473               	iorwf	memmove@n+1,w
  4630  04F4  1903               	btfsc	3,2
  4631  04F5  0008               	return
  4632  04F6  0879               	movf	memmove@s,w
  4633  04F7  0084               	movwf	4
  4634  04F8  087A               	movf	memmove@s+1,w
  4635  04F9  0085               	movwf	5
  4636  04FA  0800               	movf	0,w	;code access
  4637  04FB  00F4               	movwf	??_memmove
  4638  04FC  087B               	movf	memmove@d,w
  4639  04FD  0086               	movwf	6
  4640  04FE  0187               	clrf	7
  4641  04FF  0874               	movf	??_memmove,w
  4642  0500  0081               	movwf	1
  4643  0501  3001               	movlw	1
  4644  0502  07F9               	addwf	memmove@s,f
  4645  0503  3000               	movlw	0
  4646  0504  3DFA               	addwfc	memmove@s+1,f
  4647  0505  3001               	movlw	1
  4648  0506  00F4               	movwf	??_memmove
  4649  0507  0874               	movf	??_memmove,w
  4650  0508  07FB               	addwf	memmove@d,f
  4651  0509  3001               	movlw	1
  4652  050A  02F2               	subwf	memmove@n,f
  4653  050B  3000               	movlw	0
  4654  050C  3BF3               	subwfb	memmove@n+1,f
  4655  050D  2CF2               	goto	l1187
  4656  050E                     __end_of_memmove:	
  4657                           ;	Return value of _memmove is never used
  4658                           
  4659                           
  4660                           	psect	text11
  4661  0256                     __ptext11:	
  4662 ;; *************** function _Send_I2C_StopBit *****************
  4663 ;; Defined at:
  4664 ;;		line 106 in file "I2C.c"
  4665 ;; Parameters:    Size  Location     Type
  4666 ;;		None
  4667 ;; Auto vars:     Size  Location     Type
  4668 ;;		None
  4669 ;; Return value:  Size  Location     Type
  4670 ;;                  1    wreg      void 
  4671 ;; Registers used:
  4672 ;;		None
  4673 ;; Tracked objects:
  4674 ;;		On entry : 0/0
  4675 ;;		On exit  : 0/0
  4676 ;;		Unchanged: 0/0
  4677 ;; Data sizes:     COMMON   BANK0   BANK1   BANK2   BANK3   BANK4   BANK5   BANK6   BANK7   BANK8   BANK9  BANK10  BANK1
      +1  BANK12
  4678 ;;      Params:         0       0       0       0       0       0       0       0       0       0       0       0       
      +0       0
  4679 ;;      Locals:         0       0       0       0       0       0       0       0       0       0       0       0       
      +0       0
  4680 ;;      Temps:          0       0       0       0       0       0       0       0       0       0       0       0       
      +0       0
  4681 ;;      Totals:         0       0       0       0       0       0       0       0       0       0       0       0       
      +0       0
  4682 ;;Total ram usage:        0 bytes
  4683 ;; Hardware stack levels used:    1
  4684 ;; This function calls:
  4685 ;;		Nothing
  4686 ;; This function is called by:
  4687 ;;		_OLED_Command
  4688 ;;		_OLED_PutChar
  4689 ;;		_OLED_Data
  4690 ;; This function uses a non-reentrant model
  4691 ;;
  4692                           
  4693                           
  4694                           ;psect for function _Send_I2C_StopBit
  4695  0256                     _Send_I2C_StopBit:	
  4696                           
  4697                           ;I2C.c: 108: PIR1bits.SSP1IF=0;
  4698                           
  4699                           ;incstack = 0
  4700                           ; Regs used in _Send_I2C_StopBit: []
  4701  0256  0020               	movlb	0	; select bank0
  4702  0257  1191               	bcf	17,3	;volatile
  4703                           
  4704                           ;I2C.c: 109: SSPCON2bits.PEN=1;
  4705  0258  0024               	movlb	4	; select bank4
  4706  0259  1516               	bsf	22,2	;volatile
  4707  025A                     l128:	
  4708                           ;I2C.c: 110: while(!PIR1bits.SSP1IF);
  4709                           
  4710  025A  0020               	movlb	0	; select bank0
  4711  025B  1991               	btfsc	17,3	;volatile
  4712  025C  0008               	return
  4713  025D  2A5A               	goto	l128
  4714  025E                     __end_of_Send_I2C_StopBit:	
  4715                           
  4716                           	psect	text12
  4717  024E                     __ptext12:	
  4718 ;; *************** function _Send_I2C_StartBit *****************
  4719 ;; Defined at:
  4720 ;;		line 96 in file "I2C.c"
  4721 ;; Parameters:    Size  Location     Type
  4722 ;;		None
  4723 ;; Auto vars:     Size  Location     Type
  4724 ;;		None
  4725 ;; Return value:  Size  Location     Type
  4726 ;;                  1    wreg      void 
  4727 ;; Registers used:
  4728 ;;		None
  4729 ;; Tracked objects:
  4730 ;;		On entry : 0/0
  4731 ;;		On exit  : 0/0
  4732 ;;		Unchanged: 0/0
  4733 ;; Data sizes:     COMMON   BANK0   BANK1   BANK2   BANK3   BANK4   BANK5   BANK6   BANK7   BANK8   BANK9  BANK10  BANK1
      +1  BANK12
  4734 ;;      Params:         0       0       0       0       0       0       0       0       0       0       0       0       
      +0       0
  4735 ;;      Locals:         0       0       0       0       0       0       0       0       0       0       0       0       
      +0       0
  4736 ;;      Temps:          0       0       0       0       0       0       0       0       0       0       0       0       
      +0       0
  4737 ;;      Totals:         0       0       0       0       0       0       0       0       0       0       0       0       
      +0       0
  4738 ;;Total ram usage:        0 bytes
  4739 ;; Hardware stack levels used:    1
  4740 ;; This function calls:
  4741 ;;		Nothing
  4742 ;; This function is called by:
  4743 ;;		_OLED_Command
  4744 ;;		_OLED_PutChar
  4745 ;;		_OLED_Data
  4746 ;; This function uses a non-reentrant model
  4747 ;;
  4748                           
  4749                           
  4750                           ;psect for function _Send_I2C_StartBit
  4751  024E                     _Send_I2C_StartBit:	
  4752                           
  4753                           ;I2C.c: 98: PIR1bits.SSP1IF=0;
  4754                           
  4755                           ;incstack = 0
  4756                           ; Regs used in _Send_I2C_StartBit: []
  4757  024E  0020               	movlb	0	; select bank0
  4758  024F  1191               	bcf	17,3	;volatile
  4759                           
  4760                           ;I2C.c: 99: SSPCON2bits.SEN=1;
  4761  0250  0024               	movlb	4	; select bank4
  4762  0251  1416               	bsf	22,0	;volatile
  4763  0252                     l122:	
  4764                           ;I2C.c: 100: while(!PIR1bits.SSP1IF);
  4765                           
  4766  0252  0020               	movlb	0	; select bank0
  4767  0253  1991               	btfsc	17,3	;volatile
  4768  0254  0008               	return
  4769  0255  2A52               	goto	l122
  4770  0256                     __end_of_Send_I2C_StartBit:	
  4771                           
  4772                           	psect	text13
  4773  025E                     __ptext13:	
  4774 ;; *************** function _Send_I2C_Data *****************
  4775 ;; Defined at:
  4776 ;;		line 48 in file "I2C.c"
  4777 ;; Parameters:    Size  Location     Type
  4778 ;;  databyte        2    0[COMMON] unsigned int 
  4779 ;; Auto vars:     Size  Location     Type
  4780 ;;		None
  4781 ;; Return value:  Size  Location     Type
  4782 ;;                  1    wreg      void 
  4783 ;; Registers used:
  4784 ;;		wreg
  4785 ;; Tracked objects:
  4786 ;;		On entry : 0/0
  4787 ;;		On exit  : 0/0
  4788 ;;		Unchanged: 0/0
  4789 ;; Data sizes:     COMMON   BANK0   BANK1   BANK2   BANK3   BANK4   BANK5   BANK6   BANK7   BANK8   BANK9  BANK10  BANK1
      +1  BANK12
  4790 ;;      Params:         2       0       0       0       0       0       0       0       0       0       0       0       
      +0       0
  4791 ;;      Locals:         0       0       0       0       0       0       0       0       0       0       0       0       
      +0       0
  4792 ;;      Temps:          0       0       0       0       0       0       0       0       0       0       0       0       
      +0       0
  4793 ;;      Totals:         2       0       0       0       0       0       0       0       0       0       0       0       
      +0       0
  4794 ;;Total ram usage:        2 bytes
  4795 ;; Hardware stack levels used:    1
  4796 ;; This function calls:
  4797 ;;		Nothing
  4798 ;; This function is called by:
  4799 ;;		_OLED_Command
  4800 ;;		_OLED_PutChar
  4801 ;;		_OLED_Data
  4802 ;; This function uses a non-reentrant model
  4803 ;;
  4804                           
  4805                           
  4806                           ;psect for function _Send_I2C_Data
  4807  025E                     _Send_I2C_Data:	
  4808                           
  4809                           ;I2C.c: 50: PIR1bits.SSP1IF=0;
  4810                           
  4811                           ;incstack = 0
  4812                           ; Regs used in _Send_I2C_Data: [wreg]
  4813  025E  0020               	movlb	0	; select bank0
  4814  025F  1191               	bcf	17,3	;volatile
  4815                           
  4816                           ;I2C.c: 51: SSPBUF = databyte;
  4817  0260  0870               	movf	Send_I2C_Data@databyte,w
  4818  0261  0024               	movlb	4	; select bank4
  4819  0262  0091               	movwf	17	;volatile
  4820  0263                     l104:	
  4821                           ;I2C.c: 52: while(!PIR1bits.SSP1IF);
  4822                           
  4823  0263  0020               	movlb	0	; select bank0
  4824  0264  1991               	btfsc	17,3	;volatile
  4825  0265  0008               	return
  4826  0266  2A63               	goto	l104
  4827  0267                     __end_of_Send_I2C_Data:	
  4828                           
  4829                           	psect	text14
  4830  0270                     __ptext14:	
  4831 ;; *************** function _I2C_Init *****************
  4832 ;; Defined at:
  4833 ;;		line 19 in file "I2C.c"
  4834 ;; Parameters:    Size  Location     Type
  4835 ;;		None
  4836 ;; Auto vars:     Size  Location     Type
  4837 ;;		None
  4838 ;; Return value:  Size  Location     Type
  4839 ;;                  1    wreg      void 
  4840 ;; Registers used:
  4841 ;;		wreg, status,2, status,0
  4842 ;; Tracked objects:
  4843 ;;		On entry : 0/0
  4844 ;;		On exit  : 0/0
  4845 ;;		Unchanged: 0/0
  4846 ;; Data sizes:     COMMON   BANK0   BANK1   BANK2   BANK3   BANK4   BANK5   BANK6   BANK7   BANK8   BANK9  BANK10  BANK1
      +1  BANK12
  4847 ;;      Params:         0       0       0       0       0       0       0       0       0       0       0       0       
      +0       0
  4848 ;;      Locals:         0       0       0       0       0       0       0       0       0       0       0       0       
      +0       0
  4849 ;;      Temps:          1       0       0       0       0       0       0       0       0       0       0       0       
      +0       0
  4850 ;;      Totals:         1       0       0       0       0       0       0       0       0       0       0       0       
      +0       0
  4851 ;;Total ram usage:        1 bytes
  4852 ;; Hardware stack levels used:    1
  4853 ;; This function calls:
  4854 ;;		Nothing
  4855 ;; This function is called by:
  4856 ;;		_main
  4857 ;; This function uses a non-reentrant model
  4858 ;;
  4859                           
  4860                           
  4861                           ;psect for function _I2C_Init
  4862  0270                     _I2C_Init:	
  4863                           
  4864                           ;I2C.c: 25: SSPCONbits.SSPM=0x08;
  4865                           
  4866                           ;incstack = 0
  4867                           ; Regs used in _I2C_Init: [wreg+status,2+status,0]
  4868  0270  0024               	movlb	4	; select bank4
  4869  0271  0815               	movf	21,w	;volatile
  4870  0272  39F0               	andlw	-16
  4871  0273  3808               	iorlw	8
  4872  0274  0095               	movwf	21	;volatile
  4873                           
  4874                           ;I2C.c: 26: SSPCONbits.SSPEN=1;
  4875  0275  1695               	bsf	21,5	;volatile
  4876                           
  4877                           ;I2C.c: 38: SSPADD = 39;
  4878  0276  3027               	movlw	39
  4879  0277  0092               	movwf	18	;volatile
  4880                           
  4881                           ;I2C.c: 42: _delay((unsigned long)((10)*(16000000/4000.0)));
  4882  0278  3034               	movlw	52
  4883  0279  00F0               	movwf	??_I2C_Init
  4884  027A  30F2               	movlw	242
  4885  027B                     u1127:	
  4886  027B  0B89               	decfsz	9,f
  4887  027C  2A7B               	goto	u1127
  4888  027D  0BF0               	decfsz	??_I2C_Init,f
  4889  027E  2A7B               	goto	u1127
  4890  027F  0008               	return
  4891  0280                     __end_of_I2C_Init:	
  4892                           
  4893                           	psect	text15
  4894  02D6                     __ptext15:	
  4895 ;; *************** function _DS1302_ReadByte *****************
  4896 ;; Defined at:
  4897 ;;		line 71 in file "ds1302.c"
  4898 ;; Parameters:    Size  Location     Type
  4899 ;;		None
  4900 ;; Auto vars:     Size  Location     Type
  4901 ;;  i               1    3[COMMON] unsigned char 
  4902 ;;  R_Byte          1    2[COMMON] unsigned char 
  4903 ;;  TmpByte         1    1[COMMON] unsigned char 
  4904 ;; Return value:  Size  Location     Type
  4905 ;;                  1    wreg      unsigned char 
  4906 ;; Registers used:
  4907 ;;		wreg, status,2, status,0
  4908 ;; Tracked objects:
  4909 ;;		On entry : 0/0
  4910 ;;		On exit  : 0/0
  4911 ;;		Unchanged: 0/0
  4912 ;; Data sizes:     COMMON   BANK0   BANK1   BANK2   BANK3   BANK4   BANK5   BANK6   BANK7   BANK8   BANK9  BANK10  BANK1
      +1  BANK12
  4913 ;;      Params:         0       0       0       0       0       0       0       0       0       0       0       0       
      +0       0
  4914 ;;      Locals:         3       0       0       0       0       0       0       0       0       0       0       0       
      +0       0
  4915 ;;      Temps:          1       0       0       0       0       0       0       0       0       0       0       0       
      +0       0
  4916 ;;      Totals:         4       0       0       0       0       0       0       0       0       0       0       0       
      +0       0
  4917 ;;Total ram usage:        4 bytes
  4918 ;; Hardware stack levels used:    1
  4919 ;; This function calls:
  4920 ;;		Nothing
  4921 ;; This function is called by:
  4922 ;;		_main
  4923 ;; This function uses a non-reentrant model
  4924 ;;
  4925                           
  4926                           
  4927                           ;psect for function _DS1302_ReadByte
  4928  02D6                     _DS1302_ReadByte:	
  4929                           
  4930                           ;ds1302.c: 73: unsigned char i;
  4931                           ;ds1302.c: 74: unsigned char R_Byte;
  4932                           ;ds1302.c: 75: unsigned char TmpByte;
  4933                           ;ds1302.c: 77: R_Byte = 0x00;
  4934                           
  4935                           ;incstack = 0
  4936                           ; Regs used in _DS1302_ReadByte: [wreg+status,2+status,0]
  4937  02D6  01F2               	clrf	DS1302_ReadByte@R_Byte
  4938                           
  4939                           ;ds1302.c: 79: TRISD2 = 1;
  4940  02D7  0021               	movlb	1	; select bank1
  4941  02D8  150F               	bsf	15,2	;volatile
  4942                           
  4943                           ;ds1302.c: 80: RD2 = 1;
  4944  02D9  0020               	movlb	0	; select bank0
  4945  02DA  150F               	bsf	15,2	;volatile
  4946                           
  4947                           ;ds1302.c: 82: for(i=0; i<8; ++i)
  4948  02DB  01F3               	clrf	DS1302_ReadByte@i
  4949  02DC  3008               	movlw	8
  4950  02DD  0273               	subwf	DS1302_ReadByte@i,w
  4951  02DE  1803               	btfsc	3,0
  4952  02DF  2AF7               	goto	l219
  4953  02E0                     l218:	
  4954                           
  4955                           ;ds1302.c: 83: {
  4956                           ;ds1302.c: 84: RD1 = 1;
  4957  02E0  148F               	bsf	15,1	;volatile
  4958                           
  4959                           ;ds1302.c: 85: RD1 = 0;
  4960  02E1  108F               	bcf	15,1	;volatile
  4961                           
  4962                           ;ds1302.c: 86: TmpByte = (unsigned char)RD2;
  4963  02E2  3000               	movlw	0
  4964  02E3  190F               	btfsc	15,2	;volatile
  4965  02E4  3001               	movlw	1
  4966  02E5  00F1               	movwf	DS1302_ReadByte@TmpByte
  4967                           
  4968                           ;ds1302.c: 87: TmpByte <<= 7;
  4969  02E6  0CF1               	rrf	DS1302_ReadByte@TmpByte,f
  4970  02E7  01F1               	clrf	DS1302_ReadByte@TmpByte
  4971  02E8  0CF1               	rrf	DS1302_ReadByte@TmpByte,f
  4972                           
  4973                           ;ds1302.c: 88: R_Byte >>= 1;
  4974  02E9  1003               	clrc
  4975  02EA  0CF2               	rrf	DS1302_ReadByte@R_Byte,f
  4976                           
  4977                           ;ds1302.c: 89: R_Byte |= TmpByte;
  4978  02EB  0871               	movf	DS1302_ReadByte@TmpByte,w
  4979  02EC  00F0               	movwf	??_DS1302_ReadByte
  4980  02ED  0870               	movf	??_DS1302_ReadByte,w
  4981  02EE  04F2               	iorwf	DS1302_ReadByte@R_Byte,f
  4982  02EF  3001               	movlw	1
  4983  02F0  00F0               	movwf	??_DS1302_ReadByte
  4984  02F1  0870               	movf	??_DS1302_ReadByte,w
  4985  02F2  07F3               	addwf	DS1302_ReadByte@i,f
  4986  02F3  3008               	movlw	8
  4987  02F4  0273               	subwf	DS1302_ReadByte@i,w
  4988  02F5  1C03               	skipc
  4989  02F6  2AE0               	goto	l218
  4990  02F7                     l219:	
  4991                           
  4992                           ;ds1302.c: 90: }
  4993                           ;ds1302.c: 91: TRISD2 = 0;
  4994  02F7  0021               	movlb	1	; select bank1
  4995  02F8  110F               	bcf	15,2	;volatile
  4996                           
  4997                           ;ds1302.c: 92: return R_Byte;
  4998  02F9  0872               	movf	DS1302_ReadByte@R_Byte,w
  4999  02FA  0008               	return
  5000  02FB                     __end_of_DS1302_ReadByte:	
  5001                           
  5002                           	psect	text16
  5003  0588                     __ptext16:	
  5004 ;; *************** function _DS1302_Initialize *****************
  5005 ;; Defined at:
  5006 ;;		line 105 in file "ds1302.c"
  5007 ;; Parameters:    Size  Location     Type
  5008 ;;  sec             1    wreg     unsigned char 
  5009 ;;  min             1    3[BANK0 ] unsigned char 
  5010 ;;  hr              1    4[BANK0 ] unsigned char 
  5011 ;;  day             1    5[BANK0 ] unsigned char 
  5012 ;;  date            1    6[BANK0 ] unsigned char 
  5013 ;;  mth             1    7[BANK0 ] unsigned char 
  5014 ;;  year            1    8[BANK0 ] unsigned char 
  5015 ;; Auto vars:     Size  Location     Type
  5016 ;;  sec             1   10[BANK0 ] unsigned char 
  5017 ;;  year1           1   16[BANK0 ] unsigned char 
  5018 ;;  mth1            1   15[BANK0 ] unsigned char 
  5019 ;;  date1           1   14[BANK0 ] unsigned char 
  5020 ;;  hr1             1   13[BANK0 ] unsigned char 
  5021 ;;  min1            1   12[BANK0 ] unsigned char 
  5022 ;;  sec1            1   11[BANK0 ] unsigned char 
  5023 ;;  day1            1    9[BANK0 ] unsigned char 
  5024 ;; Return value:  Size  Location     Type
  5025 ;;                  1    wreg      void 
  5026 ;; Registers used:
  5027 ;;		wreg, status,2, status,0, pclath, cstack
  5028 ;; Tracked objects:
  5029 ;;		On entry : 0/0
  5030 ;;		On exit  : 0/0
  5031 ;;		Unchanged: 0/0
  5032 ;; Data sizes:     COMMON   BANK0   BANK1   BANK2   BANK3   BANK4   BANK5   BANK6   BANK7   BANK8   BANK9  BANK10  BANK1
      +1  BANK12
  5033 ;;      Params:         0       6       0       0       0       0       0       0       0       0       0       0       
      +0       0
  5034 ;;      Locals:         0       8       0       0       0       0       0       0       0       0       0       0       
      +0       0
  5035 ;;      Temps:          1       0       0       0       0       0       0       0       0       0       0       0       
      +0       0
  5036 ;;      Totals:         1      14       0       0       0       0       0       0       0       0       0       0       
      +0       0
  5037 ;;Total ram usage:       15 bytes
  5038 ;; Hardware stack levels used:    1
  5039 ;; Hardware stack levels required when called:    2
  5040 ;; This function calls:
  5041 ;;		_DS1302_Reset
  5042 ;;		_DS1302_WriteByte
  5043 ;;		_get_bcd
  5044 ;; This function is called by:
  5045 ;;		_main
  5046 ;; This function uses a non-reentrant model
  5047 ;;
  5048                           
  5049                           
  5050                           ;psect for function _DS1302_Initialize
  5051  0588                     _DS1302_Initialize:	
  5052                           
  5053                           ;incstack = 0
  5054                           ; Regs used in _DS1302_Initialize: [wreg+status,2+status,0+pclath+cstack]
  5055                           ;DS1302_Initialize@sec stored from wreg
  5056  0588  0020               	movlb	0	; select bank0
  5057  0589  00AA               	movwf	DS1302_Initialize@sec
  5058                           
  5059                           ;ds1302.c: 109: byte sec1 = get_bcd(sec);
  5060  058A  082A               	movf	DS1302_Initialize@sec,w
  5061  058B  3183  2350  3185   	fcall	_get_bcd
  5062  058E  00FC               	movwf	??_DS1302_Initialize
  5063  058F  087C               	movf	??_DS1302_Initialize,w
  5064  0590  0020               	movlb	0	; select bank0
  5065  0591  00AB               	movwf	DS1302_Initialize@sec1
  5066                           
  5067                           ;ds1302.c: 110: byte min1 = get_bcd(min);
  5068  0592  0823               	movf	DS1302_Initialize@min,w
  5069  0593  3183  2350  3185   	fcall	_get_bcd
  5070  0596  00FC               	movwf	??_DS1302_Initialize
  5071  0597  087C               	movf	??_DS1302_Initialize,w
  5072  0598  0020               	movlb	0	; select bank0
  5073  0599  00AC               	movwf	DS1302_Initialize@min1
  5074                           
  5075                           ;ds1302.c: 111: byte hr1 = get_bcd(hr);
  5076  059A  0824               	movf	DS1302_Initialize@hr,w
  5077  059B  3183  2350  3185   	fcall	_get_bcd
  5078  059E  00FC               	movwf	??_DS1302_Initialize
  5079  059F  087C               	movf	??_DS1302_Initialize,w
  5080  05A0  0020               	movlb	0	; select bank0
  5081  05A1  00AD               	movwf	DS1302_Initialize@hr1
  5082                           
  5083                           ;ds1302.c: 112: byte day1 = get_bcd(day);
  5084  05A2  0825               	movf	DS1302_Initialize@day,w
  5085  05A3  3183  2350  3185   	fcall	_get_bcd
  5086  05A6  00FC               	movwf	??_DS1302_Initialize
  5087  05A7  087C               	movf	??_DS1302_Initialize,w
  5088  05A8  0020               	movlb	0	; select bank0
  5089  05A9  00A9               	movwf	DS1302_Initialize@day1
  5090                           
  5091                           ;ds1302.c: 113: byte date1 = get_bcd(date);
  5092  05AA  0826               	movf	DS1302_Initialize@date,w
  5093  05AB  3183  2350  3185   	fcall	_get_bcd
  5094  05AE  00FC               	movwf	??_DS1302_Initialize
  5095  05AF  087C               	movf	??_DS1302_Initialize,w
  5096  05B0  0020               	movlb	0	; select bank0
  5097  05B1  00AE               	movwf	DS1302_Initialize@date1
  5098                           
  5099                           ;ds1302.c: 114: byte mth1 = get_bcd(mth);
  5100  05B2  0827               	movf	DS1302_Initialize@mth,w
  5101  05B3  3183  2350  3185   	fcall	_get_bcd
  5102  05B6  00FC               	movwf	??_DS1302_Initialize
  5103  05B7  087C               	movf	??_DS1302_Initialize,w
  5104  05B8  0020               	movlb	0	; select bank0
  5105  05B9  00AF               	movwf	DS1302_Initialize@mth1
  5106                           
  5107                           ;ds1302.c: 115: byte year1 = get_bcd(year);
  5108  05BA  0828               	movf	DS1302_Initialize@year,w
  5109  05BB  3183  2350  3185   	fcall	_get_bcd
  5110  05BE  00FC               	movwf	??_DS1302_Initialize
  5111  05BF  087C               	movf	??_DS1302_Initialize,w
  5112  05C0  0020               	movlb	0	; select bank0
  5113  05C1  00B0               	movwf	DS1302_Initialize@year1
  5114                           
  5115                           ;ds1302.c: 118: DS1302_Reset();
  5116  05C2  3182  2243  3185   	fcall	_DS1302_Reset
  5117                           
  5118                           ;ds1302.c: 119: DS1302_WriteByte(0x8e);
  5119  05C5  308E               	movlw	142
  5120  05C6  3182  2291  3185   	fcall	_DS1302_WriteByte
  5121                           
  5122                           ;ds1302.c: 120: DS1302_WriteByte(0);
  5123  05C9  3000               	movlw	0
  5124  05CA  3182  2291  3185   	fcall	_DS1302_WriteByte
  5125                           
  5126                           ;ds1302.c: 121: DS1302_Reset();
  5127  05CD  3182  2243  3185   	fcall	_DS1302_Reset
  5128                           
  5129                           ;ds1302.c: 122: DS1302_WriteByte(0x90);
  5130  05D0  3090               	movlw	144
  5131  05D1  3182  2291  3185   	fcall	_DS1302_WriteByte
  5132                           
  5133                           ;ds1302.c: 123: DS1302_WriteByte(0xab);
  5134  05D4  30AB               	movlw	171
  5135  05D5  3182  2291  3185   	fcall	_DS1302_WriteByte
  5136                           
  5137                           ;ds1302.c: 124: DS1302_Reset();
  5138  05D8  3182  2243  3185   	fcall	_DS1302_Reset
  5139                           
  5140                           ;ds1302.c: 125: DS1302_WriteByte(0xbe);
  5141  05DB  30BE               	movlw	190
  5142  05DC  3182  2291  3185   	fcall	_DS1302_WriteByte
  5143                           
  5144                           ;ds1302.c: 126: DS1302_WriteByte(sec1);
  5145  05DF  0020               	movlb	0	; select bank0
  5146  05E0  082B               	movf	DS1302_Initialize@sec1,w
  5147  05E1  3182  2291  3185   	fcall	_DS1302_WriteByte
  5148                           
  5149                           ;ds1302.c: 127: DS1302_WriteByte(min1);
  5150  05E4  0020               	movlb	0	; select bank0
  5151  05E5  082C               	movf	DS1302_Initialize@min1,w
  5152  05E6  3182  2291  3185   	fcall	_DS1302_WriteByte
  5153                           
  5154                           ;ds1302.c: 128: DS1302_WriteByte(hr1);
  5155  05E9  0020               	movlb	0	; select bank0
  5156  05EA  082D               	movf	DS1302_Initialize@hr1,w
  5157  05EB  3182  2291  3185   	fcall	_DS1302_WriteByte
  5158                           
  5159                           ;ds1302.c: 129: DS1302_WriteByte(day);
  5160  05EE  0020               	movlb	0	; select bank0
  5161  05EF  0825               	movf	DS1302_Initialize@day,w
  5162  05F0  3182  2291  3185   	fcall	_DS1302_WriteByte
  5163                           
  5164                           ;ds1302.c: 130: DS1302_WriteByte(date1);
  5165  05F3  0020               	movlb	0	; select bank0
  5166  05F4  082E               	movf	DS1302_Initialize@date1,w
  5167  05F5  3182  2291  3185   	fcall	_DS1302_WriteByte
  5168                           
  5169                           ;ds1302.c: 131: DS1302_WriteByte(mth1);
  5170  05F8  0020               	movlb	0	; select bank0
  5171  05F9  082F               	movf	DS1302_Initialize@mth1,w
  5172  05FA  3182  2291  3185   	fcall	_DS1302_WriteByte
  5173                           
  5174                           ;ds1302.c: 132: DS1302_WriteByte(year1);
  5175  05FD  0020               	movlb	0	; select bank0
  5176  05FE  0830               	movf	DS1302_Initialize@year1,w
  5177  05FF  3182  2291  3185   	fcall	_DS1302_WriteByte
  5178                           
  5179                           ;ds1302.c: 133: DS1302_WriteByte(0);
  5180  0602  3000               	movlw	0
  5181  0603  3182  2291  3185   	fcall	_DS1302_WriteByte
  5182                           
  5183                           ;ds1302.c: 134: DS1302_Reset();
  5184  0606  3182  2243         	fcall	_DS1302_Reset
  5185  0608  0008               	return
  5186  0609                     __end_of_DS1302_Initialize:	
  5187                           
  5188                           	psect	text17
  5189  0350                     __ptext17:	
  5190 ;; *************** function _get_bcd *****************
  5191 ;; Defined at:
  5192 ;;		line 147 in file "ds1302.c"
  5193 ;; Parameters:    Size  Location     Type
  5194 ;;  data            1    wreg     unsigned char 
  5195 ;; Auto vars:     Size  Location     Type
  5196 ;;  data            1    1[BANK0 ] unsigned char 
  5197 ;;  nibh            1    2[BANK0 ] unsigned char 
  5198 ;;  nibl            1    0[BANK0 ] unsigned char 
  5199 ;; Return value:  Size  Location     Type
  5200 ;;                  1    wreg      unsigned char 
  5201 ;; Registers used:
  5202 ;;		wreg, status,2, status,0, pclath, cstack
  5203 ;; Tracked objects:
  5204 ;;		On entry : 0/0
  5205 ;;		On exit  : 0/0
  5206 ;;		Unchanged: 0/0
  5207 ;; Data sizes:     COMMON   BANK0   BANK1   BANK2   BANK3   BANK4   BANK5   BANK6   BANK7   BANK8   BANK9  BANK10  BANK1
      +1  BANK12
  5208 ;;      Params:         0       0       0       0       0       0       0       0       0       0       0       0       
      +0       0
  5209 ;;      Locals:         0       3       0       0       0       0       0       0       0       0       0       0       
      +0       0
  5210 ;;      Temps:          3       0       0       0       0       0       0       0       0       0       0       0       
      +0       0
  5211 ;;      Totals:         3       3       0       0       0       0       0       0       0       0       0       0       
      +0       0
  5212 ;;Total ram usage:        6 bytes
  5213 ;; Hardware stack levels used:    1
  5214 ;; Hardware stack levels required when called:    1
  5215 ;; This function calls:
  5216 ;;		___awdiv
  5217 ;;		___bmul
  5218 ;; This function is called by:
  5219 ;;		_DS1302_Initialize
  5220 ;; This function uses a non-reentrant model
  5221 ;;
  5222                           
  5223                           
  5224                           ;psect for function _get_bcd
  5225  0350                     _get_bcd:	
  5226                           
  5227                           ;incstack = 0
  5228                           ; Regs used in _get_bcd: [wreg+status,2+status,0+pclath+cstack]
  5229                           ;get_bcd@data stored from wreg
  5230  0350  0020               	movlb	0	; select bank0
  5231  0351  00A1               	movwf	get_bcd@data
  5232                           
  5233                           ;ds1302.c: 149: unsigned char nibh;
  5234                           ;ds1302.c: 150: unsigned char nibl;
  5235                           ;ds1302.c: 152: nibh=data/10;
  5236  0352  300A               	movlw	10
  5237  0353  00F0               	movwf	___awdiv@divisor
  5238  0354  3000               	movlw	0
  5239  0355  00F1               	movwf	___awdiv@divisor+1
  5240  0356  0821               	movf	get_bcd@data,w
  5241  0357  00F9               	movwf	??_get_bcd
  5242  0358  01FA               	clrf	??_get_bcd+1
  5243  0359  0879               	movf	??_get_bcd,w
  5244  035A  00F2               	movwf	___awdiv@dividend
  5245  035B  087A               	movf	??_get_bcd+1,w
  5246  035C  00F3               	movwf	___awdiv@dividend+1
  5247  035D  3183  23F4  3183   	fcall	___awdiv
  5248  0360  0870               	movf	?___awdiv,w
  5249  0361  00FB               	movwf	??_get_bcd+2
  5250  0362  087B               	movf	??_get_bcd+2,w
  5251  0363  0020               	movlb	0	; select bank0
  5252  0364  00A2               	movwf	get_bcd@nibh
  5253                           
  5254                           ;ds1302.c: 153: nibl=data-(nibh*10);
  5255  0365  300A               	movlw	10
  5256  0366  00F9               	movwf	??_get_bcd
  5257  0367  0879               	movf	??_get_bcd,w
  5258  0368  00F0               	movwf	___bmul@multiplicand
  5259  0369  0822               	movf	get_bcd@nibh,w
  5260  036A  3182  2280  3183   	fcall	___bmul
  5261  036D  3AFF               	xorlw	255
  5262  036E  3E01               	addlw	1
  5263  036F  0020               	movlb	0	; select bank0
  5264  0370  0721               	addwf	get_bcd@data,w
  5265  0371  00FA               	movwf	??_get_bcd+1
  5266  0372  087A               	movf	??_get_bcd+1,w
  5267  0373  00A0               	movwf	get_bcd@nibl
  5268                           
  5269                           ;ds1302.c: 155: return((nibh<<4)|nibl);
  5270  0374  0822               	movf	get_bcd@nibh,w
  5271  0375  00F9               	movwf	??_get_bcd
  5272  0376  3003               	movlw	3
  5273  0377                     u865:	
  5274  0377  35F9               	lslf	??_get_bcd,f
  5275  0378  3EFF               	addlw	-1
  5276  0379  1D03               	skipz
  5277  037A  2B77               	goto	u865
  5278  037B  3579               	lslf	??_get_bcd,w
  5279  037C  0420               	iorwf	get_bcd@nibl,w
  5280  037D  0008               	return
  5281  037E                     __end_of_get_bcd:	
  5282                           
  5283                           	psect	text18
  5284  0280                     __ptext18:	
  5285 ;; *************** function ___bmul *****************
  5286 ;; Defined at:
  5287 ;;		line 4 in file "C:\Program Files (x86)\Microchip\xc8\v1.41\sources\common\Umul8.c"
  5288 ;; Parameters:    Size  Location     Type
  5289 ;;  multiplier      1    wreg     unsigned char 
  5290 ;;  multiplicand    1    0[COMMON] unsigned char 
  5291 ;; Auto vars:     Size  Location     Type
  5292 ;;  multiplier      1    3[COMMON] unsigned char 
  5293 ;;  product         1    2[COMMON] unsigned char 
  5294 ;; Return value:  Size  Location     Type
  5295 ;;                  1    wreg      unsigned char 
  5296 ;; Registers used:
  5297 ;;		wreg, status,2, status,0
  5298 ;; Tracked objects:
  5299 ;;		On entry : 0/0
  5300 ;;		On exit  : 0/0
  5301 ;;		Unchanged: 0/0
  5302 ;; Data sizes:     COMMON   BANK0   BANK1   BANK2   BANK3   BANK4   BANK5   BANK6   BANK7   BANK8   BANK9  BANK10  BANK1
      +1  BANK12
  5303 ;;      Params:         1       0       0       0       0       0       0       0       0       0       0       0       
      +0       0
  5304 ;;      Locals:         2       0       0       0       0       0       0       0       0       0       0       0       
      +0       0
  5305 ;;      Temps:          1       0       0       0       0       0       0       0       0       0       0       0       
      +0       0
  5306 ;;      Totals:         4       0       0       0       0       0       0       0       0       0       0       0       
      +0       0
  5307 ;;Total ram usage:        4 bytes
  5308 ;; Hardware stack levels used:    1
  5309 ;; This function calls:
  5310 ;;		Nothing
  5311 ;; This function is called by:
  5312 ;;		_main
  5313 ;;		_get_bcd
  5314 ;; This function uses a non-reentrant model
  5315 ;;
  5316                           
  5317                           
  5318                           ;psect for function ___bmul
  5319  0280                     ___bmul:	
  5320                           
  5321                           ;incstack = 0
  5322                           ; Regs used in ___bmul: [wreg+status,2+status,0]
  5323                           ;___bmul@multiplier stored from wreg
  5324  0280  00F3               	movwf	___bmul@multiplier
  5325  0281  01F2               	clrf	___bmul@product
  5326  0282                     l1199:	
  5327  0282  1C73               	btfss	___bmul@multiplier,0
  5328  0283  2A88               	goto	l1203
  5329  0284  0870               	movf	___bmul@multiplicand,w
  5330  0285  00F1               	movwf	??___bmul
  5331  0286  0871               	movf	??___bmul,w
  5332  0287  07F2               	addwf	___bmul@product,f
  5333  0288                     l1203:	
  5334  0288  1003               	clrc
  5335  0289  0DF0               	rlf	___bmul@multiplicand,f
  5336  028A  1003               	clrc
  5337  028B  0CF3               	rrf	___bmul@multiplier,f
  5338  028C  0873               	movf	___bmul@multiplier,w
  5339  028D  1D03               	btfss	3,2
  5340  028E  2A82               	goto	l1199
  5341  028F  0872               	movf	___bmul@product,w
  5342  0290  0008               	return
  5343  0291                     __end_of___bmul:	
  5344                           
  5345                           	psect	text19
  5346  03F4                     __ptext19:	
  5347 ;; *************** function ___awdiv *****************
  5348 ;; Defined at:
  5349 ;;		line 6 in file "C:\Program Files (x86)\Microchip\xc8\v1.41\sources\common\awdiv.c"
  5350 ;; Parameters:    Size  Location     Type
  5351 ;;  divisor         2    0[COMMON] int 
  5352 ;;  dividend        2    2[COMMON] int 
  5353 ;; Auto vars:     Size  Location     Type
  5354 ;;  quotient        2    7[COMMON] int 
  5355 ;;  sign            1    6[COMMON] unsigned char 
  5356 ;;  counter         1    5[COMMON] unsigned char 
  5357 ;; Return value:  Size  Location     Type
  5358 ;;                  2    0[COMMON] int 
  5359 ;; Registers used:
  5360 ;;		wreg, status,2, status,0
  5361 ;; Tracked objects:
  5362 ;;		On entry : 0/0
  5363 ;;		On exit  : 0/0
  5364 ;;		Unchanged: 0/0
  5365 ;; Data sizes:     COMMON   BANK0   BANK1   BANK2   BANK3   BANK4   BANK5   BANK6   BANK7   BANK8   BANK9  BANK10  BANK1
      +1  BANK12
  5366 ;;      Params:         4       0       0       0       0       0       0       0       0       0       0       0       
      +0       0
  5367 ;;      Locals:         4       0       0       0       0       0       0       0       0       0       0       0       
      +0       0
  5368 ;;      Temps:          1       0       0       0       0       0       0       0       0       0       0       0       
      +0       0
  5369 ;;      Totals:         9       0       0       0       0       0       0       0       0       0       0       0       
      +0       0
  5370 ;;Total ram usage:        9 bytes
  5371 ;; Hardware stack levels used:    1
  5372 ;; This function calls:
  5373 ;;		Nothing
  5374 ;; This function is called by:
  5375 ;;		_main
  5376 ;;		_get_bcd
  5377 ;; This function uses a non-reentrant model
  5378 ;;
  5379                           
  5380                           
  5381                           ;psect for function ___awdiv
  5382  03F4                     ___awdiv:	
  5383                           
  5384                           ;incstack = 0
  5385                           ; Regs used in ___awdiv: [wreg+status,2+status,0]
  5386  03F4  01F6               	clrf	___awdiv@sign
  5387  03F5  1FF1               	btfss	___awdiv@divisor+1,7
  5388  03F6  2BFE               	goto	l1219
  5389  03F7  09F0               	comf	___awdiv@divisor,f
  5390  03F8  09F1               	comf	___awdiv@divisor+1,f
  5391  03F9  0AF0               	incf	___awdiv@divisor,f
  5392  03FA  1903               	skipnz
  5393  03FB  0AF1               	incf	___awdiv@divisor+1,f
  5394  03FC  01F6               	clrf	___awdiv@sign
  5395  03FD  0AF6               	incf	___awdiv@sign,f
  5396  03FE                     l1219:	
  5397  03FE  1FF3               	btfss	___awdiv@dividend+1,7
  5398  03FF  2C09               	goto	l1225
  5399  0400  09F2               	comf	___awdiv@dividend,f
  5400  0401  09F3               	comf	___awdiv@dividend+1,f
  5401  0402  0AF2               	incf	___awdiv@dividend,f
  5402  0403  1903               	skipnz
  5403  0404  0AF3               	incf	___awdiv@dividend+1,f
  5404  0405  3001               	movlw	1
  5405  0406  00F4               	movwf	??___awdiv
  5406  0407  0874               	movf	??___awdiv,w
  5407  0408  06F6               	xorwf	___awdiv@sign,f
  5408  0409                     l1225:	
  5409  0409  01F7               	clrf	___awdiv@quotient
  5410  040A  01F8               	clrf	___awdiv@quotient+1
  5411  040B  0870               	movf	___awdiv@divisor,w
  5412  040C  0471               	iorwf	___awdiv@divisor+1,w
  5413  040D  1903               	btfsc	3,2
  5414  040E  2C38               	goto	l1247
  5415  040F  01F5               	clrf	___awdiv@counter
  5416  0410  0AF5               	incf	___awdiv@counter,f
  5417  0411                     l1235:	
  5418  0411  1BF1               	btfsc	___awdiv@divisor+1,7
  5419  0412  2C1D               	goto	l1237
  5420  0413  3001               	movlw	1
  5421  0414                     u705:	
  5422  0414  35F0               	lslf	___awdiv@divisor,f
  5423  0415  0DF1               	rlf	___awdiv@divisor+1,f
  5424  0416  0B89               	decfsz	9,f
  5425  0417  2C14               	goto	u705
  5426  0418  3001               	movlw	1
  5427  0419  00F4               	movwf	??___awdiv
  5428  041A  0874               	movf	??___awdiv,w
  5429  041B  07F5               	addwf	___awdiv@counter,f
  5430  041C  2C11               	goto	l1235
  5431  041D                     l1237:	
  5432  041D  3001               	movlw	1
  5433  041E                     u725:	
  5434  041E  35F7               	lslf	___awdiv@quotient,f
  5435  041F  0DF8               	rlf	___awdiv@quotient+1,f
  5436  0420  0B89               	decfsz	9,f
  5437  0421  2C1E               	goto	u725
  5438  0422  0871               	movf	___awdiv@divisor+1,w
  5439  0423  0273               	subwf	___awdiv@dividend+1,w
  5440  0424  1D03               	skipz
  5441  0425  2C28               	goto	u735
  5442  0426  0870               	movf	___awdiv@divisor,w
  5443  0427  0272               	subwf	___awdiv@dividend,w
  5444  0428                     u735:	
  5445  0428  1C03               	skipc
  5446  0429  2C2F               	goto	l1243
  5447  042A  0870               	movf	___awdiv@divisor,w
  5448  042B  02F2               	subwf	___awdiv@dividend,f
  5449  042C  0871               	movf	___awdiv@divisor+1,w
  5450  042D  3BF3               	subwfb	___awdiv@dividend+1,f
  5451  042E  1477               	bsf	___awdiv@quotient,0
  5452  042F                     l1243:	
  5453  042F  3001               	movlw	1
  5454  0430                     u745:	
  5455  0430  36F1               	lsrf	___awdiv@divisor+1,f
  5456  0431  0CF0               	rrf	___awdiv@divisor,f
  5457  0432  0B89               	decfsz	9,f
  5458  0433  2C30               	goto	u745
  5459  0434  3001               	movlw	1
  5460  0435  02F5               	subwf	___awdiv@counter,f
  5461  0436  1D03               	btfss	3,2
  5462  0437  2C1D               	goto	l1237
  5463  0438                     l1247:	
  5464  0438  0876               	movf	___awdiv@sign,w
  5465  0439  1903               	btfsc	3,2
  5466  043A  2C40               	goto	l1251
  5467  043B  09F7               	comf	___awdiv@quotient,f
  5468  043C  09F8               	comf	___awdiv@quotient+1,f
  5469  043D  0AF7               	incf	___awdiv@quotient,f
  5470  043E  1903               	skipnz
  5471  043F  0AF8               	incf	___awdiv@quotient+1,f
  5472  0440                     l1251:	
  5473  0440  0878               	movf	___awdiv@quotient+1,w
  5474  0441  00F1               	movwf	?___awdiv+1
  5475  0442  0877               	movf	___awdiv@quotient,w
  5476  0443  00F0               	movwf	?___awdiv
  5477  0444  0008               	return
  5478  0445                     __end_of___awdiv:	
  5479                           
  5480                           	psect	text20
  5481  0291                     __ptext20:	
  5482 ;; *************** function _DS1302_WriteByte *****************
  5483 ;; Defined at:
  5484 ;;		line 43 in file "ds1302.c"
  5485 ;; Parameters:    Size  Location     Type
  5486 ;;  W_Byte          1    wreg     unsigned char 
  5487 ;; Auto vars:     Size  Location     Type
  5488 ;;  W_Byte          1    1[COMMON] unsigned char 
  5489 ;;  i               1    2[COMMON] unsigned char 
  5490 ;; Return value:  Size  Location     Type
  5491 ;;                  1    wreg      void 
  5492 ;; Registers used:
  5493 ;;		wreg, status,2, status,0
  5494 ;; Tracked objects:
  5495 ;;		On entry : 0/0
  5496 ;;		On exit  : 0/0
  5497 ;;		Unchanged: 0/0
  5498 ;; Data sizes:     COMMON   BANK0   BANK1   BANK2   BANK3   BANK4   BANK5   BANK6   BANK7   BANK8   BANK9  BANK10  BANK1
      +1  BANK12
  5499 ;;      Params:         0       0       0       0       0       0       0       0       0       0       0       0       
      +0       0
  5500 ;;      Locals:         2       0       0       0       0       0       0       0       0       0       0       0       
      +0       0
  5501 ;;      Temps:          1       0       0       0       0       0       0       0       0       0       0       0       
      +0       0
  5502 ;;      Totals:         3       0       0       0       0       0       0       0       0       0       0       0       
      +0       0
  5503 ;;Total ram usage:        3 bytes
  5504 ;; Hardware stack levels used:    1
  5505 ;; This function calls:
  5506 ;;		Nothing
  5507 ;; This function is called by:
  5508 ;;		_main
  5509 ;;		_DS1302_Initialize
  5510 ;; This function uses a non-reentrant model
  5511 ;;
  5512                           
  5513                           
  5514                           ;psect for function _DS1302_WriteByte
  5515  0291                     _DS1302_WriteByte:	
  5516                           
  5517                           ;incstack = 0
  5518                           ; Regs used in _DS1302_WriteByte: [wreg+status,2+status,0]
  5519                           ;DS1302_WriteByte@W_Byte stored from wreg
  5520  0291  00F1               	movwf	DS1302_WriteByte@W_Byte
  5521                           
  5522                           ;ds1302.c: 45: unsigned char i;
  5523                           ;ds1302.c: 47: for(i = 0; i < 8; ++i)
  5524  0292  01F2               	clrf	DS1302_WriteByte@i
  5525  0293                     L2:	
  5526  0293  3008               	movlw	8
  5527  0294  0272               	subwf	DS1302_WriteByte@i,w
  5528  0295  1803               	btfsc	3,0
  5529  0296  0008               	return
  5530                           
  5531                           ;ds1302.c: 48: {
  5532                           ;ds1302.c: 49: RD2 = 0;
  5533  0297  0020               	movlb	0	; select bank0
  5534  0298  110F               	bcf	15,2	;volatile
  5535                           
  5536                           ;ds1302.c: 51: if(W_Byte & 0x01)
  5537  0299  1871               	btfsc	DS1302_WriteByte@W_Byte,0
  5538                           
  5539                           ;ds1302.c: 52: {
  5540                           ;ds1302.c: 53: RD2 = 1;
  5541  029A  150F               	bsf	15,2	;volatile
  5542                           
  5543                           ;ds1302.c: 54: }
  5544                           ;ds1302.c: 56: RD1 = 0;
  5545  029B  108F               	bcf	15,1	;volatile
  5546                           
  5547                           ;ds1302.c: 57: RD1 = 1;
  5548  029C  148F               	bsf	15,1	;volatile
  5549                           
  5550                           ;ds1302.c: 58: W_Byte >>= 1;
  5551  029D  1003               	clrc
  5552  029E  0CF1               	rrf	DS1302_WriteByte@W_Byte,f
  5553  029F  3001               	movlw	1
  5554  02A0  00F0               	movwf	??_DS1302_WriteByte
  5555  02A1  0870               	movf	??_DS1302_WriteByte,w
  5556  02A2  07F2               	addwf	DS1302_WriteByte@i,f
  5557  02A3  2A93               	goto	L2
  5558  02A4                     __end_of_DS1302_WriteByte:	
  5559                           
  5560                           	psect	text21
  5561  0243                     __ptext21:	
  5562 ;; *************** function _DS1302_Reset *****************
  5563 ;; Defined at:
  5564 ;;		line 26 in file "ds1302.c"
  5565 ;; Parameters:    Size  Location     Type
  5566 ;;		None
  5567 ;; Auto vars:     Size  Location     Type
  5568 ;;		None
  5569 ;; Return value:  Size  Location     Type
  5570 ;;                  1    wreg      void 
  5571 ;; Registers used:
  5572 ;;		None
  5573 ;; Tracked objects:
  5574 ;;		On entry : 0/0
  5575 ;;		On exit  : 0/0
  5576 ;;		Unchanged: 0/0
  5577 ;; Data sizes:     COMMON   BANK0   BANK1   BANK2   BANK3   BANK4   BANK5   BANK6   BANK7   BANK8   BANK9  BANK10  BANK1
      +1  BANK12
  5578 ;;      Params:         0       0       0       0       0       0       0       0       0       0       0       0       
      +0       0
  5579 ;;      Locals:         0       0       0       0       0       0       0       0       0       0       0       0       
      +0       0
  5580 ;;      Temps:          0       0       0       0       0       0       0       0       0       0       0       0       
      +0       0
  5581 ;;      Totals:         0       0       0       0       0       0       0       0       0       0       0       0       
      +0       0
  5582 ;;Total ram usage:        0 bytes
  5583 ;; Hardware stack levels used:    1
  5584 ;; This function calls:
  5585 ;;		Nothing
  5586 ;; This function is called by:
  5587 ;;		_main
  5588 ;;		_DS1302_Initialize
  5589 ;; This function uses a non-reentrant model
  5590 ;;
  5591                           
  5592                           
  5593                           ;psect for function _DS1302_Reset
  5594  0243                     _DS1302_Reset:	
  5595                           
  5596                           ;ds1302.c: 28: RD1 = 0;
  5597                           
  5598                           ;incstack = 0
  5599                           ; Regs used in _DS1302_Reset: []
  5600  0243  0020               	movlb	0	; select bank0
  5601  0244  108F               	bcf	15,1	;volatile
  5602                           
  5603                           ;ds1302.c: 29: RD0 = 0;
  5604  0245  100F               	bcf	15,0	;volatile
  5605                           
  5606                           ;ds1302.c: 30: RD0 = 1;
  5607  0246  140F               	bsf	15,0	;volatile
  5608  0247  0008               	return
  5609  0248                     __end_of_DS1302_Reset:	
  5610  007E                     btemp	set	126	;btemp
  5611  007E                     wtemp0	set	126


Data Sizes:
    Strings     24
    Constant    808
    Data        0
    BSS         17
    Persistent  0
    Stack       0

Auto Spaces:
    Space          Size  Autos    Used
    COMMON           14     14      14
    BANK0            80     58      75
    BANK1            80      0       0
    BANK2            80      0       0
    BANK3            80      0       0
    BANK4            80      0       0
    BANK5            80      0       0
    BANK6            80      0       0
    BANK7            80      0       0
    BANK8            80      0       0
    BANK9            80      0       0
    BANK10           80      0       0
    BANK11           80      0       0
    BANK12           48      0       0

Pointer List with Targets:

    memmove@d1	PTR void  size(1) Largest target is 9
		 -> OLED_PutChar@bytes(BANK0[9]), 

    memmove@d	PTR unsigned char  size(1) Largest target is 9
		 -> OLED_PutChar@bytes(BANK0[9]), 

    memmove@s1	PTR const void  size(2) Largest target is 768
		 -> OledFont(CODE[768]), 

    memmove@s	PTR const unsigned char  size(2) Largest target is 768
		 -> OledFont(CODE[768]), 

    sp__utoa	PTR unsigned char  size(1) Largest target is 20
		 -> OLED_Write_Integer@s(BANK0[20]), 

    sp__ftoa	PTR unsigned char  size(1) Largest target is 17
		 -> ftoa@buf(BANK0[17]), 

    sp__itoa	PTR unsigned char  size(1) Largest target is 20
		 -> OLED_Write_Integer@s(BANK0[20]), 

    OLED_Write_String@s	PTR unsigned char  size(2) Largest target is 20
		 -> ftoa@buf(BANK0[17]), STR_3(CODE[6]), STR_2(CODE[6]), OLED_Write_Integer@s(BANK0[20]), 
		 -> STR_1(CODE[7]), main@line1(BANK0[8]), 

    sp__memmove	PTR void  size(1) Largest target is 9
		 -> OLED_PutChar@bytes(BANK0[9]), 

    OLED_PutChar@base	PTR const unsigned char  size(2) Largest target is 768
		 -> OledFont(CODE[768]), 


Critical Paths under _main in COMMON

    _main->_OLED_Write_String
    _main->___awmod
    ___awmod->___awdiv
    _OLED_Init->_OLED_Command
    _OLED_YX->_OLED_Command
    _OLED_Command->_Send_I2C_Data
    _OLED_PutChar->_memmove
    _DS1302_Initialize->_get_bcd
    _get_bcd->___awdiv

Critical Paths under _main in BANK0

    _main->_OLED_Clear
    _OLED_Write_String->_OLED_PutChar
    _OLED_Clear->_OLED_PutChar
    _DS1302_Initialize->_get_bcd

Critical Paths under _main in BANK1

    None.

Critical Paths under _main in BANK2

    None.

Critical Paths under _main in BANK3

    None.

Critical Paths under _main in BANK4

    None.

Critical Paths under _main in BANK5

    None.

Critical Paths under _main in BANK6

    None.

Critical Paths under _main in BANK7

    None.

Critical Paths under _main in BANK8

    None.

Critical Paths under _main in BANK9

    None.

Critical Paths under _main in BANK10

    None.

Critical Paths under _main in BANK11

    None.

Critical Paths under _main in BANK12

    None.

Call Graph Tables:

 ---------------------------------------------------------------------------------
 (Depth) Function   	        Calls       Base Space   Used Autos Params    Refs
 ---------------------------------------------------------------------------------
 (0) _main                                                43    43      0    9973
                                             24 BANK0     34    34      0
                  _DS1302_Initialize
                    _DS1302_ReadByte
                       _DS1302_Reset
                   _DS1302_WriteByte
                           _I2C_Init
                         _OLED_Clear
                          _OLED_Init
                  _OLED_Write_String
                            _OLED_YX
                            ___awdiv
                            ___awmod
                             ___bmul
                           _initMain
 ---------------------------------------------------------------------------------
 (1) _initMain                                             0     0      0       0
                        _internal_16
 ---------------------------------------------------------------------------------
 (2) _internal_16                                          0     0      0       0
 ---------------------------------------------------------------------------------
 (1) ___awmod                                              7     3      4     932
                                              9 COMMON     5     1      4
                                              0 BANK0      2     2      0
                            ___awdiv (ARG)
 ---------------------------------------------------------------------------------
 (1) _OLED_Write_String                                    3     1      2    1567
                                             12 COMMON     2     0      2
                                             20 BANK0      1     1      0
                       _OLED_PutChar
 ---------------------------------------------------------------------------------
 (1) _OLED_Init                                            0     0      0     521
                       _OLED_Command
 ---------------------------------------------------------------------------------
 (1) _OLED_Clear                                           5     5      0    2086
                                             12 COMMON     1     1      0
                                             20 BANK0      4     4      0
                       _OLED_PutChar
                            _OLED_YX
 ---------------------------------------------------------------------------------
 (1) _OLED_YX                                              5     4      1     746
                                              5 COMMON     5     4      1
                       _OLED_Command
 ---------------------------------------------------------------------------------
 (2) _OLED_Command                                         3     3      0     521
                                              2 COMMON     3     3      0
                      _Send_I2C_Data
                  _Send_I2C_StartBit
                   _Send_I2C_StopBit
 ---------------------------------------------------------------------------------
 (2) _OLED_PutChar                                        20    20      0    1204
                                              0 BANK0     20    20      0
                      _Send_I2C_Data
                  _Send_I2C_StartBit
                   _Send_I2C_StopBit
                            _memmove
 ---------------------------------------------------------------------------------
 (3) _memmove                                             12     8      4     497
                                              0 COMMON    12     8      4
 ---------------------------------------------------------------------------------
 (3) _Send_I2C_StopBit                                     0     0      0       0
 ---------------------------------------------------------------------------------
 (3) _Send_I2C_StartBit                                    0     0      0       0
 ---------------------------------------------------------------------------------
 (3) _Send_I2C_Data                                        2     0      2     499
                                              0 COMMON     2     0      2
 ---------------------------------------------------------------------------------
 (1) _I2C_Init                                             1     1      0       0
                                              0 COMMON     1     1      0
 ---------------------------------------------------------------------------------
 (1) _DS1302_ReadByte                                      4     4      0      95
                                              0 COMMON     4     4      0
 ---------------------------------------------------------------------------------
 (1) _DS1302_Initialize                                   15     9      6    2001
                                             12 COMMON     1     1      0
                                              3 BANK0     14     8      6
                       _DS1302_Reset
                   _DS1302_WriteByte
                            _get_bcd
 ---------------------------------------------------------------------------------
 (2) _get_bcd                                              6     6      0    1299
                                              9 COMMON     3     3      0
                                              0 BANK0      3     3      0
                            ___awdiv
                             ___bmul
 ---------------------------------------------------------------------------------
 (1) ___bmul                                               4     3      1     463
                                              0 COMMON     4     3      1
 ---------------------------------------------------------------------------------
 (1) ___awdiv                                              9     5      4     724
                                              0 COMMON     9     5      4
 ---------------------------------------------------------------------------------
 (1) _DS1302_WriteByte                                     3     3      0      69
                                              0 COMMON     3     3      0
 ---------------------------------------------------------------------------------
 (1) _DS1302_Reset                                         0     0      0       0
 ---------------------------------------------------------------------------------
 Estimated maximum stack depth 3
 ---------------------------------------------------------------------------------

 Call Graph Graphs:

 _main (ROOT)
   _DS1302_Initialize
     _DS1302_Reset
     _DS1302_WriteByte
     _get_bcd
       ___awdiv
       ___bmul
   _DS1302_ReadByte
   _DS1302_Reset
   _DS1302_WriteByte
   _I2C_Init
   _OLED_Clear
     _OLED_PutChar
       _Send_I2C_Data
       _Send_I2C_StartBit
       _Send_I2C_StopBit
       _memmove
     _OLED_YX
       _OLED_Command
         _Send_I2C_Data
         _Send_I2C_StartBit
         _Send_I2C_StopBit
   _OLED_Init
     _OLED_Command
       _Send_I2C_Data
       _Send_I2C_StartBit
       _Send_I2C_StopBit
   _OLED_Write_String
     _OLED_PutChar
       _Send_I2C_Data
       _Send_I2C_StartBit
       _Send_I2C_StopBit
       _memmove
   _OLED_YX
     _OLED_Command
       _Send_I2C_Data
       _Send_I2C_StartBit
       _Send_I2C_StopBit
   ___awdiv
   ___awmod
     ___awdiv (ARG)
   ___bmul
   _initMain
     _internal_16

 Address spaces:
Name               Size   Autos  Total    Cost      Usage
BIGRAM             3F0      0       0       0        0.0%
NULL                 0      0       0       0        0.0%
CODE                 0      0       0       0        0.0%
BITCOMMON            E      0       0       1        0.0%
BITSFR0              0      0       0       1        0.0%
SFR0                 0      0       0       1        0.0%
COMMON               E      E       E       2      100.0%
BITSFR1              0      0       0       2        0.0%
SFR1                 0      0       0       2        0.0%
BITSFR2              0      0       0       3        0.0%
SFR2                 0      0       0       3        0.0%
STACK                0      0       0       3        0.0%
BITBANK0            50      0       0       4        0.0%
BITSFR3              0      0       0       4        0.0%
SFR3                 0      0       0       4        0.0%
BANK0               50     3A      4B       5       93.8%
BITSFR4              0      0       0       5        0.0%
SFR4                 0      0       0       5        0.0%
BITBANK1            50      0       0       6        0.0%
BITSFR5              0      0       0       6        0.0%
SFR5                 0      0       0       6        0.0%
BANK1               50      0       0       7        0.0%
BITSFR6              0      0       0       7        0.0%
SFR6                 0      0       0       7        0.0%
BITBANK2            50      0       0       8        0.0%
BITSFR7              0      0       0       8        0.0%
SFR7                 0      0       0       8        0.0%
BANK2               50      0       0       9        0.0%
BITSFR8              0      0       0       9        0.0%
SFR8                 0      0       0       9        0.0%
BITBANK3            50      0       0      10        0.0%
BITSFR9              0      0       0      10        0.0%
SFR9                 0      0       0      10        0.0%
BANK3               50      0       0      11        0.0%
BITSFR10             0      0       0      11        0.0%
SFR10                0      0       0      11        0.0%
BITBANK4            50      0       0      12        0.0%
BITSFR11             0      0       0      12        0.0%
SFR11                0      0       0      12        0.0%
BANK4               50      0       0      13        0.0%
BITSFR12             0      0       0      13        0.0%
SFR12                0      0       0      13        0.0%
BITBANK5            50      0       0      14        0.0%
BITSFR13             0      0       0      14        0.0%
SFR13                0      0       0      14        0.0%
BANK5               50      0       0      15        0.0%
BITSFR14             0      0       0      15        0.0%
SFR14                0      0       0      15        0.0%
BITBANK6            50      0       0      16        0.0%
BITSFR15             0      0       0      16        0.0%
SFR15                0      0       0      16        0.0%
BANK6               50      0       0      17        0.0%
BITSFR16             0      0       0      17        0.0%
SFR16                0      0       0      17        0.0%
BITBANK7            50      0       0      18        0.0%
BITSFR17             0      0       0      18        0.0%
SFR17                0      0       0      18        0.0%
BANK7               50      0       0      19        0.0%
BITSFR18             0      0       0      19        0.0%
SFR18                0      0       0      19        0.0%
BITSFR19             0      0       0      20        0.0%
SFR19                0      0       0      20        0.0%
ABS                  0      0      59      20        0.0%
BITBANK8            50      0       0      21        0.0%
BITSFR20             0      0       0      21        0.0%
SFR20                0      0       0      21        0.0%
BANK8               50      0       0      22        0.0%
BITSFR21             0      0       0      22        0.0%
SFR21                0      0       0      22        0.0%
BITBANK9            50      0       0      23        0.0%
BITSFR22             0      0       0      23        0.0%
SFR22                0      0       0      23        0.0%
BANK9               50      0       0      24        0.0%
BITSFR23             0      0       0      24        0.0%
SFR23                0      0       0      24        0.0%
BITBANK10           50      0       0      25        0.0%
BITSFR24             0      0       0      25        0.0%
SFR24                0      0       0      25        0.0%
BANK10              50      0       0      26        0.0%
BITSFR25             0      0       0      26        0.0%
SFR25                0      0       0      26        0.0%
BITBANK11           50      0       0      27        0.0%
BITSFR26             0      0       0      27        0.0%
SFR26                0      0       0      27        0.0%
BANK11              50      0       0      28        0.0%
BITSFR27             0      0       0      28        0.0%
SFR27                0      0       0      28        0.0%
BITBANK12           30      0       0      29        0.0%
BITSFR28             0      0       0      29        0.0%
SFR28                0      0       0      29        0.0%
BANK12              30      0       0      30        0.0%
BITSFR29             0      0       0      30        0.0%
SFR29                0      0       0      30        0.0%
BITSFR30             0      0       0      31        0.0%
SFR30                0      0       0      31        0.0%
DATA                 0      0      59      31        0.0%
BITSFR31             0      0       0      32        0.0%
SFR31                0      0       0      32        0.0%


Microchip Technology PIC Macro Assembler V1.41 build -162212810 
Symbol Table                                                                                   Tue Apr 18 21:01:23 2017

            ___bmul@product 0072                 __CFG_CP$OFF 0000                ___awdiv@sign 0076  
        OLED_Write_String@s 007C                         l104 0263                         l122 0252  
                       l128 025A                         l218 02E0                         l219 02F7  
                       _RD0 0078                         _RD1 0079                         _RD2 007A  
                       u605 04BC                         u615 04CE                         u705 0414  
                       u725 041E                         u805 0304                         u735 0428  
                       u815 0318                         u745 0430                         u845 0564  
                       u855 0583                         u865 0377                         u975 03C9  
                       u995 03D8                _DS1302_Reset 0243                ___awmod@sign 0021  
              __CFG_BORV$LO 0000                         wreg 0009                __CFG_IESO$ON 0000  
          OLED_Command@temp 0074                __CFG_LVP$OFF 0000                        l1203 0288  
                      l1225 0409                        l1305 0585                        l1251 0440  
                      l1243 042F                        l1235 0411                        l1219 03FE  
                      l1237 041D                        l1247 0438                        l1183 04D8  
                      l1281 051C                        l1441 02A4                        l1187 04F2  
                      l1451 03B9                        l1507 0672                        l1199 0282  
                      l1279 0518                        l1463 03C6                        l1455 03C0  
                      l1377 03A9                        l1369 0391                        l1465 03D2  
                      l1473 03E7                        l1299 0566                        l1477 03EF  
                      l1469 03DE           DS1302_WriteByte@i 0072                        STR_1 0B33  
                      STR_2 0B3A                        STR_4 0B28             __end_of_OLED_YX 0323  
                      u1005 03DF                        u1035 06B5                        u1107 0625  
                      u1045 06CC                        u1117 0635                        u1127 027B  
                      u1055 06E3                 ?_OLED_Clear 0070                        u1065 06FA  
                      u1075 0711                        u1085 0728                        u1097 0615  
                      _SCS0 04C8                        _SCS1 04C9                __CFG_WRT$OFF 0000  
                      _main 0609            __end_of_I2C_Init 0280                        fsr0h 0005  
                      fsr1h 0007                        indf0 0000                        fsr0l 0004  
                      indf1 0001                        fsr1l 0006                        btemp 007E  
                      start 0002           ___bmul@multiplier 0073          __size_of_OLED_Init 0064  
                     ?_main 0070             __end_of___awdiv 0445               __CFG_WDTE$OFF 0000  
           __end_of___awmod 03F4             ___awdiv@divisor 0070                       _IRCF0 04CB  
                     _IRCF1 04CC                       _IRCF2 04CD                       _IRCF3 04CE  
           ___awdiv@counter 0075                       _TRISD 008F              __CFG_FCMEN$OFF 0000  
           __end_of_get_bcd 037E             __end_of_dpowers 0828             __end_of_memmove 050E  
            __CFG_BOREN$OFF 0000                       status 0003                       wtemp0 007E  
__size_of_Send_I2C_StartBit 0008                ?_internal_16 0070              __CFG_MCLRE$OFF 0000  
           __initialization 07F6                __end_of_main 07F6              __CFG_LPBOR$OFF 0000  
          __end_of_OledFont 0B28         __size_of_OLED_Clear 0030                      ??_main 0038  
            __CFG_PLLEN$OFF 0000         DS1302_Initialize@hr 0024                   ??_OLED_YX 0076  
          ___awdiv@dividend 0072              __CFG_ZCDDIS$ON 0000                      _ANSELD 018F  
         __end_of_OLED_Init 04A9             _DS1302_ReadByte 02D6               ?_OLED_Command 0070  
                    _SPLLEN 04CF                      _SSPADD 0212                      _TRISD2 047A  
                    _SSPBUF 0211              __CFG_PWRTE$OFF 0000               ?_OLED_PutChar 0070  
                    ___bmul 0280      __size_of_Send_I2C_Data 0009                   ??___awdiv 0074  
            __CFG_STVREN$ON 0000                   ??___awmod 007D            __end_of_initMain 0350  
          ___awdiv@quotient 0077             ___awmod@divisor 0079             ___awmod@counter 0020  
                 ??_get_bcd 0079                      main@hr 004C                   ?_I2C_Init 0070  
                 ??_memmove 0074   __size_of_DS1302_WriteByte 0013       Send_I2C_Data@databyte 0070  
            ??_OLED_Command 0072     __end_of__initialization 07FD              ??_OLED_PutChar 0020  
       ___bmul@multiplicand 0070   __size_of_Send_I2C_StopBit 0008              __pcstackCOMMON 0070  
    DS1302_Initialize@date1 002E       DS1302_ReadByte@R_Byte 0072      DS1302_Initialize@year1 0030  
                ??_I2C_Init 0070     __end_of_DS1302_ReadByte 02FB               _Send_I2C_Data 025E  
              ??_OLED_Clear 007C                  __pbssBANK0 005A        DS1302_Initialize@hr1 002D  
      DS1302_Initialize@day 0025        DS1302_Initialize@min 0023        DS1302_Initialize@sec 002A  
      DS1302_Initialize@mth 0027                  __pmaintext 0609        __size_of_internal_16 0009  
                   ?___bmul 0070             __CFG_PPS1WAY$ON 0000          __end_of_OLED_Clear 03AE  
    DS1302_WriteByte@W_Byte 0071                     _OLED_YX 02FB              ?_Send_I2C_Data 0070  
                   _PPSLOCK 0E0F                   ?_initMain 0070             __size_of___bmul 0011  
                   ___awdiv 03F4                     ___awmod 03AE        __end_of_OLED_Command 02D6  
                   __ptext1 0323                     __ptext2 0267                     __ptext3 03AE  
                   __ptext4 02A4                     __ptext5 0445                     __ptext6 037E  
                   __ptext7 02FB                     __ptext8 02B8                     __ptext9 050E  
                   _get_bcd 0350                     _dpowers 0800                     _memmove 04A9  
          ___awmod@dividend 007B        __end_of_OLED_PutChar 0588            _DS1302_WriteByte 0291  
          ?_DS1302_ReadByte 0070                     main@dy1 003E                     main@hr1 0054  
                   main@hr2 0057                     main@mn1 0052                     main@mn2 0040  
                   main@day 004D                     main@min 004B                     main@yr1 0051  
                   main@sec 004A                     main@yr2 003F                     clrloop0 0249  
      end_of_initialization 07FD                     ftoa@buf 005A                  ??_initMain 0070  
                 _OLED_Init 0445            OLED_PutChar@base 002F            _Send_I2C_StopBit 0256  
              __pstringtext 0800             ??_Send_I2C_Data 0072            __CFG_FOSC$INTOSC 0000  
                 _TRISCbits 008E           __size_of_I2C_Init 0010                  ?_OLED_Init 0070  
            __end_of___bmul 0291               ?_DS1302_Reset 0070      DS1302_ReadByte@TmpByte 0071  
       start_initialization 07F6           _OLED_Write_String 02A4          ?_OLED_Write_String 007C  
     __size_of_OLED_Command 001E                    ??___bmul 0071                  OLED_YX@Row 0079  
     __size_of_OLED_PutChar 007A         ??_OLED_Write_String 0034              ??_DS1302_Reset 0070  
                 ___latbits 0002                    ?_OLED_YX 0075               __pcstackBANK0 0020  
     DS1302_Initialize@day1 0029       DS1302_Initialize@date 0026       DS1302_Initialize@min1 002C  
     DS1302_Initialize@sec1 002B       DS1302_Initialize@mth1 002F       DS1302_Initialize@year 0028  
              _OLED_Command 02B8   __end_of_OLED_Write_String 02B8               ??_internal_16 0070  
               ??_OLED_Init 0075           __size_of_initMain 002D    __end_of_DS1302_WriteByte 02A4  
              _OLED_PutChar 050E                    ?___awdiv 0070                    ?___awmod 0079  
                  ?_get_bcd 0070                    _I2C_Init 0270                    ?_memmove 0070  
  __end_of_Send_I2C_StopBit 025E                   clear_ram0 0248                    _PIR1bits 0011  
         _DS1302_Initialize 0588         __end_of_internal_16 0270          ?_DS1302_Initialize 0023  
                 main@date1 0053                   main@date2 0041         ??_DS1302_Initialize 007C  
                 main@line1 0042                   main@month 004F            __size_of_OLED_YX 0028  
  __size_of_DS1302_ReadByte 0025  __size_of_OLED_Write_String 0014                    _OledFont 0828  
      __end_of_DS1302_Reset 0248   __end_of_DS1302_Initialize 0609                   memmove@d1 0078  
                 memmove@s1 0070            __size_of___awdiv 0051            __size_of___awmod 0046  
                _ANSELCbits 018E            __size_of_get_bcd 002E            __size_of_memmove 0065  
     __end_of_Send_I2C_Data 0267                    __ptext10 04A9                    __ptext11 0256  
                  __ptext20 0291                    __ptext12 024E                    __ptext21 0243  
                  __ptext13 025E                    __ptext14 0270                    __ptext15 02D6  
                  __ptext16 0588                    __ptext17 0350                    __ptext18 0280  
                  __ptext19 03F4                    _initMain 0323               __size_of_main 01ED  
             _SSPDATPPSbits 0E21               OLED_Clear@col 0036                 _internal_16 0267  
             OLED_Clear@row 0034               OLED_YX@Column 0075              OLED_PutChar@ch 0033  
                _RC4PPSbits 0EA4               _SSPCLKPPSbits 0E20                  _RC5PPSbits 0EA5  
                  main@date 004E                    main@min1 0055                    main@min2 0058  
                  main@sec1 0056                    main@sec2 0059                    main@year 0050  
          DS1302_ReadByte@i 0073                    memmove@d 007B                    memmove@n 0072  
                  memmove@s 0079                  _OLED_Clear 037E           __CFG_CLKOUTEN$OFF 0000  
               _PPSLOCKbits 0E0F  __size_of_DS1302_Initialize 0081           _Send_I2C_StartBit 024E  
         OLED_PutChar@bytes 0026               OLED_PutChar@i 0031           ?_DS1302_WriteByte 0070  
        ?_Send_I2C_StartBit 0070           ??_DS1302_ReadByte 0070          ??_DS1302_WriteByte 0070  
       ??_Send_I2C_StartBit 0070                 _SSPCON2bits 0216           ?_Send_I2C_StopBit 0070  
     __size_of_DS1302_Reset 0005          ??_Send_I2C_StopBit 0070   __end_of_Send_I2C_StartBit 0256  
               get_bcd@data 0021                 get_bcd@nibh 0022                 get_bcd@nibl 0020  
                _SSPCONbits 0215  
