

Microchip MPLAB XC8 Assembler V2.46 build 20240104201356 
                                                                                               Sun Dec 28 16:56:48 2025

Microchip MPLAB XC8 C Compiler v2.46 (Free license) build 20240104201356 Og1 
     1                           	processor	16F1718
     2                           	pagewidth 120
     3                           	opt	flic
     4                           	psect	idataBANK1,global,class=CODE,delta=2,noexec
     5                           	psect	stringtext1,global,class=STRCODE,delta=2,noexec
     6                           	psect	stringtext2,global,class=STRCODE,delta=2,noexec
     7                           	psect	stringtext3,global,class=STRCODE,delta=2,noexec
     8                           	psect	stringtext4,global,class=STRCODE,delta=2,noexec
     9                           	psect	cinit,global,class=CODE,merge=1,delta=2
    10                           	psect	dataBANK1,global,class=BANK1,space=1,delta=1,noexec
    11                           	psect	clrtext,global,class=CODE,delta=2
    12                           	psect	cstackBANK1,global,class=BANK1,space=1,delta=1,noexec
    13                           	psect	cstackCOMMON,global,class=COMMON,space=1,delta=1,noexec
    14                           	psect	cstackBANK0,global,class=BANK0,space=1,delta=1,noexec
    15                           	psect	maintext,global,class=CODE,merge=1,split=1,delta=2
    16                           	psect	text1,local,class=CODE,merge=1,delta=2
    17                           	psect	text2,local,class=CODE,merge=1,delta=2
    18                           	psect	text3,local,class=CODE,merge=1,delta=2
    19                           	psect	text4,local,class=CODE,merge=1,delta=2
    20                           	psect	text5,local,class=CODE,merge=1,delta=2
    21                           	psect	text6,local,class=CODE,merge=1,delta=2,group=2
    22                           	psect	text7,local,class=CODE,merge=1,delta=2,group=2
    23                           	psect	text8,local,class=CODE,merge=1,delta=2,group=2
    24                           	psect	text9,local,class=CODE,merge=1,delta=2,group=1
    25                           	psect	text10,local,class=CODE,merge=1,delta=2,group=1
    26                           	psect	text11,local,class=CODE,merge=1,delta=2,group=1
    27                           	psect	text12,local,class=CODE,merge=1,delta=2,group=1
    28                           	psect	text13,local,class=CODE,merge=1,delta=2,group=1
    29                           	psect	text14,local,class=CODE,merge=1,delta=2,group=1
    30                           	psect	text15,local,class=CODE,merge=1,delta=2,group=1
    31                           	psect	text16,local,class=CODE,merge=1,delta=2
    32                           	psect	text17,local,class=CODE,merge=1,delta=2
    33                           	psect	text18,local,class=CODE,merge=1,delta=2
    34                           	psect	text19,local,class=CODE,merge=1,delta=2
    35                           	psect	text20,local,class=CODE,merge=1,delta=2
    36                           	psect	text21,local,class=CODE,merge=1,delta=2
    37                           	psect	text22,local,class=CODE,merge=1,delta=2,group=2
    38                           	psect	text23,local,class=CODE,merge=1,delta=2
    39                           	psect	text24,local,class=CODE,merge=1,delta=2
    40                           	psect	text25,local,class=CODE,merge=1,delta=2
    41                           	psect	text26,local,class=CODE,merge=1,delta=2
    42                           	psect	text27,local,class=CODE,merge=1,delta=2
    43                           	psect	text28,local,class=CODE,merge=1,delta=2
    44                           	psect	text29,local,class=CODE,merge=1,delta=2
    45                           	psect	text30,local,class=CODE,merge=1,delta=2
    46                           	psect	text31,local,class=CODE,merge=1,delta=2
    47                           	psect	text32,local,class=CODE,merge=1,delta=2
    48                           	psect	text33,local,class=CODE,merge=1,delta=2
    49                           	psect	text34,local,class=CODE,merge=1,delta=2
    50                           	psect	text35,local,class=CODE,merge=1,delta=2
    51                           	psect	text36,local,class=CODE,merge=1,delta=2,group=1
    52                           	psect	text37,local,class=CODE,merge=1,delta=2,group=1
    53                           	psect	text38,local,class=CODE,merge=1,delta=2
    54                           	psect	text39,local,class=CODE,merge=1,delta=2
    55                           	psect	config,global,abs,ovrld,class=CONFIG,space=4,delta=2,noexec
    56                           	dabs	1,0xCA0,32
    57                           	dabs	1,0xC20,80
    58                           	dabs	1,0xBA0,80
    59                           	dabs	1,0xB30,64
    60                           	dabs	1,0xB20,16
    61                           	dabs	1,0xAA0,80
    62                           	dabs	1,0xA20,80
    63                           	dabs	1,0x9A0,80
    64                           	dabs	1,0x920,80
    65                           	dabs	1,0x8A0,80
    66                           	dabs	1,0x820,80
    67                           	dabs	1,0x7E0,16
    68                           	dabs	1,0x24F0,0,_screen_buffer
    69                           	dabs	1,0x26F0,0,OLED_Printf_Line@last_text
    70                           	dabs	1,0x7E,2
    71     0000                     
    72                           ; Generated 07/09/2023 GMT
    73                           ; 
    74                           ; Copyright © 2023, Microchip Technology Inc. and its subsidiaries ("Microchip")
    75                           ; All rights reserved.
    76                           ; 
    77                           ; This software is developed by Microchip Technology Inc. and its subsidiaries ("Microch
      +                          ip").
    78                           ; 
    79                           ; Redistribution and use in source and binary forms, with or without modification, are
    80                           ; permitted provided that the following conditions are met:
    81                           ; 
    82                           ;     1. Redistributions of source code must retain the above copyright notice, this lis
      +                          t of
    83                           ;        conditions and the following disclaimer.
    84                           ; 
    85                           ;     2. Redistributions in binary form must reproduce the above copyright notice, this 
      +                          list
    86                           ;        of conditions and the following disclaimer in the documentation and/or other
    87                           ;        materials provided with the distribution. Publication is not required when
    88                           ;        this file is used in an embedded application.
    89                           ; 
    90                           ;     3. Microchip's name may not be used to endorse or promote products derived from th
      +                          is
    91                           ;        software without specific prior written permission.
    92                           ; 
    93                           ; THIS SOFTWARE IS PROVIDED BY MICROCHIP "AS IS" AND ANY EXPRESS OR IMPLIED WARRANTIES,
    94                           ; INCLUDING, BUT NOT LIMITED TO, THE IMPLIED WARRANTIES OF MERCHANTABILITY AND FITNESS F
      +                          OR
    95                           ; PURPOSE ARE DISCLAIMED.  IN NO EVENT SHALL MICROCHIP BE LIABLE FOR ANY DIRECT, INDIREC
      +                          T,
    96                           ; INCIDENTAL, SPECIAL, EXEMPLARY, OR CONSEQUENTIAL DAMAGES (INCLUDING BUT NOT LIMITED TO
    97                           ; PROCUREMENT OF SUBSTITUTE GOODS OR SERVICES; LOSS OF USE, DATA OR PROFITS; OR BUSINESS
    98                           ; INTERRUPTION) HOWSOEVER CAUSED AND ON ANY THEORY OF LIABILITY, WHETHER IN CONTRACT, ST
      +                          RICT
    99                           ; LIABILITY, OR TORT (INCLUDING NEGLIGENCE OR OTHERWISE) ARISING IN ANY WAY OUT OF THE U
      +                          SE OF
   100                           ; THIS SOFTWARE, EVEN IF ADVISED OF THE POSSIBILITY OF SUCH DAMAGE.
   101                           ; 
   102                           ; 
   103                           ; Code-generator required, PIC16F1718 Definitions
   104                           ; 
   105                           ; SFR Addresses
   106     0000                     	;# 
   107     0001                     	;# 
   108     0002                     	;# 
   109     0003                     	;# 
   110     0004                     	;# 
   111     0005                     	;# 
   112     0006                     	;# 
   113     0007                     	;# 
   114     0008                     	;# 
   115     0009                     	;# 
   116     000A                     	;# 
   117     000B                     	;# 
   118     000C                     	;# 
   119     000D                     	;# 
   120     000E                     	;# 
   121     0010                     	;# 
   122     0011                     	;# 
   123     0012                     	;# 
   124     0013                     	;# 
   125     0015                     	;# 
   126     0016                     	;# 
   127     0016                     	;# 
   128     0017                     	;# 
   129     0018                     	;# 
   130     0019                     	;# 
   131     001A                     	;# 
   132     001B                     	;# 
   133     001C                     	;# 
   134     008C                     	;# 
   135     008D                     	;# 
   136     008E                     	;# 
   137     0090                     	;# 
   138     0091                     	;# 
   139     0092                     	;# 
   140     0093                     	;# 
   141     0095                     	;# 
   142     0096                     	;# 
   143     0097                     	;# 
   144     0098                     	;# 
   145     0099                     	;# 
   146     009A                     	;# 
   147     009B                     	;# 
   148     009B                     	;# 
   149     009C                     	;# 
   150     009D                     	;# 
   151     009E                     	;# 
   152     009F                     	;# 
   153     010C                     	;# 
   154     010D                     	;# 
   155     010E                     	;# 
   156     0111                     	;# 
   157     0112                     	;# 
   158     0113                     	;# 
   159     0114                     	;# 
   160     0115                     	;# 
   161     0116                     	;# 
   162     0117                     	;# 
   163     0118                     	;# 
   164     0119                     	;# 
   165     011A                     	;# 
   166     011B                     	;# 
   167     011B                     	;# 
   168     011C                     	;# 
   169     018C                     	;# 
   170     018D                     	;# 
   171     018E                     	;# 
   172     0191                     	;# 
   173     0191                     	;# 
   174     0192                     	;# 
   175     0193                     	;# 
   176     0193                     	;# 
   177     0194                     	;# 
   178     0195                     	;# 
   179     0196                     	;# 
   180     0197                     	;# 
   181     0199                     	;# 
   182     0199                     	;# 
   183     0199                     	;# 
   184     019A                     	;# 
   185     019A                     	;# 
   186     019A                     	;# 
   187     019B                     	;# 
   188     019B                     	;# 
   189     019B                     	;# 
   190     019B                     	;# 
   191     019B                     	;# 
   192     019C                     	;# 
   193     019C                     	;# 
   194     019C                     	;# 
   195     019D                     	;# 
   196     019D                     	;# 
   197     019D                     	;# 
   198     019E                     	;# 
   199     019E                     	;# 
   200     019E                     	;# 
   201     019F                     	;# 
   202     019F                     	;# 
   203     019F                     	;# 
   204     019F                     	;# 
   205     019F                     	;# 
   206     020C                     	;# 
   207     020D                     	;# 
   208     020E                     	;# 
   209     0210                     	;# 
   210     0211                     	;# 
   211     0211                     	;# 
   212     0212                     	;# 
   213     0212                     	;# 
   214     0213                     	;# 
   215     0213                     	;# 
   216     0214                     	;# 
   217     0214                     	;# 
   218     0215                     	;# 
   219     0215                     	;# 
   220     0215                     	;# 
   221     0215                     	;# 
   222     0216                     	;# 
   223     0216                     	;# 
   224     0217                     	;# 
   225     0217                     	;# 
   226     028C                     	;# 
   227     028D                     	;# 
   228     028E                     	;# 
   229     0291                     	;# 
   230     0291                     	;# 
   231     0292                     	;# 
   232     0293                     	;# 
   233     0293                     	;# 
   234     0298                     	;# 
   235     0298                     	;# 
   236     0299                     	;# 
   237     029A                     	;# 
   238     029A                     	;# 
   239     029E                     	;# 
   240     030C                     	;# 
   241     030D                     	;# 
   242     030E                     	;# 
   243     038C                     	;# 
   244     038D                     	;# 
   245     038E                     	;# 
   246     0390                     	;# 
   247     0391                     	;# 
   248     0392                     	;# 
   249     0393                     	;# 
   250     0394                     	;# 
   251     0395                     	;# 
   252     0396                     	;# 
   253     0397                     	;# 
   254     0398                     	;# 
   255     0399                     	;# 
   256     039D                     	;# 
   257     039E                     	;# 
   258     039F                     	;# 
   259     0415                     	;# 
   260     0416                     	;# 
   261     0417                     	;# 
   262     041C                     	;# 
   263     041D                     	;# 
   264     041E                     	;# 
   265     0498                     	;# 
   266     0498                     	;# 
   267     0499                     	;# 
   268     049A                     	;# 
   269     049B                     	;# 
   270     049B                     	;# 
   271     049C                     	;# 
   272     049D                     	;# 
   273     049E                     	;# 
   274     049F                     	;# 
   275     0511                     	;# 
   276     0515                     	;# 
   277     0617                     	;# 
   278     0618                     	;# 
   279     0619                     	;# 
   280     0619                     	;# 
   281     061A                     	;# 
   282     061B                     	;# 
   283     061C                     	;# 
   284     061C                     	;# 
   285     0691                     	;# 
   286     0692                     	;# 
   287     0693                     	;# 
   288     0694                     	;# 
   289     0695                     	;# 
   290     0696                     	;# 
   291     0697                     	;# 
   292     0698                     	;# 
   293     0699                     	;# 
   294     069A                     	;# 
   295     069B                     	;# 
   296     069C                     	;# 
   297     069D                     	;# 
   298     069E                     	;# 
   299     069F                     	;# 
   300     0E0F                     	;# 
   301     0E10                     	;# 
   302     0E11                     	;# 
   303     0E12                     	;# 
   304     0E13                     	;# 
   305     0E14                     	;# 
   306     0E15                     	;# 
   307     0E17                     	;# 
   308     0E20                     	;# 
   309     0E21                     	;# 
   310     0E22                     	;# 
   311     0E24                     	;# 
   312     0E25                     	;# 
   313     0E28                     	;# 
   314     0E29                     	;# 
   315     0E2A                     	;# 
   316     0E2B                     	;# 
   317     0E90                     	;# 
   318     0E91                     	;# 
   319     0E92                     	;# 
   320     0E93                     	;# 
   321     0E94                     	;# 
   322     0E95                     	;# 
   323     0E96                     	;# 
   324     0E97                     	;# 
   325     0E98                     	;# 
   326     0E99                     	;# 
   327     0E9A                     	;# 
   328     0E9B                     	;# 
   329     0E9C                     	;# 
   330     0E9D                     	;# 
   331     0E9E                     	;# 
   332     0E9F                     	;# 
   333     0EA0                     	;# 
   334     0EA1                     	;# 
   335     0EA2                     	;# 
   336     0EA3                     	;# 
   337     0EA4                     	;# 
   338     0EA5                     	;# 
   339     0EA6                     	;# 
   340     0EA7                     	;# 
   341     0F0F                     	;# 
   342     0F10                     	;# 
   343     0F11                     	;# 
   344     0F12                     	;# 
   345     0F13                     	;# 
   346     0F14                     	;# 
   347     0F15                     	;# 
   348     0F16                     	;# 
   349     0F17                     	;# 
   350     0F18                     	;# 
   351     0F19                     	;# 
   352     0F1A                     	;# 
   353     0F1B                     	;# 
   354     0F1C                     	;# 
   355     0F1D                     	;# 
   356     0F1E                     	;# 
   357     0F1F                     	;# 
   358     0F20                     	;# 
   359     0F21                     	;# 
   360     0F22                     	;# 
   361     0F23                     	;# 
   362     0F24                     	;# 
   363     0F25                     	;# 
   364     0F26                     	;# 
   365     0F27                     	;# 
   366     0F28                     	;# 
   367     0F29                     	;# 
   368     0F2A                     	;# 
   369     0F2B                     	;# 
   370     0F2C                     	;# 
   371     0F2D                     	;# 
   372     0F2E                     	;# 
   373     0F2F                     	;# 
   374     0F30                     	;# 
   375     0F31                     	;# 
   376     0F32                     	;# 
   377     0F33                     	;# 
   378     0F34                     	;# 
   379     0F35                     	;# 
   380     0F36                     	;# 
   381     0F37                     	;# 
   382     0FE4                     	;# 
   383     0FE5                     	;# 
   384     0FE6                     	;# 
   385     0FE7                     	;# 
   386     0FE8                     	;# 
   387     0FE9                     	;# 
   388     0FEA                     	;# 
   389     0FEB                     	;# 
   390     0FED                     	;# 
   391     0FEE                     	;# 
   392     0FEF                     	;# 
   393     0000                     	;# 
   394     0001                     	;# 
   395     0002                     	;# 
   396     0003                     	;# 
   397     0004                     	;# 
   398     0005                     	;# 
   399     0006                     	;# 
   400     0007                     	;# 
   401     0008                     	;# 
   402     0009                     	;# 
   403     000A                     	;# 
   404     000B                     	;# 
   405     000C                     	;# 
   406     000D                     	;# 
   407     000E                     	;# 
   408     0010                     	;# 
   409     0011                     	;# 
   410     0012                     	;# 
   411     0013                     	;# 
   412     0015                     	;# 
   413     0016                     	;# 
   414     0016                     	;# 
   415     0017                     	;# 
   416     0018                     	;# 
   417     0019                     	;# 
   418     001A                     	;# 
   419     001B                     	;# 
   420     001C                     	;# 
   421     008C                     	;# 
   422     008D                     	;# 
   423     008E                     	;# 
   424     0090                     	;# 
   425     0091                     	;# 
   426     0092                     	;# 
   427     0093                     	;# 
   428     0095                     	;# 
   429     0096                     	;# 
   430     0097                     	;# 
   431     0098                     	;# 
   432     0099                     	;# 
   433     009A                     	;# 
   434     009B                     	;# 
   435     009B                     	;# 
   436     009C                     	;# 
   437     009D                     	;# 
   438     009E                     	;# 
   439     009F                     	;# 
   440     010C                     	;# 
   441     010D                     	;# 
   442     010E                     	;# 
   443     0111                     	;# 
   444     0112                     	;# 
   445     0113                     	;# 
   446     0114                     	;# 
   447     0115                     	;# 
   448     0116                     	;# 
   449     0117                     	;# 
   450     0118                     	;# 
   451     0119                     	;# 
   452     011A                     	;# 
   453     011B                     	;# 
   454     011B                     	;# 
   455     011C                     	;# 
   456     018C                     	;# 
   457     018D                     	;# 
   458     018E                     	;# 
   459     0191                     	;# 
   460     0191                     	;# 
   461     0192                     	;# 
   462     0193                     	;# 
   463     0193                     	;# 
   464     0194                     	;# 
   465     0195                     	;# 
   466     0196                     	;# 
   467     0197                     	;# 
   468     0199                     	;# 
   469     0199                     	;# 
   470     0199                     	;# 
   471     019A                     	;# 
   472     019A                     	;# 
   473     019A                     	;# 
   474     019B                     	;# 
   475     019B                     	;# 
   476     019B                     	;# 
   477     019B                     	;# 
   478     019B                     	;# 
   479     019C                     	;# 
   480     019C                     	;# 
   481     019C                     	;# 
   482     019D                     	;# 
   483     019D                     	;# 
   484     019D                     	;# 
   485     019E                     	;# 
   486     019E                     	;# 
   487     019E                     	;# 
   488     019F                     	;# 
   489     019F                     	;# 
   490     019F                     	;# 
   491     019F                     	;# 
   492     019F                     	;# 
   493     020C                     	;# 
   494     020D                     	;# 
   495     020E                     	;# 
   496     0210                     	;# 
   497     0211                     	;# 
   498     0211                     	;# 
   499     0212                     	;# 
   500     0212                     	;# 
   501     0213                     	;# 
   502     0213                     	;# 
   503     0214                     	;# 
   504     0214                     	;# 
   505     0215                     	;# 
   506     0215                     	;# 
   507     0215                     	;# 
   508     0215                     	;# 
   509     0216                     	;# 
   510     0216                     	;# 
   511     0217                     	;# 
   512     0217                     	;# 
   513     028C                     	;# 
   514     028D                     	;# 
   515     028E                     	;# 
   516     0291                     	;# 
   517     0291                     	;# 
   518     0292                     	;# 
   519     0293                     	;# 
   520     0293                     	;# 
   521     0298                     	;# 
   522     0298                     	;# 
   523     0299                     	;# 
   524     029A                     	;# 
   525     029A                     	;# 
   526     029E                     	;# 
   527     030C                     	;# 
   528     030D                     	;# 
   529     030E                     	;# 
   530     038C                     	;# 
   531     038D                     	;# 
   532     038E                     	;# 
   533     0390                     	;# 
   534     0391                     	;# 
   535     0392                     	;# 
   536     0393                     	;# 
   537     0394                     	;# 
   538     0395                     	;# 
   539     0396                     	;# 
   540     0397                     	;# 
   541     0398                     	;# 
   542     0399                     	;# 
   543     039D                     	;# 
   544     039E                     	;# 
   545     039F                     	;# 
   546     0415                     	;# 
   547     0416                     	;# 
   548     0417                     	;# 
   549     041C                     	;# 
   550     041D                     	;# 
   551     041E                     	;# 
   552     0498                     	;# 
   553     0498                     	;# 
   554     0499                     	;# 
   555     049A                     	;# 
   556     049B                     	;# 
   557     049B                     	;# 
   558     049C                     	;# 
   559     049D                     	;# 
   560     049E                     	;# 
   561     049F                     	;# 
   562     0511                     	;# 
   563     0515                     	;# 
   564     0617                     	;# 
   565     0618                     	;# 
   566     0619                     	;# 
   567     0619                     	;# 
   568     061A                     	;# 
   569     061B                     	;# 
   570     061C                     	;# 
   571     061C                     	;# 
   572     0691                     	;# 
   573     0692                     	;# 
   574     0693                     	;# 
   575     0694                     	;# 
   576     0695                     	;# 
   577     0696                     	;# 
   578     0697                     	;# 
   579     0698                     	;# 
   580     0699                     	;# 
   581     069A                     	;# 
   582     069B                     	;# 
   583     069C                     	;# 
   584     069D                     	;# 
   585     069E                     	;# 
   586     069F                     	;# 
   587     0E0F                     	;# 
   588     0E10                     	;# 
   589     0E11                     	;# 
   590     0E12                     	;# 
   591     0E13                     	;# 
   592     0E14                     	;# 
   593     0E15                     	;# 
   594     0E17                     	;# 
   595     0E20                     	;# 
   596     0E21                     	;# 
   597     0E22                     	;# 
   598     0E24                     	;# 
   599     0E25                     	;# 
   600     0E28                     	;# 
   601     0E29                     	;# 
   602     0E2A                     	;# 
   603     0E2B                     	;# 
   604     0E90                     	;# 
   605     0E91                     	;# 
   606     0E92                     	;# 
   607     0E93                     	;# 
   608     0E94                     	;# 
   609     0E95                     	;# 
   610     0E96                     	;# 
   611     0E97                     	;# 
   612     0E98                     	;# 
   613     0E99                     	;# 
   614     0E9A                     	;# 
   615     0E9B                     	;# 
   616     0E9C                     	;# 
   617     0E9D                     	;# 
   618     0E9E                     	;# 
   619     0E9F                     	;# 
   620     0EA0                     	;# 
   621     0EA1                     	;# 
   622     0EA2                     	;# 
   623     0EA3                     	;# 
   624     0EA4                     	;# 
   625     0EA5                     	;# 
   626     0EA6                     	;# 
   627     0EA7                     	;# 
   628     0F0F                     	;# 
   629     0F10                     	;# 
   630     0F11                     	;# 
   631     0F12                     	;# 
   632     0F13                     	;# 
   633     0F14                     	;# 
   634     0F15                     	;# 
   635     0F16                     	;# 
   636     0F17                     	;# 
   637     0F18                     	;# 
   638     0F19                     	;# 
   639     0F1A                     	;# 
   640     0F1B                     	;# 
   641     0F1C                     	;# 
   642     0F1D                     	;# 
   643     0F1E                     	;# 
   644     0F1F                     	;# 
   645     0F20                     	;# 
   646     0F21                     	;# 
   647     0F22                     	;# 
   648     0F23                     	;# 
   649     0F24                     	;# 
   650     0F25                     	;# 
   651     0F26                     	;# 
   652     0F27                     	;# 
   653     0F28                     	;# 
   654     0F29                     	;# 
   655     0F2A                     	;# 
   656     0F2B                     	;# 
   657     0F2C                     	;# 
   658     0F2D                     	;# 
   659     0F2E                     	;# 
   660     0F2F                     	;# 
   661     0F30                     	;# 
   662     0F31                     	;# 
   663     0F32                     	;# 
   664     0F33                     	;# 
   665     0F34                     	;# 
   666     0F35                     	;# 
   667     0F36                     	;# 
   668     0F37                     	;# 
   669     0FE4                     	;# 
   670     0FE5                     	;# 
   671     0FE6                     	;# 
   672     0FE7                     	;# 
   673     0FE8                     	;# 
   674     0FE9                     	;# 
   675     0FEA                     	;# 
   676     0FEB                     	;# 
   677     0FED                     	;# 
   678     0FEE                     	;# 
   679     0FEF                     	;# 
   680     0000                     	;# 
   681     0001                     	;# 
   682     0002                     	;# 
   683     0003                     	;# 
   684     0004                     	;# 
   685     0005                     	;# 
   686     0006                     	;# 
   687     0007                     	;# 
   688     0008                     	;# 
   689     0009                     	;# 
   690     000A                     	;# 
   691     000B                     	;# 
   692     000C                     	;# 
   693     000D                     	;# 
   694     000E                     	;# 
   695     0010                     	;# 
   696     0011                     	;# 
   697     0012                     	;# 
   698     0013                     	;# 
   699     0015                     	;# 
   700     0016                     	;# 
   701     0016                     	;# 
   702     0017                     	;# 
   703     0018                     	;# 
   704     0019                     	;# 
   705     001A                     	;# 
   706     001B                     	;# 
   707     001C                     	;# 
   708     008C                     	;# 
   709     008D                     	;# 
   710     008E                     	;# 
   711     0090                     	;# 
   712     0091                     	;# 
   713     0092                     	;# 
   714     0093                     	;# 
   715     0095                     	;# 
   716     0096                     	;# 
   717     0097                     	;# 
   718     0098                     	;# 
   719     0099                     	;# 
   720     009A                     	;# 
   721     009B                     	;# 
   722     009B                     	;# 
   723     009C                     	;# 
   724     009D                     	;# 
   725     009E                     	;# 
   726     009F                     	;# 
   727     010C                     	;# 
   728     010D                     	;# 
   729     010E                     	;# 
   730     0111                     	;# 
   731     0112                     	;# 
   732     0113                     	;# 
   733     0114                     	;# 
   734     0115                     	;# 
   735     0116                     	;# 
   736     0117                     	;# 
   737     0118                     	;# 
   738     0119                     	;# 
   739     011A                     	;# 
   740     011B                     	;# 
   741     011B                     	;# 
   742     011C                     	;# 
   743     018C                     	;# 
   744     018D                     	;# 
   745     018E                     	;# 
   746     0191                     	;# 
   747     0191                     	;# 
   748     0192                     	;# 
   749     0193                     	;# 
   750     0193                     	;# 
   751     0194                     	;# 
   752     0195                     	;# 
   753     0196                     	;# 
   754     0197                     	;# 
   755     0199                     	;# 
   756     0199                     	;# 
   757     0199                     	;# 
   758     019A                     	;# 
   759     019A                     	;# 
   760     019A                     	;# 
   761     019B                     	;# 
   762     019B                     	;# 
   763     019B                     	;# 
   764     019B                     	;# 
   765     019B                     	;# 
   766     019C                     	;# 
   767     019C                     	;# 
   768     019C                     	;# 
   769     019D                     	;# 
   770     019D                     	;# 
   771     019D                     	;# 
   772     019E                     	;# 
   773     019E                     	;# 
   774     019E                     	;# 
   775     019F                     	;# 
   776     019F                     	;# 
   777     019F                     	;# 
   778     019F                     	;# 
   779     019F                     	;# 
   780     020C                     	;# 
   781     020D                     	;# 
   782     020E                     	;# 
   783     0210                     	;# 
   784     0211                     	;# 
   785     0211                     	;# 
   786     0212                     	;# 
   787     0212                     	;# 
   788     0213                     	;# 
   789     0213                     	;# 
   790     0214                     	;# 
   791     0214                     	;# 
   792     0215                     	;# 
   793     0215                     	;# 
   794     0215                     	;# 
   795     0215                     	;# 
   796     0216                     	;# 
   797     0216                     	;# 
   798     0217                     	;# 
   799     0217                     	;# 
   800     028C                     	;# 
   801     028D                     	;# 
   802     028E                     	;# 
   803     0291                     	;# 
   804     0291                     	;# 
   805     0292                     	;# 
   806     0293                     	;# 
   807     0293                     	;# 
   808     0298                     	;# 
   809     0298                     	;# 
   810     0299                     	;# 
   811     029A                     	;# 
   812     029A                     	;# 
   813     029E                     	;# 
   814     030C                     	;# 
   815     030D                     	;# 
   816     030E                     	;# 
   817     038C                     	;# 
   818     038D                     	;# 
   819     038E                     	;# 
   820     0390                     	;# 
   821     0391                     	;# 
   822     0392                     	;# 
   823     0393                     	;# 
   824     0394                     	;# 
   825     0395                     	;# 
   826     0396                     	;# 
   827     0397                     	;# 
   828     0398                     	;# 
   829     0399                     	;# 
   830     039D                     	;# 
   831     039E                     	;# 
   832     039F                     	;# 
   833     0415                     	;# 
   834     0416                     	;# 
   835     0417                     	;# 
   836     041C                     	;# 
   837     041D                     	;# 
   838     041E                     	;# 
   839     0498                     	;# 
   840     0498                     	;# 
   841     0499                     	;# 
   842     049A                     	;# 
   843     049B                     	;# 
   844     049B                     	;# 
   845     049C                     	;# 
   846     049D                     	;# 
   847     049E                     	;# 
   848     049F                     	;# 
   849     0511                     	;# 
   850     0515                     	;# 
   851     0617                     	;# 
   852     0618                     	;# 
   853     0619                     	;# 
   854     0619                     	;# 
   855     061A                     	;# 
   856     061B                     	;# 
   857     061C                     	;# 
   858     061C                     	;# 
   859     0691                     	;# 
   860     0692                     	;# 
   861     0693                     	;# 
   862     0694                     	;# 
   863     0695                     	;# 
   864     0696                     	;# 
   865     0697                     	;# 
   866     0698                     	;# 
   867     0699                     	;# 
   868     069A                     	;# 
   869     069B                     	;# 
   870     069C                     	;# 
   871     069D                     	;# 
   872     069E                     	;# 
   873     069F                     	;# 
   874     0E0F                     	;# 
   875     0E10                     	;# 
   876     0E11                     	;# 
   877     0E12                     	;# 
   878     0E13                     	;# 
   879     0E14                     	;# 
   880     0E15                     	;# 
   881     0E17                     	;# 
   882     0E20                     	;# 
   883     0E21                     	;# 
   884     0E22                     	;# 
   885     0E24                     	;# 
   886     0E25                     	;# 
   887     0E28                     	;# 
   888     0E29                     	;# 
   889     0E2A                     	;# 
   890     0E2B                     	;# 
   891     0E90                     	;# 
   892     0E91                     	;# 
   893     0E92                     	;# 
   894     0E93                     	;# 
   895     0E94                     	;# 
   896     0E95                     	;# 
   897     0E96                     	;# 
   898     0E97                     	;# 
   899     0E98                     	;# 
   900     0E99                     	;# 
   901     0E9A                     	;# 
   902     0E9B                     	;# 
   903     0E9C                     	;# 
   904     0E9D                     	;# 
   905     0E9E                     	;# 
   906     0E9F                     	;# 
   907     0EA0                     	;# 
   908     0EA1                     	;# 
   909     0EA2                     	;# 
   910     0EA3                     	;# 
   911     0EA4                     	;# 
   912     0EA5                     	;# 
   913     0EA6                     	;# 
   914     0EA7                     	;# 
   915     0F0F                     	;# 
   916     0F10                     	;# 
   917     0F11                     	;# 
   918     0F12                     	;# 
   919     0F13                     	;# 
   920     0F14                     	;# 
   921     0F15                     	;# 
   922     0F16                     	;# 
   923     0F17                     	;# 
   924     0F18                     	;# 
   925     0F19                     	;# 
   926     0F1A                     	;# 
   927     0F1B                     	;# 
   928     0F1C                     	;# 
   929     0F1D                     	;# 
   930     0F1E                     	;# 
   931     0F1F                     	;# 
   932     0F20                     	;# 
   933     0F21                     	;# 
   934     0F22                     	;# 
   935     0F23                     	;# 
   936     0F24                     	;# 
   937     0F25                     	;# 
   938     0F26                     	;# 
   939     0F27                     	;# 
   940     0F28                     	;# 
   941     0F29                     	;# 
   942     0F2A                     	;# 
   943     0F2B                     	;# 
   944     0F2C                     	;# 
   945     0F2D                     	;# 
   946     0F2E                     	;# 
   947     0F2F                     	;# 
   948     0F30                     	;# 
   949     0F31                     	;# 
   950     0F32                     	;# 
   951     0F33                     	;# 
   952     0F34                     	;# 
   953     0F35                     	;# 
   954     0F36                     	;# 
   955     0F37                     	;# 
   956     0FE4                     	;# 
   957     0FE5                     	;# 
   958     0FE6                     	;# 
   959     0FE7                     	;# 
   960     0FE8                     	;# 
   961     0FE9                     	;# 
   962     0FEA                     	;# 
   963     0FEB                     	;# 
   964     0FED                     	;# 
   965     0FEE                     	;# 
   966     0FEF                     	;# 
   967     0000                     	;# 
   968     0001                     	;# 
   969     0002                     	;# 
   970     0003                     	;# 
   971     0004                     	;# 
   972     0005                     	;# 
   973     0006                     	;# 
   974     0007                     	;# 
   975     0008                     	;# 
   976     0009                     	;# 
   977     000A                     	;# 
   978     000B                     	;# 
   979     000C                     	;# 
   980     000D                     	;# 
   981     000E                     	;# 
   982     0010                     	;# 
   983     0011                     	;# 
   984     0012                     	;# 
   985     0013                     	;# 
   986     0015                     	;# 
   987     0016                     	;# 
   988     0016                     	;# 
   989     0017                     	;# 
   990     0018                     	;# 
   991     0019                     	;# 
   992     001A                     	;# 
   993     001B                     	;# 
   994     001C                     	;# 
   995     008C                     	;# 
   996     008D                     	;# 
   997     008E                     	;# 
   998     0090                     	;# 
   999     0091                     	;# 
  1000     0092                     	;# 
  1001     0093                     	;# 
  1002     0095                     	;# 
  1003     0096                     	;# 
  1004     0097                     	;# 
  1005     0098                     	;# 
  1006     0099                     	;# 
  1007     009A                     	;# 
  1008     009B                     	;# 
  1009     009B                     	;# 
  1010     009C                     	;# 
  1011     009D                     	;# 
  1012     009E                     	;# 
  1013     009F                     	;# 
  1014     010C                     	;# 
  1015     010D                     	;# 
  1016     010E                     	;# 
  1017     0111                     	;# 
  1018     0112                     	;# 
  1019     0113                     	;# 
  1020     0114                     	;# 
  1021     0115                     	;# 
  1022     0116                     	;# 
  1023     0117                     	;# 
  1024     0118                     	;# 
  1025     0119                     	;# 
  1026     011A                     	;# 
  1027     011B                     	;# 
  1028     011B                     	;# 
  1029     011C                     	;# 
  1030     018C                     	;# 
  1031     018D                     	;# 
  1032     018E                     	;# 
  1033     0191                     	;# 
  1034     0191                     	;# 
  1035     0192                     	;# 
  1036     0193                     	;# 
  1037     0193                     	;# 
  1038     0194                     	;# 
  1039     0195                     	;# 
  1040     0196                     	;# 
  1041     0197                     	;# 
  1042     0199                     	;# 
  1043     0199                     	;# 
  1044     0199                     	;# 
  1045     019A                     	;# 
  1046     019A                     	;# 
  1047     019A                     	;# 
  1048     019B                     	;# 
  1049     019B                     	;# 
  1050     019B                     	;# 
  1051     019B                     	;# 
  1052     019B                     	;# 
  1053     019C                     	;# 
  1054     019C                     	;# 
  1055     019C                     	;# 
  1056     019D                     	;# 
  1057     019D                     	;# 
  1058     019D                     	;# 
  1059     019E                     	;# 
  1060     019E                     	;# 
  1061     019E                     	;# 
  1062     019F                     	;# 
  1063     019F                     	;# 
  1064     019F                     	;# 
  1065     019F                     	;# 
  1066     019F                     	;# 
  1067     020C                     	;# 
  1068     020D                     	;# 
  1069     020E                     	;# 
  1070     0210                     	;# 
  1071     0211                     	;# 
  1072     0211                     	;# 
  1073     0212                     	;# 
  1074     0212                     	;# 
  1075     0213                     	;# 
  1076     0213                     	;# 
  1077     0214                     	;# 
  1078     0214                     	;# 
  1079     0215                     	;# 
  1080     0215                     	;# 
  1081     0215                     	;# 
  1082     0215                     	;# 
  1083     0216                     	;# 
  1084     0216                     	;# 
  1085     0217                     	;# 
  1086     0217                     	;# 
  1087     028C                     	;# 
  1088     028D                     	;# 
  1089     028E                     	;# 
  1090     0291                     	;# 
  1091     0291                     	;# 
  1092     0292                     	;# 
  1093     0293                     	;# 
  1094     0293                     	;# 
  1095     0298                     	;# 
  1096     0298                     	;# 
  1097     0299                     	;# 
  1098     029A                     	;# 
  1099     029A                     	;# 
  1100     029E                     	;# 
  1101     030C                     	;# 
  1102     030D                     	;# 
  1103     030E                     	;# 
  1104     038C                     	;# 
  1105     038D                     	;# 
  1106     038E                     	;# 
  1107     0390                     	;# 
  1108     0391                     	;# 
  1109     0392                     	;# 
  1110     0393                     	;# 
  1111     0394                     	;# 
  1112     0395                     	;# 
  1113     0396                     	;# 
  1114     0397                     	;# 
  1115     0398                     	;# 
  1116     0399                     	;# 
  1117     039D                     	;# 
  1118     039E                     	;# 
  1119     039F                     	;# 
  1120     0415                     	;# 
  1121     0416                     	;# 
  1122     0417                     	;# 
  1123     041C                     	;# 
  1124     041D                     	;# 
  1125     041E                     	;# 
  1126     0498                     	;# 
  1127     0498                     	;# 
  1128     0499                     	;# 
  1129     049A                     	;# 
  1130     049B                     	;# 
  1131     049B                     	;# 
  1132     049C                     	;# 
  1133     049D                     	;# 
  1134     049E                     	;# 
  1135     049F                     	;# 
  1136     0511                     	;# 
  1137     0515                     	;# 
  1138     0617                     	;# 
  1139     0618                     	;# 
  1140     0619                     	;# 
  1141     0619                     	;# 
  1142     061A                     	;# 
  1143     061B                     	;# 
  1144     061C                     	;# 
  1145     061C                     	;# 
  1146     0691                     	;# 
  1147     0692                     	;# 
  1148     0693                     	;# 
  1149     0694                     	;# 
  1150     0695                     	;# 
  1151     0696                     	;# 
  1152     0697                     	;# 
  1153     0698                     	;# 
  1154     0699                     	;# 
  1155     069A                     	;# 
  1156     069B                     	;# 
  1157     069C                     	;# 
  1158     069D                     	;# 
  1159     069E                     	;# 
  1160     069F                     	;# 
  1161     0E0F                     	;# 
  1162     0E10                     	;# 
  1163     0E11                     	;# 
  1164     0E12                     	;# 
  1165     0E13                     	;# 
  1166     0E14                     	;# 
  1167     0E15                     	;# 
  1168     0E17                     	;# 
  1169     0E20                     	;# 
  1170     0E21                     	;# 
  1171     0E22                     	;# 
  1172     0E24                     	;# 
  1173     0E25                     	;# 
  1174     0E28                     	;# 
  1175     0E29                     	;# 
  1176     0E2A                     	;# 
  1177     0E2B                     	;# 
  1178     0E90                     	;# 
  1179     0E91                     	;# 
  1180     0E92                     	;# 
  1181     0E93                     	;# 
  1182     0E94                     	;# 
  1183     0E95                     	;# 
  1184     0E96                     	;# 
  1185     0E97                     	;# 
  1186     0E98                     	;# 
  1187     0E99                     	;# 
  1188     0E9A                     	;# 
  1189     0E9B                     	;# 
  1190     0E9C                     	;# 
  1191     0E9D                     	;# 
  1192     0E9E                     	;# 
  1193     0E9F                     	;# 
  1194     0EA0                     	;# 
  1195     0EA1                     	;# 
  1196     0EA2                     	;# 
  1197     0EA3                     	;# 
  1198     0EA4                     	;# 
  1199     0EA5                     	;# 
  1200     0EA6                     	;# 
  1201     0EA7                     	;# 
  1202     0F0F                     	;# 
  1203     0F10                     	;# 
  1204     0F11                     	;# 
  1205     0F12                     	;# 
  1206     0F13                     	;# 
  1207     0F14                     	;# 
  1208     0F15                     	;# 
  1209     0F16                     	;# 
  1210     0F17                     	;# 
  1211     0F18                     	;# 
  1212     0F19                     	;# 
  1213     0F1A                     	;# 
  1214     0F1B                     	;# 
  1215     0F1C                     	;# 
  1216     0F1D                     	;# 
  1217     0F1E                     	;# 
  1218     0F1F                     	;# 
  1219     0F20                     	;# 
  1220     0F21                     	;# 
  1221     0F22                     	;# 
  1222     0F23                     	;# 
  1223     0F24                     	;# 
  1224     0F25                     	;# 
  1225     0F26                     	;# 
  1226     0F27                     	;# 
  1227     0F28                     	;# 
  1228     0F29                     	;# 
  1229     0F2A                     	;# 
  1230     0F2B                     	;# 
  1231     0F2C                     	;# 
  1232     0F2D                     	;# 
  1233     0F2E                     	;# 
  1234     0F2F                     	;# 
  1235     0F30                     	;# 
  1236     0F31                     	;# 
  1237     0F32                     	;# 
  1238     0F33                     	;# 
  1239     0F34                     	;# 
  1240     0F35                     	;# 
  1241     0F36                     	;# 
  1242     0F37                     	;# 
  1243     0FE4                     	;# 
  1244     0FE5                     	;# 
  1245     0FE6                     	;# 
  1246     0FE7                     	;# 
  1247     0FE8                     	;# 
  1248     0FE9                     	;# 
  1249     0FEA                     	;# 
  1250     0FEB                     	;# 
  1251     0FED                     	;# 
  1252     0FEE                     	;# 
  1253     0FEF                     	;# 
  1254     0000                     	;# 
  1255     0001                     	;# 
  1256     0002                     	;# 
  1257     0003                     	;# 
  1258     0004                     	;# 
  1259     0005                     	;# 
  1260     0006                     	;# 
  1261     0007                     	;# 
  1262     0008                     	;# 
  1263     0009                     	;# 
  1264     000A                     	;# 
  1265     000B                     	;# 
  1266     000C                     	;# 
  1267     000D                     	;# 
  1268     000E                     	;# 
  1269     0010                     	;# 
  1270     0011                     	;# 
  1271     0012                     	;# 
  1272     0013                     	;# 
  1273     0015                     	;# 
  1274     0016                     	;# 
  1275     0016                     	;# 
  1276     0017                     	;# 
  1277     0018                     	;# 
  1278     0019                     	;# 
  1279     001A                     	;# 
  1280     001B                     	;# 
  1281     001C                     	;# 
  1282     008C                     	;# 
  1283     008D                     	;# 
  1284     008E                     	;# 
  1285     0090                     	;# 
  1286     0091                     	;# 
  1287     0092                     	;# 
  1288     0093                     	;# 
  1289     0095                     	;# 
  1290     0096                     	;# 
  1291     0097                     	;# 
  1292     0098                     	;# 
  1293     0099                     	;# 
  1294     009A                     	;# 
  1295     009B                     	;# 
  1296     009B                     	;# 
  1297     009C                     	;# 
  1298     009D                     	;# 
  1299     009E                     	;# 
  1300     009F                     	;# 
  1301     010C                     	;# 
  1302     010D                     	;# 
  1303     010E                     	;# 
  1304     0111                     	;# 
  1305     0112                     	;# 
  1306     0113                     	;# 
  1307     0114                     	;# 
  1308     0115                     	;# 
  1309     0116                     	;# 
  1310     0117                     	;# 
  1311     0118                     	;# 
  1312     0119                     	;# 
  1313     011A                     	;# 
  1314     011B                     	;# 
  1315     011B                     	;# 
  1316     011C                     	;# 
  1317     018C                     	;# 
  1318     018D                     	;# 
  1319     018E                     	;# 
  1320     0191                     	;# 
  1321     0191                     	;# 
  1322     0192                     	;# 
  1323     0193                     	;# 
  1324     0193                     	;# 
  1325     0194                     	;# 
  1326     0195                     	;# 
  1327     0196                     	;# 
  1328     0197                     	;# 
  1329     0199                     	;# 
  1330     0199                     	;# 
  1331     0199                     	;# 
  1332     019A                     	;# 
  1333     019A                     	;# 
  1334     019A                     	;# 
  1335     019B                     	;# 
  1336     019B                     	;# 
  1337     019B                     	;# 
  1338     019B                     	;# 
  1339     019B                     	;# 
  1340     019C                     	;# 
  1341     019C                     	;# 
  1342     019C                     	;# 
  1343     019D                     	;# 
  1344     019D                     	;# 
  1345     019D                     	;# 
  1346     019E                     	;# 
  1347     019E                     	;# 
  1348     019E                     	;# 
  1349     019F                     	;# 
  1350     019F                     	;# 
  1351     019F                     	;# 
  1352     019F                     	;# 
  1353     019F                     	;# 
  1354     020C                     	;# 
  1355     020D                     	;# 
  1356     020E                     	;# 
  1357     0210                     	;# 
  1358     0211                     	;# 
  1359     0211                     	;# 
  1360     0212                     	;# 
  1361     0212                     	;# 
  1362     0213                     	;# 
  1363     0213                     	;# 
  1364     0214                     	;# 
  1365     0214                     	;# 
  1366     0215                     	;# 
  1367     0215                     	;# 
  1368     0215                     	;# 
  1369     0215                     	;# 
  1370     0216                     	;# 
  1371     0216                     	;# 
  1372     0217                     	;# 
  1373     0217                     	;# 
  1374     028C                     	;# 
  1375     028D                     	;# 
  1376     028E                     	;# 
  1377     0291                     	;# 
  1378     0291                     	;# 
  1379     0292                     	;# 
  1380     0293                     	;# 
  1381     0293                     	;# 
  1382     0298                     	;# 
  1383     0298                     	;# 
  1384     0299                     	;# 
  1385     029A                     	;# 
  1386     029A                     	;# 
  1387     029E                     	;# 
  1388     030C                     	;# 
  1389     030D                     	;# 
  1390     030E                     	;# 
  1391     038C                     	;# 
  1392     038D                     	;# 
  1393     038E                     	;# 
  1394     0390                     	;# 
  1395     0391                     	;# 
  1396     0392                     	;# 
  1397     0393                     	;# 
  1398     0394                     	;# 
  1399     0395                     	;# 
  1400     0396                     	;# 
  1401     0397                     	;# 
  1402     0398                     	;# 
  1403     0399                     	;# 
  1404     039D                     	;# 
  1405     039E                     	;# 
  1406     039F                     	;# 
  1407     0415                     	;# 
  1408     0416                     	;# 
  1409     0417                     	;# 
  1410     041C                     	;# 
  1411     041D                     	;# 
  1412     041E                     	;# 
  1413     0498                     	;# 
  1414     0498                     	;# 
  1415     0499                     	;# 
  1416     049A                     	;# 
  1417     049B                     	;# 
  1418     049B                     	;# 
  1419     049C                     	;# 
  1420     049D                     	;# 
  1421     049E                     	;# 
  1422     049F                     	;# 
  1423     0511                     	;# 
  1424     0515                     	;# 
  1425     0617                     	;# 
  1426     0618                     	;# 
  1427     0619                     	;# 
  1428     0619                     	;# 
  1429     061A                     	;# 
  1430     061B                     	;# 
  1431     061C                     	;# 
  1432     061C                     	;# 
  1433     0691                     	;# 
  1434     0692                     	;# 
  1435     0693                     	;# 
  1436     0694                     	;# 
  1437     0695                     	;# 
  1438     0696                     	;# 
  1439     0697                     	;# 
  1440     0698                     	;# 
  1441     0699                     	;# 
  1442     069A                     	;# 
  1443     069B                     	;# 
  1444     069C                     	;# 
  1445     069D                     	;# 
  1446     069E                     	;# 
  1447     069F                     	;# 
  1448     0E0F                     	;# 
  1449     0E10                     	;# 
  1450     0E11                     	;# 
  1451     0E12                     	;# 
  1452     0E13                     	;# 
  1453     0E14                     	;# 
  1454     0E15                     	;# 
  1455     0E17                     	;# 
  1456     0E20                     	;# 
  1457     0E21                     	;# 
  1458     0E22                     	;# 
  1459     0E24                     	;# 
  1460     0E25                     	;# 
  1461     0E28                     	;# 
  1462     0E29                     	;# 
  1463     0E2A                     	;# 
  1464     0E2B                     	;# 
  1465     0E90                     	;# 
  1466     0E91                     	;# 
  1467     0E92                     	;# 
  1468     0E93                     	;# 
  1469     0E94                     	;# 
  1470     0E95                     	;# 
  1471     0E96                     	;# 
  1472     0E97                     	;# 
  1473     0E98                     	;# 
  1474     0E99                     	;# 
  1475     0E9A                     	;# 
  1476     0E9B                     	;# 
  1477     0E9C                     	;# 
  1478     0E9D                     	;# 
  1479     0E9E                     	;# 
  1480     0E9F                     	;# 
  1481     0EA0                     	;# 
  1482     0EA1                     	;# 
  1483     0EA2                     	;# 
  1484     0EA3                     	;# 
  1485     0EA4                     	;# 
  1486     0EA5                     	;# 
  1487     0EA6                     	;# 
  1488     0EA7                     	;# 
  1489     0F0F                     	;# 
  1490     0F10                     	;# 
  1491     0F11                     	;# 
  1492     0F12                     	;# 
  1493     0F13                     	;# 
  1494     0F14                     	;# 
  1495     0F15                     	;# 
  1496     0F16                     	;# 
  1497     0F17                     	;# 
  1498     0F18                     	;# 
  1499     0F19                     	;# 
  1500     0F1A                     	;# 
  1501     0F1B                     	;# 
  1502     0F1C                     	;# 
  1503     0F1D                     	;# 
  1504     0F1E                     	;# 
  1505     0F1F                     	;# 
  1506     0F20                     	;# 
  1507     0F21                     	;# 
  1508     0F22                     	;# 
  1509     0F23                     	;# 
  1510     0F24                     	;# 
  1511     0F25                     	;# 
  1512     0F26                     	;# 
  1513     0F27                     	;# 
  1514     0F28                     	;# 
  1515     0F29                     	;# 
  1516     0F2A                     	;# 
  1517     0F2B                     	;# 
  1518     0F2C                     	;# 
  1519     0F2D                     	;# 
  1520     0F2E                     	;# 
  1521     0F2F                     	;# 
  1522     0F30                     	;# 
  1523     0F31                     	;# 
  1524     0F32                     	;# 
  1525     0F33                     	;# 
  1526     0F34                     	;# 
  1527     0F35                     	;# 
  1528     0F36                     	;# 
  1529     0F37                     	;# 
  1530     0FE4                     	;# 
  1531     0FE5                     	;# 
  1532     0FE6                     	;# 
  1533     0FE7                     	;# 
  1534     0FE8                     	;# 
  1535     0FE9                     	;# 
  1536     0FEA                     	;# 
  1537     0FEB                     	;# 
  1538     0FED                     	;# 
  1539     0FEE                     	;# 
  1540     0FEF                     	;_screen_buffer
  1541                           
  1542                           	psect	idataBANK1
  1543     0004                     __pidataBANK1:
  1544                           
  1545                           ;initializer for main@ast_date_701
  1546     0004  34FF               	retlw	255
  1547                           
  1548                           	psect	stringtext1
  1549     1815                     __pstringtext1:
  1550     1815                     _BatteryIcon:
  1551     1815  34FF               	retlw	255
  1552     1816  3481               	retlw	129
  1553     1817  34BD               	retlw	189
  1554     1818  34BD               	retlw	189
  1555     1819  34BD               	retlw	189
  1556     181A  3481               	retlw	129
  1557     181B  34FF               	retlw	255
  1558     181C  3418               	retlw	24
  1559     181D  3400               	retlw	0
  1560     181E  3400               	retlw	0
  1561     181F                     __end_of_BatteryIcon:
  1562                           
  1563                           	psect	stringtext2
  1564     0800                     __pstringtext2:
  1565     0800                     _OledFont:
  1566     0800  3400               	retlw	0
  1567     0801  3400               	retlw	0
  1568     0802  3400               	retlw	0
  1569     0803  3400               	retlw	0
  1570     0804  3400               	retlw	0
  1571     0805  3400               	retlw	0
  1572     0806  3400               	retlw	0
  1573     0807  3400               	retlw	0
  1574     0808  3400               	retlw	0
  1575     0809  3400               	retlw	0
  1576     080A  345F               	retlw	95
  1577     080B  3400               	retlw	0
  1578     080C  3400               	retlw	0
  1579     080D  3400               	retlw	0
  1580     080E  3400               	retlw	0
  1581     080F  3400               	retlw	0
  1582     0810  3400               	retlw	0
  1583     0811  3400               	retlw	0
  1584     0812  3407               	retlw	7
  1585     0813  3400               	retlw	0
  1586     0814  3407               	retlw	7
  1587     0815  3400               	retlw	0
  1588     0816  3400               	retlw	0
  1589     0817  3400               	retlw	0
  1590     0818  3400               	retlw	0
  1591     0819  3414               	retlw	20
  1592     081A  347F               	retlw	127
  1593     081B  3414               	retlw	20
  1594     081C  347F               	retlw	127
  1595     081D  3414               	retlw	20
  1596     081E  3400               	retlw	0
  1597     081F  3400               	retlw	0
  1598     0820  3400               	retlw	0
  1599     0821  3424               	retlw	36
  1600     0822  342A               	retlw	42
  1601     0823  347F               	retlw	127
  1602     0824  342A               	retlw	42
  1603     0825  3412               	retlw	18
  1604     0826  3400               	retlw	0
  1605     0827  3400               	retlw	0
  1606     0828  3400               	retlw	0
  1607     0829  3423               	retlw	35
  1608     082A  3413               	retlw	19
  1609     082B  3408               	retlw	8
  1610     082C  3464               	retlw	100
  1611     082D  3462               	retlw	98
  1612     082E  3400               	retlw	0
  1613     082F  3400               	retlw	0
  1614     0830  3400               	retlw	0
  1615     0831  3436               	retlw	54
  1616     0832  3449               	retlw	73
  1617     0833  3455               	retlw	85
  1618     0834  3422               	retlw	34
  1619     0835  3450               	retlw	80
  1620     0836  3400               	retlw	0
  1621     0837  3400               	retlw	0
  1622     0838  3400               	retlw	0
  1623     0839  3400               	retlw	0
  1624     083A  3405               	retlw	5
  1625     083B  3403               	retlw	3
  1626     083C  3400               	retlw	0
  1627     083D  3400               	retlw	0
  1628     083E  3400               	retlw	0
  1629     083F  3400               	retlw	0
  1630     0840  3400               	retlw	0
  1631     0841  341C               	retlw	28
  1632     0842  3422               	retlw	34
  1633     0843  3441               	retlw	65
  1634     0844  3400               	retlw	0
  1635     0845  3400               	retlw	0
  1636     0846  3400               	retlw	0
  1637     0847  3400               	retlw	0
  1638     0848  3400               	retlw	0
  1639     0849  3441               	retlw	65
  1640     084A  3422               	retlw	34
  1641     084B  341C               	retlw	28
  1642     084C  3400               	retlw	0
  1643     084D  3400               	retlw	0
  1644     084E  3400               	retlw	0
  1645     084F  3400               	retlw	0
  1646     0850  3400               	retlw	0
  1647     0851  3408               	retlw	8
  1648     0852  342A               	retlw	42
  1649     0853  341C               	retlw	28
  1650     0854  342A               	retlw	42
  1651     0855  3408               	retlw	8
  1652     0856  3400               	retlw	0
  1653     0857  3400               	retlw	0
  1654     0858  3400               	retlw	0
  1655     0859  3408               	retlw	8
  1656     085A  3408               	retlw	8
  1657     085B  343E               	retlw	62
  1658     085C  3408               	retlw	8
  1659     085D  3408               	retlw	8
  1660     085E  3400               	retlw	0
  1661     085F  3400               	retlw	0
  1662     0860  3400               	retlw	0
  1663     0861  34A0               	retlw	160
  1664     0862  3460               	retlw	96
  1665     0863  3400               	retlw	0
  1666     0864  3400               	retlw	0
  1667     0865  3400               	retlw	0
  1668     0866  3400               	retlw	0
  1669     0867  3400               	retlw	0
  1670     0868  3400               	retlw	0
  1671     0869  3408               	retlw	8
  1672     086A  3408               	retlw	8
  1673     086B  3408               	retlw	8
  1674     086C  3408               	retlw	8
  1675     086D  3408               	retlw	8
  1676     086E  3400               	retlw	0
  1677     086F  3400               	retlw	0
  1678     0870  3400               	retlw	0
  1679     0871  3460               	retlw	96
  1680     0872  3460               	retlw	96
  1681     0873  3400               	retlw	0
  1682     0874  3400               	retlw	0
  1683     0875  3400               	retlw	0
  1684     0876  3400               	retlw	0
  1685     0877  3400               	retlw	0
  1686     0878  3400               	retlw	0
  1687     0879  3420               	retlw	32
  1688     087A  3410               	retlw	16
  1689     087B  3408               	retlw	8
  1690     087C  3404               	retlw	4
  1691     087D  3402               	retlw	2
  1692     087E  3400               	retlw	0
  1693     087F  3400               	retlw	0
  1694     0880  3400               	retlw	0
  1695     0881  343E               	retlw	62
  1696     0882  3451               	retlw	81
  1697     0883  3449               	retlw	73
  1698     0884  3445               	retlw	69
  1699     0885  343E               	retlw	62
  1700     0886  3400               	retlw	0
  1701     0887  3400               	retlw	0
  1702     0888  3400               	retlw	0
  1703     0889  3400               	retlw	0
  1704     088A  3442               	retlw	66
  1705     088B  347F               	retlw	127
  1706     088C  3440               	retlw	64
  1707     088D  3400               	retlw	0
  1708     088E  3400               	retlw	0
  1709     088F  3400               	retlw	0
  1710     0890  3400               	retlw	0
  1711     0891  3462               	retlw	98
  1712     0892  3451               	retlw	81
  1713     0893  3449               	retlw	73
  1714     0894  3449               	retlw	73
  1715     0895  3446               	retlw	70
  1716     0896  3400               	retlw	0
  1717     0897  3400               	retlw	0
  1718     0898  3400               	retlw	0
  1719     0899  3422               	retlw	34
  1720     089A  3441               	retlw	65
  1721     089B  3449               	retlw	73
  1722     089C  3449               	retlw	73
  1723     089D  3436               	retlw	54
  1724     089E  3400               	retlw	0
  1725     089F  3400               	retlw	0
  1726     08A0  3400               	retlw	0
  1727     08A1  3418               	retlw	24
  1728     08A2  3414               	retlw	20
  1729     08A3  3412               	retlw	18
  1730     08A4  347F               	retlw	127
  1731     08A5  3410               	retlw	16
  1732     08A6  3400               	retlw	0
  1733     08A7  3400               	retlw	0
  1734     08A8  3400               	retlw	0
  1735     08A9  3427               	retlw	39
  1736     08AA  3445               	retlw	69
  1737     08AB  3445               	retlw	69
  1738     08AC  3445               	retlw	69
  1739     08AD  3439               	retlw	57
  1740     08AE  3400               	retlw	0
  1741     08AF  3400               	retlw	0
  1742     08B0  3400               	retlw	0
  1743     08B1  343C               	retlw	60
  1744     08B2  344A               	retlw	74
  1745     08B3  3449               	retlw	73
  1746     08B4  3449               	retlw	73
  1747     08B5  3430               	retlw	48
  1748     08B6  3400               	retlw	0
  1749     08B7  3400               	retlw	0
  1750     08B8  3400               	retlw	0
  1751     08B9  3401               	retlw	1
  1752     08BA  3471               	retlw	113
  1753     08BB  3409               	retlw	9
  1754     08BC  3405               	retlw	5
  1755     08BD  3403               	retlw	3
  1756     08BE  3400               	retlw	0
  1757     08BF  3400               	retlw	0
  1758     08C0  3400               	retlw	0
  1759     08C1  3436               	retlw	54
  1760     08C2  3449               	retlw	73
  1761     08C3  3449               	retlw	73
  1762     08C4  3449               	retlw	73
  1763     08C5  3436               	retlw	54
  1764     08C6  3400               	retlw	0
  1765     08C7  3400               	retlw	0
  1766     08C8  3400               	retlw	0
  1767     08C9  3406               	retlw	6
  1768     08CA  3449               	retlw	73
  1769     08CB  3449               	retlw	73
  1770     08CC  3429               	retlw	41
  1771     08CD  341E               	retlw	30
  1772     08CE  3400               	retlw	0
  1773     08CF  3400               	retlw	0
  1774     08D0  3400               	retlw	0
  1775     08D1  3400               	retlw	0
  1776     08D2  3436               	retlw	54
  1777     08D3  3436               	retlw	54
  1778     08D4  3400               	retlw	0
  1779     08D5  3400               	retlw	0
  1780     08D6  3400               	retlw	0
  1781     08D7  3400               	retlw	0
  1782     08D8  3400               	retlw	0
  1783     08D9  3400               	retlw	0
  1784     08DA  34AC               	retlw	172
  1785     08DB  346C               	retlw	108
  1786     08DC  3400               	retlw	0
  1787     08DD  3400               	retlw	0
  1788     08DE  3400               	retlw	0
  1789     08DF  3400               	retlw	0
  1790     08E0  3400               	retlw	0
  1791     08E1  3408               	retlw	8
  1792     08E2  3414               	retlw	20
  1793     08E3  3422               	retlw	34
  1794     08E4  3441               	retlw	65
  1795     08E5  3400               	retlw	0
  1796     08E6  3400               	retlw	0
  1797     08E7  3400               	retlw	0
  1798     08E8  3400               	retlw	0
  1799     08E9  3414               	retlw	20
  1800     08EA  3414               	retlw	20
  1801     08EB  3414               	retlw	20
  1802     08EC  3414               	retlw	20
  1803     08ED  3414               	retlw	20
  1804     08EE  3400               	retlw	0
  1805     08EF  3400               	retlw	0
  1806     08F0  3400               	retlw	0
  1807     08F1  3441               	retlw	65
  1808     08F2  3422               	retlw	34
  1809     08F3  3414               	retlw	20
  1810     08F4  3408               	retlw	8
  1811     08F5  3400               	retlw	0
  1812     08F6  3400               	retlw	0
  1813     08F7  3400               	retlw	0
  1814     08F8  3400               	retlw	0
  1815     08F9  3402               	retlw	2
  1816     08FA  3401               	retlw	1
  1817     08FB  3451               	retlw	81
  1818     08FC  3409               	retlw	9
  1819     08FD  3406               	retlw	6
  1820     08FE  3400               	retlw	0
  1821     08FF  3400               	retlw	0
  1822     0900  3400               	retlw	0
  1823     0901  3432               	retlw	50
  1824     0902  3449               	retlw	73
  1825     0903  3479               	retlw	121
  1826     0904  3441               	retlw	65
  1827     0905  343E               	retlw	62
  1828     0906  3400               	retlw	0
  1829     0907  3400               	retlw	0
  1830     0908  3400               	retlw	0
  1831     0909  347E               	retlw	126
  1832     090A  3409               	retlw	9
  1833     090B  3409               	retlw	9
  1834     090C  3409               	retlw	9
  1835     090D  347E               	retlw	126
  1836     090E  3400               	retlw	0
  1837     090F  3400               	retlw	0
  1838     0910  3400               	retlw	0
  1839     0911  347F               	retlw	127
  1840     0912  3449               	retlw	73
  1841     0913  3449               	retlw	73
  1842     0914  3449               	retlw	73
  1843     0915  3436               	retlw	54
  1844     0916  3400               	retlw	0
  1845     0917  3400               	retlw	0
  1846     0918  3400               	retlw	0
  1847     0919  343E               	retlw	62
  1848     091A  3441               	retlw	65
  1849     091B  3441               	retlw	65
  1850     091C  3441               	retlw	65
  1851     091D  3422               	retlw	34
  1852     091E  3400               	retlw	0
  1853     091F  3400               	retlw	0
  1854     0920  3400               	retlw	0
  1855     0921  347F               	retlw	127
  1856     0922  3441               	retlw	65
  1857     0923  3441               	retlw	65
  1858     0924  3422               	retlw	34
  1859     0925  341C               	retlw	28
  1860     0926  3400               	retlw	0
  1861     0927  3400               	retlw	0
  1862     0928  3400               	retlw	0
  1863     0929  347F               	retlw	127
  1864     092A  3449               	retlw	73
  1865     092B  3449               	retlw	73
  1866     092C  3449               	retlw	73
  1867     092D  3441               	retlw	65
  1868     092E  3400               	retlw	0
  1869     092F  3400               	retlw	0
  1870     0930  3400               	retlw	0
  1871     0931  347F               	retlw	127
  1872     0932  3409               	retlw	9
  1873     0933  3409               	retlw	9
  1874     0934  3409               	retlw	9
  1875     0935  3401               	retlw	1
  1876     0936  3400               	retlw	0
  1877     0937  3400               	retlw	0
  1878     0938  3400               	retlw	0
  1879     0939  343E               	retlw	62
  1880     093A  3441               	retlw	65
  1881     093B  3441               	retlw	65
  1882     093C  3451               	retlw	81
  1883     093D  3472               	retlw	114
  1884     093E  3400               	retlw	0
  1885     093F  3400               	retlw	0
  1886     0940  3400               	retlw	0
  1887     0941  347F               	retlw	127
  1888     0942  3408               	retlw	8
  1889     0943  3408               	retlw	8
  1890     0944  3408               	retlw	8
  1891     0945  347F               	retlw	127
  1892     0946  3400               	retlw	0
  1893     0947  3400               	retlw	0
  1894     0948  3400               	retlw	0
  1895     0949  3441               	retlw	65
  1896     094A  347F               	retlw	127
  1897     094B  3441               	retlw	65
  1898     094C  3400               	retlw	0
  1899     094D  3400               	retlw	0
  1900     094E  3400               	retlw	0
  1901     094F  3400               	retlw	0
  1902     0950  3400               	retlw	0
  1903     0951  3420               	retlw	32
  1904     0952  3440               	retlw	64
  1905     0953  3441               	retlw	65
  1906     0954  343F               	retlw	63
  1907     0955  3401               	retlw	1
  1908     0956  3400               	retlw	0
  1909     0957  3400               	retlw	0
  1910     0958  3400               	retlw	0
  1911     0959  347F               	retlw	127
  1912     095A  3408               	retlw	8
  1913     095B  3414               	retlw	20
  1914     095C  3422               	retlw	34
  1915     095D  3441               	retlw	65
  1916     095E  3400               	retlw	0
  1917     095F  3400               	retlw	0
  1918     0960  3400               	retlw	0
  1919     0961  347F               	retlw	127
  1920     0962  3440               	retlw	64
  1921     0963  3440               	retlw	64
  1922     0964  3440               	retlw	64
  1923     0965  3440               	retlw	64
  1924     0966  3400               	retlw	0
  1925     0967  3400               	retlw	0
  1926     0968  3400               	retlw	0
  1927     0969  347F               	retlw	127
  1928     096A  3402               	retlw	2
  1929     096B  340C               	retlw	12
  1930     096C  3402               	retlw	2
  1931     096D  347F               	retlw	127
  1932     096E  3400               	retlw	0
  1933     096F  3400               	retlw	0
  1934     0970  3400               	retlw	0
  1935     0971  347F               	retlw	127
  1936     0972  3404               	retlw	4
  1937     0973  3408               	retlw	8
  1938     0974  3410               	retlw	16
  1939     0975  347F               	retlw	127
  1940     0976  3400               	retlw	0
  1941     0977  3400               	retlw	0
  1942     0978  3400               	retlw	0
  1943     0979  343E               	retlw	62
  1944     097A  3441               	retlw	65
  1945     097B  3441               	retlw	65
  1946     097C  3441               	retlw	65
  1947     097D  343E               	retlw	62
  1948     097E  3400               	retlw	0
  1949     097F  3400               	retlw	0
  1950     0980  3400               	retlw	0
  1951     0981  347F               	retlw	127
  1952     0982  3409               	retlw	9
  1953     0983  3409               	retlw	9
  1954     0984  3409               	retlw	9
  1955     0985  3406               	retlw	6
  1956     0986  3400               	retlw	0
  1957     0987  3400               	retlw	0
  1958     0988  3400               	retlw	0
  1959     0989  343E               	retlw	62
  1960     098A  3441               	retlw	65
  1961     098B  3451               	retlw	81
  1962     098C  3421               	retlw	33
  1963     098D  345E               	retlw	94
  1964     098E  3400               	retlw	0
  1965     098F  3400               	retlw	0
  1966     0990  3400               	retlw	0
  1967     0991  347F               	retlw	127
  1968     0992  3409               	retlw	9
  1969     0993  3419               	retlw	25
  1970     0994  3429               	retlw	41
  1971     0995  3446               	retlw	70
  1972     0996  3400               	retlw	0
  1973     0997  3400               	retlw	0
  1974     0998  3400               	retlw	0
  1975     0999  3426               	retlw	38
  1976     099A  3449               	retlw	73
  1977     099B  3449               	retlw	73
  1978     099C  3449               	retlw	73
  1979     099D  3432               	retlw	50
  1980     099E  3400               	retlw	0
  1981     099F  3400               	retlw	0
  1982     09A0  3400               	retlw	0
  1983     09A1  3401               	retlw	1
  1984     09A2  3401               	retlw	1
  1985     09A3  347F               	retlw	127
  1986     09A4  3401               	retlw	1
  1987     09A5  3401               	retlw	1
  1988     09A6  3400               	retlw	0
  1989     09A7  3400               	retlw	0
  1990     09A8  3400               	retlw	0
  1991     09A9  343F               	retlw	63
  1992     09AA  3440               	retlw	64
  1993     09AB  3440               	retlw	64
  1994     09AC  3440               	retlw	64
  1995     09AD  343F               	retlw	63
  1996     09AE  3400               	retlw	0
  1997     09AF  3400               	retlw	0
  1998     09B0  3400               	retlw	0
  1999     09B1  341F               	retlw	31
  2000     09B2  3420               	retlw	32
  2001     09B3  3440               	retlw	64
  2002     09B4  3420               	retlw	32
  2003     09B5  341F               	retlw	31
  2004     09B6  3400               	retlw	0
  2005     09B7  3400               	retlw	0
  2006     09B8  3400               	retlw	0
  2007     09B9  343F               	retlw	63
  2008     09BA  3440               	retlw	64
  2009     09BB  3438               	retlw	56
  2010     09BC  3440               	retlw	64
  2011     09BD  343F               	retlw	63
  2012     09BE  3400               	retlw	0
  2013     09BF  3400               	retlw	0
  2014     09C0  3400               	retlw	0
  2015     09C1  3463               	retlw	99
  2016     09C2  3414               	retlw	20
  2017     09C3  3408               	retlw	8
  2018     09C4  3414               	retlw	20
  2019     09C5  3463               	retlw	99
  2020     09C6  3400               	retlw	0
  2021     09C7  3400               	retlw	0
  2022     09C8  3400               	retlw	0
  2023     09C9  3403               	retlw	3
  2024     09CA  3404               	retlw	4
  2025     09CB  3478               	retlw	120
  2026     09CC  3404               	retlw	4
  2027     09CD  3403               	retlw	3
  2028     09CE  3400               	retlw	0
  2029     09CF  3400               	retlw	0
  2030     09D0  3400               	retlw	0
  2031     09D1  3461               	retlw	97
  2032     09D2  3451               	retlw	81
  2033     09D3  3449               	retlw	73
  2034     09D4  3445               	retlw	69
  2035     09D5  3443               	retlw	67
  2036     09D6  3400               	retlw	0
  2037     09D7  3400               	retlw	0
  2038     09D8  3400               	retlw	0
  2039     09D9  347F               	retlw	127
  2040     09DA  3441               	retlw	65
  2041     09DB  3441               	retlw	65
  2042     09DC  3400               	retlw	0
  2043     09DD  3400               	retlw	0
  2044     09DE  3400               	retlw	0
  2045     09DF  3400               	retlw	0
  2046     09E0  3400               	retlw	0
  2047     09E1  3402               	retlw	2
  2048     09E2  3404               	retlw	4
  2049     09E3  3408               	retlw	8
  2050     09E4  3410               	retlw	16
  2051     09E5  3420               	retlw	32
  2052     09E6  3400               	retlw	0
  2053     09E7  3400               	retlw	0
  2054     09E8  3400               	retlw	0
  2055     09E9  3441               	retlw	65
  2056     09EA  3441               	retlw	65
  2057     09EB  347F               	retlw	127
  2058     09EC  3400               	retlw	0
  2059     09ED  3400               	retlw	0
  2060     09EE  3400               	retlw	0
  2061     09EF  3400               	retlw	0
  2062     09F0  3400               	retlw	0
  2063     09F1  3404               	retlw	4
  2064     09F2  3402               	retlw	2
  2065     09F3  3401               	retlw	1
  2066     09F4  3402               	retlw	2
  2067     09F5  3404               	retlw	4
  2068     09F6  3400               	retlw	0
  2069     09F7  3400               	retlw	0
  2070     09F8  3400               	retlw	0
  2071     09F9  3480               	retlw	128
  2072     09FA  3480               	retlw	128
  2073     09FB  3480               	retlw	128
  2074     09FC  3480               	retlw	128
  2075     09FD  3480               	retlw	128
  2076     09FE  3400               	retlw	0
  2077     09FF  3400               	retlw	0
  2078     0A00  3400               	retlw	0
  2079     0A01  3401               	retlw	1
  2080     0A02  3402               	retlw	2
  2081     0A03  3404               	retlw	4
  2082     0A04  3400               	retlw	0
  2083     0A05  3400               	retlw	0
  2084     0A06  3400               	retlw	0
  2085     0A07  3400               	retlw	0
  2086     0A08  3400               	retlw	0
  2087     0A09  3420               	retlw	32
  2088     0A0A  3454               	retlw	84
  2089     0A0B  3454               	retlw	84
  2090     0A0C  3454               	retlw	84
  2091     0A0D  3478               	retlw	120
  2092     0A0E  3400               	retlw	0
  2093     0A0F  3400               	retlw	0
  2094     0A10  3400               	retlw	0
  2095     0A11  347F               	retlw	127
  2096     0A12  3448               	retlw	72
  2097     0A13  3444               	retlw	68
  2098     0A14  3444               	retlw	68
  2099     0A15  3438               	retlw	56
  2100     0A16  3400               	retlw	0
  2101     0A17  3400               	retlw	0
  2102     0A18  3400               	retlw	0
  2103     0A19  3438               	retlw	56
  2104     0A1A  3444               	retlw	68
  2105     0A1B  3444               	retlw	68
  2106     0A1C  3428               	retlw	40
  2107     0A1D  3400               	retlw	0
  2108     0A1E  3400               	retlw	0
  2109     0A1F  3400               	retlw	0
  2110     0A20  3400               	retlw	0
  2111     0A21  3438               	retlw	56
  2112     0A22  3444               	retlw	68
  2113     0A23  3444               	retlw	68
  2114     0A24  3448               	retlw	72
  2115     0A25  347F               	retlw	127
  2116     0A26  3400               	retlw	0
  2117     0A27  3400               	retlw	0
  2118     0A28  3400               	retlw	0
  2119     0A29  3438               	retlw	56
  2120     0A2A  3454               	retlw	84
  2121     0A2B  3454               	retlw	84
  2122     0A2C  3454               	retlw	84
  2123     0A2D  3418               	retlw	24
  2124     0A2E  3400               	retlw	0
  2125     0A2F  3400               	retlw	0
  2126     0A30  3400               	retlw	0
  2127     0A31  3408               	retlw	8
  2128     0A32  347E               	retlw	126
  2129     0A33  3409               	retlw	9
  2130     0A34  3402               	retlw	2
  2131     0A35  3400               	retlw	0
  2132     0A36  3400               	retlw	0
  2133     0A37  3400               	retlw	0
  2134     0A38  3400               	retlw	0
  2135     0A39  3418               	retlw	24
  2136     0A3A  34A4               	retlw	164
  2137     0A3B  34A4               	retlw	164
  2138     0A3C  34A4               	retlw	164
  2139     0A3D  347C               	retlw	124
  2140     0A3E  3400               	retlw	0
  2141     0A3F  3400               	retlw	0
  2142     0A40  3400               	retlw	0
  2143     0A41  347F               	retlw	127
  2144     0A42  3408               	retlw	8
  2145     0A43  3404               	retlw	4
  2146     0A44  3404               	retlw	4
  2147     0A45  3478               	retlw	120
  2148     0A46  3400               	retlw	0
  2149     0A47  3400               	retlw	0
  2150     0A48  3400               	retlw	0
  2151     0A49  3400               	retlw	0
  2152     0A4A  347D               	retlw	125
  2153     0A4B  3400               	retlw	0
  2154     0A4C  3400               	retlw	0
  2155     0A4D  3400               	retlw	0
  2156     0A4E  3400               	retlw	0
  2157     0A4F  3400               	retlw	0
  2158     0A50  3400               	retlw	0
  2159     0A51  3480               	retlw	128
  2160     0A52  3484               	retlw	132
  2161     0A53  347D               	retlw	125
  2162     0A54  3400               	retlw	0
  2163     0A55  3400               	retlw	0
  2164     0A56  3400               	retlw	0
  2165     0A57  3400               	retlw	0
  2166     0A58  3400               	retlw	0
  2167     0A59  347F               	retlw	127
  2168     0A5A  3410               	retlw	16
  2169     0A5B  3428               	retlw	40
  2170     0A5C  3444               	retlw	68
  2171     0A5D  3400               	retlw	0
  2172     0A5E  3400               	retlw	0
  2173     0A5F  3400               	retlw	0
  2174     0A60  3400               	retlw	0
  2175     0A61  3441               	retlw	65
  2176     0A62  347F               	retlw	127
  2177     0A63  3440               	retlw	64
  2178     0A64  3400               	retlw	0
  2179     0A65  3400               	retlw	0
  2180     0A66  3400               	retlw	0
  2181     0A67  3400               	retlw	0
  2182     0A68  3400               	retlw	0
  2183     0A69  347C               	retlw	124
  2184     0A6A  3404               	retlw	4
  2185     0A6B  3418               	retlw	24
  2186     0A6C  3404               	retlw	4
  2187     0A6D  3478               	retlw	120
  2188     0A6E  3400               	retlw	0
  2189     0A6F  3400               	retlw	0
  2190     0A70  3400               	retlw	0
  2191     0A71  347C               	retlw	124
  2192     0A72  3408               	retlw	8
  2193     0A73  3404               	retlw	4
  2194     0A74  347C               	retlw	124
  2195     0A75  3400               	retlw	0
  2196     0A76  3400               	retlw	0
  2197     0A77  3400               	retlw	0
  2198     0A78  3400               	retlw	0
  2199     0A79  3438               	retlw	56
  2200     0A7A  3444               	retlw	68
  2201     0A7B  3444               	retlw	68
  2202     0A7C  3438               	retlw	56
  2203     0A7D  3400               	retlw	0
  2204     0A7E  3400               	retlw	0
  2205     0A7F  3400               	retlw	0
  2206     0A80  3400               	retlw	0
  2207     0A81  34FC               	retlw	252
  2208     0A82  3424               	retlw	36
  2209     0A83  3424               	retlw	36
  2210     0A84  3418               	retlw	24
  2211     0A85  3400               	retlw	0
  2212     0A86  3400               	retlw	0
  2213     0A87  3400               	retlw	0
  2214     0A88  3400               	retlw	0
  2215     0A89  3418               	retlw	24
  2216     0A8A  3424               	retlw	36
  2217     0A8B  3424               	retlw	36
  2218     0A8C  34FC               	retlw	252
  2219     0A8D  3400               	retlw	0
  2220     0A8E  3400               	retlw	0
  2221     0A8F  3400               	retlw	0
  2222     0A90  3400               	retlw	0
  2223     0A91  3400               	retlw	0
  2224     0A92  347C               	retlw	124
  2225     0A93  3408               	retlw	8
  2226     0A94  3404               	retlw	4
  2227     0A95  3400               	retlw	0
  2228     0A96  3400               	retlw	0
  2229     0A97  3400               	retlw	0
  2230     0A98  3400               	retlw	0
  2231     0A99  3448               	retlw	72
  2232     0A9A  3454               	retlw	84
  2233     0A9B  3454               	retlw	84
  2234     0A9C  3424               	retlw	36
  2235     0A9D  3400               	retlw	0
  2236     0A9E  3400               	retlw	0
  2237     0A9F  3400               	retlw	0
  2238     0AA0  3400               	retlw	0
  2239     0AA1  3404               	retlw	4
  2240     0AA2  347F               	retlw	127
  2241     0AA3  3444               	retlw	68
  2242     0AA4  3400               	retlw	0
  2243     0AA5  3400               	retlw	0
  2244     0AA6  3400               	retlw	0
  2245     0AA7  3400               	retlw	0
  2246     0AA8  3400               	retlw	0
  2247     0AA9  343C               	retlw	60
  2248     0AAA  3440               	retlw	64
  2249     0AAB  3440               	retlw	64
  2250     0AAC  347C               	retlw	124
  2251     0AAD  3400               	retlw	0
  2252     0AAE  3400               	retlw	0
  2253     0AAF  3400               	retlw	0
  2254     0AB0  3400               	retlw	0
  2255     0AB1  341C               	retlw	28
  2256     0AB2  3420               	retlw	32
  2257     0AB3  3440               	retlw	64
  2258     0AB4  3420               	retlw	32
  2259     0AB5  341C               	retlw	28
  2260     0AB6  3400               	retlw	0
  2261     0AB7  3400               	retlw	0
  2262     0AB8  3400               	retlw	0
  2263     0AB9  343C               	retlw	60
  2264     0ABA  3440               	retlw	64
  2265     0ABB  3430               	retlw	48
  2266     0ABC  3440               	retlw	64
  2267     0ABD  343C               	retlw	60
  2268     0ABE  3400               	retlw	0
  2269     0ABF  3400               	retlw	0
  2270     0AC0  3400               	retlw	0
  2271     0AC1  3444               	retlw	68
  2272     0AC2  3428               	retlw	40
  2273     0AC3  3410               	retlw	16
  2274     0AC4  3428               	retlw	40
  2275     0AC5  3444               	retlw	68
  2276     0AC6  3400               	retlw	0
  2277     0AC7  3400               	retlw	0
  2278     0AC8  3400               	retlw	0
  2279     0AC9  341C               	retlw	28
  2280     0ACA  34A0               	retlw	160
  2281     0ACB  34A0               	retlw	160
  2282     0ACC  347C               	retlw	124
  2283     0ACD  3400               	retlw	0
  2284     0ACE  3400               	retlw	0
  2285     0ACF  3400               	retlw	0
  2286     0AD0  3400               	retlw	0
  2287     0AD1  3444               	retlw	68
  2288     0AD2  3464               	retlw	100
  2289     0AD3  3454               	retlw	84
  2290     0AD4  344C               	retlw	76
  2291     0AD5  3444               	retlw	68
  2292     0AD6  3400               	retlw	0
  2293     0AD7  3400               	retlw	0
  2294     0AD8  3400               	retlw	0
  2295     0AD9  3408               	retlw	8
  2296     0ADA  3436               	retlw	54
  2297     0ADB  3441               	retlw	65
  2298     0ADC  3400               	retlw	0
  2299     0ADD  3400               	retlw	0
  2300     0ADE  3400               	retlw	0
  2301     0ADF  3400               	retlw	0
  2302     0AE0  3400               	retlw	0
  2303     0AE1  3400               	retlw	0
  2304     0AE2  347F               	retlw	127
  2305     0AE3  3400               	retlw	0
  2306     0AE4  3400               	retlw	0
  2307     0AE5  3400               	retlw	0
  2308     0AE6  3400               	retlw	0
  2309     0AE7  3400               	retlw	0
  2310     0AE8  3400               	retlw	0
  2311     0AE9  3441               	retlw	65
  2312     0AEA  3436               	retlw	54
  2313     0AEB  3408               	retlw	8
  2314     0AEC  3400               	retlw	0
  2315     0AED  3400               	retlw	0
  2316     0AEE  3400               	retlw	0
  2317     0AEF  3400               	retlw	0
  2318     0AF0  3400               	retlw	0
  2319     0AF1  3402               	retlw	2
  2320     0AF2  3401               	retlw	1
  2321     0AF3  3401               	retlw	1
  2322     0AF4  3402               	retlw	2
  2323     0AF5  3401               	retlw	1
  2324     0AF6  3400               	retlw	0
  2325     0AF7  3400               	retlw	0
  2326     0AF8  3400               	retlw	0
  2327     0AF9  3402               	retlw	2
  2328     0AFA  3405               	retlw	5
  2329     0AFB  3405               	retlw	5
  2330     0AFC  3402               	retlw	2
  2331     0AFD  3400               	retlw	0
  2332     0AFE  3400               	retlw	0
  2333     0AFF  3400               	retlw	0
  2334     0B00                     __end_of_OledFont:
  2335     000D                     _PORTBbits	set	13
  2336     0012                     _PIR2bits	set	18
  2337     0011                     _PIR1bits	set	17
  2338     008D                     _TRISBbits	set	141
  2339     008E                     _TRISCbits	set	142
  2340     04CF                     _SPLLEN	set	1231
  2341     04CE                     _IRCF3	set	1230
  2342     04CD                     _IRCF2	set	1229
  2343     04CC                     _IRCF1	set	1228
  2344     04CB                     _IRCF0	set	1227
  2345     04C9                     _SCS1	set	1225
  2346     04C8                     _SCS0	set	1224
  2347     010D                     _LATBbits	set	269
  2348     018D                     _ANSELBbits	set	397
  2349     018E                     _ANSELCbits	set	398
  2350     0211                     _SSPBUF	set	529
  2351     0216                     _SSPCON2bits	set	534
  2352     0214                     _SSPSTATbits	set	532
  2353     0216                     _SSPCON2	set	534
  2354     0215                     _SSPCON1bits	set	533
  2355     0212                     _SSPADD	set	530
  2356     0215                     _SSPCONbits	set	533
  2357     0E20                     _SSPCLKPPSbits	set	3616
  2358     0E21                     _SSPDATPPSbits	set	3617
  2359     0E0F                     _PPSLOCKbits	set	3599
  2360     0E0F                     _PPSLOCK	set	3599
  2361     0EA5                     _RC5PPSbits	set	3749
  2362     0EA4                     _RC4PPSbits	set	3748
  2363     0B00                     STR_2:
  2364     0B00  3444               	retlw	68	;'D'
  2365     0B01  3461               	retlw	97	;'a'
  2366     0B02  3474               	retlw	116	;'t'
  2367     0B03  3465               	retlw	101	;'e'
  2368     0B04  343A               	retlw	58	;':'
  2369     0B05  3420               	retlw	32	;' '
  2370     0B06  3425               	retlw	37	;'%'
  2371     0B07  3430               	retlw	48	;'0'
  2372     0B08  3432               	retlw	50	;'2'
  2373     0B09  3475               	retlw	117	;'u'
  2374     0B0A  342F               	retlw	47	;'/'
  2375     0B0B  3425               	retlw	37	;'%'
  2376     0B0C  3430               	retlw	48	;'0'
  2377     0B0D  3432               	retlw	50	;'2'
  2378     0B0E  3475               	retlw	117	;'u'
  2379     0B0F  342F               	retlw	47	;'/'
  2380     0B10  3425               	retlw	37	;'%'
  2381     0B11  3430               	retlw	48	;'0'
  2382     0B12  3432               	retlw	50	;'2'
  2383     0B13  3475               	retlw	117	;'u'
  2384     0B14  3400               	retlw	0
  2385                           
  2386                           	psect	stringtext3
  2387     1800                     __pstringtext3:
  2388     1800                     STR_1:
  2389     1800  3454               	retlw	84	;'T'
  2390     1801  3469               	retlw	105	;'i'
  2391     1802  346D               	retlw	109	;'m'
  2392     1803  3465               	retlw	101	;'e'
  2393     1804  343A               	retlw	58	;':'
  2394     1805  3420               	retlw	32	;' '
  2395     1806  3425               	retlw	37	;'%'
  2396     1807  3430               	retlw	48	;'0'
  2397     1808  3432               	retlw	50	;'2'
  2398     1809  3475               	retlw	117	;'u'
  2399     180A  343A               	retlw	58	;':'
  2400     180B  3425               	retlw	37	;'%'
  2401     180C  3430               	retlw	48	;'0'
  2402     180D  3432               	retlw	50	;'2'
  2403     180E  3475               	retlw	117	;'u'
  2404     180F  343A               	retlw	58	;':'
  2405     1810  3425               	retlw	37	;'%'
  2406     1811  3430               	retlw	48	;'0'
  2407     1812  3432               	retlw	50	;'2'
  2408     1813  3475               	retlw	117	;'u'
  2409     1814  3400               	retlw	0
  2410                           
  2411                           	psect	stringtext4
  2412     0000                     __pstringtext4:
  2413                           
  2414                           	psect	cinit
  2415     07ED                     start_initialization:	
  2416                           ; #config settings
  2417                           
  2418     07ED                     __initialization:	;BIGRAM
  2419                           
  2420                           ; Initialize objects allocated to BANK1
  2421     07ED  0021               	movlb	1	; select bank1
  2422     07EE  3180  2004  3187   	fcall	__pidataBANK1	;fetch initializer
  2423     07F1  00EA               	movwf	__pdataBANK1& (0+127)
  2424                           
  2425                           ; Clear objects allocated to BIGRAM
  2426     07F2  30F0               	movlw	low (0+9456)
  2427     07F3  0084               	movwf	4
  2428     07F4  3024               	movlw	high (0+9456)
  2429     07F5  0085               	movwf	5
  2430     07F6  3000               	movlw	0
  2431     07F7  00FE               	movwf	btemp
  2432     07F8  3003               	movlw	3
  2433     07F9  00FF               	movwf	btemp+1
  2434     07FA  3197  2781  3187   	fcall	clear_ram0
  2435     07FD                     end_of_initialization:	
  2436                           ;End of C runtime variable initialization code
  2437                           
  2438     07FD                     __end_of__initialization:
  2439     07FD  0020               	movlb	0
  2440     07FE  318F  2F97         	ljmp	_main	;jump to C main() function
  2441                           
  2442                           	psect	dataBANK1
  2443     00EA                     __pdataBANK1:
  2444     00EA                     main@ast_date_701:
  2445     00EA                     	ds	1
  2446                           
  2447                           	psect	clrtext
  2448     1781                     clear_ram0:	
  2449                           ;	Called with FSR0 containing the base address, and
  2450                           ;	btemp/btemp+1 has the size to clear
  2451                           
  2452     1781  0064               	clrwdt	;clear the watchdog before getting into this loop
  2453     1782                     clrloop0:
  2454     1782  0180               	clrf	0	;clear RAM location pointed to by FSR
  2455     1783  3101               	addfsr 0,1
  2456     1784  3001               	movlw	1
  2457     1785  02FE               	subwf	btemp,f
  2458     1786  3000               	movlw	0
  2459     1787  3BFF               	subwfb	btemp+1,f
  2460     1788  087F               	movf	btemp+1,w
  2461     1789  047E               	iorwf	btemp,w
  2462     178A  1D03               	skipz
  2463     178B  2F82               	goto	clrloop0	;have we reached the end yet?
  2464     178C  3400               	retlw	0	;all done for this memory range, return
  2465                           
  2466                           	psect	cstackBANK1
  2467     00A0                     __pcstackBANK1:
  2468     00A0                     OLED_Printf_Line@buf:
  2469                           
  2470                           ; 32 bytes @ 0x0
  2471     00A0                     	ds	32
  2472     00C0                     OLED_Printf_Line@peek:
  2473                           
  2474                           ; 2 bytes @ 0x20
  2475     00C0                     	ds	2
  2476     00C2                     _OLED_Printf_Line$365:
  2477                           
  2478                           ; 2 bytes @ 0x22
  2479     00C2                     	ds	2
  2480     00C4                     OLED_Printf_Line@val_361:
  2481                           
  2482                           ; 2 bytes @ 0x24
  2483     00C4                     	ds	2
  2484     00C6                     OLED_Printf_Line@col:
  2485                           
  2486                           ; 1 bytes @ 0x26
  2487     00C6                     	ds	1
  2488     00C7                     OLED_Printf_Line@p:
  2489                           
  2490                           ; 1 bytes @ 0x27
  2491     00C7                     	ds	1
  2492     00C8                     OLED_Printf_Line@val_352:
  2493                           
  2494                           ; 4 bytes @ 0x28
  2495     00C8                     	ds	4
  2496     00CC                     OLED_Printf_Line@nibble:
  2497                           
  2498                           ; 1 bytes @ 0x2C
  2499     00CC                     	ds	1
  2500     00CD                     OLED_Printf_Line@width2_zpad:
  2501                           
  2502                           ; 1 bytes @ 0x2D
  2503     00CD                     	ds	1
  2504     00CE                     OLED_Printf_Line@ch:
  2505                           
  2506                           ; 1 bytes @ 0x2E
  2507     00CE                     	ds	1
  2508     00CF                     OLED_Printf_Line@val_358:
  2509                           
  2510                           ; 2 bytes @ 0x2F
  2511     00CF                     	ds	2
  2512     00D1                     OLED_Printf_Line@i:
  2513                           
  2514                           ; 1 bytes @ 0x31
  2515     00D1                     	ds	1
  2516     00D2                     OLED_Printf_Line@i_354:
  2517                           
  2518                           ; 1 bytes @ 0x32
  2519     00D2                     	ds	1
  2520     00D3                     OLED_Printf_Line@i_357:
  2521                           
  2522                           ; 1 bytes @ 0x33
  2523     00D3                     	ds	1
  2524     00D4                     OLED_Printf_Line@i_360:
  2525                           
  2526                           ; 1 bytes @ 0x34
  2527     00D4                     	ds	1
  2528     00D5                     OLED_Printf_Line@i_363:
  2529                           
  2530                           ; 1 bytes @ 0x35
  2531     00D5                     	ds	1
  2532     00D6                     OLED_Printf_Line@val_355:
  2533                           
  2534                           ; 4 bytes @ 0x36
  2535     00D6                     	ds	4
  2536     00DA                     OLED_Printf_Line@line:
  2537                           
  2538                           ; 1 bytes @ 0x3A
  2539     00DA                     	ds	1
  2540     00DB                     OLED_Printf_Line@val:
  2541                           
  2542                           ; 2 bytes @ 0x3B
  2543     00DB                     	ds	2
  2544     00DD                     OLED_Printf_Line@ap:
  2545                           
  2546                           ; 1 bytes @ 0x3D
  2547     00DD                     	ds	1
  2548     00DE                     OLED_Printf_Line@src:
  2549                           
  2550                           ; 2 bytes @ 0x3E
  2551     00DE                     	ds	2
  2552     00E0                     OLED_Printf_Line@dst:
  2553                           
  2554                           ; 1 bytes @ 0x40
  2555     00E0                     	ds	1
  2556     00E1                     main@last_date:
  2557                           
  2558                           ; 1 bytes @ 0x41
  2559     00E1                     	ds	1
  2560     00E2                     main@last_sec:
  2561                           
  2562                           ; 1 bytes @ 0x42
  2563     00E2                     	ds	1
  2564     00E3                     main@now:
  2565                           
  2566                           ; 7 bytes @ 0x43
  2567     00E3                     	ds	7
  2568                           
  2569                           	psect	cstackCOMMON
  2570     0070                     __pcstackCOMMON:
  2571     0070                     ?_I2C_ClearErrors:
  2572     0070                     ??_I2C_ClearErrors:	
  2573                           ; 1 bytes @ 0x0
  2574                           
  2575     0070                     ?_OLED_Clear:	
  2576                           ; 1 bytes @ 0x0
  2577                           
  2578     0070                     ?_DS1302_Reset:	
  2579                           ; 1 bytes @ 0x0
  2580                           
  2581     0070                     ??_DS1302_Reset:	
  2582                           ; 1 bytes @ 0x0
  2583                           
  2584     0070                     ?_DS1302_WriteByte:	
  2585                           ; 1 bytes @ 0x0
  2586                           
  2587     0070                     ??_DS1302_WriteByte:	
  2588                           ; 1 bytes @ 0x0
  2589                           
  2590     0070                     ?_DS1302_ReadByte:	
  2591                           ; 1 bytes @ 0x0
  2592                           
  2593     0070                     ??_DS1302_ReadByte:	
  2594                           ; 1 bytes @ 0x0
  2595                           
  2596     0070                     ?_get_dec:	
  2597                           ; 1 bytes @ 0x0
  2598                           
  2599     0070                     ?_get_bcd:	
  2600                           ; 1 bytes @ 0x0
  2601                           
  2602     0070                     ?_I2C_WaitIF:	
  2603                           ; 1 bytes @ 0x0
  2604                           
  2605     0070                     ?_I2C_Init:	
  2606                           ; 1 bytes @ 0x0
  2607                           
  2608     0070                     ??_I2C_Init:	
  2609                           ; 1 bytes @ 0x0
  2610                           
  2611     0070                     ?_I2C_WaitIdle:	
  2612                           ; 1 bytes @ 0x0
  2613                           
  2614     0070                     ?_I2C_Start:	
  2615                           ; 1 bytes @ 0x0
  2616                           
  2617     0070                     ?_I2C_Stop:	
  2618                           ; 1 bytes @ 0x0
  2619                           
  2620     0070                     ?_I2C_WriteByte:	
  2621                           ; 1 bytes @ 0x0
  2622                           
  2623     0070                     ?_SSD1306_CtrlW:	
  2624                           ; 1 bytes @ 0x0
  2625                           
  2626     0070                     ??_SSD1306_CtrlW:	
  2627                           ; 1 bytes @ 0x0
  2628                           
  2629     0070                     ?_OLED_Command:	
  2630                           ; 1 bytes @ 0x0
  2631                           
  2632     0070                     ?_OLED_Init:	
  2633                           ; 1 bytes @ 0x0
  2634                           
  2635     0070                     ?_OLED_UpdateLine:	
  2636                           ; 1 bytes @ 0x0
  2637                           
  2638     0070                     ?_internal_16:	
  2639                           ; 1 bytes @ 0x0
  2640                           
  2641     0070                     ??_internal_16:	
  2642                           ; 1 bytes @ 0x0
  2643                           
  2644     0070                     ?_initMain:	
  2645                           ; 1 bytes @ 0x0
  2646                           
  2647     0070                     ??_initMain:	
  2648                           ; 1 bytes @ 0x0
  2649                           
  2650     0070                     ?_RTC_ReadBurst:	
  2651                           ; 1 bytes @ 0x0
  2652                           
  2653     0070                     ?_UI_DrawTime:	
  2654                           ; 1 bytes @ 0x0
  2655                           
  2656     0070                     ?_UI_DrawDate:	
  2657                           ; 1 bytes @ 0x0
  2658                           
  2659     0070                     ?_main:	
  2660                           ; 1 bytes @ 0x0
  2661                           
  2662     0070                     ?___bmul:	
  2663                           ; 1 bytes @ 0x0
  2664                           
  2665     0070                     ?_memset:	
  2666                           ; 1 bytes @ 0x0
  2667                           
  2668     0070                     ?_strcmp:	
  2669                           ; 2 bytes @ 0x0
  2670                           
  2671     0070                     ?_strcpy:	
  2672                           ; 2 bytes @ 0x0
  2673                           
  2674     0070                     ?_memcpy:	
  2675                           ; 2 bytes @ 0x0
  2676                           
  2677     0070                     ?___awdiv:	
  2678                           ; 2 bytes @ 0x0
  2679                           
  2680     0070                     ?___awmod:	
  2681                           ; 2 bytes @ 0x0
  2682                           
  2683     0070                     ?___lwdiv:	
  2684                           ; 2 bytes @ 0x0
  2685                           
  2686     0070                     ?___lwmod:	
  2687                           ; 2 bytes @ 0x0
  2688                           
  2689     0070                     ?___lldiv:	
  2690                           ; 2 bytes @ 0x0
  2691                           
  2692     0070                     ?___aldiv:	
  2693                           ; 4 bytes @ 0x0
  2694                           
  2695     0070                     ?___almod:	
  2696                           ; 4 bytes @ 0x0
  2697                           
  2698     0070                     ?___llmod:	
  2699                           ; 4 bytes @ 0x0
  2700                           
  2701     0070                     ___bmul@multiplicand:	
  2702                           ; 4 bytes @ 0x0
  2703                           
  2704     0070                     I2C_WaitIF@timeout_ms:	
  2705                           ; 1 bytes @ 0x0
  2706                           
  2707     0070                     I2C_WaitIdle@timeout_ms:	
  2708                           ; 2 bytes @ 0x0
  2709                           
  2710     0070                     ___awdiv@divisor:	
  2711                           ; 2 bytes @ 0x0
  2712                           
  2713     0070                     ___awmod@divisor:	
  2714                           ; 2 bytes @ 0x0
  2715                           
  2716     0070                     ___lwdiv@divisor:	
  2717                           ; 2 bytes @ 0x0
  2718                           
  2719     0070                     ___lwmod@divisor:	
  2720                           ; 2 bytes @ 0x0
  2721                           
  2722     0070                     memcpy@d1:	
  2723                           ; 2 bytes @ 0x0
  2724                           
  2725     0070                     memset@dest:	
  2726                           ; 2 bytes @ 0x0
  2727                           
  2728     0070                     strcmp@r:	
  2729                           ; 2 bytes @ 0x0
  2730                           
  2731     0070                     strcpy@dest:	
  2732                           ; 2 bytes @ 0x0
  2733                           
  2734     0070                     ___lldiv@divisor:	
  2735                           ; 2 bytes @ 0x0
  2736                           
  2737     0070                     ___aldiv@divisor:	
  2738                           ; 4 bytes @ 0x0
  2739                           
  2740     0070                     ___almod@divisor:	
  2741                           ; 4 bytes @ 0x0
  2742                           
  2743     0070                     ___llmod@divisor:	
  2744                           ; 4 bytes @ 0x0
  2745                           
  2746                           
  2747                           ; 4 bytes @ 0x0
  2748     0070                     	ds	1
  2749     0071                     ??___bmul:
  2750     0071                     DS1302_WriteByte@W_Byte:	
  2751                           ; 1 bytes @ 0x1
  2752                           
  2753     0071                     DS1302_ReadByte@TmpByte:	
  2754                           ; 1 bytes @ 0x1
  2755                           
  2756                           
  2757                           ; 1 bytes @ 0x1
  2758     0071                     	ds	1
  2759     0072                     ??_strcmp:
  2760     0072                     ??_I2C_WaitIF:	
  2761                           ; 1 bytes @ 0x2
  2762                           
  2763     0072                     ??_I2C_WaitIdle:	
  2764                           ; 1 bytes @ 0x2
  2765                           
  2766     0072                     DS1302_WriteByte@i:	
  2767                           ; 1 bytes @ 0x2
  2768                           
  2769     0072                     DS1302_ReadByte@R_Byte:	
  2770                           ; 1 bytes @ 0x2
  2771                           
  2772     0072                     ___bmul@product:	
  2773                           ; 1 bytes @ 0x2
  2774                           
  2775     0072                     strcpy@src:	
  2776                           ; 1 bytes @ 0x2
  2777                           
  2778     0072                     ___awdiv@dividend:	
  2779                           ; 1 bytes @ 0x2
  2780                           
  2781     0072                     ___awmod@dividend:	
  2782                           ; 2 bytes @ 0x2
  2783                           
  2784     0072                     ___lwdiv@dividend:	
  2785                           ; 2 bytes @ 0x2
  2786                           
  2787     0072                     ___lwmod@dividend:	
  2788                           ; 2 bytes @ 0x2
  2789                           
  2790     0072                     memcpy@s1:	
  2791                           ; 2 bytes @ 0x2
  2792                           
  2793     0072                     memset@c:	
  2794                           ; 2 bytes @ 0x2
  2795                           
  2796                           
  2797                           ; 2 bytes @ 0x2
  2798     0072                     	ds	1
  2799     0073                     ??_strcpy:
  2800     0073                     ??_I2C_Start:	
  2801                           ; 1 bytes @ 0x3
  2802                           
  2803     0073                     ??_I2C_Stop:	
  2804                           ; 1 bytes @ 0x3
  2805                           
  2806     0073                     ??_I2C_WriteByte:	
  2807                           ; 1 bytes @ 0x3
  2808                           
  2809     0073                     I2C_Start@st:	
  2810                           ; 1 bytes @ 0x3
  2811                           
  2812     0073                     I2C_Stop@st:	
  2813                           ; 1 bytes @ 0x3
  2814                           
  2815     0073                     I2C_WriteByte@data:	
  2816                           ; 1 bytes @ 0x3
  2817                           
  2818     0073                     DS1302_ReadByte@i:	
  2819                           ; 1 bytes @ 0x3
  2820                           
  2821     0073                     ___bmul@multiplier:	
  2822                           ; 1 bytes @ 0x3
  2823                           
  2824     0073                     strcmp@l:	
  2825                           ; 1 bytes @ 0x3
  2826                           
  2827                           
  2828                           ; 1 bytes @ 0x3
  2829     0073                     	ds	1
  2830     0074                     ??_get_dec:
  2831     0074                     ??___awdiv:	
  2832                           ; 1 bytes @ 0x4
  2833                           
  2834     0074                     ??___awmod:	
  2835                           ; 1 bytes @ 0x4
  2836                           
  2837     0074                     ??___lwdiv:	
  2838                           ; 1 bytes @ 0x4
  2839                           
  2840     0074                     ??___lwmod:	
  2841                           ; 1 bytes @ 0x4
  2842                           
  2843     0074                     I2C_WriteByte@st:	
  2844                           ; 1 bytes @ 0x4
  2845                           
  2846     0074                     memcpy@n:	
  2847                           ; 1 bytes @ 0x4
  2848                           
  2849     0074                     memset@n:	
  2850                           ; 2 bytes @ 0x4
  2851                           
  2852     0074                     ___lldiv@dividend:	
  2853                           ; 2 bytes @ 0x4
  2854                           
  2855     0074                     ___aldiv@dividend:	
  2856                           ; 4 bytes @ 0x4
  2857                           
  2858     0074                     ___almod@dividend:	
  2859                           ; 4 bytes @ 0x4
  2860                           
  2861     0074                     ___llmod@dividend:	
  2862                           ; 4 bytes @ 0x4
  2863                           
  2864                           
  2865                           ; 4 bytes @ 0x4
  2866     0074                     	ds	1
  2867     0075                     ??_OLED_Command:
  2868     0075                     ?_OLED_WriteData:	
  2869                           ; 1 bytes @ 0x5
  2870                           
  2871     0075                     OLED_Command@cmd:	
  2872                           ; 1 bytes @ 0x5
  2873                           
  2874     0075                     get_dec@var2:	
  2875                           ; 1 bytes @ 0x5
  2876                           
  2877     0075                     ___awdiv@counter:	
  2878                           ; 1 bytes @ 0x5
  2879                           
  2880     0075                     ___awmod@counter:	
  2881                           ; 1 bytes @ 0x5
  2882                           
  2883     0075                     ___lwmod@counter:	
  2884                           ; 1 bytes @ 0x5
  2885                           
  2886     0075                     OLED_WriteData@data:	
  2887                           ; 1 bytes @ 0x5
  2888                           
  2889     0075                     ___lwdiv@quotient:	
  2890                           ; 2 bytes @ 0x5
  2891                           
  2892     0075                     strcpy@d:	
  2893                           ; 2 bytes @ 0x5
  2894                           
  2895                           
  2896                           ; 2 bytes @ 0x5
  2897     0075                     	ds	1
  2898     0076                     ??_memset:
  2899     0076                     ??_memcpy:	
  2900                           ; 1 bytes @ 0x6
  2901                           
  2902     0076                     OLED_Command@st:	
  2903                           ; 1 bytes @ 0x6
  2904                           
  2905     0076                     get_dec@var:	
  2906                           ; 1 bytes @ 0x6
  2907                           
  2908     0076                     ___awdiv@sign:	
  2909                           ; 1 bytes @ 0x6
  2910                           
  2911     0076                     ___awmod@sign:	
  2912                           ; 1 bytes @ 0x6
  2913                           
  2914     0076                     memcpy@d:	
  2915                           ; 1 bytes @ 0x6
  2916                           
  2917     0076                     memset@p:	
  2918                           ; 2 bytes @ 0x6
  2919                           
  2920                           
  2921                           ; 2 bytes @ 0x6
  2922     0076                     	ds	1
  2923     0077                     ?_OLED_YX:
  2924     0077                     ??_RTC_ReadBurst:	
  2925                           ; 1 bytes @ 0x7
  2926                           
  2927     0077                     OLED_YX@col_char:	
  2928                           ; 1 bytes @ 0x7
  2929                           
  2930     0077                     ___lwdiv@counter:	
  2931                           ; 1 bytes @ 0x7
  2932                           
  2933     0077                     OLED_WriteData@len:	
  2934                           ; 1 bytes @ 0x7
  2935                           
  2936     0077                     ___awdiv@quotient:	
  2937                           ; 2 bytes @ 0x7
  2938                           
  2939                           
  2940                           ; 2 bytes @ 0x7
  2941     0077                     	ds	1
  2942     0078                     ??_OLED_YX:
  2943     0078                     ??___lldiv:	
  2944                           ; 1 bytes @ 0x8
  2945                           
  2946     0078                     ??___aldiv:	
  2947                           ; 1 bytes @ 0x8
  2948                           
  2949     0078                     ??___almod:	
  2950                           ; 1 bytes @ 0x8
  2951                           
  2952     0078                     ??___llmod:	
  2953                           ; 1 bytes @ 0x8
  2954                           
  2955     0078                     memcpy@s:	
  2956                           ; 1 bytes @ 0x8
  2957                           
  2958                           
  2959                           ; 2 bytes @ 0x8
  2960     0078                     	ds	1
  2961     0079                     ??_get_bcd:
  2962     0079                     ??_OLED_WriteData:	
  2963                           ; 1 bytes @ 0x9
  2964                           
  2965     0079                     OLED_YX@page:	
  2966                           ; 1 bytes @ 0x9
  2967                           
  2968     0079                     ___almod@counter:	
  2969                           ; 1 bytes @ 0x9
  2970                           
  2971     0079                     ___llmod@counter:	
  2972                           ; 1 bytes @ 0x9
  2973                           
  2974     0079                     OLED_WriteData@i:	
  2975                           ; 1 bytes @ 0x9
  2976                           
  2977     0079                     ___lldiv@quotient:	
  2978                           ; 2 bytes @ 0x9
  2979                           
  2980                           
  2981                           ; 4 bytes @ 0x9
  2982     0079                     	ds	1
  2983     007A                     OLED_YX@col:
  2984     007A                     ___almod@sign:	
  2985                           ; 1 bytes @ 0xA
  2986                           
  2987     007A                     memcpy@tmp:	
  2988                           ; 1 bytes @ 0xA
  2989                           
  2990                           
  2991                           ; 1 bytes @ 0xA
  2992     007A                     	ds	1
  2993     007B                     OLED_WriteData@st:
  2994     007B                     get_bcd@nibl:	
  2995                           ; 1 bytes @ 0xB
  2996                           
  2997                           
  2998                           ; 1 bytes @ 0xB
  2999     007B                     	ds	1
  3000     007C                     OLED_Clear@p:
  3001     007C                     OLED_UpdateLine@page:	
  3002                           ; 1 bytes @ 0xC
  3003                           
  3004     007C                     get_bcd@data:	
  3005                           ; 1 bytes @ 0xC
  3006                           
  3007                           
  3008                           ; 1 bytes @ 0xC
  3009     007C                     	ds	1
  3010     007D                     ??_OLED_Init:
  3011     007D                     get_bcd@nibh:	
  3012                           ; 1 bytes @ 0xD
  3013                           
  3014     007D                     ___lldiv@counter:	
  3015                           ; 1 bytes @ 0xD
  3016                           
  3017                           
  3018                           ; 1 bytes @ 0xD
  3019     007D                     	ds	1
  3020     007E                     ??_DS1302_Initialize:
  3021                           
  3022                           	psect	cstackBANK0
  3023     0020                     __pcstackBANK0:	
  3024                           ; 1 bytes @ 0xE
  3025                           
  3026     0020                     ??_OLED_Clear:
  3027     0020                     ?_DS1302_Initialize:	
  3028                           ; 1 bytes @ 0x0
  3029                           
  3030     0020                     ??_OLED_UpdateLine:	
  3031                           ; 1 bytes @ 0x0
  3032                           
  3033     0020                     RTC_ReadBurst@sec1:	
  3034                           ; 1 bytes @ 0x0
  3035                           
  3036     0020                     DS1302_Initialize@min:	
  3037                           ; 1 bytes @ 0x0
  3038                           
  3039     0020                     ___aldiv@counter:	
  3040                           ; 1 bytes @ 0x0
  3041                           
  3042                           
  3043                           ; 1 bytes @ 0x0
  3044     0020                     	ds	1
  3045     0021                     RTC_ReadBurst@min1:
  3046     0021                     DS1302_Initialize@hr:	
  3047                           ; 1 bytes @ 0x1
  3048                           
  3049     0021                     ___aldiv@sign:	
  3050                           ; 1 bytes @ 0x1
  3051                           
  3052                           
  3053                           ; 1 bytes @ 0x1
  3054     0021                     	ds	1
  3055     0022                     RTC_ReadBurst@hr1:
  3056     0022                     DS1302_Initialize@day:	
  3057                           ; 1 bytes @ 0x2
  3058                           
  3059     0022                     ___aldiv@quotient:	
  3060                           ; 1 bytes @ 0x2
  3061                           
  3062                           
  3063                           ; 4 bytes @ 0x2
  3064     0022                     	ds	1
  3065     0023                     RTC_ReadBurst@date1:
  3066     0023                     DS1302_Initialize@date:	
  3067                           ; 1 bytes @ 0x3
  3068                           
  3069                           
  3070                           ; 1 bytes @ 0x3
  3071     0023                     	ds	1
  3072     0024                     RTC_ReadBurst@mn1:
  3073     0024                     DS1302_Initialize@mth:	
  3074                           ; 1 bytes @ 0x4
  3075                           
  3076                           
  3077                           ; 1 bytes @ 0x4
  3078     0024                     	ds	1
  3079     0025                     RTC_ReadBurst@dy1:
  3080     0025                     DS1302_Initialize@year:	
  3081                           ; 1 bytes @ 0x5
  3082                           
  3083                           
  3084                           ; 1 bytes @ 0x5
  3085     0025                     	ds	1
  3086     0026                     ?_OLED_Printf_Line:
  3087     0026                     RTC_ReadBurst@yr1:	
  3088                           ; 1 bytes @ 0x6
  3089                           
  3090     0026                     DS1302_Initialize@sec:	
  3091                           ; 1 bytes @ 0x6
  3092                           
  3093     0026                     OLED_Printf_Line@fmt:	
  3094                           ; 1 bytes @ 0x6
  3095                           
  3096                           
  3097                           ; 2 bytes @ 0x6
  3098     0026                     	ds	1
  3099     0027                     RTC_ReadBurst@t:
  3100     0027                     DS1302_Initialize@sec1:	
  3101                           ; 1 bytes @ 0x7
  3102                           
  3103                           
  3104                           ; 1 bytes @ 0x7
  3105     0027                     	ds	1
  3106     0028                     DS1302_Initialize@min1:
  3107                           
  3108                           ; 1 bytes @ 0x8
  3109     0028                     	ds	1
  3110     0029                     DS1302_Initialize@hr1:
  3111                           
  3112                           ; 1 bytes @ 0x9
  3113     0029                     	ds	1
  3114     002A                     DS1302_Initialize@day1:
  3115                           
  3116                           ; 1 bytes @ 0xA
  3117     002A                     	ds	1
  3118     002B                     DS1302_Initialize@date1:
  3119                           
  3120                           ; 1 bytes @ 0xB
  3121     002B                     	ds	1
  3122     002C                     DS1302_Initialize@mth1:
  3123                           
  3124                           ; 1 bytes @ 0xC
  3125     002C                     	ds	1
  3126     002D                     DS1302_Initialize@year1:
  3127                           
  3128                           ; 1 bytes @ 0xD
  3129     002D                     	ds	1
  3130     002E                     ??_OLED_Printf_Line:
  3131                           
  3132                           ; 1 bytes @ 0xE
  3133     002E                     	ds	12
  3134     003A                     OLED_Printf_Line@temp_353:
  3135                           
  3136                           ; 11 bytes @ 0x1A
  3137     003A                     	ds	11
  3138     0045                     OLED_Printf_Line@temp_356:
  3139                           
  3140                           ; 11 bytes @ 0x25
  3141     0045                     	ds	11
  3142     0050                     OLED_Printf_Line@temp:
  3143                           
  3144                           ; 6 bytes @ 0x30
  3145     0050                     	ds	6
  3146     0056                     OLED_Printf_Line@temp_359:
  3147                           
  3148                           ; 6 bytes @ 0x36
  3149     0056                     	ds	6
  3150     005C                     OLED_Printf_Line@temp_362:
  3151                           
  3152                           ; 5 bytes @ 0x3C
  3153     005C                     	ds	5
  3154     0061                     OLED_Printf_Line@str:
  3155                           
  3156                           ; 1 bytes @ 0x41
  3157     0061                     	ds	1
  3158     0062                     ??_UI_DrawTime:
  3159     0062                     ??_UI_DrawDate:	
  3160                           ; 1 bytes @ 0x42
  3161                           
  3162                           
  3163                           ; 1 bytes @ 0x42
  3164     0062                     	ds	6
  3165     0068                     UI_DrawTime@t:
  3166     0068                     UI_DrawDate@t:	
  3167                           ; 1 bytes @ 0x48
  3168                           
  3169                           
  3170                           ; 1 bytes @ 0x48
  3171     0068                     	ds	1
  3172     0069                     ??_main:
  3173                           
  3174                           ; 1 bytes @ 0x49
  3175     0069                     	ds	2
  3176                           
  3177                           	psect	maintext
  3178     0F97                     __pmaintext:	
  3179 ;;
  3180 ;;Main: autosize = 0, tempsize = 2, incstack = 0, save=0
  3181 ;;
  3182 ;; *************** function _main *****************
  3183 ;; Defined at:
  3184 ;;		line 82 in file "main.c"
  3185 ;; Parameters:    Size  Location     Type
  3186 ;;		None
  3187 ;; Auto vars:     Size  Location     Type
  3188 ;;  now             7   67[BANK1 ] struct .
  3189 ;;  last_sec        1   66[BANK1 ] unsigned char 
  3190 ;;  last_date       1   65[BANK1 ] unsigned char 
  3191 ;; Return value:  Size  Location     Type
  3192 ;;                  1    wreg      void 
  3193 ;; Registers used:
  3194 ;;		wreg, fsr0l, fsr0h, fsr1l, fsr1h, status,2, status,0, pclath, cstack
  3195 ;; Tracked objects:
  3196 ;;		On entry : B1F/0
  3197 ;;		On exit  : 0/0
  3198 ;;		Unchanged: 0/0
  3199 ;; Data sizes:     COMMON   BANK0   BANK1   BANK2   BANK3   BANK4   BANK5   BANK6   BANK7   BANK8   BANK9  BANK10  BANK1
      +1  BANK12  BANK13  BANK14  BANK15  BANK16  BANK17  BANK18  BANK19  BANK20  BANK21  BANK22  BANK23  BANK24  BANK25
  3200 ;;      Params:         0       0       0       0       0       0       0       0       0       0       0       0       
      +0       0       0       0       0       0       0       0       0       0       0       0       0       0       0
  3201 ;;      Locals:         0       0       9       0       0       0       0       0       0       0       0       0       
      +0       0       0       0       0       0       0       0       0       0       0       0       0       0       0
  3202 ;;      Temps:          0       2       0       0       0       0       0       0       0       0       0       0       
      +0       0       0       0       0       0       0       0       0       0       0       0       0       0       0
  3203 ;;      Totals:         0       2       9       0       0       0       0       0       0       0       0       0       
      +0       0       0       0       0       0       0       0       0       0       0       0       0       0       0
  3204 ;;Total ram usage:       11 bytes
  3205 ;; Hardware stack levels required when called: 7
  3206 ;; This function calls:
  3207 ;;		_DS1302_Initialize
  3208 ;;		_I2C_Init
  3209 ;;		_OLED_Clear
  3210 ;;		_OLED_Init
  3211 ;;		_RTC_ReadBurst
  3212 ;;		_UI_DrawDate
  3213 ;;		_UI_DrawTime
  3214 ;;		_initMain
  3215 ;; This function is called by:
  3216 ;;		Startup code after reset
  3217 ;; This function uses a non-reentrant model
  3218 ;;
  3219                           
  3220     0F97                     _main:	
  3221                           ;psect for function _main
  3222                           
  3223     0F97                     l3383:	
  3224                           ;incstack = 0
  3225                           ; Regs used in _main: [wreg-fsr1h+status,2+status,0+pclath+cstack]
  3226                           
  3227                           
  3228                           ;main.c: 84:     initMain();
  3229     0F97  318D  2591  318F   	fcall	_initMain
  3230                           
  3231                           ;main.c: 86:     I2C_Init();
  3232     0F9A  3197  278D  318F   	fcall	_I2C_Init
  3233     0F9D                     l3385:
  3234                           
  3235                           ;main.c: 87:     _delay((unsigned long)((200)*(32000000/4000.0)));
  3236     0F9D  3009               	movlw	9
  3237     0F9E  0020               	movlb	0	; select bank0
  3238     0F9F  00EA               	movwf	??_main+1
  3239     0FA0  301E               	movlw	30
  3240     0FA1  00E9               	movwf	??_main
  3241     0FA2  30E4               	movlw	228
  3242     0FA3                     u3917:
  3243     0FA3  0B89               	decfsz	9,f
  3244     0FA4  2FA3               	goto	u3917
  3245     0FA5  0BE9               	decfsz	??_main,f
  3246     0FA6  2FA3               	goto	u3917
  3247     0FA7  0BEA               	decfsz	??_main+1,f
  3248     0FA8  2FA3               	goto	u3917
  3249     0FA9  0000               	nop
  3250     0FAA                     l3387:
  3251                           
  3252                           ;main.c: 89:     OLED_Init();
  3253     0FAA  3180  20D8  318F   	fcall	_OLED_Init
  3254     0FAD                     l3389:
  3255                           
  3256                           ;main.c: 90:     OLED_Clear();
  3257     0FAD  318E  264D  318F   	fcall	_OLED_Clear
  3258     0FB0                     l3391:
  3259                           
  3260                           ;main.c: 95:     DS1302_Initialize(
  3261     0FB0  303B               	movlw	59
  3262     0FB1  0020               	movlb	0	; select bank0
  3263     0FB2  00A0               	movwf	DS1302_Initialize@min
  3264     0FB3  3017               	movlw	23
  3265     0FB4  00A1               	movwf	DS1302_Initialize@hr
  3266     0FB5  3002               	movlw	2
  3267     0FB6  00A2               	movwf	DS1302_Initialize@day
  3268     0FB7  301C               	movlw	28
  3269     0FB8  00A3               	movwf	DS1302_Initialize@date
  3270     0FB9  300C               	movlw	12
  3271     0FBA  00A4               	movwf	DS1302_Initialize@mth
  3272     0FBB  3019               	movlw	25
  3273     0FBC  00A5               	movwf	DS1302_Initialize@year
  3274     0FBD  3032               	movlw	50
  3275     0FBE  3180  2064  318F   	fcall	_DS1302_Initialize
  3276                           
  3277                           ;main.c: 107:     uint8_t last_date = 0xFF;
  3278     0FC1  30FF               	movlw	255
  3279     0FC2  0021               	movlb	1	; select bank1
  3280     0FC3  00E1               	movwf	main@last_date^(0+128)
  3281     0FC4                     l3393:
  3282                           
  3283                           ;main.c: 109:     RTC_ReadBurst(&now);
  3284     0FC4  30E3               	movlw	(low (main@now| 0))& (0+255)
  3285     0FC5  3181  214C  318F   	fcall	_RTC_ReadBurst
  3286     0FC8                     l3395:
  3287                           
  3288                           ;main.c: 110:     UI_DrawTime(&now);
  3289     0FC8  30E3               	movlw	(low (main@now| 0))& (0+255)
  3290     0FC9  318C  244E  318F   	fcall	_UI_DrawTime
  3291     0FCC                     l3397:
  3292                           
  3293                           ;main.c: 111:     UI_DrawDate(&now);
  3294     0FCC  30E3               	movlw	(low (main@now| 0))& (0+255)
  3295     0FCD  318C  24A4  318F   	fcall	_UI_DrawDate
  3296     0FD0                     l3399:
  3297                           
  3298                           ;main.c: 112:     last_sec = now.sec;
  3299     0FD0  0021               	movlb	1	; select bank1
  3300     0FD1  0863               	movf	main@now^(0+128),w
  3301     0FD2  00E2               	movwf	main@last_sec^(0+128)
  3302     0FD3                     l3401:
  3303     0FD3                     l3403:
  3304                           
  3305                           ;main.c: 116:     {;main.c: 117:         RTC_ReadBurst(&now);
  3306     0FD3  30E3               	movlw	(low (main@now| 0))& (0+255)
  3307     0FD4  3181  214C  318F   	fcall	_RTC_ReadBurst
  3308                           
  3309                           ;main.c: 120:         static uint8_t last_date = 0xFF;;main.c: 122:         if (now.sec 
      +                          != last_sec)
  3310     0FD7  0021               	movlb	1	; select bank1
  3311     0FD8  0863               	movf	main@now^(0+128),w
  3312     0FD9  0662               	xorwf	main@last_sec^(0+128),w
  3313     0FDA  1903               	skipnz
  3314     0FDB  2FDD               	goto	u3891
  3315     0FDC  2FDE               	goto	u3890
  3316     0FDD                     u3891:
  3317     0FDD  2FF1               	goto	l3415
  3318     0FDE                     u3890:
  3319     0FDE                     l3405:
  3320                           
  3321                           ;main.c: 123:         {;main.c: 124:             last_sec = now.sec;
  3322     0FDE  0863               	movf	main@now^(0+128),w
  3323     0FDF  00E2               	movwf	main@last_sec^(0+128)
  3324     0FE0                     l3407:
  3325                           
  3326                           ;main.c: 125:             UI_DrawTime(&now);
  3327     0FE0  30E3               	movlw	(low (main@now| 0))& (0+255)
  3328     0FE1  318C  244E  318F   	fcall	_UI_DrawTime
  3329     0FE4                     l3409:
  3330                           
  3331                           ;main.c: 127:             if (now.date != last_date)
  3332     0FE4  0021               	movlb	1	; select bank1
  3333     0FE5  0867               	movf	(main@now^(0+128)+4),w
  3334     0FE6  066A               	xorwf	main@ast_date_701^(0+128),w
  3335     0FE7  1903               	skipnz
  3336     0FE8  2FEA               	goto	u3901
  3337     0FE9  2FEB               	goto	u3900
  3338     0FEA                     u3901:
  3339     0FEA  2FF1               	goto	l3415
  3340     0FEB                     u3900:
  3341     0FEB                     l3411:
  3342                           
  3343                           ;main.c: 128:             {;main.c: 129:                 last_date = now.date;
  3344     0FEB  0867               	movf	(main@now^(0+128)+4),w
  3345     0FEC  00EA               	movwf	main@ast_date_701^(0+128)
  3346     0FED                     l3413:
  3347                           
  3348                           ;main.c: 130:                 UI_DrawDate(&now);
  3349     0FED  30E3               	movlw	(low (main@now| 0))& (0+255)
  3350     0FEE  318C  24A4  318F   	fcall	_UI_DrawDate
  3351     0FF1                     l3415:
  3352                           
  3353                           ;main.c: 134:         _delay((unsigned long)((50)*(32000000/4000.0)));
  3354     0FF1  3003               	movlw	3
  3355     0FF2  0020               	movlb	0	; select bank0
  3356     0FF3  00EA               	movwf	??_main+1
  3357     0FF4  3008               	movlw	8
  3358     0FF5  00E9               	movwf	??_main
  3359     0FF6  3077               	movlw	119
  3360     0FF7                     u3927:
  3361     0FF7  0B89               	decfsz	9,f
  3362     0FF8  2FF7               	goto	u3927
  3363     0FF9  0BE9               	decfsz	??_main,f
  3364     0FFA  2FF7               	goto	u3927
  3365     0FFB  0BEA               	decfsz	??_main+1,f
  3366     0FFC  2FF7               	goto	u3927
  3367     0FFD  2FD3               	goto	l3403
  3368     0FFE  3180  2802         	ljmp	start
  3369     1000                     __end_of_main:
  3370                           
  3371                           	psect	text1
  3372     0D91                     __ptext1:	
  3373 ;; *************** function _initMain *****************
  3374 ;; Defined at:
  3375 ;;		line 13 in file "main.c"
  3376 ;; Parameters:    Size  Location     Type
  3377 ;;		None
  3378 ;; Auto vars:     Size  Location     Type
  3379 ;;		None
  3380 ;; Return value:  Size  Location     Type
  3381 ;;                  1    wreg      void 
  3382 ;; Registers used:
  3383 ;;		wreg, status,2, status,0, pclath, cstack
  3384 ;; Tracked objects:
  3385 ;;		On entry : 0/0
  3386 ;;		On exit  : 0/0
  3387 ;;		Unchanged: 0/0
  3388 ;; Data sizes:     COMMON   BANK0   BANK1   BANK2   BANK3   BANK4   BANK5   BANK6   BANK7   BANK8   BANK9  BANK10  BANK1
      +1  BANK12  BANK13  BANK14  BANK15  BANK16  BANK17  BANK18  BANK19  BANK20  BANK21  BANK22  BANK23  BANK24  BANK25
  3389 ;;      Params:         0       0       0       0       0       0       0       0       0       0       0       0       
      +0       0       0       0       0       0       0       0       0       0       0       0       0       0       0
  3390 ;;      Locals:         0       0       0       0       0       0       0       0       0       0       0       0       
      +0       0       0       0       0       0       0       0       0       0       0       0       0       0       0
  3391 ;;      Temps:          0       0       0       0       0       0       0       0       0       0       0       0       
      +0       0       0       0       0       0       0       0       0       0       0       0       0       0       0
  3392 ;;      Totals:         0       0       0       0       0       0       0       0       0       0       0       0       
      +0       0       0       0       0       0       0       0       0       0       0       0       0       0       0
  3393 ;;Total ram usage:        0 bytes
  3394 ;; Hardware stack levels used: 1
  3395 ;; Hardware stack levels required when called: 1
  3396 ;; This function calls:
  3397 ;;		_internal_16
  3398 ;; This function is called by:
  3399 ;;		_main
  3400 ;; This function uses a non-reentrant model
  3401 ;;
  3402                           
  3403     0D91                     _initMain:	
  3404                           ;psect for function _initMain
  3405                           
  3406     0D91                     l3143:	
  3407                           ;incstack = 0
  3408                           ; Regs used in _initMain: [wreg+status,2+status,0+pclath+cstack]
  3409                           
  3410                           
  3411                           ;main.c: 15:     internal_16();
  3412     0D91  3197  2778  318D   	fcall	_internal_16
  3413     0D94                     l3145:
  3414                           
  3415                           ;main.c: 18:     ANSELCbits.ANSC4 = 0;
  3416     0D94  0023               	movlb	3	; select bank3
  3417     0D95  120E               	bcf	14,4	;volatile
  3418     0D96                     l3147:
  3419                           
  3420                           ;main.c: 19:     ANSELCbits.ANSC5 = 0;
  3421     0D96  128E               	bcf	14,5	;volatile
  3422     0D97                     l3149:
  3423                           
  3424                           ;main.c: 20:     TRISCbits.TRISC4 = 1;
  3425     0D97  0021               	movlb	1	; select bank1
  3426     0D98  160E               	bsf	14,4	;volatile
  3427     0D99                     l3151:
  3428                           
  3429                           ;main.c: 21:     TRISCbits.TRISC5 = 1;
  3430     0D99  168E               	bsf	14,5	;volatile
  3431     0D9A                     l3153:
  3432                           
  3433                           ;main.c: 23:     PPSLOCK = 0x55; PPSLOCK = 0xAA; PPSLOCKbits.PPSLOCKED = 0x00;
  3434     0D9A  3055               	movlw	85
  3435     0D9B  003C               	movlb	28	; select bank28
  3436     0D9C  008F               	movwf	15	;volsfr
  3437     0D9D                     l3155:
  3438     0D9D  30AA               	movlw	170
  3439     0D9E  008F               	movwf	15	;volsfr
  3440     0D9F                     l3157:
  3441     0D9F  100F               	bcf	15,0	;volsfr
  3442     0DA0                     l3159:
  3443                           
  3444                           ;main.c: 24:     RC4PPSbits.RC4PPS = 0x0011;
  3445     0DA0  003D               	movlb	29	; select bank29
  3446     0DA1  0824               	movf	36,w	;volatile
  3447     0DA2  39E0               	andlw	-32
  3448     0DA3  3811               	iorlw	17
  3449     0DA4  00A4               	movwf	36	;volatile
  3450     0DA5                     l3161:
  3451                           
  3452                           ;main.c: 25:     SSPDATPPSbits.SSPDATPPS = 0x0014;
  3453     0DA5  003C               	movlb	28	; select bank28
  3454     0DA6  0821               	movf	33,w	;volatile
  3455     0DA7  39E0               	andlw	-32
  3456     0DA8  3814               	iorlw	20
  3457     0DA9  00A1               	movwf	33	;volatile
  3458     0DAA                     l3163:
  3459                           
  3460                           ;main.c: 26:     SSPCLKPPSbits.SSPCLKPPS = 0x0015;
  3461     0DAA  0820               	movf	32,w	;volatile
  3462     0DAB  39E0               	andlw	-32
  3463     0DAC  3815               	iorlw	21
  3464     0DAD  00A0               	movwf	32	;volatile
  3465     0DAE                     l3165:
  3466                           
  3467                           ;main.c: 27:     RC5PPSbits.RC5PPS = 0x0010;
  3468     0DAE  003D               	movlb	29	; select bank29
  3469     0DAF  0825               	movf	37,w	;volatile
  3470     0DB0  39E0               	andlw	-32
  3471     0DB1  3810               	iorlw	16
  3472     0DB2  00A5               	movwf	37	;volatile
  3473     0DB3                     l3167:
  3474                           
  3475                           ;main.c: 28:     PPSLOCK = 0x55; PPSLOCK = 0xAA; PPSLOCKbits.PPSLOCKED = 0x01;
  3476     0DB3  3055               	movlw	85
  3477     0DB4  003C               	movlb	28	; select bank28
  3478     0DB5  008F               	movwf	15	;volsfr
  3479     0DB6                     l3169:
  3480     0DB6  30AA               	movlw	170
  3481     0DB7  008F               	movwf	15	;volsfr
  3482     0DB8                     l3171:
  3483     0DB8  140F               	bsf	15,0	;volsfr
  3484     0DB9                     l3173:
  3485                           
  3486                           ;main.c: 31:     ANSELBbits.ANSB0 = 0;
  3487     0DB9  0023               	movlb	3	; select bank3
  3488     0DBA  100D               	bcf	13,0	;volatile
  3489     0DBB                     l3175:
  3490                           
  3491                           ;main.c: 32:     ANSELBbits.ANSB1 = 0;
  3492     0DBB  108D               	bcf	13,1	;volatile
  3493     0DBC                     l3177:
  3494                           
  3495                           ;main.c: 33:     ANSELBbits.ANSB2 = 0;
  3496     0DBC  110D               	bcf	13,2	;volatile
  3497     0DBD                     l3179:
  3498                           
  3499                           ;main.c: 35:     TRISBbits.TRISB0 = 0;
  3500     0DBD  0021               	movlb	1	; select bank1
  3501     0DBE  100D               	bcf	13,0	;volatile
  3502     0DBF                     l3181:
  3503                           
  3504                           ;main.c: 36:     TRISBbits.TRISB1 = 0;
  3505     0DBF  108D               	bcf	13,1	;volatile
  3506     0DC0                     l3183:
  3507                           
  3508                           ;main.c: 37:     TRISBbits.TRISB2 = 0;
  3509     0DC0  110D               	bcf	13,2	;volatile
  3510     0DC1                     l3185:
  3511                           
  3512                           ;main.c: 39:     LATBbits.LATB0 = 0;
  3513     0DC1  0022               	movlb	2	; select bank2
  3514     0DC2  100D               	bcf	13,0	;volatile
  3515     0DC3                     l3187:
  3516                           
  3517                           ;main.c: 40:     LATBbits.LATB1 = 0;
  3518     0DC3  108D               	bcf	13,1	;volatile
  3519     0DC4                     l3189:
  3520                           
  3521                           ;main.c: 41:     PORTBbits.RB2 = 0;
  3522     0DC4  0020               	movlb	0	; select bank0
  3523     0DC5  110D               	bcf	13,2	;volatile
  3524     0DC6                     l369:
  3525     0DC6  0008               	return
  3526     0DC7                     __end_of_initMain:
  3527                           
  3528                           	psect	text2
  3529     1778                     __ptext2:	
  3530 ;; *************** function _internal_16 *****************
  3531 ;; Defined at:
  3532 ;;		line 61 in file "PIC16F1718_Internal.c"
  3533 ;; Parameters:    Size  Location     Type
  3534 ;;		None
  3535 ;; Auto vars:     Size  Location     Type
  3536 ;;		None
  3537 ;; Return value:  Size  Location     Type
  3538 ;;                  1    wreg      void 
  3539 ;; Registers used:
  3540 ;;		None
  3541 ;; Tracked objects:
  3542 ;;		On entry : 0/0
  3543 ;;		On exit  : 0/0
  3544 ;;		Unchanged: 0/0
  3545 ;; Data sizes:     COMMON   BANK0   BANK1   BANK2   BANK3   BANK4   BANK5   BANK6   BANK7   BANK8   BANK9  BANK10  BANK1
      +1  BANK12  BANK13  BANK14  BANK15  BANK16  BANK17  BANK18  BANK19  BANK20  BANK21  BANK22  BANK23  BANK24  BANK25
  3546 ;;      Params:         0       0       0       0       0       0       0       0       0       0       0       0       
      +0       0       0       0       0       0       0       0       0       0       0       0       0       0       0
  3547 ;;      Locals:         0       0       0       0       0       0       0       0       0       0       0       0       
      +0       0       0       0       0       0       0       0       0       0       0       0       0       0       0
  3548 ;;      Temps:          0       0       0       0       0       0       0       0       0       0       0       0       
      +0       0       0       0       0       0       0       0       0       0       0       0       0       0       0
  3549 ;;      Totals:         0       0       0       0       0       0       0       0       0       0       0       0       
      +0       0       0       0       0       0       0       0       0       0       0       0       0       0       0
  3550 ;;Total ram usage:        0 bytes
  3551 ;; Hardware stack levels used: 1
  3552 ;; This function calls:
  3553 ;;		Nothing
  3554 ;; This function is called by:
  3555 ;;		_initMain
  3556 ;; This function uses a non-reentrant model
  3557 ;;
  3558                           
  3559     1778                     _internal_16:	
  3560                           ;psect for function _internal_16
  3561                           
  3562     1778                     l3019:	
  3563                           ;incstack = 0
  3564                           ; Regs used in _internal_16: []
  3565                           
  3566                           
  3567                           ;PIC16F1718_Internal.c: 63:     SCS0 = 0;
  3568     1778  0021               	movlb	1	; select bank1
  3569     1779  1019               	bcf	25,0	;volatile
  3570                           
  3571                           ;PIC16F1718_Internal.c: 64:     SCS1 = 0;
  3572     177A  1099               	bcf	25,1	;volatile
  3573                           
  3574                           ;PIC16F1718_Internal.c: 67:     IRCF0 = 1;
  3575     177B  1599               	bsf	25,3	;volatile
  3576                           
  3577                           ;PIC16F1718_Internal.c: 68:     IRCF1 = 1;
  3578     177C  1619               	bsf	25,4	;volatile
  3579                           
  3580                           ;PIC16F1718_Internal.c: 69:     IRCF2 = 1;
  3581     177D  1699               	bsf	25,5	;volatile
  3582                           
  3583                           ;PIC16F1718_Internal.c: 70:     IRCF3 = 1;
  3584     177E  1719               	bsf	25,6	;volatile
  3585                           
  3586                           ;PIC16F1718_Internal.c: 73:     SPLLEN = 0;
  3587     177F  1399               	bcf	25,7	;volatile
  3588     1780                     l305:
  3589     1780  0008               	return
  3590     1781                     __end_of_internal_16:
  3591                           
  3592                           	psect	text3
  3593     0C4E                     __ptext3:	
  3594 ;; *************** function _UI_DrawTime *****************
  3595 ;; Defined at:
  3596 ;;		line 72 in file "main.c"
  3597 ;; Parameters:    Size  Location     Type
  3598 ;;  t               1    wreg     PTR const struct .
  3599 ;;		 -> main@now(7), 
  3600 ;; Auto vars:     Size  Location     Type
  3601 ;;  t               1   72[BANK0 ] PTR const struct .
  3602 ;;		 -> main@now(7), 
  3603 ;; Return value:  Size  Location     Type
  3604 ;;                  1    wreg      void 
  3605 ;; Registers used:
  3606 ;;		wreg, fsr0l, fsr0h, fsr1l, fsr1h, status,2, status,0, pclath, cstack
  3607 ;; Tracked objects:
  3608 ;;		On entry : 0/0
  3609 ;;		On exit  : 0/0
  3610 ;;		Unchanged: 0/0
  3611 ;; Data sizes:     COMMON   BANK0   BANK1   BANK2   BANK3   BANK4   BANK5   BANK6   BANK7   BANK8   BANK9  BANK10  BANK1
      +1  BANK12  BANK13  BANK14  BANK15  BANK16  BANK17  BANK18  BANK19  BANK20  BANK21  BANK22  BANK23  BANK24  BANK25
  3612 ;;      Params:         0       0       0       0       0       0       0       0       0       0       0       0       
      +0       0       0       0       0       0       0       0       0       0       0       0       0       0       0
  3613 ;;      Locals:         0       1       0       0       0       0       0       0       0       0       0       0       
      +0       0       0       0       0       0       0       0       0       0       0       0       0       0       0
  3614 ;;      Temps:          0       6       0       0       0       0       0       0       0       0       0       0       
      +0       0       0       0       0       0       0       0       0       0       0       0       0       0       0
  3615 ;;      Totals:         0       7       0       0       0       0       0       0       0       0       0       0       
      +0       0       0       0       0       0       0       0       0       0       0       0       0       0       0
  3616 ;;Total ram usage:        7 bytes
  3617 ;; Hardware stack levels used: 1
  3618 ;; Hardware stack levels required when called: 6
  3619 ;; This function calls:
  3620 ;;		_OLED_Printf_Line
  3621 ;; This function is called by:
  3622 ;;		_main
  3623 ;; This function uses a non-reentrant model
  3624 ;;
  3625                           
  3626     0C4E                     _UI_DrawTime:	
  3627                           ;psect for function _UI_DrawTime
  3628                           
  3629                           
  3630                           ;incstack = 0
  3631                           ; Regs used in _UI_DrawTime: [wreg-fsr1h+status,2+status,0+pclath+cstack]
  3632                           ;UI_DrawTime@t stored from wreg
  3633     0C4E  0020               	movlb	0	; select bank0
  3634     0C4F  00E8               	movwf	UI_DrawTime@t
  3635     0C50                     l3223:
  3636                           
  3637                           ;main.c: 72: static void UI_DrawTime(const rtc_time_t* t);main.c: 73: {;main.c: 74:     
      +                          OLED_Printf_Line(0, "Time: %02u:%02u:%02u", t->hr, t->min, t->sec);
  3638     0C50  3000               	movlw	low (STR_1| (0+32768))
  3639     0C51  00A6               	movwf	OLED_Printf_Line@fmt
  3640     0C52  3098               	movlw	high (STR_1| (0+32768))
  3641     0C53  00A7               	movwf	OLED_Printf_Line@fmt+1
  3642     0C54  0868               	movf	UI_DrawTime@t,w
  3643     0C55  3E02               	addlw	2
  3644     0C56  0086               	movwf	6
  3645     0C57  0187               	clrf	7
  3646     0C58  0801               	movf	1,w
  3647     0C59  00E2               	movwf	??_UI_DrawTime
  3648     0C5A  01E3               	clrf	??_UI_DrawTime+1
  3649     0C5B  0862               	movf	??_UI_DrawTime,w
  3650     0C5C  00A8               	movwf	?_OLED_Printf_Line+2
  3651     0C5D  0863               	movf	??_UI_DrawTime+1,w
  3652     0C5E  00A9               	movwf	?_OLED_Printf_Line+3
  3653     0C5F  0A68               	incf	UI_DrawTime@t,w
  3654     0C60  0086               	movwf	6
  3655     0C61  0187               	clrf	7
  3656     0C62  0801               	movf	1,w
  3657     0C63  00E4               	movwf	??_UI_DrawTime+2
  3658     0C64  01E5               	clrf	??_UI_DrawTime+3
  3659     0C65  0864               	movf	??_UI_DrawTime+2,w
  3660     0C66  00AA               	movwf	?_OLED_Printf_Line+4
  3661     0C67  0865               	movf	??_UI_DrawTime+3,w
  3662     0C68  00AB               	movwf	?_OLED_Printf_Line+5
  3663     0C69  0868               	movf	UI_DrawTime@t,w
  3664     0C6A  0086               	movwf	6
  3665     0C6B  0187               	clrf	7
  3666     0C6C  0801               	movf	1,w
  3667     0C6D  00E6               	movwf	??_UI_DrawTime+4
  3668     0C6E  01E7               	clrf	??_UI_DrawTime+5
  3669     0C6F  0866               	movf	??_UI_DrawTime+4,w
  3670     0C70  00AC               	movwf	?_OLED_Printf_Line+6
  3671     0C71  0867               	movf	??_UI_DrawTime+5,w
  3672     0C72  00AD               	movwf	?_OLED_Printf_Line+7
  3673     0C73  3000               	movlw	0
  3674     0C74  3182  22CB  318C   	fcall	_OLED_Printf_Line
  3675     0C77                     l375:
  3676     0C77  0008               	return
  3677     0C78                     __end_of_UI_DrawTime:
  3678                           
  3679                           	psect	text4
  3680     0CA4                     __ptext4:	
  3681 ;; *************** function _UI_DrawDate *****************
  3682 ;; Defined at:
  3683 ;;		line 77 in file "main.c"
  3684 ;; Parameters:    Size  Location     Type
  3685 ;;  t               1    wreg     PTR const struct .
  3686 ;;		 -> main@now(7), 
  3687 ;; Auto vars:     Size  Location     Type
  3688 ;;  t               1   72[BANK0 ] PTR const struct .
  3689 ;;		 -> main@now(7), 
  3690 ;; Return value:  Size  Location     Type
  3691 ;;                  1    wreg      void 
  3692 ;; Registers used:
  3693 ;;		wreg, fsr0l, fsr0h, fsr1l, fsr1h, status,2, status,0, pclath, cstack
  3694 ;; Tracked objects:
  3695 ;;		On entry : 0/0
  3696 ;;		On exit  : 0/0
  3697 ;;		Unchanged: 0/0
  3698 ;; Data sizes:     COMMON   BANK0   BANK1   BANK2   BANK3   BANK4   BANK5   BANK6   BANK7   BANK8   BANK9  BANK10  BANK1
      +1  BANK12  BANK13  BANK14  BANK15  BANK16  BANK17  BANK18  BANK19  BANK20  BANK21  BANK22  BANK23  BANK24  BANK25
  3699 ;;      Params:         0       0       0       0       0       0       0       0       0       0       0       0       
      +0       0       0       0       0       0       0       0       0       0       0       0       0       0       0
  3700 ;;      Locals:         0       1       0       0       0       0       0       0       0       0       0       0       
      +0       0       0       0       0       0       0       0       0       0       0       0       0       0       0
  3701 ;;      Temps:          0       6       0       0       0       0       0       0       0       0       0       0       
      +0       0       0       0       0       0       0       0       0       0       0       0       0       0       0
  3702 ;;      Totals:         0       7       0       0       0       0       0       0       0       0       0       0       
      +0       0       0       0       0       0       0       0       0       0       0       0       0       0       0
  3703 ;;Total ram usage:        7 bytes
  3704 ;; Hardware stack levels used: 1
  3705 ;; Hardware stack levels required when called: 6
  3706 ;; This function calls:
  3707 ;;		_OLED_Printf_Line
  3708 ;; This function is called by:
  3709 ;;		_main
  3710 ;; This function uses a non-reentrant model
  3711 ;;
  3712                           
  3713     0CA4                     _UI_DrawDate:	
  3714                           ;psect for function _UI_DrawDate
  3715                           
  3716                           
  3717                           ;incstack = 0
  3718                           ; Regs used in _UI_DrawDate: [wreg-fsr1h+status,2+status,0+pclath+cstack]
  3719                           ;UI_DrawDate@t stored from wreg
  3720     0CA4  0020               	movlb	0	; select bank0
  3721     0CA5  00E8               	movwf	UI_DrawDate@t
  3722     0CA6                     l3225:
  3723                           
  3724                           ;main.c: 77: static void UI_DrawDate(const rtc_time_t* t);main.c: 78: {;main.c: 79:    O
      +                          LED_Printf_Line(1, "Date: %02u/%02u/%02u", t->date, t->month, t->year);
  3725     0CA6  3000               	movlw	low (STR_2| (0+32768))
  3726     0CA7  00A6               	movwf	OLED_Printf_Line@fmt
  3727     0CA8  308B               	movlw	high (STR_2| (0+32768))
  3728     0CA9  00A7               	movwf	OLED_Printf_Line@fmt+1
  3729     0CAA  0868               	movf	UI_DrawDate@t,w
  3730     0CAB  3E04               	addlw	4
  3731     0CAC  0086               	movwf	6
  3732     0CAD  0187               	clrf	7
  3733     0CAE  0801               	movf	1,w
  3734     0CAF  00E2               	movwf	??_UI_DrawDate
  3735     0CB0  01E3               	clrf	??_UI_DrawDate+1
  3736     0CB1  0862               	movf	??_UI_DrawDate,w
  3737     0CB2  00A8               	movwf	?_OLED_Printf_Line+2
  3738     0CB3  0863               	movf	??_UI_DrawDate+1,w
  3739     0CB4  00A9               	movwf	?_OLED_Printf_Line+3
  3740     0CB5  0868               	movf	UI_DrawDate@t,w
  3741     0CB6  3E05               	addlw	5
  3742     0CB7  0086               	movwf	6
  3743     0CB8  0187               	clrf	7
  3744     0CB9  0801               	movf	1,w
  3745     0CBA  00E4               	movwf	??_UI_DrawDate+2
  3746     0CBB  01E5               	clrf	??_UI_DrawDate+3
  3747     0CBC  0864               	movf	??_UI_DrawDate+2,w
  3748     0CBD  00AA               	movwf	?_OLED_Printf_Line+4
  3749     0CBE  0865               	movf	??_UI_DrawDate+3,w
  3750     0CBF  00AB               	movwf	?_OLED_Printf_Line+5
  3751     0CC0  0868               	movf	UI_DrawDate@t,w
  3752     0CC1  3E06               	addlw	6
  3753     0CC2  0086               	movwf	6
  3754     0CC3  0187               	clrf	7
  3755     0CC4  0801               	movf	1,w
  3756     0CC5  00E6               	movwf	??_UI_DrawDate+4
  3757     0CC6  01E7               	clrf	??_UI_DrawDate+5
  3758     0CC7  0866               	movf	??_UI_DrawDate+4,w
  3759     0CC8  00AC               	movwf	?_OLED_Printf_Line+6
  3760     0CC9  0867               	movf	??_UI_DrawDate+5,w
  3761     0CCA  00AD               	movwf	?_OLED_Printf_Line+7
  3762     0CCB  3001               	movlw	1
  3763     0CCC  3182  22CB  318C   	fcall	_OLED_Printf_Line
  3764     0CCF                     l378:
  3765     0CCF  0008               	return
  3766     0CD0                     __end_of_UI_DrawDate:
  3767                           
  3768                           	psect	text5
  3769     02CB                     __ptext5:	
  3770 ;; *************** function _OLED_Printf_Line *****************
  3771 ;; Defined at:
  3772 ;;		line 426 in file "OLED_SSD1306.c"
  3773 ;; Parameters:    Size  Location     Type
  3774 ;;  line            1    wreg     unsigned char 
  3775 ;;  fmt             2    6[BANK0 ] PTR const unsigned char 
  3776 ;;		 -> STR_2(21), STR_1(21), 
  3777 ;; Auto vars:     Size  Location     Type
  3778 ;;  line            1   58[BANK1 ] unsigned char 
  3779 ;;  nibble          1   44[BANK1 ] unsigned char 
  3780 ;;  temp           11   37[BANK0 ] unsigned char [11]
  3781 ;;  val             4   54[BANK1 ] long 
  3782 ;;  i               1   51[BANK1 ] unsigned char 
  3783 ;;  temp           11   26[BANK0 ] unsigned char [11]
  3784 ;;  val             4   40[BANK1 ] unsigned long 
  3785 ;;  i               1   50[BANK1 ] unsigned char 
  3786 ;;  str             1   65[BANK0 ] PTR const unsigned char 
  3787 ;;		 -> now$year(1), now$month(1), now$hr(1), now$min(1), 
  3788 ;;		 -> now$date(1), now$sec(1), ?_OLED_Printf_Line(1), 
  3789 ;;  temp            5   60[BANK0 ] unsigned char [5]
  3790 ;;  val             2   36[BANK1 ] unsigned short 
  3791 ;;  i               1   53[BANK1 ] unsigned char 
  3792 ;;  temp            6   54[BANK0 ] unsigned char [6]
  3793 ;;  val             2   47[BANK1 ] unsigned short 
  3794 ;;  i               1   52[BANK1 ] unsigned char 
  3795 ;;  temp            6   48[BANK0 ] unsigned char [6]
  3796 ;;  val             2   59[BANK1 ] short 
  3797 ;;  i               1   49[BANK1 ] unsigned char 
  3798 ;;  peek            2   32[BANK1 ] PTR const unsigned char 
  3799 ;;		 -> STR_2(21), STR_1(21), 
  3800 ;;  ch              1   46[BANK1 ] unsigned char 
  3801 ;;  width2_zpad     1   45[BANK1 ] unsigned char 
  3802 ;;  p               1   39[BANK1 ] PTR const unsigned char 
  3803 ;;		 -> OLED_Printf_Line@buf(32), 
  3804 ;;  buf            32    0[BANK1 ] unsigned char [32]
  3805 ;;  src             2   62[BANK1 ] PTR const unsigned char 
  3806 ;;		 -> STR_2(21), STR_1(21), 
  3807 ;;  dst             1   64[BANK1 ] PTR unsigned char 
  3808 ;;		 -> OLED_Printf_Line@buf(32), 
  3809 ;;  ap              1   61[BANK1 ] PTR void [1]
  3810 ;;		 -> ?_OLED_Printf_Line(1), 
  3811 ;;  col             1   38[BANK1 ] unsigned char 
  3812 ;; Return value:  Size  Location     Type
  3813 ;;                  1    wreg      void 
  3814 ;; Registers used:
  3815 ;;		wreg, fsr0l, fsr0h, fsr1l, fsr1h, status,2, status,0, pclath, cstack
  3816 ;; Tracked objects:
  3817 ;;		On entry : 0/0
  3818 ;;		On exit  : 0/0
  3819 ;;		Unchanged: 0/0
  3820 ;; Data sizes:     COMMON   BANK0   BANK1   BANK2   BANK3   BANK4   BANK5   BANK6   BANK7   BANK8   BANK9  BANK10  BANK1
      +1  BANK12  BANK13  BANK14  BANK15  BANK16  BANK17  BANK18  BANK19  BANK20  BANK21  BANK22  BANK23  BANK24  BANK25
  3821 ;;      Params:         0       8       0       0       0       0       0       0       0       0       0       0       
      +0       0       0       0       0       0       0       0       0       0       0       0       0       0       0
  3822 ;;      Locals:         0      40      65       0       0       0       0       0       0       0       0       0       
      +0       0       0       0       0       0       0       0       0       0       0       0       0       0       0
  3823 ;;      Temps:          0      12       0       0       0       0       0       0       0       0       0       0       
      +0       0       0       0       0       0       0       0       0       0       0       0       0       0       0
  3824 ;;      Totals:         0      60      65       0       0       0       0       0       0       0       0       0       
      +0       0       0       0       0       0       0       0       0       0       0       0       0       0       0
  3825 ;;Total ram usage:      125 bytes
  3826 ;; Hardware stack levels used: 1
  3827 ;; Hardware stack levels required when called: 5
  3828 ;; This function calls:
  3829 ;;		_OLED_UpdateLine
  3830 ;;		___aldiv
  3831 ;;		___almod
  3832 ;;		___awdiv
  3833 ;;		___awmod
  3834 ;;		___lldiv
  3835 ;;		___llmod
  3836 ;;		___lwdiv
  3837 ;;		___lwmod
  3838 ;;		_memcpy
  3839 ;;		_memset
  3840 ;;		_strcmp
  3841 ;;		_strcpy
  3842 ;; This function is called by:
  3843 ;;		_UI_DrawTime
  3844 ;;		_UI_DrawDate
  3845 ;; This function uses a non-reentrant model
  3846 ;;
  3847                           
  3848     02CB                     _OLED_Printf_Line:	
  3849                           ;psect for function _OLED_Printf_Line
  3850                           
  3851                           
  3852                           ;incstack = 0
  3853                           ; Regs used in _OLED_Printf_Line: [wreg-fsr1h+status,2+status,0+pclath+cstack]
  3854                           ;OLED_Printf_Line@line stored from wreg
  3855     02CB  0021               	movlb	1	; select bank1
  3856     02CC  00DA               	movwf	OLED_Printf_Line@line^(0+128)
  3857     02CD                     l2695:
  3858                           
  3859                           ;OLED_SSD1306.c: 426: void OLED_Printf_Line(uint8_t line, const char* fmt, ...);OLED_SSD
      +                          1306.c: 427: {;OLED_SSD1306.c: 428:     static char last_text[8][32];;OLED_SSD1306.c: 42
      +                          9:     char buf[32];;OLED_SSD1306.c: 430:     char *dst = buf;
  3860     02CD  30A0               	movlw	(low (OLED_Printf_Line@buf| 0))& (0+255)
  3861     02CE  00E0               	movwf	OLED_Printf_Line@dst^(0+128)
  3862                           
  3863                           ;OLED_SSD1306.c: 431:     const char *src = fmt;
  3864     02CF  0020               	movlb	0	; select bank0
  3865     02D0  0827               	movf	OLED_Printf_Line@fmt+1,w
  3866     02D1  0021               	movlb	1	; select bank1
  3867     02D2  00DF               	movwf	(OLED_Printf_Line@src+1)^(0+128)
  3868     02D3  0020               	movlb	0	; select bank0
  3869     02D4  0826               	movf	OLED_Printf_Line@fmt,w
  3870     02D5  0021               	movlb	1	; select bank1
  3871     02D6  00DE               	movwf	OLED_Printf_Line@src^(0+128)
  3872                           
  3873                           ;OLED_SSD1306.c: 433:     if (line >= (32 / 8)) return;
  3874     02D7  3004               	movlw	4
  3875     02D8  025A               	subwf	OLED_Printf_Line@line^(0+128),w
  3876     02D9  1C03               	skipc
  3877     02DA  2ADC               	goto	u2951
  3878     02DB  2ADD               	goto	u2950
  3879     02DC                     u2951:
  3880     02DC  2ADE               	goto	l2699
  3881     02DD                     u2950:
  3882     02DD  2FEC               	goto	l166
  3883     02DE                     l2699:
  3884                           
  3885                           ;OLED_SSD1306.c: 435:     va_list ap;;OLED_SSD1306.c: 436:     *ap = __va_start();
  3886     02DE  3028               	movlw	(low ((?_OLED_Printf_Line| 0+2)))& (0+255)
  3887     02DF  00DD               	movwf	OLED_Printf_Line@ap^(0+128)
  3888                           
  3889                           ;OLED_SSD1306.c: 439:     while (*src && (dst - buf) < 31)
  3890     02E0  2EFC               	goto	l2981
  3891     02E1                     l2701:
  3892                           
  3893                           ;OLED_SSD1306.c: 440:     {;OLED_SSD1306.c: 441:         if (*src == '%')
  3894     02E1  085E               	movf	OLED_Printf_Line@src^(0+128),w
  3895     02E2  0084               	movwf	4
  3896     02E3  085F               	movf	(OLED_Printf_Line@src+1)^(0+128),w
  3897     02E4  0085               	movwf	5
  3898     02E5  0012               	moviw fsr0++
  3899     02E6  3A25               	xorlw	37
  3900     02E7  1D03               	btfss	3,2
  3901     02E8  2AEA               	goto	u2961
  3902     02E9  2AEB               	goto	u2960
  3903     02EA                     u2961:
  3904     02EA  2EE9               	goto	l2975
  3905     02EB                     u2960:
  3906     02EB                     l2703:
  3907                           
  3908                           ;OLED_SSD1306.c: 442:         {;OLED_SSD1306.c: 443:             src++;
  3909     02EB  3001               	movlw	1
  3910     02EC  07DE               	addwf	OLED_Printf_Line@src^(0+128),f
  3911     02ED  3000               	movlw	0
  3912     02EE  3DDF               	addwfc	(OLED_Printf_Line@src+1)^(0+128),f
  3913     02EF                     l2705:
  3914                           
  3915                           ;OLED_SSD1306.c: 446:             uint8_t width2_zpad = 0;
  3916     02EF  01CD               	clrf	OLED_Printf_Line@width2_zpad^(0+128)
  3917     02F0                     l2707:
  3918                           
  3919                           ;OLED_SSD1306.c: 447:             if (*src == '0')
  3920     02F0  085E               	movf	OLED_Printf_Line@src^(0+128),w
  3921     02F1  0084               	movwf	4
  3922     02F2  085F               	movf	(OLED_Printf_Line@src+1)^(0+128),w
  3923     02F3  0085               	movwf	5
  3924     02F4  0012               	moviw fsr0++
  3925     02F5  3A30               	xorlw	48
  3926     02F6  1D03               	btfss	3,2
  3927     02F7  2AF9               	goto	u2971
  3928     02F8  2AFA               	goto	u2970
  3929     02F9                     u2971:
  3930     02F9  2EBF               	goto	l2969
  3931     02FA                     u2970:
  3932     02FA                     l2709:
  3933                           
  3934                           ;OLED_SSD1306.c: 448:             {;OLED_SSD1306.c: 449:                 const char *pee
      +                          k = src;
  3935     02FA  085F               	movf	(OLED_Printf_Line@src+1)^(0+128),w
  3936     02FB  00C1               	movwf	(OLED_Printf_Line@peek+1)^(0+128)
  3937     02FC  085E               	movf	OLED_Printf_Line@src^(0+128),w
  3938     02FD  00C0               	movwf	OLED_Printf_Line@peek^(0+128)
  3939                           
  3940                           ;OLED_SSD1306.c: 450:                 peek++;
  3941     02FE  3001               	movlw	1
  3942     02FF  07C0               	addwf	OLED_Printf_Line@peek^(0+128),f
  3943     0300  3000               	movlw	0
  3944     0301  3DC1               	addwfc	(OLED_Printf_Line@peek+1)^(0+128),f
  3945     0302                     l2711:
  3946                           
  3947                           ;OLED_SSD1306.c: 451:                 if (*peek == '2')
  3948     0302  0840               	movf	OLED_Printf_Line@peek^(0+128),w
  3949     0303  0084               	movwf	4
  3950     0304  0841               	movf	(OLED_Printf_Line@peek+1)^(0+128),w
  3951     0305  0085               	movwf	5
  3952     0306  0012               	moviw fsr0++
  3953     0307  3A32               	xorlw	50
  3954     0308  1D03               	btfss	3,2
  3955     0309  2B0B               	goto	u2981
  3956     030A  2B0C               	goto	u2980
  3957     030B                     u2981:
  3958     030B  2EBF               	goto	l2969
  3959     030C                     u2980:
  3960     030C                     l2713:
  3961                           
  3962                           ;OLED_SSD1306.c: 452:                 {;OLED_SSD1306.c: 453:                     width2_
      +                          zpad = 1;
  3963     030C  01CD               	clrf	OLED_Printf_Line@width2_zpad^(0+128)
  3964     030D  0ACD               	incf	OLED_Printf_Line@width2_zpad^(0+128),f
  3965     030E                     l2715:
  3966                           
  3967                           ;OLED_SSD1306.c: 454:                     src += 2;
  3968     030E  3002               	movlw	2
  3969     030F  07DE               	addwf	OLED_Printf_Line@src^(0+128),f
  3970     0310  3000               	movlw	0
  3971     0311  3DDF               	addwfc	(OLED_Printf_Line@src+1)^(0+128),f
  3972     0312  2EBF               	goto	l2969
  3973     0313                     l2717:
  3974                           
  3975                           ;OLED_SSD1306.c: 461:                 {;OLED_SSD1306.c: 462:                     int16_t
      +                           val = (*(int *)__va_arg(*(int **)ap, (int)0));
  3976     0313  085D               	movf	OLED_Printf_Line@ap^(0+128),w
  3977     0314  0086               	movwf	6
  3978     0315  0187               	clrf	7
  3979     0316  3F40               	moviw [0]fsr1
  3980     0317  00DB               	movwf	OLED_Printf_Line@val^(0+128)
  3981     0318  3F41               	moviw [1]fsr1
  3982     0319  00DC               	movwf	(OLED_Printf_Line@val+1)^(0+128)
  3983     031A                     l2719:
  3984     031A  3002               	movlw	2
  3985     031B  0020               	movlb	0	; select bank0
  3986     031C  00AE               	movwf	??_OLED_Printf_Line
  3987     031D  082E               	movf	??_OLED_Printf_Line,w
  3988     031E  0021               	movlb	1	; select bank1
  3989     031F  07DD               	addwf	OLED_Printf_Line@ap^(0+128),f
  3990     0320                     l2721:
  3991                           
  3992                           ;OLED_SSD1306.c: 464:                     if (val < 0)
  3993     0320  1FDC               	btfss	(OLED_Printf_Line@val+1)^(0+128),7
  3994     0321  2B23               	goto	u2991
  3995     0322  2B24               	goto	u2990
  3996     0323                     u2991:
  3997     0323  2B3C               	goto	l2731
  3998     0324                     u2990:
  3999     0324                     l2723:
  4000                           
  4001                           ;OLED_SSD1306.c: 465:                     {;OLED_SSD1306.c: 466:                        
      +                           if ((dst - buf) < 31) *dst++ = '-';
  4002     0324  30A0               	movlw	(low OLED_Printf_Line@buf)& (0+255)
  4003     0325  0260               	subwf	OLED_Printf_Line@dst^(0+128),w
  4004     0326  3A80               	xorlw	128
  4005     0327  3E61               	addlw	-159
  4006     0328  1803               	skipnc
  4007     0329  2B2B               	goto	u3001
  4008     032A  2B2C               	goto	u3000
  4009     032B                     u3001:
  4010     032B  2B37               	goto	l2729
  4011     032C                     u3000:
  4012     032C                     l2725:
  4013     032C  0860               	movf	OLED_Printf_Line@dst^(0+128),w
  4014     032D  0086               	movwf	6
  4015     032E  0187               	clrf	7
  4016     032F  302D               	movlw	45
  4017     0330  0081               	movwf	1
  4018     0331                     l2727:
  4019     0331  3001               	movlw	1
  4020     0332  0020               	movlb	0	; select bank0
  4021     0333  00AE               	movwf	??_OLED_Printf_Line
  4022     0334  082E               	movf	??_OLED_Printf_Line,w
  4023     0335  0021               	movlb	1	; select bank1
  4024     0336  07E0               	addwf	OLED_Printf_Line@dst^(0+128),f
  4025     0337                     l2729:
  4026                           
  4027                           ;OLED_SSD1306.c: 467:                         val = -val;
  4028     0337  09DB               	comf	OLED_Printf_Line@val^(0+128),f
  4029     0338  09DC               	comf	(OLED_Printf_Line@val+1)^(0+128),f
  4030     0339  0ADB               	incf	OLED_Printf_Line@val^(0+128),f
  4031     033A  1903               	skipnz
  4032     033B  0ADC               	incf	(OLED_Printf_Line@val+1)^(0+128),f
  4033     033C                     l2731:
  4034                           
  4035                           ;OLED_SSD1306.c: 471:                     if (width2_zpad && val < 10)
  4036     033C  084D               	movf	OLED_Printf_Line@width2_zpad^(0+128),w
  4037     033D  1903               	btfsc	3,2
  4038     033E  2B40               	goto	u3011
  4039     033F  2B41               	goto	u3010
  4040     0340                     u3011:
  4041     0340  2B64               	goto	l2741
  4042     0341                     u3010:
  4043     0341                     l2733:
  4044     0341  085C               	movf	(OLED_Printf_Line@val+1)^(0+128),w
  4045     0342  3A80               	xorlw	128
  4046     0343  0020               	movlb	0	; select bank0
  4047     0344  00AE               	movwf	??_OLED_Printf_Line
  4048     0345  3080               	movlw	128
  4049     0346  022E               	subwf	??_OLED_Printf_Line,w
  4050     0347  1D03               	skipz
  4051     0348  2B4C               	goto	u3025
  4052     0349  300A               	movlw	10
  4053     034A  0021               	movlb	1	; select bank1
  4054     034B  025B               	subwf	OLED_Printf_Line@val^(0+128),w
  4055     034C                     u3025:
  4056     034C  1803               	skipnc
  4057     034D  2B4F               	goto	u3021
  4058     034E  2B50               	goto	u3020
  4059     034F                     u3021:
  4060     034F  2B64               	goto	l2741
  4061     0350                     u3020:
  4062     0350                     l2735:
  4063                           
  4064                           ;OLED_SSD1306.c: 472:                     {;OLED_SSD1306.c: 473:                        
      +                           if ((dst - buf) < 31) *dst++ = '0';
  4065     0350  30A0               	movlw	(low OLED_Printf_Line@buf)& (0+255)
  4066     0351  0021               	movlb	1	; select bank1
  4067     0352  0260               	subwf	OLED_Printf_Line@dst^(0+128),w
  4068     0353  3A80               	xorlw	128
  4069     0354  3E61               	addlw	-159
  4070     0355  1803               	skipnc
  4071     0356  2B58               	goto	u3031
  4072     0357  2B59               	goto	u3030
  4073     0358                     u3031:
  4074     0358  2B64               	goto	l2741
  4075     0359                     u3030:
  4076     0359                     l2737:
  4077     0359  0860               	movf	OLED_Printf_Line@dst^(0+128),w
  4078     035A  0086               	movwf	6
  4079     035B  0187               	clrf	7
  4080     035C  3030               	movlw	48
  4081     035D  0081               	movwf	1
  4082     035E                     l2739:
  4083     035E  3001               	movlw	1
  4084     035F  0020               	movlb	0	; select bank0
  4085     0360  00AE               	movwf	??_OLED_Printf_Line
  4086     0361  082E               	movf	??_OLED_Printf_Line,w
  4087     0362  0021               	movlb	1	; select bank1
  4088     0363  07E0               	addwf	OLED_Printf_Line@dst^(0+128),f
  4089     0364                     l2741:
  4090                           
  4091                           ;OLED_SSD1306.c: 476:                     char temp[6];;OLED_SSD1306.c: 477:            
      +                                   uint8_t i = 0;
  4092     0364  0021               	movlb	1	; select bank1
  4093     0365  01D1               	clrf	OLED_Printf_Line@i^(0+128)
  4094     0366                     l2743:
  4095                           
  4096                           ;OLED_SSD1306.c: 479:                         temp[i++] = '0' + (val % 10);
  4097     0366  0851               	movf	OLED_Printf_Line@i^(0+128),w
  4098     0367  3E50               	addlw	(low (OLED_Printf_Line@temp| 0))& (0+255)
  4099     0368  0086               	movwf	6
  4100     0369  0187               	clrf	7
  4101     036A  300A               	movlw	10
  4102     036B  00F0               	movwf	___awmod@divisor
  4103     036C  3000               	movlw	0
  4104     036D  00F1               	movwf	___awmod@divisor+1
  4105     036E  085C               	movf	(OLED_Printf_Line@val+1)^(0+128),w
  4106     036F  00F3               	movwf	___awmod@dividend+1
  4107     0370  085B               	movf	OLED_Printf_Line@val^(0+128),w
  4108     0371  00F2               	movwf	___awmod@dividend
  4109     0372  318E  26EA  3182   	fcall	___awmod
  4110     0375  0870               	movf	?___awmod,w
  4111     0376  3E30               	addlw	48
  4112     0377  0081               	movwf	1
  4113     0378                     l2745:
  4114     0378  3001               	movlw	1
  4115     0379  0020               	movlb	0	; select bank0
  4116     037A  00AE               	movwf	??_OLED_Printf_Line
  4117     037B  082E               	movf	??_OLED_Printf_Line,w
  4118     037C  0021               	movlb	1	; select bank1
  4119     037D  07D1               	addwf	OLED_Printf_Line@i^(0+128),f
  4120     037E                     l2747:
  4121                           
  4122                           ;OLED_SSD1306.c: 480:                         val /= 10;
  4123     037E  300A               	movlw	10
  4124     037F  00F0               	movwf	___awdiv@divisor
  4125     0380  3000               	movlw	0
  4126     0381  00F1               	movwf	___awdiv@divisor+1
  4127     0382  085C               	movf	(OLED_Printf_Line@val+1)^(0+128),w
  4128     0383  00F3               	movwf	___awdiv@dividend+1
  4129     0384  085B               	movf	OLED_Printf_Line@val^(0+128),w
  4130     0385  00F2               	movwf	___awdiv@dividend
  4131     0386  3180  2005  3182   	fcall	___awdiv
  4132     0389  0871               	movf	?___awdiv+1,w
  4133     038A  0021               	movlb	1	; select bank1
  4134     038B  00DC               	movwf	(OLED_Printf_Line@val+1)^(0+128)
  4135     038C  0870               	movf	?___awdiv,w
  4136     038D  00DB               	movwf	OLED_Printf_Line@val^(0+128)
  4137     038E                     l2749:
  4138                           
  4139                           ;OLED_SSD1306.c: 481:                     } while (val && i < 6);
  4140     038E  085B               	movf	OLED_Printf_Line@val^(0+128),w
  4141     038F  045C               	iorwf	(OLED_Printf_Line@val+1)^(0+128),w
  4142     0390  1903               	btfsc	3,2
  4143     0391  2B93               	goto	u3041
  4144     0392  2B94               	goto	u3040
  4145     0393                     u3041:
  4146     0393  2BAA               	goto	l2757
  4147     0394                     u3040:
  4148     0394                     l2751:
  4149     0394  3006               	movlw	6
  4150     0395  0251               	subwf	OLED_Printf_Line@i^(0+128),w
  4151     0396  1C03               	skipc
  4152     0397  2B99               	goto	u3051
  4153     0398  2B9A               	goto	u3050
  4154     0399                     u3051:
  4155     0399  2B66               	goto	l2743
  4156     039A                     u3050:
  4157     039A  2BAA               	goto	l2757
  4158     039B                     l2753:
  4159     039B  0860               	movf	OLED_Printf_Line@dst^(0+128),w
  4160     039C  0086               	movwf	6
  4161     039D  0187               	clrf	7
  4162     039E  0851               	movf	OLED_Printf_Line@i^(0+128),w
  4163     039F  3E50               	addlw	(low (OLED_Printf_Line@temp| 0))& (0+255)
  4164     03A0  0084               	movwf	4
  4165     03A1  0185               	clrf	5
  4166     03A2  0800               	movf	0,w
  4167     03A3  0081               	movwf	1
  4168     03A4                     l2755:
  4169     03A4  3001               	movlw	1
  4170     03A5  0020               	movlb	0	; select bank0
  4171     03A6  00AE               	movwf	??_OLED_Printf_Line
  4172     03A7  082E               	movf	??_OLED_Printf_Line,w
  4173     03A8  0021               	movlb	1	; select bank1
  4174     03A9  07E0               	addwf	OLED_Printf_Line@dst^(0+128),f
  4175     03AA                     l2757:
  4176     03AA  3001               	movlw	1
  4177     03AB  02D1               	subwf	OLED_Printf_Line@i^(0+128),f
  4178     03AC  0A51               	incf	OLED_Printf_Line@i^(0+128),w
  4179     03AD  1903               	btfsc	3,2
  4180     03AE  2BB0               	goto	u3061
  4181     03AF  2BB1               	goto	u3060
  4182     03B0                     u3061:
  4183     03B0  2EDA               	goto	l2971
  4184     03B1                     u3060:
  4185     03B1                     l2759:
  4186     03B1  30A0               	movlw	(low OLED_Printf_Line@buf)& (0+255)
  4187     03B2  0260               	subwf	OLED_Printf_Line@dst^(0+128),w
  4188     03B3  3A80               	xorlw	128
  4189     03B4  3E61               	addlw	-159
  4190     03B5  1C03               	skipc
  4191     03B6  2BB8               	goto	u3071
  4192     03B7  2BB9               	goto	u3070
  4193     03B8                     u3071:
  4194     03B8  2B9B               	goto	l2753
  4195     03B9                     u3070:
  4196     03B9  2EDA               	goto	l2971
  4197     03BA                     l2761:
  4198                           
  4199                           ;OLED_SSD1306.c: 488:                 {;OLED_SSD1306.c: 489:                     src++;
  4200     03BA  3001               	movlw	1
  4201     03BB  07DE               	addwf	OLED_Printf_Line@src^(0+128),f
  4202     03BC  3000               	movlw	0
  4203     03BD  3DDF               	addwfc	(OLED_Printf_Line@src+1)^(0+128),f
  4204     03BE                     l2763:
  4205                           
  4206                           ;OLED_SSD1306.c: 490:                     if (*src == 'u')
  4207     03BE  085E               	movf	OLED_Printf_Line@src^(0+128),w
  4208     03BF  0084               	movwf	4
  4209     03C0  085F               	movf	(OLED_Printf_Line@src+1)^(0+128),w
  4210     03C1  0085               	movwf	5
  4211     03C2  0012               	moviw fsr0++
  4212     03C3  3A75               	xorlw	117
  4213     03C4  1D03               	btfss	3,2
  4214     03C5  2BC7               	goto	u3081
  4215     03C6  2BC8               	goto	u3080
  4216     03C7                     u3081:
  4217     03C7  2C44               	goto	l2789
  4218     03C8                     u3080:
  4219     03C8                     l2765:
  4220                           
  4221                           ;OLED_SSD1306.c: 491:                     {;OLED_SSD1306.c: 492:                        
      +                           uint32_t val = (*(uint32_t *)__va_arg(*(uint32_t **)ap, (uint32_t)0));
  4222     03C8  085D               	movf	OLED_Printf_Line@ap^(0+128),w
  4223     03C9  0086               	movwf	6
  4224     03CA  0187               	clrf	7
  4225     03CB  3F40               	moviw [0]fsr1
  4226     03CC  00C8               	movwf	OLED_Printf_Line@val_352^(0+128)
  4227     03CD  3F41               	moviw [1]fsr1
  4228     03CE  00C9               	movwf	(OLED_Printf_Line@val_352+1)^(0+128)
  4229     03CF  3F42               	moviw [2]fsr1
  4230     03D0  00CA               	movwf	(OLED_Printf_Line@val_352+2)^(0+128)
  4231     03D1  3F43               	moviw [3]fsr1
  4232     03D2  00CB               	movwf	(OLED_Printf_Line@val_352+3)^(0+128)
  4233     03D3                     l2767:
  4234     03D3  3004               	movlw	4
  4235     03D4  0020               	movlb	0	; select bank0
  4236     03D5  00AE               	movwf	??_OLED_Printf_Line
  4237     03D6  082E               	movf	??_OLED_Printf_Line,w
  4238     03D7  0021               	movlb	1	; select bank1
  4239     03D8  07DD               	addwf	OLED_Printf_Line@ap^(0+128),f
  4240     03D9                     l2769:
  4241                           
  4242                           ;OLED_SSD1306.c: 493:                         char temp[11];;OLED_SSD1306.c: 494:       
      +                                            uint8_t i = 0;
  4243     03D9  01D2               	clrf	OLED_Printf_Line@i_354^(0+128)
  4244     03DA                     l2771:
  4245                           
  4246                           ;OLED_SSD1306.c: 496:                             temp[i++] = '0' + (val % 10);
  4247     03DA  0852               	movf	OLED_Printf_Line@i_354^(0+128),w
  4248     03DB  3E3A               	addlw	(low (OLED_Printf_Line@temp_353| 0))& (0+255)
  4249     03DC  0086               	movwf	6
  4250     03DD  0187               	clrf	7
  4251     03DE  3000               	movlw	0
  4252     03DF  00F3               	movwf	___llmod@divisor+3
  4253     03E0  3000               	movlw	0
  4254     03E1  00F2               	movwf	___llmod@divisor+2
  4255     03E2  3000               	movlw	0
  4256     03E3  00F1               	movwf	___llmod@divisor+1
  4257     03E4  300A               	movlw	10
  4258     03E5  00F0               	movwf	___llmod@divisor
  4259     03E6  084B               	movf	(OLED_Printf_Line@val_352+3)^(0+128),w
  4260     03E7  00F7               	movwf	___llmod@dividend+3
  4261     03E8  084A               	movf	(OLED_Printf_Line@val_352+2)^(0+128),w
  4262     03E9  00F6               	movwf	___llmod@dividend+2
  4263     03EA  0849               	movf	(OLED_Printf_Line@val_352+1)^(0+128),w
  4264     03EB  00F5               	movwf	___llmod@dividend+1
  4265     03EC  0848               	movf	OLED_Printf_Line@val_352^(0+128),w
  4266     03ED  00F4               	movwf	___llmod@dividend
  4267     03EE  318E  2603  3182   	fcall	___llmod
  4268     03F1  0870               	movf	?___llmod,w
  4269     03F2  3E30               	addlw	48
  4270     03F3  0081               	movwf	1
  4271     03F4                     l2773:
  4272     03F4  3001               	movlw	1
  4273     03F5  0020               	movlb	0	; select bank0
  4274     03F6  00AE               	movwf	??_OLED_Printf_Line
  4275     03F7  082E               	movf	??_OLED_Printf_Line,w
  4276     03F8  0021               	movlb	1	; select bank1
  4277     03F9  07D2               	addwf	OLED_Printf_Line@i_354^(0+128),f
  4278     03FA                     l2775:
  4279                           
  4280                           ;OLED_SSD1306.c: 497:                             val /= 10;
  4281     03FA  3000               	movlw	0
  4282     03FB  00F3               	movwf	___lldiv@divisor+3
  4283     03FC  3000               	movlw	0
  4284     03FD  00F2               	movwf	___lldiv@divisor+2
  4285     03FE  3000               	movlw	0
  4286     03FF  00F1               	movwf	___lldiv@divisor+1
  4287     0400  300A               	movlw	10
  4288     0401  00F0               	movwf	___lldiv@divisor
  4289     0402  084B               	movf	(OLED_Printf_Line@val_352+3)^(0+128),w
  4290     0403  00F7               	movwf	___lldiv@dividend+3
  4291     0404  084A               	movf	(OLED_Printf_Line@val_352+2)^(0+128),w
  4292     0405  00F6               	movwf	___lldiv@dividend+2
  4293     0406  0849               	movf	(OLED_Printf_Line@val_352+1)^(0+128),w
  4294     0407  00F5               	movwf	___lldiv@dividend+1
  4295     0408  0848               	movf	OLED_Printf_Line@val_352^(0+128),w
  4296     0409  00F4               	movwf	___lldiv@dividend
  4297     040A  318F  273D  3182   	fcall	___lldiv
  4298     040D  0873               	movf	?___lldiv+3,w
  4299     040E  0021               	movlb	1	; select bank1
  4300     040F  00CB               	movwf	(OLED_Printf_Line@val_352+3)^(0+128)
  4301     0410  0872               	movf	?___lldiv+2,w
  4302     0411  00CA               	movwf	(OLED_Printf_Line@val_352+2)^(0+128)
  4303     0412  0871               	movf	?___lldiv+1,w
  4304     0413  00C9               	movwf	(OLED_Printf_Line@val_352+1)^(0+128)
  4305     0414  0870               	movf	?___lldiv,w
  4306     0415  00C8               	movwf	OLED_Printf_Line@val_352^(0+128)
  4307     0416                     l2777:
  4308                           
  4309                           ;OLED_SSD1306.c: 498:                         } while (val && i < 11);
  4310     0416  084B               	movf	(OLED_Printf_Line@val_352+3)^(0+128),w
  4311     0417  044A               	iorwf	(OLED_Printf_Line@val_352+2)^(0+128),w
  4312     0418  0449               	iorwf	(OLED_Printf_Line@val_352+1)^(0+128),w
  4313     0419  0448               	iorwf	OLED_Printf_Line@val_352^(0+128),w
  4314     041A  1903               	skipnz
  4315     041B  2C1D               	goto	u3091
  4316     041C  2C1E               	goto	u3090
  4317     041D                     u3091:
  4318     041D  2C34               	goto	l2785
  4319     041E                     u3090:
  4320     041E                     l2779:
  4321     041E  300B               	movlw	11
  4322     041F  0252               	subwf	OLED_Printf_Line@i_354^(0+128),w
  4323     0420  1C03               	skipc
  4324     0421  2C23               	goto	u3101
  4325     0422  2C24               	goto	u3100
  4326     0423                     u3101:
  4327     0423  2BDA               	goto	l2771
  4328     0424                     u3100:
  4329     0424  2C34               	goto	l2785
  4330     0425                     l2781:
  4331     0425  0860               	movf	OLED_Printf_Line@dst^(0+128),w
  4332     0426  0086               	movwf	6
  4333     0427  0187               	clrf	7
  4334     0428  0852               	movf	OLED_Printf_Line@i_354^(0+128),w
  4335     0429  3E3A               	addlw	(low (OLED_Printf_Line@temp_353| 0))& (0+255)
  4336     042A  0084               	movwf	4
  4337     042B  0185               	clrf	5
  4338     042C  0800               	movf	0,w
  4339     042D  0081               	movwf	1
  4340     042E                     l2783:
  4341     042E  3001               	movlw	1
  4342     042F  0020               	movlb	0	; select bank0
  4343     0430  00AE               	movwf	??_OLED_Printf_Line
  4344     0431  082E               	movf	??_OLED_Printf_Line,w
  4345     0432  0021               	movlb	1	; select bank1
  4346     0433  07E0               	addwf	OLED_Printf_Line@dst^(0+128),f
  4347     0434                     l2785:
  4348     0434  3001               	movlw	1
  4349     0435  02D2               	subwf	OLED_Printf_Line@i_354^(0+128),f
  4350     0436  0A52               	incf	OLED_Printf_Line@i_354^(0+128),w
  4351     0437  1903               	btfsc	3,2
  4352     0438  2C3A               	goto	u3111
  4353     0439  2C3B               	goto	u3110
  4354     043A                     u3111:
  4355     043A  2EDA               	goto	l2971
  4356     043B                     u3110:
  4357     043B                     l2787:
  4358     043B  30A0               	movlw	(low OLED_Printf_Line@buf)& (0+255)
  4359     043C  0260               	subwf	OLED_Printf_Line@dst^(0+128),w
  4360     043D  3A80               	xorlw	128
  4361     043E  3E61               	addlw	-159
  4362     043F  1C03               	skipc
  4363     0440  2C42               	goto	u3121
  4364     0441  2C43               	goto	u3120
  4365     0442                     u3121:
  4366     0442  2C25               	goto	l2781
  4367     0443                     u3120:
  4368     0443  2EDA               	goto	l2971
  4369     0444                     l2789:
  4370     0444  085E               	movf	OLED_Printf_Line@src^(0+128),w
  4371     0445  0084               	movwf	4
  4372     0446  085F               	movf	(OLED_Printf_Line@src+1)^(0+128),w
  4373     0447  0085               	movwf	5
  4374     0448  0012               	moviw fsr0++
  4375     0449  3A64               	xorlw	100
  4376     044A  1D03               	btfss	3,2
  4377     044B  2C4D               	goto	u3131
  4378     044C  2C4E               	goto	u3130
  4379     044D                     u3131:
  4380     044D  2CEC               	goto	l2825
  4381     044E                     u3130:
  4382     044E                     l2791:
  4383                           
  4384                           ;OLED_SSD1306.c: 503:                     {;OLED_SSD1306.c: 504:                        
      +                           int32_t val = (*(int32_t *)__va_arg(*(int32_t **)ap, (int32_t)0));
  4385     044E  085D               	movf	OLED_Printf_Line@ap^(0+128),w
  4386     044F  0086               	movwf	6
  4387     0450  0187               	clrf	7
  4388     0451  3F40               	moviw [0]fsr1
  4389     0452  00D6               	movwf	OLED_Printf_Line@val_355^(0+128)
  4390     0453  3F41               	moviw [1]fsr1
  4391     0454  00D7               	movwf	(OLED_Printf_Line@val_355+1)^(0+128)
  4392     0455  3F42               	moviw [2]fsr1
  4393     0456  00D8               	movwf	(OLED_Printf_Line@val_355+2)^(0+128)
  4394     0457  3F43               	moviw [3]fsr1
  4395     0458  00D9               	movwf	(OLED_Printf_Line@val_355+3)^(0+128)
  4396     0459                     l2793:
  4397     0459  3004               	movlw	4
  4398     045A  0020               	movlb	0	; select bank0
  4399     045B  00AE               	movwf	??_OLED_Printf_Line
  4400     045C  082E               	movf	??_OLED_Printf_Line,w
  4401     045D  0021               	movlb	1	; select bank1
  4402     045E  07DD               	addwf	OLED_Printf_Line@ap^(0+128),f
  4403     045F                     l2795:
  4404                           
  4405                           ;OLED_SSD1306.c: 505:                         if (val < 0)
  4406     045F  1FD9               	btfss	(OLED_Printf_Line@val_355+3)^(0+128),7
  4407     0460  2C62               	goto	u3141
  4408     0461  2C63               	goto	u3140
  4409     0462                     u3141:
  4410     0462  2C81               	goto	l2805
  4411     0463                     u3140:
  4412     0463                     l2797:
  4413                           
  4414                           ;OLED_SSD1306.c: 506:                         {;OLED_SSD1306.c: 507:                    
      +                                   if ((dst - buf) < 31) *dst++ = '-';
  4415     0463  30A0               	movlw	(low OLED_Printf_Line@buf)& (0+255)
  4416     0464  0260               	subwf	OLED_Printf_Line@dst^(0+128),w
  4417     0465  3A80               	xorlw	128
  4418     0466  3E61               	addlw	-159
  4419     0467  1803               	skipnc
  4420     0468  2C6A               	goto	u3151
  4421     0469  2C6B               	goto	u3150
  4422     046A                     u3151:
  4423     046A  2C76               	goto	l2803
  4424     046B                     u3150:
  4425     046B                     l2799:
  4426     046B  0860               	movf	OLED_Printf_Line@dst^(0+128),w
  4427     046C  0086               	movwf	6
  4428     046D  0187               	clrf	7
  4429     046E  302D               	movlw	45
  4430     046F  0081               	movwf	1
  4431     0470                     l2801:
  4432     0470  3001               	movlw	1
  4433     0471  0020               	movlb	0	; select bank0
  4434     0472  00AE               	movwf	??_OLED_Printf_Line
  4435     0473  082E               	movf	??_OLED_Printf_Line,w
  4436     0474  0021               	movlb	1	; select bank1
  4437     0475  07E0               	addwf	OLED_Printf_Line@dst^(0+128),f
  4438     0476                     l2803:
  4439                           
  4440                           ;OLED_SSD1306.c: 508:                             val = -val;
  4441     0476  09D6               	comf	OLED_Printf_Line@val_355^(0+128),f
  4442     0477  09D7               	comf	(OLED_Printf_Line@val_355+1)^(0+128),f
  4443     0478  09D8               	comf	(OLED_Printf_Line@val_355+2)^(0+128),f
  4444     0479  09D9               	comf	(OLED_Printf_Line@val_355+3)^(0+128),f
  4445     047A  0AD6               	incf	OLED_Printf_Line@val_355^(0+128),f
  4446     047B  1903               	skipnz
  4447     047C  0AD7               	incf	(OLED_Printf_Line@val_355+1)^(0+128),f
  4448     047D  1903               	skipnz
  4449     047E  0AD8               	incf	(OLED_Printf_Line@val_355+2)^(0+128),f
  4450     047F  1903               	skipnz
  4451     0480  0AD9               	incf	(OLED_Printf_Line@val_355+3)^(0+128),f
  4452     0481                     l2805:
  4453                           
  4454                           ;OLED_SSD1306.c: 511:                         char temp[11];;OLED_SSD1306.c: 512:       
      +                                            uint8_t i = 0;
  4455     0481  01D3               	clrf	OLED_Printf_Line@i_357^(0+128)
  4456     0482                     l2807:
  4457                           
  4458                           ;OLED_SSD1306.c: 514:                             temp[i++] = '0' + (val % 10);
  4459     0482  0853               	movf	OLED_Printf_Line@i_357^(0+128),w
  4460     0483  3E45               	addlw	(low (OLED_Printf_Line@temp_356| 0))& (0+255)
  4461     0484  0086               	movwf	6
  4462     0485  0187               	clrf	7
  4463     0486  3000               	movlw	0
  4464     0487  00F3               	movwf	___almod@divisor+3
  4465     0488  3000               	movlw	0
  4466     0489  00F2               	movwf	___almod@divisor+2
  4467     048A  3000               	movlw	0
  4468     048B  00F1               	movwf	___almod@divisor+1
  4469     048C  300A               	movlw	10
  4470     048D  00F0               	movwf	___almod@divisor
  4471     048E  0859               	movf	(OLED_Printf_Line@val_355+3)^(0+128),w
  4472     048F  00F7               	movwf	___almod@dividend+3
  4473     0490  0858               	movf	(OLED_Printf_Line@val_355+2)^(0+128),w
  4474     0491  00F6               	movwf	___almod@dividend+2
  4475     0492  0857               	movf	(OLED_Printf_Line@val_355+1)^(0+128),w
  4476     0493  00F5               	movwf	___almod@dividend+1
  4477     0494  0856               	movf	OLED_Printf_Line@val_355^(0+128),w
  4478     0495  00F4               	movwf	___almod@dividend
  4479     0496  3181  21C0  3182   	fcall	___almod
  4480     0499  0870               	movf	?___almod,w
  4481     049A  3E30               	addlw	48
  4482     049B  0081               	movwf	1
  4483     049C                     l2809:
  4484     049C  3001               	movlw	1
  4485     049D  0020               	movlb	0	; select bank0
  4486     049E  00AE               	movwf	??_OLED_Printf_Line
  4487     049F  082E               	movf	??_OLED_Printf_Line,w
  4488     04A0  0021               	movlb	1	; select bank1
  4489     04A1  07D3               	addwf	OLED_Printf_Line@i_357^(0+128),f
  4490     04A2                     l2811:
  4491                           
  4492                           ;OLED_SSD1306.c: 515:                             val /= 10;
  4493     04A2  3000               	movlw	0
  4494     04A3  00F3               	movwf	___aldiv@divisor+3
  4495     04A4  3000               	movlw	0
  4496     04A5  00F2               	movwf	___aldiv@divisor+2
  4497     04A6  3000               	movlw	0
  4498     04A7  00F1               	movwf	___aldiv@divisor+1
  4499     04A8  300A               	movlw	10
  4500     04A9  00F0               	movwf	___aldiv@divisor
  4501     04AA  0859               	movf	(OLED_Printf_Line@val_355+3)^(0+128),w
  4502     04AB  00F7               	movwf	___aldiv@dividend+3
  4503     04AC  0858               	movf	(OLED_Printf_Line@val_355+2)^(0+128),w
  4504     04AD  00F6               	movwf	___aldiv@dividend+2
  4505     04AE  0857               	movf	(OLED_Printf_Line@val_355+1)^(0+128),w
  4506     04AF  00F5               	movwf	___aldiv@dividend+1
  4507     04B0  0856               	movf	OLED_Printf_Line@val_355^(0+128),w
  4508     04B1  00F4               	movwf	___aldiv@dividend
  4509     04B2  3182  223B  3182   	fcall	___aldiv
  4510     04B5  0873               	movf	?___aldiv+3,w
  4511     04B6  0021               	movlb	1	; select bank1
  4512     04B7  00D9               	movwf	(OLED_Printf_Line@val_355+3)^(0+128)
  4513     04B8  0872               	movf	?___aldiv+2,w
  4514     04B9  00D8               	movwf	(OLED_Printf_Line@val_355+2)^(0+128)
  4515     04BA  0871               	movf	?___aldiv+1,w
  4516     04BB  00D7               	movwf	(OLED_Printf_Line@val_355+1)^(0+128)
  4517     04BC  0870               	movf	?___aldiv,w
  4518     04BD  00D6               	movwf	OLED_Printf_Line@val_355^(0+128)
  4519     04BE                     l2813:
  4520                           
  4521                           ;OLED_SSD1306.c: 516:                         } while (val && i < 11);
  4522     04BE  0859               	movf	(OLED_Printf_Line@val_355+3)^(0+128),w
  4523     04BF  0458               	iorwf	(OLED_Printf_Line@val_355+2)^(0+128),w
  4524     04C0  0457               	iorwf	(OLED_Printf_Line@val_355+1)^(0+128),w
  4525     04C1  0456               	iorwf	OLED_Printf_Line@val_355^(0+128),w
  4526     04C2  1903               	skipnz
  4527     04C3  2CC5               	goto	u3161
  4528     04C4  2CC6               	goto	u3160
  4529     04C5                     u3161:
  4530     04C5  2CDC               	goto	l2821
  4531     04C6                     u3160:
  4532     04C6                     l2815:
  4533     04C6  300B               	movlw	11
  4534     04C7  0253               	subwf	OLED_Printf_Line@i_357^(0+128),w
  4535     04C8  1C03               	skipc
  4536     04C9  2CCB               	goto	u3171
  4537     04CA  2CCC               	goto	u3170
  4538     04CB                     u3171:
  4539     04CB  2C82               	goto	l2807
  4540     04CC                     u3170:
  4541     04CC  2CDC               	goto	l2821
  4542     04CD                     l2817:
  4543     04CD  0860               	movf	OLED_Printf_Line@dst^(0+128),w
  4544     04CE  0086               	movwf	6
  4545     04CF  0187               	clrf	7
  4546     04D0  0853               	movf	OLED_Printf_Line@i_357^(0+128),w
  4547     04D1  3E45               	addlw	(low (OLED_Printf_Line@temp_356| 0))& (0+255)
  4548     04D2  0084               	movwf	4
  4549     04D3  0185               	clrf	5
  4550     04D4  0800               	movf	0,w
  4551     04D5  0081               	movwf	1
  4552     04D6                     l2819:
  4553     04D6  3001               	movlw	1
  4554     04D7  0020               	movlb	0	; select bank0
  4555     04D8  00AE               	movwf	??_OLED_Printf_Line
  4556     04D9  082E               	movf	??_OLED_Printf_Line,w
  4557     04DA  0021               	movlb	1	; select bank1
  4558     04DB  07E0               	addwf	OLED_Printf_Line@dst^(0+128),f
  4559     04DC                     l2821:
  4560     04DC  3001               	movlw	1
  4561     04DD  02D3               	subwf	OLED_Printf_Line@i_357^(0+128),f
  4562     04DE  0A53               	incf	OLED_Printf_Line@i_357^(0+128),w
  4563     04DF  1903               	btfsc	3,2
  4564     04E0  2CE2               	goto	u3181
  4565     04E1  2CE3               	goto	u3180
  4566     04E2                     u3181:
  4567     04E2  2EDA               	goto	l2971
  4568     04E3                     u3180:
  4569     04E3                     l2823:
  4570     04E3  30A0               	movlw	(low OLED_Printf_Line@buf)& (0+255)
  4571     04E4  0260               	subwf	OLED_Printf_Line@dst^(0+128),w
  4572     04E5  3A80               	xorlw	128
  4573     04E6  3E61               	addlw	-159
  4574     04E7  1C03               	skipc
  4575     04E8  2CEA               	goto	u3191
  4576     04E9  2CEB               	goto	u3190
  4577     04EA                     u3191:
  4578     04EA  2CCD               	goto	l2817
  4579     04EB                     u3190:
  4580     04EB  2EDA               	goto	l2971
  4581     04EC                     l2825:
  4582                           
  4583                           ;OLED_SSD1306.c: 521:                     {;OLED_SSD1306.c: 523:                        
      +                           if ((dst - buf) < 31) *dst++ = '%';
  4584     04EC  30A0               	movlw	(low OLED_Printf_Line@buf)& (0+255)
  4585     04ED  0260               	subwf	OLED_Printf_Line@dst^(0+128),w
  4586     04EE  3A80               	xorlw	128
  4587     04EF  3E61               	addlw	-159
  4588     04F0  1803               	skipnc
  4589     04F1  2CF3               	goto	u3201
  4590     04F2  2CF4               	goto	u3200
  4591     04F3                     u3201:
  4592     04F3  2CFF               	goto	l2831
  4593     04F4                     u3200:
  4594     04F4                     l2827:
  4595     04F4  0860               	movf	OLED_Printf_Line@dst^(0+128),w
  4596     04F5  0086               	movwf	6
  4597     04F6  0187               	clrf	7
  4598     04F7  3025               	movlw	37
  4599     04F8  0081               	movwf	1
  4600     04F9                     l2829:
  4601     04F9  3001               	movlw	1
  4602     04FA  0020               	movlb	0	; select bank0
  4603     04FB  00AE               	movwf	??_OLED_Printf_Line
  4604     04FC  082E               	movf	??_OLED_Printf_Line,w
  4605     04FD  0021               	movlb	1	; select bank1
  4606     04FE  07E0               	addwf	OLED_Printf_Line@dst^(0+128),f
  4607     04FF                     l2831:
  4608                           
  4609                           ;OLED_SSD1306.c: 524:                         if ((dst - buf) < 31) *dst++ = 'l';
  4610     04FF  30A0               	movlw	(low OLED_Printf_Line@buf)& (0+255)
  4611     0500  0260               	subwf	OLED_Printf_Line@dst^(0+128),w
  4612     0501  3A80               	xorlw	128
  4613     0502  3E61               	addlw	-159
  4614     0503  1803               	skipnc
  4615     0504  2D06               	goto	u3211
  4616     0505  2D07               	goto	u3210
  4617     0506                     u3211:
  4618     0506  2D12               	goto	l2837
  4619     0507                     u3210:
  4620     0507                     l2833:
  4621     0507  0860               	movf	OLED_Printf_Line@dst^(0+128),w
  4622     0508  0086               	movwf	6
  4623     0509  0187               	clrf	7
  4624     050A  306C               	movlw	108
  4625     050B  0081               	movwf	1
  4626     050C                     l2835:
  4627     050C  3001               	movlw	1
  4628     050D  0020               	movlb	0	; select bank0
  4629     050E  00AE               	movwf	??_OLED_Printf_Line
  4630     050F  082E               	movf	??_OLED_Printf_Line,w
  4631     0510  0021               	movlb	1	; select bank1
  4632     0511  07E0               	addwf	OLED_Printf_Line@dst^(0+128),f
  4633     0512                     l2837:
  4634                           
  4635                           ;OLED_SSD1306.c: 525:                         if (*src && (dst - buf) < 31) *dst++ = *sr
      +                          c;
  4636     0512  085E               	movf	OLED_Printf_Line@src^(0+128),w
  4637     0513  0084               	movwf	4
  4638     0514  085F               	movf	(OLED_Printf_Line@src+1)^(0+128),w
  4639     0515  0085               	movwf	5
  4640     0516  0012               	moviw fsr0++
  4641     0517  1903               	btfsc	3,2
  4642     0518  2D1A               	goto	u3221
  4643     0519  2D1B               	goto	u3220
  4644     051A                     u3221:
  4645     051A  2EDA               	goto	l2971
  4646     051B                     u3220:
  4647     051B                     l2839:
  4648     051B  30A0               	movlw	(low OLED_Printf_Line@buf)& (0+255)
  4649     051C  0260               	subwf	OLED_Printf_Line@dst^(0+128),w
  4650     051D  3A80               	xorlw	128
  4651     051E  3E61               	addlw	-159
  4652     051F  1803               	skipnc
  4653     0520  2D22               	goto	u3231
  4654     0521  2D23               	goto	u3230
  4655     0522                     u3231:
  4656     0522  2EDA               	goto	l2971
  4657     0523                     u3230:
  4658     0523                     l2841:
  4659     0523  0860               	movf	OLED_Printf_Line@dst^(0+128),w
  4660     0524  0086               	movwf	6
  4661     0525  0187               	clrf	7
  4662     0526  085E               	movf	OLED_Printf_Line@src^(0+128),w
  4663     0527  0084               	movwf	4
  4664     0528  085F               	movf	(OLED_Printf_Line@src+1)^(0+128),w
  4665     0529  0085               	movwf	5
  4666     052A  0800               	movf	0,w	;code access
  4667     052B  0081               	movwf	1
  4668     052C                     l2843:
  4669     052C  3001               	movlw	1
  4670     052D  0020               	movlb	0	; select bank0
  4671     052E  00AE               	movwf	??_OLED_Printf_Line
  4672     052F  082E               	movf	??_OLED_Printf_Line,w
  4673     0530  0021               	movlb	1	; select bank1
  4674     0531  07E0               	addwf	OLED_Printf_Line@dst^(0+128),f
  4675     0532  2EDA               	goto	l2971
  4676     0533                     l2845:
  4677                           
  4678                           ;OLED_SSD1306.c: 531:                 {;OLED_SSD1306.c: 532:                     uint16_
      +                          t val = (*(unsigned int *)__va_arg(*(unsigned int **)ap, (unsigned int)0));
  4679     0533  085D               	movf	OLED_Printf_Line@ap^(0+128),w
  4680     0534  0086               	movwf	6
  4681     0535  0187               	clrf	7
  4682     0536  3F40               	moviw [0]fsr1
  4683     0537  00CF               	movwf	OLED_Printf_Line@val_358^(0+128)
  4684     0538  3F41               	moviw [1]fsr1
  4685     0539  00D0               	movwf	(OLED_Printf_Line@val_358+1)^(0+128)
  4686     053A                     l2847:
  4687     053A  3002               	movlw	2
  4688     053B  0020               	movlb	0	; select bank0
  4689     053C  00AE               	movwf	??_OLED_Printf_Line
  4690     053D  082E               	movf	??_OLED_Printf_Line,w
  4691     053E  0021               	movlb	1	; select bank1
  4692     053F  07DD               	addwf	OLED_Printf_Line@ap^(0+128),f
  4693     0540                     l2849:
  4694                           
  4695                           ;OLED_SSD1306.c: 535:                     if (width2_zpad && val < 10)
  4696     0540  084D               	movf	OLED_Printf_Line@width2_zpad^(0+128),w
  4697     0541  1903               	btfsc	3,2
  4698     0542  2D44               	goto	u3241
  4699     0543  2D45               	goto	u3240
  4700     0544                     u3241:
  4701     0544  2D61               	goto	l2859
  4702     0545                     u3240:
  4703     0545                     l2851:
  4704     0545  3000               	movlw	0
  4705     0546  0250               	subwf	(OLED_Printf_Line@val_358+1)^(0+128),w
  4706     0547  300A               	movlw	10
  4707     0548  1903               	skipnz
  4708     0549  024F               	subwf	OLED_Printf_Line@val_358^(0+128),w
  4709     054A  1803               	skipnc
  4710     054B  2D4D               	goto	u3251
  4711     054C  2D4E               	goto	u3250
  4712     054D                     u3251:
  4713     054D  2D61               	goto	l2859
  4714     054E                     u3250:
  4715     054E                     l2853:
  4716                           
  4717                           ;OLED_SSD1306.c: 536:                     {;OLED_SSD1306.c: 537:                        
      +                           if ((dst - buf) < 31) *dst++ = '0';
  4718     054E  30A0               	movlw	(low OLED_Printf_Line@buf)& (0+255)
  4719     054F  0260               	subwf	OLED_Printf_Line@dst^(0+128),w
  4720     0550  3A80               	xorlw	128
  4721     0551  3E61               	addlw	-159
  4722     0552  1803               	skipnc
  4723     0553  2D55               	goto	u3261
  4724     0554  2D56               	goto	u3260
  4725     0555                     u3261:
  4726     0555  2D61               	goto	l2859
  4727     0556                     u3260:
  4728     0556                     l2855:
  4729     0556  0860               	movf	OLED_Printf_Line@dst^(0+128),w
  4730     0557  0086               	movwf	6
  4731     0558  0187               	clrf	7
  4732     0559  3030               	movlw	48
  4733     055A  0081               	movwf	1
  4734     055B                     l2857:
  4735     055B  3001               	movlw	1
  4736     055C  0020               	movlb	0	; select bank0
  4737     055D  00AE               	movwf	??_OLED_Printf_Line
  4738     055E  082E               	movf	??_OLED_Printf_Line,w
  4739     055F  0021               	movlb	1	; select bank1
  4740     0560  07E0               	addwf	OLED_Printf_Line@dst^(0+128),f
  4741     0561                     l2859:
  4742                           
  4743                           ;OLED_SSD1306.c: 540:                     char temp[6];;OLED_SSD1306.c: 541:            
      +                                   uint8_t i = 0;
  4744     0561  01D4               	clrf	OLED_Printf_Line@i_360^(0+128)
  4745     0562                     l2861:
  4746                           
  4747                           ;OLED_SSD1306.c: 543:                         temp[i++] = '0' + (val % 10);
  4748     0562  0854               	movf	OLED_Printf_Line@i_360^(0+128),w
  4749     0563  3E56               	addlw	(low (OLED_Printf_Line@temp_359| 0))& (0+255)
  4750     0564  0086               	movwf	6
  4751     0565  0187               	clrf	7
  4752     0566  300A               	movlw	10
  4753     0567  00F0               	movwf	___lwmod@divisor
  4754     0568  3000               	movlw	0
  4755     0569  00F1               	movwf	___lwmod@divisor+1
  4756     056A  0850               	movf	(OLED_Printf_Line@val_358+1)^(0+128),w
  4757     056B  00F3               	movwf	___lwmod@dividend+1
  4758     056C  084F               	movf	OLED_Printf_Line@val_358^(0+128),w
  4759     056D  00F2               	movwf	___lwmod@dividend
  4760     056E  318D  255D  3182   	fcall	___lwmod
  4761     0571  0870               	movf	?___lwmod,w
  4762     0572  3E30               	addlw	48
  4763     0573  0081               	movwf	1
  4764     0574                     l2863:
  4765     0574  3001               	movlw	1
  4766     0575  0020               	movlb	0	; select bank0
  4767     0576  00AE               	movwf	??_OLED_Printf_Line
  4768     0577  082E               	movf	??_OLED_Printf_Line,w
  4769     0578  0021               	movlb	1	; select bank1
  4770     0579  07D4               	addwf	OLED_Printf_Line@i_360^(0+128),f
  4771     057A                     l2865:
  4772                           
  4773                           ;OLED_SSD1306.c: 544:                         val /= 10;
  4774     057A  300A               	movlw	10
  4775     057B  00F0               	movwf	___lwdiv@divisor
  4776     057C  3000               	movlw	0
  4777     057D  00F1               	movwf	___lwdiv@divisor+1
  4778     057E  0850               	movf	(OLED_Printf_Line@val_358+1)^(0+128),w
  4779     057F  00F3               	movwf	___lwdiv@dividend+1
  4780     0580  084F               	movf	OLED_Printf_Line@val_358^(0+128),w
  4781     0581  00F2               	movwf	___lwdiv@dividend
  4782     0582  318D  25C7  3182   	fcall	___lwdiv
  4783     0585  0871               	movf	?___lwdiv+1,w
  4784     0586  0021               	movlb	1	; select bank1
  4785     0587  00D0               	movwf	(OLED_Printf_Line@val_358+1)^(0+128)
  4786     0588  0870               	movf	?___lwdiv,w
  4787     0589  00CF               	movwf	OLED_Printf_Line@val_358^(0+128)
  4788     058A                     l2867:
  4789                           
  4790                           ;OLED_SSD1306.c: 545:                     } while (val && i < 6);
  4791     058A  084F               	movf	OLED_Printf_Line@val_358^(0+128),w
  4792     058B  0450               	iorwf	(OLED_Printf_Line@val_358+1)^(0+128),w
  4793     058C  1903               	btfsc	3,2
  4794     058D  2D8F               	goto	u3271
  4795     058E  2D90               	goto	u3270
  4796     058F                     u3271:
  4797     058F  2DA6               	goto	l2875
  4798     0590                     u3270:
  4799     0590                     l2869:
  4800     0590  3006               	movlw	6
  4801     0591  0254               	subwf	OLED_Printf_Line@i_360^(0+128),w
  4802     0592  1C03               	skipc
  4803     0593  2D95               	goto	u3281
  4804     0594  2D96               	goto	u3280
  4805     0595                     u3281:
  4806     0595  2D62               	goto	l2861
  4807     0596                     u3280:
  4808     0596  2DA6               	goto	l2875
  4809     0597                     l2871:
  4810     0597  0860               	movf	OLED_Printf_Line@dst^(0+128),w
  4811     0598  0086               	movwf	6
  4812     0599  0187               	clrf	7
  4813     059A  0854               	movf	OLED_Printf_Line@i_360^(0+128),w
  4814     059B  3E56               	addlw	(low (OLED_Printf_Line@temp_359| 0))& (0+255)
  4815     059C  0084               	movwf	4
  4816     059D  0185               	clrf	5
  4817     059E  0800               	movf	0,w
  4818     059F  0081               	movwf	1
  4819     05A0                     l2873:
  4820     05A0  3001               	movlw	1
  4821     05A1  0020               	movlb	0	; select bank0
  4822     05A2  00AE               	movwf	??_OLED_Printf_Line
  4823     05A3  082E               	movf	??_OLED_Printf_Line,w
  4824     05A4  0021               	movlb	1	; select bank1
  4825     05A5  07E0               	addwf	OLED_Printf_Line@dst^(0+128),f
  4826     05A6                     l2875:
  4827     05A6  3001               	movlw	1
  4828     05A7  02D4               	subwf	OLED_Printf_Line@i_360^(0+128),f
  4829     05A8  0A54               	incf	OLED_Printf_Line@i_360^(0+128),w
  4830     05A9  1903               	btfsc	3,2
  4831     05AA  2DAC               	goto	u3291
  4832     05AB  2DAD               	goto	u3290
  4833     05AC                     u3291:
  4834     05AC  2EDA               	goto	l2971
  4835     05AD                     u3290:
  4836     05AD                     l2877:
  4837     05AD  30A0               	movlw	(low OLED_Printf_Line@buf)& (0+255)
  4838     05AE  0260               	subwf	OLED_Printf_Line@dst^(0+128),w
  4839     05AF  3A80               	xorlw	128
  4840     05B0  3E61               	addlw	-159
  4841     05B1  1C03               	skipc
  4842     05B2  2DB4               	goto	u3301
  4843     05B3  2DB5               	goto	u3300
  4844     05B4                     u3301:
  4845     05B4  2D97               	goto	l2871
  4846     05B5                     u3300:
  4847     05B5  2EDA               	goto	l2971
  4848     05B6                     l2879:
  4849                           
  4850                           ;OLED_SSD1306.c: 552:                 {;OLED_SSD1306.c: 553:                     uint16_
      +                          t val = (*(unsigned int *)__va_arg(*(unsigned int **)ap, (unsigned int)0));
  4851     05B6  085D               	movf	OLED_Printf_Line@ap^(0+128),w
  4852     05B7  0086               	movwf	6
  4853     05B8  0187               	clrf	7
  4854     05B9  3F40               	moviw [0]fsr1
  4855     05BA  00C4               	movwf	OLED_Printf_Line@val_361^(0+128)
  4856     05BB  3F41               	moviw [1]fsr1
  4857     05BC  00C5               	movwf	(OLED_Printf_Line@val_361+1)^(0+128)
  4858     05BD                     l2881:
  4859     05BD  3002               	movlw	2
  4860     05BE  0020               	movlb	0	; select bank0
  4861     05BF  00AE               	movwf	??_OLED_Printf_Line
  4862     05C0  082E               	movf	??_OLED_Printf_Line,w
  4863     05C1  0021               	movlb	1	; select bank1
  4864     05C2  07DD               	addwf	OLED_Printf_Line@ap^(0+128),f
  4865     05C3                     l2883:
  4866                           
  4867                           ;OLED_SSD1306.c: 554:                     char temp[5];;OLED_SSD1306.c: 555:            
      +                                   uint8_t i = 0;
  4868     05C3  01D5               	clrf	OLED_Printf_Line@i_363^(0+128)
  4869     05C4                     l2885:
  4870                           
  4871                           ;OLED_SSD1306.c: 557:                         uint8_t nibble = val & 0xF;
  4872     05C4  0844               	movf	OLED_Printf_Line@val_361^(0+128),w
  4873     05C5  390F               	andlw	15
  4874     05C6  00CC               	movwf	OLED_Printf_Line@nibble^(0+128)
  4875     05C7                     l2887:
  4876                           
  4877                           ;OLED_SSD1306.c: 558:                         temp[i++] = (nibble < 10) ? ('0' + nibble)
      +                           : ('A' + nibble - 10);
  4878     05C7  300A               	movlw	10
  4879     05C8  024C               	subwf	OLED_Printf_Line@nibble^(0+128),w
  4880     05C9  1C03               	skipc
  4881     05CA  2DCC               	goto	u3311
  4882     05CB  2DCD               	goto	u3310
  4883     05CC                     u3311:
  4884     05CC  2DD5               	goto	l2891
  4885     05CD                     u3310:
  4886     05CD                     l2889:
  4887     05CD  084C               	movf	OLED_Printf_Line@nibble^(0+128),w
  4888     05CE  3E37               	addlw	55
  4889     05CF  00C2               	movwf	_OLED_Printf_Line$365^(0+128)
  4890     05D0  3000               	movlw	0
  4891     05D1  1803               	skipnc
  4892     05D2  3001               	movlw	1
  4893     05D3  00C3               	movwf	(_OLED_Printf_Line$365^(0+128)+1)
  4894     05D4  2DDC               	goto	l2893
  4895     05D5                     l2891:
  4896     05D5  084C               	movf	OLED_Printf_Line@nibble^(0+128),w
  4897     05D6  3E30               	addlw	48
  4898     05D7  00C2               	movwf	_OLED_Printf_Line$365^(0+128)
  4899     05D8  3000               	movlw	0
  4900     05D9  1803               	skipnc
  4901     05DA  3001               	movlw	1
  4902     05DB  00C3               	movwf	(_OLED_Printf_Line$365^(0+128)+1)
  4903     05DC                     l2893:
  4904     05DC  0855               	movf	OLED_Printf_Line@i_363^(0+128),w
  4905     05DD  3E5C               	addlw	(low (OLED_Printf_Line@temp_362| 0))& (0+255)
  4906     05DE  0086               	movwf	6
  4907     05DF  0187               	clrf	7
  4908     05E0  0842               	movf	_OLED_Printf_Line$365^(0+128),w
  4909     05E1  0081               	movwf	1
  4910     05E2                     l2895:
  4911     05E2  3001               	movlw	1
  4912     05E3  0020               	movlb	0	; select bank0
  4913     05E4  00AE               	movwf	??_OLED_Printf_Line
  4914     05E5  082E               	movf	??_OLED_Printf_Line,w
  4915     05E6  0021               	movlb	1	; select bank1
  4916     05E7  07D5               	addwf	OLED_Printf_Line@i_363^(0+128),f
  4917     05E8                     l2897:
  4918                           
  4919                           ;OLED_SSD1306.c: 559:                         val >>= 4;
  4920     05E8  3004               	movlw	4
  4921     05E9                     u3325:
  4922     05E9  36C5               	lsrf	(OLED_Printf_Line@val_361+1)^(0+128),f
  4923     05EA  0CC4               	rrf	OLED_Printf_Line@val_361^(0+128),f
  4924     05EB  0B89               	decfsz	9,f
  4925     05EC  2DE9               	goto	u3325
  4926     05ED                     l2899:
  4927                           
  4928                           ;OLED_SSD1306.c: 560:                     } while (val && i < 5);
  4929     05ED  0844               	movf	OLED_Printf_Line@val_361^(0+128),w
  4930     05EE  0445               	iorwf	(OLED_Printf_Line@val_361+1)^(0+128),w
  4931     05EF  1903               	btfsc	3,2
  4932     05F0  2DF2               	goto	u3331
  4933     05F1  2DF3               	goto	u3330
  4934     05F2                     u3331:
  4935     05F2  2E09               	goto	l2907
  4936     05F3                     u3330:
  4937     05F3                     l2901:
  4938     05F3  3005               	movlw	5
  4939     05F4  0255               	subwf	OLED_Printf_Line@i_363^(0+128),w
  4940     05F5  1C03               	skipc
  4941     05F6  2DF8               	goto	u3341
  4942     05F7  2DF9               	goto	u3340
  4943     05F8                     u3341:
  4944     05F8  2DC4               	goto	l2885
  4945     05F9                     u3340:
  4946     05F9  2E09               	goto	l2907
  4947     05FA                     l2903:
  4948     05FA  0860               	movf	OLED_Printf_Line@dst^(0+128),w
  4949     05FB  0086               	movwf	6
  4950     05FC  0187               	clrf	7
  4951     05FD  0855               	movf	OLED_Printf_Line@i_363^(0+128),w
  4952     05FE  3E5C               	addlw	(low (OLED_Printf_Line@temp_362| 0))& (0+255)
  4953     05FF  0084               	movwf	4
  4954     0600  0185               	clrf	5
  4955     0601  0800               	movf	0,w
  4956     0602  0081               	movwf	1
  4957     0603                     l2905:
  4958     0603  3001               	movlw	1
  4959     0604  0020               	movlb	0	; select bank0
  4960     0605  00AE               	movwf	??_OLED_Printf_Line
  4961     0606  082E               	movf	??_OLED_Printf_Line,w
  4962     0607  0021               	movlb	1	; select bank1
  4963     0608  07E0               	addwf	OLED_Printf_Line@dst^(0+128),f
  4964     0609                     l2907:
  4965     0609  3001               	movlw	1
  4966     060A  02D5               	subwf	OLED_Printf_Line@i_363^(0+128),f
  4967     060B  0A55               	incf	OLED_Printf_Line@i_363^(0+128),w
  4968     060C  1903               	btfsc	3,2
  4969     060D  2E0F               	goto	u3351
  4970     060E  2E10               	goto	u3350
  4971     060F                     u3351:
  4972     060F  2EDA               	goto	l2971
  4973     0610                     u3350:
  4974     0610                     l2909:
  4975     0610  30A0               	movlw	(low OLED_Printf_Line@buf)& (0+255)
  4976     0611  0260               	subwf	OLED_Printf_Line@dst^(0+128),w
  4977     0612  3A80               	xorlw	128
  4978     0613  3E61               	addlw	-159
  4979     0614  1C03               	skipc
  4980     0615  2E17               	goto	u3361
  4981     0616  2E18               	goto	u3360
  4982     0617                     u3361:
  4983     0617  2DFA               	goto	l2903
  4984     0618                     u3360:
  4985     0618  2EDA               	goto	l2971
  4986     0619                     l2911:
  4987                           
  4988                           ;OLED_SSD1306.c: 567:                 {;OLED_SSD1306.c: 568:                     const c
      +                          har *str = (*(const char* *)__va_arg(*(const char* **)ap, (const char*)0));
  4989     0619  085D               	movf	OLED_Printf_Line@ap^(0+128),w
  4990     061A  0086               	movwf	6
  4991     061B  0187               	clrf	7
  4992     061C  0801               	movf	1,w
  4993     061D  0020               	movlb	0	; select bank0
  4994     061E  00E1               	movwf	OLED_Printf_Line@str
  4995     061F                     l2913:
  4996     061F  3001               	movlw	1
  4997     0620  00AE               	movwf	??_OLED_Printf_Line
  4998     0621  082E               	movf	??_OLED_Printf_Line,w
  4999     0622  0021               	movlb	1	; select bank1
  5000     0623  07DD               	addwf	OLED_Printf_Line@ap^(0+128),f
  5001                           
  5002                           ;OLED_SSD1306.c: 569:                     while (*str && (dst - buf) < 31) *dst++ = *str
      +                          ++;
  5003     0624  2E37               	goto	l2921
  5004     0625                     l2915:
  5005     0625  0860               	movf	OLED_Printf_Line@dst^(0+128),w
  5006     0626  0086               	movwf	6
  5007     0627  0187               	clrf	7
  5008     0628  0020               	movlb	0	; select bank0
  5009     0629  0861               	movf	OLED_Printf_Line@str,w
  5010     062A  0084               	movwf	4
  5011     062B  0185               	clrf	5
  5012     062C  0800               	movf	0,w
  5013     062D  0081               	movwf	1
  5014     062E                     l2917:
  5015     062E  3001               	movlw	1
  5016     062F  00AE               	movwf	??_OLED_Printf_Line
  5017     0630  082E               	movf	??_OLED_Printf_Line,w
  5018     0631  07E1               	addwf	OLED_Printf_Line@str,f
  5019     0632                     l2919:
  5020     0632  3001               	movlw	1
  5021     0633  00AE               	movwf	??_OLED_Printf_Line
  5022     0634  082E               	movf	??_OLED_Printf_Line,w
  5023     0635  0021               	movlb	1	; select bank1
  5024     0636  07E0               	addwf	OLED_Printf_Line@dst^(0+128),f
  5025     0637                     l2921:
  5026     0637  0020               	movlb	0	; select bank0
  5027     0638  0861               	movf	OLED_Printf_Line@str,w
  5028     0639  0086               	movwf	6
  5029     063A  0187               	clrf	7
  5030     063B  0801               	movf	1,w
  5031     063C  1903               	btfsc	3,2
  5032     063D  2E3F               	goto	u3371
  5033     063E  2E40               	goto	u3370
  5034     063F                     u3371:
  5035     063F  2EDA               	goto	l2971
  5036     0640                     u3370:
  5037     0640                     l2923:
  5038     0640  30A0               	movlw	(low OLED_Printf_Line@buf)& (0+255)
  5039     0641  0021               	movlb	1	; select bank1
  5040     0642  0260               	subwf	OLED_Printf_Line@dst^(0+128),w
  5041     0643  3A80               	xorlw	128
  5042     0644  3E61               	addlw	-159
  5043     0645  1C03               	skipc
  5044     0646  2E48               	goto	u3381
  5045     0647  2E49               	goto	u3380
  5046     0648                     u3381:
  5047     0648  2E25               	goto	l2915
  5048     0649                     u3380:
  5049     0649  2EDA               	goto	l2971
  5050     064A                     l2925:
  5051                           
  5052                           ;OLED_SSD1306.c: 574:                 {;OLED_SSD1306.c: 575:                     if ((ds
      +                          t - buf) < 31) *dst++ = (char)(*(int *)__va_arg(*(int **)ap, (int)0));
  5053     064A  30A0               	movlw	(low OLED_Printf_Line@buf)& (0+255)
  5054     064B  0260               	subwf	OLED_Printf_Line@dst^(0+128),w
  5055     064C  3A80               	xorlw	128
  5056     064D  3E61               	addlw	-159
  5057     064E  1803               	skipnc
  5058     064F  2E51               	goto	u3391
  5059     0650  2E52               	goto	u3390
  5060     0651                     u3391:
  5061     0651  2EDA               	goto	l2971
  5062     0652                     u3390:
  5063     0652                     l2927:
  5064     0652  0860               	movf	OLED_Printf_Line@dst^(0+128),w
  5065     0653  0086               	movwf	6
  5066     0654  0187               	clrf	7
  5067     0655  085D               	movf	OLED_Printf_Line@ap^(0+128),w
  5068     0656  0084               	movwf	4
  5069     0657  0185               	clrf	5
  5070     0658  0800               	movf	0,w
  5071     0659  0081               	movwf	1
  5072     065A                     l2929:
  5073     065A  3002               	movlw	2
  5074     065B  0020               	movlb	0	; select bank0
  5075     065C  00AE               	movwf	??_OLED_Printf_Line
  5076     065D  082E               	movf	??_OLED_Printf_Line,w
  5077     065E  0021               	movlb	1	; select bank1
  5078     065F  07DD               	addwf	OLED_Printf_Line@ap^(0+128),f
  5079     0660  2D2C               	goto	l2843
  5080     0661                     l2933:
  5081                           
  5082                           ;OLED_SSD1306.c: 580:                 {;OLED_SSD1306.c: 581:                     if ((ds
      +                          t - buf) < 31) *dst++ = '%';
  5083     0661  30A0               	movlw	(low OLED_Printf_Line@buf)& (0+255)
  5084     0662  0260               	subwf	OLED_Printf_Line@dst^(0+128),w
  5085     0663  3A80               	xorlw	128
  5086     0664  3E61               	addlw	-159
  5087     0665  1803               	skipnc
  5088     0666  2E68               	goto	u3401
  5089     0667  2E69               	goto	u3400
  5090     0668                     u3401:
  5091     0668  2EDA               	goto	l2971
  5092     0669                     u3400:
  5093     0669                     l2935:
  5094     0669  0860               	movf	OLED_Printf_Line@dst^(0+128),w
  5095     066A  0086               	movwf	6
  5096     066B  0187               	clrf	7
  5097     066C  3025               	movlw	37
  5098     066D  0081               	movwf	1
  5099     066E  2D2C               	goto	l2843
  5100     066F                     l2939:
  5101                           
  5102                           ;OLED_SSD1306.c: 586:                 {;OLED_SSD1306.c: 587:                     if ((ds
      +                          t - buf) < 31) *dst++ = '%';
  5103     066F  30A0               	movlw	(low OLED_Printf_Line@buf)& (0+255)
  5104     0670  0260               	subwf	OLED_Printf_Line@dst^(0+128),w
  5105     0671  3A80               	xorlw	128
  5106     0672  3E61               	addlw	-159
  5107     0673  1803               	skipnc
  5108     0674  2E76               	goto	u3411
  5109     0675  2E77               	goto	u3410
  5110     0676                     u3411:
  5111     0676  2E82               	goto	l2945
  5112     0677                     u3410:
  5113     0677                     l2941:
  5114     0677  0860               	movf	OLED_Printf_Line@dst^(0+128),w
  5115     0678  0086               	movwf	6
  5116     0679  0187               	clrf	7
  5117     067A  3025               	movlw	37
  5118     067B  0081               	movwf	1
  5119     067C                     l2943:
  5120     067C  3001               	movlw	1
  5121     067D  0020               	movlb	0	; select bank0
  5122     067E  00AE               	movwf	??_OLED_Printf_Line
  5123     067F  082E               	movf	??_OLED_Printf_Line,w
  5124     0680  0021               	movlb	1	; select bank1
  5125     0681  07E0               	addwf	OLED_Printf_Line@dst^(0+128),f
  5126     0682                     l2945:
  5127                           
  5128                           ;OLED_SSD1306.c: 590:                     if (width2_zpad)
  5129     0682  084D               	movf	OLED_Printf_Line@width2_zpad^(0+128),w
  5130     0683  1903               	btfsc	3,2
  5131     0684  2E86               	goto	u3421
  5132     0685  2E87               	goto	u3420
  5133     0686                     u3421:
  5134     0686  2EAD               	goto	l2959
  5135     0687                     u3420:
  5136     0687                     l2947:
  5137                           
  5138                           ;OLED_SSD1306.c: 591:                     {;OLED_SSD1306.c: 592:                        
      +                           if ((dst - buf) < 31) *dst++ = '0';
  5139     0687  30A0               	movlw	(low OLED_Printf_Line@buf)& (0+255)
  5140     0688  0260               	subwf	OLED_Printf_Line@dst^(0+128),w
  5141     0689  3A80               	xorlw	128
  5142     068A  3E61               	addlw	-159
  5143     068B  1803               	skipnc
  5144     068C  2E8E               	goto	u3431
  5145     068D  2E8F               	goto	u3430
  5146     068E                     u3431:
  5147     068E  2E9A               	goto	l2953
  5148     068F                     u3430:
  5149     068F                     l2949:
  5150     068F  0860               	movf	OLED_Printf_Line@dst^(0+128),w
  5151     0690  0086               	movwf	6
  5152     0691  0187               	clrf	7
  5153     0692  3030               	movlw	48
  5154     0693  0081               	movwf	1
  5155     0694                     l2951:
  5156     0694  3001               	movlw	1
  5157     0695  0020               	movlb	0	; select bank0
  5158     0696  00AE               	movwf	??_OLED_Printf_Line
  5159     0697  082E               	movf	??_OLED_Printf_Line,w
  5160     0698  0021               	movlb	1	; select bank1
  5161     0699  07E0               	addwf	OLED_Printf_Line@dst^(0+128),f
  5162     069A                     l2953:
  5163                           
  5164                           ;OLED_SSD1306.c: 593:                         if ((dst - buf) < 31) *dst++ = '2';
  5165     069A  30A0               	movlw	(low OLED_Printf_Line@buf)& (0+255)
  5166     069B  0260               	subwf	OLED_Printf_Line@dst^(0+128),w
  5167     069C  3A80               	xorlw	128
  5168     069D  3E61               	addlw	-159
  5169     069E  1803               	skipnc
  5170     069F  2EA1               	goto	u3441
  5171     06A0  2EA2               	goto	u3440
  5172     06A1                     u3441:
  5173     06A1  2EAD               	goto	l2959
  5174     06A2                     u3440:
  5175     06A2                     l2955:
  5176     06A2  0860               	movf	OLED_Printf_Line@dst^(0+128),w
  5177     06A3  0086               	movwf	6
  5178     06A4  0187               	clrf	7
  5179     06A5  3032               	movlw	50
  5180     06A6  0081               	movwf	1
  5181     06A7                     l2957:
  5182     06A7  3001               	movlw	1
  5183     06A8  0020               	movlb	0	; select bank0
  5184     06A9  00AE               	movwf	??_OLED_Printf_Line
  5185     06AA  082E               	movf	??_OLED_Printf_Line,w
  5186     06AB  0021               	movlb	1	; select bank1
  5187     06AC  07E0               	addwf	OLED_Printf_Line@dst^(0+128),f
  5188     06AD                     l2959:
  5189                           
  5190                           ;OLED_SSD1306.c: 596:                     if (*src && (dst - buf) < 31) *dst++ = *src;
  5191     06AD  085E               	movf	OLED_Printf_Line@src^(0+128),w
  5192     06AE  0084               	movwf	4
  5193     06AF  085F               	movf	(OLED_Printf_Line@src+1)^(0+128),w
  5194     06B0  0085               	movwf	5
  5195     06B1  0012               	moviw fsr0++
  5196     06B2  1903               	btfsc	3,2
  5197     06B3  2EB5               	goto	u3451
  5198     06B4  2EB6               	goto	u3450
  5199     06B5                     u3451:
  5200     06B5  2EDA               	goto	l2971
  5201     06B6                     u3450:
  5202     06B6                     l2961:
  5203     06B6  30A0               	movlw	(low OLED_Printf_Line@buf)& (0+255)
  5204     06B7  0260               	subwf	OLED_Printf_Line@dst^(0+128),w
  5205     06B8  3A80               	xorlw	128
  5206     06B9  3E61               	addlw	-159
  5207     06BA  1803               	skipnc
  5208     06BB  2EBD               	goto	u3461
  5209     06BC  2EBE               	goto	u3460
  5210     06BD                     u3461:
  5211     06BD  2EDA               	goto	l2971
  5212     06BE                     u3460:
  5213     06BE  2D23               	goto	l2841
  5214     06BF                     l2969:
  5215     06BF  085E               	movf	OLED_Printf_Line@src^(0+128),w
  5216     06C0  0084               	movwf	4
  5217     06C1  085F               	movf	(OLED_Printf_Line@src+1)^(0+128),w
  5218     06C2  0085               	movwf	5
  5219     06C3  0800               	movf	0,w	;code access
  5220                           
  5221                           ; Switch size 1, requested type "simple"
  5222                           ; Number of cases is 7, Range of values is 37 to 120
  5223                           ; switch strategies available:
  5224                           ; Name         Instructions Cycles
  5225                           ; simple_byte           22    12 (average)
  5226                           ; direct_byte          177     9 (fixed)
  5227                           ; jumptable            263     9 (fixed)
  5228                           ;	Chosen strategy is simple_byte
  5229     06C4  3A25               	xorlw	37	; case 37
  5230     06C5  1903               	skipnz
  5231     06C6  2E61               	goto	l2933
  5232     06C7  3A46               	xorlw	70	; case 99
  5233     06C8  1903               	skipnz
  5234     06C9  2E4A               	goto	l2925
  5235     06CA  3A07               	xorlw	7	; case 100
  5236     06CB  1903               	skipnz
  5237     06CC  2B13               	goto	l2717
  5238     06CD  3A08               	xorlw	8	; case 108
  5239     06CE  1903               	skipnz
  5240     06CF  2BBA               	goto	l2761
  5241     06D0  3A1F               	xorlw	31	; case 115
  5242     06D1  1903               	skipnz
  5243     06D2  2E19               	goto	l2911
  5244     06D3  3A06               	xorlw	6	; case 117
  5245     06D4  1903               	skipnz
  5246     06D5  2D33               	goto	l2845
  5247     06D6  3A0D               	xorlw	13	; case 120
  5248     06D7  1903               	skipnz
  5249     06D8  2DB6               	goto	l2879
  5250     06D9  2E6F               	goto	l2939
  5251     06DA                     l2971:
  5252                           
  5253                           ;OLED_SSD1306.c: 601:             if (*src) src++;
  5254     06DA  0021               	movlb	1	; select bank1
  5255     06DB  085E               	movf	OLED_Printf_Line@src^(0+128),w
  5256     06DC  0084               	movwf	4
  5257     06DD  085F               	movf	(OLED_Printf_Line@src+1)^(0+128),w
  5258     06DE  0085               	movwf	5
  5259     06DF  0012               	moviw fsr0++
  5260     06E0  1903               	btfsc	3,2
  5261     06E1  2EE3               	goto	u3471
  5262     06E2  2EE4               	goto	u3470
  5263     06E3                     u3471:
  5264     06E3  2EFC               	goto	l2981
  5265     06E4                     u3470:
  5266     06E4                     l2973:
  5267     06E4  3001               	movlw	1
  5268     06E5  07DE               	addwf	OLED_Printf_Line@src^(0+128),f
  5269     06E6  3000               	movlw	0
  5270     06E7  3DDF               	addwfc	(OLED_Printf_Line@src+1)^(0+128),f
  5271     06E8  2EFC               	goto	l2981
  5272     06E9                     l2975:
  5273                           
  5274                           ;OLED_SSD1306.c: 604:         {;OLED_SSD1306.c: 605:             *dst++ = *src++;
  5275     06E9  0860               	movf	OLED_Printf_Line@dst^(0+128),w
  5276     06EA  0086               	movwf	6
  5277     06EB  0187               	clrf	7
  5278     06EC  085E               	movf	OLED_Printf_Line@src^(0+128),w
  5279     06ED  0084               	movwf	4
  5280     06EE  085F               	movf	(OLED_Printf_Line@src+1)^(0+128),w
  5281     06EF  0085               	movwf	5
  5282     06F0  0800               	movf	0,w	;code access
  5283     06F1  0081               	movwf	1
  5284     06F2                     l2977:
  5285     06F2  3001               	movlw	1
  5286     06F3  07DE               	addwf	OLED_Printf_Line@src^(0+128),f
  5287     06F4  3000               	movlw	0
  5288     06F5  3DDF               	addwfc	(OLED_Printf_Line@src+1)^(0+128),f
  5289     06F6                     l2979:
  5290     06F6  3001               	movlw	1
  5291     06F7  0020               	movlb	0	; select bank0
  5292     06F8  00AE               	movwf	??_OLED_Printf_Line
  5293     06F9  082E               	movf	??_OLED_Printf_Line,w
  5294     06FA  0021               	movlb	1	; select bank1
  5295     06FB  07E0               	addwf	OLED_Printf_Line@dst^(0+128),f
  5296     06FC                     l2981:
  5297                           
  5298                           ;OLED_SSD1306.c: 439:     while (*src && (dst - buf) < 31)
  5299     06FC  085E               	movf	OLED_Printf_Line@src^(0+128),w
  5300     06FD  0084               	movwf	4
  5301     06FE  085F               	movf	(OLED_Printf_Line@src+1)^(0+128),w
  5302     06FF  0085               	movwf	5
  5303     0700  0012               	moviw fsr0++
  5304     0701  1903               	btfsc	3,2
  5305     0702  2F04               	goto	u3481
  5306     0703  2F05               	goto	u3480
  5307     0704                     u3481:
  5308     0704  2F0D               	goto	l2985
  5309     0705                     u3480:
  5310     0705                     l2983:
  5311     0705  30A0               	movlw	(low OLED_Printf_Line@buf)& (0+255)
  5312     0706  0260               	subwf	OLED_Printf_Line@dst^(0+128),w
  5313     0707  3A80               	xorlw	128
  5314     0708  3E61               	addlw	-159
  5315     0709  1C03               	skipc
  5316     070A  2F0C               	goto	u3491
  5317     070B  2F0D               	goto	u3490
  5318     070C                     u3491:
  5319     070C  2AE1               	goto	l2701
  5320     070D                     u3490:
  5321     070D                     l2985:
  5322                           
  5323                           ;OLED_SSD1306.c: 609:     *dst = '\0';
  5324     070D  0860               	movf	OLED_Printf_Line@dst^(0+128),w
  5325     070E  0086               	movwf	6
  5326     070F  0187               	clrf	7
  5327     0710  0181               	clrf	1
  5328     0711                     l2987:
  5329                           
  5330                           ;OLED_SSD1306.c: 612:     if (strcmp(buf, last_text[line]) == 0) return;
  5331     0711  085A               	movf	OLED_Printf_Line@line^(0+128),w
  5332     0712  0020               	movlb	0	; select bank0
  5333     0713  00AE               	movwf	??_OLED_Printf_Line
  5334     0714  01AF               	clrf	??_OLED_Printf_Line+1
  5335     0715  3005               	movlw	5
  5336     0716                     u3505:
  5337     0716  35AE               	lslf	??_OLED_Printf_Line,f
  5338     0717  0DAF               	rlf	??_OLED_Printf_Line+1,f
  5339     0718  0B89               	decfsz	9,f
  5340     0719  2F16               	goto	u3505
  5341     071A  30F0               	movlw	240
  5342     071B  00B0               	movwf	??_OLED_Printf_Line+2
  5343     071C  3026               	movlw	38
  5344     071D  00B1               	movwf	??_OLED_Printf_Line+3
  5345     071E  082E               	movf	??_OLED_Printf_Line,w
  5346     071F  0730               	addwf	??_OLED_Printf_Line+2,w
  5347     0720  00B2               	movwf	??_OLED_Printf_Line+4
  5348     0721  082F               	movf	??_OLED_Printf_Line+1,w
  5349     0722  3D31               	addwfc	??_OLED_Printf_Line+3,w
  5350     0723  00B3               	movwf	??_OLED_Printf_Line+5
  5351     0724  0832               	movf	??_OLED_Printf_Line+4,w
  5352     0725  00F0               	movwf	strcmp@r
  5353     0726  0833               	movf	??_OLED_Printf_Line+5,w
  5354     0727  00F1               	movwf	strcmp@r+1
  5355     0728  30A0               	movlw	(low (OLED_Printf_Line@buf| 0))& (0+255)
  5356     0729  318C  24D0  3182   	fcall	_strcmp
  5357     072C  0870               	movf	?_strcmp,w
  5358     072D  0471               	iorwf	?_strcmp+1,w
  5359     072E  1D03               	btfss	3,2
  5360     072F  2F31               	goto	u3511
  5361     0730  2F32               	goto	u3510
  5362     0731                     u3511:
  5363     0731  2F33               	goto	l2991
  5364     0732                     u3510:
  5365     0732  2FEC               	goto	l166
  5366     0733                     l2991:
  5367                           
  5368                           ;OLED_SSD1306.c: 613:     strcpy(last_text[line], buf);
  5369     0733  0021               	movlb	1	; select bank1
  5370     0734  085A               	movf	OLED_Printf_Line@line^(0+128),w
  5371     0735  0020               	movlb	0	; select bank0
  5372     0736  00AE               	movwf	??_OLED_Printf_Line
  5373     0737  01AF               	clrf	??_OLED_Printf_Line+1
  5374     0738  3005               	movlw	5
  5375     0739                     u3525:
  5376     0739  35AE               	lslf	??_OLED_Printf_Line,f
  5377     073A  0DAF               	rlf	??_OLED_Printf_Line+1,f
  5378     073B  0B89               	decfsz	9,f
  5379     073C  2F39               	goto	u3525
  5380     073D  30F0               	movlw	240
  5381     073E  00B0               	movwf	??_OLED_Printf_Line+2
  5382     073F  3026               	movlw	38
  5383     0740  00B1               	movwf	??_OLED_Printf_Line+3
  5384     0741  082E               	movf	??_OLED_Printf_Line,w
  5385     0742  0730               	addwf	??_OLED_Printf_Line+2,w
  5386     0743  00F0               	movwf	strcpy@dest
  5387     0744  082F               	movf	??_OLED_Printf_Line+1,w
  5388     0745  3D31               	addwfc	??_OLED_Printf_Line+3,w
  5389     0746  00F1               	movwf	strcpy@dest+1
  5390     0747  30A0               	movlw	(low (OLED_Printf_Line@buf| 0))& (0+255)
  5391     0748  00F2               	movwf	strcpy@src
  5392     0749  318B  2315  3182   	fcall	_strcpy
  5393     074C                     l2993:
  5394                           
  5395                           ;OLED_SSD1306.c: 616:     memset(screen_buffer[line], 0, 128);
  5396     074C  0021               	movlb	1	; select bank1
  5397     074D  085A               	movf	OLED_Printf_Line@line^(0+128),w
  5398     074E  0020               	movlb	0	; select bank0
  5399     074F  00AE               	movwf	??_OLED_Printf_Line
  5400     0750  01AF               	clrf	??_OLED_Printf_Line+1
  5401     0751  3007               	movlw	7
  5402     0752                     u3535:
  5403     0752  35AE               	lslf	??_OLED_Printf_Line,f
  5404     0753  0DAF               	rlf	??_OLED_Printf_Line+1,f
  5405     0754  0B89               	decfsz	9,f
  5406     0755  2F52               	goto	u3535
  5407     0756  30F0               	movlw	240
  5408     0757  00B0               	movwf	??_OLED_Printf_Line+2
  5409     0758  3024               	movlw	36
  5410     0759  00B1               	movwf	??_OLED_Printf_Line+3
  5411     075A  082E               	movf	??_OLED_Printf_Line,w
  5412     075B  0730               	addwf	??_OLED_Printf_Line+2,w
  5413     075C  00F0               	movwf	memset@dest
  5414     075D  082F               	movf	??_OLED_Printf_Line+1,w
  5415     075E  3D31               	addwfc	??_OLED_Printf_Line+3,w
  5416     075F  00F1               	movwf	memset@dest+1
  5417     0760  3000               	movlw	0
  5418     0761  00F2               	movwf	memset@c
  5419     0762  00F3               	movwf	memset@c+1
  5420     0763  3080               	movlw	128
  5421     0764  00F4               	movwf	memset@n
  5422     0765  3000               	movlw	0
  5423     0766  00F5               	movwf	memset@n+1
  5424     0767  3197  27E4  3182   	fcall	_memset
  5425     076A                     l2995:
  5426                           
  5427                           ;OLED_SSD1306.c: 619:     uint8_t col = 0;
  5428     076A  0021               	movlb	1	; select bank1
  5429     076B  01C6               	clrf	OLED_Printf_Line@col^(0+128)
  5430     076C                     l2997:
  5431                           
  5432                           ;OLED_SSD1306.c: 620:     for (const char* p = buf; *p && (col + 8) <= 128; ++p)
  5433     076C  30A0               	movlw	(low (OLED_Printf_Line@buf| 0))& (0+255)
  5434     076D  00C7               	movwf	OLED_Printf_Line@p^(0+128)
  5435     076E  2FCA               	goto	l3013
  5436     076F                     l2999:
  5437                           
  5438                           ;OLED_SSD1306.c: 621:     {;OLED_SSD1306.c: 622:         char ch = *p;
  5439     076F  0021               	movlb	1	; select bank1
  5440     0770  0847               	movf	OLED_Printf_Line@p^(0+128),w
  5441     0771  0086               	movwf	6
  5442     0772  0187               	clrf	7
  5443     0773  0801               	movf	1,w
  5444     0774  00CE               	movwf	OLED_Printf_Line@ch^(0+128)
  5445     0775                     l3001:
  5446                           
  5447                           ;OLED_SSD1306.c: 623:         if (ch < 32 || ch > 127) ch = ' ';
  5448     0775  3020               	movlw	32
  5449     0776  024E               	subwf	OLED_Printf_Line@ch^(0+128),w
  5450     0777  1C03               	skipc
  5451     0778  2F7A               	goto	u3541
  5452     0779  2F7B               	goto	u3540
  5453     077A                     u3541:
  5454     077A  2F81               	goto	l3005
  5455     077B                     u3540:
  5456     077B                     l3003:
  5457     077B  3080               	movlw	128
  5458     077C  024E               	subwf	OLED_Printf_Line@ch^(0+128),w
  5459     077D  1C03               	skipc
  5460     077E  2F80               	goto	u3551
  5461     077F  2F81               	goto	u3550
  5462     0780                     u3551:
  5463     0780  2F83               	goto	l3007
  5464     0781                     u3550:
  5465     0781                     l3005:
  5466     0781  3020               	movlw	32
  5467     0782  00CE               	movwf	OLED_Printf_Line@ch^(0+128)
  5468     0783                     l3007:
  5469                           
  5470                           ;OLED_SSD1306.c: 624:         memcpy(&screen_buffer[line][col], &OledFont[(uint8_t)(ch -
      +                           32)][0], 8);
  5471     0783  0846               	movf	OLED_Printf_Line@col^(0+128),w
  5472     0784  0020               	movlb	0	; select bank0
  5473     0785  00AE               	movwf	??_OLED_Printf_Line
  5474     0786  01AF               	clrf	??_OLED_Printf_Line+1
  5475     0787  0021               	movlb	1	; select bank1
  5476     0788  085A               	movf	OLED_Printf_Line@line^(0+128),w
  5477     0789  0020               	movlb	0	; select bank0
  5478     078A  00B0               	movwf	??_OLED_Printf_Line+2
  5479     078B  01B1               	clrf	??_OLED_Printf_Line+3
  5480     078C  3007               	movlw	7
  5481     078D                     u3565:
  5482     078D  35B0               	lslf	??_OLED_Printf_Line+2,f
  5483     078E  0DB1               	rlf	??_OLED_Printf_Line+3,f
  5484     078F  0B89               	decfsz	9,f
  5485     0790  2F8D               	goto	u3565
  5486     0791  30F0               	movlw	240
  5487     0792  00B2               	movwf	??_OLED_Printf_Line+4
  5488     0793  3024               	movlw	36
  5489     0794  00B3               	movwf	??_OLED_Printf_Line+5
  5490     0795  0830               	movf	??_OLED_Printf_Line+2,w
  5491     0796  0732               	addwf	??_OLED_Printf_Line+4,w
  5492     0797  00B4               	movwf	??_OLED_Printf_Line+6
  5493     0798  0831               	movf	??_OLED_Printf_Line+3,w
  5494     0799  3D33               	addwfc	??_OLED_Printf_Line+5,w
  5495     079A  00B5               	movwf	??_OLED_Printf_Line+7
  5496     079B  082E               	movf	??_OLED_Printf_Line,w
  5497     079C  0734               	addwf	??_OLED_Printf_Line+6,w
  5498     079D  00F0               	movwf	memcpy@d1
  5499     079E  082F               	movf	??_OLED_Printf_Line+1,w
  5500     079F  3D35               	addwfc	??_OLED_Printf_Line+7,w
  5501     07A0  00F1               	movwf	memcpy@d1+1
  5502     07A1  0021               	movlb	1	; select bank1
  5503     07A2  084E               	movf	OLED_Printf_Line@ch^(0+128),w
  5504     07A3  3EE0               	addlw	224
  5505     07A4  0020               	movlb	0	; select bank0
  5506     07A5  00B6               	movwf	??_OLED_Printf_Line+8
  5507     07A6  01B7               	clrf	??_OLED_Printf_Line+9
  5508     07A7  35B6               	lslf	??_OLED_Printf_Line+8,f
  5509     07A8  0DB7               	rlf	??_OLED_Printf_Line+9,f
  5510     07A9  35B6               	lslf	??_OLED_Printf_Line+8,f
  5511     07AA  0DB7               	rlf	??_OLED_Printf_Line+9,f
  5512     07AB  35B6               	lslf	??_OLED_Printf_Line+8,f
  5513     07AC  0DB7               	rlf	??_OLED_Printf_Line+9,f
  5514     07AD  3000               	movlw	low (_OledFont| (0+32768))
  5515     07AE  00B8               	movwf	??_OLED_Printf_Line+10
  5516     07AF  3088               	movlw	high (_OledFont| (0+32768))
  5517     07B0  00B9               	movwf	??_OLED_Printf_Line+11
  5518     07B1  0836               	movf	??_OLED_Printf_Line+8,w
  5519     07B2  0738               	addwf	??_OLED_Printf_Line+10,w
  5520     07B3  00F2               	movwf	memcpy@s1
  5521     07B4  0837               	movf	??_OLED_Printf_Line+9,w
  5522     07B5  3D39               	addwfc	??_OLED_Printf_Line+11,w
  5523     07B6  00F3               	movwf	memcpy@s1+1
  5524     07B7  3008               	movlw	8
  5525     07B8  00F4               	movwf	memcpy@n
  5526     07B9  3000               	movlw	0
  5527     07BA  00F5               	movwf	memcpy@n+1
  5528     07BB  318C  2424  3182   	fcall	_memcpy
  5529     07BE                     l3009:
  5530                           
  5531                           ;OLED_SSD1306.c: 625:         col += 8;
  5532     07BE  3008               	movlw	8
  5533     07BF  0020               	movlb	0	; select bank0
  5534     07C0  00AE               	movwf	??_OLED_Printf_Line
  5535     07C1  082E               	movf	??_OLED_Printf_Line,w
  5536     07C2  0021               	movlb	1	; select bank1
  5537     07C3  07C6               	addwf	OLED_Printf_Line@col^(0+128),f
  5538     07C4                     l3011:
  5539                           
  5540                           ;OLED_SSD1306.c: 626:     }
  5541     07C4  3001               	movlw	1
  5542     07C5  0020               	movlb	0	; select bank0
  5543     07C6  00AE               	movwf	??_OLED_Printf_Line
  5544     07C7  082E               	movf	??_OLED_Printf_Line,w
  5545     07C8  0021               	movlb	1	; select bank1
  5546     07C9  07C7               	addwf	OLED_Printf_Line@p^(0+128),f
  5547     07CA                     l3013:
  5548     07CA  0847               	movf	OLED_Printf_Line@p^(0+128),w
  5549     07CB  0086               	movwf	6
  5550     07CC  0187               	clrf	7
  5551     07CD  0801               	movf	1,w
  5552     07CE  1903               	btfsc	3,2
  5553     07CF  2FD1               	goto	u3571
  5554     07D0  2FD2               	goto	u3570
  5555     07D1                     u3571:
  5556     07D1  2FE7               	goto	l3017
  5557     07D2                     u3570:
  5558     07D2                     l3015:
  5559     07D2  0846               	movf	OLED_Printf_Line@col^(0+128),w
  5560     07D3  3E08               	addlw	8
  5561     07D4  0020               	movlb	0	; select bank0
  5562     07D5  00AE               	movwf	??_OLED_Printf_Line
  5563     07D6  3000               	movlw	0
  5564     07D7  1803               	skipnc
  5565     07D8  3001               	movlw	1
  5566     07D9  00AF               	movwf	??_OLED_Printf_Line+1
  5567     07DA  082F               	movf	??_OLED_Printf_Line+1,w
  5568     07DB  3A80               	xorlw	128
  5569     07DC  00B0               	movwf	??_OLED_Printf_Line+2
  5570     07DD  3080               	movlw	128
  5571     07DE  0230               	subwf	??_OLED_Printf_Line+2,w
  5572     07DF  1D03               	skipz
  5573     07E0  2FE3               	goto	u3585
  5574     07E1  3081               	movlw	129
  5575     07E2  022E               	subwf	??_OLED_Printf_Line,w
  5576     07E3                     u3585:
  5577     07E3  1C03               	skipc
  5578     07E4  2FE6               	goto	u3581
  5579     07E5  2FE7               	goto	u3580
  5580     07E6                     u3581:
  5581     07E6  2F6F               	goto	l2999
  5582     07E7                     u3580:
  5583     07E7                     l3017:
  5584                           
  5585                           ;OLED_SSD1306.c: 628:     OLED_UpdateLine(line);
  5586     07E7  0021               	movlb	1	; select bank1
  5587     07E8  085A               	movf	OLED_Printf_Line@line^(0+128),w
  5588     07E9  318C  2478  3182   	fcall	_OLED_UpdateLine
  5589     07EC                     l166:
  5590     07EC  0008               	return
  5591     07ED                     __end_of_OLED_Printf_Line:
  5592                           
  5593                           	psect	text6
  5594     0B15                     __ptext6:	
  5595 ;; *************** function _strcpy *****************
  5596 ;; Defined at:
  5597 ;;		line 3 in file "C:\Program Files\Microchip\xc8\v2.46\pic\sources\c99\common\strcpy.c"
  5598 ;; Parameters:    Size  Location     Type
  5599 ;;  dest            2    0[COMMON] PTR unsigned char 
  5600 ;;		 -> OLED_Printf_Line@last_text(256), 
  5601 ;;  src             1    2[COMMON] PTR const unsigned char 
  5602 ;;		 -> OLED_Printf_Line@buf(32), 
  5603 ;; Auto vars:     Size  Location     Type
  5604 ;;  d               2    5[COMMON] PTR unsigned char 
  5605 ;;		 -> OLED_Printf_Line@last_text(256), 
  5606 ;; Return value:  Size  Location     Type
  5607 ;;                  2    0[COMMON] PTR unsigned char 
  5608 ;; Registers used:
  5609 ;;		wreg, fsr0l, fsr0h, fsr1l, fsr1h, status,2, status,0
  5610 ;; Tracked objects:
  5611 ;;		On entry : 0/0
  5612 ;;		On exit  : 0/0
  5613 ;;		Unchanged: 0/0
  5614 ;; Data sizes:     COMMON   BANK0   BANK1   BANK2   BANK3   BANK4   BANK5   BANK6   BANK7   BANK8   BANK9  BANK10  BANK1
      +1  BANK12  BANK13  BANK14  BANK15  BANK16  BANK17  BANK18  BANK19  BANK20  BANK21  BANK22  BANK23  BANK24  BANK25
  5615 ;;      Params:         3       0       0       0       0       0       0       0       0       0       0       0       
      +0       0       0       0       0       0       0       0       0       0       0       0       0       0       0
  5616 ;;      Locals:         2       0       0       0       0       0       0       0       0       0       0       0       
      +0       0       0       0       0       0       0       0       0       0       0       0       0       0       0
  5617 ;;      Temps:          2       0       0       0       0       0       0       0       0       0       0       0       
      +0       0       0       0       0       0       0       0       0       0       0       0       0       0       0
  5618 ;;      Totals:         7       0       0       0       0       0       0       0       0       0       0       0       
      +0       0       0       0       0       0       0       0       0       0       0       0       0       0       0
  5619 ;;Total ram usage:        7 bytes
  5620 ;; Hardware stack levels used: 1
  5621 ;; This function calls:
  5622 ;;		Nothing
  5623 ;; This function is called by:
  5624 ;;		_OLED_Printf_Line
  5625 ;; This function uses a non-reentrant model
  5626 ;;
  5627                           
  5628     0B15                     _strcpy:	
  5629                           ;psect for function _strcpy
  5630                           
  5631     0B15                     l2401:	
  5632                           ;incstack = 0
  5633                           ; Regs used in _strcpy: [wreg-fsr1h+status,2+status,0]
  5634                           
  5635     0B15  0871               	movf	strcpy@dest+1,w
  5636     0B16  00F6               	movwf	strcpy@d+1
  5637     0B17  0870               	movf	strcpy@dest,w
  5638     0B18  00F5               	movwf	strcpy@d
  5639     0B19                     l2403:
  5640     0B19  0876               	movf	strcpy@d+1,w
  5641     0B1A  00F4               	movwf	??_strcpy+1
  5642     0B1B  0875               	movf	strcpy@d,w
  5643     0B1C  00F3               	movwf	??_strcpy
  5644     0B1D  0AF5               	incf	strcpy@d,f
  5645     0B1E  1903               	skipnz
  5646     0B1F  0AF6               	incf	strcpy@d+1,f
  5647     0B20  0873               	movf	??_strcpy,w
  5648     0B21  0086               	movwf	6
  5649     0B22  0874               	movf	??_strcpy+1,w
  5650     0B23  0087               	movwf	7
  5651     0B24  0872               	movf	strcpy@src,w
  5652     0B25  0084               	movwf	4
  5653     0B26  0185               	clrf	5
  5654     0B27  0AF2               	incf	strcpy@src,f
  5655     0B28  0800               	movf	0,w
  5656     0B29  3FC0               	movwi [0]fsr1
  5657     0B2A  0889               	movf	9,f
  5658     0B2B  1D03               	btfss	3,2
  5659     0B2C  2B2E               	goto	u2241
  5660     0B2D  2B2F               	goto	u2240
  5661     0B2E                     u2241:
  5662     0B2E  2B19               	goto	l2403
  5663     0B2F                     u2240:
  5664     0B2F                     l971:
  5665     0B2F  0008               	return
  5666     0B30                     __end_of_strcpy:
  5667                           
  5668                           	psect	text7
  5669     0CD0                     __ptext7:	
  5670 ;; *************** function _strcmp *****************
  5671 ;; Defined at:
  5672 ;;		line 3 in file "C:\Program Files\Microchip\xc8\v2.46\pic\sources\c99\common\strcmp.c"
  5673 ;; Parameters:    Size  Location     Type
  5674 ;;  l               1    wreg     PTR const unsigned char 
  5675 ;;		 -> OLED_Printf_Line@buf(32), 
  5676 ;;  r               2    0[COMMON] PTR const unsigned char 
  5677 ;;		 -> OLED_Printf_Line@last_text(256), 
  5678 ;; Auto vars:     Size  Location     Type
  5679 ;;  l               1    3[COMMON] PTR const unsigned char 
  5680 ;;		 -> OLED_Printf_Line@buf(32), 
  5681 ;; Return value:  Size  Location     Type
  5682 ;;                  2    0[COMMON] int 
  5683 ;; Registers used:
  5684 ;;		wreg, fsr0l, fsr0h, fsr1l, fsr1h, status,2, status,0
  5685 ;; Tracked objects:
  5686 ;;		On entry : 0/0
  5687 ;;		On exit  : 0/0
  5688 ;;		Unchanged: 0/0
  5689 ;; Data sizes:     COMMON   BANK0   BANK1   BANK2   BANK3   BANK4   BANK5   BANK6   BANK7   BANK8   BANK9  BANK10  BANK1
      +1  BANK12  BANK13  BANK14  BANK15  BANK16  BANK17  BANK18  BANK19  BANK20  BANK21  BANK22  BANK23  BANK24  BANK25
  5690 ;;      Params:         2       0       0       0       0       0       0       0       0       0       0       0       
      +0       0       0       0       0       0       0       0       0       0       0       0       0       0       0
  5691 ;;      Locals:         1       0       0       0       0       0       0       0       0       0       0       0       
      +0       0       0       0       0       0       0       0       0       0       0       0       0       0       0
  5692 ;;      Temps:          1       0       0       0       0       0       0       0       0       0       0       0       
      +0       0       0       0       0       0       0       0       0       0       0       0       0       0       0
  5693 ;;      Totals:         4       0       0       0       0       0       0       0       0       0       0       0       
      +0       0       0       0       0       0       0       0       0       0       0       0       0       0       0
  5694 ;;Total ram usage:        4 bytes
  5695 ;; Hardware stack levels used: 1
  5696 ;; This function calls:
  5697 ;;		Nothing
  5698 ;; This function is called by:
  5699 ;;		_OLED_Printf_Line
  5700 ;; This function uses a non-reentrant model
  5701 ;;
  5702                           
  5703     0CD0                     _strcmp:	
  5704                           ;psect for function _strcmp
  5705                           
  5706                           
  5707                           ;incstack = 0
  5708                           ; Regs used in _strcmp: [wreg-fsr1h+status,2+status,0]
  5709                           ;strcmp@l stored from wreg
  5710     0CD0  00F3               	movwf	strcmp@l
  5711     0CD1                     l2389:
  5712     0CD1  2CDA               	goto	l2393
  5713     0CD2                     l2391:
  5714     0CD2  3001               	movlw	1
  5715     0CD3  00F2               	movwf	??_strcmp
  5716     0CD4  0872               	movf	??_strcmp,w
  5717     0CD5  07F3               	addwf	strcmp@l,f
  5718     0CD6  3001               	movlw	1
  5719     0CD7  07F0               	addwf	strcmp@r,f
  5720     0CD8  3000               	movlw	0
  5721     0CD9  3DF1               	addwfc	strcmp@r+1,f
  5722     0CDA                     l2393:
  5723     0CDA  0870               	movf	strcmp@r,w
  5724     0CDB  0086               	movwf	6
  5725     0CDC  0871               	movf	strcmp@r+1,w
  5726     0CDD  0087               	movwf	7
  5727     0CDE  0873               	movf	strcmp@l,w
  5728     0CDF  0084               	movwf	4
  5729     0CE0  0185               	clrf	5
  5730     0CE1  0800               	movf	0,w
  5731     0CE2  0601               	xorwf	1,w
  5732     0CE3  1D03               	skipz
  5733     0CE4  2CE6               	goto	u2221
  5734     0CE5  2CE7               	goto	u2220
  5735     0CE6                     u2221:
  5736     0CE6  2CEF               	goto	l2397
  5737     0CE7                     u2220:
  5738     0CE7                     l2395:
  5739     0CE7  0873               	movf	strcmp@l,w
  5740     0CE8  0086               	movwf	6
  5741     0CE9  0187               	clrf	7
  5742     0CEA  0801               	movf	1,w
  5743     0CEB  1D03               	btfss	3,2
  5744     0CEC  2CEE               	goto	u2231
  5745     0CED  2CEF               	goto	u2230
  5746     0CEE                     u2231:
  5747     0CEE  2CD2               	goto	l2391
  5748     0CEF                     u2230:
  5749     0CEF                     l2397:
  5750     0CEF  0873               	movf	strcmp@l,w
  5751     0CF0  0086               	movwf	6
  5752     0CF1  0187               	clrf	7
  5753     0CF2  0870               	movf	strcmp@r,w
  5754     0CF3  0084               	movwf	4
  5755     0CF4  0871               	movf	strcmp@r+1,w
  5756     0CF5  0085               	movwf	5
  5757     0CF6  0800               	movf	0,w
  5758     0CF7  0201               	subwf	1,w
  5759     0CF8  00F0               	movwf	?_strcmp
  5760     0CF9  01F1               	clrf	?_strcmp+1
  5761     0CFA  1C03               	skipc
  5762     0CFB  03F1               	decf	?_strcmp+1,f
  5763     0CFC                     l965:
  5764     0CFC  0008               	return
  5765     0CFD                     __end_of_strcmp:
  5766                           
  5767                           	psect	text8
  5768     0C24                     __ptext8:	
  5769 ;; *************** function _memcpy *****************
  5770 ;; Defined at:
  5771 ;;		line 4 in file "C:\Program Files\Microchip\xc8\v2.46\pic\sources\c99\common\memcpy.c"
  5772 ;; Parameters:    Size  Location     Type
  5773 ;;  d1              2    0[COMMON] PTR void 
  5774 ;;		 -> screen_buffer(512), 
  5775 ;;  s1              2    2[COMMON] PTR const void 
  5776 ;;		 -> OledFont(768), 
  5777 ;;  n               2    4[COMMON] unsigned int 
  5778 ;; Auto vars:     Size  Location     Type
  5779 ;;  s               2    8[COMMON] PTR const unsigned char 
  5780 ;;		 -> OledFont(768), 
  5781 ;;  d               2    6[COMMON] PTR unsigned char 
  5782 ;;		 -> screen_buffer(512), 
  5783 ;;  tmp             1   10[COMMON] unsigned char 
  5784 ;; Return value:  Size  Location     Type
  5785 ;;                  2    0[COMMON] PTR void 
  5786 ;; Registers used:
  5787 ;;		wreg, fsr0l, fsr0h, fsr1l, fsr1h, status,2, status,0, pclath
  5788 ;; Tracked objects:
  5789 ;;		On entry : 0/0
  5790 ;;		On exit  : 0/0
  5791 ;;		Unchanged: 0/0
  5792 ;; Data sizes:     COMMON   BANK0   BANK1   BANK2   BANK3   BANK4   BANK5   BANK6   BANK7   BANK8   BANK9  BANK10  BANK1
      +1  BANK12  BANK13  BANK14  BANK15  BANK16  BANK17  BANK18  BANK19  BANK20  BANK21  BANK22  BANK23  BANK24  BANK25
  5793 ;;      Params:         6       0       0       0       0       0       0       0       0       0       0       0       
      +0       0       0       0       0       0       0       0       0       0       0       0       0       0       0
  5794 ;;      Locals:         5       0       0       0       0       0       0       0       0       0       0       0       
      +0       0       0       0       0       0       0       0       0       0       0       0       0       0       0
  5795 ;;      Temps:          0       0       0       0       0       0       0       0       0       0       0       0       
      +0       0       0       0       0       0       0       0       0       0       0       0       0       0       0
  5796 ;;      Totals:        11       0       0       0       0       0       0       0       0       0       0       0       
      +0       0       0       0       0       0       0       0       0       0       0       0       0       0       0
  5797 ;;Total ram usage:       11 bytes
  5798 ;; Hardware stack levels used: 1
  5799 ;; This function calls:
  5800 ;;		Nothing
  5801 ;; This function is called by:
  5802 ;;		_OLED_Printf_Line
  5803 ;; This function uses a non-reentrant model
  5804 ;;
  5805                           
  5806     0C24                     _memcpy:	
  5807                           ;psect for function _memcpy
  5808                           
  5809     0C24                     l2405:	
  5810                           ;incstack = 0
  5811                           ; Regs used in _memcpy: [wreg-fsr1h+status,2+status,0+pclath]
  5812                           
  5813     0C24  0873               	movf	memcpy@s1+1,w
  5814     0C25  00F9               	movwf	memcpy@s+1
  5815     0C26  0872               	movf	memcpy@s1,w
  5816     0C27  00F8               	movwf	memcpy@s
  5817     0C28  0871               	movf	memcpy@d1+1,w
  5818     0C29  00F7               	movwf	memcpy@d+1
  5819     0C2A  0870               	movf	memcpy@d1,w
  5820     0C2B  00F6               	movwf	memcpy@d
  5821     0C2C  2C41               	goto	l2415
  5822     0C2D                     l2407:
  5823     0C2D  0878               	movf	memcpy@s,w
  5824     0C2E  0084               	movwf	4
  5825     0C2F  0879               	movf	memcpy@s+1,w
  5826     0C30  0085               	movwf	5
  5827     0C31  0800               	movf	0,w	;code access
  5828     0C32  00FA               	movwf	memcpy@tmp
  5829     0C33                     l2409:
  5830     0C33  3001               	movlw	1
  5831     0C34  07F8               	addwf	memcpy@s,f
  5832     0C35  3000               	movlw	0
  5833     0C36  3DF9               	addwfc	memcpy@s+1,f
  5834     0C37                     l2411:
  5835     0C37  0876               	movf	memcpy@d,w
  5836     0C38  0086               	movwf	6
  5837     0C39  0877               	movf	memcpy@d+1,w
  5838     0C3A  0087               	movwf	7
  5839     0C3B  087A               	movf	memcpy@tmp,w
  5840     0C3C  0081               	movwf	1
  5841     0C3D                     l2413:
  5842     0C3D  3001               	movlw	1
  5843     0C3E  07F6               	addwf	memcpy@d,f
  5844     0C3F  3000               	movlw	0
  5845     0C40  3DF7               	addwfc	memcpy@d+1,f
  5846     0C41                     l2415:
  5847     0C41  3001               	movlw	1
  5848     0C42  02F4               	subwf	memcpy@n,f
  5849     0C43  3000               	movlw	0
  5850     0C44  3BF5               	subwfb	memcpy@n+1,f
  5851     0C45  0A74               	incf	memcpy@n,w
  5852     0C46  1D03               	skipz
  5853     0C47  2C4C               	goto	u2251
  5854     0C48  0A75               	incf	memcpy@n+1,w
  5855     0C49  1D03               	btfss	3,2
  5856     0C4A  2C4C               	goto	u2251
  5857     0C4B  2C4D               	goto	u2250
  5858     0C4C                     u2251:
  5859     0C4C  2C2D               	goto	l2407
  5860     0C4D                     u2250:
  5861     0C4D                     l951:
  5862     0C4D  0008               	return
  5863     0C4E                     __end_of_memcpy:
  5864                           
  5865                           	psect	text9
  5866     0D5D                     __ptext9:	
  5867 ;; *************** function ___lwmod *****************
  5868 ;; Defined at:
  5869 ;;		line 5 in file "C:\Program Files\Microchip\xc8\v2.46\pic\sources\c99\common\lwmod.c"
  5870 ;; Parameters:    Size  Location     Type
  5871 ;;  divisor         2    0[COMMON] unsigned int 
  5872 ;;  dividend        2    2[COMMON] unsigned int 
  5873 ;; Auto vars:     Size  Location     Type
  5874 ;;  counter         1    5[COMMON] unsigned char 
  5875 ;; Return value:  Size  Location     Type
  5876 ;;                  2    0[COMMON] unsigned int 
  5877 ;; Registers used:
  5878 ;;		wreg, status,2, status,0
  5879 ;; Tracked objects:
  5880 ;;		On entry : 0/0
  5881 ;;		On exit  : 0/0
  5882 ;;		Unchanged: 0/0
  5883 ;; Data sizes:     COMMON   BANK0   BANK1   BANK2   BANK3   BANK4   BANK5   BANK6   BANK7   BANK8   BANK9  BANK10  BANK1
      +1  BANK12  BANK13  BANK14  BANK15  BANK16  BANK17  BANK18  BANK19  BANK20  BANK21  BANK22  BANK23  BANK24  BANK25
  5884 ;;      Params:         4       0       0       0       0       0       0       0       0       0       0       0       
      +0       0       0       0       0       0       0       0       0       0       0       0       0       0       0
  5885 ;;      Locals:         1       0       0       0       0       0       0       0       0       0       0       0       
      +0       0       0       0       0       0       0       0       0       0       0       0       0       0       0
  5886 ;;      Temps:          1       0       0       0       0       0       0       0       0       0       0       0       
      +0       0       0       0       0       0       0       0       0       0       0       0       0       0       0
  5887 ;;      Totals:         6       0       0       0       0       0       0       0       0       0       0       0       
      +0       0       0       0       0       0       0       0       0       0       0       0       0       0       0
  5888 ;;Total ram usage:        6 bytes
  5889 ;; Hardware stack levels used: 1
  5890 ;; This function calls:
  5891 ;;		Nothing
  5892 ;; This function is called by:
  5893 ;;		_OLED_Printf_Line
  5894 ;; This function uses a non-reentrant model
  5895 ;;
  5896                           
  5897     0D5D                     ___lwmod:	
  5898                           ;psect for function ___lwmod
  5899                           
  5900     0D5D                     l2655:	
  5901                           ;incstack = 0
  5902                           ; Regs used in ___lwmod: [wreg+status,2+status,0]
  5903                           
  5904     0D5D  0870               	movf	___lwmod@divisor,w
  5905     0D5E  0471               	iorwf	___lwmod@divisor+1,w
  5906     0D5F  1903               	btfsc	3,2
  5907     0D60  2D62               	goto	u2861
  5908     0D61  2D63               	goto	u2860
  5909     0D62                     u2861:
  5910     0D62  2D8C               	goto	l2673
  5911     0D63                     u2860:
  5912     0D63                     l2657:
  5913     0D63  01F5               	clrf	___lwmod@counter
  5914     0D64  0AF5               	incf	___lwmod@counter,f
  5915     0D65  2D6F               	goto	l2663
  5916     0D66                     l2659:
  5917     0D66  3001               	movlw	1
  5918     0D67                     u2875:
  5919     0D67  35F0               	lslf	___lwmod@divisor,f
  5920     0D68  0DF1               	rlf	___lwmod@divisor+1,f
  5921     0D69  0B89               	decfsz	9,f
  5922     0D6A  2D67               	goto	u2875
  5923     0D6B                     l2661:
  5924     0D6B  3001               	movlw	1
  5925     0D6C  00F4               	movwf	??___lwmod
  5926     0D6D  0874               	movf	??___lwmod,w
  5927     0D6E  07F5               	addwf	___lwmod@counter,f
  5928     0D6F                     l2663:
  5929     0D6F  1FF1               	btfss	___lwmod@divisor+1,7
  5930     0D70  2D72               	goto	u2881
  5931     0D71  2D73               	goto	u2880
  5932     0D72                     u2881:
  5933     0D72  2D66               	goto	l2659
  5934     0D73                     u2880:
  5935     0D73                     l2665:
  5936     0D73  0871               	movf	___lwmod@divisor+1,w
  5937     0D74  0273               	subwf	___lwmod@dividend+1,w
  5938     0D75  1D03               	skipz
  5939     0D76  2D79               	goto	u2895
  5940     0D77  0870               	movf	___lwmod@divisor,w
  5941     0D78  0272               	subwf	___lwmod@dividend,w
  5942     0D79                     u2895:
  5943     0D79  1C03               	skipc
  5944     0D7A  2D7C               	goto	u2891
  5945     0D7B  2D7D               	goto	u2890
  5946     0D7C                     u2891:
  5947     0D7C  2D81               	goto	l2669
  5948     0D7D                     u2890:
  5949     0D7D                     l2667:
  5950     0D7D  0870               	movf	___lwmod@divisor,w
  5951     0D7E  02F2               	subwf	___lwmod@dividend,f
  5952     0D7F  0871               	movf	___lwmod@divisor+1,w
  5953     0D80  3BF3               	subwfb	___lwmod@dividend+1,f
  5954     0D81                     l2669:
  5955     0D81  3001               	movlw	1
  5956     0D82                     u2905:
  5957     0D82  36F1               	lsrf	___lwmod@divisor+1,f
  5958     0D83  0CF0               	rrf	___lwmod@divisor,f
  5959     0D84  0B89               	decfsz	9,f
  5960     0D85  2D82               	goto	u2905
  5961     0D86                     l2671:
  5962     0D86  3001               	movlw	1
  5963     0D87  02F5               	subwf	___lwmod@counter,f
  5964     0D88  1D03               	btfss	3,2
  5965     0D89  2D8B               	goto	u2911
  5966     0D8A  2D8C               	goto	u2910
  5967     0D8B                     u2911:
  5968     0D8B  2D73               	goto	l2665
  5969     0D8C                     u2910:
  5970     0D8C                     l2673:
  5971     0D8C  0873               	movf	___lwmod@dividend+1,w
  5972     0D8D  00F1               	movwf	?___lwmod+1
  5973     0D8E  0872               	movf	___lwmod@dividend,w
  5974     0D8F  00F0               	movwf	?___lwmod
  5975     0D90                     l779:
  5976     0D90  0008               	return
  5977     0D91                     __end_of___lwmod:
  5978                           
  5979                           	psect	text10
  5980     0DC7                     __ptext10:	
  5981 ;; *************** function ___lwdiv *****************
  5982 ;; Defined at:
  5983 ;;		line 5 in file "C:\Program Files\Microchip\xc8\v2.46\pic\sources\c99\common\lwdiv.c"
  5984 ;; Parameters:    Size  Location     Type
  5985 ;;  divisor         2    0[COMMON] unsigned int 
  5986 ;;  dividend        2    2[COMMON] unsigned int 
  5987 ;; Auto vars:     Size  Location     Type
  5988 ;;  quotient        2    5[COMMON] unsigned int 
  5989 ;;  counter         1    7[COMMON] unsigned char 
  5990 ;; Return value:  Size  Location     Type
  5991 ;;                  2    0[COMMON] unsigned int 
  5992 ;; Registers used:
  5993 ;;		wreg, status,2, status,0
  5994 ;; Tracked objects:
  5995 ;;		On entry : 0/0
  5996 ;;		On exit  : 0/0
  5997 ;;		Unchanged: 0/0
  5998 ;; Data sizes:     COMMON   BANK0   BANK1   BANK2   BANK3   BANK4   BANK5   BANK6   BANK7   BANK8   BANK9  BANK10  BANK1
      +1  BANK12  BANK13  BANK14  BANK15  BANK16  BANK17  BANK18  BANK19  BANK20  BANK21  BANK22  BANK23  BANK24  BANK25
  5999 ;;      Params:         4       0       0       0       0       0       0       0       0       0       0       0       
      +0       0       0       0       0       0       0       0       0       0       0       0       0       0       0
  6000 ;;      Locals:         3       0       0       0       0       0       0       0       0       0       0       0       
      +0       0       0       0       0       0       0       0       0       0       0       0       0       0       0
  6001 ;;      Temps:          1       0       0       0       0       0       0       0       0       0       0       0       
      +0       0       0       0       0       0       0       0       0       0       0       0       0       0       0
  6002 ;;      Totals:         8       0       0       0       0       0       0       0       0       0       0       0       
      +0       0       0       0       0       0       0       0       0       0       0       0       0       0       0
  6003 ;;Total ram usage:        8 bytes
  6004 ;; Hardware stack levels used: 1
  6005 ;; This function calls:
  6006 ;;		Nothing
  6007 ;; This function is called by:
  6008 ;;		_OLED_Printf_Line
  6009 ;; This function uses a non-reentrant model
  6010 ;;
  6011                           
  6012     0DC7                     ___lwdiv:	
  6013                           ;psect for function ___lwdiv
  6014                           
  6015     0DC7                     l2629:	
  6016                           ;incstack = 0
  6017                           ; Regs used in ___lwdiv: [wreg+status,2+status,0]
  6018                           
  6019     0DC7  01F5               	clrf	___lwdiv@quotient
  6020     0DC8  01F6               	clrf	___lwdiv@quotient+1
  6021     0DC9                     l2631:
  6022     0DC9  0870               	movf	___lwdiv@divisor,w
  6023     0DCA  0471               	iorwf	___lwdiv@divisor+1,w
  6024     0DCB  1903               	btfsc	3,2
  6025     0DCC  2DCE               	goto	u2791
  6026     0DCD  2DCF               	goto	u2790
  6027     0DCE                     u2791:
  6028     0DCE  2DFE               	goto	l2651
  6029     0DCF                     u2790:
  6030     0DCF                     l2633:
  6031     0DCF  01F7               	clrf	___lwdiv@counter
  6032     0DD0  0AF7               	incf	___lwdiv@counter,f
  6033     0DD1  2DDB               	goto	l2639
  6034     0DD2                     l2635:
  6035     0DD2  3001               	movlw	1
  6036     0DD3                     u2805:
  6037     0DD3  35F0               	lslf	___lwdiv@divisor,f
  6038     0DD4  0DF1               	rlf	___lwdiv@divisor+1,f
  6039     0DD5  0B89               	decfsz	9,f
  6040     0DD6  2DD3               	goto	u2805
  6041     0DD7                     l2637:
  6042     0DD7  3001               	movlw	1
  6043     0DD8  00F4               	movwf	??___lwdiv
  6044     0DD9  0874               	movf	??___lwdiv,w
  6045     0DDA  07F7               	addwf	___lwdiv@counter,f
  6046     0DDB                     l2639:
  6047     0DDB  1FF1               	btfss	___lwdiv@divisor+1,7
  6048     0DDC  2DDE               	goto	u2811
  6049     0DDD  2DDF               	goto	u2810
  6050     0DDE                     u2811:
  6051     0DDE  2DD2               	goto	l2635
  6052     0DDF                     u2810:
  6053     0DDF                     l2641:
  6054     0DDF  3001               	movlw	1
  6055     0DE0                     u2825:
  6056     0DE0  35F5               	lslf	___lwdiv@quotient,f
  6057     0DE1  0DF6               	rlf	___lwdiv@quotient+1,f
  6058     0DE2  0B89               	decfsz	9,f
  6059     0DE3  2DE0               	goto	u2825
  6060     0DE4  0871               	movf	___lwdiv@divisor+1,w
  6061     0DE5  0273               	subwf	___lwdiv@dividend+1,w
  6062     0DE6  1D03               	skipz
  6063     0DE7  2DEA               	goto	u2835
  6064     0DE8  0870               	movf	___lwdiv@divisor,w
  6065     0DE9  0272               	subwf	___lwdiv@dividend,w
  6066     0DEA                     u2835:
  6067     0DEA  1C03               	skipc
  6068     0DEB  2DED               	goto	u2831
  6069     0DEC  2DEE               	goto	u2830
  6070     0DED                     u2831:
  6071     0DED  2DF3               	goto	l2647
  6072     0DEE                     u2830:
  6073     0DEE                     l2643:
  6074     0DEE  0870               	movf	___lwdiv@divisor,w
  6075     0DEF  02F2               	subwf	___lwdiv@dividend,f
  6076     0DF0  0871               	movf	___lwdiv@divisor+1,w
  6077     0DF1  3BF3               	subwfb	___lwdiv@dividend+1,f
  6078     0DF2                     l2645:
  6079     0DF2  1475               	bsf	___lwdiv@quotient,0
  6080     0DF3                     l2647:
  6081     0DF3  3001               	movlw	1
  6082     0DF4                     u2845:
  6083     0DF4  36F1               	lsrf	___lwdiv@divisor+1,f
  6084     0DF5  0CF0               	rrf	___lwdiv@divisor,f
  6085     0DF6  0B89               	decfsz	9,f
  6086     0DF7  2DF4               	goto	u2845
  6087     0DF8                     l2649:
  6088     0DF8  3001               	movlw	1
  6089     0DF9  02F7               	subwf	___lwdiv@counter,f
  6090     0DFA  1D03               	btfss	3,2
  6091     0DFB  2DFD               	goto	u2851
  6092     0DFC  2DFE               	goto	u2850
  6093     0DFD                     u2851:
  6094     0DFD  2DDF               	goto	l2641
  6095     0DFE                     u2850:
  6096     0DFE                     l2651:
  6097     0DFE  0876               	movf	___lwdiv@quotient+1,w
  6098     0DFF  00F1               	movwf	?___lwdiv+1
  6099     0E00  0875               	movf	___lwdiv@quotient,w
  6100     0E01  00F0               	movwf	?___lwdiv
  6101     0E02                     l769:
  6102     0E02  0008               	return
  6103     0E03                     __end_of___lwdiv:
  6104                           
  6105                           	psect	text11
  6106     0E03                     __ptext11:	
  6107 ;; *************** function ___llmod *****************
  6108 ;; Defined at:
  6109 ;;		line 5 in file "C:\Program Files\Microchip\xc8\v2.46\pic\sources\c99\common\llmod.c"
  6110 ;; Parameters:    Size  Location     Type
  6111 ;;  divisor         4    0[COMMON] unsigned long 
  6112 ;;  dividend        4    4[COMMON] unsigned long 
  6113 ;; Auto vars:     Size  Location     Type
  6114 ;;  counter         1    9[COMMON] unsigned char 
  6115 ;; Return value:  Size  Location     Type
  6116 ;;                  4    0[COMMON] unsigned long 
  6117 ;; Registers used:
  6118 ;;		wreg, status,2, status,0
  6119 ;; Tracked objects:
  6120 ;;		On entry : 0/0
  6121 ;;		On exit  : 0/0
  6122 ;;		Unchanged: 0/0
  6123 ;; Data sizes:     COMMON   BANK0   BANK1   BANK2   BANK3   BANK4   BANK5   BANK6   BANK7   BANK8   BANK9  BANK10  BANK1
      +1  BANK12  BANK13  BANK14  BANK15  BANK16  BANK17  BANK18  BANK19  BANK20  BANK21  BANK22  BANK23  BANK24  BANK25
  6124 ;;      Params:         8       0       0       0       0       0       0       0       0       0       0       0       
      +0       0       0       0       0       0       0       0       0       0       0       0       0       0       0
  6125 ;;      Locals:         1       0       0       0       0       0       0       0       0       0       0       0       
      +0       0       0       0       0       0       0       0       0       0       0       0       0       0       0
  6126 ;;      Temps:          1       0       0       0       0       0       0       0       0       0       0       0       
      +0       0       0       0       0       0       0       0       0       0       0       0       0       0       0
  6127 ;;      Totals:        10       0       0       0       0       0       0       0       0       0       0       0       
      +0       0       0       0       0       0       0       0       0       0       0       0       0       0       0
  6128 ;;Total ram usage:       10 bytes
  6129 ;; Hardware stack levels used: 1
  6130 ;; This function calls:
  6131 ;;		Nothing
  6132 ;; This function is called by:
  6133 ;;		_OLED_Printf_Line
  6134 ;; This function uses a non-reentrant model
  6135 ;;
  6136                           
  6137     0E03                     ___llmod:	
  6138                           ;psect for function ___llmod
  6139                           
  6140     0E03                     l2609:	
  6141                           ;incstack = 0
  6142                           ; Regs used in ___llmod: [wreg+status,2+status,0]
  6143                           
  6144     0E03  0873               	movf	___llmod@divisor+3,w
  6145     0E04  0472               	iorwf	___llmod@divisor+2,w
  6146     0E05  0471               	iorwf	___llmod@divisor+1,w
  6147     0E06  0470               	iorwf	___llmod@divisor,w
  6148     0E07  1903               	skipnz
  6149     0E08  2E0A               	goto	u2731
  6150     0E09  2E0B               	goto	u2730
  6151     0E0A                     u2731:
  6152     0E0A  2E44               	goto	l2625
  6153     0E0B                     u2730:
  6154     0E0B                     l2611:
  6155     0E0B  01F9               	clrf	___llmod@counter
  6156     0E0C  0AF9               	incf	___llmod@counter,f
  6157     0E0D  2E19               	goto	l2615
  6158     0E0E                     l2613:
  6159     0E0E  3001               	movlw	1
  6160     0E0F                     u2745:
  6161     0E0F  35F0               	lslf	___llmod@divisor,f
  6162     0E10  0DF1               	rlf	___llmod@divisor+1,f
  6163     0E11  0DF2               	rlf	___llmod@divisor+2,f
  6164     0E12  0DF3               	rlf	___llmod@divisor+3,f
  6165     0E13  0B89               	decfsz	9,f
  6166     0E14  2E0F               	goto	u2745
  6167     0E15  3001               	movlw	1
  6168     0E16  00F8               	movwf	??___llmod
  6169     0E17  0878               	movf	??___llmod,w
  6170     0E18  07F9               	addwf	___llmod@counter,f
  6171     0E19                     l2615:
  6172     0E19  1FF3               	btfss	___llmod@divisor+3,7
  6173     0E1A  2E1C               	goto	u2751
  6174     0E1B  2E1D               	goto	u2750
  6175     0E1C                     u2751:
  6176     0E1C  2E0E               	goto	l2613
  6177     0E1D                     u2750:
  6178     0E1D                     l2617:
  6179     0E1D  0873               	movf	___llmod@divisor+3,w
  6180     0E1E  0277               	subwf	___llmod@dividend+3,w
  6181     0E1F  1D03               	skipz
  6182     0E20  2E2B               	goto	u2765
  6183     0E21  0872               	movf	___llmod@divisor+2,w
  6184     0E22  0276               	subwf	___llmod@dividend+2,w
  6185     0E23  1D03               	skipz
  6186     0E24  2E2B               	goto	u2765
  6187     0E25  0871               	movf	___llmod@divisor+1,w
  6188     0E26  0275               	subwf	___llmod@dividend+1,w
  6189     0E27  1D03               	skipz
  6190     0E28  2E2B               	goto	u2765
  6191     0E29  0870               	movf	___llmod@divisor,w
  6192     0E2A  0274               	subwf	___llmod@dividend,w
  6193     0E2B                     u2765:
  6194     0E2B  1C03               	skipc
  6195     0E2C  2E2E               	goto	u2761
  6196     0E2D  2E2F               	goto	u2760
  6197     0E2E                     u2761:
  6198     0E2E  2E37               	goto	l2621
  6199     0E2F                     u2760:
  6200     0E2F                     l2619:
  6201     0E2F  0870               	movf	___llmod@divisor,w
  6202     0E30  02F4               	subwf	___llmod@dividend,f
  6203     0E31  0871               	movf	___llmod@divisor+1,w
  6204     0E32  3BF5               	subwfb	___llmod@dividend+1,f
  6205     0E33  0872               	movf	___llmod@divisor+2,w
  6206     0E34  3BF6               	subwfb	___llmod@dividend+2,f
  6207     0E35  0873               	movf	___llmod@divisor+3,w
  6208     0E36  3BF7               	subwfb	___llmod@dividend+3,f
  6209     0E37                     l2621:
  6210     0E37  3001               	movlw	1
  6211     0E38                     u2775:
  6212     0E38  36F3               	lsrf	___llmod@divisor+3,f
  6213     0E39  0CF2               	rrf	___llmod@divisor+2,f
  6214     0E3A  0CF1               	rrf	___llmod@divisor+1,f
  6215     0E3B  0CF0               	rrf	___llmod@divisor,f
  6216     0E3C  0B89               	decfsz	9,f
  6217     0E3D  2E38               	goto	u2775
  6218     0E3E                     l2623:
  6219     0E3E  3001               	movlw	1
  6220     0E3F  02F9               	subwf	___llmod@counter,f
  6221     0E40  1D03               	btfss	3,2
  6222     0E41  2E43               	goto	u2781
  6223     0E42  2E44               	goto	u2780
  6224     0E43                     u2781:
  6225     0E43  2E1D               	goto	l2617
  6226     0E44                     u2780:
  6227     0E44                     l2625:
  6228     0E44  0877               	movf	___llmod@dividend+3,w
  6229     0E45  00F3               	movwf	?___llmod+3
  6230     0E46  0876               	movf	___llmod@dividend+2,w
  6231     0E47  00F2               	movwf	?___llmod+2
  6232     0E48  0875               	movf	___llmod@dividend+1,w
  6233     0E49  00F1               	movwf	?___llmod+1
  6234     0E4A  0874               	movf	___llmod@dividend,w
  6235     0E4B  00F0               	movwf	?___llmod
  6236     0E4C                     l719:
  6237     0E4C  0008               	return
  6238     0E4D                     __end_of___llmod:
  6239                           
  6240                           	psect	text12
  6241     0F3D                     __ptext12:	
  6242 ;; *************** function ___lldiv *****************
  6243 ;; Defined at:
  6244 ;;		line 5 in file "C:\Program Files\Microchip\xc8\v2.46\pic\sources\c99\common\__lldiv.c"
  6245 ;; Parameters:    Size  Location     Type
  6246 ;;  divisor         4    0[COMMON] unsigned long 
  6247 ;;  dividend        4    4[COMMON] unsigned long 
  6248 ;; Auto vars:     Size  Location     Type
  6249 ;;  quotient        4    9[COMMON] unsigned long 
  6250 ;;  counter         1   13[COMMON] unsigned char 
  6251 ;; Return value:  Size  Location     Type
  6252 ;;                  4    0[COMMON] unsigned long 
  6253 ;; Registers used:
  6254 ;;		wreg, status,2, status,0
  6255 ;; Tracked objects:
  6256 ;;		On entry : 0/0
  6257 ;;		On exit  : 0/0
  6258 ;;		Unchanged: 0/0
  6259 ;; Data sizes:     COMMON   BANK0   BANK1   BANK2   BANK3   BANK4   BANK5   BANK6   BANK7   BANK8   BANK9  BANK10  BANK1
      +1  BANK12  BANK13  BANK14  BANK15  BANK16  BANK17  BANK18  BANK19  BANK20  BANK21  BANK22  BANK23  BANK24  BANK25
  6260 ;;      Params:         8       0       0       0       0       0       0       0       0       0       0       0       
      +0       0       0       0       0       0       0       0       0       0       0       0       0       0       0
  6261 ;;      Locals:         5       0       0       0       0       0       0       0       0       0       0       0       
      +0       0       0       0       0       0       0       0       0       0       0       0       0       0       0
  6262 ;;      Temps:          1       0       0       0       0       0       0       0       0       0       0       0       
      +0       0       0       0       0       0       0       0       0       0       0       0       0       0       0
  6263 ;;      Totals:        14       0       0       0       0       0       0       0       0       0       0       0       
      +0       0       0       0       0       0       0       0       0       0       0       0       0       0       0
  6264 ;;Total ram usage:       14 bytes
  6265 ;; Hardware stack levels used: 1
  6266 ;; This function calls:
  6267 ;;		Nothing
  6268 ;; This function is called by:
  6269 ;;		_OLED_Printf_Line
  6270 ;; This function uses a non-reentrant model
  6271 ;;
  6272                           
  6273     0F3D                     ___lldiv:	
  6274                           ;psect for function ___lldiv
  6275                           
  6276     0F3D                     l2431:	
  6277                           ;incstack = 0
  6278                           ; Regs used in ___lldiv: [wreg+status,2+status,0]
  6279                           
  6280     0F3D  3000               	movlw	0
  6281     0F3E  00FC               	movwf	___lldiv@quotient+3
  6282     0F3F  3000               	movlw	0
  6283     0F40  00FB               	movwf	___lldiv@quotient+2
  6284     0F41  3000               	movlw	0
  6285     0F42  00FA               	movwf	___lldiv@quotient+1
  6286     0F43  3000               	movlw	0
  6287     0F44  00F9               	movwf	___lldiv@quotient
  6288     0F45  0873               	movf	___lldiv@divisor+3,w
  6289     0F46  0472               	iorwf	___lldiv@divisor+2,w
  6290     0F47  0471               	iorwf	___lldiv@divisor+1,w
  6291     0F48  0470               	iorwf	___lldiv@divisor,w
  6292     0F49  1903               	skipnz
  6293     0F4A  2F4C               	goto	u2281
  6294     0F4B  2F4D               	goto	u2280
  6295     0F4C                     u2281:
  6296     0F4C  2F8E               	goto	l2451
  6297     0F4D                     u2280:
  6298     0F4D                     l2433:
  6299     0F4D  01FD               	clrf	___lldiv@counter
  6300     0F4E  0AFD               	incf	___lldiv@counter,f
  6301     0F4F  2F5B               	goto	l2437
  6302     0F50                     l2435:
  6303     0F50  3001               	movlw	1
  6304     0F51                     u2295:
  6305     0F51  35F0               	lslf	___lldiv@divisor,f
  6306     0F52  0DF1               	rlf	___lldiv@divisor+1,f
  6307     0F53  0DF2               	rlf	___lldiv@divisor+2,f
  6308     0F54  0DF3               	rlf	___lldiv@divisor+3,f
  6309     0F55  0B89               	decfsz	9,f
  6310     0F56  2F51               	goto	u2295
  6311     0F57  3001               	movlw	1
  6312     0F58  00F8               	movwf	??___lldiv
  6313     0F59  0878               	movf	??___lldiv,w
  6314     0F5A  07FD               	addwf	___lldiv@counter,f
  6315     0F5B                     l2437:
  6316     0F5B  1FF3               	btfss	___lldiv@divisor+3,7
  6317     0F5C  2F5E               	goto	u2301
  6318     0F5D  2F5F               	goto	u2300
  6319     0F5E                     u2301:
  6320     0F5E  2F50               	goto	l2435
  6321     0F5F                     u2300:
  6322     0F5F                     l2439:
  6323     0F5F  3001               	movlw	1
  6324     0F60                     u2315:
  6325     0F60  35F9               	lslf	___lldiv@quotient,f
  6326     0F61  0DFA               	rlf	___lldiv@quotient+1,f
  6327     0F62  0DFB               	rlf	___lldiv@quotient+2,f
  6328     0F63  0DFC               	rlf	___lldiv@quotient+3,f
  6329     0F64  0B89               	decfsz	9,f
  6330     0F65  2F60               	goto	u2315
  6331     0F66                     l2441:
  6332     0F66  0873               	movf	___lldiv@divisor+3,w
  6333     0F67  0277               	subwf	___lldiv@dividend+3,w
  6334     0F68  1D03               	skipz
  6335     0F69  2F74               	goto	u2325
  6336     0F6A  0872               	movf	___lldiv@divisor+2,w
  6337     0F6B  0276               	subwf	___lldiv@dividend+2,w
  6338     0F6C  1D03               	skipz
  6339     0F6D  2F74               	goto	u2325
  6340     0F6E  0871               	movf	___lldiv@divisor+1,w
  6341     0F6F  0275               	subwf	___lldiv@dividend+1,w
  6342     0F70  1D03               	skipz
  6343     0F71  2F74               	goto	u2325
  6344     0F72  0870               	movf	___lldiv@divisor,w
  6345     0F73  0274               	subwf	___lldiv@dividend,w
  6346     0F74                     u2325:
  6347     0F74  1C03               	skipc
  6348     0F75  2F77               	goto	u2321
  6349     0F76  2F78               	goto	u2320
  6350     0F77                     u2321:
  6351     0F77  2F81               	goto	l2447
  6352     0F78                     u2320:
  6353     0F78                     l2443:
  6354     0F78  0870               	movf	___lldiv@divisor,w
  6355     0F79  02F4               	subwf	___lldiv@dividend,f
  6356     0F7A  0871               	movf	___lldiv@divisor+1,w
  6357     0F7B  3BF5               	subwfb	___lldiv@dividend+1,f
  6358     0F7C  0872               	movf	___lldiv@divisor+2,w
  6359     0F7D  3BF6               	subwfb	___lldiv@dividend+2,f
  6360     0F7E  0873               	movf	___lldiv@divisor+3,w
  6361     0F7F  3BF7               	subwfb	___lldiv@dividend+3,f
  6362     0F80                     l2445:
  6363     0F80  1479               	bsf	___lldiv@quotient,0
  6364     0F81                     l2447:
  6365     0F81  3001               	movlw	1
  6366     0F82                     u2335:
  6367     0F82  36F3               	lsrf	___lldiv@divisor+3,f
  6368     0F83  0CF2               	rrf	___lldiv@divisor+2,f
  6369     0F84  0CF1               	rrf	___lldiv@divisor+1,f
  6370     0F85  0CF0               	rrf	___lldiv@divisor,f
  6371     0F86  0B89               	decfsz	9,f
  6372     0F87  2F82               	goto	u2335
  6373     0F88                     l2449:
  6374     0F88  3001               	movlw	1
  6375     0F89  02FD               	subwf	___lldiv@counter,f
  6376     0F8A  1D03               	btfss	3,2
  6377     0F8B  2F8D               	goto	u2341
  6378     0F8C  2F8E               	goto	u2340
  6379     0F8D                     u2341:
  6380     0F8D  2F5F               	goto	l2439
  6381     0F8E                     u2340:
  6382     0F8E                     l2451:
  6383     0F8E  087C               	movf	___lldiv@quotient+3,w
  6384     0F8F  00F3               	movwf	?___lldiv+3
  6385     0F90  087B               	movf	___lldiv@quotient+2,w
  6386     0F91  00F2               	movwf	?___lldiv+2
  6387     0F92  087A               	movf	___lldiv@quotient+1,w
  6388     0F93  00F1               	movwf	?___lldiv+1
  6389     0F94  0879               	movf	___lldiv@quotient,w
  6390     0F95  00F0               	movwf	?___lldiv
  6391     0F96                     l525:
  6392     0F96  0008               	return
  6393     0F97                     __end_of___lldiv:
  6394                           
  6395                           	psect	text13
  6396     0EEA                     __ptext13:	
  6397 ;; *************** function ___awmod *****************
  6398 ;; Defined at:
  6399 ;;		line 5 in file "C:\Program Files\Microchip\xc8\v2.46\pic\sources\c99\common\awmod.c"
  6400 ;; Parameters:    Size  Location     Type
  6401 ;;  divisor         2    0[COMMON] int 
  6402 ;;  dividend        2    2[COMMON] int 
  6403 ;; Auto vars:     Size  Location     Type
  6404 ;;  sign            1    6[COMMON] unsigned char 
  6405 ;;  counter         1    5[COMMON] unsigned char 
  6406 ;; Return value:  Size  Location     Type
  6407 ;;                  2    0[COMMON] int 
  6408 ;; Registers used:
  6409 ;;		wreg, status,2, status,0
  6410 ;; Tracked objects:
  6411 ;;		On entry : 0/0
  6412 ;;		On exit  : 0/0
  6413 ;;		Unchanged: 0/0
  6414 ;; Data sizes:     COMMON   BANK0   BANK1   BANK2   BANK3   BANK4   BANK5   BANK6   BANK7   BANK8   BANK9  BANK10  BANK1
      +1  BANK12  BANK13  BANK14  BANK15  BANK16  BANK17  BANK18  BANK19  BANK20  BANK21  BANK22  BANK23  BANK24  BANK25
  6415 ;;      Params:         4       0       0       0       0       0       0       0       0       0       0       0       
      +0       0       0       0       0       0       0       0       0       0       0       0       0       0       0
  6416 ;;      Locals:         2       0       0       0       0       0       0       0       0       0       0       0       
      +0       0       0       0       0       0       0       0       0       0       0       0       0       0       0
  6417 ;;      Temps:          1       0       0       0       0       0       0       0       0       0       0       0       
      +0       0       0       0       0       0       0       0       0       0       0       0       0       0       0
  6418 ;;      Totals:         7       0       0       0       0       0       0       0       0       0       0       0       
      +0       0       0       0       0       0       0       0       0       0       0       0       0       0       0
  6419 ;;Total ram usage:        7 bytes
  6420 ;; Hardware stack levels used: 1
  6421 ;; This function calls:
  6422 ;;		Nothing
  6423 ;; This function is called by:
  6424 ;;		_OLED_Printf_Line
  6425 ;; This function uses a non-reentrant model
  6426 ;;
  6427                           
  6428     0EEA                     ___awmod:	
  6429                           ;psect for function ___awmod
  6430                           
  6431     0EEA                     l2571:	
  6432                           ;incstack = 0
  6433                           ; Regs used in ___awmod: [wreg+status,2+status,0]
  6434                           
  6435     0EEA  01F6               	clrf	___awmod@sign
  6436     0EEB                     l2573:
  6437     0EEB  1FF3               	btfss	___awmod@dividend+1,7
  6438     0EEC  2EEE               	goto	u2641
  6439     0EED  2EEF               	goto	u2640
  6440     0EEE                     u2641:
  6441     0EEE  2EF6               	goto	l2579
  6442     0EEF                     u2640:
  6443     0EEF                     l2575:
  6444     0EEF  09F2               	comf	___awmod@dividend,f
  6445     0EF0  09F3               	comf	___awmod@dividend+1,f
  6446     0EF1  0AF2               	incf	___awmod@dividend,f
  6447     0EF2  1903               	skipnz
  6448     0EF3  0AF3               	incf	___awmod@dividend+1,f
  6449     0EF4                     l2577:
  6450     0EF4  01F6               	clrf	___awmod@sign
  6451     0EF5  0AF6               	incf	___awmod@sign,f
  6452     0EF6                     l2579:
  6453     0EF6  1FF1               	btfss	___awmod@divisor+1,7
  6454     0EF7  2EF9               	goto	u2651
  6455     0EF8  2EFA               	goto	u2650
  6456     0EF9                     u2651:
  6457     0EF9  2EFF               	goto	l2583
  6458     0EFA                     u2650:
  6459     0EFA                     l2581:
  6460     0EFA  09F0               	comf	___awmod@divisor,f
  6461     0EFB  09F1               	comf	___awmod@divisor+1,f
  6462     0EFC  0AF0               	incf	___awmod@divisor,f
  6463     0EFD  1903               	skipnz
  6464     0EFE  0AF1               	incf	___awmod@divisor+1,f
  6465     0EFF                     l2583:
  6466     0EFF  0870               	movf	___awmod@divisor,w
  6467     0F00  0471               	iorwf	___awmod@divisor+1,w
  6468     0F01  1903               	btfsc	3,2
  6469     0F02  2F04               	goto	u2661
  6470     0F03  2F05               	goto	u2660
  6471     0F04                     u2661:
  6472     0F04  2F2E               	goto	l2601
  6473     0F05                     u2660:
  6474     0F05                     l2585:
  6475     0F05  01F5               	clrf	___awmod@counter
  6476     0F06  0AF5               	incf	___awmod@counter,f
  6477     0F07  2F11               	goto	l2591
  6478     0F08                     l2587:
  6479     0F08  3001               	movlw	1
  6480     0F09                     u2675:
  6481     0F09  35F0               	lslf	___awmod@divisor,f
  6482     0F0A  0DF1               	rlf	___awmod@divisor+1,f
  6483     0F0B  0B89               	decfsz	9,f
  6484     0F0C  2F09               	goto	u2675
  6485     0F0D                     l2589:
  6486     0F0D  3001               	movlw	1
  6487     0F0E  00F4               	movwf	??___awmod
  6488     0F0F  0874               	movf	??___awmod,w
  6489     0F10  07F5               	addwf	___awmod@counter,f
  6490     0F11                     l2591:
  6491     0F11  1FF1               	btfss	___awmod@divisor+1,7
  6492     0F12  2F14               	goto	u2681
  6493     0F13  2F15               	goto	u2680
  6494     0F14                     u2681:
  6495     0F14  2F08               	goto	l2587
  6496     0F15                     u2680:
  6497     0F15                     l2593:
  6498     0F15  0871               	movf	___awmod@divisor+1,w
  6499     0F16  0273               	subwf	___awmod@dividend+1,w
  6500     0F17  1D03               	skipz
  6501     0F18  2F1B               	goto	u2695
  6502     0F19  0870               	movf	___awmod@divisor,w
  6503     0F1A  0272               	subwf	___awmod@dividend,w
  6504     0F1B                     u2695:
  6505     0F1B  1C03               	skipc
  6506     0F1C  2F1E               	goto	u2691
  6507     0F1D  2F1F               	goto	u2690
  6508     0F1E                     u2691:
  6509     0F1E  2F23               	goto	l2597
  6510     0F1F                     u2690:
  6511     0F1F                     l2595:
  6512     0F1F  0870               	movf	___awmod@divisor,w
  6513     0F20  02F2               	subwf	___awmod@dividend,f
  6514     0F21  0871               	movf	___awmod@divisor+1,w
  6515     0F22  3BF3               	subwfb	___awmod@dividend+1,f
  6516     0F23                     l2597:
  6517     0F23  3001               	movlw	1
  6518     0F24                     u2705:
  6519     0F24  36F1               	lsrf	___awmod@divisor+1,f
  6520     0F25  0CF0               	rrf	___awmod@divisor,f
  6521     0F26  0B89               	decfsz	9,f
  6522     0F27  2F24               	goto	u2705
  6523     0F28                     l2599:
  6524     0F28  3001               	movlw	1
  6525     0F29  02F5               	subwf	___awmod@counter,f
  6526     0F2A  1D03               	btfss	3,2
  6527     0F2B  2F2D               	goto	u2711
  6528     0F2C  2F2E               	goto	u2710
  6529     0F2D                     u2711:
  6530     0F2D  2F15               	goto	l2593
  6531     0F2E                     u2710:
  6532     0F2E                     l2601:
  6533     0F2E  0876               	movf	___awmod@sign,w
  6534     0F2F  1903               	btfsc	3,2
  6535     0F30  2F32               	goto	u2721
  6536     0F31  2F33               	goto	u2720
  6537     0F32                     u2721:
  6538     0F32  2F38               	goto	l2605
  6539     0F33                     u2720:
  6540     0F33                     l2603:
  6541     0F33  09F2               	comf	___awmod@dividend,f
  6542     0F34  09F3               	comf	___awmod@dividend+1,f
  6543     0F35  0AF2               	incf	___awmod@dividend,f
  6544     0F36  1903               	skipnz
  6545     0F37  0AF3               	incf	___awmod@dividend+1,f
  6546     0F38                     l2605:
  6547     0F38  0873               	movf	___awmod@dividend+1,w
  6548     0F39  00F1               	movwf	?___awmod+1
  6549     0F3A  0872               	movf	___awmod@dividend,w
  6550     0F3B  00F0               	movwf	?___awmod
  6551     0F3C                     l655:
  6552     0F3C  0008               	return
  6553     0F3D                     __end_of___awmod:
  6554                           
  6555                           	psect	text14
  6556     01C0                     __ptext14:	
  6557 ;; *************** function ___almod *****************
  6558 ;; Defined at:
  6559 ;;		line 5 in file "C:\Program Files\Microchip\xc8\v2.46\pic\sources\c99\common\almod.c"
  6560 ;; Parameters:    Size  Location     Type
  6561 ;;  divisor         4    0[COMMON] long 
  6562 ;;  dividend        4    4[COMMON] long 
  6563 ;; Auto vars:     Size  Location     Type
  6564 ;;  sign            1   10[COMMON] unsigned char 
  6565 ;;  counter         1    9[COMMON] unsigned char 
  6566 ;; Return value:  Size  Location     Type
  6567 ;;                  4    0[COMMON] long 
  6568 ;; Registers used:
  6569 ;;		wreg, status,2, status,0
  6570 ;; Tracked objects:
  6571 ;;		On entry : 0/0
  6572 ;;		On exit  : 0/0
  6573 ;;		Unchanged: 0/0
  6574 ;; Data sizes:     COMMON   BANK0   BANK1   BANK2   BANK3   BANK4   BANK5   BANK6   BANK7   BANK8   BANK9  BANK10  BANK1
      +1  BANK12  BANK13  BANK14  BANK15  BANK16  BANK17  BANK18  BANK19  BANK20  BANK21  BANK22  BANK23  BANK24  BANK25
  6575 ;;      Params:         8       0       0       0       0       0       0       0       0       0       0       0       
      +0       0       0       0       0       0       0       0       0       0       0       0       0       0       0
  6576 ;;      Locals:         2       0       0       0       0       0       0       0       0       0       0       0       
      +0       0       0       0       0       0       0       0       0       0       0       0       0       0       0
  6577 ;;      Temps:          1       0       0       0       0       0       0       0       0       0       0       0       
      +0       0       0       0       0       0       0       0       0       0       0       0       0       0       0
  6578 ;;      Totals:        11       0       0       0       0       0       0       0       0       0       0       0       
      +0       0       0       0       0       0       0       0       0       0       0       0       0       0       0
  6579 ;;Total ram usage:       11 bytes
  6580 ;; Hardware stack levels used: 1
  6581 ;; This function calls:
  6582 ;;		Nothing
  6583 ;; This function is called by:
  6584 ;;		_OLED_Printf_Line
  6585 ;; This function uses a non-reentrant model
  6586 ;;
  6587                           
  6588     01C0                     ___almod:	
  6589                           ;psect for function ___almod
  6590                           
  6591     01C0                     l2495:	
  6592                           ;incstack = 0
  6593                           ; Regs used in ___almod: [wreg+status,2+status,0]
  6594                           
  6595     01C0  01FA               	clrf	___almod@sign
  6596     01C1                     l2497:
  6597     01C1  1FF7               	btfss	___almod@dividend+3,7
  6598     01C2  29C4               	goto	u2451
  6599     01C3  29C5               	goto	u2450
  6600     01C4                     u2451:
  6601     01C4  29D2               	goto	l567
  6602     01C5                     u2450:
  6603     01C5                     l2499:
  6604     01C5  09F4               	comf	___almod@dividend,f
  6605     01C6  09F5               	comf	___almod@dividend+1,f
  6606     01C7  09F6               	comf	___almod@dividend+2,f
  6607     01C8  09F7               	comf	___almod@dividend+3,f
  6608     01C9  0AF4               	incf	___almod@dividend,f
  6609     01CA  1903               	skipnz
  6610     01CB  0AF5               	incf	___almod@dividend+1,f
  6611     01CC  1903               	skipnz
  6612     01CD  0AF6               	incf	___almod@dividend+2,f
  6613     01CE  1903               	skipnz
  6614     01CF  0AF7               	incf	___almod@dividend+3,f
  6615     01D0  01FA               	clrf	___almod@sign
  6616     01D1  0AFA               	incf	___almod@sign,f
  6617     01D2                     l567:
  6618     01D2  1FF3               	btfss	___almod@divisor+3,7
  6619     01D3  29D5               	goto	u2461
  6620     01D4  29D6               	goto	u2460
  6621     01D5                     u2461:
  6622     01D5  29E1               	goto	l2503
  6623     01D6                     u2460:
  6624     01D6                     l2501:
  6625     01D6  09F0               	comf	___almod@divisor,f
  6626     01D7  09F1               	comf	___almod@divisor+1,f
  6627     01D8  09F2               	comf	___almod@divisor+2,f
  6628     01D9  09F3               	comf	___almod@divisor+3,f
  6629     01DA  0AF0               	incf	___almod@divisor,f
  6630     01DB  1903               	skipnz
  6631     01DC  0AF1               	incf	___almod@divisor+1,f
  6632     01DD  1903               	skipnz
  6633     01DE  0AF2               	incf	___almod@divisor+2,f
  6634     01DF  1903               	skipnz
  6635     01E0  0AF3               	incf	___almod@divisor+3,f
  6636     01E1                     l2503:
  6637     01E1  0873               	movf	___almod@divisor+3,w
  6638     01E2  0472               	iorwf	___almod@divisor+2,w
  6639     01E3  0471               	iorwf	___almod@divisor+1,w
  6640     01E4  0470               	iorwf	___almod@divisor,w
  6641     01E5  1903               	skipnz
  6642     01E6  29E8               	goto	u2471
  6643     01E7  29E9               	goto	u2470
  6644     01E8                     u2471:
  6645     01E8  2A22               	goto	l2519
  6646     01E9                     u2470:
  6647     01E9                     l2505:
  6648     01E9  01F9               	clrf	___almod@counter
  6649     01EA  0AF9               	incf	___almod@counter,f
  6650     01EB  29F7               	goto	l2509
  6651     01EC                     l2507:
  6652     01EC  3001               	movlw	1
  6653     01ED                     u2485:
  6654     01ED  35F0               	lslf	___almod@divisor,f
  6655     01EE  0DF1               	rlf	___almod@divisor+1,f
  6656     01EF  0DF2               	rlf	___almod@divisor+2,f
  6657     01F0  0DF3               	rlf	___almod@divisor+3,f
  6658     01F1  0B89               	decfsz	9,f
  6659     01F2  29ED               	goto	u2485
  6660     01F3  3001               	movlw	1
  6661     01F4  00F8               	movwf	??___almod
  6662     01F5  0878               	movf	??___almod,w
  6663     01F6  07F9               	addwf	___almod@counter,f
  6664     01F7                     l2509:
  6665     01F7  1FF3               	btfss	___almod@divisor+3,7
  6666     01F8  29FA               	goto	u2491
  6667     01F9  29FB               	goto	u2490
  6668     01FA                     u2491:
  6669     01FA  29EC               	goto	l2507
  6670     01FB                     u2490:
  6671     01FB                     l2511:
  6672     01FB  0873               	movf	___almod@divisor+3,w
  6673     01FC  0277               	subwf	___almod@dividend+3,w
  6674     01FD  1D03               	skipz
  6675     01FE  2A09               	goto	u2505
  6676     01FF  0872               	movf	___almod@divisor+2,w
  6677     0200  0276               	subwf	___almod@dividend+2,w
  6678     0201  1D03               	skipz
  6679     0202  2A09               	goto	u2505
  6680     0203  0871               	movf	___almod@divisor+1,w
  6681     0204  0275               	subwf	___almod@dividend+1,w
  6682     0205  1D03               	skipz
  6683     0206  2A09               	goto	u2505
  6684     0207  0870               	movf	___almod@divisor,w
  6685     0208  0274               	subwf	___almod@dividend,w
  6686     0209                     u2505:
  6687     0209  1C03               	skipc
  6688     020A  2A0C               	goto	u2501
  6689     020B  2A0D               	goto	u2500
  6690     020C                     u2501:
  6691     020C  2A15               	goto	l2515
  6692     020D                     u2500:
  6693     020D                     l2513:
  6694     020D  0870               	movf	___almod@divisor,w
  6695     020E  02F4               	subwf	___almod@dividend,f
  6696     020F  0871               	movf	___almod@divisor+1,w
  6697     0210  3BF5               	subwfb	___almod@dividend+1,f
  6698     0211  0872               	movf	___almod@divisor+2,w
  6699     0212  3BF6               	subwfb	___almod@dividend+2,f
  6700     0213  0873               	movf	___almod@divisor+3,w
  6701     0214  3BF7               	subwfb	___almod@dividend+3,f
  6702     0215                     l2515:
  6703     0215  3001               	movlw	1
  6704     0216                     u2515:
  6705     0216  36F3               	lsrf	___almod@divisor+3,f
  6706     0217  0CF2               	rrf	___almod@divisor+2,f
  6707     0218  0CF1               	rrf	___almod@divisor+1,f
  6708     0219  0CF0               	rrf	___almod@divisor,f
  6709     021A  0B89               	decfsz	9,f
  6710     021B  2A16               	goto	u2515
  6711     021C                     l2517:
  6712     021C  3001               	movlw	1
  6713     021D  02F9               	subwf	___almod@counter,f
  6714     021E  1D03               	btfss	3,2
  6715     021F  2A21               	goto	u2521
  6716     0220  2A22               	goto	u2520
  6717     0221                     u2521:
  6718     0221  29FB               	goto	l2511
  6719     0222                     u2520:
  6720     0222                     l2519:
  6721     0222  087A               	movf	___almod@sign,w
  6722     0223  1903               	btfsc	3,2
  6723     0224  2A26               	goto	u2531
  6724     0225  2A27               	goto	u2530
  6725     0226                     u2531:
  6726     0226  2A32               	goto	l2523
  6727     0227                     u2530:
  6728     0227                     l2521:
  6729     0227  09F4               	comf	___almod@dividend,f
  6730     0228  09F5               	comf	___almod@dividend+1,f
  6731     0229  09F6               	comf	___almod@dividend+2,f
  6732     022A  09F7               	comf	___almod@dividend+3,f
  6733     022B  0AF4               	incf	___almod@dividend,f
  6734     022C  1903               	skipnz
  6735     022D  0AF5               	incf	___almod@dividend+1,f
  6736     022E  1903               	skipnz
  6737     022F  0AF6               	incf	___almod@dividend+2,f
  6738     0230  1903               	skipnz
  6739     0231  0AF7               	incf	___almod@dividend+3,f
  6740     0232                     l2523:
  6741     0232  0877               	movf	___almod@dividend+3,w
  6742     0233  00F3               	movwf	?___almod+3
  6743     0234  0876               	movf	___almod@dividend+2,w
  6744     0235  00F2               	movwf	?___almod+2
  6745     0236  0875               	movf	___almod@dividend+1,w
  6746     0237  00F1               	movwf	?___almod+1
  6747     0238  0874               	movf	___almod@dividend,w
  6748     0239  00F0               	movwf	?___almod
  6749     023A                     l577:
  6750     023A  0008               	return
  6751     023B                     __end_of___almod:
  6752                           
  6753                           	psect	text15
  6754     023B                     __ptext15:	
  6755 ;; *************** function ___aldiv *****************
  6756 ;; Defined at:
  6757 ;;		line 5 in file "C:\Program Files\Microchip\xc8\v2.46\pic\sources\c99\common\aldiv.c"
  6758 ;; Parameters:    Size  Location     Type
  6759 ;;  divisor         4    0[COMMON] long 
  6760 ;;  dividend        4    4[COMMON] long 
  6761 ;; Auto vars:     Size  Location     Type
  6762 ;;  quotient        4    2[BANK0 ] long 
  6763 ;;  sign            1    1[BANK0 ] unsigned char 
  6764 ;;  counter         1    0[BANK0 ] unsigned char 
  6765 ;; Return value:  Size  Location     Type
  6766 ;;                  4    0[COMMON] long 
  6767 ;; Registers used:
  6768 ;;		wreg, status,2, status,0
  6769 ;; Tracked objects:
  6770 ;;		On entry : 0/0
  6771 ;;		On exit  : 0/0
  6772 ;;		Unchanged: 0/0
  6773 ;; Data sizes:     COMMON   BANK0   BANK1   BANK2   BANK3   BANK4   BANK5   BANK6   BANK7   BANK8   BANK9  BANK10  BANK1
      +1  BANK12  BANK13  BANK14  BANK15  BANK16  BANK17  BANK18  BANK19  BANK20  BANK21  BANK22  BANK23  BANK24  BANK25
  6774 ;;      Params:         8       0       0       0       0       0       0       0       0       0       0       0       
      +0       0       0       0       0       0       0       0       0       0       0       0       0       0       0
  6775 ;;      Locals:         0       6       0       0       0       0       0       0       0       0       0       0       
      +0       0       0       0       0       0       0       0       0       0       0       0       0       0       0
  6776 ;;      Temps:          1       0       0       0       0       0       0       0       0       0       0       0       
      +0       0       0       0       0       0       0       0       0       0       0       0       0       0       0
  6777 ;;      Totals:         9       6       0       0       0       0       0       0       0       0       0       0       
      +0       0       0       0       0       0       0       0       0       0       0       0       0       0       0
  6778 ;;Total ram usage:       15 bytes
  6779 ;; Hardware stack levels used: 1
  6780 ;; This function calls:
  6781 ;;		Nothing
  6782 ;; This function is called by:
  6783 ;;		_OLED_Printf_Line
  6784 ;; This function uses a non-reentrant model
  6785 ;;
  6786                           
  6787     023B                     ___aldiv:	
  6788                           ;psect for function ___aldiv
  6789                           
  6790     023B                     l2455:	
  6791                           ;incstack = 0
  6792                           ; Regs used in ___aldiv: [wreg+status,2+status,0]
  6793                           
  6794     023B  0020               	movlb	0	; select bank0
  6795     023C  01A1               	clrf	___aldiv@sign
  6796     023D                     l2457:
  6797     023D  1FF3               	btfss	___aldiv@divisor+3,7
  6798     023E  2A40               	goto	u2351
  6799     023F  2A41               	goto	u2350
  6800     0240                     u2351:
  6801     0240  2A4E               	goto	l554
  6802     0241                     u2350:
  6803     0241                     l2459:
  6804     0241  09F0               	comf	___aldiv@divisor,f
  6805     0242  09F1               	comf	___aldiv@divisor+1,f
  6806     0243  09F2               	comf	___aldiv@divisor+2,f
  6807     0244  09F3               	comf	___aldiv@divisor+3,f
  6808     0245  0AF0               	incf	___aldiv@divisor,f
  6809     0246  1903               	skipnz
  6810     0247  0AF1               	incf	___aldiv@divisor+1,f
  6811     0248  1903               	skipnz
  6812     0249  0AF2               	incf	___aldiv@divisor+2,f
  6813     024A  1903               	skipnz
  6814     024B  0AF3               	incf	___aldiv@divisor+3,f
  6815     024C  01A1               	clrf	___aldiv@sign
  6816     024D  0AA1               	incf	___aldiv@sign,f
  6817     024E                     l554:
  6818     024E  1FF7               	btfss	___aldiv@dividend+3,7
  6819     024F  2A51               	goto	u2361
  6820     0250  2A52               	goto	u2360
  6821     0251                     u2361:
  6822     0251  2A61               	goto	l2465
  6823     0252                     u2360:
  6824     0252                     l2461:
  6825     0252  09F4               	comf	___aldiv@dividend,f
  6826     0253  09F5               	comf	___aldiv@dividend+1,f
  6827     0254  09F6               	comf	___aldiv@dividend+2,f
  6828     0255  09F7               	comf	___aldiv@dividend+3,f
  6829     0256  0AF4               	incf	___aldiv@dividend,f
  6830     0257  1903               	skipnz
  6831     0258  0AF5               	incf	___aldiv@dividend+1,f
  6832     0259  1903               	skipnz
  6833     025A  0AF6               	incf	___aldiv@dividend+2,f
  6834     025B  1903               	skipnz
  6835     025C  0AF7               	incf	___aldiv@dividend+3,f
  6836     025D                     l2463:
  6837     025D  3001               	movlw	1
  6838     025E  00F8               	movwf	??___aldiv
  6839     025F  0878               	movf	??___aldiv,w
  6840     0260  06A1               	xorwf	___aldiv@sign,f
  6841     0261                     l2465:
  6842     0261  3000               	movlw	0
  6843     0262  00A5               	movwf	___aldiv@quotient+3
  6844     0263  3000               	movlw	0
  6845     0264  00A4               	movwf	___aldiv@quotient+2
  6846     0265  3000               	movlw	0
  6847     0266  00A3               	movwf	___aldiv@quotient+1
  6848     0267  3000               	movlw	0
  6849     0268  00A2               	movwf	___aldiv@quotient
  6850     0269                     l2467:
  6851     0269  0873               	movf	___aldiv@divisor+3,w
  6852     026A  0472               	iorwf	___aldiv@divisor+2,w
  6853     026B  0471               	iorwf	___aldiv@divisor+1,w
  6854     026C  0470               	iorwf	___aldiv@divisor,w
  6855     026D  1903               	skipnz
  6856     026E  2A70               	goto	u2371
  6857     026F  2A71               	goto	u2370
  6858     0270                     u2371:
  6859     0270  2AB2               	goto	l2487
  6860     0271                     u2370:
  6861     0271                     l2469:
  6862     0271  01A0               	clrf	___aldiv@counter
  6863     0272  0AA0               	incf	___aldiv@counter,f
  6864     0273  2A7F               	goto	l2473
  6865     0274                     l2471:
  6866     0274  3001               	movlw	1
  6867     0275                     u2385:
  6868     0275  35F0               	lslf	___aldiv@divisor,f
  6869     0276  0DF1               	rlf	___aldiv@divisor+1,f
  6870     0277  0DF2               	rlf	___aldiv@divisor+2,f
  6871     0278  0DF3               	rlf	___aldiv@divisor+3,f
  6872     0279  0B89               	decfsz	9,f
  6873     027A  2A75               	goto	u2385
  6874     027B  3001               	movlw	1
  6875     027C  00F8               	movwf	??___aldiv
  6876     027D  0878               	movf	??___aldiv,w
  6877     027E  07A0               	addwf	___aldiv@counter,f
  6878     027F                     l2473:
  6879     027F  1FF3               	btfss	___aldiv@divisor+3,7
  6880     0280  2A82               	goto	u2391
  6881     0281  2A83               	goto	u2390
  6882     0282                     u2391:
  6883     0282  2A74               	goto	l2471
  6884     0283                     u2390:
  6885     0283                     l2475:
  6886     0283  3001               	movlw	1
  6887     0284                     u2405:
  6888     0284  35A2               	lslf	___aldiv@quotient,f
  6889     0285  0DA3               	rlf	___aldiv@quotient+1,f
  6890     0286  0DA4               	rlf	___aldiv@quotient+2,f
  6891     0287  0DA5               	rlf	___aldiv@quotient+3,f
  6892     0288  0B89               	decfsz	9,f
  6893     0289  2A84               	goto	u2405
  6894     028A                     l2477:
  6895     028A  0873               	movf	___aldiv@divisor+3,w
  6896     028B  0277               	subwf	___aldiv@dividend+3,w
  6897     028C  1D03               	skipz
  6898     028D  2A98               	goto	u2415
  6899     028E  0872               	movf	___aldiv@divisor+2,w
  6900     028F  0276               	subwf	___aldiv@dividend+2,w
  6901     0290  1D03               	skipz
  6902     0291  2A98               	goto	u2415
  6903     0292  0871               	movf	___aldiv@divisor+1,w
  6904     0293  0275               	subwf	___aldiv@dividend+1,w
  6905     0294  1D03               	skipz
  6906     0295  2A98               	goto	u2415
  6907     0296  0870               	movf	___aldiv@divisor,w
  6908     0297  0274               	subwf	___aldiv@dividend,w
  6909     0298                     u2415:
  6910     0298  1C03               	skipc
  6911     0299  2A9B               	goto	u2411
  6912     029A  2A9C               	goto	u2410
  6913     029B                     u2411:
  6914     029B  2AA5               	goto	l2483
  6915     029C                     u2410:
  6916     029C                     l2479:
  6917     029C  0870               	movf	___aldiv@divisor,w
  6918     029D  02F4               	subwf	___aldiv@dividend,f
  6919     029E  0871               	movf	___aldiv@divisor+1,w
  6920     029F  3BF5               	subwfb	___aldiv@dividend+1,f
  6921     02A0  0872               	movf	___aldiv@divisor+2,w
  6922     02A1  3BF6               	subwfb	___aldiv@dividend+2,f
  6923     02A2  0873               	movf	___aldiv@divisor+3,w
  6924     02A3  3BF7               	subwfb	___aldiv@dividend+3,f
  6925     02A4                     l2481:
  6926     02A4  1422               	bsf	___aldiv@quotient,0
  6927     02A5                     l2483:
  6928     02A5  3001               	movlw	1
  6929     02A6                     u2425:
  6930     02A6  36F3               	lsrf	___aldiv@divisor+3,f
  6931     02A7  0CF2               	rrf	___aldiv@divisor+2,f
  6932     02A8  0CF1               	rrf	___aldiv@divisor+1,f
  6933     02A9  0CF0               	rrf	___aldiv@divisor,f
  6934     02AA  0B89               	decfsz	9,f
  6935     02AB  2AA6               	goto	u2425
  6936     02AC                     l2485:
  6937     02AC  3001               	movlw	1
  6938     02AD  02A0               	subwf	___aldiv@counter,f
  6939     02AE  1D03               	btfss	3,2
  6940     02AF  2AB1               	goto	u2431
  6941     02B0  2AB2               	goto	u2430
  6942     02B1                     u2431:
  6943     02B1  2A83               	goto	l2475
  6944     02B2                     u2430:
  6945     02B2                     l2487:
  6946     02B2  0821               	movf	___aldiv@sign,w
  6947     02B3  1903               	btfsc	3,2
  6948     02B4  2AB6               	goto	u2441
  6949     02B5  2AB7               	goto	u2440
  6950     02B6                     u2441:
  6951     02B6  2AC2               	goto	l2491
  6952     02B7                     u2440:
  6953     02B7                     l2489:
  6954     02B7  09A2               	comf	___aldiv@quotient,f
  6955     02B8  09A3               	comf	___aldiv@quotient+1,f
  6956     02B9  09A4               	comf	___aldiv@quotient+2,f
  6957     02BA  09A5               	comf	___aldiv@quotient+3,f
  6958     02BB  0AA2               	incf	___aldiv@quotient,f
  6959     02BC  1903               	skipnz
  6960     02BD  0AA3               	incf	___aldiv@quotient+1,f
  6961     02BE  1903               	skipnz
  6962     02BF  0AA4               	incf	___aldiv@quotient+2,f
  6963     02C0  1903               	skipnz
  6964     02C1  0AA5               	incf	___aldiv@quotient+3,f
  6965     02C2                     l2491:
  6966     02C2  0825               	movf	___aldiv@quotient+3,w
  6967     02C3  00F3               	movwf	?___aldiv+3
  6968     02C4  0824               	movf	___aldiv@quotient+2,w
  6969     02C5  00F2               	movwf	?___aldiv+2
  6970     02C6  0823               	movf	___aldiv@quotient+1,w
  6971     02C7  00F1               	movwf	?___aldiv+1
  6972     02C8  0822               	movf	___aldiv@quotient,w
  6973     02C9  00F0               	movwf	?___aldiv
  6974     02CA                     l564:
  6975     02CA  0008               	return
  6976     02CB                     __end_of___aldiv:
  6977                           
  6978                           	psect	text16
  6979     0C78                     __ptext16:	
  6980 ;; *************** function _OLED_UpdateLine *****************
  6981 ;; Defined at:
  6982 ;;		line 372 in file "OLED_SSD1306.c"
  6983 ;; Parameters:    Size  Location     Type
  6984 ;;  page            1    wreg     unsigned char 
  6985 ;; Auto vars:     Size  Location     Type
  6986 ;;  page            1   12[COMMON] unsigned char 
  6987 ;; Return value:  Size  Location     Type
  6988 ;;                  1    wreg      void 
  6989 ;; Registers used:
  6990 ;;		wreg, fsr0l, fsr0h, status,2, status,0, pclath, cstack
  6991 ;; Tracked objects:
  6992 ;;		On entry : 0/0
  6993 ;;		On exit  : 0/0
  6994 ;;		Unchanged: 0/0
  6995 ;; Data sizes:     COMMON   BANK0   BANK1   BANK2   BANK3   BANK4   BANK5   BANK6   BANK7   BANK8   BANK9  BANK10  BANK1
      +1  BANK12  BANK13  BANK14  BANK15  BANK16  BANK17  BANK18  BANK19  BANK20  BANK21  BANK22  BANK23  BANK24  BANK25
  6996 ;;      Params:         0       0       0       0       0       0       0       0       0       0       0       0       
      +0       0       0       0       0       0       0       0       0       0       0       0       0       0       0
  6997 ;;      Locals:         1       0       0       0       0       0       0       0       0       0       0       0       
      +0       0       0       0       0       0       0       0       0       0       0       0       0       0       0
  6998 ;;      Temps:          0       6       0       0       0       0       0       0       0       0       0       0       
      +0       0       0       0       0       0       0       0       0       0       0       0       0       0       0
  6999 ;;      Totals:         1       6       0       0       0       0       0       0       0       0       0       0       
      +0       0       0       0       0       0       0       0       0       0       0       0       0       0       0
  7000 ;;Total ram usage:        7 bytes
  7001 ;; Hardware stack levels used: 1
  7002 ;; Hardware stack levels required when called: 4
  7003 ;; This function calls:
  7004 ;;		_OLED_WriteData
  7005 ;;		_OLED_YX
  7006 ;; This function is called by:
  7007 ;;		_OLED_Printf_Line
  7008 ;; This function uses a non-reentrant model
  7009 ;;
  7010                           
  7011     0C78                     _OLED_UpdateLine:	
  7012                           ;psect for function _OLED_UpdateLine
  7013                           
  7014                           
  7015                           ;incstack = 0
  7016                           ; Regs used in _OLED_UpdateLine: [wreg-fsr0h+status,2+status,0+pclath+cstack]
  7017                           ;OLED_UpdateLine@page stored from wreg
  7018     0C78  00FC               	movwf	OLED_UpdateLine@page
  7019     0C79                     l2381:
  7020                           
  7021                           ;OLED_SSD1306.c: 372: void OLED_UpdateLine(uint8_t page);OLED_SSD1306.c: 373: {;OLED_SSD
      +                          1306.c: 374:     if (page >= (32 / 8)) return;
  7022     0C79  3004               	movlw	4
  7023     0C7A  027C               	subwf	OLED_UpdateLine@page,w
  7024     0C7B  1C03               	skipc
  7025     0C7C  2C7E               	goto	u2201
  7026     0C7D  2C7F               	goto	u2200
  7027     0C7E                     u2201:
  7028     0C7E  2C80               	goto	l2385
  7029     0C7F                     u2200:
  7030     0C7F  2CA3               	goto	l143
  7031     0C80                     l2385:
  7032                           
  7033                           ;OLED_SSD1306.c: 376:     OLED_YX(page, 0);
  7034     0C80  01F7               	clrf	OLED_YX@col_char
  7035     0C81  087C               	movf	OLED_UpdateLine@page,w
  7036     0C82  318B  234E  318C   	fcall	_OLED_YX
  7037     0C85                     l2387:
  7038                           
  7039                           ;OLED_SSD1306.c: 377:     (void)OLED_WriteData(screen_buffer[page], 128);
  7040     0C85  087C               	movf	OLED_UpdateLine@page,w
  7041     0C86  0020               	movlb	0	; select bank0
  7042     0C87  00A0               	movwf	??_OLED_UpdateLine
  7043     0C88  01A1               	clrf	??_OLED_UpdateLine+1
  7044     0C89  3007               	movlw	7
  7045     0C8A                     u2215:
  7046     0C8A  35A0               	lslf	??_OLED_UpdateLine,f
  7047     0C8B  0DA1               	rlf	??_OLED_UpdateLine+1,f
  7048     0C8C  0B89               	decfsz	9,f
  7049     0C8D  2C8A               	goto	u2215
  7050     0C8E  30F0               	movlw	240
  7051     0C8F  00A2               	movwf	??_OLED_UpdateLine+2
  7052     0C90  3024               	movlw	36
  7053     0C91  00A3               	movwf	??_OLED_UpdateLine+3
  7054     0C92  0820               	movf	??_OLED_UpdateLine,w
  7055     0C93  0722               	addwf	??_OLED_UpdateLine+2,w
  7056     0C94  00A4               	movwf	??_OLED_UpdateLine+4
  7057     0C95  0821               	movf	??_OLED_UpdateLine+1,w
  7058     0C96  3D23               	addwfc	??_OLED_UpdateLine+3,w
  7059     0C97  00A5               	movwf	??_OLED_UpdateLine+5
  7060     0C98  0824               	movf	??_OLED_UpdateLine+4,w
  7061     0C99  00F5               	movwf	OLED_WriteData@data
  7062     0C9A  0825               	movf	??_OLED_UpdateLine+5,w
  7063     0C9B  00F6               	movwf	OLED_WriteData@data+1
  7064     0C9C  3080               	movlw	128
  7065     0C9D  00F7               	movwf	OLED_WriteData@len
  7066     0C9E  3000               	movlw	0
  7067     0C9F  00F8               	movwf	OLED_WriteData@len+1
  7068     0CA0  318E  269A  318C   	fcall	_OLED_WriteData
  7069     0CA3                     l143:
  7070     0CA3  0008               	return
  7071     0CA4                     __end_of_OLED_UpdateLine:
  7072                           
  7073                           	psect	text17
  7074     014C                     __ptext17:	
  7075 ;; *************** function _RTC_ReadBurst *****************
  7076 ;; Defined at:
  7077 ;;		line 44 in file "main.c"
  7078 ;; Parameters:    Size  Location     Type
  7079 ;;  t               1    wreg     PTR struct .
  7080 ;;		 -> main@now(7), 
  7081 ;; Auto vars:     Size  Location     Type
  7082 ;;  t               1    7[BANK0 ] PTR struct .
  7083 ;;		 -> main@now(7), 
  7084 ;;  yr1             1    6[BANK0 ] unsigned char 
  7085 ;;  dy1             1    5[BANK0 ] unsigned char 
  7086 ;;  mn1             1    4[BANK0 ] unsigned char 
  7087 ;;  date1           1    3[BANK0 ] unsigned char 
  7088 ;;  hr1             1    2[BANK0 ] unsigned char 
  7089 ;;  min1            1    1[BANK0 ] unsigned char 
  7090 ;;  sec1            1    0[BANK0 ] unsigned char 
  7091 ;; Return value:  Size  Location     Type
  7092 ;;                  1    wreg      void 
  7093 ;; Registers used:
  7094 ;;		wreg, fsr1l, fsr1h, status,2, status,0, pclath, cstack
  7095 ;; Tracked objects:
  7096 ;;		On entry : 0/0
  7097 ;;		On exit  : 0/0
  7098 ;;		Unchanged: 0/0
  7099 ;; Data sizes:     COMMON   BANK0   BANK1   BANK2   BANK3   BANK4   BANK5   BANK6   BANK7   BANK8   BANK9  BANK10  BANK1
      +1  BANK12  BANK13  BANK14  BANK15  BANK16  BANK17  BANK18  BANK19  BANK20  BANK21  BANK22  BANK23  BANK24  BANK25
  7100 ;;      Params:         0       0       0       0       0       0       0       0       0       0       0       0       
      +0       0       0       0       0       0       0       0       0       0       0       0       0       0       0
  7101 ;;      Locals:         0       8       0       0       0       0       0       0       0       0       0       0       
      +0       0       0       0       0       0       0       0       0       0       0       0       0       0       0
  7102 ;;      Temps:          0       0       0       0       0       0       0       0       0       0       0       0       
      +0       0       0       0       0       0       0       0       0       0       0       0       0       0       0
  7103 ;;      Totals:         0       8       0       0       0       0       0       0       0       0       0       0       
      +0       0       0       0       0       0       0       0       0       0       0       0       0       0       0
  7104 ;;Total ram usage:        8 bytes
  7105 ;; Hardware stack levels used: 1
  7106 ;; Hardware stack levels required when called: 2
  7107 ;; This function calls:
  7108 ;;		_DS1302_ReadByte
  7109 ;;		_DS1302_Reset
  7110 ;;		_DS1302_WriteByte
  7111 ;;		_get_dec
  7112 ;; This function is called by:
  7113 ;;		_main
  7114 ;; This function uses a non-reentrant model
  7115 ;;
  7116                           
  7117     014C                     _RTC_ReadBurst:	
  7118                           ;psect for function _RTC_ReadBurst
  7119                           
  7120                           
  7121                           ;incstack = 0
  7122                           ; Regs used in _RTC_ReadBurst: [wreg+fsr1l+fsr1h+status,2+status,0+pclath+cstack]
  7123                           ;RTC_ReadBurst@t stored from wreg
  7124     014C  0020               	movlb	0	; select bank0
  7125     014D  00A7               	movwf	RTC_ReadBurst@t
  7126     014E                     l3191:
  7127                           
  7128                           ;main.c: 44: static void RTC_ReadBurst(rtc_time_t* t);main.c: 45: {;main.c: 47:     uint
      +                          8_t sec1, min1, hr1, date1, mn1, dy1, yr1;;main.c: 49:     DS1302_Reset();
  7129     014E  3197  276C  3181   	fcall	_DS1302_Reset
  7130     0151                     l3193:
  7131                           
  7132                           ;main.c: 50:     DS1302_WriteByte(0xBF);
  7133     0151  30BF               	movlw	191
  7134     0152  3197  27CB  3181   	fcall	_DS1302_WriteByte
  7135     0155                     l3195:
  7136                           
  7137                           ;main.c: 52:     sec1 = DS1302_ReadByte();
  7138     0155  318B  23FF  3181   	fcall	_DS1302_ReadByte
  7139     0158  0020               	movlb	0	; select bank0
  7140     0159  00A0               	movwf	RTC_ReadBurst@sec1
  7141     015A                     l3197:
  7142                           
  7143                           ;main.c: 53:     min1 = DS1302_ReadByte();
  7144     015A  318B  23FF  3181   	fcall	_DS1302_ReadByte
  7145     015D  0020               	movlb	0	; select bank0
  7146     015E  00A1               	movwf	RTC_ReadBurst@min1
  7147     015F                     l3199:
  7148                           
  7149                           ;main.c: 54:     hr1 = DS1302_ReadByte();
  7150     015F  318B  23FF  3181   	fcall	_DS1302_ReadByte
  7151     0162  0020               	movlb	0	; select bank0
  7152     0163  00A2               	movwf	RTC_ReadBurst@hr1
  7153     0164                     l3201:
  7154                           
  7155                           ;main.c: 55:     date1 = DS1302_ReadByte();
  7156     0164  318B  23FF  3181   	fcall	_DS1302_ReadByte
  7157     0167  0020               	movlb	0	; select bank0
  7158     0168  00A3               	movwf	RTC_ReadBurst@date1
  7159     0169                     l3203:
  7160                           
  7161                           ;main.c: 56:     mn1 = DS1302_ReadByte();
  7162     0169  318B  23FF  3181   	fcall	_DS1302_ReadByte
  7163     016C  0020               	movlb	0	; select bank0
  7164     016D  00A4               	movwf	RTC_ReadBurst@mn1
  7165     016E                     l3205:
  7166                           
  7167                           ;main.c: 57:     dy1 = DS1302_ReadByte();
  7168     016E  318B  23FF  3181   	fcall	_DS1302_ReadByte
  7169     0171  0020               	movlb	0	; select bank0
  7170     0172  00A5               	movwf	RTC_ReadBurst@dy1
  7171     0173                     l3207:
  7172                           
  7173                           ;main.c: 58:     yr1 = DS1302_ReadByte();
  7174     0173  318B  23FF  3181   	fcall	_DS1302_ReadByte
  7175     0176  0020               	movlb	0	; select bank0
  7176     0177  00A6               	movwf	RTC_ReadBurst@yr1
  7177                           
  7178                           ;main.c: 60:     DS1302_Reset();
  7179     0178  3197  276C  3181   	fcall	_DS1302_Reset
  7180     017B                     l3209:
  7181                           
  7182                           ;main.c: 63:     t->sec = get_dec(sec1);
  7183     017B  0020               	movlb	0	; select bank0
  7184     017C  0827               	movf	RTC_ReadBurst@t,w
  7185     017D  0086               	movwf	6
  7186     017E  0187               	clrf	7
  7187     017F  0820               	movf	RTC_ReadBurst@sec1,w
  7188     0180  3197  27B6  3181   	fcall	_get_dec
  7189     0183  0081               	movwf	1
  7190     0184                     l3211:
  7191                           
  7192                           ;main.c: 64:     t->min = get_dec(min1);
  7193     0184  0020               	movlb	0	; select bank0
  7194     0185  0A27               	incf	RTC_ReadBurst@t,w
  7195     0186  0086               	movwf	6
  7196     0187  0187               	clrf	7
  7197     0188  0821               	movf	RTC_ReadBurst@min1,w
  7198     0189  3197  27B6  3181   	fcall	_get_dec
  7199     018C  0081               	movwf	1
  7200     018D                     l3213:
  7201                           
  7202                           ;main.c: 65:     t->hr = get_dec(hr1);
  7203     018D  0020               	movlb	0	; select bank0
  7204     018E  0827               	movf	RTC_ReadBurst@t,w
  7205     018F  3E02               	addlw	2
  7206     0190  0086               	movwf	6
  7207     0191  0187               	clrf	7
  7208     0192  0822               	movf	RTC_ReadBurst@hr1,w
  7209     0193  3197  27B6  3181   	fcall	_get_dec
  7210     0196  0081               	movwf	1
  7211     0197                     l3215:
  7212                           
  7213                           ;main.c: 66:     t->date = get_dec(date1);
  7214     0197  0020               	movlb	0	; select bank0
  7215     0198  0827               	movf	RTC_ReadBurst@t,w
  7216     0199  3E04               	addlw	4
  7217     019A  0086               	movwf	6
  7218     019B  0187               	clrf	7
  7219     019C  0823               	movf	RTC_ReadBurst@date1,w
  7220     019D  3197  27B6  3181   	fcall	_get_dec
  7221     01A0  0081               	movwf	1
  7222     01A1                     l3217:
  7223                           
  7224                           ;main.c: 67:     t->month = get_dec(mn1);
  7225     01A1  0020               	movlb	0	; select bank0
  7226     01A2  0827               	movf	RTC_ReadBurst@t,w
  7227     01A3  3E05               	addlw	5
  7228     01A4  0086               	movwf	6
  7229     01A5  0187               	clrf	7
  7230     01A6  0824               	movf	RTC_ReadBurst@mn1,w
  7231     01A7  3197  27B6  3181   	fcall	_get_dec
  7232     01AA  0081               	movwf	1
  7233     01AB                     l3219:
  7234                           
  7235                           ;main.c: 68:     t->day = get_dec(dy1);
  7236     01AB  0020               	movlb	0	; select bank0
  7237     01AC  0827               	movf	RTC_ReadBurst@t,w
  7238     01AD  3E03               	addlw	3
  7239     01AE  0086               	movwf	6
  7240     01AF  0187               	clrf	7
  7241     01B0  0825               	movf	RTC_ReadBurst@dy1,w
  7242     01B1  3197  27B6  3181   	fcall	_get_dec
  7243     01B4  0081               	movwf	1
  7244     01B5                     l3221:
  7245                           
  7246                           ;main.c: 69:     t->year = get_dec(yr1);
  7247     01B5  0020               	movlb	0	; select bank0
  7248     01B6  0827               	movf	RTC_ReadBurst@t,w
  7249     01B7  3E06               	addlw	6
  7250     01B8  0086               	movwf	6
  7251     01B9  0187               	clrf	7
  7252     01BA  0826               	movf	RTC_ReadBurst@yr1,w
  7253     01BB  3197  27B6  3181   	fcall	_get_dec
  7254     01BE  0081               	movwf	1
  7255     01BF                     l372:
  7256     01BF  0008               	return
  7257     01C0                     __end_of_RTC_ReadBurst:
  7258                           
  7259                           	psect	text18
  7260     17B6                     __ptext18:	
  7261 ;; *************** function _get_dec *****************
  7262 ;; Defined at:
  7263 ;;		line 159 in file "ds1302.c"
  7264 ;; Parameters:    Size  Location     Type
  7265 ;;  var             1    wreg     unsigned char 
  7266 ;; Auto vars:     Size  Location     Type
  7267 ;;  var             1    6[COMMON] unsigned char 
  7268 ;;  var2            1    5[COMMON] unsigned char 
  7269 ;; Return value:  Size  Location     Type
  7270 ;;                  1    wreg      unsigned char 
  7271 ;; Registers used:
  7272 ;;		wreg, status,2, status,0, pclath, cstack
  7273 ;; Tracked objects:
  7274 ;;		On entry : 0/0
  7275 ;;		On exit  : 0/0
  7276 ;;		Unchanged: 0/0
  7277 ;; Data sizes:     COMMON   BANK0   BANK1   BANK2   BANK3   BANK4   BANK5   BANK6   BANK7   BANK8   BANK9  BANK10  BANK1
      +1  BANK12  BANK13  BANK14  BANK15  BANK16  BANK17  BANK18  BANK19  BANK20  BANK21  BANK22  BANK23  BANK24  BANK25
  7278 ;;      Params:         0       0       0       0       0       0       0       0       0       0       0       0       
      +0       0       0       0       0       0       0       0       0       0       0       0       0       0       0
  7279 ;;      Locals:         2       0       0       0       0       0       0       0       0       0       0       0       
      +0       0       0       0       0       0       0       0       0       0       0       0       0       0       0
  7280 ;;      Temps:          1       0       0       0       0       0       0       0       0       0       0       0       
      +0       0       0       0       0       0       0       0       0       0       0       0       0       0       0
  7281 ;;      Totals:         3       0       0       0       0       0       0       0       0       0       0       0       
      +0       0       0       0       0       0       0       0       0       0       0       0       0       0       0
  7282 ;;Total ram usage:        3 bytes
  7283 ;; Hardware stack levels used: 1
  7284 ;; Hardware stack levels required when called: 1
  7285 ;; This function calls:
  7286 ;;		___bmul
  7287 ;; This function is called by:
  7288 ;;		_RTC_ReadBurst
  7289 ;; This function uses a non-reentrant model
  7290 ;;
  7291                           
  7292     17B6                     _get_dec:	
  7293                           ;psect for function _get_dec
  7294                           
  7295                           
  7296                           ;incstack = 0
  7297                           ; Regs used in _get_dec: [wreg+status,2+status,0+pclath+cstack]
  7298                           ;get_dec@var stored from wreg
  7299     17B6  00F6               	movwf	get_dec@var
  7300     17B7                     l3063:
  7301                           
  7302                           ;ds1302.c: 159: unsigned char get_dec(byte var);ds1302.c: 160: {;ds1302.c: 161:     unsi
      +                          gned char var2;;ds1302.c: 163:     var2 = (var >> 4) * 10;
  7303     17B7  300A               	movlw	10
  7304     17B8  00F0               	movwf	___bmul@multiplicand
  7305     17B9  0876               	movf	get_dec@var,w
  7306     17BA  00F4               	movwf	??_get_dec
  7307     17BB  3004               	movlw	4
  7308     17BC                     u3625:
  7309     17BC  36F4               	lsrf	??_get_dec,f
  7310     17BD  0B89               	decfsz	9,f
  7311     17BE  2FBC               	goto	u3625
  7312     17BF  0874               	movf	??_get_dec,w
  7313     17C0  3197  27A1  3197   	fcall	___bmul
  7314     17C3  00F5               	movwf	get_dec@var2
  7315     17C4                     l3065:
  7316                           
  7317                           ;ds1302.c: 164:     var2 += (var & 15);
  7318     17C4  0876               	movf	get_dec@var,w
  7319     17C5  390F               	andlw	15
  7320     17C6  00F4               	movwf	??_get_dec
  7321     17C7  0874               	movf	??_get_dec,w
  7322     17C8  07F5               	addwf	get_dec@var2,f
  7323     17C9                     l3067:
  7324                           
  7325                           ;ds1302.c: 166:     return var2;
  7326     17C9  0875               	movf	get_dec@var2,w
  7327     17CA                     l421:
  7328     17CA  0008               	return
  7329     17CB                     __end_of_get_dec:
  7330                           
  7331                           	psect	text19
  7332     0BFF                     __ptext19:	
  7333 ;; *************** function _DS1302_ReadByte *****************
  7334 ;; Defined at:
  7335 ;;		line 71 in file "ds1302.c"
  7336 ;; Parameters:    Size  Location     Type
  7337 ;;		None
  7338 ;; Auto vars:     Size  Location     Type
  7339 ;;  i               1    3[COMMON] unsigned char 
  7340 ;;  R_Byte          1    2[COMMON] unsigned char 
  7341 ;;  TmpByte         1    1[COMMON] unsigned char 
  7342 ;; Return value:  Size  Location     Type
  7343 ;;                  1    wreg      unsigned char 
  7344 ;; Registers used:
  7345 ;;		wreg, status,2, status,0
  7346 ;; Tracked objects:
  7347 ;;		On entry : 0/0
  7348 ;;		On exit  : 0/0
  7349 ;;		Unchanged: 0/0
  7350 ;; Data sizes:     COMMON   BANK0   BANK1   BANK2   BANK3   BANK4   BANK5   BANK6   BANK7   BANK8   BANK9  BANK10  BANK1
      +1  BANK12  BANK13  BANK14  BANK15  BANK16  BANK17  BANK18  BANK19  BANK20  BANK21  BANK22  BANK23  BANK24  BANK25
  7351 ;;      Params:         0       0       0       0       0       0       0       0       0       0       0       0       
      +0       0       0       0       0       0       0       0       0       0       0       0       0       0       0
  7352 ;;      Locals:         3       0       0       0       0       0       0       0       0       0       0       0       
      +0       0       0       0       0       0       0       0       0       0       0       0       0       0       0
  7353 ;;      Temps:          1       0       0       0       0       0       0       0       0       0       0       0       
      +0       0       0       0       0       0       0       0       0       0       0       0       0       0       0
  7354 ;;      Totals:         4       0       0       0       0       0       0       0       0       0       0       0       
      +0       0       0       0       0       0       0       0       0       0       0       0       0       0       0
  7355 ;;Total ram usage:        4 bytes
  7356 ;; Hardware stack levels used: 1
  7357 ;; This function calls:
  7358 ;;		Nothing
  7359 ;; This function is called by:
  7360 ;;		_RTC_ReadBurst
  7361 ;; This function uses a non-reentrant model
  7362 ;;
  7363                           
  7364     0BFF                     _DS1302_ReadByte:	
  7365                           ;psect for function _DS1302_ReadByte
  7366                           
  7367     0BFF                     l3037:	
  7368                           ;incstack = 0
  7369                           ; Regs used in _DS1302_ReadByte: [wreg+status,2+status,0]
  7370                           
  7371                           
  7372                           ;ds1302.c: 73:     unsigned char i;;ds1302.c: 74:     unsigned char R_Byte;;ds1302.c: 75
      +                          :     unsigned char TmpByte;;ds1302.c: 77:     R_Byte = 0x00;
  7373     0BFF  01F2               	clrf	DS1302_ReadByte@R_Byte
  7374     0C00                     l3039:
  7375                           
  7376                           ;ds1302.c: 79:     TRISBbits.TRISB2 = 1;
  7377     0C00  0021               	movlb	1	; select bank1
  7378     0C01  150D               	bsf	13,2	;volatile
  7379     0C02                     l3041:
  7380                           
  7381                           ;ds1302.c: 80:     PORTBbits.RB2 = 1;
  7382     0C02  0020               	movlb	0	; select bank0
  7383     0C03  150D               	bsf	13,2	;volatile
  7384                           
  7385                           ;ds1302.c: 82:     for(i=0; i<8; ++i)
  7386     0C04  01F3               	clrf	DS1302_ReadByte@i
  7387     0C05                     l410:
  7388                           
  7389                           ;ds1302.c: 83:     {;ds1302.c: 84:         LATBbits.LATB1 = 1;
  7390     0C05  0022               	movlb	2	; select bank2
  7391     0C06  148D               	bsf	13,1	;volatile
  7392                           
  7393                           ;ds1302.c: 85:         LATBbits.LATB1 = 0;
  7394     0C07  108D               	bcf	13,1	;volatile
  7395     0C08                     l3047:
  7396                           
  7397                           ;ds1302.c: 86:         TmpByte = (unsigned char)PORTBbits.RB2;
  7398     0C08  3000               	movlw	0
  7399     0C09  0020               	movlb	0	; select bank0
  7400     0C0A  190D               	btfsc	13,2	;volatile
  7401     0C0B  3001               	movlw	1
  7402     0C0C  00F1               	movwf	DS1302_ReadByte@TmpByte
  7403     0C0D                     l3049:
  7404                           
  7405                           ;ds1302.c: 87:         TmpByte <<= 7;
  7406     0C0D  0CF1               	rrf	DS1302_ReadByte@TmpByte,f
  7407     0C0E  01F1               	clrf	DS1302_ReadByte@TmpByte
  7408     0C0F  0CF1               	rrf	DS1302_ReadByte@TmpByte,f
  7409     0C10                     l3051:
  7410                           
  7411                           ;ds1302.c: 88:         R_Byte >>= 1;
  7412     0C10  1003               	clrc
  7413     0C11  0CF2               	rrf	DS1302_ReadByte@R_Byte,f
  7414     0C12                     l3053:
  7415                           
  7416                           ;ds1302.c: 89:         R_Byte |= TmpByte;
  7417     0C12  0871               	movf	DS1302_ReadByte@TmpByte,w
  7418     0C13  00F0               	movwf	??_DS1302_ReadByte
  7419     0C14  0870               	movf	??_DS1302_ReadByte,w
  7420     0C15  04F2               	iorwf	DS1302_ReadByte@R_Byte,f
  7421     0C16                     l3055:
  7422                           
  7423                           ;ds1302.c: 90:     }
  7424     0C16  3001               	movlw	1
  7425     0C17  00F0               	movwf	??_DS1302_ReadByte
  7426     0C18  0870               	movf	??_DS1302_ReadByte,w
  7427     0C19  07F3               	addwf	DS1302_ReadByte@i,f
  7428     0C1A                     l3057:
  7429     0C1A  3008               	movlw	8
  7430     0C1B  0273               	subwf	DS1302_ReadByte@i,w
  7431     0C1C  1C03               	skipc
  7432     0C1D  2C1F               	goto	u3611
  7433     0C1E  2C20               	goto	u3610
  7434     0C1F                     u3611:
  7435     0C1F  2C05               	goto	l410
  7436     0C20                     u3610:
  7437     0C20                     l411:
  7438                           
  7439                           ;ds1302.c: 91:     TRISBbits.TRISB2 = 0;
  7440     0C20  0021               	movlb	1	; select bank1
  7441     0C21  110D               	bcf	13,2	;volatile
  7442     0C22                     l3059:
  7443                           
  7444                           ;ds1302.c: 92:     return R_Byte;
  7445     0C22  0872               	movf	DS1302_ReadByte@R_Byte,w
  7446     0C23                     l412:
  7447     0C23  0008               	return
  7448     0C24                     __end_of_DS1302_ReadByte:
  7449                           
  7450                           	psect	text20
  7451     00D8                     __ptext20:	
  7452 ;; *************** function _OLED_Init *****************
  7453 ;; Defined at:
  7454 ;;		line 300 in file "OLED_SSD1306.c"
  7455 ;; Parameters:    Size  Location     Type
  7456 ;;		None
  7457 ;; Auto vars:     Size  Location     Type
  7458 ;;		None
  7459 ;; Return value:  Size  Location     Type
  7460 ;;                  1    wreg      void 
  7461 ;; Registers used:
  7462 ;;		wreg, fsr0l, fsr0h, fsr1l, fsr1h, status,2, status,0, pclath, cstack
  7463 ;; Tracked objects:
  7464 ;;		On entry : 0/0
  7465 ;;		On exit  : 0/0
  7466 ;;		Unchanged: 0/0
  7467 ;; Data sizes:     COMMON   BANK0   BANK1   BANK2   BANK3   BANK4   BANK5   BANK6   BANK7   BANK8   BANK9  BANK10  BANK1
      +1  BANK12  BANK13  BANK14  BANK15  BANK16  BANK17  BANK18  BANK19  BANK20  BANK21  BANK22  BANK23  BANK24  BANK25
  7468 ;;      Params:         0       0       0       0       0       0       0       0       0       0       0       0       
      +0       0       0       0       0       0       0       0       0       0       0       0       0       0       0
  7469 ;;      Locals:         0       0       0       0       0       0       0       0       0       0       0       0       
      +0       0       0       0       0       0       0       0       0       0       0       0       0       0       0
  7470 ;;      Temps:          1       0       0       0       0       0       0       0       0       0       0       0       
      +0       0       0       0       0       0       0       0       0       0       0       0       0       0       0
  7471 ;;      Totals:         1       0       0       0       0       0       0       0       0       0       0       0       
      +0       0       0       0       0       0       0       0       0       0       0       0       0       0       0
  7472 ;;Total ram usage:        1 bytes
  7473 ;; Hardware stack levels used: 1
  7474 ;; Hardware stack levels required when called: 5
  7475 ;; This function calls:
  7476 ;;		_OLED_Clear
  7477 ;;		_OLED_Command
  7478 ;; This function is called by:
  7479 ;;		_main
  7480 ;; This function uses a non-reentrant model
  7481 ;;
  7482                           
  7483     00D8                     _OLED_Init:	
  7484                           ;psect for function _OLED_Init
  7485                           
  7486     00D8                     l3087:	
  7487                           ;incstack = 0
  7488                           ; Regs used in _OLED_Init: [wreg-fsr1h+status,2+status,0+pclath+cstack]
  7489                           
  7490                           
  7491                           ;OLED_SSD1306.c: 302:     _delay((unsigned long)((10)*(32000000/4000.0)));
  7492     00D8  3068               	movlw	104
  7493     00D9  00FD               	movwf	??_OLED_Init
  7494     00DA  30E4               	movlw	228
  7495     00DB                     u3937:
  7496     00DB  0B89               	decfsz	9,f
  7497     00DC  28DB               	goto	u3937
  7498     00DD  0BFD               	decfsz	??_OLED_Init,f
  7499     00DE  28DB               	goto	u3937
  7500     00DF  3200               	nop2
  7501     00E0                     l3089:
  7502                           
  7503                           ;OLED_SSD1306.c: 304:     (void)OLED_Command(0xAE);
  7504     00E0  30AE               	movlw	174
  7505     00E1  318C  24FD  3180   	fcall	_OLED_Command
  7506     00E4                     l3091:
  7507                           
  7508                           ;OLED_SSD1306.c: 305:     (void)OLED_Command(0x2E);
  7509     00E4  302E               	movlw	46
  7510     00E5  318C  24FD  3180   	fcall	_OLED_Command
  7511     00E8                     l3093:
  7512                           
  7513                           ;OLED_SSD1306.c: 307:     (void)OLED_Command(0xD5);
  7514     00E8  30D5               	movlw	213
  7515     00E9  318C  24FD  3180   	fcall	_OLED_Command
  7516     00EC                     l3095:
  7517                           
  7518                           ;OLED_SSD1306.c: 308:     (void)OLED_Command(0x80);
  7519     00EC  3080               	movlw	128
  7520     00ED  318C  24FD  3180   	fcall	_OLED_Command
  7521     00F0                     l3097:
  7522                           
  7523                           ;OLED_SSD1306.c: 310:     (void)OLED_Command(0xA8);
  7524     00F0  30A8               	movlw	168
  7525     00F1  318C  24FD  3180   	fcall	_OLED_Command
  7526     00F4                     l3099:
  7527                           
  7528                           ;OLED_SSD1306.c: 314:     (void)OLED_Command(0x1F);
  7529     00F4  301F               	movlw	31
  7530     00F5  318C  24FD  3180   	fcall	_OLED_Command
  7531     00F8                     l3101:
  7532                           
  7533                           ;OLED_SSD1306.c: 317:     (void)OLED_Command(0xD3);
  7534     00F8  30D3               	movlw	211
  7535     00F9  318C  24FD  3180   	fcall	_OLED_Command
  7536     00FC                     l3103:
  7537                           
  7538                           ;OLED_SSD1306.c: 318:     (void)OLED_Command(0x00);
  7539     00FC  3000               	movlw	0
  7540     00FD  318C  24FD  3180   	fcall	_OLED_Command
  7541     0100                     l3105:
  7542                           
  7543                           ;OLED_SSD1306.c: 320:     (void)OLED_Command(0x40 | 0x00);
  7544     0100  3040               	movlw	64
  7545     0101  318C  24FD  3180   	fcall	_OLED_Command
  7546     0104                     l3107:
  7547                           
  7548                           ;OLED_SSD1306.c: 322:     (void)OLED_Command(0x8D);
  7549     0104  308D               	movlw	141
  7550     0105  318C  24FD  3180   	fcall	_OLED_Command
  7551     0108                     l3109:
  7552                           
  7553                           ;OLED_SSD1306.c: 323:     (void)OLED_Command(0x14);
  7554     0108  3014               	movlw	20
  7555     0109  318C  24FD  3180   	fcall	_OLED_Command
  7556     010C                     l3111:
  7557                           
  7558                           ;OLED_SSD1306.c: 325:     (void)OLED_Command(0x20);
  7559     010C  3020               	movlw	32
  7560     010D  318C  24FD  3180   	fcall	_OLED_Command
  7561     0110                     l3113:
  7562                           
  7563                           ;OLED_SSD1306.c: 326:     (void)OLED_Command(0x02);
  7564     0110  3002               	movlw	2
  7565     0111  318C  24FD  3180   	fcall	_OLED_Command
  7566     0114                     l3115:
  7567                           
  7568                           ;OLED_SSD1306.c: 328:     (void)OLED_Command(0xA0 | 0x01);
  7569     0114  30A1               	movlw	161
  7570     0115  318C  24FD  3180   	fcall	_OLED_Command
  7571     0118                     l3117:
  7572                           
  7573                           ;OLED_SSD1306.c: 329:     (void)OLED_Command(0xC8);
  7574     0118  30C8               	movlw	200
  7575     0119  318C  24FD  3180   	fcall	_OLED_Command
  7576     011C                     l3119:
  7577                           
  7578                           ;OLED_SSD1306.c: 331:     (void)OLED_Command(0xDA);
  7579     011C  30DA               	movlw	218
  7580     011D  318C  24FD  3180   	fcall	_OLED_Command
  7581     0120                     l3121:
  7582                           
  7583                           ;OLED_SSD1306.c: 335:     (void)OLED_Command(0x02);
  7584     0120  3002               	movlw	2
  7585     0121  318C  24FD  3180   	fcall	_OLED_Command
  7586     0124                     l3123:
  7587                           
  7588                           ;OLED_SSD1306.c: 338:     (void)OLED_Command(0x81);
  7589     0124  3081               	movlw	129
  7590     0125  318C  24FD  3180   	fcall	_OLED_Command
  7591     0128                     l3125:
  7592                           
  7593                           ;OLED_SSD1306.c: 339:     (void)OLED_Command(0x8F);
  7594     0128  308F               	movlw	143
  7595     0129  318C  24FD  3180   	fcall	_OLED_Command
  7596     012C                     l3127:
  7597                           
  7598                           ;OLED_SSD1306.c: 341:     (void)OLED_Command(0xD9);
  7599     012C  30D9               	movlw	217
  7600     012D  318C  24FD  3180   	fcall	_OLED_Command
  7601     0130                     l3129:
  7602                           
  7603                           ;OLED_SSD1306.c: 342:     (void)OLED_Command(0xF1);
  7604     0130  30F1               	movlw	241
  7605     0131  318C  24FD  3180   	fcall	_OLED_Command
  7606     0134                     l3131:
  7607                           
  7608                           ;OLED_SSD1306.c: 344:     (void)OLED_Command(0xDB);
  7609     0134  30DB               	movlw	219
  7610     0135  318C  24FD  3180   	fcall	_OLED_Command
  7611     0138                     l3133:
  7612                           
  7613                           ;OLED_SSD1306.c: 345:     (void)OLED_Command(0x40);
  7614     0138  3040               	movlw	64
  7615     0139  318C  24FD  3180   	fcall	_OLED_Command
  7616     013C                     l3135:
  7617                           
  7618                           ;OLED_SSD1306.c: 347:     (void)OLED_Command(0xA4);
  7619     013C  30A4               	movlw	164
  7620     013D  318C  24FD  3180   	fcall	_OLED_Command
  7621     0140                     l3137:
  7622                           
  7623                           ;OLED_SSD1306.c: 348:     (void)OLED_Command(0xA6);
  7624     0140  30A6               	movlw	166
  7625     0141  318C  24FD  3180   	fcall	_OLED_Command
  7626     0144                     l3139:
  7627                           
  7628                           ;OLED_SSD1306.c: 349:     (void)OLED_Command(0xAF);
  7629     0144  30AF               	movlw	175
  7630     0145  318C  24FD  3180   	fcall	_OLED_Command
  7631     0148                     l3141:
  7632                           
  7633                           ;OLED_SSD1306.c: 352:     OLED_Clear();
  7634     0148  318E  264D  3180   	fcall	_OLED_Clear
  7635     014B                     l134:
  7636     014B  0008               	return
  7637     014C                     __end_of_OLED_Init:
  7638                           
  7639                           	psect	text21
  7640     0E4D                     __ptext21:	
  7641 ;; *************** function _OLED_Clear *****************
  7642 ;; Defined at:
  7643 ;;		line 358 in file "OLED_SSD1306.c"
  7644 ;; Parameters:    Size  Location     Type
  7645 ;;		None
  7646 ;; Auto vars:     Size  Location     Type
  7647 ;;  p               1   12[COMMON] unsigned char 
  7648 ;; Return value:  Size  Location     Type
  7649 ;;                  1    wreg      void 
  7650 ;; Registers used:
  7651 ;;		wreg, fsr0l, fsr0h, fsr1l, fsr1h, status,2, status,0, pclath, cstack
  7652 ;; Tracked objects:
  7653 ;;		On entry : 0/0
  7654 ;;		On exit  : 0/0
  7655 ;;		Unchanged: 0/0
  7656 ;; Data sizes:     COMMON   BANK0   BANK1   BANK2   BANK3   BANK4   BANK5   BANK6   BANK7   BANK8   BANK9  BANK10  BANK1
      +1  BANK12  BANK13  BANK14  BANK15  BANK16  BANK17  BANK18  BANK19  BANK20  BANK21  BANK22  BANK23  BANK24  BANK25
  7657 ;;      Params:         0       0       0       0       0       0       0       0       0       0       0       0       
      +0       0       0       0       0       0       0       0       0       0       0       0       0       0       0
  7658 ;;      Locals:         1       0       0       0       0       0       0       0       0       0       0       0       
      +0       0       0       0       0       0       0       0       0       0       0       0       0       0       0
  7659 ;;      Temps:          0       6       0       0       0       0       0       0       0       0       0       0       
      +0       0       0       0       0       0       0       0       0       0       0       0       0       0       0
  7660 ;;      Totals:         1       6       0       0       0       0       0       0       0       0       0       0       
      +0       0       0       0       0       0       0       0       0       0       0       0       0       0       0
  7661 ;;Total ram usage:        7 bytes
  7662 ;; Hardware stack levels used: 1
  7663 ;; Hardware stack levels required when called: 4
  7664 ;; This function calls:
  7665 ;;		_OLED_WriteData
  7666 ;;		_OLED_YX
  7667 ;;		_memset
  7668 ;; This function is called by:
  7669 ;;		_OLED_Init
  7670 ;;		_main
  7671 ;; This function uses a non-reentrant model
  7672 ;;
  7673                           
  7674     0E4D                     _OLED_Clear:	
  7675                           ;psect for function _OLED_Clear
  7676                           
  7677     0E4D                     l2679:	
  7678                           ;incstack = 0
  7679                           ; Regs used in _OLED_Clear: [wreg-fsr1h+status,2+status,0+pclath+cstack]
  7680                           
  7681                           
  7682                           ;OLED_SSD1306.c: 360:     for (uint8_t p = 0; p < (32 / 8); p++)
  7683     0E4D  01FC               	clrf	OLED_Clear@p
  7684     0E4E                     l2685:
  7685                           
  7686                           ;OLED_SSD1306.c: 361:     {;OLED_SSD1306.c: 362:         memset(screen_buffer[p], 0, 128
      +                          );
  7687     0E4E  087C               	movf	OLED_Clear@p,w
  7688     0E4F  0020               	movlb	0	; select bank0
  7689     0E50  00A0               	movwf	??_OLED_Clear
  7690     0E51  01A1               	clrf	??_OLED_Clear+1
  7691     0E52  3007               	movlw	7
  7692     0E53                     u2925:
  7693     0E53  35A0               	lslf	??_OLED_Clear,f
  7694     0E54  0DA1               	rlf	??_OLED_Clear+1,f
  7695     0E55  0B89               	decfsz	9,f
  7696     0E56  2E53               	goto	u2925
  7697     0E57  30F0               	movlw	240
  7698     0E58  00A2               	movwf	??_OLED_Clear+2
  7699     0E59  3024               	movlw	36
  7700     0E5A  00A3               	movwf	??_OLED_Clear+3
  7701     0E5B  0820               	movf	??_OLED_Clear,w
  7702     0E5C  0722               	addwf	??_OLED_Clear+2,w
  7703     0E5D  00F0               	movwf	memset@dest
  7704     0E5E  0821               	movf	??_OLED_Clear+1,w
  7705     0E5F  3D23               	addwfc	??_OLED_Clear+3,w
  7706     0E60  00F1               	movwf	memset@dest+1
  7707     0E61  3000               	movlw	0
  7708     0E62  00F2               	movwf	memset@c
  7709     0E63  00F3               	movwf	memset@c+1
  7710     0E64  3080               	movlw	128
  7711     0E65  00F4               	movwf	memset@n
  7712     0E66  3000               	movlw	0
  7713     0E67  00F5               	movwf	memset@n+1
  7714     0E68  3197  27E4  318E   	fcall	_memset
  7715     0E6B                     l2687:
  7716                           
  7717                           ;OLED_SSD1306.c: 364:         OLED_YX(p, 0);
  7718     0E6B  01F7               	clrf	OLED_YX@col_char
  7719     0E6C  087C               	movf	OLED_Clear@p,w
  7720     0E6D  318B  234E  318E   	fcall	_OLED_YX
  7721     0E70                     l2689:
  7722                           
  7723                           ;OLED_SSD1306.c: 365:         (void)OLED_WriteData(screen_buffer[p], 128);
  7724     0E70  087C               	movf	OLED_Clear@p,w
  7725     0E71  0020               	movlb	0	; select bank0
  7726     0E72  00A0               	movwf	??_OLED_Clear
  7727     0E73  01A1               	clrf	??_OLED_Clear+1
  7728     0E74  3007               	movlw	7
  7729     0E75                     u2935:
  7730     0E75  35A0               	lslf	??_OLED_Clear,f
  7731     0E76  0DA1               	rlf	??_OLED_Clear+1,f
  7732     0E77  0B89               	decfsz	9,f
  7733     0E78  2E75               	goto	u2935
  7734     0E79  30F0               	movlw	240
  7735     0E7A  00A2               	movwf	??_OLED_Clear+2
  7736     0E7B  3024               	movlw	36
  7737     0E7C  00A3               	movwf	??_OLED_Clear+3
  7738     0E7D  0820               	movf	??_OLED_Clear,w
  7739     0E7E  0722               	addwf	??_OLED_Clear+2,w
  7740     0E7F  00A4               	movwf	??_OLED_Clear+4
  7741     0E80  0821               	movf	??_OLED_Clear+1,w
  7742     0E81  3D23               	addwfc	??_OLED_Clear+3,w
  7743     0E82  00A5               	movwf	??_OLED_Clear+5
  7744     0E83  0824               	movf	??_OLED_Clear+4,w
  7745     0E84  00F5               	movwf	OLED_WriteData@data
  7746     0E85  0825               	movf	??_OLED_Clear+5,w
  7747     0E86  00F6               	movwf	OLED_WriteData@data+1
  7748     0E87  3080               	movlw	128
  7749     0E88  00F7               	movwf	OLED_WriteData@len
  7750     0E89  3000               	movlw	0
  7751     0E8A  00F8               	movwf	OLED_WriteData@len+1
  7752     0E8B  318E  269A  318E   	fcall	_OLED_WriteData
  7753     0E8E                     l2691:
  7754                           
  7755                           ;OLED_SSD1306.c: 366:     }
  7756     0E8E  3001               	movlw	1
  7757     0E8F  0020               	movlb	0	; select bank0
  7758     0E90  00A0               	movwf	??_OLED_Clear
  7759     0E91  0820               	movf	??_OLED_Clear,w
  7760     0E92  07FC               	addwf	OLED_Clear@p,f
  7761     0E93                     l2693:
  7762     0E93  3004               	movlw	4
  7763     0E94  027C               	subwf	OLED_Clear@p,w
  7764     0E95  1C03               	skipc
  7765     0E96  2E98               	goto	u2941
  7766     0E97  2E99               	goto	u2940
  7767     0E98                     u2941:
  7768     0E98  2E4E               	goto	l2685
  7769     0E99                     u2940:
  7770     0E99                     l139:
  7771     0E99  0008               	return
  7772     0E9A                     __end_of_OLED_Clear:
  7773                           
  7774                           	psect	text22
  7775     17E4                     __ptext22:	
  7776 ;; *************** function _memset *****************
  7777 ;; Defined at:
  7778 ;;		line 3 in file "C:\Program Files\Microchip\xc8\v2.46\pic\sources\c99\common\memset.c"
  7779 ;; Parameters:    Size  Location     Type
  7780 ;;  dest            2    0[COMMON] PTR void 
  7781 ;;		 -> screen_buffer(512), 
  7782 ;;  c               2    2[COMMON] int 
  7783 ;;  n               2    4[COMMON] unsigned int 
  7784 ;; Auto vars:     Size  Location     Type
  7785 ;;  p               2    6[COMMON] PTR unsigned char 
  7786 ;;		 -> screen_buffer(512), 
  7787 ;; Return value:  Size  Location     Type
  7788 ;;                  2    0[COMMON] PTR void 
  7789 ;; Registers used:
  7790 ;;		wreg, fsr1l, fsr1h, status,2, status,0
  7791 ;; Tracked objects:
  7792 ;;		On entry : 0/0
  7793 ;;		On exit  : 0/0
  7794 ;;		Unchanged: 0/0
  7795 ;; Data sizes:     COMMON   BANK0   BANK1   BANK2   BANK3   BANK4   BANK5   BANK6   BANK7   BANK8   BANK9  BANK10  BANK1
      +1  BANK12  BANK13  BANK14  BANK15  BANK16  BANK17  BANK18  BANK19  BANK20  BANK21  BANK22  BANK23  BANK24  BANK25
  7796 ;;      Params:         6       0       0       0       0       0       0       0       0       0       0       0       
      +0       0       0       0       0       0       0       0       0       0       0       0       0       0       0
  7797 ;;      Locals:         2       0       0       0       0       0       0       0       0       0       0       0       
      +0       0       0       0       0       0       0       0       0       0       0       0       0       0       0
  7798 ;;      Temps:          0       0       0       0       0       0       0       0       0       0       0       0       
      +0       0       0       0       0       0       0       0       0       0       0       0       0       0       0
  7799 ;;      Totals:         8       0       0       0       0       0       0       0       0       0       0       0       
      +0       0       0       0       0       0       0       0       0       0       0       0       0       0       0
  7800 ;;Total ram usage:        8 bytes
  7801 ;; Hardware stack levels used: 1
  7802 ;; This function calls:
  7803 ;;		Nothing
  7804 ;; This function is called by:
  7805 ;;		_OLED_Clear
  7806 ;;		_OLED_Printf_Line
  7807 ;; This function uses a non-reentrant model
  7808 ;;
  7809                           
  7810     17E4                     _memset:	
  7811                           ;psect for function _memset
  7812                           
  7813     17E4                     l2373:	
  7814                           ;incstack = 0
  7815                           ; Regs used in _memset: [wreg+fsr1l+fsr1h+status,2+status,0]
  7816                           
  7817     17E4  0871               	movf	memset@dest+1,w
  7818     17E5  00F7               	movwf	memset@p+1
  7819     17E6  0870               	movf	memset@dest,w
  7820     17E7  00F6               	movwf	memset@p
  7821     17E8  2FF3               	goto	l2379
  7822     17E9                     l2375:
  7823     17E9  0876               	movf	memset@p,w
  7824     17EA  0086               	movwf	6
  7825     17EB  0877               	movf	memset@p+1,w
  7826     17EC  0087               	movwf	7
  7827     17ED  0872               	movf	memset@c,w
  7828     17EE  0081               	movwf	1
  7829     17EF                     l2377:
  7830     17EF  3001               	movlw	1
  7831     17F0  07F6               	addwf	memset@p,f
  7832     17F1  3000               	movlw	0
  7833     17F2  3DF7               	addwfc	memset@p+1,f
  7834     17F3                     l2379:
  7835     17F3  3001               	movlw	1
  7836     17F4  02F4               	subwf	memset@n,f
  7837     17F5  3000               	movlw	0
  7838     17F6  3BF5               	subwfb	memset@n+1,f
  7839     17F7  0A74               	incf	memset@n,w
  7840     17F8  1D03               	skipz
  7841     17F9  2FFE               	goto	u2191
  7842     17FA  0A75               	incf	memset@n+1,w
  7843     17FB  1D03               	btfss	3,2
  7844     17FC  2FFE               	goto	u2191
  7845     17FD  2FFF               	goto	u2190
  7846     17FE                     u2191:
  7847     17FE  2FE9               	goto	l2375
  7848     17FF                     u2190:
  7849     17FF                     l957:
  7850     17FF  0008               	return
  7851     1800                     __end_of_memset:
  7852                           
  7853                           	psect	text23
  7854     0B4E                     __ptext23:	
  7855 ;; *************** function _OLED_YX *****************
  7856 ;; Defined at:
  7857 ;;		line 285 in file "OLED_SSD1306.c"
  7858 ;; Parameters:    Size  Location     Type
  7859 ;;  page            1    wreg     unsigned char 
  7860 ;;  col_char        1    7[COMMON] unsigned char 
  7861 ;; Auto vars:     Size  Location     Type
  7862 ;;  page            1    9[COMMON] unsigned char 
  7863 ;;  col             1   10[COMMON] unsigned char 
  7864 ;; Return value:  Size  Location     Type
  7865 ;;                  1    wreg      void 
  7866 ;; Registers used:
  7867 ;;		wreg, status,2, status,0, pclath, cstack
  7868 ;; Tracked objects:
  7869 ;;		On entry : 0/0
  7870 ;;		On exit  : 0/0
  7871 ;;		Unchanged: 0/0
  7872 ;; Data sizes:     COMMON   BANK0   BANK1   BANK2   BANK3   BANK4   BANK5   BANK6   BANK7   BANK8   BANK9  BANK10  BANK1
      +1  BANK12  BANK13  BANK14  BANK15  BANK16  BANK17  BANK18  BANK19  BANK20  BANK21  BANK22  BANK23  BANK24  BANK25
  7873 ;;      Params:         1       0       0       0       0       0       0       0       0       0       0       0       
      +0       0       0       0       0       0       0       0       0       0       0       0       0       0       0
  7874 ;;      Locals:         2       0       0       0       0       0       0       0       0       0       0       0       
      +0       0       0       0       0       0       0       0       0       0       0       0       0       0       0
  7875 ;;      Temps:          1       0       0       0       0       0       0       0       0       0       0       0       
      +0       0       0       0       0       0       0       0       0       0       0       0       0       0       0
  7876 ;;      Totals:         4       0       0       0       0       0       0       0       0       0       0       0       
      +0       0       0       0       0       0       0       0       0       0       0       0       0       0       0
  7877 ;;Total ram usage:        4 bytes
  7878 ;; Hardware stack levels used: 1
  7879 ;; Hardware stack levels required when called: 3
  7880 ;; This function calls:
  7881 ;;		_OLED_Command
  7882 ;; This function is called by:
  7883 ;;		_OLED_Clear
  7884 ;;		_OLED_UpdateLine
  7885 ;;		_OLED_WriteString
  7886 ;; This function uses a non-reentrant model
  7887 ;;
  7888                           
  7889     0B4E                     _OLED_YX:	
  7890                           ;psect for function _OLED_YX
  7891                           
  7892                           
  7893                           ;incstack = 0
  7894                           ; Regs used in _OLED_YX: [wreg+status,2+status,0+pclath+cstack]
  7895                           ;OLED_YX@page stored from wreg
  7896     0B4E  00F9               	movwf	OLED_YX@page
  7897     0B4F                     l2365:
  7898                           
  7899                           ;OLED_SSD1306.c: 285: void OLED_YX(uint8_t page, uint8_t col_char);OLED_SSD1306.c: 286: 
      +                          {;OLED_SSD1306.c: 287:     uint8_t col = (uint8_t)(col_char * 8);
  7900     0B4F  0877               	movf	OLED_YX@col_char,w
  7901     0B50  00F8               	movwf	??_OLED_YX
  7902     0B51  3002               	movlw	2
  7903     0B52                     u2175:
  7904     0B52  35F8               	lslf	??_OLED_YX,f
  7905     0B53  3EFF               	addlw	-1
  7906     0B54  1D03               	skipz
  7907     0B55  2B52               	goto	u2175
  7908     0B56  3578               	lslf	??_OLED_YX,w
  7909     0B57  00FA               	movwf	OLED_YX@col
  7910     0B58                     l2367:
  7911                           
  7912                           ;OLED_SSD1306.c: 289:     (void)OLED_Command(0xB0 | (page & 0x07));
  7913     0B58  0879               	movf	OLED_YX@page,w
  7914     0B59  3907               	andlw	7
  7915     0B5A  38B0               	iorlw	176
  7916     0B5B  318C  24FD  318B   	fcall	_OLED_Command
  7917     0B5E                     l2369:
  7918                           
  7919                           ;OLED_SSD1306.c: 290:     (void)OLED_Command(0x00 | (col & 0x0F));
  7920     0B5E  087A               	movf	OLED_YX@col,w
  7921     0B5F  390F               	andlw	15
  7922     0B60  318C  24FD  318B   	fcall	_OLED_Command
  7923     0B63                     l2371:
  7924                           
  7925                           ;OLED_SSD1306.c: 291:     (void)OLED_Command(0x10 | ((col >> 4) & 0x0F));
  7926     0B63  087A               	movf	OLED_YX@col,w
  7927     0B64  00F8               	movwf	??_OLED_YX
  7928     0B65  3004               	movlw	4
  7929     0B66                     u2185:
  7930     0B66  36F8               	lsrf	??_OLED_YX,f
  7931     0B67  0B89               	decfsz	9,f
  7932     0B68  2B66               	goto	u2185
  7933     0B69  0878               	movf	??_OLED_YX,w
  7934     0B6A  390F               	andlw	15
  7935     0B6B  3810               	iorlw	16
  7936     0B6C  318C  24FD  318B   	fcall	_OLED_Command
  7937     0B6F                     l131:
  7938     0B6F  0008               	return
  7939     0B70                     __end_of_OLED_YX:
  7940                           
  7941                           	psect	text24
  7942     0CFD                     __ptext24:	
  7943 ;; *************** function _OLED_Command *****************
  7944 ;; Defined at:
  7945 ;;		line 192 in file "OLED_SSD1306.c"
  7946 ;; Parameters:    Size  Location     Type
  7947 ;;  cmd             1    wreg     unsigned char 
  7948 ;; Auto vars:     Size  Location     Type
  7949 ;;  cmd             1    5[COMMON] unsigned char 
  7950 ;;  st              1    6[COMMON] enum E6043
  7951 ;; Return value:  Size  Location     Type
  7952 ;;                  1    wreg      enum E6043
  7953 ;; Registers used:
  7954 ;;		wreg, status,2, status,0, pclath, cstack
  7955 ;; Tracked objects:
  7956 ;;		On entry : 0/0
  7957 ;;		On exit  : 0/0
  7958 ;;		Unchanged: 0/0
  7959 ;; Data sizes:     COMMON   BANK0   BANK1   BANK2   BANK3   BANK4   BANK5   BANK6   BANK7   BANK8   BANK9  BANK10  BANK1
      +1  BANK12  BANK13  BANK14  BANK15  BANK16  BANK17  BANK18  BANK19  BANK20  BANK21  BANK22  BANK23  BANK24  BANK25
  7960 ;;      Params:         0       0       0       0       0       0       0       0       0       0       0       0       
      +0       0       0       0       0       0       0       0       0       0       0       0       0       0       0
  7961 ;;      Locals:         2       0       0       0       0       0       0       0       0       0       0       0       
      +0       0       0       0       0       0       0       0       0       0       0       0       0       0       0
  7962 ;;      Temps:          0       0       0       0       0       0       0       0       0       0       0       0       
      +0       0       0       0       0       0       0       0       0       0       0       0       0       0       0
  7963 ;;      Totals:         2       0       0       0       0       0       0       0       0       0       0       0       
      +0       0       0       0       0       0       0       0       0       0       0       0       0       0       0
  7964 ;;Total ram usage:        2 bytes
  7965 ;; Hardware stack levels used: 1
  7966 ;; Hardware stack levels required when called: 2
  7967 ;; This function calls:
  7968 ;;		_I2C_Start
  7969 ;;		_I2C_Stop
  7970 ;;		_I2C_WriteByte
  7971 ;;		_SSD1306_CtrlW
  7972 ;; This function is called by:
  7973 ;;		_OLED_YX
  7974 ;;		_OLED_Init
  7975 ;;		_OLED_SetOrientation
  7976 ;;		_OLED_UpdatePartialLine
  7977 ;; This function uses a non-reentrant model
  7978 ;;
  7979                           
  7980     0CFD                     _OLED_Command:	
  7981                           ;psect for function _OLED_Command
  7982                           
  7983                           
  7984                           ;incstack = 0
  7985                           ; Regs used in _OLED_Command: [wreg+status,2+status,0+pclath+cstack]
  7986                           ;OLED_Command@cmd stored from wreg
  7987     0CFD  00F5               	movwf	OLED_Command@cmd
  7988     0CFE                     l2297:
  7989                           
  7990                           ;OLED_SSD1306.c: 192: static I2C_Status_t OLED_Command(uint8_t cmd);OLED_SSD1306.c: 193:
      +                           {;OLED_SSD1306.c: 194:     I2C_Status_t st;;OLED_SSD1306.c: 196:     st = I2C_Start();
  7991     0CFE  318B  23DA  318C   	fcall	_I2C_Start
  7992     0D01  00F6               	movwf	OLED_Command@st
  7993     0D02                     l2299:
  7994                           
  7995                           ;OLED_SSD1306.c: 197:     if (st != I2C_OK) return st;
  7996     0D02  0876               	movf	OLED_Command@st,w
  7997     0D03  1903               	btfsc	3,2
  7998     0D04  2D06               	goto	u2081
  7999     0D05  2D07               	goto	u2080
  8000     0D06                     u2081:
  8001     0D06  2D08               	goto	l2303
  8002     0D07                     u2080:
  8003     0D07  2D2A               	goto	l105
  8004     0D08                     l2303:
  8005                           
  8006                           ;OLED_SSD1306.c: 199:     st = I2C_WriteByte(SSD1306_CtrlW());
  8007     0D08  3197  276A  318C   	fcall	_SSD1306_CtrlW
  8008     0D0B  318D  252B  318C   	fcall	_I2C_WriteByte
  8009     0D0E  00F6               	movwf	OLED_Command@st
  8010     0D0F                     l2305:
  8011                           
  8012                           ;OLED_SSD1306.c: 200:     if (st != I2C_OK) { I2C_Stop(); return st; }
  8013     0D0F  0876               	movf	OLED_Command@st,w
  8014     0D10  1903               	btfsc	3,2
  8015     0D11  2D13               	goto	u2091
  8016     0D12  2D14               	goto	u2090
  8017     0D13                     u2091:
  8018     0D13  2D18               	goto	l2311
  8019     0D14                     u2090:
  8020     0D14                     l2307:
  8021     0D14  318B  2393  318C   	fcall	_I2C_Stop
  8022     0D17  2D2A               	goto	l105
  8023     0D18                     l2311:
  8024                           
  8025                           ;OLED_SSD1306.c: 202:     st = I2C_WriteByte(0x00);
  8026     0D18  3000               	movlw	0
  8027     0D19  318D  252B  318C   	fcall	_I2C_WriteByte
  8028     0D1C  00F6               	movwf	OLED_Command@st
  8029     0D1D                     l2313:
  8030                           
  8031                           ;OLED_SSD1306.c: 203:     if (st != I2C_OK) { I2C_Stop(); return st; }
  8032     0D1D  0876               	movf	OLED_Command@st,w
  8033     0D1E  1903               	btfsc	3,2
  8034     0D1F  2D21               	goto	u2101
  8035     0D20  2D22               	goto	u2100
  8036     0D21                     u2101:
  8037     0D21  2D23               	goto	l2319
  8038     0D22                     u2100:
  8039     0D22  2D14               	goto	l2307
  8040     0D23                     l2319:
  8041     0D23  0875               	movf	OLED_Command@cmd,w
  8042     0D24  318D  252B  318C   	fcall	_I2C_WriteByte
  8043                           
  8044                           ;OLED_SSD1306.c: 206:     I2C_Stop();
  8045     0D27  318B  2393  318C   	fcall	_I2C_Stop
  8046     0D2A                     l105:
  8047     0D2A  0008               	return
  8048     0D2B                     __end_of_OLED_Command:
  8049                           
  8050                           	psect	text25
  8051     0E9A                     __ptext25:	
  8052 ;; *************** function _OLED_WriteData *****************
  8053 ;; Defined at:
  8054 ;;		line 217 in file "OLED_SSD1306.c"
  8055 ;; Parameters:    Size  Location     Type
  8056 ;;  data            2    5[COMMON] PTR const unsigned char 
  8057 ;;		 -> OledFont(768), screen_buffer(512), 
  8058 ;;  len             2    7[COMMON] unsigned short 
  8059 ;; Auto vars:     Size  Location     Type
  8060 ;;  i               2    9[COMMON] unsigned short 
  8061 ;;  st              1   11[COMMON] enum E6043
  8062 ;; Return value:  Size  Location     Type
  8063 ;;                  1    wreg      enum E6043
  8064 ;; Registers used:
  8065 ;;		wreg, fsr0l, fsr0h, status,2, status,0, pclath, cstack
  8066 ;; Tracked objects:
  8067 ;;		On entry : 0/0
  8068 ;;		On exit  : 0/0
  8069 ;;		Unchanged: 0/0
  8070 ;; Data sizes:     COMMON   BANK0   BANK1   BANK2   BANK3   BANK4   BANK5   BANK6   BANK7   BANK8   BANK9  BANK10  BANK1
      +1  BANK12  BANK13  BANK14  BANK15  BANK16  BANK17  BANK18  BANK19  BANK20  BANK21  BANK22  BANK23  BANK24  BANK25
  8071 ;;      Params:         4       0       0       0       0       0       0       0       0       0       0       0       
      +0       0       0       0       0       0       0       0       0       0       0       0       0       0       0
  8072 ;;      Locals:         3       0       0       0       0       0       0       0       0       0       0       0       
      +0       0       0       0       0       0       0       0       0       0       0       0       0       0       0
  8073 ;;      Temps:          0       0       0       0       0       0       0       0       0       0       0       0       
      +0       0       0       0       0       0       0       0       0       0       0       0       0       0       0
  8074 ;;      Totals:         7       0       0       0       0       0       0       0       0       0       0       0       
      +0       0       0       0       0       0       0       0       0       0       0       0       0       0       0
  8075 ;;Total ram usage:        7 bytes
  8076 ;; Hardware stack levels used: 1
  8077 ;; Hardware stack levels required when called: 2
  8078 ;; This function calls:
  8079 ;;		_I2C_Start
  8080 ;;		_I2C_Stop
  8081 ;;		_I2C_WriteByte
  8082 ;;		_SSD1306_CtrlW
  8083 ;; This function is called by:
  8084 ;;		_OLED_Clear
  8085 ;;		_OLED_UpdateLine
  8086 ;;		_OLED_UpdatePartialLine
  8087 ;;		_OLED_WriteString
  8088 ;; This function uses a non-reentrant model
  8089 ;;
  8090                           
  8091     0E9A                     _OLED_WriteData:	
  8092                           ;psect for function _OLED_WriteData
  8093                           
  8094     0E9A                     l2323:	
  8095                           ;incstack = 0
  8096                           ; Regs used in _OLED_WriteData: [wreg-fsr0h+status,2+status,0+pclath+cstack]
  8097                           
  8098                           
  8099                           ;OLED_SSD1306.c: 217: static I2C_Status_t OLED_WriteData(const uint8_t* data, uint16_t l
      +                          en);OLED_SSD1306.c: 218: {;OLED_SSD1306.c: 219:     I2C_Status_t st;;OLED_SSD1306.c: 221
      +                          :     if (data == ((void*)0)) return I2C_TIMEOUT;
  8100     0E9A  0875               	movf	OLED_WriteData@data,w
  8101     0E9B  0476               	iorwf	OLED_WriteData@data+1,w
  8102     0E9C  1D03               	btfss	3,2
  8103     0E9D  2E9F               	goto	u2111
  8104     0E9E  2EA0               	goto	u2110
  8105     0E9F                     u2111:
  8106     0E9F  2EA1               	goto	l2327
  8107     0EA0                     u2110:
  8108     0EA0  2EE9               	goto	l111
  8109     0EA1                     l2327:
  8110                           
  8111                           ;OLED_SSD1306.c: 223:     st = I2C_Start();
  8112     0EA1  318B  23DA  318E   	fcall	_I2C_Start
  8113     0EA4  00FB               	movwf	OLED_WriteData@st
  8114     0EA5                     l2329:
  8115                           
  8116                           ;OLED_SSD1306.c: 224:     if (st != I2C_OK) return st;
  8117     0EA5  087B               	movf	OLED_WriteData@st,w
  8118     0EA6  1903               	btfsc	3,2
  8119     0EA7  2EA9               	goto	u2121
  8120     0EA8  2EAA               	goto	u2120
  8121     0EA9                     u2121:
  8122     0EA9  2EAB               	goto	l2333
  8123     0EAA                     u2120:
  8124     0EAA  2EE9               	goto	l111
  8125     0EAB                     l2333:
  8126                           
  8127                           ;OLED_SSD1306.c: 226:     st = I2C_WriteByte(SSD1306_CtrlW());
  8128     0EAB  3197  276A  318E   	fcall	_SSD1306_CtrlW
  8129     0EAE  318D  252B  318E   	fcall	_I2C_WriteByte
  8130     0EB1  00FB               	movwf	OLED_WriteData@st
  8131     0EB2                     l2335:
  8132                           
  8133                           ;OLED_SSD1306.c: 227:     if (st != I2C_OK) { I2C_Stop(); return st; }
  8134     0EB2  087B               	movf	OLED_WriteData@st,w
  8135     0EB3  1903               	btfsc	3,2
  8136     0EB4  2EB6               	goto	u2131
  8137     0EB5  2EB7               	goto	u2130
  8138     0EB6                     u2131:
  8139     0EB6  2EBB               	goto	l2341
  8140     0EB7                     u2130:
  8141     0EB7                     l2337:
  8142     0EB7  318B  2393  318E   	fcall	_I2C_Stop
  8143     0EBA  2EE9               	goto	l111
  8144     0EBB                     l2341:
  8145                           
  8146                           ;OLED_SSD1306.c: 229:     st = I2C_WriteByte(0x40);
  8147     0EBB  3040               	movlw	64
  8148     0EBC  318D  252B  318E   	fcall	_I2C_WriteByte
  8149     0EBF  00FB               	movwf	OLED_WriteData@st
  8150     0EC0                     l2343:
  8151                           
  8152                           ;OLED_SSD1306.c: 230:     if (st != I2C_OK) { I2C_Stop(); return st; }
  8153     0EC0  087B               	movf	OLED_WriteData@st,w
  8154     0EC1  1903               	btfsc	3,2
  8155     0EC2  2EC4               	goto	u2141
  8156     0EC3  2EC5               	goto	u2140
  8157     0EC4                     u2141:
  8158     0EC4  2EC6               	goto	l2349
  8159     0EC5                     u2140:
  8160     0EC5  2EB7               	goto	l2337
  8161     0EC6                     l2349:
  8162                           
  8163                           ;OLED_SSD1306.c: 232:     for (uint16_t i = 0; i < len; i++)
  8164     0EC6  01F9               	clrf	OLED_WriteData@i
  8165     0EC7  01FA               	clrf	OLED_WriteData@i+1
  8166     0EC8  2EDE               	goto	l115
  8167     0EC9                     l2351:
  8168                           
  8169                           ;OLED_SSD1306.c: 233:     {;OLED_SSD1306.c: 234:         st = I2C_WriteByte(data[i]);
  8170     0EC9  0875               	movf	OLED_WriteData@data,w
  8171     0ECA  0779               	addwf	OLED_WriteData@i,w
  8172     0ECB  0084               	movwf	4
  8173     0ECC  0876               	movf	OLED_WriteData@data+1,w
  8174     0ECD  3D7A               	addwfc	OLED_WriteData@i+1,w
  8175     0ECE  0085               	movwf	5
  8176     0ECF  0800               	movf	0,w	;code access
  8177     0ED0  318D  252B  318E   	fcall	_I2C_WriteByte
  8178     0ED3  00FB               	movwf	OLED_WriteData@st
  8179     0ED4                     l2353:
  8180                           
  8181                           ;OLED_SSD1306.c: 235:         if (st != I2C_OK) { I2C_Stop(); return st; }
  8182     0ED4  087B               	movf	OLED_WriteData@st,w
  8183     0ED5  1903               	btfsc	3,2
  8184     0ED6  2ED8               	goto	u2151
  8185     0ED7  2ED9               	goto	u2150
  8186     0ED8                     u2151:
  8187     0ED8  2EDA               	goto	l2359
  8188     0ED9                     u2150:
  8189     0ED9  2EB7               	goto	l2337
  8190     0EDA                     l2359:
  8191                           
  8192                           ;OLED_SSD1306.c: 236:     }
  8193     0EDA  3001               	movlw	1
  8194     0EDB  07F9               	addwf	OLED_WriteData@i,f
  8195     0EDC  3000               	movlw	0
  8196     0EDD  3DFA               	addwfc	OLED_WriteData@i+1,f
  8197     0EDE                     l115:
  8198     0EDE  0878               	movf	OLED_WriteData@len+1,w
  8199     0EDF  027A               	subwf	OLED_WriteData@i+1,w
  8200     0EE0  1D03               	skipz
  8201     0EE1  2EE4               	goto	u2165
  8202     0EE2  0877               	movf	OLED_WriteData@len,w
  8203     0EE3  0279               	subwf	OLED_WriteData@i,w
  8204     0EE4                     u2165:
  8205     0EE4  1C03               	skipc
  8206     0EE5  2EE7               	goto	u2161
  8207     0EE6  2EE8               	goto	u2160
  8208     0EE7                     u2161:
  8209     0EE7  2EC9               	goto	l2351
  8210     0EE8                     u2160:
  8211     0EE8  2EB7               	goto	l2337
  8212     0EE9                     l111:
  8213     0EE9  0008               	return
  8214     0EEA                     __end_of_OLED_WriteData:
  8215                           
  8216                           	psect	text26
  8217     176A                     __ptext26:	
  8218 ;; *************** function _SSD1306_CtrlW *****************
  8219 ;; Defined at:
  8220 ;;		line 184 in file "OLED_SSD1306.c"
  8221 ;; Parameters:    Size  Location     Type
  8222 ;;		None
  8223 ;; Auto vars:     Size  Location     Type
  8224 ;;		None
  8225 ;; Return value:  Size  Location     Type
  8226 ;;                  1    wreg      unsigned char 
  8227 ;; Registers used:
  8228 ;;		wreg
  8229 ;; Tracked objects:
  8230 ;;		On entry : 0/0
  8231 ;;		On exit  : 0/0
  8232 ;;		Unchanged: 0/0
  8233 ;; Data sizes:     COMMON   BANK0   BANK1   BANK2   BANK3   BANK4   BANK5   BANK6   BANK7   BANK8   BANK9  BANK10  BANK1
      +1  BANK12  BANK13  BANK14  BANK15  BANK16  BANK17  BANK18  BANK19  BANK20  BANK21  BANK22  BANK23  BANK24  BANK25
  8234 ;;      Params:         0       0       0       0       0       0       0       0       0       0       0       0       
      +0       0       0       0       0       0       0       0       0       0       0       0       0       0       0
  8235 ;;      Locals:         0       0       0       0       0       0       0       0       0       0       0       0       
      +0       0       0       0       0       0       0       0       0       0       0       0       0       0       0
  8236 ;;      Temps:          0       0       0       0       0       0       0       0       0       0       0       0       
      +0       0       0       0       0       0       0       0       0       0       0       0       0       0       0
  8237 ;;      Totals:         0       0       0       0       0       0       0       0       0       0       0       0       
      +0       0       0       0       0       0       0       0       0       0       0       0       0       0       0
  8238 ;;Total ram usage:        0 bytes
  8239 ;; Hardware stack levels used: 1
  8240 ;; This function calls:
  8241 ;;		Nothing
  8242 ;; This function is called by:
  8243 ;;		_OLED_Command
  8244 ;;		_OLED_WriteData
  8245 ;; This function uses a non-reentrant model
  8246 ;;
  8247                           
  8248     176A                     _SSD1306_CtrlW:	
  8249                           ;psect for function _SSD1306_CtrlW
  8250                           
  8251     176A                     l2293:	
  8252                           ;incstack = 0
  8253                           ; Regs used in _SSD1306_CtrlW: [wreg]
  8254                           
  8255     176A  3078               	movlw	120
  8256     176B                     l101:
  8257     176B  0008               	return
  8258     176C                     __end_of_SSD1306_CtrlW:
  8259                           
  8260                           	psect	text27
  8261     0D2B                     __ptext27:	
  8262 ;; *************** function _I2C_WriteByte *****************
  8263 ;; Defined at:
  8264 ;;		line 161 in file "I2C.c"
  8265 ;; Parameters:    Size  Location     Type
  8266 ;;  data            1    wreg     unsigned char 
  8267 ;; Auto vars:     Size  Location     Type
  8268 ;;  data            1    3[COMMON] unsigned char 
  8269 ;;  st              1    4[COMMON] enum E6036
  8270 ;; Return value:  Size  Location     Type
  8271 ;;                  1    wreg      enum E6036
  8272 ;; Registers used:
  8273 ;;		wreg, status,2, status,0, pclath, cstack
  8274 ;; Tracked objects:
  8275 ;;		On entry : 0/0
  8276 ;;		On exit  : 0/0
  8277 ;;		Unchanged: 0/0
  8278 ;; Data sizes:     COMMON   BANK0   BANK1   BANK2   BANK3   BANK4   BANK5   BANK6   BANK7   BANK8   BANK9  BANK10  BANK1
      +1  BANK12  BANK13  BANK14  BANK15  BANK16  BANK17  BANK18  BANK19  BANK20  BANK21  BANK22  BANK23  BANK24  BANK25
  8279 ;;      Params:         0       0       0       0       0       0       0       0       0       0       0       0       
      +0       0       0       0       0       0       0       0       0       0       0       0       0       0       0
  8280 ;;      Locals:         2       0       0       0       0       0       0       0       0       0       0       0       
      +0       0       0       0       0       0       0       0       0       0       0       0       0       0       0
  8281 ;;      Temps:          0       0       0       0       0       0       0       0       0       0       0       0       
      +0       0       0       0       0       0       0       0       0       0       0       0       0       0       0
  8282 ;;      Totals:         2       0       0       0       0       0       0       0       0       0       0       0       
      +0       0       0       0       0       0       0       0       0       0       0       0       0       0       0
  8283 ;;Total ram usage:        2 bytes
  8284 ;; Hardware stack levels used: 1
  8285 ;; Hardware stack levels required when called: 1
  8286 ;; This function calls:
  8287 ;;		_I2C_WaitIF
  8288 ;;		_I2C_WaitIdle
  8289 ;; This function is called by:
  8290 ;;		_OLED_Command
  8291 ;;		_OLED_WriteData
  8292 ;; This function uses a non-reentrant model
  8293 ;;
  8294                           
  8295     0D2B                     _I2C_WriteByte:	
  8296                           ;psect for function _I2C_WriteByte
  8297                           
  8298                           
  8299                           ;incstack = 0
  8300                           ; Regs used in _I2C_WriteByte: [wreg+status,2+status,0+pclath+cstack]
  8301                           ;I2C_WriteByte@data stored from wreg
  8302     0D2B  00F3               	movwf	I2C_WriteByte@data
  8303     0D2C                     l2265:
  8304                           
  8305                           ;I2C.c: 161: I2C_Status_t I2C_WriteByte(uint8_t data);I2C.c: 162: {;I2C.c: 163:     I2C_
      +                          Status_t st;;I2C.c: 165:     st = I2C_WaitIdle(50);
  8306     0D2C  3032               	movlw	50
  8307     0D2D  00F0               	movwf	I2C_WaitIdle@timeout_ms
  8308     0D2E  3000               	movlw	0
  8309     0D2F  00F1               	movwf	I2C_WaitIdle@timeout_ms+1
  8310     0D30  318B  23B6  318D   	fcall	_I2C_WaitIdle
  8311     0D33  00F4               	movwf	I2C_WriteByte@st
  8312     0D34                     l2267:
  8313                           
  8314                           ;I2C.c: 166:     if (st != I2C_OK) return st;
  8315     0D34  0874               	movf	I2C_WriteByte@st,w
  8316     0D35  1903               	btfsc	3,2
  8317     0D36  2D38               	goto	u2051
  8318     0D37  2D39               	goto	u2050
  8319     0D38                     u2051:
  8320     0D38  2D3B               	goto	l60
  8321     0D39                     u2050:
  8322     0D39                     l2269:
  8323     0D39  0874               	movf	I2C_WriteByte@st,w
  8324     0D3A  2D5C               	goto	l61
  8325     0D3B                     l60:
  8326                           
  8327                           ;I2C.c: 168:     PIR1bits.SSP1IF = 0;
  8328     0D3B  0020               	movlb	0	; select bank0
  8329     0D3C  1191               	bcf	17,3	;volatile
  8330     0D3D                     l2273:
  8331                           
  8332                           ;I2C.c: 169:     SSPBUF = data;
  8333     0D3D  0873               	movf	I2C_WriteByte@data,w
  8334     0D3E  0024               	movlb	4	; select bank4
  8335     0D3F  0091               	movwf	17	;volatile
  8336     0D40                     l2275:
  8337                           
  8338                           ;I2C.c: 171:     st = I2C_WaitIF(50);
  8339     0D40  3032               	movlw	50
  8340     0D41  00F0               	movwf	I2C_WaitIF@timeout_ms
  8341     0D42  3000               	movlw	0
  8342     0D43  00F1               	movwf	I2C_WaitIF@timeout_ms+1
  8343     0D44  318B  2330  318D   	fcall	_I2C_WaitIF
  8344     0D47  00F4               	movwf	I2C_WriteByte@st
  8345     0D48                     l2277:
  8346                           
  8347                           ;I2C.c: 172:     if (st != I2C_OK) return st;
  8348     0D48  0874               	movf	I2C_WriteByte@st,w
  8349     0D49  1903               	btfsc	3,2
  8350     0D4A  2D4C               	goto	u2061
  8351     0D4B  2D4D               	goto	u2060
  8352     0D4C                     u2061:
  8353     0D4C  2D4E               	goto	l62
  8354     0D4D                     u2060:
  8355     0D4D  2D39               	goto	l2269
  8356     0D4E                     l62:
  8357                           
  8358                           ;I2C.c: 175:     if (PIR2bits.BCL1IF)
  8359     0D4E  0020               	movlb	0	; select bank0
  8360     0D4F  1D92               	btfss	18,3	;volatile
  8361     0D50  2D52               	goto	u2071
  8362     0D51  2D53               	goto	u2070
  8363     0D52                     u2071:
  8364     0D52  2D56               	goto	l63
  8365     0D53                     u2070:
  8366     0D53                     l2283:
  8367                           
  8368                           ;I2C.c: 176:     {;I2C.c: 177:         PIR2bits.BCL1IF = 0;
  8369     0D53  1192               	bcf	18,3	;volatile
  8370     0D54                     l2285:
  8371                           
  8372                           ;I2C.c: 178:         return I2C_BUS_COLLISION;
  8373     0D54  3003               	movlw	3
  8374     0D55  2D5C               	goto	l61
  8375     0D56                     l63:	
  8376                           ;I2C.c: 179:     }
  8377                           
  8378                           
  8379                           ;I2C.c: 182:     PIR1bits.SSP1IF = 0;
  8380     0D56  1191               	bcf	17,3	;volatile
  8381     0D57                     l2289:
  8382                           
  8383                           ;I2C.c: 183:     return (SSPCON2bits.ACKSTAT == 0) ? I2C_OK : I2C_NAK;
  8384     0D57  0024               	movlb	4	; select bank4
  8385     0D58  0E16               	swapf	22,w	;volatile
  8386     0D59  0C89               	rrf	9,f
  8387     0D5A  0C89               	rrf	9,f
  8388     0D5B  3901               	andlw	1
  8389     0D5C                     l61:
  8390     0D5C  0008               	return
  8391     0D5D                     __end_of_I2C_WriteByte:
  8392                           
  8393                           	psect	text28
  8394     0B93                     __ptext28:	
  8395 ;; *************** function _I2C_Stop *****************
  8396 ;; Defined at:
  8397 ;;		line 138 in file "I2C.c"
  8398 ;; Parameters:    Size  Location     Type
  8399 ;;		None
  8400 ;; Auto vars:     Size  Location     Type
  8401 ;;  st              1    3[COMMON] enum E6036
  8402 ;; Return value:  Size  Location     Type
  8403 ;;                  1    wreg      enum E6036
  8404 ;; Registers used:
  8405 ;;		wreg, status,2, status,0, pclath, cstack
  8406 ;; Tracked objects:
  8407 ;;		On entry : 0/0
  8408 ;;		On exit  : 0/0
  8409 ;;		Unchanged: 0/0
  8410 ;; Data sizes:     COMMON   BANK0   BANK1   BANK2   BANK3   BANK4   BANK5   BANK6   BANK7   BANK8   BANK9  BANK10  BANK1
      +1  BANK12  BANK13  BANK14  BANK15  BANK16  BANK17  BANK18  BANK19  BANK20  BANK21  BANK22  BANK23  BANK24  BANK25
  8411 ;;      Params:         0       0       0       0       0       0       0       0       0       0       0       0       
      +0       0       0       0       0       0       0       0       0       0       0       0       0       0       0
  8412 ;;      Locals:         1       0       0       0       0       0       0       0       0       0       0       0       
      +0       0       0       0       0       0       0       0       0       0       0       0       0       0       0
  8413 ;;      Temps:          0       0       0       0       0       0       0       0       0       0       0       0       
      +0       0       0       0       0       0       0       0       0       0       0       0       0       0       0
  8414 ;;      Totals:         1       0       0       0       0       0       0       0       0       0       0       0       
      +0       0       0       0       0       0       0       0       0       0       0       0       0       0       0
  8415 ;;Total ram usage:        1 bytes
  8416 ;; Hardware stack levels used: 1
  8417 ;; Hardware stack levels required when called: 1
  8418 ;; This function calls:
  8419 ;;		_I2C_WaitIF
  8420 ;;		_I2C_WaitIdle
  8421 ;; This function is called by:
  8422 ;;		_OLED_Command
  8423 ;;		_OLED_WriteData
  8424 ;; This function uses a non-reentrant model
  8425 ;;
  8426                           
  8427     0B93                     _I2C_Stop:	
  8428                           ;psect for function _I2C_Stop
  8429                           
  8430     0B93                     l2253:	
  8431                           ;incstack = 0
  8432                           ; Regs used in _I2C_Stop: [wreg+status,2+status,0+pclath+cstack]
  8433                           
  8434                           
  8435                           ;I2C.c: 140:     I2C_Status_t st;;I2C.c: 142:     st = I2C_WaitIdle(50);
  8436     0B93  3032               	movlw	50
  8437     0B94  00F0               	movwf	I2C_WaitIdle@timeout_ms
  8438     0B95  3000               	movlw	0
  8439     0B96  00F1               	movwf	I2C_WaitIdle@timeout_ms+1
  8440     0B97  318B  23B6  318B   	fcall	_I2C_WaitIdle
  8441     0B9A  00F3               	movwf	I2C_Stop@st
  8442     0B9B                     l2255:
  8443                           
  8444                           ;I2C.c: 143:     if (st != I2C_OK) return st;
  8445     0B9B  0873               	movf	I2C_Stop@st,w
  8446     0B9C  1903               	btfsc	3,2
  8447     0B9D  2B9F               	goto	u2031
  8448     0B9E  2BA0               	goto	u2030
  8449     0B9F                     u2031:
  8450     0B9F  2BA1               	goto	l55
  8451     0BA0                     u2030:
  8452     0BA0  2BB5               	goto	l56
  8453     0BA1                     l55:
  8454                           
  8455                           ;I2C.c: 145:     PIR1bits.SSP1IF = 0;
  8456     0BA1  0020               	movlb	0	; select bank0
  8457     0BA2  1191               	bcf	17,3	;volatile
  8458                           
  8459                           ;I2C.c: 146:     SSPCON2bits.PEN = 1;
  8460     0BA3  0024               	movlb	4	; select bank4
  8461     0BA4  1516               	bsf	22,2	;volatile
  8462     0BA5                     l2259:
  8463                           
  8464                           ;I2C.c: 148:     st = I2C_WaitIF(50);
  8465     0BA5  3032               	movlw	50
  8466     0BA6  00F0               	movwf	I2C_WaitIF@timeout_ms
  8467     0BA7  3000               	movlw	0
  8468     0BA8  00F1               	movwf	I2C_WaitIF@timeout_ms+1
  8469     0BA9  318B  2330  318B   	fcall	_I2C_WaitIF
  8470     0BAC  00F3               	movwf	I2C_Stop@st
  8471     0BAD                     l2261:
  8472                           
  8473                           ;I2C.c: 149:     if (st != I2C_OK) return st;
  8474     0BAD  0873               	movf	I2C_Stop@st,w
  8475     0BAE  1903               	btfsc	3,2
  8476     0BAF  2BB1               	goto	u2041
  8477     0BB0  2BB2               	goto	u2040
  8478     0BB1                     u2041:
  8479     0BB1  2BB3               	goto	l57
  8480     0BB2                     u2040:
  8481     0BB2  2BB5               	goto	l56
  8482     0BB3                     l57:
  8483                           
  8484                           ;I2C.c: 151:     PIR1bits.SSP1IF = 0;
  8485     0BB3  0020               	movlb	0	; select bank0
  8486     0BB4  1191               	bcf	17,3	;volatile
  8487     0BB5                     l56:	
  8488                           ;I2C.c: 152:     return I2C_OK;;	Return value of _I2C_Stop is never used
  8489                           
  8490     0BB5  0008               	return
  8491     0BB6                     __end_of_I2C_Stop:
  8492                           
  8493                           	psect	text29
  8494     0BDA                     __ptext29:	
  8495 ;; *************** function _I2C_Start *****************
  8496 ;; Defined at:
  8497 ;;		line 98 in file "I2C.c"
  8498 ;; Parameters:    Size  Location     Type
  8499 ;;		None
  8500 ;; Auto vars:     Size  Location     Type
  8501 ;;  st              1    3[COMMON] enum E6036
  8502 ;; Return value:  Size  Location     Type
  8503 ;;                  1    wreg      enum E6036
  8504 ;; Registers used:
  8505 ;;		wreg, status,2, status,0, pclath, cstack
  8506 ;; Tracked objects:
  8507 ;;		On entry : 0/0
  8508 ;;		On exit  : 0/0
  8509 ;;		Unchanged: 0/0
  8510 ;; Data sizes:     COMMON   BANK0   BANK1   BANK2   BANK3   BANK4   BANK5   BANK6   BANK7   BANK8   BANK9  BANK10  BANK1
      +1  BANK12  BANK13  BANK14  BANK15  BANK16  BANK17  BANK18  BANK19  BANK20  BANK21  BANK22  BANK23  BANK24  BANK25
  8511 ;;      Params:         0       0       0       0       0       0       0       0       0       0       0       0       
      +0       0       0       0       0       0       0       0       0       0       0       0       0       0       0
  8512 ;;      Locals:         1       0       0       0       0       0       0       0       0       0       0       0       
      +0       0       0       0       0       0       0       0       0       0       0       0       0       0       0
  8513 ;;      Temps:          0       0       0       0       0       0       0       0       0       0       0       0       
      +0       0       0       0       0       0       0       0       0       0       0       0       0       0       0
  8514 ;;      Totals:         1       0       0       0       0       0       0       0       0       0       0       0       
      +0       0       0       0       0       0       0       0       0       0       0       0       0       0       0
  8515 ;;Total ram usage:        1 bytes
  8516 ;; Hardware stack levels used: 1
  8517 ;; Hardware stack levels required when called: 1
  8518 ;; This function calls:
  8519 ;;		_I2C_WaitIF
  8520 ;;		_I2C_WaitIdle
  8521 ;; This function is called by:
  8522 ;;		_OLED_Command
  8523 ;;		_OLED_WriteData
  8524 ;; This function uses a non-reentrant model
  8525 ;;
  8526                           
  8527     0BDA                     _I2C_Start:	
  8528                           ;psect for function _I2C_Start
  8529                           
  8530     0BDA                     l2233:	
  8531                           ;incstack = 0
  8532                           ; Regs used in _I2C_Start: [wreg+status,2+status,0+pclath+cstack]
  8533                           
  8534                           
  8535                           ;I2C.c: 100:     I2C_Status_t st;;I2C.c: 102:     st = I2C_WaitIdle(50);
  8536     0BDA  3032               	movlw	50
  8537     0BDB  00F0               	movwf	I2C_WaitIdle@timeout_ms
  8538     0BDC  3000               	movlw	0
  8539     0BDD  00F1               	movwf	I2C_WaitIdle@timeout_ms+1
  8540     0BDE  318B  23B6  318B   	fcall	_I2C_WaitIdle
  8541     0BE1  00F3               	movwf	I2C_Start@st
  8542     0BE2                     l2235:
  8543                           
  8544                           ;I2C.c: 103:     if (st != I2C_OK) return st;
  8545     0BE2  0873               	movf	I2C_Start@st,w
  8546     0BE3  1903               	btfsc	3,2
  8547     0BE4  2BE6               	goto	u2011
  8548     0BE5  2BE7               	goto	u2010
  8549     0BE6                     u2011:
  8550     0BE6  2BE9               	goto	l45
  8551     0BE7                     u2010:
  8552     0BE7                     l2237:
  8553     0BE7  0873               	movf	I2C_Start@st,w
  8554     0BE8  2BFE               	goto	l46
  8555     0BE9                     l45:
  8556                           
  8557                           ;I2C.c: 105:     PIR1bits.SSP1IF = 0;
  8558     0BE9  0020               	movlb	0	; select bank0
  8559     0BEA  1191               	bcf	17,3	;volatile
  8560                           
  8561                           ;I2C.c: 106:     SSPCON2bits.SEN = 1;
  8562     0BEB  0024               	movlb	4	; select bank4
  8563     0BEC  1416               	bsf	22,0	;volatile
  8564     0BED                     l2241:
  8565                           
  8566                           ;I2C.c: 108:     st = I2C_WaitIF(50);
  8567     0BED  3032               	movlw	50
  8568     0BEE  00F0               	movwf	I2C_WaitIF@timeout_ms
  8569     0BEF  3000               	movlw	0
  8570     0BF0  00F1               	movwf	I2C_WaitIF@timeout_ms+1
  8571     0BF1  318B  2330  318B   	fcall	_I2C_WaitIF
  8572     0BF4  00F3               	movwf	I2C_Start@st
  8573     0BF5                     l2243:
  8574                           
  8575                           ;I2C.c: 109:     if (st != I2C_OK) return st;
  8576     0BF5  0873               	movf	I2C_Start@st,w
  8577     0BF6  1903               	btfsc	3,2
  8578     0BF7  2BF9               	goto	u2021
  8579     0BF8  2BFA               	goto	u2020
  8580     0BF9                     u2021:
  8581     0BF9  2BFB               	goto	l47
  8582     0BFA                     u2020:
  8583     0BFA  2BE7               	goto	l2237
  8584     0BFB                     l47:
  8585                           
  8586                           ;I2C.c: 111:     PIR1bits.SSP1IF = 0;
  8587     0BFB  0020               	movlb	0	; select bank0
  8588     0BFC  1191               	bcf	17,3	;volatile
  8589     0BFD                     l2249:
  8590                           
  8591                           ;I2C.c: 112:     return I2C_OK;
  8592     0BFD  3000               	movlw	0
  8593     0BFE                     l46:
  8594     0BFE  0008               	return
  8595     0BFF                     __end_of_I2C_Start:
  8596                           
  8597                           	psect	text30
  8598     0BB6                     __ptext30:	
  8599 ;; *************** function _I2C_WaitIdle *****************
  8600 ;; Defined at:
  8601 ;;		line 81 in file "I2C.c"
  8602 ;; Parameters:    Size  Location     Type
  8603 ;;  timeout_ms      2    0[COMMON] unsigned short 
  8604 ;; Auto vars:     Size  Location     Type
  8605 ;;		None
  8606 ;; Return value:  Size  Location     Type
  8607 ;;                  1    wreg      enum E6036
  8608 ;; Registers used:
  8609 ;;		wreg, status,2, status,0
  8610 ;; Tracked objects:
  8611 ;;		On entry : 0/0
  8612 ;;		On exit  : 0/0
  8613 ;;		Unchanged: 0/0
  8614 ;; Data sizes:     COMMON   BANK0   BANK1   BANK2   BANK3   BANK4   BANK5   BANK6   BANK7   BANK8   BANK9  BANK10  BANK1
      +1  BANK12  BANK13  BANK14  BANK15  BANK16  BANK17  BANK18  BANK19  BANK20  BANK21  BANK22  BANK23  BANK24  BANK25
  8615 ;;      Params:         2       0       0       0       0       0       0       0       0       0       0       0       
      +0       0       0       0       0       0       0       0       0       0       0       0       0       0       0
  8616 ;;      Locals:         0       0       0       0       0       0       0       0       0       0       0       0       
      +0       0       0       0       0       0       0       0       0       0       0       0       0       0       0
  8617 ;;      Temps:          1       0       0       0       0       0       0       0       0       0       0       0       
      +0       0       0       0       0       0       0       0       0       0       0       0       0       0       0
  8618 ;;      Totals:         3       0       0       0       0       0       0       0       0       0       0       0       
      +0       0       0       0       0       0       0       0       0       0       0       0       0       0       0
  8619 ;;Total ram usage:        3 bytes
  8620 ;; Hardware stack levels used: 1
  8621 ;; This function calls:
  8622 ;;		Nothing
  8623 ;; This function is called by:
  8624 ;;		_I2C_Start
  8625 ;;		_I2C_Stop
  8626 ;;		_I2C_WriteByte
  8627 ;;		_I2C_RepeatedStart
  8628 ;;		_I2C_ReadByte
  8629 ;; This function uses a non-reentrant model
  8630 ;;
  8631                           
  8632     0BB6                     _I2C_WaitIdle:	
  8633                           ;psect for function _I2C_WaitIdle
  8634                           
  8635     0BB6                     l2215:	
  8636                           ;incstack = 0
  8637                           ; Regs used in _I2C_WaitIdle: [wreg+status,2+status,0]
  8638                           
  8639                           
  8640                           ;I2C.c: 81: I2C_Status_t I2C_WaitIdle(uint16_t timeout_ms);I2C.c: 82: {;I2C.c: 83:     w
      +                          hile (timeout_ms--)
  8641     0BB6  2BCC               	goto	l2227
  8642     0BB7                     l2217:
  8643                           
  8644                           ;I2C.c: 84:     {;I2C.c: 87:         if ((SSPCON2 & 0x1F) == 0 && SSPSTATbits.R_nW == 0)
  8645     0BB7  0024               	movlb	4	; select bank4
  8646     0BB8  0816               	movf	22,w	;volatile
  8647     0BB9  391F               	andlw	31
  8648     0BBA  1D03               	btfss	3,2
  8649     0BBB  2BBD               	goto	u1981
  8650     0BBC  2BBE               	goto	u1980
  8651     0BBD                     u1981:
  8652     0BBD  2BC4               	goto	l2225
  8653     0BBE                     u1980:
  8654     0BBE                     l2219:
  8655     0BBE  1914               	btfsc	20,2	;volatile
  8656     0BBF  2BC1               	goto	u1991
  8657     0BC0  2BC2               	goto	u1990
  8658     0BC1                     u1991:
  8659     0BC1  2BC4               	goto	l2225
  8660     0BC2                     u1990:
  8661     0BC2                     l2221:
  8662                           
  8663                           ;I2C.c: 88:             return I2C_OK;
  8664     0BC2  3000               	movlw	0
  8665     0BC3  2BD9               	goto	l41
  8666     0BC4                     l2225:
  8667                           
  8668                           ;I2C.c: 90:         _delay((unsigned long)((1)*(32000000/4000.0)));
  8669     0BC4  300B               	movlw	11
  8670     0BC5  00F2               	movwf	??_I2C_WaitIdle
  8671     0BC6  3062               	movlw	98
  8672     0BC7                     u3947:
  8673     0BC7  0B89               	decfsz	9,f
  8674     0BC8  2BC7               	goto	u3947
  8675     0BC9  0BF2               	decfsz	??_I2C_WaitIdle,f
  8676     0BCA  2BC7               	goto	u3947
  8677     0BCB  3200               	nop2
  8678     0BCC                     l2227:
  8679                           
  8680                           ;I2C.c: 83:     while (timeout_ms--)
  8681     0BCC  3001               	movlw	1
  8682     0BCD  02F0               	subwf	I2C_WaitIdle@timeout_ms,f
  8683     0BCE  3000               	movlw	0
  8684     0BCF  3BF1               	subwfb	I2C_WaitIdle@timeout_ms+1,f
  8685     0BD0  0A70               	incf	I2C_WaitIdle@timeout_ms,w
  8686     0BD1  1D03               	skipz
  8687     0BD2  2BD7               	goto	u2001
  8688     0BD3  0A71               	incf	I2C_WaitIdle@timeout_ms+1,w
  8689     0BD4  1D03               	btfss	3,2
  8690     0BD5  2BD7               	goto	u2001
  8691     0BD6  2BD8               	goto	u2000
  8692     0BD7                     u2001:
  8693     0BD7  2BB7               	goto	l2217
  8694     0BD8                     u2000:
  8695     0BD8                     l2229:
  8696                           
  8697                           ;I2C.c: 92:     return I2C_TIMEOUT;
  8698     0BD8  3002               	movlw	2
  8699     0BD9                     l41:
  8700     0BD9  0008               	return
  8701     0BDA                     __end_of_I2C_WaitIdle:
  8702                           
  8703                           	psect	text31
  8704     0B30                     __ptext31:	
  8705 ;; *************** function _I2C_WaitIF *****************
  8706 ;; Defined at:
  8707 ;;		line 23 in file "I2C.c"
  8708 ;; Parameters:    Size  Location     Type
  8709 ;;  timeout_ms      2    0[COMMON] unsigned short 
  8710 ;; Auto vars:     Size  Location     Type
  8711 ;;		None
  8712 ;; Return value:  Size  Location     Type
  8713 ;;                  1    wreg      enum E6036
  8714 ;; Registers used:
  8715 ;;		wreg, status,2, status,0
  8716 ;; Tracked objects:
  8717 ;;		On entry : 0/0
  8718 ;;		On exit  : 0/0
  8719 ;;		Unchanged: 0/0
  8720 ;; Data sizes:     COMMON   BANK0   BANK1   BANK2   BANK3   BANK4   BANK5   BANK6   BANK7   BANK8   BANK9  BANK10  BANK1
      +1  BANK12  BANK13  BANK14  BANK15  BANK16  BANK17  BANK18  BANK19  BANK20  BANK21  BANK22  BANK23  BANK24  BANK25
  8721 ;;      Params:         2       0       0       0       0       0       0       0       0       0       0       0       
      +0       0       0       0       0       0       0       0       0       0       0       0       0       0       0
  8722 ;;      Locals:         0       0       0       0       0       0       0       0       0       0       0       0       
      +0       0       0       0       0       0       0       0       0       0       0       0       0       0       0
  8723 ;;      Temps:          1       0       0       0       0       0       0       0       0       0       0       0       
      +0       0       0       0       0       0       0       0       0       0       0       0       0       0       0
  8724 ;;      Totals:         3       0       0       0       0       0       0       0       0       0       0       0       
      +0       0       0       0       0       0       0       0       0       0       0       0       0       0       0
  8725 ;;Total ram usage:        3 bytes
  8726 ;; Hardware stack levels used: 1
  8727 ;; This function calls:
  8728 ;;		Nothing
  8729 ;; This function is called by:
  8730 ;;		_I2C_Start
  8731 ;;		_I2C_Stop
  8732 ;;		_I2C_WriteByte
  8733 ;;		_I2C_RepeatedStart
  8734 ;;		_I2C_ReadByte
  8735 ;; This function uses a non-reentrant model
  8736 ;;
  8737                           
  8738     0B30                     _I2C_WaitIF:	
  8739                           ;psect for function _I2C_WaitIF
  8740                           
  8741     0B30                     l2201:	
  8742                           ;incstack = 0
  8743                           ; Regs used in _I2C_WaitIF: [wreg+status,2+status,0]
  8744                           
  8745                           
  8746                           ;I2C.c: 23: static I2C_Status_t I2C_WaitIF(uint16_t timeout_ms);I2C.c: 24: {;I2C.c: 25: 
      +                              while (timeout_ms--)
  8747     0B30  2B40               	goto	l2209
  8748     0B31                     l26:
  8749                           
  8750                           ;I2C.c: 26:     {;I2C.c: 27:         if (PIR1bits.SSP1IF)
  8751     0B31  0020               	movlb	0	; select bank0
  8752     0B32  1D91               	btfss	17,3	;volatile
  8753     0B33  2B35               	goto	u1961
  8754     0B34  2B36               	goto	u1960
  8755     0B35                     u1961:
  8756     0B35  2B38               	goto	l2207
  8757     0B36                     u1960:
  8758     0B36                     l2203:
  8759                           
  8760                           ;I2C.c: 28:             return I2C_OK;
  8761     0B36  3000               	movlw	0
  8762     0B37  2B4D               	goto	l28
  8763     0B38                     l2207:
  8764                           
  8765                           ;I2C.c: 30:         _delay((unsigned long)((1)*(32000000/4000.0)));
  8766     0B38  300B               	movlw	11
  8767     0B39  00F2               	movwf	??_I2C_WaitIF
  8768     0B3A  3062               	movlw	98
  8769     0B3B                     u3957:
  8770     0B3B  0B89               	decfsz	9,f
  8771     0B3C  2B3B               	goto	u3957
  8772     0B3D  0BF2               	decfsz	??_I2C_WaitIF,f
  8773     0B3E  2B3B               	goto	u3957
  8774     0B3F  3200               	nop2
  8775     0B40                     l2209:
  8776                           
  8777                           ;I2C.c: 25:     while (timeout_ms--)
  8778     0B40  3001               	movlw	1
  8779     0B41  02F0               	subwf	I2C_WaitIF@timeout_ms,f
  8780     0B42  3000               	movlw	0
  8781     0B43  3BF1               	subwfb	I2C_WaitIF@timeout_ms+1,f
  8782     0B44  0A70               	incf	I2C_WaitIF@timeout_ms,w
  8783     0B45  1D03               	skipz
  8784     0B46  2B4B               	goto	u1971
  8785     0B47  0A71               	incf	I2C_WaitIF@timeout_ms+1,w
  8786     0B48  1D03               	btfss	3,2
  8787     0B49  2B4B               	goto	u1971
  8788     0B4A  2B4C               	goto	u1970
  8789     0B4B                     u1971:
  8790     0B4B  2B31               	goto	l26
  8791     0B4C                     u1970:
  8792     0B4C                     l2211:
  8793                           
  8794                           ;I2C.c: 32:     return I2C_TIMEOUT;
  8795     0B4C  3002               	movlw	2
  8796     0B4D                     l28:
  8797     0B4D  0008               	return
  8798     0B4E                     __end_of_I2C_WaitIF:
  8799                           
  8800                           	psect	text32
  8801     178D                     __ptext32:	
  8802 ;; *************** function _I2C_Init *****************
  8803 ;; Defined at:
  8804 ;;		line 41 in file "I2C.c"
  8805 ;; Parameters:    Size  Location     Type
  8806 ;;		None
  8807 ;; Auto vars:     Size  Location     Type
  8808 ;;		None
  8809 ;; Return value:  Size  Location     Type
  8810 ;;                  1    wreg      void 
  8811 ;; Registers used:
  8812 ;;		wreg, status,2, status,0, pclath, cstack
  8813 ;; Tracked objects:
  8814 ;;		On entry : 0/0
  8815 ;;		On exit  : 0/0
  8816 ;;		Unchanged: 0/0
  8817 ;; Data sizes:     COMMON   BANK0   BANK1   BANK2   BANK3   BANK4   BANK5   BANK6   BANK7   BANK8   BANK9  BANK10  BANK1
      +1  BANK12  BANK13  BANK14  BANK15  BANK16  BANK17  BANK18  BANK19  BANK20  BANK21  BANK22  BANK23  BANK24  BANK25
  8818 ;;      Params:         0       0       0       0       0       0       0       0       0       0       0       0       
      +0       0       0       0       0       0       0       0       0       0       0       0       0       0       0
  8819 ;;      Locals:         0       0       0       0       0       0       0       0       0       0       0       0       
      +0       0       0       0       0       0       0       0       0       0       0       0       0       0       0
  8820 ;;      Temps:          1       0       0       0       0       0       0       0       0       0       0       0       
      +0       0       0       0       0       0       0       0       0       0       0       0       0       0       0
  8821 ;;      Totals:         1       0       0       0       0       0       0       0       0       0       0       0       
      +0       0       0       0       0       0       0       0       0       0       0       0       0       0       0
  8822 ;;Total ram usage:        1 bytes
  8823 ;; Hardware stack levels used: 1
  8824 ;; Hardware stack levels required when called: 1
  8825 ;; This function calls:
  8826 ;;		_I2C_ClearErrors
  8827 ;; This function is called by:
  8828 ;;		_main
  8829 ;; This function uses a non-reentrant model
  8830 ;;
  8831                           
  8832     178D                     _I2C_Init:	
  8833                           ;psect for function _I2C_Init
  8834                           
  8835     178D                     l3077:	
  8836                           ;incstack = 0
  8837                           ; Regs used in _I2C_Init: [wreg+status,2+status,0+pclath+cstack]
  8838                           
  8839                           
  8840                           ;I2C.c: 44:     SSPCONbits.SSPM = 0x08;
  8841     178D  0024               	movlb	4	; select bank4
  8842     178E  0815               	movf	21,w	;volatile
  8843     178F  39F0               	andlw	-16
  8844     1790  3808               	iorlw	8
  8845     1791  0095               	movwf	21	;volatile
  8846     1792                     l3079:
  8847                           
  8848                           ;I2C.c: 47:     SSPCONbits.SSPEN = 1;
  8849     1792  1695               	bsf	21,5	;volatile
  8850     1793                     l3081:
  8851                           
  8852                           ;I2C.c: 50:     SSPADD = 79;
  8853     1793  304F               	movlw	79
  8854     1794  0092               	movwf	18	;volatile
  8855     1795                     l3083:
  8856                           
  8857                           ;I2C.c: 52:     I2C_ClearErrors();
  8858     1795  3197  2771  3197   	fcall	_I2C_ClearErrors
  8859     1798                     l3085:
  8860                           
  8861                           ;I2C.c: 53:     _delay((unsigned long)((10)*(32000000/4000.0)));
  8862     1798  3068               	movlw	104
  8863     1799  00F0               	movwf	??_I2C_Init
  8864     179A  30E4               	movlw	228
  8865     179B                     u3967:
  8866     179B  0B89               	decfsz	9,f
  8867     179C  2F9B               	goto	u3967
  8868     179D  0BF0               	decfsz	??_I2C_Init,f
  8869     179E  2F9B               	goto	u3967
  8870     179F  3200               	nop2
  8871     17A0                     l32:
  8872     17A0  0008               	return
  8873     17A1                     __end_of_I2C_Init:
  8874                           
  8875                           	psect	text33
  8876     1771                     __ptext33:	
  8877 ;; *************** function _I2C_ClearErrors *****************
  8878 ;; Defined at:
  8879 ;;		line 62 in file "I2C.c"
  8880 ;; Parameters:    Size  Location     Type
  8881 ;;		None
  8882 ;; Auto vars:     Size  Location     Type
  8883 ;;		None
  8884 ;; Return value:  Size  Location     Type
  8885 ;;                  1    wreg      void 
  8886 ;; Registers used:
  8887 ;;		None
  8888 ;; Tracked objects:
  8889 ;;		On entry : 0/0
  8890 ;;		On exit  : 0/0
  8891 ;;		Unchanged: 0/0
  8892 ;; Data sizes:     COMMON   BANK0   BANK1   BANK2   BANK3   BANK4   BANK5   BANK6   BANK7   BANK8   BANK9  BANK10  BANK1
      +1  BANK12  BANK13  BANK14  BANK15  BANK16  BANK17  BANK18  BANK19  BANK20  BANK21  BANK22  BANK23  BANK24  BANK25
  8893 ;;      Params:         0       0       0       0       0       0       0       0       0       0       0       0       
      +0       0       0       0       0       0       0       0       0       0       0       0       0       0       0
  8894 ;;      Locals:         0       0       0       0       0       0       0       0       0       0       0       0       
      +0       0       0       0       0       0       0       0       0       0       0       0       0       0       0
  8895 ;;      Temps:          0       0       0       0       0       0       0       0       0       0       0       0       
      +0       0       0       0       0       0       0       0       0       0       0       0       0       0       0
  8896 ;;      Totals:         0       0       0       0       0       0       0       0       0       0       0       0       
      +0       0       0       0       0       0       0       0       0       0       0       0       0       0       0
  8897 ;;Total ram usage:        0 bytes
  8898 ;; Hardware stack levels used: 1
  8899 ;; This function calls:
  8900 ;;		Nothing
  8901 ;; This function is called by:
  8902 ;;		_I2C_Init
  8903 ;; This function uses a non-reentrant model
  8904 ;;
  8905                           
  8906     1771                     _I2C_ClearErrors:	
  8907                           ;psect for function _I2C_ClearErrors
  8908                           
  8909     1771                     l2677:	
  8910                           ;incstack = 0
  8911                           ; Regs used in _I2C_ClearErrors: []
  8912                           
  8913                           
  8914                           ;I2C.c: 65:     SSPCON1bits.SSPOV = 0;
  8915     1771  0024               	movlb	4	; select bank4
  8916     1772  1315               	bcf	21,6	;volatile
  8917                           
  8918                           ;I2C.c: 66:     SSPCON1bits.WCOL = 0;
  8919     1773  1395               	bcf	21,7	;volatile
  8920                           
  8921                           ;I2C.c: 69:     PIR2bits.BCL1IF = 0;
  8922     1774  0020               	movlb	0	; select bank0
  8923     1775  1192               	bcf	18,3	;volatile
  8924                           
  8925                           ;I2C.c: 72:     PIR1bits.SSP1IF = 0;
  8926     1776  1191               	bcf	17,3	;volatile
  8927     1777                     l35:
  8928     1777  0008               	return
  8929     1778                     __end_of_I2C_ClearErrors:
  8930                           
  8931                           	psect	text34
  8932     0064                     __ptext34:	
  8933 ;; *************** function _DS1302_Initialize *****************
  8934 ;; Defined at:
  8935 ;;		line 105 in file "ds1302.c"
  8936 ;; Parameters:    Size  Location     Type
  8937 ;;  sec             1    wreg     unsigned char 
  8938 ;;  min             1    0[BANK0 ] unsigned char 
  8939 ;;  hr              1    1[BANK0 ] unsigned char 
  8940 ;;  day             1    2[BANK0 ] unsigned char 
  8941 ;;  date            1    3[BANK0 ] unsigned char 
  8942 ;;  mth             1    4[BANK0 ] unsigned char 
  8943 ;;  year            1    5[BANK0 ] unsigned char 
  8944 ;; Auto vars:     Size  Location     Type
  8945 ;;  sec             1    6[BANK0 ] unsigned char 
  8946 ;;  year1           1   13[BANK0 ] unsigned char 
  8947 ;;  mth1            1   12[BANK0 ] unsigned char 
  8948 ;;  date1           1   11[BANK0 ] unsigned char 
  8949 ;;  day1            1   10[BANK0 ] unsigned char 
  8950 ;;  hr1             1    9[BANK0 ] unsigned char 
  8951 ;;  min1            1    8[BANK0 ] unsigned char 
  8952 ;;  sec1            1    7[BANK0 ] unsigned char 
  8953 ;; Return value:  Size  Location     Type
  8954 ;;                  1    wreg      void 
  8955 ;; Registers used:
  8956 ;;		wreg, status,2, status,0, pclath, cstack
  8957 ;; Tracked objects:
  8958 ;;		On entry : 0/0
  8959 ;;		On exit  : 0/0
  8960 ;;		Unchanged: 0/0
  8961 ;; Data sizes:     COMMON   BANK0   BANK1   BANK2   BANK3   BANK4   BANK5   BANK6   BANK7   BANK8   BANK9  BANK10  BANK1
      +1  BANK12  BANK13  BANK14  BANK15  BANK16  BANK17  BANK18  BANK19  BANK20  BANK21  BANK22  BANK23  BANK24  BANK25
  8962 ;;      Params:         0       6       0       0       0       0       0       0       0       0       0       0       
      +0       0       0       0       0       0       0       0       0       0       0       0       0       0       0
  8963 ;;      Locals:         0       8       0       0       0       0       0       0       0       0       0       0       
      +0       0       0       0       0       0       0       0       0       0       0       0       0       0       0
  8964 ;;      Temps:          0       0       0       0       0       0       0       0       0       0       0       0       
      +0       0       0       0       0       0       0       0       0       0       0       0       0       0       0
  8965 ;;      Totals:         0      14       0       0       0       0       0       0       0       0       0       0       
      +0       0       0       0       0       0       0       0       0       0       0       0       0       0       0
  8966 ;;Total ram usage:       14 bytes
  8967 ;; Hardware stack levels used: 1
  8968 ;; Hardware stack levels required when called: 2
  8969 ;; This function calls:
  8970 ;;		_DS1302_Reset
  8971 ;;		_DS1302_WriteByte
  8972 ;;		_get_bcd
  8973 ;; This function is called by:
  8974 ;;		_main
  8975 ;; This function uses a non-reentrant model
  8976 ;;
  8977                           
  8978     0064                     _DS1302_Initialize:	
  8979                           ;psect for function _DS1302_Initialize
  8980                           
  8981                           
  8982                           ;incstack = 0
  8983                           ; Regs used in _DS1302_Initialize: [wreg+status,2+status,0+pclath+cstack]
  8984                           ;DS1302_Initialize@sec stored from wreg
  8985     0064  0020               	movlb	0	; select bank0
  8986     0065  00A6               	movwf	DS1302_Initialize@sec
  8987     0066                     l3227:
  8988                           
  8989                           ;ds1302.c: 105: void DS1302_Initialize(byte sec, byte min, byte hr, byte day, byte date,
      +                          ;ds1302.c: 106:                        byte mth, byte year);ds1302.c: 107: {;ds1302.c: 1
      +                          09:     byte sec1 = get_bcd(sec);
  8990     0066  0826               	movf	DS1302_Initialize@sec,w
  8991     0067  318B  2370  3180   	fcall	_get_bcd
  8992     006A  0020               	movlb	0	; select bank0
  8993     006B  00A7               	movwf	DS1302_Initialize@sec1
  8994                           
  8995                           ;ds1302.c: 110:     byte min1 = get_bcd(min);
  8996     006C  0820               	movf	DS1302_Initialize@min,w
  8997     006D  318B  2370  3180   	fcall	_get_bcd
  8998     0070  0020               	movlb	0	; select bank0
  8999     0071  00A8               	movwf	DS1302_Initialize@min1
  9000                           
  9001                           ;ds1302.c: 111:     byte hr1 = get_bcd(hr);
  9002     0072  0821               	movf	DS1302_Initialize@hr,w
  9003     0073  318B  2370  3180   	fcall	_get_bcd
  9004     0076  0020               	movlb	0	; select bank0
  9005     0077  00A9               	movwf	DS1302_Initialize@hr1
  9006                           
  9007                           ;ds1302.c: 112:     byte day1 = get_bcd(day);
  9008     0078  0822               	movf	DS1302_Initialize@day,w
  9009     0079  318B  2370  3180   	fcall	_get_bcd
  9010     007C  0020               	movlb	0	; select bank0
  9011     007D  00AA               	movwf	DS1302_Initialize@day1
  9012                           
  9013                           ;ds1302.c: 113:     byte date1 = get_bcd(date);
  9014     007E  0823               	movf	DS1302_Initialize@date,w
  9015     007F  318B  2370  3180   	fcall	_get_bcd
  9016     0082  0020               	movlb	0	; select bank0
  9017     0083  00AB               	movwf	DS1302_Initialize@date1
  9018                           
  9019                           ;ds1302.c: 114:     byte mth1 = get_bcd(mth);
  9020     0084  0824               	movf	DS1302_Initialize@mth,w
  9021     0085  318B  2370  3180   	fcall	_get_bcd
  9022     0088  0020               	movlb	0	; select bank0
  9023     0089  00AC               	movwf	DS1302_Initialize@mth1
  9024                           
  9025                           ;ds1302.c: 115:     byte year1 = get_bcd(year);
  9026     008A  0825               	movf	DS1302_Initialize@year,w
  9027     008B  318B  2370  3180   	fcall	_get_bcd
  9028     008E  0020               	movlb	0	; select bank0
  9029     008F  00AD               	movwf	DS1302_Initialize@year1
  9030     0090                     l3229:
  9031                           
  9032                           ;ds1302.c: 118:     DS1302_Reset();
  9033     0090  3197  276C  3180   	fcall	_DS1302_Reset
  9034     0093                     l3231:
  9035                           
  9036                           ;ds1302.c: 119:     DS1302_WriteByte(0x8e);
  9037     0093  308E               	movlw	142
  9038     0094  3197  27CB  3180   	fcall	_DS1302_WriteByte
  9039     0097                     l3233:
  9040                           
  9041                           ;ds1302.c: 120:     DS1302_WriteByte(0);
  9042     0097  3000               	movlw	0
  9043     0098  3197  27CB  3180   	fcall	_DS1302_WriteByte
  9044     009B                     l3235:
  9045                           
  9046                           ;ds1302.c: 121:     DS1302_Reset();
  9047     009B  3197  276C  3180   	fcall	_DS1302_Reset
  9048                           
  9049                           ;ds1302.c: 122:     DS1302_WriteByte(0x90);
  9050     009E  3090               	movlw	144
  9051     009F  3197  27CB  3180   	fcall	_DS1302_WriteByte
  9052                           
  9053                           ;ds1302.c: 123:     DS1302_WriteByte(0xab);
  9054     00A2  30AB               	movlw	171
  9055     00A3  3197  27CB  3180   	fcall	_DS1302_WriteByte
  9056     00A6                     l3237:
  9057                           
  9058                           ;ds1302.c: 124:     DS1302_Reset();
  9059     00A6  3197  276C  3180   	fcall	_DS1302_Reset
  9060     00A9                     l3239:
  9061                           
  9062                           ;ds1302.c: 125:     DS1302_WriteByte(0xbe);
  9063     00A9  30BE               	movlw	190
  9064     00AA  3197  27CB  3180   	fcall	_DS1302_WriteByte
  9065     00AD                     l3241:
  9066                           
  9067                           ;ds1302.c: 126:     DS1302_WriteByte(sec1);
  9068     00AD  0020               	movlb	0	; select bank0
  9069     00AE  0827               	movf	DS1302_Initialize@sec1,w
  9070     00AF  3197  27CB  3180   	fcall	_DS1302_WriteByte
  9071     00B2                     l3243:
  9072                           
  9073                           ;ds1302.c: 127:     DS1302_WriteByte(min1);
  9074     00B2  0020               	movlb	0	; select bank0
  9075     00B3  0828               	movf	DS1302_Initialize@min1,w
  9076     00B4  3197  27CB  3180   	fcall	_DS1302_WriteByte
  9077     00B7                     l3245:
  9078                           
  9079                           ;ds1302.c: 128:     DS1302_WriteByte(hr1);
  9080     00B7  0020               	movlb	0	; select bank0
  9081     00B8  0829               	movf	DS1302_Initialize@hr1,w
  9082     00B9  3197  27CB  3180   	fcall	_DS1302_WriteByte
  9083     00BC                     l3247:
  9084                           
  9085                           ;ds1302.c: 129:     DS1302_WriteByte(date1);
  9086     00BC  0020               	movlb	0	; select bank0
  9087     00BD  082B               	movf	DS1302_Initialize@date1,w
  9088     00BE  3197  27CB  3180   	fcall	_DS1302_WriteByte
  9089     00C1                     l3249:
  9090                           
  9091                           ;ds1302.c: 130:     DS1302_WriteByte(mth1);
  9092     00C1  0020               	movlb	0	; select bank0
  9093     00C2  082C               	movf	DS1302_Initialize@mth1,w
  9094     00C3  3197  27CB  3180   	fcall	_DS1302_WriteByte
  9095     00C6                     l3251:
  9096                           
  9097                           ;ds1302.c: 131:     DS1302_WriteByte(day1);
  9098     00C6  0020               	movlb	0	; select bank0
  9099     00C7  082A               	movf	DS1302_Initialize@day1,w
  9100     00C8  3197  27CB  3180   	fcall	_DS1302_WriteByte
  9101     00CB                     l3253:
  9102                           
  9103                           ;ds1302.c: 132:     DS1302_WriteByte(year1);
  9104     00CB  0020               	movlb	0	; select bank0
  9105     00CC  082D               	movf	DS1302_Initialize@year1,w
  9106     00CD  3197  27CB  3180   	fcall	_DS1302_WriteByte
  9107     00D0                     l3255:
  9108                           
  9109                           ;ds1302.c: 133:     DS1302_WriteByte(0);
  9110     00D0  3000               	movlw	0
  9111     00D1  3197  27CB  3180   	fcall	_DS1302_WriteByte
  9112                           
  9113                           ;ds1302.c: 134:     DS1302_Reset();
  9114     00D4  3197  276C  3180   	fcall	_DS1302_Reset
  9115     00D7                     l415:
  9116     00D7  0008               	return
  9117     00D8                     __end_of_DS1302_Initialize:
  9118                           
  9119                           	psect	text35
  9120     0B70                     __ptext35:	
  9121 ;; *************** function _get_bcd *****************
  9122 ;; Defined at:
  9123 ;;		line 147 in file "ds1302.c"
  9124 ;; Parameters:    Size  Location     Type
  9125 ;;  data            1    wreg     unsigned char 
  9126 ;; Auto vars:     Size  Location     Type
  9127 ;;  data            1   12[COMMON] unsigned char 
  9128 ;;  nibh            1   13[COMMON] unsigned char 
  9129 ;;  nibl            1   11[COMMON] unsigned char 
  9130 ;; Return value:  Size  Location     Type
  9131 ;;                  1    wreg      unsigned char 
  9132 ;; Registers used:
  9133 ;;		wreg, status,2, status,0, pclath, cstack
  9134 ;; Tracked objects:
  9135 ;;		On entry : 0/0
  9136 ;;		On exit  : 0/0
  9137 ;;		Unchanged: 0/0
  9138 ;; Data sizes:     COMMON   BANK0   BANK1   BANK2   BANK3   BANK4   BANK5   BANK6   BANK7   BANK8   BANK9  BANK10  BANK1
      +1  BANK12  BANK13  BANK14  BANK15  BANK16  BANK17  BANK18  BANK19  BANK20  BANK21  BANK22  BANK23  BANK24  BANK25
  9139 ;;      Params:         0       0       0       0       0       0       0       0       0       0       0       0       
      +0       0       0       0       0       0       0       0       0       0       0       0       0       0       0
  9140 ;;      Locals:         3       0       0       0       0       0       0       0       0       0       0       0       
      +0       0       0       0       0       0       0       0       0       0       0       0       0       0       0
  9141 ;;      Temps:          2       0       0       0       0       0       0       0       0       0       0       0       
      +0       0       0       0       0       0       0       0       0       0       0       0       0       0       0
  9142 ;;      Totals:         5       0       0       0       0       0       0       0       0       0       0       0       
      +0       0       0       0       0       0       0       0       0       0       0       0       0       0       0
  9143 ;;Total ram usage:        5 bytes
  9144 ;; Hardware stack levels used: 1
  9145 ;; Hardware stack levels required when called: 1
  9146 ;; This function calls:
  9147 ;;		___awdiv
  9148 ;;		___bmul
  9149 ;; This function is called by:
  9150 ;;		_DS1302_Initialize
  9151 ;; This function uses a non-reentrant model
  9152 ;;
  9153                           
  9154     0B70                     _get_bcd:	
  9155                           ;psect for function _get_bcd
  9156                           
  9157                           
  9158                           ;incstack = 0
  9159                           ; Regs used in _get_bcd: [wreg+status,2+status,0+pclath+cstack]
  9160                           ;get_bcd@data stored from wreg
  9161     0B70  00FC               	movwf	get_bcd@data
  9162     0B71                     l3071:
  9163                           
  9164                           ;ds1302.c: 147: unsigned char get_bcd(unsigned char data);ds1302.c: 148: {;ds1302.c: 149
      +                          :    unsigned char nibh;;ds1302.c: 150:    unsigned char nibl;;ds1302.c: 152:    nibh=da
      +                          ta/10;
  9165     0B71  300A               	movlw	10
  9166     0B72  00F0               	movwf	___awdiv@divisor
  9167     0B73  3000               	movlw	0
  9168     0B74  00F1               	movwf	___awdiv@divisor+1
  9169     0B75  087C               	movf	get_bcd@data,w
  9170     0B76  00F9               	movwf	??_get_bcd
  9171     0B77  01FA               	clrf	??_get_bcd+1
  9172     0B78  0879               	movf	??_get_bcd,w
  9173     0B79  00F2               	movwf	___awdiv@dividend
  9174     0B7A  087A               	movf	??_get_bcd+1,w
  9175     0B7B  00F3               	movwf	___awdiv@dividend+1
  9176     0B7C  3180  2005  318B   	fcall	___awdiv
  9177     0B7F  0870               	movf	?___awdiv,w
  9178     0B80  00FD               	movwf	get_bcd@nibh
  9179                           
  9180                           ;ds1302.c: 153:    nibl=data-(nibh*10);
  9181     0B81  30F6               	movlw	246
  9182     0B82  00F0               	movwf	___bmul@multiplicand
  9183     0B83  087D               	movf	get_bcd@nibh,w
  9184     0B84  3197  27A1  318B   	fcall	___bmul
  9185     0B87  077C               	addwf	get_bcd@data,w
  9186     0B88  00FB               	movwf	get_bcd@nibl
  9187     0B89                     l3073:
  9188                           
  9189                           ;ds1302.c: 155:    return((nibh<<4)|nibl);
  9190     0B89  087D               	movf	get_bcd@nibh,w
  9191     0B8A  00F9               	movwf	??_get_bcd
  9192     0B8B  3003               	movlw	3
  9193     0B8C                     u3635:
  9194     0B8C  35F9               	lslf	??_get_bcd,f
  9195     0B8D  3EFF               	addlw	-1
  9196     0B8E  1D03               	skipz
  9197     0B8F  2B8C               	goto	u3635
  9198     0B90  3579               	lslf	??_get_bcd,w
  9199     0B91  047B               	iorwf	get_bcd@nibl,w
  9200     0B92                     l418:
  9201     0B92  0008               	return
  9202     0B93                     __end_of_get_bcd:
  9203                           
  9204                           	psect	text36
  9205     17A1                     __ptext36:	
  9206 ;; *************** function ___bmul *****************
  9207 ;; Defined at:
  9208 ;;		line 4 in file "C:\Program Files\Microchip\xc8\v2.46\pic\sources\c99\common\Umul8.c"
  9209 ;; Parameters:    Size  Location     Type
  9210 ;;  multiplier      1    wreg     unsigned char 
  9211 ;;  multiplicand    1    0[COMMON] unsigned char 
  9212 ;; Auto vars:     Size  Location     Type
  9213 ;;  multiplier      1    3[COMMON] unsigned char 
  9214 ;;  product         1    2[COMMON] unsigned char 
  9215 ;; Return value:  Size  Location     Type
  9216 ;;                  1    wreg      unsigned char 
  9217 ;; Registers used:
  9218 ;;		wreg, status,2, status,0
  9219 ;; Tracked objects:
  9220 ;;		On entry : 0/0
  9221 ;;		On exit  : 0/0
  9222 ;;		Unchanged: 0/0
  9223 ;; Data sizes:     COMMON   BANK0   BANK1   BANK2   BANK3   BANK4   BANK5   BANK6   BANK7   BANK8   BANK9  BANK10  BANK1
      +1  BANK12  BANK13  BANK14  BANK15  BANK16  BANK17  BANK18  BANK19  BANK20  BANK21  BANK22  BANK23  BANK24  BANK25
  9224 ;;      Params:         1       0       0       0       0       0       0       0       0       0       0       0       
      +0       0       0       0       0       0       0       0       0       0       0       0       0       0       0
  9225 ;;      Locals:         2       0       0       0       0       0       0       0       0       0       0       0       
      +0       0       0       0       0       0       0       0       0       0       0       0       0       0       0
  9226 ;;      Temps:          1       0       0       0       0       0       0       0       0       0       0       0       
      +0       0       0       0       0       0       0       0       0       0       0       0       0       0       0
  9227 ;;      Totals:         4       0       0       0       0       0       0       0       0       0       0       0       
      +0       0       0       0       0       0       0       0       0       0       0       0       0       0       0
  9228 ;;Total ram usage:        4 bytes
  9229 ;; Hardware stack levels used: 1
  9230 ;; This function calls:
  9231 ;;		Nothing
  9232 ;; This function is called by:
  9233 ;;		_get_bcd
  9234 ;;		_get_dec
  9235 ;; This function uses a non-reentrant model
  9236 ;;
  9237                           
  9238     17A1                     ___bmul:	
  9239                           ;psect for function ___bmul
  9240                           
  9241                           
  9242                           ;incstack = 0
  9243                           ; Regs used in ___bmul: [wreg+status,2+status,0]
  9244                           ;___bmul@multiplier stored from wreg
  9245     17A1  00F3               	movwf	___bmul@multiplier
  9246     17A2                     l2417:
  9247     17A2  01F2               	clrf	___bmul@product
  9248     17A3                     l2419:
  9249     17A3  1C73               	btfss	___bmul@multiplier,0
  9250     17A4  2FA6               	goto	u2261
  9251     17A5  2FA7               	goto	u2260
  9252     17A6                     u2261:
  9253     17A6  2FAB               	goto	l2423
  9254     17A7                     u2260:
  9255     17A7                     l2421:
  9256     17A7  0870               	movf	___bmul@multiplicand,w
  9257     17A8  00F1               	movwf	??___bmul
  9258     17A9  0871               	movf	??___bmul,w
  9259     17AA  07F2               	addwf	___bmul@product,f
  9260     17AB                     l2423:
  9261     17AB  1003               	clrc
  9262     17AC  0DF0               	rlf	___bmul@multiplicand,f
  9263     17AD                     l2425:
  9264     17AD  1003               	clrc
  9265     17AE  0CF3               	rrf	___bmul@multiplier,f
  9266     17AF  0873               	movf	___bmul@multiplier,w
  9267     17B0  1D03               	btfss	3,2
  9268     17B1  2FB3               	goto	u2271
  9269     17B2  2FB4               	goto	u2270
  9270     17B3                     u2271:
  9271     17B3  2FA3               	goto	l2419
  9272     17B4                     u2270:
  9273     17B4                     l2427:
  9274     17B4  0872               	movf	___bmul@product,w
  9275     17B5                     l515:
  9276     17B5  0008               	return
  9277     17B6                     __end_of___bmul:
  9278                           
  9279                           	psect	text37
  9280     0005                     __ptext37:	
  9281 ;; *************** function ___awdiv *****************
  9282 ;; Defined at:
  9283 ;;		line 5 in file "C:\Program Files\Microchip\xc8\v2.46\pic\sources\c99\common\awdiv.c"
  9284 ;; Parameters:    Size  Location     Type
  9285 ;;  divisor         2    0[COMMON] int 
  9286 ;;  dividend        2    2[COMMON] int 
  9287 ;; Auto vars:     Size  Location     Type
  9288 ;;  quotient        2    7[COMMON] int 
  9289 ;;  sign            1    6[COMMON] unsigned char 
  9290 ;;  counter         1    5[COMMON] unsigned char 
  9291 ;; Return value:  Size  Location     Type
  9292 ;;                  2    0[COMMON] int 
  9293 ;; Registers used:
  9294 ;;		wreg, status,2, status,0
  9295 ;; Tracked objects:
  9296 ;;		On entry : 0/0
  9297 ;;		On exit  : 0/0
  9298 ;;		Unchanged: 0/0
  9299 ;; Data sizes:     COMMON   BANK0   BANK1   BANK2   BANK3   BANK4   BANK5   BANK6   BANK7   BANK8   BANK9  BANK10  BANK1
      +1  BANK12  BANK13  BANK14  BANK15  BANK16  BANK17  BANK18  BANK19  BANK20  BANK21  BANK22  BANK23  BANK24  BANK25
  9300 ;;      Params:         4       0       0       0       0       0       0       0       0       0       0       0       
      +0       0       0       0       0       0       0       0       0       0       0       0       0       0       0
  9301 ;;      Locals:         4       0       0       0       0       0       0       0       0       0       0       0       
      +0       0       0       0       0       0       0       0       0       0       0       0       0       0       0
  9302 ;;      Temps:          1       0       0       0       0       0       0       0       0       0       0       0       
      +0       0       0       0       0       0       0       0       0       0       0       0       0       0       0
  9303 ;;      Totals:         9       0       0       0       0       0       0       0       0       0       0       0       
      +0       0       0       0       0       0       0       0       0       0       0       0       0       0       0
  9304 ;;Total ram usage:        9 bytes
  9305 ;; Hardware stack levels used: 1
  9306 ;; This function calls:
  9307 ;;		Nothing
  9308 ;; This function is called by:
  9309 ;;		_OLED_Printf_Line
  9310 ;;		_get_bcd
  9311 ;;		_OLED_DrawBattery
  9312 ;; This function uses a non-reentrant model
  9313 ;;
  9314                           
  9315     0005                     ___awdiv:	
  9316                           ;psect for function ___awdiv
  9317                           
  9318     0005                     l2527:	
  9319                           ;incstack = 0
  9320                           ; Regs used in ___awdiv: [wreg+status,2+status,0]
  9321                           
  9322     0005  01F6               	clrf	___awdiv@sign
  9323     0006                     l2529:
  9324     0006  1FF1               	btfss	___awdiv@divisor+1,7
  9325     0007  2809               	goto	u2541
  9326     0008  280A               	goto	u2540
  9327     0009                     u2541:
  9328     0009  2811               	goto	l2535
  9329     000A                     u2540:
  9330     000A                     l2531:
  9331     000A  09F0               	comf	___awdiv@divisor,f
  9332     000B  09F1               	comf	___awdiv@divisor+1,f
  9333     000C  0AF0               	incf	___awdiv@divisor,f
  9334     000D  1903               	skipnz
  9335     000E  0AF1               	incf	___awdiv@divisor+1,f
  9336     000F                     l2533:
  9337     000F  01F6               	clrf	___awdiv@sign
  9338     0010  0AF6               	incf	___awdiv@sign,f
  9339     0011                     l2535:
  9340     0011  1FF3               	btfss	___awdiv@dividend+1,7
  9341     0012  2814               	goto	u2551
  9342     0013  2815               	goto	u2550
  9343     0014                     u2551:
  9344     0014  281E               	goto	l2541
  9345     0015                     u2550:
  9346     0015                     l2537:
  9347     0015  09F2               	comf	___awdiv@dividend,f
  9348     0016  09F3               	comf	___awdiv@dividend+1,f
  9349     0017  0AF2               	incf	___awdiv@dividend,f
  9350     0018  1903               	skipnz
  9351     0019  0AF3               	incf	___awdiv@dividend+1,f
  9352     001A                     l2539:
  9353     001A  3001               	movlw	1
  9354     001B  00F4               	movwf	??___awdiv
  9355     001C  0874               	movf	??___awdiv,w
  9356     001D  06F6               	xorwf	___awdiv@sign,f
  9357     001E                     l2541:
  9358     001E  01F7               	clrf	___awdiv@quotient
  9359     001F  01F8               	clrf	___awdiv@quotient+1
  9360     0020                     l2543:
  9361     0020  0870               	movf	___awdiv@divisor,w
  9362     0021  0471               	iorwf	___awdiv@divisor+1,w
  9363     0022  1903               	btfsc	3,2
  9364     0023  2825               	goto	u2561
  9365     0024  2826               	goto	u2560
  9366     0025                     u2561:
  9367     0025  2855               	goto	l2563
  9368     0026                     u2560:
  9369     0026                     l2545:
  9370     0026  01F5               	clrf	___awdiv@counter
  9371     0027  0AF5               	incf	___awdiv@counter,f
  9372     0028  2832               	goto	l2551
  9373     0029                     l2547:
  9374     0029  3001               	movlw	1
  9375     002A                     u2575:
  9376     002A  35F0               	lslf	___awdiv@divisor,f
  9377     002B  0DF1               	rlf	___awdiv@divisor+1,f
  9378     002C  0B89               	decfsz	9,f
  9379     002D  282A               	goto	u2575
  9380     002E                     l2549:
  9381     002E  3001               	movlw	1
  9382     002F  00F4               	movwf	??___awdiv
  9383     0030  0874               	movf	??___awdiv,w
  9384     0031  07F5               	addwf	___awdiv@counter,f
  9385     0032                     l2551:
  9386     0032  1FF1               	btfss	___awdiv@divisor+1,7
  9387     0033  2835               	goto	u2581
  9388     0034  2836               	goto	u2580
  9389     0035                     u2581:
  9390     0035  2829               	goto	l2547
  9391     0036                     u2580:
  9392     0036                     l2553:
  9393     0036  3001               	movlw	1
  9394     0037                     u2595:
  9395     0037  35F7               	lslf	___awdiv@quotient,f
  9396     0038  0DF8               	rlf	___awdiv@quotient+1,f
  9397     0039  0B89               	decfsz	9,f
  9398     003A  2837               	goto	u2595
  9399     003B  0871               	movf	___awdiv@divisor+1,w
  9400     003C  0273               	subwf	___awdiv@dividend+1,w
  9401     003D  1D03               	skipz
  9402     003E  2841               	goto	u2605
  9403     003F  0870               	movf	___awdiv@divisor,w
  9404     0040  0272               	subwf	___awdiv@dividend,w
  9405     0041                     u2605:
  9406     0041  1C03               	skipc
  9407     0042  2844               	goto	u2601
  9408     0043  2845               	goto	u2600
  9409     0044                     u2601:
  9410     0044  284A               	goto	l2559
  9411     0045                     u2600:
  9412     0045                     l2555:
  9413     0045  0870               	movf	___awdiv@divisor,w
  9414     0046  02F2               	subwf	___awdiv@dividend,f
  9415     0047  0871               	movf	___awdiv@divisor+1,w
  9416     0048  3BF3               	subwfb	___awdiv@dividend+1,f
  9417     0049                     l2557:
  9418     0049  1477               	bsf	___awdiv@quotient,0
  9419     004A                     l2559:
  9420     004A  3001               	movlw	1
  9421     004B                     u2615:
  9422     004B  36F1               	lsrf	___awdiv@divisor+1,f
  9423     004C  0CF0               	rrf	___awdiv@divisor,f
  9424     004D  0B89               	decfsz	9,f
  9425     004E  284B               	goto	u2615
  9426     004F                     l2561:
  9427     004F  3001               	movlw	1
  9428     0050  02F5               	subwf	___awdiv@counter,f
  9429     0051  1D03               	btfss	3,2
  9430     0052  2854               	goto	u2621
  9431     0053  2855               	goto	u2620
  9432     0054                     u2621:
  9433     0054  2836               	goto	l2553
  9434     0055                     u2620:
  9435     0055                     l2563:
  9436     0055  0876               	movf	___awdiv@sign,w
  9437     0056  1903               	btfsc	3,2
  9438     0057  2859               	goto	u2631
  9439     0058  285A               	goto	u2630
  9440     0059                     u2631:
  9441     0059  285F               	goto	l2567
  9442     005A                     u2630:
  9443     005A                     l2565:
  9444     005A  09F7               	comf	___awdiv@quotient,f
  9445     005B  09F8               	comf	___awdiv@quotient+1,f
  9446     005C  0AF7               	incf	___awdiv@quotient,f
  9447     005D  1903               	skipnz
  9448     005E  0AF8               	incf	___awdiv@quotient+1,f
  9449     005F                     l2567:
  9450     005F  0878               	movf	___awdiv@quotient+1,w
  9451     0060  00F1               	movwf	?___awdiv+1
  9452     0061  0877               	movf	___awdiv@quotient,w
  9453     0062  00F0               	movwf	?___awdiv
  9454     0063                     l642:
  9455     0063  0008               	return
  9456     0064                     __end_of___awdiv:
  9457                           
  9458                           	psect	text38
  9459     17CB                     __ptext38:	
  9460 ;; *************** function _DS1302_WriteByte *****************
  9461 ;; Defined at:
  9462 ;;		line 43 in file "ds1302.c"
  9463 ;; Parameters:    Size  Location     Type
  9464 ;;  W_Byte          1    wreg     unsigned char 
  9465 ;; Auto vars:     Size  Location     Type
  9466 ;;  W_Byte          1    1[COMMON] unsigned char 
  9467 ;;  i               1    2[COMMON] unsigned char 
  9468 ;; Return value:  Size  Location     Type
  9469 ;;                  1    wreg      void 
  9470 ;; Registers used:
  9471 ;;		wreg, status,2, status,0
  9472 ;; Tracked objects:
  9473 ;;		On entry : 0/0
  9474 ;;		On exit  : 0/0
  9475 ;;		Unchanged: 0/0
  9476 ;; Data sizes:     COMMON   BANK0   BANK1   BANK2   BANK3   BANK4   BANK5   BANK6   BANK7   BANK8   BANK9  BANK10  BANK1
      +1  BANK12  BANK13  BANK14  BANK15  BANK16  BANK17  BANK18  BANK19  BANK20  BANK21  BANK22  BANK23  BANK24  BANK25
  9477 ;;      Params:         0       0       0       0       0       0       0       0       0       0       0       0       
      +0       0       0       0       0       0       0       0       0       0       0       0       0       0       0
  9478 ;;      Locals:         2       0       0       0       0       0       0       0       0       0       0       0       
      +0       0       0       0       0       0       0       0       0       0       0       0       0       0       0
  9479 ;;      Temps:          1       0       0       0       0       0       0       0       0       0       0       0       
      +0       0       0       0       0       0       0       0       0       0       0       0       0       0       0
  9480 ;;      Totals:         3       0       0       0       0       0       0       0       0       0       0       0       
      +0       0       0       0       0       0       0       0       0       0       0       0       0       0       0
  9481 ;;Total ram usage:        3 bytes
  9482 ;; Hardware stack levels used: 1
  9483 ;; This function calls:
  9484 ;;		Nothing
  9485 ;; This function is called by:
  9486 ;;		_RTC_ReadBurst
  9487 ;;		_DS1302_Initialize
  9488 ;; This function uses a non-reentrant model
  9489 ;;
  9490                           
  9491     17CB                     _DS1302_WriteByte:	
  9492                           ;psect for function _DS1302_WriteByte
  9493                           
  9494                           
  9495                           ;incstack = 0
  9496                           ; Regs used in _DS1302_WriteByte: [wreg+status,2+status,0]
  9497                           ;DS1302_WriteByte@W_Byte stored from wreg
  9498     17CB  00F1               	movwf	DS1302_WriteByte@W_Byte
  9499     17CC                     l3023:
  9500                           
  9501                           ;ds1302.c: 43: void DS1302_WriteByte(unsigned char W_Byte);ds1302.c: 44: {;ds1302.c: 45:
      +                               unsigned char i;;ds1302.c: 47:     for(i = 0; i < 8; ++i)
  9502     17CC  01F2               	clrf	DS1302_WriteByte@i
  9503     17CD                     l404:
  9504                           
  9505                           ;ds1302.c: 48:     {;ds1302.c: 49:         PORTBbits.RB2 = 0;
  9506     17CD  0020               	movlb	0	; select bank0
  9507     17CE  110D               	bcf	13,2	;volatile
  9508                           
  9509                           ;ds1302.c: 51:         if(W_Byte & 0x01)
  9510     17CF  1C71               	btfss	DS1302_WriteByte@W_Byte,0
  9511     17D0  2FD2               	goto	u3591
  9512     17D1  2FD3               	goto	u3590
  9513     17D2                     u3591:
  9514     17D2  2FD4               	goto	l406
  9515     17D3                     u3590:
  9516     17D3                     l3029:
  9517                           
  9518                           ;ds1302.c: 52:         {;ds1302.c: 53:             PORTBbits.RB2 = 1;
  9519     17D3  150D               	bsf	13,2	;volatile
  9520     17D4                     l406:	
  9521                           ;ds1302.c: 54:         }
  9522                           
  9523                           
  9524                           ;ds1302.c: 56:         LATBbits.LATB1 = 0;
  9525     17D4  0022               	movlb	2	; select bank2
  9526     17D5  108D               	bcf	13,1	;volatile
  9527                           
  9528                           ;ds1302.c: 57:         LATBbits.LATB1 = 1;
  9529     17D6  148D               	bsf	13,1	;volatile
  9530     17D7                     l3031:
  9531                           
  9532                           ;ds1302.c: 58:         W_Byte >>= 1;
  9533     17D7  1003               	clrc
  9534     17D8  0CF1               	rrf	DS1302_WriteByte@W_Byte,f
  9535     17D9                     l3033:
  9536                           
  9537                           ;ds1302.c: 59:     }
  9538     17D9  3001               	movlw	1
  9539     17DA  00F0               	movwf	??_DS1302_WriteByte
  9540     17DB  0870               	movf	??_DS1302_WriteByte,w
  9541     17DC  07F2               	addwf	DS1302_WriteByte@i,f
  9542     17DD                     l3035:
  9543     17DD  3008               	movlw	8
  9544     17DE  0272               	subwf	DS1302_WriteByte@i,w
  9545     17DF  1C03               	skipc
  9546     17E0  2FE2               	goto	u3601
  9547     17E1  2FE3               	goto	u3600
  9548     17E2                     u3601:
  9549     17E2  2FCD               	goto	l404
  9550     17E3                     u3600:
  9551     17E3                     l407:
  9552     17E3  0008               	return
  9553     17E4                     __end_of_DS1302_WriteByte:
  9554                           
  9555                           	psect	text39
  9556     176C                     __ptext39:	
  9557 ;; *************** function _DS1302_Reset *****************
  9558 ;; Defined at:
  9559 ;;		line 26 in file "ds1302.c"
  9560 ;; Parameters:    Size  Location     Type
  9561 ;;		None
  9562 ;; Auto vars:     Size  Location     Type
  9563 ;;		None
  9564 ;; Return value:  Size  Location     Type
  9565 ;;                  1    wreg      void 
  9566 ;; Registers used:
  9567 ;;		None
  9568 ;; Tracked objects:
  9569 ;;		On entry : 0/0
  9570 ;;		On exit  : 0/0
  9571 ;;		Unchanged: 0/0
  9572 ;; Data sizes:     COMMON   BANK0   BANK1   BANK2   BANK3   BANK4   BANK5   BANK6   BANK7   BANK8   BANK9  BANK10  BANK1
      +1  BANK12  BANK13  BANK14  BANK15  BANK16  BANK17  BANK18  BANK19  BANK20  BANK21  BANK22  BANK23  BANK24  BANK25
  9573 ;;      Params:         0       0       0       0       0       0       0       0       0       0       0       0       
      +0       0       0       0       0       0       0       0       0       0       0       0       0       0       0
  9574 ;;      Locals:         0       0       0       0       0       0       0       0       0       0       0       0       
      +0       0       0       0       0       0       0       0       0       0       0       0       0       0       0
  9575 ;;      Temps:          0       0       0       0       0       0       0       0       0       0       0       0       
      +0       0       0       0       0       0       0       0       0       0       0       0       0       0       0
  9576 ;;      Totals:         0       0       0       0       0       0       0       0       0       0       0       0       
      +0       0       0       0       0       0       0       0       0       0       0       0       0       0       0
  9577 ;;Total ram usage:        0 bytes
  9578 ;; Hardware stack levels used: 1
  9579 ;; This function calls:
  9580 ;;		Nothing
  9581 ;; This function is called by:
  9582 ;;		_RTC_ReadBurst
  9583 ;;		_DS1302_Initialize
  9584 ;; This function uses a non-reentrant model
  9585 ;;
  9586                           
  9587     176C                     _DS1302_Reset:	
  9588                           ;psect for function _DS1302_Reset
  9589                           
  9590     176C                     l3021:	
  9591                           ;incstack = 0
  9592                           ; Regs used in _DS1302_Reset: []
  9593                           
  9594                           
  9595                           ;ds1302.c: 28:     LATBbits.LATB1 = 0;
  9596     176C  0022               	movlb	2	; select bank2
  9597     176D  108D               	bcf	13,1	;volatile
  9598                           
  9599                           ;ds1302.c: 29:     LATBbits.LATB0 = 0;
  9600     176E  100D               	bcf	13,0	;volatile
  9601                           
  9602                           ;ds1302.c: 30:     LATBbits.LATB0 = 1;
  9603     176F  140D               	bsf	13,0	;volatile
  9604     1770                     l401:
  9605     1770  0008               	return
  9606     1771                     __end_of_DS1302_Reset:
  9607     007E                     btemp	set	126	;btemp
  9608     007E                     wtemp0	set	126
  9609     24F0                     
  9610                           	psect	config
  9611                           
  9612                           ;Config register CONFIG1 @ 0x8007
  9613                           ;	Oscillator Selection Bits
  9614                           ;	FOSC = INTOSC, INTOSC oscillator: I/O function on CLKIN pin
  9615                           ;	Watchdog Timer Enable
  9616                           ;	WDTE = OFF, WDT disabled
  9617                           ;	Power-up Timer Enable
  9618                           ;	PWRTE = OFF, PWRT disabled
  9619                           ;	MCLR Pin Function Select
  9620                           ;	MCLRE = OFF, MCLR/VPP pin function is digital input if LVP bit is also 0.
  9621                           ;	Flash Program Memory Code Protection
  9622                           ;	CP = OFF, Program memory code protection is disabled
  9623                           ;	Brown-out Reset Enable
  9624                           ;	BOREN = OFF, Brown-out Reset disabled
  9625                           ;	Clock Out Enable
  9626                           ;	CLKOUTEN = OFF, CLKOUT function is disabled. I/O or oscillator function on the CLKOUT 
      +                          pin
  9627                           ;	Internal/External Switchover Mode
  9628                           ;	IESO = ON, Internal/External Switchover Mode is enabled
  9629                           ;	Fail-Safe Clock Monitor Enable
  9630                           ;	FCMEN = OFF, Fail-Safe Clock Monitor is disabled
  9631     8007                     	org	32775
  9632     8007  19A4               	dw	6564
  9633                           
  9634                           ;Config register CONFIG2 @ 0x8008
  9635                           ;	Flash Memory Self-Write Protection
  9636                           ;	WRT = OFF, Write protection off
  9637                           ;	Peripheral Pin Select one-way control
  9638                           ;	PPS1WAY = ON, The PPSLOCK bit cannot be cleared once it is set by software
  9639                           ;	Zero-cross detect disable
  9640                           ;	ZCDDIS = ON, ZCD disabled. ZCD can be enabled by setting the ZCDSEN bit of ZCDCON
  9641                           ;	Phase Lock Loop enable
  9642                           ;	PLLEN = OFF, 4x PLL is disabled
  9643                           ;	Stack Overflow/Underflow Reset Enable
  9644                           ;	STVREN = ON, Stack Overflow or Underflow will cause a Reset
  9645                           ;	Brown-out Reset Voltage Selection
  9646                           ;	BORV = LO, Brown-out Reset Voltage (Vbor), low trip point selected.
  9647                           ;	Low-Power Brown Out Reset
  9648                           ;	LPBOR = OFF, Low-Power BOR is disabled
  9649                           ;	In-Circuit Debugger Mode
  9650                           ;	DEBUG = 0x1, unprogrammed default
  9651                           ;	Low-Voltage Programming Enable
  9652                           ;	LVP = OFF, High-voltage on MCLR/VPP must be used for programming
  9653     8008                     	org	32776
  9654     8008  1EFF               	dw	7935

Data Sizes:
    Strings     42
    Constant    778
    Data        1
    BSS         0
    Persistent  32
    Stack       0

Auto Spaces:
    Space          Size  Autos    Used
    COMMON           14     14      14
    BANK0            80     75      75
    BANK1            80     74      75
    BANK2            80      0       0
    BANK3            80      0       0
    BANK4            80      0       0
    BANK5            80      0       0
    BANK6            80      0       0
    BANK7            80      0       0
    BANK8            80      0       0
    BANK9            80      0       0
    BANK10           80      0       0
    BANK11           80      0       0
    BANK12           80      0       0
    BANK13           80      0       0
    BANK14           80      0       0
    BANK15           64      0       0
    BANK16            0      0       0
    BANK17            0      0       0
    BANK18            0      0       0
    BANK19            0      0       0
    BANK20            0      0       0
    BANK21            0      0       0
    BANK22            0      0       0
    BANK23            0      0       0
    BANK24            0      0       0
    BANK25            0      0       0

Pointer List with Targets:

    memcpy@d	PTR unsigned char  size(2) Largest target is 512
		 -> screen_buffer(BIGRAM[512]), 

    memcpy@d1	PTR void  size(2) Largest target is 512
		 -> screen_buffer(BIGRAM[512]), 

    memcpy@s	PTR const unsigned char  size(2) Largest target is 768
		 -> OledFont(CODE[768]), 

    memcpy@s1	PTR const void  size(2) Largest target is 768
		 -> OledFont(CODE[768]), 

    memset@dest	PTR void  size(2) Largest target is 512
		 -> screen_buffer(BIGRAM[512]), 

    memset@p	PTR unsigned char  size(2) Largest target is 512
		 -> screen_buffer(BIGRAM[512]), 

    OLED_Printf_Line@ap	PTR void [1] size(1) Largest target is 1
		 -> ?_OLED_Printf_Line(BANK0[1]), 

    OLED_Printf_Line@dst	PTR unsigned char  size(1) Largest target is 32
		 -> OLED_Printf_Line@buf(BANK1[32]), 

    OLED_Printf_Line@fmt	PTR const unsigned char  size(2) Largest target is 21
		 -> STR_1(CODE[21]), STR_2(CODE[21]), 

    OLED_Printf_Line@p	PTR const unsigned char  size(1) Largest target is 32
		 -> OLED_Printf_Line@buf(BANK1[32]), 

    OLED_Printf_Line@peek	PTR const unsigned char  size(2) Largest target is 21
		 -> STR_1(CODE[21]), STR_2(CODE[21]), 

    OLED_Printf_Line@src	PTR const unsigned char  size(2) Largest target is 21
		 -> STR_1(CODE[21]), STR_2(CODE[21]), 

    OLED_Printf_Line@str	PTR const unsigned char  size(1) Largest target is 1
		 -> now$date(COMMON[1]), now$hr(COMMON[1]), now$min(COMMON[1]), now$month(COMMON[1]), 
		 -> now$sec(COMMON[1]), now$year(COMMON[1]), ?_OLED_Printf_Line(BANK0[1]), 

    OLED_WriteData@data	PTR const unsigned char  size(2) Largest target is 768
		 -> OledFont(CODE[768]), screen_buffer(BIGRAM[512]), 

    RTC_ReadBurst@t	PTR struct . size(1) Largest target is 7
		 -> main@now(BANK1[7]), 

    sp__memcpy	PTR void  size(2) Largest target is 512
		 -> screen_buffer(BIGRAM[512]), 

    sp__memset	PTR void  size(2) Largest target is 512
		 -> screen_buffer(BIGRAM[512]), 

    sp__strcpy	PTR unsigned char  size(2) Largest target is 256
		 -> OLED_Printf_Line@last_text(BIGRAM[256]), 

    strcmp@l	PTR const unsigned char  size(1) Largest target is 32
		 -> OLED_Printf_Line@buf(BANK1[32]), 

    strcmp@r	PTR const unsigned char  size(2) Largest target is 256
		 -> OLED_Printf_Line@last_text(BIGRAM[256]), 

    strcpy@d	PTR unsigned char  size(2) Largest target is 256
		 -> OLED_Printf_Line@last_text(BIGRAM[256]), 

    strcpy@dest	PTR unsigned char  size(2) Largest target is 256
		 -> OLED_Printf_Line@last_text(BIGRAM[256]), 

    strcpy@src	PTR const unsigned char  size(1) Largest target is 32
		 -> OLED_Printf_Line@buf(BANK1[32]), 

    UI_DrawDate@t	PTR const struct . size(1) Largest target is 7
		 -> main@now(BANK1[7]), 

    UI_DrawTime@t	PTR const struct . size(1) Largest target is 7
		 -> main@now(BANK1[7]), 


Critical Paths under _main in COMMON

    _main->_OLED_Init
    _OLED_Printf_Line->___lldiv
    _OLED_UpdateLine->_OLED_WriteData
    _RTC_ReadBurst->_get_dec
    _get_dec->___bmul
    _OLED_Init->_OLED_Clear
    _OLED_Clear->_OLED_WriteData
    _OLED_YX->_OLED_Command
    _OLED_Command->_I2C_WriteByte
    _OLED_WriteData->_I2C_WriteByte
    _I2C_WriteByte->_I2C_WaitIF
    _I2C_WriteByte->_I2C_WaitIdle
    _I2C_Stop->_I2C_WaitIF
    _I2C_Stop->_I2C_WaitIdle
    _I2C_Start->_I2C_WaitIF
    _I2C_Start->_I2C_WaitIdle
    _DS1302_Initialize->_get_bcd
    _get_bcd->___awdiv

Critical Paths under _main in BANK0

    _main->_UI_DrawDate
    _main->_UI_DrawTime
    _UI_DrawTime->_OLED_Printf_Line
    _UI_DrawDate->_OLED_Printf_Line
    _OLED_Printf_Line->_OLED_UpdateLine
    _OLED_Printf_Line->___aldiv
    _OLED_Init->_OLED_Clear

Critical Paths under _main in BANK1

    _UI_DrawTime->_OLED_Printf_Line
    _UI_DrawDate->_OLED_Printf_Line

Critical Paths under _main in BANK2

    None.

Critical Paths under _main in BANK3

    None.

Critical Paths under _main in BANK4

    None.

Critical Paths under _main in BANK5

    None.

Critical Paths under _main in BANK6

    None.

Critical Paths under _main in BANK7

    None.

Critical Paths under _main in BANK8

    None.

Critical Paths under _main in BANK9

    None.

Critical Paths under _main in BANK10

    None.

Critical Paths under _main in BANK11

    None.

Critical Paths under _main in BANK12

    None.

Critical Paths under _main in BANK13

    None.

Critical Paths under _main in BANK14

    None.

Critical Paths under _main in BANK15

    None.

Critical Paths under _main in BANK16

    None.

Critical Paths under _main in BANK17

    None.

Critical Paths under _main in BANK18

    None.

Critical Paths under _main in BANK19

    None.

Critical Paths under _main in BANK20

    None.

Critical Paths under _main in BANK21

    None.

Critical Paths under _main in BANK22

    None.

Critical Paths under _main in BANK23

    None.

Critical Paths under _main in BANK24

    None.

Critical Paths under _main in BANK25

    None.

Call Graph Tables:

 ---------------------------------------------------------------------------------
 (Depth) Function   	        Calls       Base Space   Used Autos Params    Refs
 ---------------------------------------------------------------------------------
 (0) _main                                                11    11      0   53155
                                             73 BANK0      2     2      0
                                             65 BANK1      9     9      0
                  _DS1302_Initialize
                           _I2C_Init
                         _OLED_Clear
                          _OLED_Init
                      _RTC_ReadBurst
                        _UI_DrawDate
                        _UI_DrawTime
                           _initMain
 ---------------------------------------------------------------------------------
 (1) _initMain                                             0     0      0       0
                        _internal_16
 ---------------------------------------------------------------------------------
 (2) _internal_16                                          0     0      0       0
 ---------------------------------------------------------------------------------
 (1) _UI_DrawTime                                          7     7      0   15775
                                             66 BANK0      7     7      0
                   _OLED_Printf_Line
 ---------------------------------------------------------------------------------
 (1) _UI_DrawDate                                          7     7      0   15775
                                             66 BANK0      7     7      0
                   _OLED_Printf_Line
 ---------------------------------------------------------------------------------
 (2) _OLED_Printf_Line                                   125   117      8   15643
                                              6 BANK0     60    52      8
                                              0 BANK1     65    65      0
                    _OLED_UpdateLine
                            ___aldiv
                            ___almod
                            ___awdiv
                            ___awmod
                            ___lldiv
                            ___llmod
                            ___lwdiv
                            ___lwmod
                             _memcpy
                             _memset
                             _strcmp
                             _strcpy
 ---------------------------------------------------------------------------------
 (3) _strcpy                                               7     4      3     225
                                              0 COMMON     7     4      3
 ---------------------------------------------------------------------------------
 (3) _strcmp                                               4     2      2     221
                                              0 COMMON     4     2      2
 ---------------------------------------------------------------------------------
 (3) _memcpy                                              11     5      6     371
                                              0 COMMON    11     5      6
 ---------------------------------------------------------------------------------
 (3) ___lwmod                                              6     2      4     311
                                              0 COMMON     6     2      4
 ---------------------------------------------------------------------------------
 (3) ___lwdiv                                              8     4      4     314
                                              0 COMMON     8     4      4
 ---------------------------------------------------------------------------------
 (3) ___llmod                                             10     2      8     311
                                              0 COMMON    10     2      8
 ---------------------------------------------------------------------------------
 (3) ___lldiv                                             14     6      8     314
                                              0 COMMON    14     6      8
 ---------------------------------------------------------------------------------
 (3) ___awmod                                              7     3      4     448
                                              0 COMMON     7     3      4
 ---------------------------------------------------------------------------------
 (3) ___almod                                             11     3      8     448
                                              0 COMMON    11     3      8
 ---------------------------------------------------------------------------------
 (3) ___aldiv                                             15     7      8     452
                                              0 COMMON     9     1      8
                                              0 BANK0      6     6      0
 ---------------------------------------------------------------------------------
 (3) _OLED_UpdateLine                                      7     7      0    7135
                                             12 COMMON     1     1      0
                                              0 BANK0      6     6      0
                     _OLED_WriteData
                            _OLED_YX
 ---------------------------------------------------------------------------------
 (1) _RTC_ReadBurst                                        8     8      0     857
                                              0 BANK0      8     8      0
                    _DS1302_ReadByte
                       _DS1302_Reset
                   _DS1302_WriteByte
                            _get_dec
 ---------------------------------------------------------------------------------
 (2) _get_dec                                              3     3      0     312
                                              4 COMMON     3     3      0
                             ___bmul
 ---------------------------------------------------------------------------------
 (2) _DS1302_ReadByte                                      4     4      0      95
                                              0 COMMON     4     4      0
 ---------------------------------------------------------------------------------
 (1) _OLED_Init                                            1     1      0   10749
                                             13 COMMON     1     1      0
                         _OLED_Clear
                       _OLED_Command
 ---------------------------------------------------------------------------------
 (2) _OLED_Clear                                           7     7      0    7733
                                             12 COMMON     1     1      0
                                              0 BANK0      6     6      0
                     _OLED_WriteData
                            _OLED_YX
                             _memset
 ---------------------------------------------------------------------------------
 (3) _memset                                               8     2      6     552
                                              0 COMMON     8     2      6
 ---------------------------------------------------------------------------------
 (4) _OLED_YX                                              4     3      1    3333
                                              7 COMMON     4     3      1
                       _OLED_Command
 ---------------------------------------------------------------------------------
 (5) _OLED_Command                                         2     2      0    3016
                                              5 COMMON     2     2      0
                          _I2C_Start
                           _I2C_Stop
                      _I2C_WriteByte
                      _SSD1306_CtrlW
 ---------------------------------------------------------------------------------
 (4) _OLED_WriteData                                       7     3      4    3736
                                              5 COMMON     7     3      4
                          _I2C_Start
                           _I2C_Stop
                      _I2C_WriteByte
                      _SSD1306_CtrlW
 ---------------------------------------------------------------------------------
 (6) _SSD1306_CtrlW                                        0     0      0       0
 ---------------------------------------------------------------------------------
 (6) _I2C_WriteByte                                        2     2      0     992
                                              3 COMMON     2     2      0
                         _I2C_WaitIF
                       _I2C_WaitIdle
 ---------------------------------------------------------------------------------
 (6) _I2C_Stop                                             1     1      0     938
                                              3 COMMON     1     1      0
                         _I2C_WaitIF
                       _I2C_WaitIdle
 ---------------------------------------------------------------------------------
 (6) _I2C_Start                                            1     1      0     970
                                              3 COMMON     1     1      0
                         _I2C_WaitIF
                       _I2C_WaitIdle
 ---------------------------------------------------------------------------------
 (7) _I2C_WaitIdle                                         3     1      2     402
                                              0 COMMON     3     1      2
 ---------------------------------------------------------------------------------
 (7) _I2C_WaitIF                                           3     1      2     478
                                              0 COMMON     3     1      2
 ---------------------------------------------------------------------------------
 (1) _I2C_Init                                             1     1      0       0
                                              0 COMMON     1     1      0
                    _I2C_ClearErrors
 ---------------------------------------------------------------------------------
 (2) _I2C_ClearErrors                                      0     0      0       0
 ---------------------------------------------------------------------------------
 (1) _DS1302_Initialize                                   14     8      6    1952
                                              0 BANK0     14     8      6
                       _DS1302_Reset
                   _DS1302_WriteByte
                            _get_bcd
 ---------------------------------------------------------------------------------
 (2) _get_bcd                                              5     5      0    1112
                                              9 COMMON     5     5      0
                            ___awdiv
                             ___bmul
 ---------------------------------------------------------------------------------
 (3) ___bmul                                               4     3      1     244
                                              0 COMMON     4     3      1
 ---------------------------------------------------------------------------------
 (3) ___awdiv                                              9     5      4     756
                                              0 COMMON     9     5      4
 ---------------------------------------------------------------------------------
 (2) _DS1302_WriteByte                                     3     3      0      69
                                              0 COMMON     3     3      0
 ---------------------------------------------------------------------------------
 (2) _DS1302_Reset                                         0     0      0       0
 ---------------------------------------------------------------------------------
 Estimated maximum stack depth 7
 ---------------------------------------------------------------------------------

 Call Graph Graphs:

 _main (ROOT)
   _DS1302_Initialize
     _DS1302_Reset
     _DS1302_WriteByte
     _get_bcd
       ___awdiv
       ___bmul
   _I2C_Init
     _I2C_ClearErrors
   _OLED_Clear
     _OLED_WriteData
       _I2C_Start
         _I2C_WaitIF
         _I2C_WaitIdle
       _I2C_Stop
         _I2C_WaitIF
         _I2C_WaitIdle
       _I2C_WriteByte
         _I2C_WaitIF
         _I2C_WaitIdle
       _SSD1306_CtrlW
     _OLED_YX
       _OLED_Command
         _I2C_Start
         _I2C_Stop
         _I2C_WriteByte
         _SSD1306_CtrlW
     _memset
   _OLED_Init
     _OLED_Clear
     _OLED_Command
   _RTC_ReadBurst
     _DS1302_ReadByte
     _DS1302_Reset
     _DS1302_WriteByte
     _get_dec
       ___bmul
   _UI_DrawDate
     _OLED_Printf_Line
       _OLED_UpdateLine
         _OLED_WriteData
         _OLED_YX
       ___aldiv
       ___almod
       ___awdiv
       ___awmod
       ___lldiv
       ___llmod
       ___lwdiv
       ___lwmod
       _memcpy
       _memset
       _strcmp
       _strcpy
   _UI_DrawTime
     _OLED_Printf_Line
   _initMain
     _internal_16

 Address spaces:
Name               Size   Autos  Total    Cost      Usage
BIGRAM             7F0      0       0       0        0.0%
NULL                 0      0       0       0        0.0%
CODE                 0      0       0       0        0.0%
BITCOMMON            E      0       0       1        0.0%
BITSFR0              0      0       0       1        0.0%
SFR0                 0      0       0       1        0.0%
COMMON               E      E       E       2      100.0%
BITSFR1              0      0       0       2        0.0%
SFR1                 0      0       0       2        0.0%
BITSFR2              0      0       0       3        0.0%
SFR2                 0      0       0       3        0.0%
STACK                0      0       0       3        0.0%
BITBANK0            50      0       0       4        0.0%
BITSFR3              0      0       0       4        0.0%
SFR3                 0      0       0       4        0.0%
BANK0               50     4B      4B       5       93.8%
BITSFR4              0      0       0       5        0.0%
SFR4                 0      0       0       5        0.0%
BITBANK1            50      0       0       6        0.0%
BITSFR5              0      0       0       6        0.0%
SFR5                 0      0       0       6        0.0%
BANK1               50     4A      4B       7       93.8%
BITSFR6              0      0       0       7        0.0%
SFR6                 0      0       0       7        0.0%
BITBANK2            50      0       0       8        0.0%
BITSFR7              0      0       0       8        0.0%
SFR7                 0      0       0       8        0.0%
BANK2               50      0       0       9        0.0%
BITSFR8              0      0       0       9        0.0%
SFR8                 0      0       0       9        0.0%
BITBANK3            50      0       0      10        0.0%
BITSFR9              0      0       0      10        0.0%
SFR9                 0      0       0      10        0.0%
BANK3               50      0       0      11        0.0%
BITSFR10             0      0       0      11        0.0%
SFR10                0      0       0      11        0.0%
BITBANK4            50      0       0      12        0.0%
BITSFR11             0      0       0      12        0.0%
SFR11                0      0       0      12        0.0%
BANK4               50      0       0      13        0.0%
BITSFR12             0      0       0      13        0.0%
SFR12                0      0       0      13        0.0%
BITSFR13             0      0       0      14        0.0%
SFR13                0      0       0      14        0.0%
ABS                  0      0      A4      14        0.0%
BITBANK5            50      0       0      15        0.0%
BITSFR14             0      0       0      15        0.0%
SFR14                0      0       0      15        0.0%
BANK5               50      0       0      16        0.0%
BITSFR15             0      0       0      16        0.0%
SFR15                0      0       0      16        0.0%
BITBANK6            50      0       0      17        0.0%
BITSFR16             0      0       0      17        0.0%
SFR16                0      0       0      17        0.0%
BANK6               50      0       0      18        0.0%
BITSFR17             0      0       0      18        0.0%
SFR17                0      0       0      18        0.0%
BITBANK7            50      0       0      19        0.0%
BITSFR18             0      0       0      19        0.0%
SFR18                0      0       0      19        0.0%
BANK7               50      0       0      20        0.0%
BITSFR19             0      0       0      20        0.0%
SFR19                0      0       0      20        0.0%
BITBANK8            50      0       0      21        0.0%
BITSFR20             0      0       0      21        0.0%
SFR20                0      0       0      21        0.0%
BANK8               50      0       0      22        0.0%
BITSFR21             0      0       0      22        0.0%
SFR21                0      0       0      22        0.0%
BITBANK9            50      0       0      23        0.0%
BITSFR22             0      0       0      23        0.0%
SFR22                0      0       0      23        0.0%
BANK9               50      0       0      24        0.0%
BITSFR23             0      0       0      24        0.0%
SFR23                0      0       0      24        0.0%
BITBANK10           50      0       0      25        0.0%
BITSFR24             0      0       0      25        0.0%
SFR24                0      0       0      25        0.0%
BANK10              50      0       0      26        0.0%
BITSFR25             0      0       0      26        0.0%
SFR25                0      0       0      26        0.0%
BITBANK11           50      0       0      27        0.0%
BITSFR26             0      0       0      27        0.0%
SFR26                0      0       0      27        0.0%
BITSFR27             0      0       0      28        0.0%
SFR27                0      0       0      28        0.0%
DATA                 0      0      A4      28        0.0%
BANK11              50      0       0      29        0.0%
BITSFR28             0      0       0      29        0.0%
SFR28                0      0       0      29        0.0%
BITBANK12           50      0       0      30        0.0%
BITSFR29             0      0       0      30        0.0%
SFR29                0      0       0      30        0.0%
BANK12              50      0       0      31        0.0%
BITSFR30             0      0       0      31        0.0%
SFR30                0      0       0      31        0.0%
BITBANK13           50      0       0      32        0.0%
BITSFR31             0      0       0      32        0.0%
SFR31                0      0       0      32        0.0%
BANK13              50      0       0      33        0.0%
BITBANK14           50      0       0      34        0.0%
BANK14              50      0       0      35        0.0%
BITBANK15           50      0       0      36        0.0%
BANK15              40      0       0      37        0.0%
BITBANK16           50      0       0      38        0.0%
BANK16               0      0       0      39        0.0%
BITBANK17           50      0       0      40        0.0%
BANK17               0      0       0      41        0.0%
BITBANK18           50      0       0      42        0.0%
BANK18               0      0       0      43        0.0%
BITBANK19           50      0       0      44        0.0%
BANK19               0      0       0      45        0.0%
BITBANK20           50      0       0      46        0.0%
BANK20               0      0       0      47        0.0%
BITBANK21           50      0       0      48        0.0%
BANK21               0      0       0      49        0.0%
BITBANK22           50      0       0      50        0.0%
BANK22               0      0       0      51        0.0%
BITBANK23           50      0       0      52        0.0%
BANK23               0      0       0      53        0.0%
BITBANK24           50      0       0      54        0.0%
BANK24               0      0       0      55        0.0%
BITBANK25           20      0       0      56        0.0%
BANK25               0      0       0      57        0.0%


Microchip Technology PIC Macro Assembler V2.46 build 20240104201356 
Symbol Table                                                                                   Sun Dec 28 16:56:48 2025

             ___bmul@product 0072                  _SSPSTATbits 0214                           l32 17A0  
                         l41 0BD9                           l26 0B31                           l35 1777  
                         l28 0B4D                           l60 0D3B                           l45 0BE9  
                         l61 0D5C                           l46 0BFE                           l62 0D4E  
                         l47 0BFB                           l55 0BA1                           l63 0D56  
                         l56 0BB5                           l57 0BB3                 ___awdiv@sign 0076  
  OLED_Printf_Line@last_text 26F0                          l101 176B                          l111 0EE9  
                        l105 0D2A                          l115 0EDE                          l131 0B6F  
                        l134 014B                          l143 0CA3                          l401 1770  
                        l305 1780                          l410 0C05                          l139 0E99  
                        l411 0C20                          l404 17CD                          l412 0C23  
                        l421 17CA                          l406 17D4                          l166 07EC  
                        l407 17E3                          l415 00D7                          l418 0B92  
                        l515 17B5                          l372 01BF                          l525 0F96  
                        l375 0C77                          l369 0DC6                          l642 0063  
                        l554 024E                          l378 0CCF                          l564 02CA  
                        l567 01D2                          l655 0F3C                          l719 0E4C  
                        l577 023A                          l951 0C4D                          l769 0E02  
                        l779 0D90                          l971 0B2F                          l957 17FF  
                        l965 0CFC                 _DS1302_Reset 176C               ?_RTC_ReadBurst 0070  
               ___awmod@sign 0076                          wreg 0009                         l2201 0B30  
                       l3001 0775                         l2211 0B4C                         l2203 0B36  
                       l3011 07C4                         l3003 077B                         l3021 176C  
                       l2221 0BC2                         l3101 00F8                         l3005 0781  
                       l3013 07CA                         l3031 17D7                         l3023 17CC  
                       l2207 0B38                         l2215 0BB6                         l2311 0D18  
                       l2303 0D08                         l3111 010C                         l3103 00FC  
                       l3015 07D2                         l3007 0783                         l3033 17D9  
                       l2209 0B40                         l2225 0BC4                         l2217 0BB7  
                       l2241 0BED                         l2233 0BDA                         l2313 0D1D  
                       l2305 0D0F                         l3121 0120                         l3113 0110  
                       l3105 0100                         l3041 0C02                         l3201 0164  
                       l2401 0B15                         l3017 07E7                         l3009 07BE  
                       l3035 17DD                         l2219 0BBE                         l2227 0BCC  
                       l2243 0BF5                         l2235 0BE2                         l2323 0E9A  
                       l2307 0D14                         l3131 0134                         l3123 0124  
                       l3115 0114                         l3107 0104                         l3051 0C10  
                       l3211 0184                         l3203 0169                         l2411 0C37  
                       l2403 0B19                         l3019 1778                         l3029 17D3  
                       l2421 17A7                         l2229 0BD8                         l2237 0BE7  
                       l2261 0BAD                         l2253 0B93                         l2341 0EBB  
                       l2333 0EAB                         l3141 0148                         l3133 0138  
                       l3125 0128                         l3117 0118                         l3109 0108  
                       l3053 0C12                         l3037 0BFF                         l3221 01B5  
                       l3213 018D                         l3205 016E                         l2501 01D6  
                       l2413 0C3D                         l2405 0C24                         l2423 17AB  
                       l3071 0B71                         l3231 0093                         l2255 0B9B  
                       l2351 0EC9                         l2343 0EC0                         l2335 0EB2  
                       l2327 0EA1                         l2319 0D23                         l3135 013C  
                       l3127 012C                         l3119 011C                         l3055 0C16  
                       l3047 0C08                         l3039 0C00                         l3063 17B7  
                       l3215 0197                         l3207 0173                         l2511 01FB  
                       l2503 01E1                         l2431 0F3D                         l2407 0C2D  
                       l2415 0C41                         l3223 0C50                         l3151 0D99  
                       l3143 0D91                         l2425 17AD                         l2417 17A2  
                       l3073 0B89                         l3241 00AD                         l3233 0097  
                       l3081 1793                         l2249 0BFD                         l2273 0D3D  
                       l2265 0D2C                         l2353 0ED4                         l2337 0EB7  
                       l2329 0EA5                         l3137 0140                         l3129 0130  
                       l3057 0C1A                         l3049 0C0D                         l3065 17C4  
                       l3217 01A1                         l3209 017B                         l2521 0227  
                       l2513 020D                         l2505 01E9                         l2601 0F2E  
                       l2441 0F66                         l2433 0F4D                         l2409 0C33  
                       l3225 0CA6                         l3161 0DA5                         l3153 0D9A  
                       l3145 0D94                         l3401 0FD3                         l2531 000A  
                       l2427 17B4                         l2419 17A3                         l3251 00C6  
                       l3243 00B2                         l3235 009B                         l3227 0066  
                       l3083 1795                         l2259 0BA5                         l2283 0D53  
                       l2275 0D40                         l2267 0D34                         l2371 0B63  
                       l3139 0144                         l3091 00E4                         l3059 0C22  
                       l3067 17C9                         l3219 01AB                         l2523 0232  
                       l2515 0215                         l2507 01EC                         l2603 0F33  
                       l2443 0F78                         l2435 0F50                         l2451 0F8E  
                       l2611 0E0B                         l3171 0DB8                         l3163 0DAA  
                       l3155 0D9D                         l3147 0D96                         l3411 0FEB  
                       l3403 0FD3                         l2541 001E                         l2533 000F  
                       l3253 00CB                         l3245 00B7                         l3237 00A6  
                       l3229 0090                         l3085 1798                         l3077 178D  
                       l2285 0D54                         l2277 0D48                         l2269 0D39  
                       l2293 176A                         l2349 0EC6                         l2365 0B4F  
                       l2373 17E4                         l3093 00E8                         l2381 0C79  
                       l2461 0252                         l2517 021C                         l2509 01F7  
                       l2605 0F38                         l2445 0F80                         l2437 0F5B  
                       l2621 0E37                         l2613 0E0E                         l2701 02E1  
                       l3181 0DBF                         l3173 0DB9                         l3165 0DAE  
                       l3157 0D9F                         l3149 0D97                         l3413 0FED  
                       l3405 0FDE                         l2551 0032                         l2543 0020  
                       l2535 0011                         l2527 0005                         l3255 00D0  
                       l3247 00BC                         l3239 00A9                         l3079 1792  
                       l2359 0EDA                         l2367 0B58                         l2375 17E9  
                       l3095 00EC                         l3087 00D8                         l3191 014E  
                       l2471 0274                         l2463 025D                         l2455 023B  
                       l2519 0222                         l2447 0F81                         l2439 0F5F  
                       l2623 0E3E                         l2615 0E19                         l2631 0DC9  
                       l2391 0CD2                         l2711 0302                         l2703 02EB  
                       l3183 0DC0                         l3175 0DBB                         l3167 0DB3  
                       l3159 0DA0                         l3407 0FE0                         l3415 0FF1  
          DS1302_WriteByte@i 0072                         l2561 004F                         l2553 0036  
                       l2545 0026                         l2537 0015                         l2529 0006  
                       l3249 00C1                         l2289 0D57                         l2297 0CFE  
                       l2369 0B5E                         l2377 17EF                         l3097 00F0  
                       l3089 00E0                         l3193 0151                         l2385 0C80  
                       l2481 02A4                         l2473 027F                         l2465 0261  
                       l2457 023D                         l2449 0F88                         l2617 0E1D  
                       l2625 0E44                         l2609 0E03                         l2641 0DDF  
                       l2633 0DCF                         l2393 0CDA                         l2801 0470  
                       l2721 0320                         l2713 030C                         l2705 02EF  
                       l3185 0DC1                         l3177 0DBC                         l3169 0DB6  
                       l3409 0FE4                         l2555 0045                         l2547 0029  
                       l2563 0055                         l2539 001A                         l2299 0D02  
                       l2379 17F3                         l3099 00F4                         l3195 0155  
                       l2387 0C85                         l2491 02C2                         l2483 02A5  
                       l2475 0283                         l2467 0269                         l2459 0241  
                       l2571 0EEA                         l2619 0E2F                         l2643 0DEE  
                       l2635 0DD2                         l2651 0DFE                         l2395 0CE7  
                       l2811 04A2                         l2803 0476                         l2723 0324  
                       l2731 033C                         l2715 030E                         l2707 02F0  
                       l3187 0DC3                         l3179 0DBD                         l2565 005A  
                       l2557 0049                         l2549 002E                         l3197 015A  
                       l2485 02AC                         l2477 028A                         l2469 0271  
                       l2581 0EFA                         l2573 0EEB                         l2645 0DF2  
                       l2637 0DD7                         l2629 0DC7                         l2661 0D6B  
                       l2397 0CEF                         l2389 0CD1                         l2901 05F3  
                       l2821 04DC                         l2813 04BE                         l2805 0481  
                       l2733 0341                         l2741 0364                         l2725 032C  
                       l2717 0313                         l2709 02FA                         l3189 0DC4  
                       l2567 005F                         l2559 004A                         l3199 015F  
                       l2479 029C                         l2487 02B2                         l2495 01C0  
                       l2591 0F11                         l2583 0EFF                         l2575 0EEF  
                       l2647 0DF3                         l2639 0DDB                         l2671 0D86  
                       l2663 0D6F                         l2655 0D5D                         l2911 0619  
                       l2903 05FA                         l2831 04FF                         l2823 04E3  
                       l2815 04C6                         l2807 0482                         l2751 0394  
                       l2743 0366                         l2735 0350                         l2727 0331  
                       l2719 031A                         l3391 0FB0                         l3383 0F97  
                       l2489 02B7                         l2497 01C1                         l2593 0F15  
                       l2585 0F05                         l2577 0EF4                         l2649 0DF8  
                       l2665 0D73                         l2657 0D63                         l2673 0D8C  
                       l2921 0637                         l2913 061F                         l2905 0603  
                       l2841 0523                         l2833 0507                         l2817 04CD  
                       l2809 049C                         l2825 04EC                         l2761 03BA  
                       l2753 039B                         l2745 0378                         l2737 0359  
                       l2729 0337                         l3393 0FC4                         l3385 0F9D  
                       l2691 0E8E                         l2499 01C5                         l2595 0F1F  
                       l2587 0F08                         l2579 0EF6                         l2667 0D7D  
                       l2659 0D66                         l2923 0640                         l2915 0625  
                       l2907 0609                         l2851 0545                         l2843 052C  
                       l2835 050C                         l2827 04F4                         l2819 04D6  
                       l2771 03DA                         l2763 03BE                         l2755 03A4  
                       l2747 037E                         l2739 035E                         l3395 0FC8  
                       l3387 0FAA                         l2677 1771                         l2693 0E93  
                       l2685 0E4E                         l2597 0F23                         l2589 0F0D  
                       l2669 0D81                         l2941 0677                         l2933 0661  
                       l2925 064A                         l2917 062E                         l2909 0610  
                       l2861 0562                         l2853 054E                         l2845 0533  
                       l2837 0512                         l2829 04F9                         l2781 0425  
                       l2773 03F4                         l2765 03C8                         l2757 03AA  
                       l2749 038E                         l3397 0FCC                         l3389 0FAD  
                       l2687 0E6B                         l2679 0E4D                         l2599 0F28  
                       l2951 0694                         l2943 067C                         l2935 0669  
                       l2927 0652                         l2919 0632                         l2871 0597  
                       l2863 0574                         l2855 0556                         l2847 053A  
                       l2839 051B                         l2791 044E                         l2783 042E  
                       l2775 03FA                         l2767 03D3                         l2759 03B1  
                       l2695 02CD                         l3399 0FD0                         l2689 0E70  
                       l2961 06B6                         l2953 069A                         l2945 0682  
                       l2929 065A                         l2881 05BD                         l2873 05A0  
                       l2865 057A                         l2857 055B                         l2849 0540  
                       l2793 0459                         l2785 0434                         l2777 0416  
                       l2769 03D9                         l2955 06A2                         l2947 0687  
                       l2939 066F                         l2891 05D5                         l2883 05C3  
                       l2875 05A6                         l2867 058A                         l2859 0561  
                       l2795 045F                         l2787 043B                         l2779 041E  
                       l2971 06DA                         l2699 02DE                         l2973 06E4  
                       l2957 06A7                         l2949 068F                         l2893 05DC  
                       l2885 05C4                         l2877 05AD                         l2869 0590  
                       l2797 0463                         l2789 0444                         l2981 06FC  
                       l2991 0733                         l2983 0705                         l2959 06AD  
                       l2895 05E2                         l2887 05C7                         l2879 05B6  
                       l2799 046B                         l2975 06E9                         l2993 074C  
                       l2985 070D                         l2977 06F2                         l2897 05E8  
                       l2889 05CD                         l2969 06BF                         l2995 076A  
                       l2987 0711                         l2979 06F6                         l2899 05ED  
                       l2997 076C                         l2999 076F                         STR_1 1800  
                       STR_2 0B00              __end_of_OLED_YX 0B70                         u2000 0BD8  
                       u2001 0BD7                         u2010 0BE7                         u2011 0BE6  
                _UI_DrawDate 0CA4                         u2020 0BFA                         u2100 0D22  
                       u2021 0BF9                         u2101 0D21                         u2030 0BA0  
                       u2110 0EA0                         u2031 0B9F                         u2111 0E9F  
                ?_OLED_Clear 0070                         u2040 0BB2                         u2120 0EAA  
                       u2200 0C7F                         u3000 032C                         u2041 0BB1  
                       u2121 0EA9                         u2201 0C7E                         u3001 032B  
                       u2050 0D39                         u2130 0EB7                         u3010 0341  
                       u2051 0D38                         u2131 0EB6                         u3011 0340  
                       u2060 0D4D                         u2140 0EC5                         u2300 0F5F  
                       u2220 0CE7                         u3100 0424                         u3020 0350  
                       u2061 0D4C                         u2141 0EC4                         u2301 0F5E  
                       u2221 0CE6                         u3101 0423                         u3021 034F  
                       u2070 0D53                         u2150 0ED9                         u2230 0CEF  
                       u3110 043B                         u3030 0359                         u2071 0D52  
                       u2151 0ED8                         u2215 0C8A                         u2231 0CEE  
                       u3111 043A                         u3031 0358                         u2160 0EE8  
                       u2080 0D07                         u2320 0F78                         u2240 0B2F  
                       u3200 04F4                         u3120 0443                         u3040 0394  
                       u2161 0EE7                         u2081 0D06                         u2321 0F77  
                       u2241 0B2E                         u3201 04F3                         u3121 0442  
                       u3041 0393                         u3025 034C                         u2090 0D14  
                       u2410 029C                         u2250 0C4D                         u3210 0507  
                       u3130 044E                         u3050 039A                         u2091 0D13  
                       u2411 029B                         u2315 0F60                         u2251 0C4C  
                       u3211 0506                         u3131 044D                         u3051 0399  
                       u2260 17A7                         u2500 020D                         u2340 0F8E  
                       u3300 05B5                         u3220 051B                         u3140 0463  
                       u3060 03B1                         u2261 17A6                         u2165 0EE4  
                       u2405 0284                         u2501 020C                         u2341 0F8D  
                       u2325 0F74                         u3301 05B4                         u3221 051A  
                       u3141 0462                         u3061 03B0                         u2270 17B4  
                       u2190 17FF                         u2430 02B2                         u2350 0241  
                       u3310 05CD                         u3230 0523                         u3150 046B  
                       u3070 03B9                         u2271 17B3                         u2175 0B52  
                       u2191 17FE                         u2431 02B1                         u2415 0298  
                       u2351 0240                         u2335 0F82                         u3311 05CC  
                       u3231 0522                         u3151 046A                         u3071 03B8  
                       u2600 0045                         u2440 02B7                         u2360 0252  
                       u2520 0222                         u2280 0F4D                         u3400 0669  
                       u3240 0545                         u3160 04C6                         u3080 03C8  
                       u2601 0044                         u2185 0B66                         u2441 02B6  
                       u2425 02A6                         u2361 0251                         u2521 0221  
                       u2505 0209                         u2281 0F4C                         u3401 0668  
                       u3241 0544                         u3161 04C5                         u3081 03C7  
                       u2370 0271                         u2530 0227                         u2450 01C5  
                       u3410 0677                         u3330 05F3                         u3250 054E  
                       u3170 04CC                         u3090 041E                         u2371 0270  
                       u2531 0226                         u2515 0216                         u2451 01C4  
                       u3411 0676                         u3331 05F2                         u3251 054D  
                       u3171 04CB                         u3091 041D                         u2620 0055  
                       u2540 000A                         u2460 01D6                         u3420 0687  
                       u3340 05F9                         u3260 0556                         u3180 04E3  
                       u2621 0054                         u2605 0041                         u2541 0009  
                       u2461 01D5                         u3421 0686                         u3341 05F8  
                       u3325 05E9                         u3261 0555                         u3181 04E2  
                       u2630 005A                         u2550 0015                         u2390 0283  
                       u2470 01E9                         u2710 0F2E                         u3510 0732  
                       u3430 068F                         u3350 0610                         u3270 0590  
                       u3190 04EB                         u2631 0059                         u2615 004B  
                       u2551 0014                         u2391 0282                         u2471 01E8  
                       u2711 0F2D                         u2295 0F51                         u3511 0731  
                       u3431 068E                         u3351 060F                         u3271 058F  
                       u3191 04EA                         u3600 17E3                         u2560 0026  
                       u2720 0F33                         u2640 0EEF                         u3440 06A2  
                       u3360 0618                         u3280 0596                         u3601 17E2  
                       u2561 0025                         u2385 0275                         u2721 0F32  
                       u2705 0F24                         u2641 0EEE                         u3505 0716  
                       u3441 06A1                         u3361 0617                         u3281 0595  
                       u3610 0C20                         u2490 01FB                         u2650 0EFA  
                       u2730 0E0B                         u2810 0DDF                         u3450 06B6  
                       u3370 0640                         u3290 05AD                         u3611 0C1F  
                       u2491 01FA                         u2651 0EF9                         u2731 0E0A  
                       u2811 0DDE                         u3451 06B5                         u3371 063F  
                       u3291 05AC                         u2580 0036                         u2660 0F05  
                       u3540 077B                         u3460 06BE                         u3380 0649  
                       u2581 0035                         u2485 01ED                         u2661 0F04  
                       u2805 0DD3                         u3541 077A                         u3525 0739  
                       u3461 06BD                         u3381 0648                         u2750 0E1D  
                       u2830 0DEE                         u2910 0D8C                         u3550 0781  
                       u3470 06E4                         u3390 0652                         u2575 002A  
                       u2751 0E1C                         u2831 0DED                         u2911 0D8B  
                       u3551 0780                         u3535 0752                         u3471 06E3  
                       u3391 0651                         u1960 0B36                         u2680 0F15  
                       u2760 0E2F                         u3480 0705                         u1961 0B35  
                       u3625 17BC                         u2681 0F14                         u2761 0E2E  
                       u2745 0E0F                         u2825 0DE0                         u2905 0D82  
                       u3481 0704                         u1970 0B4C                         u2690 0F1F  
                       u2850 0DFE                         u3570 07D2                         u3490 070D  
                       u2595 0037                         u3635 0B8C                         u1971 0B4B  
                       u2691 0F1E                         u2675 0F09                         u2851 0DFD  
                       u2835 0DEA                         u3571 07D1                         u3491 070C  
                       u1980 0BBE                         u2940 0E99                         u2780 0E44  
                       u2860 0D63                         u3580 07E7                         u3900 0FEB  
                       u1981 0BBD                         u2941 0E98                         u2925 0E53  
                       u2781 0E43                         u2765 0E2B                         u2845 0DF4  
                       u2861 0D62                         u3581 07E6                         u3565 078D  
                       u3901 0FEA                         u3590 17D3                         u1990 0BC2  
                       u2790 0DCF                         u2950 02DD                         u3591 17D2  
                       u1991 0BC1                         u2935 0E75                         u2695 0F1B  
                       u2775 0E38                         u2791 0DCE                         u2951 02DC  
                       u2880 0D73                         u2960 02EB                         u2881 0D72  
                       u3585 07E3                         u2961 02EA                         u2890 0D7D  
                       u2970 02FA                         u2891 0D7C                         u2875 0D67  
                       u2971 02F9                         u2980 030C                         u2981 030B  
                       u3917 0FA3                         u2990 0324                         u2895 0D79  
                       u2991 0323                         u3927 0FF7                         u3937 00DB  
                       u3890 0FDE                         _SCS0 04C8                         u3947 0BC7  
                       u3891 0FDD                         _SCS1 04C9                         u3957 0B3B  
                       u3967 179B                  _UI_DrawTime 0C4E            OLED_Printf_Line@i 00D1  
          OLED_Printf_Line@p 00C7                         _main 0F97             __end_of_I2C_Init 17A1  
                       fsr0h 0005                         fsr1h 0007                         indf0 0000  
                       fsr0l 0004                         indf1 0001                         fsr1l 0006  
                       btemp 007E             __end_of_I2C_Stop 0BB6                         start 0002  
          ___bmul@multiplier 0073             ??_OLED_WriteData 0079              __end_of___aldiv 02CB  
            __end_of___almod 023B                        ?_main 0070              __end_of___awdiv 0064  
            __end_of___awmod 0F3D              __end_of___lldiv 0F97              ___awdiv@divisor 0070  
            __end_of___llmod 0E4D                        _IRCF0 04CB                        _IRCF1 04CC  
                      _IRCF2 04CD                        _IRCF3 04CE              __end_of___lwdiv 0E03  
            __end_of___lwmod 0D91              ___awdiv@counter 0075                 main@last_sec 00E2  
            __end_of_get_bcd 0B93              __end_of_get_dec 17CB           OLED_Printf_Line@ch 00CE  
         OLED_Printf_Line@ap 00DD            ??_OLED_UpdateLine 0020            __end_of_I2C_Start 0BFF  
                _BatteryIcon 1815                 _I2C_WaitIdle 0BB6         I2C_WaitIF@timeout_ms 0070  
                      status 0003                        wtemp0 007E                 ?_internal_16 0070  
            __initialization 07ED                 __end_of_main 1000            RTC_ReadBurst@min1 0021  
          RTC_ReadBurst@sec1 0020             __end_of_OledFont 0B00              ??_RTC_ReadBurst 0077  
                     ??_main 0069          DS1302_Initialize@hr 0021                    ??_OLED_YX 0078  
           ___llmod@dividend 0074             ___awdiv@dividend 0072                 ??_I2C_WaitIF 0072  
          __end_of_OLED_Init 014C              _DS1302_ReadByte 0BFF                ?_OLED_Command 0070  
              main@last_date 00E1                       _SPLLEN 04CF                       _SSPADD 0212  
                     _SSPBUF 0211            ?_OLED_Printf_Line 0026           ??_OLED_Printf_Line 002E  
                     ___bmul 17A1                    ??___aldiv 0078                    ??___almod 0078  
                  ??___awdiv 0074                    ??___awmod 0074                    ??___lldiv 0078  
                  ??___llmod 0078          OLED_Printf_Line@col 00C6          OLED_Printf_Line@buf 00A0  
                  ??___lwdiv 0074          OLED_Printf_Line@fmt 0026          OLED_Printf_Line@dst 00E0  
                  ??___lwmod 0074          OLED_Printf_Line@val 00DB          OLED_Printf_Line@src 00DE  
           __end_of_initMain 0DC7          OLED_Printf_Line@str 0061                       _memcpy 0C24  
                     _memset 17E4                  OLED_Clear@p 007C             ___awdiv@quotient 0077  
            ___awmod@divisor 0070              ___awmod@counter 0075                  OLED_YX@page 0079  
         __end_of_I2C_WaitIF 0B4E                    ??_get_bcd 0079                    ??_get_dec 0074  
                     _strcmp 0CD0                       _strcpy 0B15                    ?_I2C_Init 0070  
                  ?_I2C_Stop 0070  OLED_Printf_Line@width2_zpad 00CD               ??_OLED_Command 0075  
            I2C_WriteByte@st 0074      __end_of__initialization 07FD          ___bmul@multiplicand 0070  
             __pcstackCOMMON 0070       DS1302_Initialize@date1 002B                _I2C_WriteByte 0D2B  
               __pidataBANK1 0004        DS1302_ReadByte@R_Byte 0072       DS1302_Initialize@year1 002D  
         RTC_ReadBurst@date1 0023                   ??_I2C_Init 0070                   ??_I2C_Stop 0073  
    __end_of_DS1302_ReadByte 0C24                 ?_UI_DrawDate 0070                 ??_OLED_Clear 0020  
               ?_UI_DrawTime 0070                 UI_DrawDate@t 0068         DS1302_Initialize@hr1 0029  
       DS1302_Initialize@day 0022         DS1302_Initialize@min 0020         DS1302_Initialize@sec 0026  
       DS1302_Initialize@mth 0024                 UI_DrawTime@t 0068                _SSD1306_CtrlW 176A  
                 __pmaintext 0F97               ?_I2C_WriteByte 0070             main@ast_date_701 00EA  
                    ?___bmul 0070                      ?_memcpy 0070                      ?_memset 0070  
                 I2C_Stop@st 0073              _OLED_UpdateLine 0C78           __end_of_OLED_Clear 0E9A  
                    ?_strcmp 0070                      ?_strcpy 0070      OLED_Printf_Line@val_352 00C8  
    OLED_Printf_Line@val_361 00C4      OLED_Printf_Line@val_355 00D6      OLED_Printf_Line@val_358 00CF  
     DS1302_WriteByte@W_Byte 0071                      _OLED_YX 0B4E                      _PPSLOCK 0E0F  
                    _SSPCON2 0216       I2C_WaitIdle@timeout_ms 0070                    ?_initMain 0070  
                  _I2C_Start 0BDA               RTC_ReadBurst@t 0027               ?_SSD1306_CtrlW 0070  
                    ___aldiv 023B                      ___almod 01C0                      ___awdiv 0005  
                    ___awmod 0EEA                      ___lldiv 0F3D                      ___llmod 0E03  
          ??_I2C_ClearErrors 0070                      ___lwdiv 0DC7                      ___lwmod 0D5D  
       __end_of_OLED_Command 0D2B                      __ptext1 0D91                      __ptext2 1778  
                    __ptext3 0C4E                      __ptext4 0CA4                      __ptext5 02CB  
                    __ptext6 0B15                      __ptext7 0CD0                      __ptext8 0C24  
                    __ptext9 0D5D                      _get_bcd 0B70         OLED_Printf_Line@line 00DA  
       OLED_Printf_Line@peek 00C0                      _get_dec 17B6         OLED_Printf_Line@temp 0050  
           ___awmod@dividend 0072             ___aldiv@dividend 0074             _DS1302_WriteByte 17CB  
           ?_DS1302_ReadByte 0070                      clrloop0 1782                      main@now 00E3  
       end_of_initialization 07FD                      memcpy@d 0076                      memcpy@n 0074  
                    memcpy@s 0078                   ??_initMain 0070                      memset@c 0072  
                    memset@n 0074                      memset@p 0076                    _OLED_Init 00D8  
                 ?_I2C_Start 0070            OLED_WriteData@len 0077              ??_I2C_WriteByte 0073  
            ___lldiv@divisor 0070              ___lldiv@counter 007D      __end_of_OLED_UpdateLine 0CA4  
           ___aldiv@quotient 0022                      strcmp@l 0073                      strcmp@r 0070  
                    strcpy@d 0075          OLED_UpdateLine@page 007C                    _PORTBbits 000D  
      __end_of_RTC_ReadBurst 01C0                   get_dec@var 0076                    _TRISBbits 008D  
                  _TRISCbits 008E              OLED_YX@col_char 0077              OLED_Command@cmd 0075  
            ??_SSD1306_CtrlW 0070                   ?_OLED_Init 0070               __end_of___bmul 17B6  
             __end_of_memcpy 0C4E               __end_of_memset 1800                ?_DS1302_Reset 0070  
             __end_of_strcmp 0CFD               __end_of_strcpy 0B30       DS1302_ReadByte@TmpByte 0071  
        start_initialization 07ED             RTC_ReadBurst@dy1 0025             RTC_ReadBurst@hr1 0022  
           RTC_ReadBurst@mn1 0024             RTC_ReadBurst@yr1 0026              ___llmod@divisor 0070  
                ??_I2C_Start 0073              ___llmod@counter 0079             ?_OLED_UpdateLine 0070  
                   ??___bmul 0071                   OLED_YX@col 007A                  __pdataBANK1 00EA  
                   ??_memcpy 0076                     ??_memset 0076                   memset@dest 0070  
             ??_DS1302_Reset 0070                     ??_strcmp 0072                     ??_strcpy 0073  
                __pbssBIGRAM 24F0                    ___latbits 0003                     ?_OLED_YX 0077  
              __pcstackBANK0 0020                __pcstackBANK1 00A0        DS1302_Initialize@day1 002A  
      DS1302_Initialize@date 0023        DS1302_Initialize@min1 0028        DS1302_Initialize@sec1 0027  
      DS1302_Initialize@mth1 002C        DS1302_Initialize@year 0025                ?_I2C_WaitIdle 0070  
               _OLED_Command 0CFD              _I2C_ClearErrors 1771                ??_internal_16 0070  
                ??_OLED_Init 007D                _screen_buffer 24F0             ___lwdiv@dividend 0072  
   __end_of_DS1302_WriteByte 17E4                     ?___aldiv 0070                     ?___almod 0070  
                   ?___awdiv 0070                     ?___awmod 0070                     ?___lldiv 0070  
                   ?___llmod 0070                     ?___lwdiv 0070                     ?___lwmod 0070  
     OLED_Printf_Line@nibble 00CC             _OLED_Printf_Line 02CB             ___almod@dividend 0074  
                   ?_get_bcd 0070                     ?_get_dec 0070                  I2C_Start@st 0073  
                   _I2C_Init 178D                     _I2C_Stop 0B93               _OLED_WriteData 0E9A  
           ___lwdiv@quotient 0075               ??_I2C_WaitIdle 0072              ___aldiv@divisor 0070  
            ___aldiv@counter 0020                     _LATBbits 010D                    clear_ram0 1781  
   OLED_Printf_Line@temp_353 003A     OLED_Printf_Line@temp_362 005C     OLED_Printf_Line@temp_356 0045  
   OLED_Printf_Line@temp_359 0056             OLED_WriteData@st 007B                     _PIR1bits 0011  
                   _PIR2bits 0012            _DS1302_Initialize 0064          __end_of_internal_16 1781  
         ?_DS1302_Initialize 0020       __end_of_OLED_WriteData 0EEA          ??_DS1302_Initialize 007E  
             OLED_Command@st 0076      __end_of_I2C_ClearErrors 1778                   _I2C_WaitIF 0B30  
                   _OledFont 0800         __end_of_DS1302_Reset 1771    __end_of_DS1302_Initialize 00D8  
                  memcpy@tmp 007A        __end_of_I2C_WriteByte 0D5D                   _ANSELBbits 018D  
                 _ANSELCbits 018E              ?_OLED_WriteData 0075        OLED_Printf_Line@i_360 00D4  
      OLED_Printf_Line@i_354 00D2        OLED_Printf_Line@i_363 00D5        OLED_Printf_Line@i_357 00D3  
            ___lwdiv@divisor 0070              ___lwdiv@counter 0077                     __ptext10 0DC7  
                   __ptext11 0E03                     __ptext20 00D8                     __ptext12 0F3D  
                   __ptext21 0E4D                     __ptext13 0EEA                     __ptext30 0BB6  
                   __ptext22 17E4                     __ptext14 01C0                     __ptext31 0B30  
                   __ptext23 0B4E                     __ptext15 023B                     __ptext32 178D  
                   __ptext24 0CFD                     __ptext16 0C78                     __ptext33 1771  
                   __ptext25 0E9A                     __ptext17 014C                     __ptext34 0064  
                   __ptext26 176A                     __ptext18 17B6                     __ptext35 0B70  
                   __ptext27 0D2B                     __ptext19 0BFF                     __ptext36 17A1  
                   __ptext28 0B93                     __ptext37 0005                     __ptext29 0BDA  
                   __ptext38 17CB                     __ptext39 176C                ??_UI_DrawDate 0062  
            ___almod@divisor 0070                ??_UI_DrawTime 0062              ___almod@counter 0079  
                 strcpy@dest 0070                     _initMain 0D91                _SSPDATPPSbits 0E21  
                _internal_16 1778        __end_of_SSD1306_CtrlW 176C              OLED_WriteData@i 0079  
                 _RC4PPSbits 0EA4                _SSPCLKPPSbits 0E20                   _RC5PPSbits 0EA5  
       __end_of_I2C_WaitIdle 0BDA             DS1302_ReadByte@i 0073                     memcpy@d1 0070  
                   memcpy@s1 0072             ?_I2C_ClearErrors 0070                  ?_I2C_WaitIF 0070  
                 _OLED_Clear 0E4D         _OLED_Printf_Line$365 00C2           OLED_WriteData@data 0075  
   __end_of_OLED_Printf_Line 07ED             ___lwmod@dividend 0072             ___lldiv@dividend 0074  
                  strcpy@src 0072                  _PPSLOCKbits 0E0F          __end_of_UI_DrawDate 0CD0  
        __end_of_UI_DrawTime 0C78            ?_DS1302_WriteByte 0070            ??_DS1302_ReadByte 0070  
         ??_DS1302_WriteByte 0070                __pstringtext1 1815                __pstringtext2 0800  
              __pstringtext3 1800                __pstringtext4 0000             ___lldiv@quotient 0079  
            ___lwmod@divisor 0070              ___lwmod@counter 0075                _RTC_ReadBurst 014C  
               ___aldiv@sign 0021                  _SSPCON1bits 0215                  _SSPCON2bits 0216  
               ___almod@sign 007A                  get_bcd@data 007C                  get_bcd@nibh 007D  
                get_bcd@nibl 007B            I2C_WriteByte@data 0073                   _SSPCONbits 0215  
        __end_of_BatteryIcon 181F                  get_dec@var2 0075  
