

Microchip MPLAB XC8 Assembler V2.46 build 20240104201356 
                                                                                               Sat Feb 07 16:27:11 2026

Microchip MPLAB XC8 C Compiler v2.46 (Free license) build 20240104201356 Og1 
     1                           	processor	16F1718
     2                           	pagewidth 120
     3                           	opt	flic
     4                           	psect	stringtext1,global,class=STRCODE,delta=2,noexec
     5                           	psect	stringtext2,global,class=STRCODE,delta=2,noexec
     6                           	psect	stringtext3,global,class=STRCODE,delta=2,noexec
     7                           	psect	stringtext4,global,class=STRCODE,delta=2,noexec
     8                           	psect	stringtext5,global,class=STRCODE,delta=2,noexec
     9                           	psect	stringtext6,global,class=STRCODE,delta=2,noexec
    10                           	psect	stringtext7,global,class=STRCODE,delta=2,noexec
    11                           	psect	stringtext8,global,class=STRCODE,delta=2,noexec
    12                           	psect	stringtext9,global,class=STRCODE,delta=2,noexec
    13                           	psect	stringtext10,global,class=STRCODE,delta=2,noexec
    14                           	psect	stringtext11,global,class=STRCODE,delta=2,noexec
    15                           	psect	stringtext12,global,class=STRCODE,delta=2,noexec
    16                           	psect	stringtext13,global,class=STRCODE,delta=2,noexec
    17                           	psect	stringtext14,global,class=STRCODE,delta=2,noexec
    18                           	psect	stringtext15,global,class=STRCODE,delta=2,noexec
    19                           	psect	stringtext16,global,class=STRCODE,delta=2,noexec
    20                           	psect	stringtext17,global,class=STRCODE,delta=2,noexec
    21                           	psect	cinit,global,class=CODE,merge=1,delta=2
    22                           	psect	clrtext,global,class=CODE,delta=2
    23                           	psect	cstackBANK1,global,class=BANK1,space=1,delta=1,noexec
    24                           	psect	cstackCOMMON,global,class=COMMON,space=1,delta=1,noexec
    25                           	psect	cstackBANK0,global,class=BANK0,space=1,delta=1,noexec
    26                           	psect	maintext,global,class=CODE,merge=1,split=1,delta=2
    27                           	psect	text1,local,class=CODE,merge=1,delta=2
    28                           	psect	text2,local,class=CODE,merge=1,delta=2
    29                           	psect	text3,local,class=CODE,merge=1,delta=2
    30                           	psect	text4,local,class=CODE,merge=1,delta=2
    31                           	psect	text5,local,class=CODE,merge=1,delta=2
    32                           	psect	text6,local,class=CODE,merge=1,delta=2,group=2
    33                           	psect	text7,local,class=CODE,merge=1,delta=2,group=2
    34                           	psect	text8,local,class=CODE,merge=1,delta=2,group=2
    35                           	psect	text9,local,class=CODE,merge=1,delta=2,group=1
    36                           	psect	text10,local,class=CODE,merge=1,delta=2,group=1
    37                           	psect	text11,local,class=CODE,merge=1,delta=2,group=1
    38                           	psect	text12,local,class=CODE,merge=1,delta=2,group=1
    39                           	psect	text13,local,class=CODE,merge=1,delta=2,group=1
    40                           	psect	text14,local,class=CODE,merge=1,delta=2,group=1
    41                           	psect	text15,local,class=CODE,merge=1,delta=2,group=1
    42                           	psect	text16,local,class=CODE,merge=1,delta=2
    43                           	psect	text17,local,class=CODE,merge=1,delta=2
    44                           	psect	text18,local,class=CODE,merge=1,delta=2
    45                           	psect	text19,local,class=CODE,merge=1,delta=2,group=2
    46                           	psect	text20,local,class=CODE,merge=1,delta=2
    47                           	psect	text21,local,class=CODE,merge=1,delta=2
    48                           	psect	text22,local,class=CODE,merge=1,delta=2
    49                           	psect	text23,local,class=CODE,merge=1,delta=2
    50                           	psect	text24,local,class=CODE,merge=1,delta=2
    51                           	psect	text25,local,class=CODE,merge=1,delta=2
    52                           	psect	text26,local,class=CODE,merge=1,delta=2
    53                           	psect	text27,local,class=CODE,merge=1,delta=2
    54                           	psect	text28,local,class=CODE,merge=1,delta=2
    55                           	psect	text29,local,class=CODE,merge=1,delta=2
    56                           	psect	text30,local,class=CODE,merge=1,delta=2
    57                           	psect	text31,local,class=CODE,merge=1,delta=2
    58                           	psect	text32,local,class=CODE,merge=1,delta=2,group=1
    59                           	psect	text33,local,class=CODE,merge=1,delta=2
    60                           	psect	text34,local,class=CODE,merge=1,delta=2
    61                           	psect	text35,local,class=CODE,merge=1,delta=2
    62                           	psect	text36,local,class=CODE,merge=1,delta=2
    63                           	psect	text37,local,class=CODE,merge=1,delta=2
    64                           	psect	config,global,abs,ovrld,class=CONFIG,space=4,delta=2,noexec
    65                           	dabs	1,0xCA0,32
    66                           	dabs	1,0xC20,80
    67                           	dabs	1,0xBA0,80
    68                           	dabs	1,0xB30,64
    69                           	dabs	1,0xB20,16
    70                           	dabs	1,0xAA0,80
    71                           	dabs	1,0xA20,80
    72                           	dabs	1,0x9A0,80
    73                           	dabs	1,0x920,80
    74                           	dabs	1,0x8A0,80
    75                           	dabs	1,0x820,80
    76                           	dabs	1,0x7E0,16
    77                           	dabs	1,0x24F0,0,_screen_buffer
    78                           	dabs	1,0x26F0,0,OLED_Printf_Line@last_text
    79                           	dabs	1,0x7E,2
    80     0000                     
    81                           ; Generated 07/09/2023 GMT
    82                           ; 
    83                           ; Copyright © 2023, Microchip Technology Inc. and its subsidiaries ("Microchip")
    84                           ; All rights reserved.
    85                           ; 
    86                           ; This software is developed by Microchip Technology Inc. and its subsidiaries ("Microch
      +                          ip").
    87                           ; 
    88                           ; Redistribution and use in source and binary forms, with or without modification, are
    89                           ; permitted provided that the following conditions are met:
    90                           ; 
    91                           ;     1. Redistributions of source code must retain the above copyright notice, this lis
      +                          t of
    92                           ;        conditions and the following disclaimer.
    93                           ; 
    94                           ;     2. Redistributions in binary form must reproduce the above copyright notice, this 
      +                          list
    95                           ;        of conditions and the following disclaimer in the documentation and/or other
    96                           ;        materials provided with the distribution. Publication is not required when
    97                           ;        this file is used in an embedded application.
    98                           ; 
    99                           ;     3. Microchip's name may not be used to endorse or promote products derived from th
      +                          is
   100                           ;        software without specific prior written permission.
   101                           ; 
   102                           ; THIS SOFTWARE IS PROVIDED BY MICROCHIP "AS IS" AND ANY EXPRESS OR IMPLIED WARRANTIES,
   103                           ; INCLUDING, BUT NOT LIMITED TO, THE IMPLIED WARRANTIES OF MERCHANTABILITY AND FITNESS F
      +                          OR
   104                           ; PURPOSE ARE DISCLAIMED.  IN NO EVENT SHALL MICROCHIP BE LIABLE FOR ANY DIRECT, INDIREC
      +                          T,
   105                           ; INCIDENTAL, SPECIAL, EXEMPLARY, OR CONSEQUENTIAL DAMAGES (INCLUDING BUT NOT LIMITED TO
   106                           ; PROCUREMENT OF SUBSTITUTE GOODS OR SERVICES; LOSS OF USE, DATA OR PROFITS; OR BUSINESS
   107                           ; INTERRUPTION) HOWSOEVER CAUSED AND ON ANY THEORY OF LIABILITY, WHETHER IN CONTRACT, ST
      +                          RICT
   108                           ; LIABILITY, OR TORT (INCLUDING NEGLIGENCE OR OTHERWISE) ARISING IN ANY WAY OUT OF THE U
      +                          SE OF
   109                           ; THIS SOFTWARE, EVEN IF ADVISED OF THE POSSIBILITY OF SUCH DAMAGE.
   110                           ; 
   111                           ; 
   112                           ; Code-generator required, PIC16F1718 Definitions
   113                           ; 
   114                           ; SFR Addresses
   115     0000                     	;# 
   116     0001                     	;# 
   117     0002                     	;# 
   118     0003                     	;# 
   119     0004                     	;# 
   120     0005                     	;# 
   121     0006                     	;# 
   122     0007                     	;# 
   123     0008                     	;# 
   124     0009                     	;# 
   125     000A                     	;# 
   126     000B                     	;# 
   127     000C                     	;# 
   128     000D                     	;# 
   129     000E                     	;# 
   130     0010                     	;# 
   131     0011                     	;# 
   132     0012                     	;# 
   133     0013                     	;# 
   134     0015                     	;# 
   135     0016                     	;# 
   136     0016                     	;# 
   137     0017                     	;# 
   138     0018                     	;# 
   139     0019                     	;# 
   140     001A                     	;# 
   141     001B                     	;# 
   142     001C                     	;# 
   143     008C                     	;# 
   144     008D                     	;# 
   145     008E                     	;# 
   146     0090                     	;# 
   147     0091                     	;# 
   148     0092                     	;# 
   149     0093                     	;# 
   150     0095                     	;# 
   151     0096                     	;# 
   152     0097                     	;# 
   153     0098                     	;# 
   154     0099                     	;# 
   155     009A                     	;# 
   156     009B                     	;# 
   157     009B                     	;# 
   158     009C                     	;# 
   159     009D                     	;# 
   160     009E                     	;# 
   161     009F                     	;# 
   162     010C                     	;# 
   163     010D                     	;# 
   164     010E                     	;# 
   165     0111                     	;# 
   166     0112                     	;# 
   167     0113                     	;# 
   168     0114                     	;# 
   169     0115                     	;# 
   170     0116                     	;# 
   171     0117                     	;# 
   172     0118                     	;# 
   173     0119                     	;# 
   174     011A                     	;# 
   175     011B                     	;# 
   176     011B                     	;# 
   177     011C                     	;# 
   178     018C                     	;# 
   179     018D                     	;# 
   180     018E                     	;# 
   181     0191                     	;# 
   182     0191                     	;# 
   183     0192                     	;# 
   184     0193                     	;# 
   185     0193                     	;# 
   186     0194                     	;# 
   187     0195                     	;# 
   188     0196                     	;# 
   189     0197                     	;# 
   190     0199                     	;# 
   191     0199                     	;# 
   192     0199                     	;# 
   193     019A                     	;# 
   194     019A                     	;# 
   195     019A                     	;# 
   196     019B                     	;# 
   197     019B                     	;# 
   198     019B                     	;# 
   199     019B                     	;# 
   200     019B                     	;# 
   201     019C                     	;# 
   202     019C                     	;# 
   203     019C                     	;# 
   204     019D                     	;# 
   205     019D                     	;# 
   206     019D                     	;# 
   207     019E                     	;# 
   208     019E                     	;# 
   209     019E                     	;# 
   210     019F                     	;# 
   211     019F                     	;# 
   212     019F                     	;# 
   213     019F                     	;# 
   214     019F                     	;# 
   215     020C                     	;# 
   216     020D                     	;# 
   217     020E                     	;# 
   218     0210                     	;# 
   219     0211                     	;# 
   220     0211                     	;# 
   221     0212                     	;# 
   222     0212                     	;# 
   223     0213                     	;# 
   224     0213                     	;# 
   225     0214                     	;# 
   226     0214                     	;# 
   227     0215                     	;# 
   228     0215                     	;# 
   229     0215                     	;# 
   230     0215                     	;# 
   231     0216                     	;# 
   232     0216                     	;# 
   233     0217                     	;# 
   234     0217                     	;# 
   235     028C                     	;# 
   236     028D                     	;# 
   237     028E                     	;# 
   238     0291                     	;# 
   239     0291                     	;# 
   240     0292                     	;# 
   241     0293                     	;# 
   242     0293                     	;# 
   243     0298                     	;# 
   244     0298                     	;# 
   245     0299                     	;# 
   246     029A                     	;# 
   247     029A                     	;# 
   248     029E                     	;# 
   249     030C                     	;# 
   250     030D                     	;# 
   251     030E                     	;# 
   252     038C                     	;# 
   253     038D                     	;# 
   254     038E                     	;# 
   255     0390                     	;# 
   256     0391                     	;# 
   257     0392                     	;# 
   258     0393                     	;# 
   259     0394                     	;# 
   260     0395                     	;# 
   261     0396                     	;# 
   262     0397                     	;# 
   263     0398                     	;# 
   264     0399                     	;# 
   265     039D                     	;# 
   266     039E                     	;# 
   267     039F                     	;# 
   268     0415                     	;# 
   269     0416                     	;# 
   270     0417                     	;# 
   271     041C                     	;# 
   272     041D                     	;# 
   273     041E                     	;# 
   274     0498                     	;# 
   275     0498                     	;# 
   276     0499                     	;# 
   277     049A                     	;# 
   278     049B                     	;# 
   279     049B                     	;# 
   280     049C                     	;# 
   281     049D                     	;# 
   282     049E                     	;# 
   283     049F                     	;# 
   284     0511                     	;# 
   285     0515                     	;# 
   286     0617                     	;# 
   287     0618                     	;# 
   288     0619                     	;# 
   289     0619                     	;# 
   290     061A                     	;# 
   291     061B                     	;# 
   292     061C                     	;# 
   293     061C                     	;# 
   294     0691                     	;# 
   295     0692                     	;# 
   296     0693                     	;# 
   297     0694                     	;# 
   298     0695                     	;# 
   299     0696                     	;# 
   300     0697                     	;# 
   301     0698                     	;# 
   302     0699                     	;# 
   303     069A                     	;# 
   304     069B                     	;# 
   305     069C                     	;# 
   306     069D                     	;# 
   307     069E                     	;# 
   308     069F                     	;# 
   309     0E0F                     	;# 
   310     0E10                     	;# 
   311     0E11                     	;# 
   312     0E12                     	;# 
   313     0E13                     	;# 
   314     0E14                     	;# 
   315     0E15                     	;# 
   316     0E17                     	;# 
   317     0E20                     	;# 
   318     0E21                     	;# 
   319     0E22                     	;# 
   320     0E24                     	;# 
   321     0E25                     	;# 
   322     0E28                     	;# 
   323     0E29                     	;# 
   324     0E2A                     	;# 
   325     0E2B                     	;# 
   326     0E90                     	;# 
   327     0E91                     	;# 
   328     0E92                     	;# 
   329     0E93                     	;# 
   330     0E94                     	;# 
   331     0E95                     	;# 
   332     0E96                     	;# 
   333     0E97                     	;# 
   334     0E98                     	;# 
   335     0E99                     	;# 
   336     0E9A                     	;# 
   337     0E9B                     	;# 
   338     0E9C                     	;# 
   339     0E9D                     	;# 
   340     0E9E                     	;# 
   341     0E9F                     	;# 
   342     0EA0                     	;# 
   343     0EA1                     	;# 
   344     0EA2                     	;# 
   345     0EA3                     	;# 
   346     0EA4                     	;# 
   347     0EA5                     	;# 
   348     0EA6                     	;# 
   349     0EA7                     	;# 
   350     0F0F                     	;# 
   351     0F10                     	;# 
   352     0F11                     	;# 
   353     0F12                     	;# 
   354     0F13                     	;# 
   355     0F14                     	;# 
   356     0F15                     	;# 
   357     0F16                     	;# 
   358     0F17                     	;# 
   359     0F18                     	;# 
   360     0F19                     	;# 
   361     0F1A                     	;# 
   362     0F1B                     	;# 
   363     0F1C                     	;# 
   364     0F1D                     	;# 
   365     0F1E                     	;# 
   366     0F1F                     	;# 
   367     0F20                     	;# 
   368     0F21                     	;# 
   369     0F22                     	;# 
   370     0F23                     	;# 
   371     0F24                     	;# 
   372     0F25                     	;# 
   373     0F26                     	;# 
   374     0F27                     	;# 
   375     0F28                     	;# 
   376     0F29                     	;# 
   377     0F2A                     	;# 
   378     0F2B                     	;# 
   379     0F2C                     	;# 
   380     0F2D                     	;# 
   381     0F2E                     	;# 
   382     0F2F                     	;# 
   383     0F30                     	;# 
   384     0F31                     	;# 
   385     0F32                     	;# 
   386     0F33                     	;# 
   387     0F34                     	;# 
   388     0F35                     	;# 
   389     0F36                     	;# 
   390     0F37                     	;# 
   391     0FE4                     	;# 
   392     0FE5                     	;# 
   393     0FE6                     	;# 
   394     0FE7                     	;# 
   395     0FE8                     	;# 
   396     0FE9                     	;# 
   397     0FEA                     	;# 
   398     0FEB                     	;# 
   399     0FED                     	;# 
   400     0FEE                     	;# 
   401     0FEF                     	;# 
   402     0000                     	;# 
   403     0001                     	;# 
   404     0002                     	;# 
   405     0003                     	;# 
   406     0004                     	;# 
   407     0005                     	;# 
   408     0006                     	;# 
   409     0007                     	;# 
   410     0008                     	;# 
   411     0009                     	;# 
   412     000A                     	;# 
   413     000B                     	;# 
   414     000C                     	;# 
   415     000D                     	;# 
   416     000E                     	;# 
   417     0010                     	;# 
   418     0011                     	;# 
   419     0012                     	;# 
   420     0013                     	;# 
   421     0015                     	;# 
   422     0016                     	;# 
   423     0016                     	;# 
   424     0017                     	;# 
   425     0018                     	;# 
   426     0019                     	;# 
   427     001A                     	;# 
   428     001B                     	;# 
   429     001C                     	;# 
   430     008C                     	;# 
   431     008D                     	;# 
   432     008E                     	;# 
   433     0090                     	;# 
   434     0091                     	;# 
   435     0092                     	;# 
   436     0093                     	;# 
   437     0095                     	;# 
   438     0096                     	;# 
   439     0097                     	;# 
   440     0098                     	;# 
   441     0099                     	;# 
   442     009A                     	;# 
   443     009B                     	;# 
   444     009B                     	;# 
   445     009C                     	;# 
   446     009D                     	;# 
   447     009E                     	;# 
   448     009F                     	;# 
   449     010C                     	;# 
   450     010D                     	;# 
   451     010E                     	;# 
   452     0111                     	;# 
   453     0112                     	;# 
   454     0113                     	;# 
   455     0114                     	;# 
   456     0115                     	;# 
   457     0116                     	;# 
   458     0117                     	;# 
   459     0118                     	;# 
   460     0119                     	;# 
   461     011A                     	;# 
   462     011B                     	;# 
   463     011B                     	;# 
   464     011C                     	;# 
   465     018C                     	;# 
   466     018D                     	;# 
   467     018E                     	;# 
   468     0191                     	;# 
   469     0191                     	;# 
   470     0192                     	;# 
   471     0193                     	;# 
   472     0193                     	;# 
   473     0194                     	;# 
   474     0195                     	;# 
   475     0196                     	;# 
   476     0197                     	;# 
   477     0199                     	;# 
   478     0199                     	;# 
   479     0199                     	;# 
   480     019A                     	;# 
   481     019A                     	;# 
   482     019A                     	;# 
   483     019B                     	;# 
   484     019B                     	;# 
   485     019B                     	;# 
   486     019B                     	;# 
   487     019B                     	;# 
   488     019C                     	;# 
   489     019C                     	;# 
   490     019C                     	;# 
   491     019D                     	;# 
   492     019D                     	;# 
   493     019D                     	;# 
   494     019E                     	;# 
   495     019E                     	;# 
   496     019E                     	;# 
   497     019F                     	;# 
   498     019F                     	;# 
   499     019F                     	;# 
   500     019F                     	;# 
   501     019F                     	;# 
   502     020C                     	;# 
   503     020D                     	;# 
   504     020E                     	;# 
   505     0210                     	;# 
   506     0211                     	;# 
   507     0211                     	;# 
   508     0212                     	;# 
   509     0212                     	;# 
   510     0213                     	;# 
   511     0213                     	;# 
   512     0214                     	;# 
   513     0214                     	;# 
   514     0215                     	;# 
   515     0215                     	;# 
   516     0215                     	;# 
   517     0215                     	;# 
   518     0216                     	;# 
   519     0216                     	;# 
   520     0217                     	;# 
   521     0217                     	;# 
   522     028C                     	;# 
   523     028D                     	;# 
   524     028E                     	;# 
   525     0291                     	;# 
   526     0291                     	;# 
   527     0292                     	;# 
   528     0293                     	;# 
   529     0293                     	;# 
   530     0298                     	;# 
   531     0298                     	;# 
   532     0299                     	;# 
   533     029A                     	;# 
   534     029A                     	;# 
   535     029E                     	;# 
   536     030C                     	;# 
   537     030D                     	;# 
   538     030E                     	;# 
   539     038C                     	;# 
   540     038D                     	;# 
   541     038E                     	;# 
   542     0390                     	;# 
   543     0391                     	;# 
   544     0392                     	;# 
   545     0393                     	;# 
   546     0394                     	;# 
   547     0395                     	;# 
   548     0396                     	;# 
   549     0397                     	;# 
   550     0398                     	;# 
   551     0399                     	;# 
   552     039D                     	;# 
   553     039E                     	;# 
   554     039F                     	;# 
   555     0415                     	;# 
   556     0416                     	;# 
   557     0417                     	;# 
   558     041C                     	;# 
   559     041D                     	;# 
   560     041E                     	;# 
   561     0498                     	;# 
   562     0498                     	;# 
   563     0499                     	;# 
   564     049A                     	;# 
   565     049B                     	;# 
   566     049B                     	;# 
   567     049C                     	;# 
   568     049D                     	;# 
   569     049E                     	;# 
   570     049F                     	;# 
   571     0511                     	;# 
   572     0515                     	;# 
   573     0617                     	;# 
   574     0618                     	;# 
   575     0619                     	;# 
   576     0619                     	;# 
   577     061A                     	;# 
   578     061B                     	;# 
   579     061C                     	;# 
   580     061C                     	;# 
   581     0691                     	;# 
   582     0692                     	;# 
   583     0693                     	;# 
   584     0694                     	;# 
   585     0695                     	;# 
   586     0696                     	;# 
   587     0697                     	;# 
   588     0698                     	;# 
   589     0699                     	;# 
   590     069A                     	;# 
   591     069B                     	;# 
   592     069C                     	;# 
   593     069D                     	;# 
   594     069E                     	;# 
   595     069F                     	;# 
   596     0E0F                     	;# 
   597     0E10                     	;# 
   598     0E11                     	;# 
   599     0E12                     	;# 
   600     0E13                     	;# 
   601     0E14                     	;# 
   602     0E15                     	;# 
   603     0E17                     	;# 
   604     0E20                     	;# 
   605     0E21                     	;# 
   606     0E22                     	;# 
   607     0E24                     	;# 
   608     0E25                     	;# 
   609     0E28                     	;# 
   610     0E29                     	;# 
   611     0E2A                     	;# 
   612     0E2B                     	;# 
   613     0E90                     	;# 
   614     0E91                     	;# 
   615     0E92                     	;# 
   616     0E93                     	;# 
   617     0E94                     	;# 
   618     0E95                     	;# 
   619     0E96                     	;# 
   620     0E97                     	;# 
   621     0E98                     	;# 
   622     0E99                     	;# 
   623     0E9A                     	;# 
   624     0E9B                     	;# 
   625     0E9C                     	;# 
   626     0E9D                     	;# 
   627     0E9E                     	;# 
   628     0E9F                     	;# 
   629     0EA0                     	;# 
   630     0EA1                     	;# 
   631     0EA2                     	;# 
   632     0EA3                     	;# 
   633     0EA4                     	;# 
   634     0EA5                     	;# 
   635     0EA6                     	;# 
   636     0EA7                     	;# 
   637     0F0F                     	;# 
   638     0F10                     	;# 
   639     0F11                     	;# 
   640     0F12                     	;# 
   641     0F13                     	;# 
   642     0F14                     	;# 
   643     0F15                     	;# 
   644     0F16                     	;# 
   645     0F17                     	;# 
   646     0F18                     	;# 
   647     0F19                     	;# 
   648     0F1A                     	;# 
   649     0F1B                     	;# 
   650     0F1C                     	;# 
   651     0F1D                     	;# 
   652     0F1E                     	;# 
   653     0F1F                     	;# 
   654     0F20                     	;# 
   655     0F21                     	;# 
   656     0F22                     	;# 
   657     0F23                     	;# 
   658     0F24                     	;# 
   659     0F25                     	;# 
   660     0F26                     	;# 
   661     0F27                     	;# 
   662     0F28                     	;# 
   663     0F29                     	;# 
   664     0F2A                     	;# 
   665     0F2B                     	;# 
   666     0F2C                     	;# 
   667     0F2D                     	;# 
   668     0F2E                     	;# 
   669     0F2F                     	;# 
   670     0F30                     	;# 
   671     0F31                     	;# 
   672     0F32                     	;# 
   673     0F33                     	;# 
   674     0F34                     	;# 
   675     0F35                     	;# 
   676     0F36                     	;# 
   677     0F37                     	;# 
   678     0FE4                     	;# 
   679     0FE5                     	;# 
   680     0FE6                     	;# 
   681     0FE7                     	;# 
   682     0FE8                     	;# 
   683     0FE9                     	;# 
   684     0FEA                     	;# 
   685     0FEB                     	;# 
   686     0FED                     	;# 
   687     0FEE                     	;# 
   688     0FEF                     	;# 
   689     0000                     	;# 
   690     0001                     	;# 
   691     0002                     	;# 
   692     0003                     	;# 
   693     0004                     	;# 
   694     0005                     	;# 
   695     0006                     	;# 
   696     0007                     	;# 
   697     0008                     	;# 
   698     0009                     	;# 
   699     000A                     	;# 
   700     000B                     	;# 
   701     000C                     	;# 
   702     000D                     	;# 
   703     000E                     	;# 
   704     0010                     	;# 
   705     0011                     	;# 
   706     0012                     	;# 
   707     0013                     	;# 
   708     0015                     	;# 
   709     0016                     	;# 
   710     0016                     	;# 
   711     0017                     	;# 
   712     0018                     	;# 
   713     0019                     	;# 
   714     001A                     	;# 
   715     001B                     	;# 
   716     001C                     	;# 
   717     008C                     	;# 
   718     008D                     	;# 
   719     008E                     	;# 
   720     0090                     	;# 
   721     0091                     	;# 
   722     0092                     	;# 
   723     0093                     	;# 
   724     0095                     	;# 
   725     0096                     	;# 
   726     0097                     	;# 
   727     0098                     	;# 
   728     0099                     	;# 
   729     009A                     	;# 
   730     009B                     	;# 
   731     009B                     	;# 
   732     009C                     	;# 
   733     009D                     	;# 
   734     009E                     	;# 
   735     009F                     	;# 
   736     010C                     	;# 
   737     010D                     	;# 
   738     010E                     	;# 
   739     0111                     	;# 
   740     0112                     	;# 
   741     0113                     	;# 
   742     0114                     	;# 
   743     0115                     	;# 
   744     0116                     	;# 
   745     0117                     	;# 
   746     0118                     	;# 
   747     0119                     	;# 
   748     011A                     	;# 
   749     011B                     	;# 
   750     011B                     	;# 
   751     011C                     	;# 
   752     018C                     	;# 
   753     018D                     	;# 
   754     018E                     	;# 
   755     0191                     	;# 
   756     0191                     	;# 
   757     0192                     	;# 
   758     0193                     	;# 
   759     0193                     	;# 
   760     0194                     	;# 
   761     0195                     	;# 
   762     0196                     	;# 
   763     0197                     	;# 
   764     0199                     	;# 
   765     0199                     	;# 
   766     0199                     	;# 
   767     019A                     	;# 
   768     019A                     	;# 
   769     019A                     	;# 
   770     019B                     	;# 
   771     019B                     	;# 
   772     019B                     	;# 
   773     019B                     	;# 
   774     019B                     	;# 
   775     019C                     	;# 
   776     019C                     	;# 
   777     019C                     	;# 
   778     019D                     	;# 
   779     019D                     	;# 
   780     019D                     	;# 
   781     019E                     	;# 
   782     019E                     	;# 
   783     019E                     	;# 
   784     019F                     	;# 
   785     019F                     	;# 
   786     019F                     	;# 
   787     019F                     	;# 
   788     019F                     	;# 
   789     020C                     	;# 
   790     020D                     	;# 
   791     020E                     	;# 
   792     0210                     	;# 
   793     0211                     	;# 
   794     0211                     	;# 
   795     0212                     	;# 
   796     0212                     	;# 
   797     0213                     	;# 
   798     0213                     	;# 
   799     0214                     	;# 
   800     0214                     	;# 
   801     0215                     	;# 
   802     0215                     	;# 
   803     0215                     	;# 
   804     0215                     	;# 
   805     0216                     	;# 
   806     0216                     	;# 
   807     0217                     	;# 
   808     0217                     	;# 
   809     028C                     	;# 
   810     028D                     	;# 
   811     028E                     	;# 
   812     0291                     	;# 
   813     0291                     	;# 
   814     0292                     	;# 
   815     0293                     	;# 
   816     0293                     	;# 
   817     0298                     	;# 
   818     0298                     	;# 
   819     0299                     	;# 
   820     029A                     	;# 
   821     029A                     	;# 
   822     029E                     	;# 
   823     030C                     	;# 
   824     030D                     	;# 
   825     030E                     	;# 
   826     038C                     	;# 
   827     038D                     	;# 
   828     038E                     	;# 
   829     0390                     	;# 
   830     0391                     	;# 
   831     0392                     	;# 
   832     0393                     	;# 
   833     0394                     	;# 
   834     0395                     	;# 
   835     0396                     	;# 
   836     0397                     	;# 
   837     0398                     	;# 
   838     0399                     	;# 
   839     039D                     	;# 
   840     039E                     	;# 
   841     039F                     	;# 
   842     0415                     	;# 
   843     0416                     	;# 
   844     0417                     	;# 
   845     041C                     	;# 
   846     041D                     	;# 
   847     041E                     	;# 
   848     0498                     	;# 
   849     0498                     	;# 
   850     0499                     	;# 
   851     049A                     	;# 
   852     049B                     	;# 
   853     049B                     	;# 
   854     049C                     	;# 
   855     049D                     	;# 
   856     049E                     	;# 
   857     049F                     	;# 
   858     0511                     	;# 
   859     0515                     	;# 
   860     0617                     	;# 
   861     0618                     	;# 
   862     0619                     	;# 
   863     0619                     	;# 
   864     061A                     	;# 
   865     061B                     	;# 
   866     061C                     	;# 
   867     061C                     	;# 
   868     0691                     	;# 
   869     0692                     	;# 
   870     0693                     	;# 
   871     0694                     	;# 
   872     0695                     	;# 
   873     0696                     	;# 
   874     0697                     	;# 
   875     0698                     	;# 
   876     0699                     	;# 
   877     069A                     	;# 
   878     069B                     	;# 
   879     069C                     	;# 
   880     069D                     	;# 
   881     069E                     	;# 
   882     069F                     	;# 
   883     0E0F                     	;# 
   884     0E10                     	;# 
   885     0E11                     	;# 
   886     0E12                     	;# 
   887     0E13                     	;# 
   888     0E14                     	;# 
   889     0E15                     	;# 
   890     0E17                     	;# 
   891     0E20                     	;# 
   892     0E21                     	;# 
   893     0E22                     	;# 
   894     0E24                     	;# 
   895     0E25                     	;# 
   896     0E28                     	;# 
   897     0E29                     	;# 
   898     0E2A                     	;# 
   899     0E2B                     	;# 
   900     0E90                     	;# 
   901     0E91                     	;# 
   902     0E92                     	;# 
   903     0E93                     	;# 
   904     0E94                     	;# 
   905     0E95                     	;# 
   906     0E96                     	;# 
   907     0E97                     	;# 
   908     0E98                     	;# 
   909     0E99                     	;# 
   910     0E9A                     	;# 
   911     0E9B                     	;# 
   912     0E9C                     	;# 
   913     0E9D                     	;# 
   914     0E9E                     	;# 
   915     0E9F                     	;# 
   916     0EA0                     	;# 
   917     0EA1                     	;# 
   918     0EA2                     	;# 
   919     0EA3                     	;# 
   920     0EA4                     	;# 
   921     0EA5                     	;# 
   922     0EA6                     	;# 
   923     0EA7                     	;# 
   924     0F0F                     	;# 
   925     0F10                     	;# 
   926     0F11                     	;# 
   927     0F12                     	;# 
   928     0F13                     	;# 
   929     0F14                     	;# 
   930     0F15                     	;# 
   931     0F16                     	;# 
   932     0F17                     	;# 
   933     0F18                     	;# 
   934     0F19                     	;# 
   935     0F1A                     	;# 
   936     0F1B                     	;# 
   937     0F1C                     	;# 
   938     0F1D                     	;# 
   939     0F1E                     	;# 
   940     0F1F                     	;# 
   941     0F20                     	;# 
   942     0F21                     	;# 
   943     0F22                     	;# 
   944     0F23                     	;# 
   945     0F24                     	;# 
   946     0F25                     	;# 
   947     0F26                     	;# 
   948     0F27                     	;# 
   949     0F28                     	;# 
   950     0F29                     	;# 
   951     0F2A                     	;# 
   952     0F2B                     	;# 
   953     0F2C                     	;# 
   954     0F2D                     	;# 
   955     0F2E                     	;# 
   956     0F2F                     	;# 
   957     0F30                     	;# 
   958     0F31                     	;# 
   959     0F32                     	;# 
   960     0F33                     	;# 
   961     0F34                     	;# 
   962     0F35                     	;# 
   963     0F36                     	;# 
   964     0F37                     	;# 
   965     0FE4                     	;# 
   966     0FE5                     	;# 
   967     0FE6                     	;# 
   968     0FE7                     	;# 
   969     0FE8                     	;# 
   970     0FE9                     	;# 
   971     0FEA                     	;# 
   972     0FEB                     	;# 
   973     0FED                     	;# 
   974     0FEE                     	;# 
   975     0FEF                     	;# 
   976     0000                     	;# 
   977     0001                     	;# 
   978     0002                     	;# 
   979     0003                     	;# 
   980     0004                     	;# 
   981     0005                     	;# 
   982     0006                     	;# 
   983     0007                     	;# 
   984     0008                     	;# 
   985     0009                     	;# 
   986     000A                     	;# 
   987     000B                     	;# 
   988     000C                     	;# 
   989     000D                     	;# 
   990     000E                     	;# 
   991     0010                     	;# 
   992     0011                     	;# 
   993     0012                     	;# 
   994     0013                     	;# 
   995     0015                     	;# 
   996     0016                     	;# 
   997     0016                     	;# 
   998     0017                     	;# 
   999     0018                     	;# 
  1000     0019                     	;# 
  1001     001A                     	;# 
  1002     001B                     	;# 
  1003     001C                     	;# 
  1004     008C                     	;# 
  1005     008D                     	;# 
  1006     008E                     	;# 
  1007     0090                     	;# 
  1008     0091                     	;# 
  1009     0092                     	;# 
  1010     0093                     	;# 
  1011     0095                     	;# 
  1012     0096                     	;# 
  1013     0097                     	;# 
  1014     0098                     	;# 
  1015     0099                     	;# 
  1016     009A                     	;# 
  1017     009B                     	;# 
  1018     009B                     	;# 
  1019     009C                     	;# 
  1020     009D                     	;# 
  1021     009E                     	;# 
  1022     009F                     	;# 
  1023     010C                     	;# 
  1024     010D                     	;# 
  1025     010E                     	;# 
  1026     0111                     	;# 
  1027     0112                     	;# 
  1028     0113                     	;# 
  1029     0114                     	;# 
  1030     0115                     	;# 
  1031     0116                     	;# 
  1032     0117                     	;# 
  1033     0118                     	;# 
  1034     0119                     	;# 
  1035     011A                     	;# 
  1036     011B                     	;# 
  1037     011B                     	;# 
  1038     011C                     	;# 
  1039     018C                     	;# 
  1040     018D                     	;# 
  1041     018E                     	;# 
  1042     0191                     	;# 
  1043     0191                     	;# 
  1044     0192                     	;# 
  1045     0193                     	;# 
  1046     0193                     	;# 
  1047     0194                     	;# 
  1048     0195                     	;# 
  1049     0196                     	;# 
  1050     0197                     	;# 
  1051     0199                     	;# 
  1052     0199                     	;# 
  1053     0199                     	;# 
  1054     019A                     	;# 
  1055     019A                     	;# 
  1056     019A                     	;# 
  1057     019B                     	;# 
  1058     019B                     	;# 
  1059     019B                     	;# 
  1060     019B                     	;# 
  1061     019B                     	;# 
  1062     019C                     	;# 
  1063     019C                     	;# 
  1064     019C                     	;# 
  1065     019D                     	;# 
  1066     019D                     	;# 
  1067     019D                     	;# 
  1068     019E                     	;# 
  1069     019E                     	;# 
  1070     019E                     	;# 
  1071     019F                     	;# 
  1072     019F                     	;# 
  1073     019F                     	;# 
  1074     019F                     	;# 
  1075     019F                     	;# 
  1076     020C                     	;# 
  1077     020D                     	;# 
  1078     020E                     	;# 
  1079     0210                     	;# 
  1080     0211                     	;# 
  1081     0211                     	;# 
  1082     0212                     	;# 
  1083     0212                     	;# 
  1084     0213                     	;# 
  1085     0213                     	;# 
  1086     0214                     	;# 
  1087     0214                     	;# 
  1088     0215                     	;# 
  1089     0215                     	;# 
  1090     0215                     	;# 
  1091     0215                     	;# 
  1092     0216                     	;# 
  1093     0216                     	;# 
  1094     0217                     	;# 
  1095     0217                     	;# 
  1096     028C                     	;# 
  1097     028D                     	;# 
  1098     028E                     	;# 
  1099     0291                     	;# 
  1100     0291                     	;# 
  1101     0292                     	;# 
  1102     0293                     	;# 
  1103     0293                     	;# 
  1104     0298                     	;# 
  1105     0298                     	;# 
  1106     0299                     	;# 
  1107     029A                     	;# 
  1108     029A                     	;# 
  1109     029E                     	;# 
  1110     030C                     	;# 
  1111     030D                     	;# 
  1112     030E                     	;# 
  1113     038C                     	;# 
  1114     038D                     	;# 
  1115     038E                     	;# 
  1116     0390                     	;# 
  1117     0391                     	;# 
  1118     0392                     	;# 
  1119     0393                     	;# 
  1120     0394                     	;# 
  1121     0395                     	;# 
  1122     0396                     	;# 
  1123     0397                     	;# 
  1124     0398                     	;# 
  1125     0399                     	;# 
  1126     039D                     	;# 
  1127     039E                     	;# 
  1128     039F                     	;# 
  1129     0415                     	;# 
  1130     0416                     	;# 
  1131     0417                     	;# 
  1132     041C                     	;# 
  1133     041D                     	;# 
  1134     041E                     	;# 
  1135     0498                     	;# 
  1136     0498                     	;# 
  1137     0499                     	;# 
  1138     049A                     	;# 
  1139     049B                     	;# 
  1140     049B                     	;# 
  1141     049C                     	;# 
  1142     049D                     	;# 
  1143     049E                     	;# 
  1144     049F                     	;# 
  1145     0511                     	;# 
  1146     0515                     	;# 
  1147     0617                     	;# 
  1148     0618                     	;# 
  1149     0619                     	;# 
  1150     0619                     	;# 
  1151     061A                     	;# 
  1152     061B                     	;# 
  1153     061C                     	;# 
  1154     061C                     	;# 
  1155     0691                     	;# 
  1156     0692                     	;# 
  1157     0693                     	;# 
  1158     0694                     	;# 
  1159     0695                     	;# 
  1160     0696                     	;# 
  1161     0697                     	;# 
  1162     0698                     	;# 
  1163     0699                     	;# 
  1164     069A                     	;# 
  1165     069B                     	;# 
  1166     069C                     	;# 
  1167     069D                     	;# 
  1168     069E                     	;# 
  1169     069F                     	;# 
  1170     0E0F                     	;# 
  1171     0E10                     	;# 
  1172     0E11                     	;# 
  1173     0E12                     	;# 
  1174     0E13                     	;# 
  1175     0E14                     	;# 
  1176     0E15                     	;# 
  1177     0E17                     	;# 
  1178     0E20                     	;# 
  1179     0E21                     	;# 
  1180     0E22                     	;# 
  1181     0E24                     	;# 
  1182     0E25                     	;# 
  1183     0E28                     	;# 
  1184     0E29                     	;# 
  1185     0E2A                     	;# 
  1186     0E2B                     	;# 
  1187     0E90                     	;# 
  1188     0E91                     	;# 
  1189     0E92                     	;# 
  1190     0E93                     	;# 
  1191     0E94                     	;# 
  1192     0E95                     	;# 
  1193     0E96                     	;# 
  1194     0E97                     	;# 
  1195     0E98                     	;# 
  1196     0E99                     	;# 
  1197     0E9A                     	;# 
  1198     0E9B                     	;# 
  1199     0E9C                     	;# 
  1200     0E9D                     	;# 
  1201     0E9E                     	;# 
  1202     0E9F                     	;# 
  1203     0EA0                     	;# 
  1204     0EA1                     	;# 
  1205     0EA2                     	;# 
  1206     0EA3                     	;# 
  1207     0EA4                     	;# 
  1208     0EA5                     	;# 
  1209     0EA6                     	;# 
  1210     0EA7                     	;# 
  1211     0F0F                     	;# 
  1212     0F10                     	;# 
  1213     0F11                     	;# 
  1214     0F12                     	;# 
  1215     0F13                     	;# 
  1216     0F14                     	;# 
  1217     0F15                     	;# 
  1218     0F16                     	;# 
  1219     0F17                     	;# 
  1220     0F18                     	;# 
  1221     0F19                     	;# 
  1222     0F1A                     	;# 
  1223     0F1B                     	;# 
  1224     0F1C                     	;# 
  1225     0F1D                     	;# 
  1226     0F1E                     	;# 
  1227     0F1F                     	;# 
  1228     0F20                     	;# 
  1229     0F21                     	;# 
  1230     0F22                     	;# 
  1231     0F23                     	;# 
  1232     0F24                     	;# 
  1233     0F25                     	;# 
  1234     0F26                     	;# 
  1235     0F27                     	;# 
  1236     0F28                     	;# 
  1237     0F29                     	;# 
  1238     0F2A                     	;# 
  1239     0F2B                     	;# 
  1240     0F2C                     	;# 
  1241     0F2D                     	;# 
  1242     0F2E                     	;# 
  1243     0F2F                     	;# 
  1244     0F30                     	;# 
  1245     0F31                     	;# 
  1246     0F32                     	;# 
  1247     0F33                     	;# 
  1248     0F34                     	;# 
  1249     0F35                     	;# 
  1250     0F36                     	;# 
  1251     0F37                     	;# 
  1252     0FE4                     	;# 
  1253     0FE5                     	;# 
  1254     0FE6                     	;# 
  1255     0FE7                     	;# 
  1256     0FE8                     	;# 
  1257     0FE9                     	;# 
  1258     0FEA                     	;# 
  1259     0FEB                     	;# 
  1260     0FED                     	;# 
  1261     0FEE                     	;# 
  1262     0FEF                     	;_screen_buffer
  1263                           
  1264                           	psect	stringtext1
  1265     100D                     __pstringtext1:
  1266     100D                     _BatteryIcon:
  1267     100D  34FF               	retlw	255
  1268     100E  3481               	retlw	129
  1269     100F  34BD               	retlw	189
  1270     1010  34BD               	retlw	189
  1271     1011  34BD               	retlw	189
  1272     1012  3481               	retlw	129
  1273     1013  34FF               	retlw	255
  1274     1014  3418               	retlw	24
  1275     1015  3400               	retlw	0
  1276     1016  3400               	retlw	0
  1277     1017                     __end_of_BatteryIcon:
  1278                           
  1279                           	psect	stringtext2
  1280     0800                     __pstringtext2:
  1281     0800                     _OledFont:
  1282     0800  3400               	retlw	0
  1283     0801  3400               	retlw	0
  1284     0802  3400               	retlw	0
  1285     0803  3400               	retlw	0
  1286     0804  3400               	retlw	0
  1287     0805  3400               	retlw	0
  1288     0806  3400               	retlw	0
  1289     0807  3400               	retlw	0
  1290     0808  3400               	retlw	0
  1291     0809  3400               	retlw	0
  1292     080A  345F               	retlw	95
  1293     080B  3400               	retlw	0
  1294     080C  3400               	retlw	0
  1295     080D  3400               	retlw	0
  1296     080E  3400               	retlw	0
  1297     080F  3400               	retlw	0
  1298     0810  3400               	retlw	0
  1299     0811  3400               	retlw	0
  1300     0812  3407               	retlw	7
  1301     0813  3400               	retlw	0
  1302     0814  3407               	retlw	7
  1303     0815  3400               	retlw	0
  1304     0816  3400               	retlw	0
  1305     0817  3400               	retlw	0
  1306     0818  3400               	retlw	0
  1307     0819  3414               	retlw	20
  1308     081A  347F               	retlw	127
  1309     081B  3414               	retlw	20
  1310     081C  347F               	retlw	127
  1311     081D  3414               	retlw	20
  1312     081E  3400               	retlw	0
  1313     081F  3400               	retlw	0
  1314     0820  3400               	retlw	0
  1315     0821  3424               	retlw	36
  1316     0822  342A               	retlw	42
  1317     0823  347F               	retlw	127
  1318     0824  342A               	retlw	42
  1319     0825  3412               	retlw	18
  1320     0826  3400               	retlw	0
  1321     0827  3400               	retlw	0
  1322     0828  3400               	retlw	0
  1323     0829  3423               	retlw	35
  1324     082A  3413               	retlw	19
  1325     082B  3408               	retlw	8
  1326     082C  3464               	retlw	100
  1327     082D  3462               	retlw	98
  1328     082E  3400               	retlw	0
  1329     082F  3400               	retlw	0
  1330     0830  3400               	retlw	0
  1331     0831  3436               	retlw	54
  1332     0832  3449               	retlw	73
  1333     0833  3455               	retlw	85
  1334     0834  3422               	retlw	34
  1335     0835  3450               	retlw	80
  1336     0836  3400               	retlw	0
  1337     0837  3400               	retlw	0
  1338     0838  3400               	retlw	0
  1339     0839  3400               	retlw	0
  1340     083A  3405               	retlw	5
  1341     083B  3403               	retlw	3
  1342     083C  3400               	retlw	0
  1343     083D  3400               	retlw	0
  1344     083E  3400               	retlw	0
  1345     083F  3400               	retlw	0
  1346     0840  3400               	retlw	0
  1347     0841  341C               	retlw	28
  1348     0842  3422               	retlw	34
  1349     0843  3441               	retlw	65
  1350     0844  3400               	retlw	0
  1351     0845  3400               	retlw	0
  1352     0846  3400               	retlw	0
  1353     0847  3400               	retlw	0
  1354     0848  3400               	retlw	0
  1355     0849  3441               	retlw	65
  1356     084A  3422               	retlw	34
  1357     084B  341C               	retlw	28
  1358     084C  3400               	retlw	0
  1359     084D  3400               	retlw	0
  1360     084E  3400               	retlw	0
  1361     084F  3400               	retlw	0
  1362     0850  3400               	retlw	0
  1363     0851  3408               	retlw	8
  1364     0852  342A               	retlw	42
  1365     0853  341C               	retlw	28
  1366     0854  342A               	retlw	42
  1367     0855  3408               	retlw	8
  1368     0856  3400               	retlw	0
  1369     0857  3400               	retlw	0
  1370     0858  3400               	retlw	0
  1371     0859  3408               	retlw	8
  1372     085A  3408               	retlw	8
  1373     085B  343E               	retlw	62
  1374     085C  3408               	retlw	8
  1375     085D  3408               	retlw	8
  1376     085E  3400               	retlw	0
  1377     085F  3400               	retlw	0
  1378     0860  3400               	retlw	0
  1379     0861  34A0               	retlw	160
  1380     0862  3460               	retlw	96
  1381     0863  3400               	retlw	0
  1382     0864  3400               	retlw	0
  1383     0865  3400               	retlw	0
  1384     0866  3400               	retlw	0
  1385     0867  3400               	retlw	0
  1386     0868  3400               	retlw	0
  1387     0869  3408               	retlw	8
  1388     086A  3408               	retlw	8
  1389     086B  3408               	retlw	8
  1390     086C  3408               	retlw	8
  1391     086D  3408               	retlw	8
  1392     086E  3400               	retlw	0
  1393     086F  3400               	retlw	0
  1394     0870  3400               	retlw	0
  1395     0871  3460               	retlw	96
  1396     0872  3460               	retlw	96
  1397     0873  3400               	retlw	0
  1398     0874  3400               	retlw	0
  1399     0875  3400               	retlw	0
  1400     0876  3400               	retlw	0
  1401     0877  3400               	retlw	0
  1402     0878  3400               	retlw	0
  1403     0879  3420               	retlw	32
  1404     087A  3410               	retlw	16
  1405     087B  3408               	retlw	8
  1406     087C  3404               	retlw	4
  1407     087D  3402               	retlw	2
  1408     087E  3400               	retlw	0
  1409     087F  3400               	retlw	0
  1410     0880  3400               	retlw	0
  1411     0881  343E               	retlw	62
  1412     0882  3451               	retlw	81
  1413     0883  3449               	retlw	73
  1414     0884  3445               	retlw	69
  1415     0885  343E               	retlw	62
  1416     0886  3400               	retlw	0
  1417     0887  3400               	retlw	0
  1418     0888  3400               	retlw	0
  1419     0889  3400               	retlw	0
  1420     088A  3442               	retlw	66
  1421     088B  347F               	retlw	127
  1422     088C  3440               	retlw	64
  1423     088D  3400               	retlw	0
  1424     088E  3400               	retlw	0
  1425     088F  3400               	retlw	0
  1426     0890  3400               	retlw	0
  1427     0891  3462               	retlw	98
  1428     0892  3451               	retlw	81
  1429     0893  3449               	retlw	73
  1430     0894  3449               	retlw	73
  1431     0895  3446               	retlw	70
  1432     0896  3400               	retlw	0
  1433     0897  3400               	retlw	0
  1434     0898  3400               	retlw	0
  1435     0899  3422               	retlw	34
  1436     089A  3441               	retlw	65
  1437     089B  3449               	retlw	73
  1438     089C  3449               	retlw	73
  1439     089D  3436               	retlw	54
  1440     089E  3400               	retlw	0
  1441     089F  3400               	retlw	0
  1442     08A0  3400               	retlw	0
  1443     08A1  3418               	retlw	24
  1444     08A2  3414               	retlw	20
  1445     08A3  3412               	retlw	18
  1446     08A4  347F               	retlw	127
  1447     08A5  3410               	retlw	16
  1448     08A6  3400               	retlw	0
  1449     08A7  3400               	retlw	0
  1450     08A8  3400               	retlw	0
  1451     08A9  3427               	retlw	39
  1452     08AA  3445               	retlw	69
  1453     08AB  3445               	retlw	69
  1454     08AC  3445               	retlw	69
  1455     08AD  3439               	retlw	57
  1456     08AE  3400               	retlw	0
  1457     08AF  3400               	retlw	0
  1458     08B0  3400               	retlw	0
  1459     08B1  343C               	retlw	60
  1460     08B2  344A               	retlw	74
  1461     08B3  3449               	retlw	73
  1462     08B4  3449               	retlw	73
  1463     08B5  3430               	retlw	48
  1464     08B6  3400               	retlw	0
  1465     08B7  3400               	retlw	0
  1466     08B8  3400               	retlw	0
  1467     08B9  3401               	retlw	1
  1468     08BA  3471               	retlw	113
  1469     08BB  3409               	retlw	9
  1470     08BC  3405               	retlw	5
  1471     08BD  3403               	retlw	3
  1472     08BE  3400               	retlw	0
  1473     08BF  3400               	retlw	0
  1474     08C0  3400               	retlw	0
  1475     08C1  3436               	retlw	54
  1476     08C2  3449               	retlw	73
  1477     08C3  3449               	retlw	73
  1478     08C4  3449               	retlw	73
  1479     08C5  3436               	retlw	54
  1480     08C6  3400               	retlw	0
  1481     08C7  3400               	retlw	0
  1482     08C8  3400               	retlw	0
  1483     08C9  3406               	retlw	6
  1484     08CA  3449               	retlw	73
  1485     08CB  3449               	retlw	73
  1486     08CC  3429               	retlw	41
  1487     08CD  341E               	retlw	30
  1488     08CE  3400               	retlw	0
  1489     08CF  3400               	retlw	0
  1490     08D0  3400               	retlw	0
  1491     08D1  3400               	retlw	0
  1492     08D2  3436               	retlw	54
  1493     08D3  3436               	retlw	54
  1494     08D4  3400               	retlw	0
  1495     08D5  3400               	retlw	0
  1496     08D6  3400               	retlw	0
  1497     08D7  3400               	retlw	0
  1498     08D8  3400               	retlw	0
  1499     08D9  3400               	retlw	0
  1500     08DA  34AC               	retlw	172
  1501     08DB  346C               	retlw	108
  1502     08DC  3400               	retlw	0
  1503     08DD  3400               	retlw	0
  1504     08DE  3400               	retlw	0
  1505     08DF  3400               	retlw	0
  1506     08E0  3400               	retlw	0
  1507     08E1  3408               	retlw	8
  1508     08E2  3414               	retlw	20
  1509     08E3  3422               	retlw	34
  1510     08E4  3441               	retlw	65
  1511     08E5  3400               	retlw	0
  1512     08E6  3400               	retlw	0
  1513     08E7  3400               	retlw	0
  1514     08E8  3400               	retlw	0
  1515     08E9  3414               	retlw	20
  1516     08EA  3414               	retlw	20
  1517     08EB  3414               	retlw	20
  1518     08EC  3414               	retlw	20
  1519     08ED  3414               	retlw	20
  1520     08EE  3400               	retlw	0
  1521     08EF  3400               	retlw	0
  1522     08F0  3400               	retlw	0
  1523     08F1  3441               	retlw	65
  1524     08F2  3422               	retlw	34
  1525     08F3  3414               	retlw	20
  1526     08F4  3408               	retlw	8
  1527     08F5  3400               	retlw	0
  1528     08F6  3400               	retlw	0
  1529     08F7  3400               	retlw	0
  1530     08F8  3400               	retlw	0
  1531     08F9  3402               	retlw	2
  1532     08FA  3401               	retlw	1
  1533     08FB  3451               	retlw	81
  1534     08FC  3409               	retlw	9
  1535     08FD  3406               	retlw	6
  1536     08FE  3400               	retlw	0
  1537     08FF  3400               	retlw	0
  1538     0900  3400               	retlw	0
  1539     0901  3432               	retlw	50
  1540     0902  3449               	retlw	73
  1541     0903  3479               	retlw	121
  1542     0904  3441               	retlw	65
  1543     0905  343E               	retlw	62
  1544     0906  3400               	retlw	0
  1545     0907  3400               	retlw	0
  1546     0908  3400               	retlw	0
  1547     0909  347E               	retlw	126
  1548     090A  3409               	retlw	9
  1549     090B  3409               	retlw	9
  1550     090C  3409               	retlw	9
  1551     090D  347E               	retlw	126
  1552     090E  3400               	retlw	0
  1553     090F  3400               	retlw	0
  1554     0910  3400               	retlw	0
  1555     0911  347F               	retlw	127
  1556     0912  3449               	retlw	73
  1557     0913  3449               	retlw	73
  1558     0914  3449               	retlw	73
  1559     0915  3436               	retlw	54
  1560     0916  3400               	retlw	0
  1561     0917  3400               	retlw	0
  1562     0918  3400               	retlw	0
  1563     0919  343E               	retlw	62
  1564     091A  3441               	retlw	65
  1565     091B  3441               	retlw	65
  1566     091C  3441               	retlw	65
  1567     091D  3422               	retlw	34
  1568     091E  3400               	retlw	0
  1569     091F  3400               	retlw	0
  1570     0920  3400               	retlw	0
  1571     0921  347F               	retlw	127
  1572     0922  3441               	retlw	65
  1573     0923  3441               	retlw	65
  1574     0924  3422               	retlw	34
  1575     0925  341C               	retlw	28
  1576     0926  3400               	retlw	0
  1577     0927  3400               	retlw	0
  1578     0928  3400               	retlw	0
  1579     0929  347F               	retlw	127
  1580     092A  3449               	retlw	73
  1581     092B  3449               	retlw	73
  1582     092C  3449               	retlw	73
  1583     092D  3441               	retlw	65
  1584     092E  3400               	retlw	0
  1585     092F  3400               	retlw	0
  1586     0930  3400               	retlw	0
  1587     0931  347F               	retlw	127
  1588     0932  3409               	retlw	9
  1589     0933  3409               	retlw	9
  1590     0934  3409               	retlw	9
  1591     0935  3401               	retlw	1
  1592     0936  3400               	retlw	0
  1593     0937  3400               	retlw	0
  1594     0938  3400               	retlw	0
  1595     0939  343E               	retlw	62
  1596     093A  3441               	retlw	65
  1597     093B  3441               	retlw	65
  1598     093C  3451               	retlw	81
  1599     093D  3472               	retlw	114
  1600     093E  3400               	retlw	0
  1601     093F  3400               	retlw	0
  1602     0940  3400               	retlw	0
  1603     0941  347F               	retlw	127
  1604     0942  3408               	retlw	8
  1605     0943  3408               	retlw	8
  1606     0944  3408               	retlw	8
  1607     0945  347F               	retlw	127
  1608     0946  3400               	retlw	0
  1609     0947  3400               	retlw	0
  1610     0948  3400               	retlw	0
  1611     0949  3441               	retlw	65
  1612     094A  347F               	retlw	127
  1613     094B  3441               	retlw	65
  1614     094C  3400               	retlw	0
  1615     094D  3400               	retlw	0
  1616     094E  3400               	retlw	0
  1617     094F  3400               	retlw	0
  1618     0950  3400               	retlw	0
  1619     0951  3420               	retlw	32
  1620     0952  3440               	retlw	64
  1621     0953  3441               	retlw	65
  1622     0954  343F               	retlw	63
  1623     0955  3401               	retlw	1
  1624     0956  3400               	retlw	0
  1625     0957  3400               	retlw	0
  1626     0958  3400               	retlw	0
  1627     0959  347F               	retlw	127
  1628     095A  3408               	retlw	8
  1629     095B  3414               	retlw	20
  1630     095C  3422               	retlw	34
  1631     095D  3441               	retlw	65
  1632     095E  3400               	retlw	0
  1633     095F  3400               	retlw	0
  1634     0960  3400               	retlw	0
  1635     0961  347F               	retlw	127
  1636     0962  3440               	retlw	64
  1637     0963  3440               	retlw	64
  1638     0964  3440               	retlw	64
  1639     0965  3440               	retlw	64
  1640     0966  3400               	retlw	0
  1641     0967  3400               	retlw	0
  1642     0968  3400               	retlw	0
  1643     0969  347F               	retlw	127
  1644     096A  3402               	retlw	2
  1645     096B  340C               	retlw	12
  1646     096C  3402               	retlw	2
  1647     096D  347F               	retlw	127
  1648     096E  3400               	retlw	0
  1649     096F  3400               	retlw	0
  1650     0970  3400               	retlw	0
  1651     0971  347F               	retlw	127
  1652     0972  3404               	retlw	4
  1653     0973  3408               	retlw	8
  1654     0974  3410               	retlw	16
  1655     0975  347F               	retlw	127
  1656     0976  3400               	retlw	0
  1657     0977  3400               	retlw	0
  1658     0978  3400               	retlw	0
  1659     0979  343E               	retlw	62
  1660     097A  3441               	retlw	65
  1661     097B  3441               	retlw	65
  1662     097C  3441               	retlw	65
  1663     097D  343E               	retlw	62
  1664     097E  3400               	retlw	0
  1665     097F  3400               	retlw	0
  1666     0980  3400               	retlw	0
  1667     0981  347F               	retlw	127
  1668     0982  3409               	retlw	9
  1669     0983  3409               	retlw	9
  1670     0984  3409               	retlw	9
  1671     0985  3406               	retlw	6
  1672     0986  3400               	retlw	0
  1673     0987  3400               	retlw	0
  1674     0988  3400               	retlw	0
  1675     0989  343E               	retlw	62
  1676     098A  3441               	retlw	65
  1677     098B  3451               	retlw	81
  1678     098C  3421               	retlw	33
  1679     098D  345E               	retlw	94
  1680     098E  3400               	retlw	0
  1681     098F  3400               	retlw	0
  1682     0990  3400               	retlw	0
  1683     0991  347F               	retlw	127
  1684     0992  3409               	retlw	9
  1685     0993  3419               	retlw	25
  1686     0994  3429               	retlw	41
  1687     0995  3446               	retlw	70
  1688     0996  3400               	retlw	0
  1689     0997  3400               	retlw	0
  1690     0998  3400               	retlw	0
  1691     0999  3426               	retlw	38
  1692     099A  3449               	retlw	73
  1693     099B  3449               	retlw	73
  1694     099C  3449               	retlw	73
  1695     099D  3432               	retlw	50
  1696     099E  3400               	retlw	0
  1697     099F  3400               	retlw	0
  1698     09A0  3400               	retlw	0
  1699     09A1  3401               	retlw	1
  1700     09A2  3401               	retlw	1
  1701     09A3  347F               	retlw	127
  1702     09A4  3401               	retlw	1
  1703     09A5  3401               	retlw	1
  1704     09A6  3400               	retlw	0
  1705     09A7  3400               	retlw	0
  1706     09A8  3400               	retlw	0
  1707     09A9  343F               	retlw	63
  1708     09AA  3440               	retlw	64
  1709     09AB  3440               	retlw	64
  1710     09AC  3440               	retlw	64
  1711     09AD  343F               	retlw	63
  1712     09AE  3400               	retlw	0
  1713     09AF  3400               	retlw	0
  1714     09B0  3400               	retlw	0
  1715     09B1  341F               	retlw	31
  1716     09B2  3420               	retlw	32
  1717     09B3  3440               	retlw	64
  1718     09B4  3420               	retlw	32
  1719     09B5  341F               	retlw	31
  1720     09B6  3400               	retlw	0
  1721     09B7  3400               	retlw	0
  1722     09B8  3400               	retlw	0
  1723     09B9  343F               	retlw	63
  1724     09BA  3440               	retlw	64
  1725     09BB  3438               	retlw	56
  1726     09BC  3440               	retlw	64
  1727     09BD  343F               	retlw	63
  1728     09BE  3400               	retlw	0
  1729     09BF  3400               	retlw	0
  1730     09C0  3400               	retlw	0
  1731     09C1  3463               	retlw	99
  1732     09C2  3414               	retlw	20
  1733     09C3  3408               	retlw	8
  1734     09C4  3414               	retlw	20
  1735     09C5  3463               	retlw	99
  1736     09C6  3400               	retlw	0
  1737     09C7  3400               	retlw	0
  1738     09C8  3400               	retlw	0
  1739     09C9  3403               	retlw	3
  1740     09CA  3404               	retlw	4
  1741     09CB  3478               	retlw	120
  1742     09CC  3404               	retlw	4
  1743     09CD  3403               	retlw	3
  1744     09CE  3400               	retlw	0
  1745     09CF  3400               	retlw	0
  1746     09D0  3400               	retlw	0
  1747     09D1  3461               	retlw	97
  1748     09D2  3451               	retlw	81
  1749     09D3  3449               	retlw	73
  1750     09D4  3445               	retlw	69
  1751     09D5  3443               	retlw	67
  1752     09D6  3400               	retlw	0
  1753     09D7  3400               	retlw	0
  1754     09D8  3400               	retlw	0
  1755     09D9  347F               	retlw	127
  1756     09DA  3441               	retlw	65
  1757     09DB  3441               	retlw	65
  1758     09DC  3400               	retlw	0
  1759     09DD  3400               	retlw	0
  1760     09DE  3400               	retlw	0
  1761     09DF  3400               	retlw	0
  1762     09E0  3400               	retlw	0
  1763     09E1  3402               	retlw	2
  1764     09E2  3404               	retlw	4
  1765     09E3  3408               	retlw	8
  1766     09E4  3410               	retlw	16
  1767     09E5  3420               	retlw	32
  1768     09E6  3400               	retlw	0
  1769     09E7  3400               	retlw	0
  1770     09E8  3400               	retlw	0
  1771     09E9  3441               	retlw	65
  1772     09EA  3441               	retlw	65
  1773     09EB  347F               	retlw	127
  1774     09EC  3400               	retlw	0
  1775     09ED  3400               	retlw	0
  1776     09EE  3400               	retlw	0
  1777     09EF  3400               	retlw	0
  1778     09F0  3400               	retlw	0
  1779     09F1  3404               	retlw	4
  1780     09F2  3402               	retlw	2
  1781     09F3  3401               	retlw	1
  1782     09F4  3402               	retlw	2
  1783     09F5  3404               	retlw	4
  1784     09F6  3400               	retlw	0
  1785     09F7  3400               	retlw	0
  1786     09F8  3400               	retlw	0
  1787     09F9  3480               	retlw	128
  1788     09FA  3480               	retlw	128
  1789     09FB  3480               	retlw	128
  1790     09FC  3480               	retlw	128
  1791     09FD  3480               	retlw	128
  1792     09FE  3400               	retlw	0
  1793     09FF  3400               	retlw	0
  1794     0A00  3400               	retlw	0
  1795     0A01  3401               	retlw	1
  1796     0A02  3402               	retlw	2
  1797     0A03  3404               	retlw	4
  1798     0A04  3400               	retlw	0
  1799     0A05  3400               	retlw	0
  1800     0A06  3400               	retlw	0
  1801     0A07  3400               	retlw	0
  1802     0A08  3400               	retlw	0
  1803     0A09  3420               	retlw	32
  1804     0A0A  3454               	retlw	84
  1805     0A0B  3454               	retlw	84
  1806     0A0C  3454               	retlw	84
  1807     0A0D  3478               	retlw	120
  1808     0A0E  3400               	retlw	0
  1809     0A0F  3400               	retlw	0
  1810     0A10  3400               	retlw	0
  1811     0A11  347F               	retlw	127
  1812     0A12  3448               	retlw	72
  1813     0A13  3444               	retlw	68
  1814     0A14  3444               	retlw	68
  1815     0A15  3438               	retlw	56
  1816     0A16  3400               	retlw	0
  1817     0A17  3400               	retlw	0
  1818     0A18  3400               	retlw	0
  1819     0A19  3438               	retlw	56
  1820     0A1A  3444               	retlw	68
  1821     0A1B  3444               	retlw	68
  1822     0A1C  3428               	retlw	40
  1823     0A1D  3400               	retlw	0
  1824     0A1E  3400               	retlw	0
  1825     0A1F  3400               	retlw	0
  1826     0A20  3400               	retlw	0
  1827     0A21  3438               	retlw	56
  1828     0A22  3444               	retlw	68
  1829     0A23  3444               	retlw	68
  1830     0A24  3448               	retlw	72
  1831     0A25  347F               	retlw	127
  1832     0A26  3400               	retlw	0
  1833     0A27  3400               	retlw	0
  1834     0A28  3400               	retlw	0
  1835     0A29  3438               	retlw	56
  1836     0A2A  3454               	retlw	84
  1837     0A2B  3454               	retlw	84
  1838     0A2C  3454               	retlw	84
  1839     0A2D  3418               	retlw	24
  1840     0A2E  3400               	retlw	0
  1841     0A2F  3400               	retlw	0
  1842     0A30  3400               	retlw	0
  1843     0A31  3408               	retlw	8
  1844     0A32  347E               	retlw	126
  1845     0A33  3409               	retlw	9
  1846     0A34  3402               	retlw	2
  1847     0A35  3400               	retlw	0
  1848     0A36  3400               	retlw	0
  1849     0A37  3400               	retlw	0
  1850     0A38  3400               	retlw	0
  1851     0A39  3418               	retlw	24
  1852     0A3A  34A4               	retlw	164
  1853     0A3B  34A4               	retlw	164
  1854     0A3C  34A4               	retlw	164
  1855     0A3D  347C               	retlw	124
  1856     0A3E  3400               	retlw	0
  1857     0A3F  3400               	retlw	0
  1858     0A40  3400               	retlw	0
  1859     0A41  347F               	retlw	127
  1860     0A42  3408               	retlw	8
  1861     0A43  3404               	retlw	4
  1862     0A44  3404               	retlw	4
  1863     0A45  3478               	retlw	120
  1864     0A46  3400               	retlw	0
  1865     0A47  3400               	retlw	0
  1866     0A48  3400               	retlw	0
  1867     0A49  3400               	retlw	0
  1868     0A4A  347D               	retlw	125
  1869     0A4B  3400               	retlw	0
  1870     0A4C  3400               	retlw	0
  1871     0A4D  3400               	retlw	0
  1872     0A4E  3400               	retlw	0
  1873     0A4F  3400               	retlw	0
  1874     0A50  3400               	retlw	0
  1875     0A51  3480               	retlw	128
  1876     0A52  3484               	retlw	132
  1877     0A53  347D               	retlw	125
  1878     0A54  3400               	retlw	0
  1879     0A55  3400               	retlw	0
  1880     0A56  3400               	retlw	0
  1881     0A57  3400               	retlw	0
  1882     0A58  3400               	retlw	0
  1883     0A59  347F               	retlw	127
  1884     0A5A  3410               	retlw	16
  1885     0A5B  3428               	retlw	40
  1886     0A5C  3444               	retlw	68
  1887     0A5D  3400               	retlw	0
  1888     0A5E  3400               	retlw	0
  1889     0A5F  3400               	retlw	0
  1890     0A60  3400               	retlw	0
  1891     0A61  3441               	retlw	65
  1892     0A62  347F               	retlw	127
  1893     0A63  3440               	retlw	64
  1894     0A64  3400               	retlw	0
  1895     0A65  3400               	retlw	0
  1896     0A66  3400               	retlw	0
  1897     0A67  3400               	retlw	0
  1898     0A68  3400               	retlw	0
  1899     0A69  347C               	retlw	124
  1900     0A6A  3404               	retlw	4
  1901     0A6B  3418               	retlw	24
  1902     0A6C  3404               	retlw	4
  1903     0A6D  3478               	retlw	120
  1904     0A6E  3400               	retlw	0
  1905     0A6F  3400               	retlw	0
  1906     0A70  3400               	retlw	0
  1907     0A71  347C               	retlw	124
  1908     0A72  3408               	retlw	8
  1909     0A73  3404               	retlw	4
  1910     0A74  347C               	retlw	124
  1911     0A75  3400               	retlw	0
  1912     0A76  3400               	retlw	0
  1913     0A77  3400               	retlw	0
  1914     0A78  3400               	retlw	0
  1915     0A79  3438               	retlw	56
  1916     0A7A  3444               	retlw	68
  1917     0A7B  3444               	retlw	68
  1918     0A7C  3438               	retlw	56
  1919     0A7D  3400               	retlw	0
  1920     0A7E  3400               	retlw	0
  1921     0A7F  3400               	retlw	0
  1922     0A80  3400               	retlw	0
  1923     0A81  34FC               	retlw	252
  1924     0A82  3424               	retlw	36
  1925     0A83  3424               	retlw	36
  1926     0A84  3418               	retlw	24
  1927     0A85  3400               	retlw	0
  1928     0A86  3400               	retlw	0
  1929     0A87  3400               	retlw	0
  1930     0A88  3400               	retlw	0
  1931     0A89  3418               	retlw	24
  1932     0A8A  3424               	retlw	36
  1933     0A8B  3424               	retlw	36
  1934     0A8C  34FC               	retlw	252
  1935     0A8D  3400               	retlw	0
  1936     0A8E  3400               	retlw	0
  1937     0A8F  3400               	retlw	0
  1938     0A90  3400               	retlw	0
  1939     0A91  3400               	retlw	0
  1940     0A92  347C               	retlw	124
  1941     0A93  3408               	retlw	8
  1942     0A94  3404               	retlw	4
  1943     0A95  3400               	retlw	0
  1944     0A96  3400               	retlw	0
  1945     0A97  3400               	retlw	0
  1946     0A98  3400               	retlw	0
  1947     0A99  3448               	retlw	72
  1948     0A9A  3454               	retlw	84
  1949     0A9B  3454               	retlw	84
  1950     0A9C  3424               	retlw	36
  1951     0A9D  3400               	retlw	0
  1952     0A9E  3400               	retlw	0
  1953     0A9F  3400               	retlw	0
  1954     0AA0  3400               	retlw	0
  1955     0AA1  3404               	retlw	4
  1956     0AA2  347F               	retlw	127
  1957     0AA3  3444               	retlw	68
  1958     0AA4  3400               	retlw	0
  1959     0AA5  3400               	retlw	0
  1960     0AA6  3400               	retlw	0
  1961     0AA7  3400               	retlw	0
  1962     0AA8  3400               	retlw	0
  1963     0AA9  343C               	retlw	60
  1964     0AAA  3440               	retlw	64
  1965     0AAB  3440               	retlw	64
  1966     0AAC  347C               	retlw	124
  1967     0AAD  3400               	retlw	0
  1968     0AAE  3400               	retlw	0
  1969     0AAF  3400               	retlw	0
  1970     0AB0  3400               	retlw	0
  1971     0AB1  341C               	retlw	28
  1972     0AB2  3420               	retlw	32
  1973     0AB3  3440               	retlw	64
  1974     0AB4  3420               	retlw	32
  1975     0AB5  341C               	retlw	28
  1976     0AB6  3400               	retlw	0
  1977     0AB7  3400               	retlw	0
  1978     0AB8  3400               	retlw	0
  1979     0AB9  343C               	retlw	60
  1980     0ABA  3440               	retlw	64
  1981     0ABB  3430               	retlw	48
  1982     0ABC  3440               	retlw	64
  1983     0ABD  343C               	retlw	60
  1984     0ABE  3400               	retlw	0
  1985     0ABF  3400               	retlw	0
  1986     0AC0  3400               	retlw	0
  1987     0AC1  3444               	retlw	68
  1988     0AC2  3428               	retlw	40
  1989     0AC3  3410               	retlw	16
  1990     0AC4  3428               	retlw	40
  1991     0AC5  3444               	retlw	68
  1992     0AC6  3400               	retlw	0
  1993     0AC7  3400               	retlw	0
  1994     0AC8  3400               	retlw	0
  1995     0AC9  341C               	retlw	28
  1996     0ACA  34A0               	retlw	160
  1997     0ACB  34A0               	retlw	160
  1998     0ACC  347C               	retlw	124
  1999     0ACD  3400               	retlw	0
  2000     0ACE  3400               	retlw	0
  2001     0ACF  3400               	retlw	0
  2002     0AD0  3400               	retlw	0
  2003     0AD1  3444               	retlw	68
  2004     0AD2  3464               	retlw	100
  2005     0AD3  3454               	retlw	84
  2006     0AD4  344C               	retlw	76
  2007     0AD5  3444               	retlw	68
  2008     0AD6  3400               	retlw	0
  2009     0AD7  3400               	retlw	0
  2010     0AD8  3400               	retlw	0
  2011     0AD9  3408               	retlw	8
  2012     0ADA  3436               	retlw	54
  2013     0ADB  3441               	retlw	65
  2014     0ADC  3400               	retlw	0
  2015     0ADD  3400               	retlw	0
  2016     0ADE  3400               	retlw	0
  2017     0ADF  3400               	retlw	0
  2018     0AE0  3400               	retlw	0
  2019     0AE1  3400               	retlw	0
  2020     0AE2  347F               	retlw	127
  2021     0AE3  3400               	retlw	0
  2022     0AE4  3400               	retlw	0
  2023     0AE5  3400               	retlw	0
  2024     0AE6  3400               	retlw	0
  2025     0AE7  3400               	retlw	0
  2026     0AE8  3400               	retlw	0
  2027     0AE9  3441               	retlw	65
  2028     0AEA  3436               	retlw	54
  2029     0AEB  3408               	retlw	8
  2030     0AEC  3400               	retlw	0
  2031     0AED  3400               	retlw	0
  2032     0AEE  3400               	retlw	0
  2033     0AEF  3400               	retlw	0
  2034     0AF0  3400               	retlw	0
  2035     0AF1  3402               	retlw	2
  2036     0AF2  3401               	retlw	1
  2037     0AF3  3401               	retlw	1
  2038     0AF4  3402               	retlw	2
  2039     0AF5  3401               	retlw	1
  2040     0AF6  3400               	retlw	0
  2041     0AF7  3400               	retlw	0
  2042     0AF8  3400               	retlw	0
  2043     0AF9  3402               	retlw	2
  2044     0AFA  3405               	retlw	5
  2045     0AFB  3405               	retlw	5
  2046     0AFC  3402               	retlw	2
  2047     0AFD  3400               	retlw	0
  2048     0AFE  3400               	retlw	0
  2049     0AFF  3400               	retlw	0
  2050     0B00                     __end_of_OledFont:
  2051     000D                     _PORTBbits	set	13
  2052     0012                     _PIR2bits	set	18
  2053     0011                     _PIR1bits	set	17
  2054     0095                     _OPTION_REGbits	set	149
  2055     008E                     _TRISCbits	set	142
  2056     009E                     _ADCON1bits	set	158
  2057     008D                     _TRISBbits	set	141
  2058     008C                     _TRISAbits	set	140
  2059     009B                     _ADRESL	set	155
  2060     009C                     _ADRESH	set	156
  2061     009D                     _ADCON0bits	set	157
  2062     04CF                     _SPLLEN	set	1231
  2063     04CE                     _IRCF3	set	1230
  2064     04CD                     _IRCF2	set	1229
  2065     04CC                     _IRCF1	set	1228
  2066     04CB                     _IRCF0	set	1227
  2067     04C9                     _SCS1	set	1225
  2068     04C8                     _SCS0	set	1224
  2069     018E                     _ANSELCbits	set	398
  2070     018D                     _ANSELBbits	set	397
  2071     018C                     _ANSELAbits	set	396
  2072     020D                     _WPUBbits	set	525
  2073     0211                     _SSPBUF	set	529
  2074     0216                     _SSPCON2bits	set	534
  2075     0214                     _SSPSTATbits	set	532
  2076     0216                     _SSPCON2	set	534
  2077     0215                     _SSPCON1bits	set	533
  2078     0212                     _SSPADD	set	530
  2079     0215                     _SSPCONbits	set	533
  2080     0E20                     _SSPCLKPPSbits	set	3616
  2081     0E21                     _SSPDATPPSbits	set	3617
  2082     0E24                     _RXPPSbits	set	3620
  2083     0E0F                     _PPSLOCKbits	set	3599
  2084     0E0F                     _PPSLOCK	set	3599
  2085     0EA5                     _RC5PPSbits	set	3749
  2086     0EA4                     _RC4PPSbits	set	3748
  2087     0E9A                     _RB2PPSbits	set	3738
  2088     0B00                     STR_15:
  2089     0B00  3452               	retlw	82	;'R'
  2090     0B01  3458               	retlw	88	;'X'
  2091     0B02  343A               	retlw	58	;':'
  2092     0B03  3425               	retlw	37	;'%'
  2093     0B04  3434               	retlw	52	;'4'
  2094     0B05  3475               	retlw	117	;'u'
  2095     0B06  3420               	retlw	32	;' '
  2096     0B07  3452               	retlw	82	;'R'
  2097     0B08  3459               	retlw	89	;'Y'
  2098     0B09  343A               	retlw	58	;':'
  2099     0B0A  3425               	retlw	37	;'%'
  2100     0B0B  3434               	retlw	52	;'4'
  2101     0B0C  3475               	retlw	117	;'u'
  2102     0B0D  3400               	retlw	0
  2103                           
  2104                           	psect	stringtext3
  2105     1000                     __pstringtext3:
  2106     1000                     STR_10:
  2107     1000  3458               	retlw	88	;'X'
  2108     1001  343A               	retlw	58	;':'
  2109     1002  3425               	retlw	37	;'%'
  2110     1003  3434               	retlw	52	;'4'
  2111     1004  3464               	retlw	100	;'d'
  2112     1005  3420               	retlw	32	;' '
  2113     1006  3420               	retlw	32	;' '
  2114     1007  3459               	retlw	89	;'Y'
  2115     1008  343A               	retlw	58	;':'
  2116     1009  3425               	retlw	37	;'%'
  2117     100A  3434               	retlw	52	;'4'
  2118     100B  3464               	retlw	100	;'d'
  2119     100C  3400               	retlw	0
  2120                           
  2121                           	psect	stringtext4
  2122     1800                     __pstringtext4:
  2123     1800                     STR_1:
  2124     1800  3455               	retlw	85	;'U'
  2125     1801  3450               	retlw	80	;'P'
  2126     1802  3420               	retlw	32	;' '
  2127     1803  3420               	retlw	32	;' '
  2128     1804  3420               	retlw	32	;' '
  2129     1805  3420               	retlw	32	;' '
  2130     1806  3420               	retlw	32	;' '
  2131     1807  3420               	retlw	32	;' '
  2132     1808  3400               	retlw	0
  2133                           
  2134                           	psect	stringtext5
  2135     1809                     __pstringtext5:
  2136     1809                     STR_2:
  2137     1809  3444               	retlw	68	;'D'
  2138     180A  344F               	retlw	79	;'O'
  2139     180B  3457               	retlw	87	;'W'
  2140     180C  344E               	retlw	78	;'N'
  2141     180D  3420               	retlw	32	;' '
  2142     180E  3420               	retlw	32	;' '
  2143     180F  3420               	retlw	32	;' '
  2144     1810  3420               	retlw	32	;' '
  2145     1811  3400               	retlw	0
  2146                           
  2147                           	psect	stringtext6
  2148     1812                     __pstringtext6:
  2149     1812                     STR_3:
  2150     1812  344C               	retlw	76	;'L'
  2151     1813  3445               	retlw	69	;'E'
  2152     1814  3446               	retlw	70	;'F'
  2153     1815  3454               	retlw	84	;'T'
  2154     1816  3420               	retlw	32	;' '
  2155     1817  3420               	retlw	32	;' '
  2156     1818  3420               	retlw	32	;' '
  2157     1819  3420               	retlw	32	;' '
  2158     181A  3400               	retlw	0
  2159                           
  2160                           	psect	stringtext7
  2161     181B                     __pstringtext7:
  2162     181B                     STR_4:
  2163     181B  3452               	retlw	82	;'R'
  2164     181C  3449               	retlw	73	;'I'
  2165     181D  3447               	retlw	71	;'G'
  2166     181E  3448               	retlw	72	;'H'
  2167     181F  3454               	retlw	84	;'T'
  2168     1820  3420               	retlw	32	;' '
  2169     1821  3420               	retlw	32	;' '
  2170     1822  3420               	retlw	32	;' '
  2171     1823  3400               	retlw	0
  2172                           
  2173                           	psect	stringtext8
  2174     1824                     __pstringtext8:
  2175     1824                     STR_9:
  2176     1824  3443               	retlw	67	;'C'
  2177     1825  3445               	retlw	69	;'E'
  2178     1826  344E               	retlw	78	;'N'
  2179     1827  3454               	retlw	84	;'T'
  2180     1828  3445               	retlw	69	;'E'
  2181     1829  3452               	retlw	82	;'R'
  2182     182A  3420               	retlw	32	;' '
  2183     182B  3420               	retlw	32	;' '
  2184     182C  3400               	retlw	0
  2185                           
  2186                           	psect	stringtext9
  2187     182D                     __pstringtext9:
  2188     182D                     STR_7:
  2189     182D  3444               	retlw	68	;'D'
  2190     182E  344E               	retlw	78	;'N'
  2191     182F  342D               	retlw	45	;'-'
  2192     1830  344C               	retlw	76	;'L'
  2193     1831  3445               	retlw	69	;'E'
  2194     1832  3446               	retlw	70	;'F'
  2195     1833  3454               	retlw	84	;'T'
  2196     1834  3420               	retlw	32	;' '
  2197     1835  3400               	retlw	0
  2198                           
  2199                           	psect	stringtext10
  2200     1836                     __pstringtext10:
  2201     1836                     STR_5:
  2202     1836  3455               	retlw	85	;'U'
  2203     1837  3450               	retlw	80	;'P'
  2204     1838  342D               	retlw	45	;'-'
  2205     1839  344C               	retlw	76	;'L'
  2206     183A  3445               	retlw	69	;'E'
  2207     183B  3446               	retlw	70	;'F'
  2208     183C  3454               	retlw	84	;'T'
  2209     183D  3420               	retlw	32	;' '
  2210     183E  3400               	retlw	0
  2211                           
  2212                           	psect	stringtext11
  2213     183F                     __pstringtext11:
  2214     183F                     STR_8:
  2215     183F  3444               	retlw	68	;'D'
  2216     1840  344E               	retlw	78	;'N'
  2217     1841  342D               	retlw	45	;'-'
  2218     1842  3452               	retlw	82	;'R'
  2219     1843  3449               	retlw	73	;'I'
  2220     1844  3447               	retlw	71	;'G'
  2221     1845  3448               	retlw	72	;'H'
  2222     1846  3454               	retlw	84	;'T'
  2223     1847  3400               	retlw	0
  2224                           
  2225                           	psect	stringtext12
  2226     1848                     __pstringtext12:
  2227     1848                     STR_6:
  2228     1848  3455               	retlw	85	;'U'
  2229     1849  3450               	retlw	80	;'P'
  2230     184A  342D               	retlw	45	;'-'
  2231     184B  3452               	retlw	82	;'R'
  2232     184C  3449               	retlw	73	;'I'
  2233     184D  3447               	retlw	71	;'G'
  2234     184E  3448               	retlw	72	;'H'
  2235     184F  3454               	retlw	84	;'T'
  2236     1850  3400               	retlw	0
  2237                           
  2238                           	psect	stringtext13
  2239     1851                     __pstringtext13:
  2240     1851                     STR_14:
  2241     1851  342D               	retlw	45	;'-'
  2242     1852  342D               	retlw	45	;'-'
  2243     1853  342D               	retlw	45	;'-'
  2244     1854  3420               	retlw	32	;' '
  2245     1855  3420               	retlw	32	;' '
  2246     1856  3420               	retlw	32	;' '
  2247     1857  3420               	retlw	32	;' '
  2248     1858  3400               	retlw	0
  2249                           
  2250                           	psect	stringtext14
  2251     1859                     __pstringtext14:
  2252     1859                     STR_13:
  2253     1859  3450               	retlw	80	;'P'
  2254     185A  3452               	retlw	82	;'R'
  2255     185B  3445               	retlw	69	;'E'
  2256     185C  3453               	retlw	83	;'S'
  2257     185D  3453               	retlw	83	;'S'
  2258     185E  3445               	retlw	69	;'E'
  2259     185F  3444               	retlw	68	;'D'
  2260     1860  3400               	retlw	0
  2261                           
  2262                           	psect	stringtext15
  2263     1861                     __pstringtext15:
  2264     1861                     STR_12:
  2265     1861  3442               	retlw	66	;'B'
  2266     1862  3474               	retlw	116	;'t'
  2267     1863  346E               	retlw	110	;'n'
  2268     1864  343A               	retlw	58	;':'
  2269     1865  3420               	retlw	32	;' '
  2270     1866  3425               	retlw	37	;'%'
  2271     1867  3473               	retlw	115	;'s'
  2272     1868  3400               	retlw	0
  2273                           
  2274                           	psect	stringtext16
  2275     1869                     __pstringtext16:
  2276     1869                     STR_11:
  2277     1869  3444               	retlw	68	;'D'
  2278     186A  3469               	retlw	105	;'i'
  2279     186B  3472               	retlw	114	;'r'
  2280     186C  343A               	retlw	58	;':'
  2281     186D  3420               	retlw	32	;' '
  2282     186E  3425               	retlw	37	;'%'
  2283     186F  3473               	retlw	115	;'s'
  2284     1870  3400               	retlw	0
  2285                           
  2286                           	psect	stringtext17
  2287     0000                     __pstringtext17:
  2288                           
  2289                           	psect	cinit
  2290     07F2                     start_initialization:	
  2291                           ; #config settings
  2292                           
  2293     07F2                     __initialization:	;BIGRAM
  2294                           
  2295                           ; Clear objects allocated to BIGRAM
  2296     07F2  30F0               	movlw	low (0+9456)
  2297     07F3  0084               	movwf	4
  2298     07F4  3024               	movlw	high (0+9456)
  2299     07F5  0085               	movwf	5
  2300     07F6  3000               	movlw	0
  2301     07F7  00FE               	movwf	btemp
  2302     07F8  3003               	movlw	3
  2303     07F9  00FF               	movwf	btemp+1
  2304     07FA  318B  2312  3187   	fcall	clear_ram0
  2305     07FD                     end_of_initialization:	
  2306                           ;End of C runtime variable initialization code
  2307                           
  2308     07FD                     __end_of__initialization:
  2309     07FD  0020               	movlb	0
  2310     07FE  3182  2ABE         	ljmp	_main	;jump to C main() function
  2311                           
  2312                           	psect	clrtext
  2313     0B12                     clear_ram0:	
  2314                           ;	Called with FSR0 containing the base address, and
  2315                           ;	btemp/btemp+1 has the size to clear
  2316                           
  2317     0B12  0064               	clrwdt	;clear the watchdog before getting into this loop
  2318     0B13                     clrloop0:
  2319     0B13  0180               	clrf	0	;clear RAM location pointed to by FSR
  2320     0B14  3101               	addfsr 0,1
  2321     0B15  3001               	movlw	1
  2322     0B16  02FE               	subwf	btemp,f
  2323     0B17  3000               	movlw	0
  2324     0B18  3BFF               	subwfb	btemp+1,f
  2325     0B19  087F               	movf	btemp+1,w
  2326     0B1A  047E               	iorwf	btemp,w
  2327     0B1B  1D03               	skipz
  2328     0B1C  2B13               	goto	clrloop0	;have we reached the end yet?
  2329     0B1D  3400               	retlw	0	;all done for this memory range, return
  2330                           
  2331                           	psect	cstackBANK1
  2332     00A0                     __pcstackBANK1:
  2333     00A0                     OLED_Printf_Line@temp:
  2334                           
  2335                           ; 6 bytes @ 0x0
  2336     00A0                     	ds	6
  2337     00A6                     OLED_Printf_Line@temp_357:
  2338                           
  2339                           ; 6 bytes @ 0x6
  2340     00A6                     	ds	6
  2341     00AC                     OLED_Printf_Line@temp_360:
  2342                           
  2343                           ; 5 bytes @ 0xC
  2344     00AC                     	ds	5
  2345     00B1                     OLED_Printf_Line@val_359:
  2346                           
  2347                           ; 2 bytes @ 0x11
  2348     00B1                     	ds	2
  2349     00B3                     OLED_Printf_Line@str:
  2350                           
  2351                           ; 2 bytes @ 0x13
  2352     00B3                     	ds	2
  2353     00B5                     OLED_Printf_Line@col:
  2354                           
  2355                           ; 1 bytes @ 0x15
  2356     00B5                     	ds	1
  2357     00B6                     OLED_Printf_Line@p:
  2358                           
  2359                           ; 1 bytes @ 0x16
  2360     00B6                     	ds	1
  2361     00B7                     OLED_Printf_Line@val_350:
  2362                           
  2363                           ; 4 bytes @ 0x17
  2364     00B7                     	ds	4
  2365     00BB                     OLED_Printf_Line@val_356:
  2366                           
  2367                           ; 2 bytes @ 0x1B
  2368     00BB                     	ds	2
  2369     00BD                     OLED_Printf_Line@nibble:
  2370                           
  2371                           ; 1 bytes @ 0x1D
  2372     00BD                     	ds	1
  2373     00BE                     OLED_Printf_Line@ch:
  2374                           
  2375                           ; 1 bytes @ 0x1E
  2376     00BE                     	ds	1
  2377     00BF                     OLED_Printf_Line@i:
  2378                           
  2379                           ; 1 bytes @ 0x1F
  2380     00BF                     	ds	1
  2381     00C0                     OLED_Printf_Line@i_352:
  2382                           
  2383                           ; 1 bytes @ 0x20
  2384     00C0                     	ds	1
  2385     00C1                     OLED_Printf_Line@i_355:
  2386                           
  2387                           ; 1 bytes @ 0x21
  2388     00C1                     	ds	1
  2389     00C2                     OLED_Printf_Line@i_358:
  2390                           
  2391                           ; 1 bytes @ 0x22
  2392     00C2                     	ds	1
  2393     00C3                     OLED_Printf_Line@i_361:
  2394                           
  2395                           ; 1 bytes @ 0x23
  2396     00C3                     	ds	1
  2397     00C4                     OLED_Printf_Line@val_353:
  2398                           
  2399                           ; 4 bytes @ 0x24
  2400     00C4                     	ds	4
  2401     00C8                     OLED_Printf_Line@val:
  2402                           
  2403                           ; 2 bytes @ 0x28
  2404     00C8                     	ds	2
  2405     00CA                     OLED_Printf_Line@line:
  2406                           
  2407                           ; 1 bytes @ 0x2A
  2408     00CA                     	ds	1
  2409     00CB                     OLED_Printf_Line@ap:
  2410                           
  2411                           ; 1 bytes @ 0x2B
  2412     00CB                     	ds	1
  2413     00CC                     OLED_Printf_Line@src:
  2414                           
  2415                           ; 2 bytes @ 0x2C
  2416     00CC                     	ds	2
  2417     00CE                     OLED_Printf_Line@dst:
  2418                           
  2419                           ; 1 bytes @ 0x2E
  2420     00CE                     	ds	1
  2421     00CF                     ??_main:
  2422                           
  2423                           ; 1 bytes @ 0x2F
  2424     00CF                     	ds	2
  2425     00D1                     _main$879:
  2426                           
  2427                           ; 2 bytes @ 0x31
  2428     00D1                     	ds	2
  2429     00D3                     main@joy:
  2430                           
  2431                           ; 10 bytes @ 0x33
  2432     00D3                     	ds	10
  2433                           
  2434                           	psect	cstackCOMMON
  2435     0070                     __pcstackCOMMON:
  2436     0070                     ?_I2C_ClearErrors:
  2437     0070                     ??_I2C_ClearErrors:	
  2438                           ; 1 bytes @ 0x0
  2439                           
  2440     0070                     ?_OLED_Clear:	
  2441                           ; 1 bytes @ 0x0
  2442                           
  2443     0070                     ?_Joystick_GetDirection:	
  2444                           ; 1 bytes @ 0x0
  2445                           
  2446     0070                     ??_Joystick_GetDirection:	
  2447                           ; 1 bytes @ 0x0
  2448                           
  2449     0070                     ?_I2C_WaitIF:	
  2450                           ; 1 bytes @ 0x0
  2451                           
  2452     0070                     ?_I2C_Init:	
  2453                           ; 1 bytes @ 0x0
  2454                           
  2455     0070                     ??_I2C_Init:	
  2456                           ; 1 bytes @ 0x0
  2457                           
  2458     0070                     ?_I2C_WaitIdle:	
  2459                           ; 1 bytes @ 0x0
  2460                           
  2461     0070                     ?_I2C_Start:	
  2462                           ; 1 bytes @ 0x0
  2463                           
  2464     0070                     ?_I2C_Stop:	
  2465                           ; 1 bytes @ 0x0
  2466                           
  2467     0070                     ?_I2C_WriteByte:	
  2468                           ; 1 bytes @ 0x0
  2469                           
  2470     0070                     ?_SSD1306_CtrlW:	
  2471                           ; 1 bytes @ 0x0
  2472                           
  2473     0070                     ??_SSD1306_CtrlW:	
  2474                           ; 1 bytes @ 0x0
  2475                           
  2476     0070                     ?_OLED_Command:	
  2477                           ; 1 bytes @ 0x0
  2478                           
  2479     0070                     ?_OLED_SetOrientation:	
  2480                           ; 1 bytes @ 0x0
  2481                           
  2482     0070                     ?_OLED_Init:	
  2483                           ; 1 bytes @ 0x0
  2484                           
  2485     0070                     ?_OLED_UpdateLine:	
  2486                           ; 1 bytes @ 0x0
  2487                           
  2488     0070                     ?_internal_32:	
  2489                           ; 1 bytes @ 0x0
  2490                           
  2491     0070                     ??_internal_32:	
  2492                           ; 1 bytes @ 0x0
  2493                           
  2494     0070                     ?_ADC_ConfigurePin:	
  2495                           ; 1 bytes @ 0x0
  2496                           
  2497     0070                     ??_ADC_ConfigurePin:	
  2498                           ; 1 bytes @ 0x0
  2499                           
  2500     0070                     ?_ADC_Init:	
  2501                           ; 1 bytes @ 0x0
  2502                           
  2503     0070                     ??_ADC_Init:	
  2504                           ; 1 bytes @ 0x0
  2505                           
  2506     0070                     ?_initMain:	
  2507                           ; 1 bytes @ 0x0
  2508                           
  2509     0070                     ?_Joystick_Init:	
  2510                           ; 1 bytes @ 0x0
  2511                           
  2512     0070                     ??_Joystick_Init:	
  2513                           ; 1 bytes @ 0x0
  2514                           
  2515     0070                     ?_Joystick_Read:	
  2516                           ; 1 bytes @ 0x0
  2517                           
  2518     0070                     ?_main:	
  2519                           ; 1 bytes @ 0x0
  2520                           
  2521     0070                     ?_memset:	
  2522                           ; 1 bytes @ 0x0
  2523                           
  2524     0070                     ?_strcmp:	
  2525                           ; 2 bytes @ 0x0
  2526                           
  2527     0070                     ?_strcpy:	
  2528                           ; 2 bytes @ 0x0
  2529                           
  2530     0070                     ?_memcpy:	
  2531                           ; 2 bytes @ 0x0
  2532                           
  2533     0070                     ?_Joystick_DirectionString:	
  2534                           ; 2 bytes @ 0x0
  2535                           
  2536     0070                     ?___awdiv:	
  2537                           ; 2 bytes @ 0x0
  2538                           
  2539     0070                     ?___awmod:	
  2540                           ; 2 bytes @ 0x0
  2541                           
  2542     0070                     ?___lwdiv:	
  2543                           ; 2 bytes @ 0x0
  2544                           
  2545     0070                     ?___lwmod:	
  2546                           ; 2 bytes @ 0x0
  2547                           
  2548     0070                     ?___lldiv:	
  2549                           ; 2 bytes @ 0x0
  2550                           
  2551     0070                     ?___aldiv:	
  2552                           ; 4 bytes @ 0x0
  2553                           
  2554     0070                     ?___almod:	
  2555                           ; 4 bytes @ 0x0
  2556                           
  2557     0070                     ?___llmod:	
  2558                           ; 4 bytes @ 0x0
  2559                           
  2560     0070                     I2C_WaitIF@timeout_ms:	
  2561                           ; 4 bytes @ 0x0
  2562                           
  2563     0070                     I2C_WaitIdle@timeout_ms:	
  2564                           ; 2 bytes @ 0x0
  2565                           
  2566     0070                     ___awdiv@divisor:	
  2567                           ; 2 bytes @ 0x0
  2568                           
  2569     0070                     ___awmod@divisor:	
  2570                           ; 2 bytes @ 0x0
  2571                           
  2572     0070                     ___lwdiv@divisor:	
  2573                           ; 2 bytes @ 0x0
  2574                           
  2575     0070                     ___lwmod@divisor:	
  2576                           ; 2 bytes @ 0x0
  2577                           
  2578     0070                     memcpy@d1:	
  2579                           ; 2 bytes @ 0x0
  2580                           
  2581     0070                     memset@dest:	
  2582                           ; 2 bytes @ 0x0
  2583                           
  2584     0070                     strcmp@r:	
  2585                           ; 2 bytes @ 0x0
  2586                           
  2587     0070                     strcpy@dest:	
  2588                           ; 2 bytes @ 0x0
  2589                           
  2590     0070                     ___lldiv@divisor:	
  2591                           ; 2 bytes @ 0x0
  2592                           
  2593     0070                     ___aldiv@divisor:	
  2594                           ; 4 bytes @ 0x0
  2595                           
  2596     0070                     ___almod@divisor:	
  2597                           ; 4 bytes @ 0x0
  2598                           
  2599     0070                     ___llmod@divisor:	
  2600                           ; 4 bytes @ 0x0
  2601                           
  2602                           
  2603                           ; 4 bytes @ 0x0
  2604     0070                     	ds	2
  2605     0072                     ??_strcmp:
  2606     0072                     ??_Joystick_DirectionString:	
  2607                           ; 1 bytes @ 0x2
  2608                           
  2609     0072                     ??_I2C_WaitIF:	
  2610                           ; 1 bytes @ 0x2
  2611                           
  2612     0072                     ??_I2C_WaitIdle:	
  2613                           ; 1 bytes @ 0x2
  2614                           
  2615     0072                     ADC_ConfigurePin@channel:	
  2616                           ; 1 bytes @ 0x2
  2617                           
  2618     0072                     Joystick_DirectionString@direction:	
  2619                           ; 1 bytes @ 0x2
  2620                           
  2621     0072                     strcpy@src:	
  2622                           ; 1 bytes @ 0x2
  2623                           
  2624     0072                     ___awdiv@dividend:	
  2625                           ; 1 bytes @ 0x2
  2626                           
  2627     0072                     ___awmod@dividend:	
  2628                           ; 2 bytes @ 0x2
  2629                           
  2630     0072                     ___lwdiv@dividend:	
  2631                           ; 2 bytes @ 0x2
  2632                           
  2633     0072                     ___lwmod@dividend:	
  2634                           ; 2 bytes @ 0x2
  2635                           
  2636     0072                     memcpy@s1:	
  2637                           ; 2 bytes @ 0x2
  2638                           
  2639     0072                     memset@c:	
  2640                           ; 2 bytes @ 0x2
  2641                           
  2642                           
  2643                           ; 2 bytes @ 0x2
  2644     0072                     	ds	1
  2645     0073                     ??_strcpy:
  2646     0073                     ??_I2C_Start:	
  2647                           ; 1 bytes @ 0x3
  2648                           
  2649     0073                     ??_I2C_Stop:	
  2650                           ; 1 bytes @ 0x3
  2651                           
  2652     0073                     ??_I2C_WriteByte:	
  2653                           ; 1 bytes @ 0x3
  2654                           
  2655     0073                     ??_initMain:	
  2656                           ; 1 bytes @ 0x3
  2657                           
  2658     0073                     I2C_Start@st:	
  2659                           ; 1 bytes @ 0x3
  2660                           
  2661     0073                     I2C_Stop@st:	
  2662                           ; 1 bytes @ 0x3
  2663                           
  2664     0073                     I2C_WriteByte@data:	
  2665                           ; 1 bytes @ 0x3
  2666                           
  2667     0073                     Joystick_GetDirection@dir:	
  2668                           ; 1 bytes @ 0x3
  2669                           
  2670     0073                     strcmp@l:	
  2671                           ; 1 bytes @ 0x3
  2672                           
  2673                           
  2674                           ; 1 bytes @ 0x3
  2675     0073                     	ds	1
  2676     0074                     ??___awdiv:
  2677     0074                     ??___awmod:	
  2678                           ; 1 bytes @ 0x4
  2679                           
  2680     0074                     ??___lwdiv:	
  2681                           ; 1 bytes @ 0x4
  2682                           
  2683     0074                     ??___lwmod:	
  2684                           ; 1 bytes @ 0x4
  2685                           
  2686     0074                     I2C_WriteByte@st:	
  2687                           ; 1 bytes @ 0x4
  2688                           
  2689     0074                     Joystick_GetDirection@joy:	
  2690                           ; 1 bytes @ 0x4
  2691                           
  2692     0074                     memcpy@n:	
  2693                           ; 1 bytes @ 0x4
  2694                           
  2695     0074                     memset@n:	
  2696                           ; 2 bytes @ 0x4
  2697                           
  2698     0074                     ___lldiv@dividend:	
  2699                           ; 2 bytes @ 0x4
  2700                           
  2701     0074                     ___aldiv@dividend:	
  2702                           ; 4 bytes @ 0x4
  2703                           
  2704     0074                     ___almod@dividend:	
  2705                           ; 4 bytes @ 0x4
  2706                           
  2707     0074                     ___llmod@dividend:	
  2708                           ; 4 bytes @ 0x4
  2709                           
  2710                           
  2711                           ; 4 bytes @ 0x4
  2712     0074                     	ds	1
  2713     0075                     ??_OLED_Command:
  2714     0075                     ?_OLED_WriteData:	
  2715                           ; 1 bytes @ 0x5
  2716                           
  2717     0075                     OLED_Command@cmd:	
  2718                           ; 1 bytes @ 0x5
  2719                           
  2720     0075                     ___awdiv@counter:	
  2721                           ; 1 bytes @ 0x5
  2722                           
  2723     0075                     ___awmod@counter:	
  2724                           ; 1 bytes @ 0x5
  2725                           
  2726     0075                     ___lwmod@counter:	
  2727                           ; 1 bytes @ 0x5
  2728                           
  2729     0075                     OLED_WriteData@data:	
  2730                           ; 1 bytes @ 0x5
  2731                           
  2732     0075                     ___lwdiv@quotient:	
  2733                           ; 2 bytes @ 0x5
  2734                           
  2735     0075                     strcpy@d:	
  2736                           ; 2 bytes @ 0x5
  2737                           
  2738                           
  2739                           ; 2 bytes @ 0x5
  2740     0075                     	ds	1
  2741     0076                     ??_memset:
  2742     0076                     ??_memcpy:	
  2743                           ; 1 bytes @ 0x6
  2744                           
  2745     0076                     OLED_Command@st:	
  2746                           ; 1 bytes @ 0x6
  2747                           
  2748     0076                     ___awdiv@sign:	
  2749                           ; 1 bytes @ 0x6
  2750                           
  2751     0076                     ___awmod@sign:	
  2752                           ; 1 bytes @ 0x6
  2753                           
  2754     0076                     memcpy@d:	
  2755                           ; 1 bytes @ 0x6
  2756                           
  2757     0076                     memset@p:	
  2758                           ; 2 bytes @ 0x6
  2759                           
  2760                           
  2761                           ; 2 bytes @ 0x6
  2762     0076                     	ds	1
  2763     0077                     ??_OLED_SetOrientation:
  2764     0077                     ?_OLED_YX:	
  2765                           ; 1 bytes @ 0x7
  2766                           
  2767     0077                     OLED_YX@col_char:	
  2768                           ; 1 bytes @ 0x7
  2769                           
  2770     0077                     ___lwdiv@counter:	
  2771                           ; 1 bytes @ 0x7
  2772                           
  2773     0077                     OLED_WriteData@len:	
  2774                           ; 1 bytes @ 0x7
  2775                           
  2776     0077                     ___awdiv@quotient:	
  2777                           ; 2 bytes @ 0x7
  2778                           
  2779                           
  2780                           ; 2 bytes @ 0x7
  2781     0077                     	ds	1
  2782     0078                     ??_OLED_YX:
  2783     0078                     ??___lldiv:	
  2784                           ; 1 bytes @ 0x8
  2785                           
  2786     0078                     ??___aldiv:	
  2787                           ; 1 bytes @ 0x8
  2788                           
  2789     0078                     ??___almod:	
  2790                           ; 1 bytes @ 0x8
  2791                           
  2792     0078                     ??___llmod:	
  2793                           ; 1 bytes @ 0x8
  2794                           
  2795     0078                     memcpy@s:	
  2796                           ; 1 bytes @ 0x8
  2797                           
  2798                           
  2799                           ; 2 bytes @ 0x8
  2800     0078                     	ds	1
  2801     0079                     ??_OLED_WriteData:
  2802     0079                     OLED_SetOrientation@o:	
  2803                           ; 1 bytes @ 0x9
  2804                           
  2805     0079                     OLED_YX@page:	
  2806                           ; 1 bytes @ 0x9
  2807                           
  2808     0079                     ___almod@counter:	
  2809                           ; 1 bytes @ 0x9
  2810                           
  2811     0079                     ___llmod@counter:	
  2812                           ; 1 bytes @ 0x9
  2813                           
  2814     0079                     OLED_WriteData@i:	
  2815                           ; 1 bytes @ 0x9
  2816                           
  2817     0079                     ___lldiv@quotient:	
  2818                           ; 2 bytes @ 0x9
  2819                           
  2820                           
  2821                           ; 4 bytes @ 0x9
  2822     0079                     	ds	1
  2823     007A                     OLED_YX@col:
  2824     007A                     ___almod@sign:	
  2825                           ; 1 bytes @ 0xA
  2826                           
  2827     007A                     memcpy@tmp:	
  2828                           ; 1 bytes @ 0xA
  2829                           
  2830                           
  2831                           ; 1 bytes @ 0xA
  2832     007A                     	ds	1
  2833     007B                     OLED_WriteData@st:
  2834                           
  2835                           ; 1 bytes @ 0xB
  2836     007B                     	ds	1
  2837     007C                     OLED_Clear@p:
  2838     007C                     OLED_UpdateLine@page:	
  2839                           ; 1 bytes @ 0xC
  2840                           
  2841                           
  2842                           ; 1 bytes @ 0xC
  2843     007C                     	ds	1
  2844     007D                     ??_OLED_Init:
  2845     007D                     ___lldiv@counter:	
  2846                           ; 1 bytes @ 0xD
  2847                           
  2848                           
  2849                           ; 1 bytes @ 0xD
  2850     007D                     	ds	1
  2851                           
  2852                           	psect	cstackBANK0
  2853     0020                     __pcstackBANK0:
  2854     0020                     ??_OLED_Clear:
  2855     0020                     ??_OLED_UpdateLine:	
  2856                           ; 1 bytes @ 0x0
  2857                           
  2858     0020                     ?_ADC_Read_Averaged:	
  2859                           ; 1 bytes @ 0x0
  2860                           
  2861     0020                     ADC_Read_Averaged@samples:	
  2862                           ; 2 bytes @ 0x0
  2863                           
  2864     0020                     ___aldiv@counter:	
  2865                           ; 1 bytes @ 0x0
  2866                           
  2867                           
  2868                           ; 1 bytes @ 0x0
  2869     0020                     	ds	1
  2870     0021                     ___aldiv@sign:
  2871                           
  2872                           ; 1 bytes @ 0x1
  2873     0021                     	ds	1
  2874     0022                     ??_ADC_Read_Averaged:
  2875     0022                     ___aldiv@quotient:	
  2876                           ; 1 bytes @ 0x2
  2877                           
  2878                           
  2879                           ; 4 bytes @ 0x2
  2880     0022                     	ds	4
  2881     0026                     ?_OLED_Printf_Line:
  2882     0026                     ADC_Read_Averaged@channel:	
  2883                           ; 1 bytes @ 0x6
  2884                           
  2885     0026                     OLED_Printf_Line@fmt:	
  2886                           ; 1 bytes @ 0x6
  2887                           
  2888                           
  2889                           ; 2 bytes @ 0x6
  2890     0026                     	ds	1
  2891     0027                     ADC_Read_Averaged@sum:
  2892                           
  2893                           ; 4 bytes @ 0x7
  2894     0027                     	ds	4
  2895     002B                     ADC_Read_Averaged@i:
  2896                           
  2897                           ; 1 bytes @ 0xB
  2898     002B                     	ds	1
  2899     002C                     ??_OLED_Printf_Line:
  2900     002C                     ??_Joystick_Read:	
  2901                           ; 1 bytes @ 0xC
  2902                           
  2903                           
  2904                           ; 1 bytes @ 0xC
  2905     002C                     	ds	4
  2906     0030                     Joystick_Read@joy:
  2907                           
  2908                           ; 1 bytes @ 0x10
  2909     0030                     	ds	8
  2910     0038                     OLED_Printf_Line@temp_351:
  2911                           
  2912                           ; 11 bytes @ 0x18
  2913     0038                     	ds	11
  2914     0043                     OLED_Printf_Line@temp_354:
  2915                           
  2916                           ; 11 bytes @ 0x23
  2917     0043                     	ds	11
  2918     004E                     OLED_Printf_Line@buf:
  2919                           
  2920                           ; 32 bytes @ 0x2E
  2921     004E                     	ds	32
  2922     006E                     _OLED_Printf_Line$363:
  2923                           
  2924                           ; 2 bytes @ 0x4E
  2925     006E                     	ds	2
  2926                           
  2927                           	psect	maintext
  2928     02BE                     __pmaintext:	
  2929 ;;
  2930 ;;Main: autosize = 0, tempsize = 2, incstack = 0, save=0
  2931 ;;
  2932 ;; *************** function _main *****************
  2933 ;; Defined at:
  2934 ;;		line 224 in file "main.c"
  2935 ;; Parameters:    Size  Location     Type
  2936 ;;		None
  2937 ;; Auto vars:     Size  Location     Type
  2938 ;;  joy            10   51[BANK1 ] struct .
  2939 ;; Return value:  Size  Location     Type
  2940 ;;                  1    wreg      void 
  2941 ;; Registers used:
  2942 ;;		wreg, fsr0l, fsr0h, fsr1l, fsr1h, status,2, status,0, pclath, cstack
  2943 ;; Tracked objects:
  2944 ;;		On entry : B1F/0
  2945 ;;		On exit  : 0/0
  2946 ;;		Unchanged: 0/0
  2947 ;; Data sizes:     COMMON   BANK0   BANK1   BANK2   BANK3   BANK4   BANK5   BANK6   BANK7   BANK8   BANK9  BANK10  BANK1
      +1  BANK12  BANK13  BANK14  BANK15  BANK16  BANK17  BANK18  BANK19  BANK20  BANK21  BANK22  BANK23  BANK24  BANK25
  2948 ;;      Params:         0       0       0       0       0       0       0       0       0       0       0       0       
      +0       0       0       0       0       0       0       0       0       0       0       0       0       0       0
  2949 ;;      Locals:         0       0      12       0       0       0       0       0       0       0       0       0       
      +0       0       0       0       0       0       0       0       0       0       0       0       0       0       0
  2950 ;;      Temps:          0       0       2       0       0       0       0       0       0       0       0       0       
      +0       0       0       0       0       0       0       0       0       0       0       0       0       0       0
  2951 ;;      Totals:         0       0      14       0       0       0       0       0       0       0       0       0       
      +0       0       0       0       0       0       0       0       0       0       0       0       0       0       0
  2952 ;;Total ram usage:       14 bytes
  2953 ;; Hardware stack levels required when called: 6
  2954 ;; This function calls:
  2955 ;;		_ADC_Init
  2956 ;;		_I2C_Init
  2957 ;;		_Joystick_DirectionString
  2958 ;;		_Joystick_Init
  2959 ;;		_Joystick_Read
  2960 ;;		_OLED_Clear
  2961 ;;		_OLED_Init
  2962 ;;		_OLED_Printf_Line
  2963 ;;		_OLED_SetOrientation
  2964 ;;		_initMain
  2965 ;; This function is called by:
  2966 ;;		Startup code after reset
  2967 ;; This function uses a non-reentrant model
  2968 ;;
  2969                           
  2970     02BE                     _main:	
  2971                           ;psect for function _main
  2972                           
  2973     02BE                     l3236:	
  2974                           ;incstack = 0
  2975                           ; Regs used in _main: [wreg-fsr1h+status,2+status,0+pclath+cstack]
  2976                           
  2977                           
  2978                           ;main.c: 226:     initMain();
  2979     02BE  318E  2656  3182   	fcall	_initMain
  2980     02C1                     l3238:
  2981                           
  2982                           ;main.c: 227:     I2C_Init();
  2983     02C1  318B  231E  3182   	fcall	_I2C_Init
  2984     02C4                     l3240:
  2985                           
  2986                           ;main.c: 229:     OLED_Init();
  2987     02C4  3181  21CF  3182   	fcall	_OLED_Init
  2988     02C7                     l3242:
  2989                           
  2990                           ;main.c: 230:     OLED_SetOrientation(OLED_ORIENT_0);
  2991     02C7  3000               	movlw	0
  2992     02C8  318D  2534  3182   	fcall	_OLED_SetOrientation
  2993     02CB                     l3244:
  2994                           
  2995                           ;main.c: 231:     OLED_Clear();
  2996     02CB  318E  2609  3182   	fcall	_OLED_Clear
  2997                           
  2998                           ;main.c: 233:     ADC_Init();
  2999     02CE  3197  27F6  3182   	fcall	_ADC_Init
  3000     02D1                     l3246:
  3001                           
  3002                           ;main.c: 234:     Joystick_Init();
  3003     02D1  3197  27E4  3182   	fcall	_Joystick_Init
  3004     02D4                     l3248:
  3005                           
  3006                           ;main.c: 239:     {;main.c: 240:         Joystick_Read(&joy);
  3007     02D4  30D3               	movlw	(low (main@joy| 0))& (0+255)
  3008     02D5  3180  209B  3182   	fcall	_Joystick_Read
  3009     02D8                     l3250:
  3010                           
  3011                           ;main.c: 243:         OLED_Printf_Line(0, "X:%4d  Y:%4d", joy.x, joy.y);
  3012     02D8  3000               	movlw	low (STR_10| (0+32768))
  3013     02D9  0020               	movlb	0	; select bank0
  3014     02DA  00A6               	movwf	OLED_Printf_Line@fmt
  3015     02DB  3090               	movlw	high (STR_10| (0+32768))
  3016     02DC  00A7               	movwf	OLED_Printf_Line@fmt+1
  3017     02DD  0021               	movlb	1	; select bank1
  3018     02DE  0858               	movf	((main@joy+1)^(0+128)+4),w
  3019     02DF  0020               	movlb	0	; select bank0
  3020     02E0  00A9               	movwf	?_OLED_Printf_Line+3
  3021     02E1  0021               	movlb	1	; select bank1
  3022     02E2  0857               	movf	(main@joy^(0+128)+4),w
  3023     02E3  0020               	movlb	0	; select bank0
  3024     02E4  00A8               	movwf	?_OLED_Printf_Line+2
  3025     02E5  0021               	movlb	1	; select bank1
  3026     02E6  085A               	movf	((main@joy+1)^(0+128)+6),w
  3027     02E7  0020               	movlb	0	; select bank0
  3028     02E8  00AB               	movwf	?_OLED_Printf_Line+5
  3029     02E9  0021               	movlb	1	; select bank1
  3030     02EA  0859               	movf	(main@joy^(0+128)+6),w
  3031     02EB  0020               	movlb	0	; select bank0
  3032     02EC  00AA               	movwf	?_OLED_Printf_Line+4
  3033     02ED  3000               	movlw	0
  3034     02EE  3183  23DC  3182   	fcall	_OLED_Printf_Line
  3035     02F1                     l3252:
  3036                           
  3037                           ;main.c: 244:         OLED_Printf_Line(1, "Dir: %s", Joystick_DirectionString(joy.direct
      +                          ion));
  3038     02F1  3069               	movlw	low (STR_11| (0+32768))
  3039     02F2  0020               	movlb	0	; select bank0
  3040     02F3  00A6               	movwf	OLED_Printf_Line@fmt
  3041     02F4  3098               	movlw	high (STR_11| (0+32768))
  3042     02F5  00A7               	movwf	OLED_Printf_Line@fmt+1
  3043     02F6  0021               	movlb	1	; select bank1
  3044     02F7  085B               	movf	(main@joy^(0+128)+8),w
  3045     02F8  318D  2575  3182   	fcall	_Joystick_DirectionString
  3046     02FB  0871               	movf	?_Joystick_DirectionString+1,w
  3047     02FC  0020               	movlb	0	; select bank0
  3048     02FD  00A9               	movwf	(low ((?_OLED_Printf_Line| 0+2))+1)
  3049     02FE  0870               	movf	?_Joystick_DirectionString,w
  3050     02FF  00A8               	movwf	low ((?_OLED_Printf_Line| 0+2))
  3051     0300  3001               	movlw	1
  3052     0301  3183  23DC  3182   	fcall	_OLED_Printf_Line
  3053     0304                     l3254:
  3054                           
  3055                           ;main.c: 245:         OLED_Printf_Line(2, "Btn: %s", joy.button ? "PRESSED" : "---    ")
      +                          ;
  3056     0304  0021               	movlb	1	; select bank1
  3057     0305  085C               	movf	(main@joy^(0+128)+9),w
  3058     0306  1D03               	btfss	3,2
  3059     0307  2B09               	goto	u3331
  3060     0308  2B0A               	goto	u3330
  3061     0309                     u3331:
  3062     0309  2B0F               	goto	l3258
  3063     030A                     u3330:
  3064     030A                     l3256:
  3065     030A  3051               	movlw	low (STR_14| (0+32768))
  3066     030B  00D1               	movwf	_main$879^(0+128)
  3067     030C  3098               	movlw	high (STR_14| (0+32768))
  3068     030D  00D2               	movwf	(_main$879^(0+128)+1)
  3069     030E  2B13               	goto	l3260
  3070     030F                     l3258:
  3071     030F  3059               	movlw	low (STR_13| (0+32768))
  3072     0310  00D1               	movwf	_main$879^(0+128)
  3073     0311  3098               	movlw	high (STR_13| (0+32768))
  3074     0312  00D2               	movwf	(_main$879^(0+128)+1)
  3075     0313                     l3260:
  3076     0313  3061               	movlw	low (STR_12| (0+32768))
  3077     0314  0020               	movlb	0	; select bank0
  3078     0315  00A6               	movwf	OLED_Printf_Line@fmt
  3079     0316  3098               	movlw	high (STR_12| (0+32768))
  3080     0317  00A7               	movwf	OLED_Printf_Line@fmt+1
  3081     0318  0021               	movlb	1	; select bank1
  3082     0319  0852               	movf	(_main$879+1)^(0+128),w
  3083     031A  0020               	movlb	0	; select bank0
  3084     031B  00A9               	movwf	(low ((?_OLED_Printf_Line| 0+2))+1)
  3085     031C  0021               	movlb	1	; select bank1
  3086     031D  0851               	movf	_main$879^(0+128),w
  3087     031E  0020               	movlb	0	; select bank0
  3088     031F  00A8               	movwf	low ((?_OLED_Printf_Line| 0+2))
  3089     0320  3002               	movlw	2
  3090     0321  3183  23DC  3182   	fcall	_OLED_Printf_Line
  3091     0324                     l3262:
  3092                           
  3093                           ;main.c: 246:         OLED_Printf_Line(3, "RX:%4u RY:%4u", joy.raw_x, joy.raw_y);
  3094     0324  3000               	movlw	low (STR_15| (0+32768))
  3095     0325  0020               	movlb	0	; select bank0
  3096     0326  00A6               	movwf	OLED_Printf_Line@fmt
  3097     0327  308B               	movlw	high (STR_15| (0+32768))
  3098     0328  00A7               	movwf	OLED_Printf_Line@fmt+1
  3099     0329  0021               	movlb	1	; select bank1
  3100     032A  0854               	movf	(main@joy+1)^(0+128),w
  3101     032B  0020               	movlb	0	; select bank0
  3102     032C  00A9               	movwf	?_OLED_Printf_Line+3
  3103     032D  0021               	movlb	1	; select bank1
  3104     032E  0853               	movf	main@joy^(0+128),w
  3105     032F  0020               	movlb	0	; select bank0
  3106     0330  00A8               	movwf	?_OLED_Printf_Line+2
  3107     0331  0021               	movlb	1	; select bank1
  3108     0332  0856               	movf	((main@joy+1)^(0+128)+2),w
  3109     0333  0020               	movlb	0	; select bank0
  3110     0334  00AB               	movwf	?_OLED_Printf_Line+5
  3111     0335  0021               	movlb	1	; select bank1
  3112     0336  0855               	movf	(main@joy^(0+128)+2),w
  3113     0337  0020               	movlb	0	; select bank0
  3114     0338  00AA               	movwf	?_OLED_Printf_Line+4
  3115     0339  3003               	movlw	3
  3116     033A  3183  23DC  3182   	fcall	_OLED_Printf_Line
  3117                           
  3118                           ;main.c: 248:         _delay((unsigned long)((100)*(32000000/4000.0)));
  3119     033D  3005               	movlw	5
  3120     033E  0021               	movlb	1	; select bank1
  3121     033F  00D0               	movwf	(??_main^(0+128)+1)
  3122     0340  300F               	movlw	15
  3123     0341  00CF               	movwf	??_main^(0+128)
  3124     0342  30F1               	movlw	241
  3125     0343                     u3347:
  3126     0343  0B89               	decfsz	9,f
  3127     0344  2B43               	goto	u3347
  3128     0345  0BCF               	decfsz	??_main^(0+128),f
  3129     0346  2B43               	goto	u3347
  3130     0347  0BD0               	decfsz	(??_main^(0+128)+1),f
  3131     0348  2B43               	goto	u3347
  3132     0349  2AD4               	goto	l3248
  3133     034A  3180  2803         	ljmp	start
  3134     034C                     __end_of_main:
  3135                           
  3136                           	psect	text1
  3137     0E56                     __ptext1:	
  3138 ;; *************** function _initMain *****************
  3139 ;; Defined at:
  3140 ;;		line 75 in file "main.c"
  3141 ;; Parameters:    Size  Location     Type
  3142 ;;		None
  3143 ;; Auto vars:     Size  Location     Type
  3144 ;;		None
  3145 ;; Return value:  Size  Location     Type
  3146 ;;                  1    wreg      void 
  3147 ;; Registers used:
  3148 ;;		wreg, fsr0l, fsr0h, status,2, status,0, pclath, cstack
  3149 ;; Tracked objects:
  3150 ;;		On entry : 0/0
  3151 ;;		On exit  : 0/0
  3152 ;;		Unchanged: 0/0
  3153 ;; Data sizes:     COMMON   BANK0   BANK1   BANK2   BANK3   BANK4   BANK5   BANK6   BANK7   BANK8   BANK9  BANK10  BANK1
      +1  BANK12  BANK13  BANK14  BANK15  BANK16  BANK17  BANK18  BANK19  BANK20  BANK21  BANK22  BANK23  BANK24  BANK25
  3154 ;;      Params:         0       0       0       0       0       0       0       0       0       0       0       0       
      +0       0       0       0       0       0       0       0       0       0       0       0       0       0       0
  3155 ;;      Locals:         0       0       0       0       0       0       0       0       0       0       0       0       
      +0       0       0       0       0       0       0       0       0       0       0       0       0       0       0
  3156 ;;      Temps:          1       0       0       0       0       0       0       0       0       0       0       0       
      +0       0       0       0       0       0       0       0       0       0       0       0       0       0       0
  3157 ;;      Totals:         1       0       0       0       0       0       0       0       0       0       0       0       
      +0       0       0       0       0       0       0       0       0       0       0       0       0       0       0
  3158 ;;Total ram usage:        1 bytes
  3159 ;; Hardware stack levels used: 1
  3160 ;; Hardware stack levels required when called: 1
  3161 ;; This function calls:
  3162 ;;		_ADC_ConfigurePin
  3163 ;;		_internal_32
  3164 ;; This function is called by:
  3165 ;;		_main
  3166 ;; This function uses a non-reentrant model
  3167 ;;
  3168                           
  3169     0E56                     _initMain:	
  3170                           ;psect for function _initMain
  3171                           
  3172     0E56                     l3022:	
  3173                           ;incstack = 0
  3174                           ; Regs used in _initMain: [wreg-fsr0h+status,2+status,0+pclath+cstack]
  3175                           
  3176                           
  3177                           ;main.c: 78:     internal_32();
  3178     0E56  3197  27ED  318E   	fcall	_internal_32
  3179     0E59                     l3024:
  3180                           
  3181                           ;main.c: 81:     _delay((unsigned long)((10)*(32000000/4000.0)));
  3182     0E59  3068               	movlw	104
  3183     0E5A  00F3               	movwf	??_initMain
  3184     0E5B  30E4               	movlw	228
  3185     0E5C                     u3357:
  3186     0E5C  0B89               	decfsz	9,f
  3187     0E5D  2E5C               	goto	u3357
  3188     0E5E  0BF3               	decfsz	??_initMain,f
  3189     0E5F  2E5C               	goto	u3357
  3190     0E60  3200               	nop2
  3191     0E61                     l3026:
  3192                           
  3193                           ;main.c: 83:     TRISBbits.TRISB2 = 0;
  3194     0E61  0021               	movlb	1	; select bank1
  3195     0E62  110D               	bcf	13,2	;volatile
  3196     0E63                     l3028:
  3197                           
  3198                           ;main.c: 84:     ANSELBbits.ANSB2 = 0;
  3199     0E63  0023               	movlb	3	; select bank3
  3200     0E64  110D               	bcf	13,2	;volatile
  3201     0E65                     l3030:
  3202                           
  3203                           ;main.c: 90:     ANSELCbits.ANSC4 = 0;
  3204     0E65  120E               	bcf	14,4	;volatile
  3205     0E66                     l3032:
  3206                           
  3207                           ;main.c: 91:     ANSELCbits.ANSC5 = 0;
  3208     0E66  128E               	bcf	14,5	;volatile
  3209     0E67                     l3034:
  3210                           
  3211                           ;main.c: 92:     TRISCbits.TRISC4 = 1;
  3212     0E67  0021               	movlb	1	; select bank1
  3213     0E68  160E               	bsf	14,4	;volatile
  3214     0E69                     l3036:
  3215                           
  3216                           ;main.c: 93:     TRISCbits.TRISC5 = 1;
  3217     0E69  168E               	bsf	14,5	;volatile
  3218     0E6A                     l3038:
  3219                           
  3220                           ;main.c: 95:     PPSLOCK = 0x55; PPSLOCK = 0xAA; PPSLOCKbits.PPSLOCKED = 0;
  3221     0E6A  3055               	movlw	85
  3222     0E6B  003C               	movlb	28	; select bank28
  3223     0E6C  008F               	movwf	15	;volsfr
  3224     0E6D                     l3040:
  3225     0E6D  30AA               	movlw	170
  3226     0E6E  008F               	movwf	15	;volsfr
  3227     0E6F                     l3042:
  3228     0E6F  100F               	bcf	15,0	;volsfr
  3229     0E70                     l3044:
  3230                           
  3231                           ;main.c: 96:     RB2PPSbits.RB2PPS = 0x14;
  3232     0E70  003D               	movlb	29	; select bank29
  3233     0E71  081A               	movf	26,w	;volatile
  3234     0E72  39E0               	andlw	-32
  3235     0E73  3814               	iorlw	20
  3236     0E74  009A               	movwf	26	;volatile
  3237     0E75                     l3046:
  3238                           
  3239                           ;main.c: 97:     RXPPSbits.RXPPS = 0x0B;
  3240     0E75  003C               	movlb	28	; select bank28
  3241     0E76  0824               	movf	36,w	;volatile
  3242     0E77  39E0               	andlw	-32
  3243     0E78  380B               	iorlw	11
  3244     0E79  00A4               	movwf	36	;volatile
  3245     0E7A                     l3048:
  3246                           
  3247                           ;main.c: 98:     RC4PPSbits.RC4PPS = 0x11;
  3248     0E7A  003D               	movlb	29	; select bank29
  3249     0E7B  0824               	movf	36,w	;volatile
  3250     0E7C  39E0               	andlw	-32
  3251     0E7D  3811               	iorlw	17
  3252     0E7E  00A4               	movwf	36	;volatile
  3253     0E7F                     l3050:
  3254                           
  3255                           ;main.c: 99:     SSPDATPPSbits.SSPDATPPS = 0x14;
  3256     0E7F  003C               	movlb	28	; select bank28
  3257     0E80  0821               	movf	33,w	;volatile
  3258     0E81  39E0               	andlw	-32
  3259     0E82  3814               	iorlw	20
  3260     0E83  00A1               	movwf	33	;volatile
  3261     0E84                     l3052:
  3262                           
  3263                           ;main.c: 100:     SSPCLKPPSbits.SSPCLKPPS = 0x15;
  3264     0E84  0820               	movf	32,w	;volatile
  3265     0E85  39E0               	andlw	-32
  3266     0E86  3815               	iorlw	21
  3267     0E87  00A0               	movwf	32	;volatile
  3268     0E88                     l3054:
  3269                           
  3270                           ;main.c: 101:     RC5PPSbits.RC5PPS = 0x10;
  3271     0E88  003D               	movlb	29	; select bank29
  3272     0E89  0825               	movf	37,w	;volatile
  3273     0E8A  39E0               	andlw	-32
  3274     0E8B  3810               	iorlw	16
  3275     0E8C  00A5               	movwf	37	;volatile
  3276     0E8D                     l3056:
  3277                           
  3278                           ;main.c: 102:     PPSLOCK = 0x55; PPSLOCK = 0xAA; PPSLOCKbits.PPSLOCKED = 1;
  3279     0E8D  3055               	movlw	85
  3280     0E8E  003C               	movlb	28	; select bank28
  3281     0E8F  008F               	movwf	15	;volsfr
  3282     0E90                     l3058:
  3283     0E90  30AA               	movlw	170
  3284     0E91  008F               	movwf	15	;volsfr
  3285     0E92                     l3060:
  3286     0E92  140F               	bsf	15,0	;volsfr
  3287     0E93                     l3062:
  3288                           
  3289                           ;main.c: 109:     ADCON1bits.ADCS = 0b010;
  3290     0E93  0021               	movlb	1	; select bank1
  3291     0E94  081E               	movf	30,w	;volatile
  3292     0E95  398F               	andlw	-113
  3293     0E96  3820               	iorlw	32
  3294     0E97  009E               	movwf	30	;volatile
  3295     0E98                     l3064:
  3296                           
  3297                           ;main.c: 112:     ADCON1bits.ADFM = 1;
  3298     0E98  179E               	bsf	30,7	;volatile
  3299     0E99                     l3066:
  3300                           
  3301                           ;main.c: 115:     ADCON1bits.ADNREF = 0;
  3302     0E99  111E               	bcf	30,2	;volatile
  3303     0E9A                     l3068:
  3304                           
  3305                           ;main.c: 118:     ADCON1bits.ADPREF = 0b00;
  3306     0E9A  30FC               	movlw	-4
  3307     0E9B  059E               	andwf	30,f	;volatile
  3308     0E9C                     l3070:
  3309                           
  3310                           ;main.c: 121:     ADC_ConfigurePin(ADC_AN0);
  3311     0E9C  3000               	movlw	0
  3312     0E9D  3180  20FD  318E   	fcall	_ADC_ConfigurePin
  3313     0EA0                     l3072:
  3314                           
  3315                           ;main.c: 122:     ADC_ConfigurePin(ADC_AN1);
  3316     0EA0  3001               	movlw	1
  3317     0EA1  3180  20FD  318E   	fcall	_ADC_ConfigurePin
  3318     0EA4                     l387:
  3319     0EA4  0008               	return
  3320     0EA5                     __end_of_initMain:
  3321                           
  3322                           	psect	text2
  3323     17ED                     __ptext2:	
  3324 ;; *************** function _internal_32 *****************
  3325 ;; Defined at:
  3326 ;;		line 36 in file "PIC16F1718_Internal.c"
  3327 ;; Parameters:    Size  Location     Type
  3328 ;;		None
  3329 ;; Auto vars:     Size  Location     Type
  3330 ;;		None
  3331 ;; Return value:  Size  Location     Type
  3332 ;;                  1    wreg      void 
  3333 ;; Registers used:
  3334 ;;		None
  3335 ;; Tracked objects:
  3336 ;;		On entry : 0/0
  3337 ;;		On exit  : 0/0
  3338 ;;		Unchanged: 0/0
  3339 ;; Data sizes:     COMMON   BANK0   BANK1   BANK2   BANK3   BANK4   BANK5   BANK6   BANK7   BANK8   BANK9  BANK10  BANK1
      +1  BANK12  BANK13  BANK14  BANK15  BANK16  BANK17  BANK18  BANK19  BANK20  BANK21  BANK22  BANK23  BANK24  BANK25
  3340 ;;      Params:         0       0       0       0       0       0       0       0       0       0       0       0       
      +0       0       0       0       0       0       0       0       0       0       0       0       0       0       0
  3341 ;;      Locals:         0       0       0       0       0       0       0       0       0       0       0       0       
      +0       0       0       0       0       0       0       0       0       0       0       0       0       0       0
  3342 ;;      Temps:          0       0       0       0       0       0       0       0       0       0       0       0       
      +0       0       0       0       0       0       0       0       0       0       0       0       0       0       0
  3343 ;;      Totals:         0       0       0       0       0       0       0       0       0       0       0       0       
      +0       0       0       0       0       0       0       0       0       0       0       0       0       0       0
  3344 ;;Total ram usage:        0 bytes
  3345 ;; Hardware stack levels used: 1
  3346 ;; This function calls:
  3347 ;;		Nothing
  3348 ;; This function is called by:
  3349 ;;		_initMain
  3350 ;; This function uses a non-reentrant model
  3351 ;;
  3352                           
  3353     17ED                     _internal_32:	
  3354                           ;psect for function _internal_32
  3355                           
  3356     17ED                     l2412:	
  3357                           ;incstack = 0
  3358                           ; Regs used in _internal_32: []
  3359                           
  3360                           
  3361                           ;PIC16F1718_Internal.c: 38:     SCS0 = 0;
  3362     17ED  0021               	movlb	1	; select bank1
  3363     17EE  1019               	bcf	25,0	;volatile
  3364                           
  3365                           ;PIC16F1718_Internal.c: 39:     SCS1 = 0;
  3366     17EF  1099               	bcf	25,1	;volatile
  3367                           
  3368                           ;PIC16F1718_Internal.c: 42:     IRCF0 = 0;
  3369     17F0  1199               	bcf	25,3	;volatile
  3370                           
  3371                           ;PIC16F1718_Internal.c: 43:     IRCF1 = 1;
  3372     17F1  1619               	bsf	25,4	;volatile
  3373                           
  3374                           ;PIC16F1718_Internal.c: 44:     IRCF2 = 1;
  3375     17F2  1699               	bsf	25,5	;volatile
  3376                           
  3377                           ;PIC16F1718_Internal.c: 45:     IRCF3 = 1;
  3378     17F3  1719               	bsf	25,6	;volatile
  3379                           
  3380                           ;PIC16F1718_Internal.c: 48:     SPLLEN = 1;
  3381     17F4  1799               	bsf	25,7	;volatile
  3382     17F5                     l273:
  3383     17F5  0008               	return
  3384     17F6                     __end_of_internal_32:
  3385                           
  3386                           	psect	text3
  3387     00FD                     __ptext3:	
  3388 ;; *************** function _ADC_ConfigurePin *****************
  3389 ;; Defined at:
  3390 ;;		line 53 in file "./ADC.h"
  3391 ;; Parameters:    Size  Location     Type
  3392 ;;  channel         1    wreg     enum E6091
  3393 ;; Auto vars:     Size  Location     Type
  3394 ;;  channel         1    2[COMMON] enum E6091
  3395 ;; Return value:  Size  Location     Type
  3396 ;;                  1    wreg      void 
  3397 ;; Registers used:
  3398 ;;		wreg, fsr0l, fsr0h, status,2, status,0
  3399 ;; Tracked objects:
  3400 ;;		On entry : 0/0
  3401 ;;		On exit  : 0/0
  3402 ;;		Unchanged: 0/0
  3403 ;; Data sizes:     COMMON   BANK0   BANK1   BANK2   BANK3   BANK4   BANK5   BANK6   BANK7   BANK8   BANK9  BANK10  BANK1
      +1  BANK12  BANK13  BANK14  BANK15  BANK16  BANK17  BANK18  BANK19  BANK20  BANK21  BANK22  BANK23  BANK24  BANK25
  3404 ;;      Params:         0       0       0       0       0       0       0       0       0       0       0       0       
      +0       0       0       0       0       0       0       0       0       0       0       0       0       0       0
  3405 ;;      Locals:         1       0       0       0       0       0       0       0       0       0       0       0       
      +0       0       0       0       0       0       0       0       0       0       0       0       0       0       0
  3406 ;;      Temps:          2       0       0       0       0       0       0       0       0       0       0       0       
      +0       0       0       0       0       0       0       0       0       0       0       0       0       0       0
  3407 ;;      Totals:         3       0       0       0       0       0       0       0       0       0       0       0       
      +0       0       0       0       0       0       0       0       0       0       0       0       0       0       0
  3408 ;;Total ram usage:        3 bytes
  3409 ;; Hardware stack levels used: 1
  3410 ;; This function calls:
  3411 ;;		Nothing
  3412 ;; This function is called by:
  3413 ;;		_initMain
  3414 ;; This function uses a non-reentrant model
  3415 ;;
  3416                           
  3417     00FD                     _ADC_ConfigurePin:	
  3418                           ;psect for function _ADC_ConfigurePin
  3419                           
  3420                           
  3421                           ;incstack = 0
  3422                           ; Regs used in _ADC_ConfigurePin: [wreg-fsr0h+status,2+status,0]
  3423                           ;ADC_ConfigurePin@channel stored from wreg
  3424     00FD  00F2               	movwf	ADC_ConfigurePin@channel
  3425     00FE                     l2414:
  3426                           
  3427                           ;./ADC.h: 53: void ADC_ConfigurePin(adc_channel_t channel);./ADC.h: 54: {;./ADC.h: 55:  
      +                             switch(channel) {
  3428     00FE  2936               	goto	l2418
  3429     00FF                     l359:	
  3430                           ;./ADC.h: 56:         case ADC_AN0: TRISAbits.TRISA0 = 1; ANSELAbits.ANSA0 = 1; break;
  3431                           
  3432     00FF  0021               	movlb	1	; select bank1
  3433     0100  140C               	bsf	12,0	;volatile
  3434     0101  0023               	movlb	3	; select bank3
  3435     0102  140C               	bsf	12,0	;volatile
  3436     0103  2961               	goto	l371
  3437     0104                     l361:	
  3438                           ;./ADC.h: 57:         case ADC_AN1: TRISAbits.TRISA1 = 1; ANSELAbits.ANSA1 = 1; break;
  3439                           
  3440     0104  0021               	movlb	1	; select bank1
  3441     0105  148C               	bsf	12,1	;volatile
  3442     0106  0023               	movlb	3	; select bank3
  3443     0107  148C               	bsf	12,1	;volatile
  3444     0108  2961               	goto	l371
  3445     0109                     l362:	
  3446                           ;./ADC.h: 58:         case ADC_AN2: TRISAbits.TRISA2 = 1; ANSELAbits.ANSA2 = 1; break;
  3447                           
  3448     0109  0021               	movlb	1	; select bank1
  3449     010A  150C               	bsf	12,2	;volatile
  3450     010B  0023               	movlb	3	; select bank3
  3451     010C  150C               	bsf	12,2	;volatile
  3452     010D  2961               	goto	l371
  3453     010E                     l363:	
  3454                           ;./ADC.h: 59:         case ADC_AN3: TRISAbits.TRISA3 = 1; ANSELAbits.ANSA3 = 1; break;
  3455                           
  3456     010E  0021               	movlb	1	; select bank1
  3457     010F  158C               	bsf	12,3	;volatile
  3458     0110  0023               	movlb	3	; select bank3
  3459     0111  158C               	bsf	12,3	;volatile
  3460     0112  2961               	goto	l371
  3461     0113                     l364:	
  3462                           ;./ADC.h: 60:         case ADC_AN4: TRISAbits.TRISA4 = 1; ANSELAbits.ANSA4 = 1; break;
  3463                           
  3464     0113  0021               	movlb	1	; select bank1
  3465     0114  160C               	bsf	12,4	;volatile
  3466     0115  0023               	movlb	3	; select bank3
  3467     0116  160C               	bsf	12,4	;volatile
  3468     0117  2961               	goto	l371
  3469     0118                     l365:	
  3470                           ;./ADC.h: 61:         case ADC_AN5: TRISAbits.TRISA5 = 1; ANSELAbits.ANSA5 = 1; break;
  3471                           
  3472     0118  0021               	movlb	1	; select bank1
  3473     0119  168C               	bsf	12,5	;volatile
  3474     011A  0023               	movlb	3	; select bank3
  3475     011B  168C               	bsf	12,5	;volatile
  3476     011C  2961               	goto	l371
  3477     011D                     l366:	
  3478                           ;./ADC.h: 62:         case ADC_AN8: TRISBbits.TRISB0 = 1; ANSELBbits.ANSB0 = 1; break;
  3479                           
  3480     011D  0021               	movlb	1	; select bank1
  3481     011E  140D               	bsf	13,0	;volatile
  3482     011F  0023               	movlb	3	; select bank3
  3483     0120  140D               	bsf	13,0	;volatile
  3484     0121  2961               	goto	l371
  3485     0122                     l367:	
  3486                           ;./ADC.h: 63:         case ADC_AN9: TRISBbits.TRISB1 = 1; ANSELBbits.ANSB1 = 1; break;
  3487                           
  3488     0122  0021               	movlb	1	; select bank1
  3489     0123  148D               	bsf	13,1	;volatile
  3490     0124  0023               	movlb	3	; select bank3
  3491     0125  148D               	bsf	13,1	;volatile
  3492     0126  2961               	goto	l371
  3493     0127                     l368:	
  3494                           ;./ADC.h: 64:         case ADC_AN10: TRISBbits.TRISB3 = 1; ANSELBbits.ANSB3 = 1; break;
  3495                           
  3496     0127  0021               	movlb	1	; select bank1
  3497     0128  158D               	bsf	13,3	;volatile
  3498     0129  0023               	movlb	3	; select bank3
  3499     012A  158D               	bsf	13,3	;volatile
  3500     012B  2961               	goto	l371
  3501     012C                     l369:	
  3502                           ;./ADC.h: 65:         case ADC_AN11: TRISBbits.TRISB4 = 1; ANSELBbits.ANSB4 = 1; break;
  3503                           
  3504     012C  0021               	movlb	1	; select bank1
  3505     012D  160D               	bsf	13,4	;volatile
  3506     012E  0023               	movlb	3	; select bank3
  3507     012F  160D               	bsf	13,4	;volatile
  3508     0130  2961               	goto	l371
  3509     0131                     l370:	
  3510                           ;./ADC.h: 66:         case ADC_AN12: TRISBbits.TRISB5 = 1; ANSELBbits.ANSB5 = 1; break;
  3511                           
  3512     0131  0021               	movlb	1	; select bank1
  3513     0132  168D               	bsf	13,5	;volatile
  3514     0133  0023               	movlb	3	; select bank3
  3515     0134  168D               	bsf	13,5	;volatile
  3516     0135  2961               	goto	l371
  3517     0136                     l2418:
  3518     0136  0872               	movf	ADC_ConfigurePin@channel,w
  3519     0137  00F0               	movwf	??_ADC_ConfigurePin
  3520     0138  01F1               	clrf	??_ADC_ConfigurePin+1
  3521                           
  3522                           ; Switch on 2 bytes has been partitioned into a top level switch of size 1, and 1 sub-sw
      +                          itches
  3523                           ; Switch size 1, requested type "simple"
  3524                           ; Number of cases is 1, Range of values is 0 to 0
  3525                           ; switch strategies available:
  3526                           ; Name         Instructions Cycles
  3527                           ; simple_byte            4     3 (average)
  3528                           ; direct_byte            8     6 (fixed)
  3529                           ; jumptable            260     6 (fixed)
  3530                           ;	Chosen strategy is simple_byte
  3531     0139  0871               	movf	??_ADC_ConfigurePin+1,w
  3532     013A  3A00               	xorlw	0	; case 0
  3533     013B  1903               	skipnz
  3534     013C  293E               	goto	l3304
  3535     013D  2961               	goto	l371
  3536     013E                     l3304:
  3537                           
  3538                           ; Switch size 1, requested type "simple"
  3539                           ; Number of cases is 11, Range of values is 0 to 12
  3540                           ; switch strategies available:
  3541                           ; Name         Instructions Cycles
  3542                           ; direct_byte           32     6 (fixed)
  3543                           ; simple_byte           34    18 (average)
  3544                           ; jumptable            260     6 (fixed)
  3545                           ;	Chosen strategy is simple_byte
  3546     013E  0870               	movf	??_ADC_ConfigurePin,w
  3547     013F  3A00               	xorlw	0	; case 0
  3548     0140  1903               	skipnz
  3549     0141  28FF               	goto	l359
  3550     0142  3A01               	xorlw	1	; case 1
  3551     0143  1903               	skipnz
  3552     0144  2904               	goto	l361
  3553     0145  3A03               	xorlw	3	; case 2
  3554     0146  1903               	skipnz
  3555     0147  2909               	goto	l362
  3556     0148  3A01               	xorlw	1	; case 3
  3557     0149  1903               	skipnz
  3558     014A  290E               	goto	l363
  3559     014B  3A07               	xorlw	7	; case 4
  3560     014C  1903               	skipnz
  3561     014D  2913               	goto	l364
  3562     014E  3A01               	xorlw	1	; case 5
  3563     014F  1903               	skipnz
  3564     0150  2918               	goto	l365
  3565     0151  3A0D               	xorlw	13	; case 8
  3566     0152  1903               	skipnz
  3567     0153  291D               	goto	l366
  3568     0154  3A01               	xorlw	1	; case 9
  3569     0155  1903               	skipnz
  3570     0156  2922               	goto	l367
  3571     0157  3A03               	xorlw	3	; case 10
  3572     0158  1903               	skipnz
  3573     0159  2927               	goto	l368
  3574     015A  3A01               	xorlw	1	; case 11
  3575     015B  1903               	skipnz
  3576     015C  292C               	goto	l369
  3577     015D  3A07               	xorlw	7	; case 12
  3578     015E  1903               	skipnz
  3579     015F  2931               	goto	l370
  3580     0160  2961               	goto	l371
  3581     0161                     l371:
  3582     0161  0008               	return
  3583     0162                     __end_of_ADC_ConfigurePin:
  3584                           
  3585                           	psect	text4
  3586     0D34                     __ptext4:	
  3587 ;; *************** function _OLED_SetOrientation *****************
  3588 ;; Defined at:
  3589 ;;		line 246 in file "OLED_SSD1306.c"
  3590 ;; Parameters:    Size  Location     Type
  3591 ;;  o               1    wreg     enum E6061
  3592 ;; Auto vars:     Size  Location     Type
  3593 ;;  o               1    9[COMMON] enum E6061
  3594 ;; Return value:  Size  Location     Type
  3595 ;;                  1    wreg      void 
  3596 ;; Registers used:
  3597 ;;		wreg, fsr0l, fsr0h, status,2, status,0, pclath, cstack
  3598 ;; Tracked objects:
  3599 ;;		On entry : 0/0
  3600 ;;		On exit  : 0/0
  3601 ;;		Unchanged: 0/0
  3602 ;; Data sizes:     COMMON   BANK0   BANK1   BANK2   BANK3   BANK4   BANK5   BANK6   BANK7   BANK8   BANK9  BANK10  BANK1
      +1  BANK12  BANK13  BANK14  BANK15  BANK16  BANK17  BANK18  BANK19  BANK20  BANK21  BANK22  BANK23  BANK24  BANK25
  3603 ;;      Params:         0       0       0       0       0       0       0       0       0       0       0       0       
      +0       0       0       0       0       0       0       0       0       0       0       0       0       0       0
  3604 ;;      Locals:         1       0       0       0       0       0       0       0       0       0       0       0       
      +0       0       0       0       0       0       0       0       0       0       0       0       0       0       0
  3605 ;;      Temps:          2       0       0       0       0       0       0       0       0       0       0       0       
      +0       0       0       0       0       0       0       0       0       0       0       0       0       0       0
  3606 ;;      Totals:         3       0       0       0       0       0       0       0       0       0       0       0       
      +0       0       0       0       0       0       0       0       0       0       0       0       0       0       0
  3607 ;;Total ram usage:        3 bytes
  3608 ;; Hardware stack levels used: 1
  3609 ;; Hardware stack levels required when called: 3
  3610 ;; This function calls:
  3611 ;;		_OLED_Command
  3612 ;; This function is called by:
  3613 ;;		_main
  3614 ;; This function uses a non-reentrant model
  3615 ;;
  3616                           
  3617     0D34                     _OLED_SetOrientation:	
  3618                           ;psect for function _OLED_SetOrientation
  3619                           
  3620                           
  3621                           ;incstack = 0
  3622                           ; Regs used in _OLED_SetOrientation: [wreg-fsr0h+status,2+status,0+pclath+cstack]
  3623                           ;OLED_SetOrientation@o stored from wreg
  3624     0D34  00F9               	movwf	OLED_SetOrientation@o
  3625     0D35                     l2700:
  3626                           
  3627                           ;OLED_SSD1306.c: 246: void OLED_SetOrientation(oled_orient_t o);OLED_SSD1306.c: 247: {;O
      +                          LED_SSD1306.c: 248:     (void)OLED_Command(0x2E);
  3628     0D35  302E               	movlw	46
  3629     0D36  318C  2498  318D   	fcall	_OLED_Command
  3630                           
  3631                           ;OLED_SSD1306.c: 250:     switch (o)
  3632     0D39  2D5E               	goto	l2712
  3633     0D3A                     l2702:
  3634                           
  3635                           ;OLED_SSD1306.c: 254:             (void)OLED_Command(0xA0 | 0x01);
  3636     0D3A  30A1               	movlw	161
  3637     0D3B  318C  2498  318D   	fcall	_OLED_Command
  3638                           
  3639                           ;OLED_SSD1306.c: 255:             (void)OLED_Command(0xC8);
  3640     0D3E  30C8               	movlw	200
  3641     0D3F  318C  2498  318D   	fcall	_OLED_Command
  3642                           
  3643                           ;OLED_SSD1306.c: 256:             break;
  3644     0D42  2D74               	goto	l128
  3645     0D43                     l2704:
  3646                           
  3647                           ;OLED_SSD1306.c: 259:             (void)OLED_Command(0xA0 | 0x00);
  3648     0D43  30A0               	movlw	160
  3649     0D44  318C  2498  318D   	fcall	_OLED_Command
  3650                           
  3651                           ;OLED_SSD1306.c: 260:             (void)OLED_Command(0xC0);
  3652     0D47  30C0               	movlw	192
  3653     0D48  318C  2498  318D   	fcall	_OLED_Command
  3654                           
  3655                           ;OLED_SSD1306.c: 261:             break;
  3656     0D4B  2D74               	goto	l128
  3657     0D4C                     l2706:
  3658                           
  3659                           ;OLED_SSD1306.c: 264:             (void)OLED_Command(0xA0 | 0x00);
  3660     0D4C  30A0               	movlw	160
  3661     0D4D  318C  2498  318D   	fcall	_OLED_Command
  3662                           
  3663                           ;OLED_SSD1306.c: 265:             (void)OLED_Command(0xC8);
  3664     0D50  30C8               	movlw	200
  3665     0D51  318C  2498  318D   	fcall	_OLED_Command
  3666                           
  3667                           ;OLED_SSD1306.c: 266:             break;
  3668     0D54  2D74               	goto	l128
  3669     0D55                     l2708:
  3670                           
  3671                           ;OLED_SSD1306.c: 269:             (void)OLED_Command(0xA0 | 0x01);
  3672     0D55  30A1               	movlw	161
  3673     0D56  318C  2498  318D   	fcall	_OLED_Command
  3674                           
  3675                           ;OLED_SSD1306.c: 270:             (void)OLED_Command(0xC0);
  3676     0D59  30C0               	movlw	192
  3677     0D5A  318C  2498  318D   	fcall	_OLED_Command
  3678                           
  3679                           ;OLED_SSD1306.c: 271:             break;
  3680     0D5D  2D74               	goto	l128
  3681     0D5E                     l2712:
  3682     0D5E  0879               	movf	OLED_SetOrientation@o,w
  3683     0D5F  00F7               	movwf	??_OLED_SetOrientation
  3684     0D60  01F8               	clrf	??_OLED_SetOrientation+1
  3685                           
  3686                           ; Switch on 2 bytes has been partitioned into a top level switch of size 1, and 1 sub-sw
      +                          itches
  3687                           ; Switch size 1, requested type "simple"
  3688                           ; Number of cases is 1, Range of values is 0 to 0
  3689                           ; switch strategies available:
  3690                           ; Name         Instructions Cycles
  3691                           ; simple_byte            4     3 (average)
  3692                           ; direct_byte            8     6 (fixed)
  3693                           ; jumptable            260     6 (fixed)
  3694                           ;	Chosen strategy is simple_byte
  3695     0D61  0878               	movf	??_OLED_SetOrientation+1,w
  3696     0D62  3A00               	xorlw	0	; case 0
  3697     0D63  1903               	skipnz
  3698     0D64  2D66               	goto	l3306
  3699     0D65  2D3A               	goto	l2702
  3700     0D66                     l3306:
  3701                           
  3702                           ; Switch size 1, requested type "simple"
  3703                           ; Number of cases is 4, Range of values is 0 to 3
  3704                           ; switch strategies available:
  3705                           ; Name         Instructions Cycles
  3706                           ; simple_byte           13     7 (average)
  3707                           ; direct_byte           14     6 (fixed)
  3708                           ; jumptable            260     6 (fixed)
  3709                           ;	Chosen strategy is simple_byte
  3710     0D66  0877               	movf	??_OLED_SetOrientation,w
  3711     0D67  3A00               	xorlw	0	; case 0
  3712     0D68  1903               	skipnz
  3713     0D69  2D3A               	goto	l2702
  3714     0D6A  3A01               	xorlw	1	; case 1
  3715     0D6B  1903               	skipnz
  3716     0D6C  2D43               	goto	l2704
  3717     0D6D  3A03               	xorlw	3	; case 2
  3718     0D6E  1903               	skipnz
  3719     0D6F  2D4C               	goto	l2706
  3720     0D70  3A01               	xorlw	1	; case 3
  3721     0D71  1903               	skipnz
  3722     0D72  2D55               	goto	l2708
  3723     0D73  2D3A               	goto	l2702
  3724     0D74                     l128:
  3725     0D74  0008               	return
  3726     0D75                     __end_of_OLED_SetOrientation:
  3727                           
  3728                           	psect	text5
  3729     03DC                     __ptext5:	
  3730 ;; *************** function _OLED_Printf_Line *****************
  3731 ;; Defined at:
  3732 ;;		line 424 in file "OLED_SSD1306.c"
  3733 ;; Parameters:    Size  Location     Type
  3734 ;;  line            1    wreg     unsigned char 
  3735 ;;  fmt             2    6[BANK0 ] PTR const unsigned char 
  3736 ;;		 -> STR_15(14), STR_12(8), STR_11(8), STR_10(13), 
  3737 ;; Auto vars:     Size  Location     Type
  3738 ;;  line            1   42[BANK1 ] unsigned char 
  3739 ;;  nibble          1   29[BANK1 ] unsigned char 
  3740 ;;  temp           11   35[BANK0 ] unsigned char [11]
  3741 ;;  val             4   36[BANK1 ] long 
  3742 ;;  i               1   33[BANK1 ] unsigned char 
  3743 ;;  temp           11   24[BANK0 ] unsigned char [11]
  3744 ;;  val             4   23[BANK1 ] unsigned long 
  3745 ;;  i               1   32[BANK1 ] unsigned char 
  3746 ;;  str             2   19[BANK1 ] PTR const unsigned char 
  3747 ;;		 -> STR_14(8), STR_13(8), STR_9(9), STR_8(9), 
  3748 ;;		 -> STR_7(9), STR_6(9), STR_5(9), STR_4(9), 
  3749 ;;		 -> STR_3(9), STR_2(9), STR_1(9), ?_OLED_Printf_Line(1), 
  3750 ;;  temp            5   12[BANK1 ] unsigned char [5]
  3751 ;;  val             2   17[BANK1 ] unsigned short 
  3752 ;;  i               1   35[BANK1 ] unsigned char 
  3753 ;;  temp            6    6[BANK1 ] unsigned char [6]
  3754 ;;  val             2   27[BANK1 ] unsigned short 
  3755 ;;  i               1   34[BANK1 ] unsigned char 
  3756 ;;  temp            6    0[BANK1 ] unsigned char [6]
  3757 ;;  val             2   40[BANK1 ] short 
  3758 ;;  i               1   31[BANK1 ] unsigned char 
  3759 ;;  ch              1   30[BANK1 ] unsigned char 
  3760 ;;  p               1   22[BANK1 ] PTR const unsigned char 
  3761 ;;		 -> OLED_Printf_Line@buf(32), 
  3762 ;;  buf            32   46[BANK0 ] unsigned char [32]
  3763 ;;  src             2   44[BANK1 ] PTR const unsigned char 
  3764 ;;		 -> STR_15(14), STR_12(8), STR_11(8), STR_10(13), 
  3765 ;;  dst             1   46[BANK1 ] PTR unsigned char 
  3766 ;;		 -> OLED_Printf_Line@buf(32), 
  3767 ;;  ap              1   43[BANK1 ] PTR void [1]
  3768 ;;		 -> ?_OLED_Printf_Line(1), 
  3769 ;;  col             1   21[BANK1 ] unsigned char 
  3770 ;; Return value:  Size  Location     Type
  3771 ;;                  1    wreg      void 
  3772 ;; Registers used:
  3773 ;;		wreg, fsr0l, fsr0h, fsr1l, fsr1h, status,2, status,0, pclath, cstack
  3774 ;; Tracked objects:
  3775 ;;		On entry : 0/0
  3776 ;;		On exit  : 0/0
  3777 ;;		Unchanged: 0/0
  3778 ;; Data sizes:     COMMON   BANK0   BANK1   BANK2   BANK3   BANK4   BANK5   BANK6   BANK7   BANK8   BANK9  BANK10  BANK1
      +1  BANK12  BANK13  BANK14  BANK15  BANK16  BANK17  BANK18  BANK19  BANK20  BANK21  BANK22  BANK23  BANK24  BANK25
  3779 ;;      Params:         0       6       0       0       0       0       0       0       0       0       0       0       
      +0       0       0       0       0       0       0       0       0       0       0       0       0       0       0
  3780 ;;      Locals:         0      56      47       0       0       0       0       0       0       0       0       0       
      +0       0       0       0       0       0       0       0       0       0       0       0       0       0       0
  3781 ;;      Temps:          0      12       0       0       0       0       0       0       0       0       0       0       
      +0       0       0       0       0       0       0       0       0       0       0       0       0       0       0
  3782 ;;      Totals:         0      74      47       0       0       0       0       0       0       0       0       0       
      +0       0       0       0       0       0       0       0       0       0       0       0       0       0       0
  3783 ;;Total ram usage:      121 bytes
  3784 ;; Hardware stack levels used: 1
  3785 ;; Hardware stack levels required when called: 5
  3786 ;; This function calls:
  3787 ;;		_OLED_UpdateLine
  3788 ;;		___aldiv
  3789 ;;		___almod
  3790 ;;		___awdiv
  3791 ;;		___awmod
  3792 ;;		___lldiv
  3793 ;;		___llmod
  3794 ;;		___lwdiv
  3795 ;;		___lwmod
  3796 ;;		_memcpy
  3797 ;;		_memset
  3798 ;;		_strcmp
  3799 ;;		_strcpy
  3800 ;; This function is called by:
  3801 ;;		_main
  3802 ;; This function uses a non-reentrant model
  3803 ;;
  3804                           
  3805     03DC                     _OLED_Printf_Line:	
  3806                           ;psect for function _OLED_Printf_Line
  3807                           
  3808                           
  3809                           ;incstack = 0
  3810                           ; Regs used in _OLED_Printf_Line: [wreg-fsr1h+status,2+status,0+pclath+cstack]
  3811                           ;OLED_Printf_Line@line stored from wreg
  3812     03DC  0021               	movlb	1	; select bank1
  3813     03DD  00CA               	movwf	OLED_Printf_Line@line^(0+128)
  3814     03DE                     l2774:
  3815                           
  3816                           ;OLED_SSD1306.c: 424: void OLED_Printf_Line(uint8_t line, const char* fmt, ...);OLED_SSD
      +                          1306.c: 425: {;OLED_SSD1306.c: 426:     static char last_text[8][32];;OLED_SSD1306.c: 42
      +                          7:     char buf[32];;OLED_SSD1306.c: 428:     char *dst = buf;
  3817     03DE  304E               	movlw	(low (OLED_Printf_Line@buf| 0))& (0+255)
  3818     03DF  00CE               	movwf	OLED_Printf_Line@dst^(0+128)
  3819                           
  3820                           ;OLED_SSD1306.c: 429:     const char *src = fmt;
  3821     03E0  0020               	movlb	0	; select bank0
  3822     03E1  0827               	movf	OLED_Printf_Line@fmt+1,w
  3823     03E2  0021               	movlb	1	; select bank1
  3824     03E3  00CD               	movwf	(OLED_Printf_Line@src+1)^(0+128)
  3825     03E4  0020               	movlb	0	; select bank0
  3826     03E5  0826               	movf	OLED_Printf_Line@fmt,w
  3827     03E6  0021               	movlb	1	; select bank1
  3828     03E7  00CC               	movwf	OLED_Printf_Line@src^(0+128)
  3829                           
  3830                           ;OLED_SSD1306.c: 431:     if (line >= (32 / 8)) return;
  3831     03E8  3004               	movlw	4
  3832     03E9  024A               	subwf	OLED_Printf_Line@line^(0+128),w
  3833     03EA  1C03               	skipc
  3834     03EB  2BED               	goto	u2721
  3835     03EC  2BEE               	goto	u2720
  3836     03ED                     u2721:
  3837     03ED  2BEF               	goto	l2778
  3838     03EE                     u2720:
  3839     03EE  2FF1               	goto	l166
  3840     03EF                     l2778:
  3841                           
  3842                           ;OLED_SSD1306.c: 433:     va_list ap;;OLED_SSD1306.c: 434:     *ap = __va_start();
  3843     03EF  3028               	movlw	(low ((?_OLED_Printf_Line| 0+2)))& (0+255)
  3844     03F0  00CB               	movwf	OLED_Printf_Line@ap^(0+128)
  3845                           
  3846                           ;OLED_SSD1306.c: 437:     while (*src && (dst - buf) < 31) {
  3847     03F1  2F01               	goto	l2978
  3848     03F2                     l2780:
  3849                           
  3850                           ;OLED_SSD1306.c: 438:         if (*src == '%') {
  3851     03F2  084C               	movf	OLED_Printf_Line@src^(0+128),w
  3852     03F3  0084               	movwf	4
  3853     03F4  084D               	movf	(OLED_Printf_Line@src+1)^(0+128),w
  3854     03F5  0085               	movwf	5
  3855     03F6  0012               	moviw fsr0++
  3856     03F7  3A25               	xorlw	37
  3857     03F8  1D03               	btfss	3,2
  3858     03F9  2BFB               	goto	u2731
  3859     03FA  2BFC               	goto	u2730
  3860     03FB                     u2731:
  3861     03FB  2EEE               	goto	l2972
  3862     03FC                     u2730:
  3863     03FC                     l2782:
  3864                           
  3865                           ;OLED_SSD1306.c: 439:             src++;
  3866     03FC  3001               	movlw	1
  3867     03FD  07CC               	addwf	OLED_Printf_Line@src^(0+128),f
  3868     03FE  3000               	movlw	0
  3869     03FF  3DCD               	addwfc	(OLED_Printf_Line@src+1)^(0+128),f
  3870                           
  3871                           ;OLED_SSD1306.c: 440:             switch (*src) {
  3872     0400  2ECE               	goto	l2968
  3873     0401                     l2784:
  3874                           
  3875                           ;OLED_SSD1306.c: 442:                     int16_t val = (*(int *)__va_arg(*(int **)ap, (
      +                          int)0));
  3876     0401  084B               	movf	OLED_Printf_Line@ap^(0+128),w
  3877     0402  0086               	movwf	6
  3878     0403  0187               	clrf	7
  3879     0404  3F40               	moviw [0]fsr1
  3880     0405  00C8               	movwf	OLED_Printf_Line@val^(0+128)
  3881     0406  3F41               	moviw [1]fsr1
  3882     0407  00C9               	movwf	(OLED_Printf_Line@val+1)^(0+128)
  3883     0408                     l2786:
  3884     0408  3002               	movlw	2
  3885     0409  0020               	movlb	0	; select bank0
  3886     040A  00AC               	movwf	??_OLED_Printf_Line
  3887     040B  082C               	movf	??_OLED_Printf_Line,w
  3888     040C  0021               	movlb	1	; select bank1
  3889     040D  07CB               	addwf	OLED_Printf_Line@ap^(0+128),f
  3890     040E                     l2788:
  3891                           
  3892                           ;OLED_SSD1306.c: 443:                     if (val < 0) {
  3893     040E  1FC9               	btfss	(OLED_Printf_Line@val+1)^(0+128),7
  3894     040F  2C11               	goto	u2741
  3895     0410  2C12               	goto	u2740
  3896     0411                     u2741:
  3897     0411  2C22               	goto	l2796
  3898     0412                     u2740:
  3899     0412                     l2790:
  3900                           
  3901                           ;OLED_SSD1306.c: 444:                         *dst++ = '-';
  3902     0412  084E               	movf	OLED_Printf_Line@dst^(0+128),w
  3903     0413  0086               	movwf	6
  3904     0414  0187               	clrf	7
  3905     0415  302D               	movlw	45
  3906     0416  0081               	movwf	1
  3907     0417                     l2792:
  3908     0417  3001               	movlw	1
  3909     0418  0020               	movlb	0	; select bank0
  3910     0419  00AC               	movwf	??_OLED_Printf_Line
  3911     041A  082C               	movf	??_OLED_Printf_Line,w
  3912     041B  0021               	movlb	1	; select bank1
  3913     041C  07CE               	addwf	OLED_Printf_Line@dst^(0+128),f
  3914     041D                     l2794:
  3915                           
  3916                           ;OLED_SSD1306.c: 445:                         val = -val;
  3917     041D  09C8               	comf	OLED_Printf_Line@val^(0+128),f
  3918     041E  09C9               	comf	(OLED_Printf_Line@val+1)^(0+128),f
  3919     041F  0AC8               	incf	OLED_Printf_Line@val^(0+128),f
  3920     0420  1903               	skipnz
  3921     0421  0AC9               	incf	(OLED_Printf_Line@val+1)^(0+128),f
  3922     0422                     l2796:
  3923                           
  3924                           ;OLED_SSD1306.c: 448:                     char temp[6];;OLED_SSD1306.c: 449:            
      +                                   uint8_t i = 0;
  3925     0422  01BF               	clrf	OLED_Printf_Line@i^(0+128)
  3926     0423                     l2798:
  3927                           
  3928                           ;OLED_SSD1306.c: 451:                         temp[i++] = '0' + (val % 10);
  3929     0423  083F               	movf	OLED_Printf_Line@i^(0+128),w
  3930     0424  3EA0               	addlw	(low (OLED_Printf_Line@temp| 0))& (0+255)
  3931     0425  0086               	movwf	6
  3932     0426  0187               	clrf	7
  3933     0427  300A               	movlw	10
  3934     0428  00F0               	movwf	___awmod@divisor
  3935     0429  3000               	movlw	0
  3936     042A  00F1               	movwf	___awmod@divisor+1
  3937     042B  0849               	movf	(OLED_Printf_Line@val+1)^(0+128),w
  3938     042C  00F3               	movwf	___awmod@dividend+1
  3939     042D  0848               	movf	OLED_Printf_Line@val^(0+128),w
  3940     042E  00F2               	movwf	___awmod@dividend
  3941     042F  318E  26F5  3183   	fcall	___awmod
  3942     0432  0870               	movf	?___awmod,w
  3943     0433  3E30               	addlw	48
  3944     0434  0081               	movwf	1
  3945     0435                     l2800:
  3946     0435  3001               	movlw	1
  3947     0436  0020               	movlb	0	; select bank0
  3948     0437  00AC               	movwf	??_OLED_Printf_Line
  3949     0438  082C               	movf	??_OLED_Printf_Line,w
  3950     0439  0021               	movlb	1	; select bank1
  3951     043A  07BF               	addwf	OLED_Printf_Line@i^(0+128),f
  3952     043B                     l2802:
  3953                           
  3954                           ;OLED_SSD1306.c: 452:                         val /= 10;
  3955     043B  300A               	movlw	10
  3956     043C  00F0               	movwf	___awdiv@divisor
  3957     043D  3000               	movlw	0
  3958     043E  00F1               	movwf	___awdiv@divisor+1
  3959     043F  0849               	movf	(OLED_Printf_Line@val+1)^(0+128),w
  3960     0440  00F3               	movwf	___awdiv@dividend+1
  3961     0441  0848               	movf	OLED_Printf_Line@val^(0+128),w
  3962     0442  00F2               	movwf	___awdiv@dividend
  3963     0443  3180  203C  3183   	fcall	___awdiv
  3964     0446  0871               	movf	?___awdiv+1,w
  3965     0447  0021               	movlb	1	; select bank1
  3966     0448  00C9               	movwf	(OLED_Printf_Line@val+1)^(0+128)
  3967     0449  0870               	movf	?___awdiv,w
  3968     044A  00C8               	movwf	OLED_Printf_Line@val^(0+128)
  3969     044B                     l2804:
  3970                           
  3971                           ;OLED_SSD1306.c: 453:                     } while (val && i < 6);
  3972     044B  0848               	movf	OLED_Printf_Line@val^(0+128),w
  3973     044C  0449               	iorwf	(OLED_Printf_Line@val+1)^(0+128),w
  3974     044D  1903               	btfsc	3,2
  3975     044E  2C50               	goto	u2751
  3976     044F  2C51               	goto	u2750
  3977     0450                     u2751:
  3978     0450  2C67               	goto	l2812
  3979     0451                     u2750:
  3980     0451                     l2806:
  3981     0451  3006               	movlw	6
  3982     0452  023F               	subwf	OLED_Printf_Line@i^(0+128),w
  3983     0453  1C03               	skipc
  3984     0454  2C56               	goto	u2761
  3985     0455  2C57               	goto	u2760
  3986     0456                     u2761:
  3987     0456  2C23               	goto	l2798
  3988     0457                     u2760:
  3989     0457  2C67               	goto	l2812
  3990     0458                     l2808:
  3991     0458  084E               	movf	OLED_Printf_Line@dst^(0+128),w
  3992     0459  0086               	movwf	6
  3993     045A  0187               	clrf	7
  3994     045B  083F               	movf	OLED_Printf_Line@i^(0+128),w
  3995     045C  3EA0               	addlw	(low (OLED_Printf_Line@temp| 0))& (0+255)
  3996     045D  0084               	movwf	4
  3997     045E  0185               	clrf	5
  3998     045F  0800               	movf	0,w
  3999     0460  0081               	movwf	1
  4000     0461                     l2810:
  4001     0461  3001               	movlw	1
  4002     0462  0020               	movlb	0	; select bank0
  4003     0463  00AC               	movwf	??_OLED_Printf_Line
  4004     0464  082C               	movf	??_OLED_Printf_Line,w
  4005     0465  0021               	movlb	1	; select bank1
  4006     0466  07CE               	addwf	OLED_Printf_Line@dst^(0+128),f
  4007     0467                     l2812:
  4008     0467  3001               	movlw	1
  4009     0468  02BF               	subwf	OLED_Printf_Line@i^(0+128),f
  4010     0469  0A3F               	incf	OLED_Printf_Line@i^(0+128),w
  4011     046A  1D03               	btfss	3,2
  4012     046B  2C6D               	goto	u2771
  4013     046C  2C6E               	goto	u2770
  4014     046D                     u2771:
  4015     046D  2C58               	goto	l2808
  4016     046E                     u2770:
  4017     046E  2EE9               	goto	l2970
  4018     046F                     l2814:
  4019                           
  4020                           ;OLED_SSD1306.c: 458:                     src++;
  4021     046F  3001               	movlw	1
  4022     0470  07CC               	addwf	OLED_Printf_Line@src^(0+128),f
  4023     0471  3000               	movlw	0
  4024     0472  3DCD               	addwfc	(OLED_Printf_Line@src+1)^(0+128),f
  4025     0473                     l2816:
  4026                           
  4027                           ;OLED_SSD1306.c: 459:                     if (*src == 'u') {
  4028     0473  084C               	movf	OLED_Printf_Line@src^(0+128),w
  4029     0474  0084               	movwf	4
  4030     0475  084D               	movf	(OLED_Printf_Line@src+1)^(0+128),w
  4031     0476  0085               	movwf	5
  4032     0477  0012               	moviw fsr0++
  4033     0478  3A75               	xorlw	117
  4034     0479  1D03               	btfss	3,2
  4035     047A  2C7C               	goto	u2781
  4036     047B  2C7D               	goto	u2780
  4037     047C                     u2781:
  4038     047C  2CF1               	goto	l2840
  4039     047D                     u2780:
  4040     047D                     l2818:
  4041                           
  4042                           ;OLED_SSD1306.c: 460:                         uint32_t val = (*(uint32_t *)__va_arg(*(ui
      +                          nt32_t **)ap, (uint32_t)0));
  4043     047D  084B               	movf	OLED_Printf_Line@ap^(0+128),w
  4044     047E  0086               	movwf	6
  4045     047F  0187               	clrf	7
  4046     0480  3F40               	moviw [0]fsr1
  4047     0481  00B7               	movwf	OLED_Printf_Line@val_350^(0+128)
  4048     0482  3F41               	moviw [1]fsr1
  4049     0483  00B8               	movwf	(OLED_Printf_Line@val_350+1)^(0+128)
  4050     0484  3F42               	moviw [2]fsr1
  4051     0485  00B9               	movwf	(OLED_Printf_Line@val_350+2)^(0+128)
  4052     0486  3F43               	moviw [3]fsr1
  4053     0487  00BA               	movwf	(OLED_Printf_Line@val_350+3)^(0+128)
  4054     0488                     l2820:
  4055     0488  3004               	movlw	4
  4056     0489  0020               	movlb	0	; select bank0
  4057     048A  00AC               	movwf	??_OLED_Printf_Line
  4058     048B  082C               	movf	??_OLED_Printf_Line,w
  4059     048C  0021               	movlb	1	; select bank1
  4060     048D  07CB               	addwf	OLED_Printf_Line@ap^(0+128),f
  4061     048E                     l2822:
  4062                           
  4063                           ;OLED_SSD1306.c: 461:                         char temp[11];;OLED_SSD1306.c: 462:       
      +                                            uint8_t i = 0;
  4064     048E  01C0               	clrf	OLED_Printf_Line@i_352^(0+128)
  4065     048F                     l2824:
  4066                           
  4067                           ;OLED_SSD1306.c: 464:                             temp[i++] = '0' + (val % 10);
  4068     048F  0840               	movf	OLED_Printf_Line@i_352^(0+128),w
  4069     0490  3E38               	addlw	(low (OLED_Printf_Line@temp_351| 0))& (0+255)
  4070     0491  0086               	movwf	6
  4071     0492  0187               	clrf	7
  4072     0493  3000               	movlw	0
  4073     0494  00F3               	movwf	___llmod@divisor+3
  4074     0495  3000               	movlw	0
  4075     0496  00F2               	movwf	___llmod@divisor+2
  4076     0497  3000               	movlw	0
  4077     0498  00F1               	movwf	___llmod@divisor+1
  4078     0499  300A               	movlw	10
  4079     049A  00F0               	movwf	___llmod@divisor
  4080     049B  083A               	movf	(OLED_Printf_Line@val_350+3)^(0+128),w
  4081     049C  00F7               	movwf	___llmod@dividend+3
  4082     049D  0839               	movf	(OLED_Printf_Line@val_350+2)^(0+128),w
  4083     049E  00F6               	movwf	___llmod@dividend+2
  4084     049F  0838               	movf	(OLED_Printf_Line@val_350+1)^(0+128),w
  4085     04A0  00F5               	movwf	___llmod@dividend+1
  4086     04A1  0837               	movf	OLED_Printf_Line@val_350^(0+128),w
  4087     04A2  00F4               	movwf	___llmod@dividend
  4088     04A3  318D  25BF  3183   	fcall	___llmod
  4089     04A6  0870               	movf	?___llmod,w
  4090     04A7  3E30               	addlw	48
  4091     04A8  0081               	movwf	1
  4092     04A9                     l2826:
  4093     04A9  3001               	movlw	1
  4094     04AA  0020               	movlb	0	; select bank0
  4095     04AB  00AC               	movwf	??_OLED_Printf_Line
  4096     04AC  082C               	movf	??_OLED_Printf_Line,w
  4097     04AD  0021               	movlb	1	; select bank1
  4098     04AE  07C0               	addwf	OLED_Printf_Line@i_352^(0+128),f
  4099     04AF                     l2828:
  4100                           
  4101                           ;OLED_SSD1306.c: 465:                             val /= 10;
  4102     04AF  3000               	movlw	0
  4103     04B0  00F3               	movwf	___lldiv@divisor+3
  4104     04B1  3000               	movlw	0
  4105     04B2  00F2               	movwf	___lldiv@divisor+2
  4106     04B3  3000               	movlw	0
  4107     04B4  00F1               	movwf	___lldiv@divisor+1
  4108     04B5  300A               	movlw	10
  4109     04B6  00F0               	movwf	___lldiv@divisor
  4110     04B7  083A               	movf	(OLED_Printf_Line@val_350+3)^(0+128),w
  4111     04B8  00F7               	movwf	___lldiv@dividend+3
  4112     04B9  0839               	movf	(OLED_Printf_Line@val_350+2)^(0+128),w
  4113     04BA  00F6               	movwf	___lldiv@dividend+2
  4114     04BB  0838               	movf	(OLED_Printf_Line@val_350+1)^(0+128),w
  4115     04BC  00F5               	movwf	___lldiv@dividend+1
  4116     04BD  0837               	movf	OLED_Printf_Line@val_350^(0+128),w
  4117     04BE  00F4               	movwf	___lldiv@dividend
  4118     04BF  318F  2748  3183   	fcall	___lldiv
  4119     04C2  0873               	movf	?___lldiv+3,w
  4120     04C3  0021               	movlb	1	; select bank1
  4121     04C4  00BA               	movwf	(OLED_Printf_Line@val_350+3)^(0+128)
  4122     04C5  0872               	movf	?___lldiv+2,w
  4123     04C6  00B9               	movwf	(OLED_Printf_Line@val_350+2)^(0+128)
  4124     04C7  0871               	movf	?___lldiv+1,w
  4125     04C8  00B8               	movwf	(OLED_Printf_Line@val_350+1)^(0+128)
  4126     04C9  0870               	movf	?___lldiv,w
  4127     04CA  00B7               	movwf	OLED_Printf_Line@val_350^(0+128)
  4128     04CB                     l2830:
  4129                           
  4130                           ;OLED_SSD1306.c: 466:                         } while (val && i < 11);
  4131     04CB  083A               	movf	(OLED_Printf_Line@val_350+3)^(0+128),w
  4132     04CC  0439               	iorwf	(OLED_Printf_Line@val_350+2)^(0+128),w
  4133     04CD  0438               	iorwf	(OLED_Printf_Line@val_350+1)^(0+128),w
  4134     04CE  0437               	iorwf	OLED_Printf_Line@val_350^(0+128),w
  4135     04CF  1903               	skipnz
  4136     04D0  2CD2               	goto	u2791
  4137     04D1  2CD3               	goto	u2790
  4138     04D2                     u2791:
  4139     04D2  2CE9               	goto	l2838
  4140     04D3                     u2790:
  4141     04D3                     l2832:
  4142     04D3  300B               	movlw	11
  4143     04D4  0240               	subwf	OLED_Printf_Line@i_352^(0+128),w
  4144     04D5  1C03               	skipc
  4145     04D6  2CD8               	goto	u2801
  4146     04D7  2CD9               	goto	u2800
  4147     04D8                     u2801:
  4148     04D8  2C8F               	goto	l2824
  4149     04D9                     u2800:
  4150     04D9  2CE9               	goto	l2838
  4151     04DA                     l2834:
  4152     04DA  084E               	movf	OLED_Printf_Line@dst^(0+128),w
  4153     04DB  0086               	movwf	6
  4154     04DC  0187               	clrf	7
  4155     04DD  0840               	movf	OLED_Printf_Line@i_352^(0+128),w
  4156     04DE  3E38               	addlw	(low (OLED_Printf_Line@temp_351| 0))& (0+255)
  4157     04DF  0084               	movwf	4
  4158     04E0  0185               	clrf	5
  4159     04E1  0800               	movf	0,w
  4160     04E2  0081               	movwf	1
  4161     04E3                     l2836:
  4162     04E3  3001               	movlw	1
  4163     04E4  0020               	movlb	0	; select bank0
  4164     04E5  00AC               	movwf	??_OLED_Printf_Line
  4165     04E6  082C               	movf	??_OLED_Printf_Line,w
  4166     04E7  0021               	movlb	1	; select bank1
  4167     04E8  07CE               	addwf	OLED_Printf_Line@dst^(0+128),f
  4168     04E9                     l2838:
  4169     04E9  3001               	movlw	1
  4170     04EA  02C0               	subwf	OLED_Printf_Line@i_352^(0+128),f
  4171     04EB  0A40               	incf	OLED_Printf_Line@i_352^(0+128),w
  4172     04EC  1D03               	btfss	3,2
  4173     04ED  2CEF               	goto	u2811
  4174     04EE  2CF0               	goto	u2810
  4175     04EF                     u2811:
  4176     04EF  2CDA               	goto	l2834
  4177     04F0                     u2810:
  4178     04F0  2DAE               	goto	l2882
  4179     04F1                     l2840:
  4180     04F1  084C               	movf	OLED_Printf_Line@src^(0+128),w
  4181     04F2  0084               	movwf	4
  4182     04F3  084D               	movf	(OLED_Printf_Line@src+1)^(0+128),w
  4183     04F4  0085               	movwf	5
  4184     04F5  0012               	moviw fsr0++
  4185     04F6  3A64               	xorlw	100
  4186     04F7  1D03               	btfss	3,2
  4187     04F8  2CFA               	goto	u2821
  4188     04F9  2CFB               	goto	u2820
  4189     04FA                     u2821:
  4190     04FA  2D89               	goto	l2872
  4191     04FB                     u2820:
  4192     04FB                     l2842:
  4193                           
  4194                           ;OLED_SSD1306.c: 469:                         int32_t val = (*(int32_t *)__va_arg(*(int3
      +                          2_t **)ap, (int32_t)0));
  4195     04FB  084B               	movf	OLED_Printf_Line@ap^(0+128),w
  4196     04FC  0086               	movwf	6
  4197     04FD  0187               	clrf	7
  4198     04FE  3F40               	moviw [0]fsr1
  4199     04FF  00C4               	movwf	OLED_Printf_Line@val_353^(0+128)
  4200     0500  3F41               	moviw [1]fsr1
  4201     0501  00C5               	movwf	(OLED_Printf_Line@val_353+1)^(0+128)
  4202     0502  3F42               	moviw [2]fsr1
  4203     0503  00C6               	movwf	(OLED_Printf_Line@val_353+2)^(0+128)
  4204     0504  3F43               	moviw [3]fsr1
  4205     0505  00C7               	movwf	(OLED_Printf_Line@val_353+3)^(0+128)
  4206     0506                     l2844:
  4207     0506  3004               	movlw	4
  4208     0507  0020               	movlb	0	; select bank0
  4209     0508  00AC               	movwf	??_OLED_Printf_Line
  4210     0509  082C               	movf	??_OLED_Printf_Line,w
  4211     050A  0021               	movlb	1	; select bank1
  4212     050B  07CB               	addwf	OLED_Printf_Line@ap^(0+128),f
  4213     050C                     l2846:
  4214                           
  4215                           ;OLED_SSD1306.c: 470:                         if (val < 0) {
  4216     050C  1FC7               	btfss	(OLED_Printf_Line@val_353+3)^(0+128),7
  4217     050D  2D0F               	goto	u2831
  4218     050E  2D10               	goto	u2830
  4219     050F                     u2831:
  4220     050F  2D26               	goto	l2854
  4221     0510                     u2830:
  4222     0510                     l2848:
  4223                           
  4224                           ;OLED_SSD1306.c: 471:                             *dst++ = '-';
  4225     0510  084E               	movf	OLED_Printf_Line@dst^(0+128),w
  4226     0511  0086               	movwf	6
  4227     0512  0187               	clrf	7
  4228     0513  302D               	movlw	45
  4229     0514  0081               	movwf	1
  4230     0515                     l2850:
  4231     0515  3001               	movlw	1
  4232     0516  0020               	movlb	0	; select bank0
  4233     0517  00AC               	movwf	??_OLED_Printf_Line
  4234     0518  082C               	movf	??_OLED_Printf_Line,w
  4235     0519  0021               	movlb	1	; select bank1
  4236     051A  07CE               	addwf	OLED_Printf_Line@dst^(0+128),f
  4237     051B                     l2852:
  4238                           
  4239                           ;OLED_SSD1306.c: 472:                             val = -val;
  4240     051B  09C4               	comf	OLED_Printf_Line@val_353^(0+128),f
  4241     051C  09C5               	comf	(OLED_Printf_Line@val_353+1)^(0+128),f
  4242     051D  09C6               	comf	(OLED_Printf_Line@val_353+2)^(0+128),f
  4243     051E  09C7               	comf	(OLED_Printf_Line@val_353+3)^(0+128),f
  4244     051F  0AC4               	incf	OLED_Printf_Line@val_353^(0+128),f
  4245     0520  1903               	skipnz
  4246     0521  0AC5               	incf	(OLED_Printf_Line@val_353+1)^(0+128),f
  4247     0522  1903               	skipnz
  4248     0523  0AC6               	incf	(OLED_Printf_Line@val_353+2)^(0+128),f
  4249     0524  1903               	skipnz
  4250     0525  0AC7               	incf	(OLED_Printf_Line@val_353+3)^(0+128),f
  4251     0526                     l2854:
  4252                           
  4253                           ;OLED_SSD1306.c: 474:                         char temp[11];;OLED_SSD1306.c: 475:       
      +                                            uint8_t i = 0;
  4254     0526  01C1               	clrf	OLED_Printf_Line@i_355^(0+128)
  4255     0527                     l2856:
  4256                           
  4257                           ;OLED_SSD1306.c: 477:                             temp[i++] = '0' + (val % 10);
  4258     0527  0841               	movf	OLED_Printf_Line@i_355^(0+128),w
  4259     0528  3E43               	addlw	(low (OLED_Printf_Line@temp_354| 0))& (0+255)
  4260     0529  0086               	movwf	6
  4261     052A  0187               	clrf	7
  4262     052B  3000               	movlw	0
  4263     052C  00F3               	movwf	___almod@divisor+3
  4264     052D  3000               	movlw	0
  4265     052E  00F2               	movwf	___almod@divisor+2
  4266     052F  3000               	movlw	0
  4267     0530  00F1               	movwf	___almod@divisor+1
  4268     0531  300A               	movlw	10
  4269     0532  00F0               	movwf	___almod@divisor
  4270     0533  0847               	movf	(OLED_Printf_Line@val_353+3)^(0+128),w
  4271     0534  00F7               	movwf	___almod@dividend+3
  4272     0535  0846               	movf	(OLED_Printf_Line@val_353+2)^(0+128),w
  4273     0536  00F6               	movwf	___almod@dividend+2
  4274     0537  0845               	movf	(OLED_Printf_Line@val_353+1)^(0+128),w
  4275     0538  00F5               	movwf	___almod@dividend+1
  4276     0539  0844               	movf	OLED_Printf_Line@val_353^(0+128),w
  4277     053A  00F4               	movwf	___almod@dividend
  4278     053B  3182  2243  3183   	fcall	___almod
  4279     053E  0870               	movf	?___almod,w
  4280     053F  3E30               	addlw	48
  4281     0540  0081               	movwf	1
  4282     0541                     l2858:
  4283     0541  3001               	movlw	1
  4284     0542  0020               	movlb	0	; select bank0
  4285     0543  00AC               	movwf	??_OLED_Printf_Line
  4286     0544  082C               	movf	??_OLED_Printf_Line,w
  4287     0545  0021               	movlb	1	; select bank1
  4288     0546  07C1               	addwf	OLED_Printf_Line@i_355^(0+128),f
  4289     0547                     l2860:
  4290                           
  4291                           ;OLED_SSD1306.c: 478:                             val /= 10;
  4292     0547  3000               	movlw	0
  4293     0548  00F3               	movwf	___aldiv@divisor+3
  4294     0549  3000               	movlw	0
  4295     054A  00F2               	movwf	___aldiv@divisor+2
  4296     054B  3000               	movlw	0
  4297     054C  00F1               	movwf	___aldiv@divisor+1
  4298     054D  300A               	movlw	10
  4299     054E  00F0               	movwf	___aldiv@divisor
  4300     054F  0847               	movf	(OLED_Printf_Line@val_353+3)^(0+128),w
  4301     0550  00F7               	movwf	___aldiv@dividend+3
  4302     0551  0846               	movf	(OLED_Printf_Line@val_353+2)^(0+128),w
  4303     0552  00F6               	movwf	___aldiv@dividend+2
  4304     0553  0845               	movf	(OLED_Printf_Line@val_353+1)^(0+128),w
  4305     0554  00F5               	movwf	___aldiv@dividend+1
  4306     0555  0844               	movf	OLED_Printf_Line@val_353^(0+128),w
  4307     0556  00F4               	movwf	___aldiv@dividend
  4308     0557  3183  234C  3183   	fcall	___aldiv
  4309     055A  0873               	movf	?___aldiv+3,w
  4310     055B  0021               	movlb	1	; select bank1
  4311     055C  00C7               	movwf	(OLED_Printf_Line@val_353+3)^(0+128)
  4312     055D  0872               	movf	?___aldiv+2,w
  4313     055E  00C6               	movwf	(OLED_Printf_Line@val_353+2)^(0+128)
  4314     055F  0871               	movf	?___aldiv+1,w
  4315     0560  00C5               	movwf	(OLED_Printf_Line@val_353+1)^(0+128)
  4316     0561  0870               	movf	?___aldiv,w
  4317     0562  00C4               	movwf	OLED_Printf_Line@val_353^(0+128)
  4318     0563                     l2862:
  4319                           
  4320                           ;OLED_SSD1306.c: 479:                         } while (val && i < 11);
  4321     0563  0847               	movf	(OLED_Printf_Line@val_353+3)^(0+128),w
  4322     0564  0446               	iorwf	(OLED_Printf_Line@val_353+2)^(0+128),w
  4323     0565  0445               	iorwf	(OLED_Printf_Line@val_353+1)^(0+128),w
  4324     0566  0444               	iorwf	OLED_Printf_Line@val_353^(0+128),w
  4325     0567  1903               	skipnz
  4326     0568  2D6A               	goto	u2841
  4327     0569  2D6B               	goto	u2840
  4328     056A                     u2841:
  4329     056A  2D81               	goto	l2870
  4330     056B                     u2840:
  4331     056B                     l2864:
  4332     056B  300B               	movlw	11
  4333     056C  0241               	subwf	OLED_Printf_Line@i_355^(0+128),w
  4334     056D  1C03               	skipc
  4335     056E  2D70               	goto	u2851
  4336     056F  2D71               	goto	u2850
  4337     0570                     u2851:
  4338     0570  2D27               	goto	l2856
  4339     0571                     u2850:
  4340     0571  2D81               	goto	l2870
  4341     0572                     l2866:
  4342     0572  084E               	movf	OLED_Printf_Line@dst^(0+128),w
  4343     0573  0086               	movwf	6
  4344     0574  0187               	clrf	7
  4345     0575  0841               	movf	OLED_Printf_Line@i_355^(0+128),w
  4346     0576  3E43               	addlw	(low (OLED_Printf_Line@temp_354| 0))& (0+255)
  4347     0577  0084               	movwf	4
  4348     0578  0185               	clrf	5
  4349     0579  0800               	movf	0,w
  4350     057A  0081               	movwf	1
  4351     057B                     l2868:
  4352     057B  3001               	movlw	1
  4353     057C  0020               	movlb	0	; select bank0
  4354     057D  00AC               	movwf	??_OLED_Printf_Line
  4355     057E  082C               	movf	??_OLED_Printf_Line,w
  4356     057F  0021               	movlb	1	; select bank1
  4357     0580  07CE               	addwf	OLED_Printf_Line@dst^(0+128),f
  4358     0581                     l2870:
  4359     0581  3001               	movlw	1
  4360     0582  02C1               	subwf	OLED_Printf_Line@i_355^(0+128),f
  4361     0583  0A41               	incf	OLED_Printf_Line@i_355^(0+128),w
  4362     0584  1D03               	btfss	3,2
  4363     0585  2D87               	goto	u2861
  4364     0586  2D88               	goto	u2860
  4365     0587                     u2861:
  4366     0587  2D72               	goto	l2866
  4367     0588                     u2860:
  4368     0588  2DAE               	goto	l2882
  4369     0589                     l2872:
  4370                           
  4371                           ;OLED_SSD1306.c: 483:                         *dst++ = '%';
  4372     0589  084E               	movf	OLED_Printf_Line@dst^(0+128),w
  4373     058A  0086               	movwf	6
  4374     058B  0187               	clrf	7
  4375     058C  3025               	movlw	37
  4376     058D  0081               	movwf	1
  4377     058E                     l2874:
  4378     058E  3001               	movlw	1
  4379     058F  0020               	movlb	0	; select bank0
  4380     0590  00AC               	movwf	??_OLED_Printf_Line
  4381     0591  082C               	movf	??_OLED_Printf_Line,w
  4382     0592  0021               	movlb	1	; select bank1
  4383     0593  07CE               	addwf	OLED_Printf_Line@dst^(0+128),f
  4384     0594                     l2876:
  4385                           
  4386                           ;OLED_SSD1306.c: 484:                         *dst++ = 'l';
  4387     0594  084E               	movf	OLED_Printf_Line@dst^(0+128),w
  4388     0595  0086               	movwf	6
  4389     0596  0187               	clrf	7
  4390     0597  306C               	movlw	108
  4391     0598  0081               	movwf	1
  4392     0599  3001               	movlw	1
  4393     059A  0020               	movlb	0	; select bank0
  4394     059B  00AC               	movwf	??_OLED_Printf_Line
  4395     059C  082C               	movf	??_OLED_Printf_Line,w
  4396     059D  0021               	movlb	1	; select bank1
  4397     059E  07CE               	addwf	OLED_Printf_Line@dst^(0+128),f
  4398     059F                     l2878:
  4399                           
  4400                           ;OLED_SSD1306.c: 485:                         *dst++ = *src;
  4401     059F  084E               	movf	OLED_Printf_Line@dst^(0+128),w
  4402     05A0  0086               	movwf	6
  4403     05A1  0187               	clrf	7
  4404     05A2  084C               	movf	OLED_Printf_Line@src^(0+128),w
  4405     05A3  0084               	movwf	4
  4406     05A4  084D               	movf	(OLED_Printf_Line@src+1)^(0+128),w
  4407     05A5  0085               	movwf	5
  4408     05A6  0800               	movf	0,w	;code access
  4409     05A7  0081               	movwf	1
  4410     05A8                     l2880:
  4411     05A8  3001               	movlw	1
  4412     05A9  0020               	movlb	0	; select bank0
  4413     05AA  00AC               	movwf	??_OLED_Printf_Line
  4414     05AB  082C               	movf	??_OLED_Printf_Line,w
  4415     05AC  0021               	movlb	1	; select bank1
  4416     05AD  07CE               	addwf	OLED_Printf_Line@dst^(0+128),f
  4417     05AE                     l2882:
  4418                           
  4419                           ;OLED_SSD1306.c: 487:                     src++;
  4420     05AE  3001               	movlw	1
  4421     05AF  07CC               	addwf	OLED_Printf_Line@src^(0+128),f
  4422     05B0  3000               	movlw	0
  4423     05B1  3DCD               	addwfc	(OLED_Printf_Line@src+1)^(0+128),f
  4424                           
  4425                           ;OLED_SSD1306.c: 488:                     break;
  4426     05B2  2EE9               	goto	l2970
  4427     05B3                     l2884:
  4428                           
  4429                           ;OLED_SSD1306.c: 491:                     uint16_t val = (*(unsigned int *)__va_arg(*(un
      +                          signed int **)ap, (unsigned int)0));
  4430     05B3  084B               	movf	OLED_Printf_Line@ap^(0+128),w
  4431     05B4  0086               	movwf	6
  4432     05B5  0187               	clrf	7
  4433     05B6  3F40               	moviw [0]fsr1
  4434     05B7  00BB               	movwf	OLED_Printf_Line@val_356^(0+128)
  4435     05B8  3F41               	moviw [1]fsr1
  4436     05B9  00BC               	movwf	(OLED_Printf_Line@val_356+1)^(0+128)
  4437     05BA                     l2886:
  4438     05BA  3002               	movlw	2
  4439     05BB  0020               	movlb	0	; select bank0
  4440     05BC  00AC               	movwf	??_OLED_Printf_Line
  4441     05BD  082C               	movf	??_OLED_Printf_Line,w
  4442     05BE  0021               	movlb	1	; select bank1
  4443     05BF  07CB               	addwf	OLED_Printf_Line@ap^(0+128),f
  4444     05C0                     l2888:
  4445                           
  4446                           ;OLED_SSD1306.c: 492:                     char temp[6];;OLED_SSD1306.c: 493:            
      +                                   uint8_t i = 0;
  4447     05C0  01C2               	clrf	OLED_Printf_Line@i_358^(0+128)
  4448     05C1                     l2890:
  4449                           
  4450                           ;OLED_SSD1306.c: 495:                         temp[i++] = '0' + (val % 10);
  4451     05C1  0842               	movf	OLED_Printf_Line@i_358^(0+128),w
  4452     05C2  3EA6               	addlw	(low (OLED_Printf_Line@temp_357| 0))& (0+255)
  4453     05C3  0086               	movwf	6
  4454     05C4  0187               	clrf	7
  4455     05C5  300A               	movlw	10
  4456     05C6  00F0               	movwf	___lwmod@divisor
  4457     05C7  3000               	movlw	0
  4458     05C8  00F1               	movwf	___lwmod@divisor+1
  4459     05C9  083C               	movf	(OLED_Printf_Line@val_356+1)^(0+128),w
  4460     05CA  00F3               	movwf	___lwmod@dividend+1
  4461     05CB  083B               	movf	OLED_Printf_Line@val_356^(0+128),w
  4462     05CC  00F2               	movwf	___lwmod@dividend
  4463     05CD  3180  2008  3183   	fcall	___lwmod
  4464     05D0  0870               	movf	?___lwmod,w
  4465     05D1  3E30               	addlw	48
  4466     05D2  0081               	movwf	1
  4467     05D3                     l2892:
  4468     05D3  3001               	movlw	1
  4469     05D4  0020               	movlb	0	; select bank0
  4470     05D5  00AC               	movwf	??_OLED_Printf_Line
  4471     05D6  082C               	movf	??_OLED_Printf_Line,w
  4472     05D7  0021               	movlb	1	; select bank1
  4473     05D8  07C2               	addwf	OLED_Printf_Line@i_358^(0+128),f
  4474     05D9                     l2894:
  4475                           
  4476                           ;OLED_SSD1306.c: 496:                         val /= 10;
  4477     05D9  300A               	movlw	10
  4478     05DA  00F0               	movwf	___lwdiv@divisor
  4479     05DB  3000               	movlw	0
  4480     05DC  00F1               	movwf	___lwdiv@divisor+1
  4481     05DD  083C               	movf	(OLED_Printf_Line@val_356+1)^(0+128),w
  4482     05DE  00F3               	movwf	___lwdiv@dividend+1
  4483     05DF  083B               	movf	OLED_Printf_Line@val_356^(0+128),w
  4484     05E0  00F2               	movwf	___lwdiv@dividend
  4485     05E1  318C  24F8  3183   	fcall	___lwdiv
  4486     05E4  0871               	movf	?___lwdiv+1,w
  4487     05E5  0021               	movlb	1	; select bank1
  4488     05E6  00BC               	movwf	(OLED_Printf_Line@val_356+1)^(0+128)
  4489     05E7  0870               	movf	?___lwdiv,w
  4490     05E8  00BB               	movwf	OLED_Printf_Line@val_356^(0+128)
  4491     05E9                     l2896:
  4492                           
  4493                           ;OLED_SSD1306.c: 497:                     } while (val && i < 6);
  4494     05E9  083B               	movf	OLED_Printf_Line@val_356^(0+128),w
  4495     05EA  043C               	iorwf	(OLED_Printf_Line@val_356+1)^(0+128),w
  4496     05EB  1903               	btfsc	3,2
  4497     05EC  2DEE               	goto	u2871
  4498     05ED  2DEF               	goto	u2870
  4499     05EE                     u2871:
  4500     05EE  2E05               	goto	l2904
  4501     05EF                     u2870:
  4502     05EF                     l2898:
  4503     05EF  3006               	movlw	6
  4504     05F0  0242               	subwf	OLED_Printf_Line@i_358^(0+128),w
  4505     05F1  1C03               	skipc
  4506     05F2  2DF4               	goto	u2881
  4507     05F3  2DF5               	goto	u2880
  4508     05F4                     u2881:
  4509     05F4  2DC1               	goto	l2890
  4510     05F5                     u2880:
  4511     05F5  2E05               	goto	l2904
  4512     05F6                     l2900:
  4513     05F6  084E               	movf	OLED_Printf_Line@dst^(0+128),w
  4514     05F7  0086               	movwf	6
  4515     05F8  0187               	clrf	7
  4516     05F9  0842               	movf	OLED_Printf_Line@i_358^(0+128),w
  4517     05FA  3EA6               	addlw	(low (OLED_Printf_Line@temp_357| 0))& (0+255)
  4518     05FB  0084               	movwf	4
  4519     05FC  0185               	clrf	5
  4520     05FD  0800               	movf	0,w
  4521     05FE  0081               	movwf	1
  4522     05FF                     l2902:
  4523     05FF  3001               	movlw	1
  4524     0600  0020               	movlb	0	; select bank0
  4525     0601  00AC               	movwf	??_OLED_Printf_Line
  4526     0602  082C               	movf	??_OLED_Printf_Line,w
  4527     0603  0021               	movlb	1	; select bank1
  4528     0604  07CE               	addwf	OLED_Printf_Line@dst^(0+128),f
  4529     0605                     l2904:
  4530     0605  3001               	movlw	1
  4531     0606  02C2               	subwf	OLED_Printf_Line@i_358^(0+128),f
  4532     0607  0A42               	incf	OLED_Printf_Line@i_358^(0+128),w
  4533     0608  1D03               	btfss	3,2
  4534     0609  2E0B               	goto	u2891
  4535     060A  2E0C               	goto	u2890
  4536     060B                     u2891:
  4537     060B  2DF6               	goto	l2900
  4538     060C                     u2890:
  4539     060C  2EE9               	goto	l2970
  4540     060D                     l2906:
  4541                           
  4542                           ;OLED_SSD1306.c: 502:                     uint16_t val = (*(unsigned int *)__va_arg(*(un
      +                          signed int **)ap, (unsigned int)0));
  4543     060D  084B               	movf	OLED_Printf_Line@ap^(0+128),w
  4544     060E  0086               	movwf	6
  4545     060F  0187               	clrf	7
  4546     0610  3F40               	moviw [0]fsr1
  4547     0611  00B1               	movwf	OLED_Printf_Line@val_359^(0+128)
  4548     0612  3F41               	moviw [1]fsr1
  4549     0613  00B2               	movwf	(OLED_Printf_Line@val_359+1)^(0+128)
  4550     0614                     l2908:
  4551     0614  3002               	movlw	2
  4552     0615  0020               	movlb	0	; select bank0
  4553     0616  00AC               	movwf	??_OLED_Printf_Line
  4554     0617  082C               	movf	??_OLED_Printf_Line,w
  4555     0618  0021               	movlb	1	; select bank1
  4556     0619  07CB               	addwf	OLED_Printf_Line@ap^(0+128),f
  4557     061A                     l2910:
  4558                           
  4559                           ;OLED_SSD1306.c: 503:                     char temp[5];;OLED_SSD1306.c: 504:            
      +                                   uint8_t i = 0;
  4560     061A  01C3               	clrf	OLED_Printf_Line@i_361^(0+128)
  4561     061B                     l2912:
  4562                           
  4563                           ;OLED_SSD1306.c: 506:                         uint8_t nibble = val & 0xF;
  4564     061B  0831               	movf	OLED_Printf_Line@val_359^(0+128),w
  4565     061C  390F               	andlw	15
  4566     061D  00BD               	movwf	OLED_Printf_Line@nibble^(0+128)
  4567     061E                     l2914:
  4568                           
  4569                           ;OLED_SSD1306.c: 507:                         temp[i++] = (nibble < 10) ? ('0' + nibble)
      +                           : ('A' + nibble - 10);
  4570     061E  300A               	movlw	10
  4571     061F  023D               	subwf	OLED_Printf_Line@nibble^(0+128),w
  4572     0620  1C03               	skipc
  4573     0621  2E23               	goto	u2901
  4574     0622  2E24               	goto	u2900
  4575     0623                     u2901:
  4576     0623  2E2D               	goto	l2918
  4577     0624                     u2900:
  4578     0624                     l2916:
  4579     0624  083D               	movf	OLED_Printf_Line@nibble^(0+128),w
  4580     0625  3E37               	addlw	55
  4581     0626  0020               	movlb	0	; select bank0
  4582     0627  00EE               	movwf	_OLED_Printf_Line$363
  4583     0628  3000               	movlw	0
  4584     0629  1803               	skipnc
  4585     062A  3001               	movlw	1
  4586     062B  00EF               	movwf	_OLED_Printf_Line$363+1
  4587     062C  2E35               	goto	l2920
  4588     062D                     l2918:
  4589     062D  083D               	movf	OLED_Printf_Line@nibble^(0+128),w
  4590     062E  3E30               	addlw	48
  4591     062F  0020               	movlb	0	; select bank0
  4592     0630  00EE               	movwf	_OLED_Printf_Line$363
  4593     0631  3000               	movlw	0
  4594     0632  1803               	skipnc
  4595     0633  3001               	movlw	1
  4596     0634  00EF               	movwf	_OLED_Printf_Line$363+1
  4597     0635                     l2920:
  4598     0635  0021               	movlb	1	; select bank1
  4599     0636  0843               	movf	OLED_Printf_Line@i_361^(0+128),w
  4600     0637  3EAC               	addlw	(low (OLED_Printf_Line@temp_360| 0))& (0+255)
  4601     0638  0086               	movwf	6
  4602     0639  0187               	clrf	7
  4603     063A  0020               	movlb	0	; select bank0
  4604     063B  086E               	movf	_OLED_Printf_Line$363,w
  4605     063C  0081               	movwf	1
  4606     063D                     l2922:
  4607     063D  3001               	movlw	1
  4608     063E  00AC               	movwf	??_OLED_Printf_Line
  4609     063F  082C               	movf	??_OLED_Printf_Line,w
  4610     0640  0021               	movlb	1	; select bank1
  4611     0641  07C3               	addwf	OLED_Printf_Line@i_361^(0+128),f
  4612     0642                     l2924:
  4613                           
  4614                           ;OLED_SSD1306.c: 508:                         val >>= 4;
  4615     0642  3004               	movlw	4
  4616     0643                     u2915:
  4617     0643  36B2               	lsrf	(OLED_Printf_Line@val_359+1)^(0+128),f
  4618     0644  0CB1               	rrf	OLED_Printf_Line@val_359^(0+128),f
  4619     0645  0B89               	decfsz	9,f
  4620     0646  2E43               	goto	u2915
  4621     0647                     l2926:
  4622                           
  4623                           ;OLED_SSD1306.c: 509:                     } while (val && i < 5);
  4624     0647  0831               	movf	OLED_Printf_Line@val_359^(0+128),w
  4625     0648  0432               	iorwf	(OLED_Printf_Line@val_359+1)^(0+128),w
  4626     0649  1903               	btfsc	3,2
  4627     064A  2E4C               	goto	u2921
  4628     064B  2E4D               	goto	u2920
  4629     064C                     u2921:
  4630     064C  2E63               	goto	l2934
  4631     064D                     u2920:
  4632     064D                     l2928:
  4633     064D  3005               	movlw	5
  4634     064E  0243               	subwf	OLED_Printf_Line@i_361^(0+128),w
  4635     064F  1C03               	skipc
  4636     0650  2E52               	goto	u2931
  4637     0651  2E53               	goto	u2930
  4638     0652                     u2931:
  4639     0652  2E1B               	goto	l2912
  4640     0653                     u2930:
  4641     0653  2E63               	goto	l2934
  4642     0654                     l2930:
  4643     0654  084E               	movf	OLED_Printf_Line@dst^(0+128),w
  4644     0655  0086               	movwf	6
  4645     0656  0187               	clrf	7
  4646     0657  0843               	movf	OLED_Printf_Line@i_361^(0+128),w
  4647     0658  3EAC               	addlw	(low (OLED_Printf_Line@temp_360| 0))& (0+255)
  4648     0659  0084               	movwf	4
  4649     065A  0185               	clrf	5
  4650     065B  0800               	movf	0,w
  4651     065C  0081               	movwf	1
  4652     065D                     l2932:
  4653     065D  3001               	movlw	1
  4654     065E  0020               	movlb	0	; select bank0
  4655     065F  00AC               	movwf	??_OLED_Printf_Line
  4656     0660  082C               	movf	??_OLED_Printf_Line,w
  4657     0661  0021               	movlb	1	; select bank1
  4658     0662  07CE               	addwf	OLED_Printf_Line@dst^(0+128),f
  4659     0663                     l2934:
  4660     0663  3001               	movlw	1
  4661     0664  02C3               	subwf	OLED_Printf_Line@i_361^(0+128),f
  4662     0665  0A43               	incf	OLED_Printf_Line@i_361^(0+128),w
  4663     0666  1D03               	btfss	3,2
  4664     0667  2E69               	goto	u2941
  4665     0668  2E6A               	goto	u2940
  4666     0669                     u2941:
  4667     0669  2E54               	goto	l2930
  4668     066A                     u2940:
  4669     066A  2EE9               	goto	l2970
  4670     066B                     l2936:
  4671                           
  4672                           ;OLED_SSD1306.c: 514:                     const char *str = (*(const char* *)__va_arg(*(
      +                          const char* **)ap, (const char*)0));
  4673     066B  084B               	movf	OLED_Printf_Line@ap^(0+128),w
  4674     066C  0086               	movwf	6
  4675     066D  0187               	clrf	7
  4676     066E  3F40               	moviw [0]fsr1
  4677     066F  00B3               	movwf	OLED_Printf_Line@str^(0+128)
  4678     0670  3F41               	moviw [1]fsr1
  4679     0671  00B4               	movwf	(OLED_Printf_Line@str+1)^(0+128)
  4680     0672                     l2938:
  4681     0672  3002               	movlw	2
  4682     0673  0020               	movlb	0	; select bank0
  4683     0674  00AC               	movwf	??_OLED_Printf_Line
  4684     0675  082C               	movf	??_OLED_Printf_Line,w
  4685     0676  0021               	movlb	1	; select bank1
  4686     0677  07CB               	addwf	OLED_Printf_Line@ap^(0+128),f
  4687                           
  4688                           ;OLED_SSD1306.c: 515:                     while (*str && (dst - buf) < 31) {
  4689     0678  2E8C               	goto	l2946
  4690     0679                     l2940:
  4691                           
  4692                           ;OLED_SSD1306.c: 516:                         *dst++ = *str++;
  4693     0679  084E               	movf	OLED_Printf_Line@dst^(0+128),w
  4694     067A  0086               	movwf	6
  4695     067B  0187               	clrf	7
  4696     067C  0833               	movf	OLED_Printf_Line@str^(0+128),w
  4697     067D  0084               	movwf	4
  4698     067E  0834               	movf	(OLED_Printf_Line@str+1)^(0+128),w
  4699     067F  0085               	movwf	5
  4700     0680  0800               	movf	0,w	;code access
  4701     0681  0081               	movwf	1
  4702     0682                     l2942:
  4703     0682  3001               	movlw	1
  4704     0683  07B3               	addwf	OLED_Printf_Line@str^(0+128),f
  4705     0684  3000               	movlw	0
  4706     0685  3DB4               	addwfc	(OLED_Printf_Line@str+1)^(0+128),f
  4707     0686                     l2944:
  4708     0686  3001               	movlw	1
  4709     0687  0020               	movlb	0	; select bank0
  4710     0688  00AC               	movwf	??_OLED_Printf_Line
  4711     0689  082C               	movf	??_OLED_Printf_Line,w
  4712     068A  0021               	movlb	1	; select bank1
  4713     068B  07CE               	addwf	OLED_Printf_Line@dst^(0+128),f
  4714     068C                     l2946:
  4715                           
  4716                           ;OLED_SSD1306.c: 515:                     while (*str && (dst - buf) < 31) {
  4717     068C  0833               	movf	OLED_Printf_Line@str^(0+128),w
  4718     068D  0084               	movwf	4
  4719     068E  0834               	movf	(OLED_Printf_Line@str+1)^(0+128),w
  4720     068F  0085               	movwf	5
  4721     0690  0012               	moviw fsr0++
  4722     0691  1903               	btfsc	3,2
  4723     0692  2E94               	goto	u2951
  4724     0693  2E95               	goto	u2950
  4725     0694                     u2951:
  4726     0694  2EE9               	goto	l2970
  4727     0695                     u2950:
  4728     0695                     l2948:
  4729     0695  304E               	movlw	(low OLED_Printf_Line@buf)& (0+255)
  4730     0696  024E               	subwf	OLED_Printf_Line@dst^(0+128),w
  4731     0697  3A80               	xorlw	128
  4732     0698  3E61               	addlw	-159
  4733     0699  1C03               	skipc
  4734     069A  2E9C               	goto	u2961
  4735     069B  2E9D               	goto	u2960
  4736     069C                     u2961:
  4737     069C  2E79               	goto	l2940
  4738     069D                     u2960:
  4739     069D  2EE9               	goto	l2970
  4740     069E                     l2950:
  4741                           
  4742                           ;OLED_SSD1306.c: 521:                     *dst++ = (char)(*(int *)__va_arg(*(int **)ap, 
      +                          (int)0));
  4743     069E  084E               	movf	OLED_Printf_Line@dst^(0+128),w
  4744     069F  0086               	movwf	6
  4745     06A0  0187               	clrf	7
  4746     06A1  084B               	movf	OLED_Printf_Line@ap^(0+128),w
  4747     06A2  0084               	movwf	4
  4748     06A3  0185               	clrf	5
  4749     06A4  0800               	movf	0,w
  4750     06A5  0081               	movwf	1
  4751     06A6                     l2952:
  4752     06A6  3002               	movlw	2
  4753     06A7  0020               	movlb	0	; select bank0
  4754     06A8  00AC               	movwf	??_OLED_Printf_Line
  4755     06A9  082C               	movf	??_OLED_Printf_Line,w
  4756     06AA  0021               	movlb	1	; select bank1
  4757     06AB  07CB               	addwf	OLED_Printf_Line@ap^(0+128),f
  4758     06AC                     l2954:
  4759     06AC  3001               	movlw	1
  4760     06AD  0020               	movlb	0	; select bank0
  4761     06AE  00AC               	movwf	??_OLED_Printf_Line
  4762     06AF  082C               	movf	??_OLED_Printf_Line,w
  4763     06B0  0021               	movlb	1	; select bank1
  4764     06B1  07CE               	addwf	OLED_Printf_Line@dst^(0+128),f
  4765                           
  4766                           ;OLED_SSD1306.c: 522:                     break;
  4767     06B2  2EE9               	goto	l2970
  4768     06B3                     l2956:
  4769                           
  4770                           ;OLED_SSD1306.c: 525:                     *dst++ = '%';
  4771     06B3  084E               	movf	OLED_Printf_Line@dst^(0+128),w
  4772     06B4  0086               	movwf	6
  4773     06B5  0187               	clrf	7
  4774     06B6  3025               	movlw	37
  4775     06B7  0081               	movwf	1
  4776     06B8  2EAC               	goto	l2954
  4777     06B9                     l2960:
  4778                           
  4779                           ;OLED_SSD1306.c: 529:                     *dst++ = '%';
  4780     06B9  084E               	movf	OLED_Printf_Line@dst^(0+128),w
  4781     06BA  0086               	movwf	6
  4782     06BB  0187               	clrf	7
  4783     06BC  3025               	movlw	37
  4784     06BD  0081               	movwf	1
  4785     06BE                     l2962:
  4786     06BE  3001               	movlw	1
  4787     06BF  0020               	movlb	0	; select bank0
  4788     06C0  00AC               	movwf	??_OLED_Printf_Line
  4789     06C1  082C               	movf	??_OLED_Printf_Line,w
  4790     06C2  0021               	movlb	1	; select bank1
  4791     06C3  07CE               	addwf	OLED_Printf_Line@dst^(0+128),f
  4792     06C4                     l2964:
  4793                           
  4794                           ;OLED_SSD1306.c: 530:                     *dst++ = *src;
  4795     06C4  084E               	movf	OLED_Printf_Line@dst^(0+128),w
  4796     06C5  0086               	movwf	6
  4797     06C6  0187               	clrf	7
  4798     06C7  084C               	movf	OLED_Printf_Line@src^(0+128),w
  4799     06C8  0084               	movwf	4
  4800     06C9  084D               	movf	(OLED_Printf_Line@src+1)^(0+128),w
  4801     06CA  0085               	movwf	5
  4802     06CB  0800               	movf	0,w	;code access
  4803     06CC  0081               	movwf	1
  4804     06CD  2EAC               	goto	l2954
  4805     06CE                     l2968:
  4806     06CE  084C               	movf	OLED_Printf_Line@src^(0+128),w
  4807     06CF  0084               	movwf	4
  4808     06D0  084D               	movf	(OLED_Printf_Line@src+1)^(0+128),w
  4809     06D1  0085               	movwf	5
  4810     06D2  0800               	movf	0,w	;code access
  4811                           
  4812                           ; Switch size 1, requested type "simple"
  4813                           ; Number of cases is 7, Range of values is 37 to 120
  4814                           ; switch strategies available:
  4815                           ; Name         Instructions Cycles
  4816                           ; simple_byte           22    12 (average)
  4817                           ; direct_byte          177     9 (fixed)
  4818                           ; jumptable            263     9 (fixed)
  4819                           ;	Chosen strategy is simple_byte
  4820     06D3  3A25               	xorlw	37	; case 37
  4821     06D4  1903               	skipnz
  4822     06D5  2EB3               	goto	l2956
  4823     06D6  3A46               	xorlw	70	; case 99
  4824     06D7  1903               	skipnz
  4825     06D8  2E9E               	goto	l2950
  4826     06D9  3A07               	xorlw	7	; case 100
  4827     06DA  1903               	skipnz
  4828     06DB  2C01               	goto	l2784
  4829     06DC  3A08               	xorlw	8	; case 108
  4830     06DD  1903               	skipnz
  4831     06DE  2C6F               	goto	l2814
  4832     06DF  3A1F               	xorlw	31	; case 115
  4833     06E0  1903               	skipnz
  4834     06E1  2E6B               	goto	l2936
  4835     06E2  3A06               	xorlw	6	; case 117
  4836     06E3  1903               	skipnz
  4837     06E4  2DB3               	goto	l2884
  4838     06E5  3A0D               	xorlw	13	; case 120
  4839     06E6  1903               	skipnz
  4840     06E7  2E0D               	goto	l2906
  4841     06E8  2EB9               	goto	l2960
  4842     06E9                     l2970:
  4843                           
  4844                           ;OLED_SSD1306.c: 532:             src++;
  4845     06E9  3001               	movlw	1
  4846     06EA  07CC               	addwf	OLED_Printf_Line@src^(0+128),f
  4847     06EB  3000               	movlw	0
  4848     06EC  3DCD               	addwfc	(OLED_Printf_Line@src+1)^(0+128),f
  4849                           
  4850                           ;OLED_SSD1306.c: 533:         } else {
  4851     06ED  2F01               	goto	l2978
  4852     06EE                     l2972:
  4853                           
  4854                           ;OLED_SSD1306.c: 534:             *dst++ = *src++;
  4855     06EE  084E               	movf	OLED_Printf_Line@dst^(0+128),w
  4856     06EF  0086               	movwf	6
  4857     06F0  0187               	clrf	7
  4858     06F1  084C               	movf	OLED_Printf_Line@src^(0+128),w
  4859     06F2  0084               	movwf	4
  4860     06F3  084D               	movf	(OLED_Printf_Line@src+1)^(0+128),w
  4861     06F4  0085               	movwf	5
  4862     06F5  0800               	movf	0,w	;code access
  4863     06F6  0081               	movwf	1
  4864     06F7                     l2974:
  4865     06F7  3001               	movlw	1
  4866     06F8  07CC               	addwf	OLED_Printf_Line@src^(0+128),f
  4867     06F9  3000               	movlw	0
  4868     06FA  3DCD               	addwfc	(OLED_Printf_Line@src+1)^(0+128),f
  4869     06FB                     l2976:
  4870     06FB  3001               	movlw	1
  4871     06FC  0020               	movlb	0	; select bank0
  4872     06FD  00AC               	movwf	??_OLED_Printf_Line
  4873     06FE  082C               	movf	??_OLED_Printf_Line,w
  4874     06FF  0021               	movlb	1	; select bank1
  4875     0700  07CE               	addwf	OLED_Printf_Line@dst^(0+128),f
  4876     0701                     l2978:
  4877                           
  4878                           ;OLED_SSD1306.c: 437:     while (*src && (dst - buf) < 31) {
  4879     0701  084C               	movf	OLED_Printf_Line@src^(0+128),w
  4880     0702  0084               	movwf	4
  4881     0703  084D               	movf	(OLED_Printf_Line@src+1)^(0+128),w
  4882     0704  0085               	movwf	5
  4883     0705  0012               	moviw fsr0++
  4884     0706  1903               	btfsc	3,2
  4885     0707  2F09               	goto	u2971
  4886     0708  2F0A               	goto	u2970
  4887     0709                     u2971:
  4888     0709  2F12               	goto	l2982
  4889     070A                     u2970:
  4890     070A                     l2980:
  4891     070A  304E               	movlw	(low OLED_Printf_Line@buf)& (0+255)
  4892     070B  024E               	subwf	OLED_Printf_Line@dst^(0+128),w
  4893     070C  3A80               	xorlw	128
  4894     070D  3E61               	addlw	-159
  4895     070E  1C03               	skipc
  4896     070F  2F11               	goto	u2981
  4897     0710  2F12               	goto	u2980
  4898     0711                     u2981:
  4899     0711  2BF2               	goto	l2780
  4900     0712                     u2980:
  4901     0712                     l2982:
  4902                           
  4903                           ;OLED_SSD1306.c: 537:     *dst = '\0';
  4904     0712  084E               	movf	OLED_Printf_Line@dst^(0+128),w
  4905     0713  0086               	movwf	6
  4906     0714  0187               	clrf	7
  4907     0715  0181               	clrf	1
  4908     0716                     l2984:
  4909                           
  4910                           ;OLED_SSD1306.c: 541:     if (strcmp(buf, last_text[line]) == 0) return;
  4911     0716  084A               	movf	OLED_Printf_Line@line^(0+128),w
  4912     0717  0020               	movlb	0	; select bank0
  4913     0718  00AC               	movwf	??_OLED_Printf_Line
  4914     0719  01AD               	clrf	??_OLED_Printf_Line+1
  4915     071A  3005               	movlw	5
  4916     071B                     u2995:
  4917     071B  35AC               	lslf	??_OLED_Printf_Line,f
  4918     071C  0DAD               	rlf	??_OLED_Printf_Line+1,f
  4919     071D  0B89               	decfsz	9,f
  4920     071E  2F1B               	goto	u2995
  4921     071F  30F0               	movlw	240
  4922     0720  00AE               	movwf	??_OLED_Printf_Line+2
  4923     0721  3026               	movlw	38
  4924     0722  00AF               	movwf	??_OLED_Printf_Line+3
  4925     0723  082C               	movf	??_OLED_Printf_Line,w
  4926     0724  072E               	addwf	??_OLED_Printf_Line+2,w
  4927     0725  00B0               	movwf	??_OLED_Printf_Line+4
  4928     0726  082D               	movf	??_OLED_Printf_Line+1,w
  4929     0727  3D2F               	addwfc	??_OLED_Printf_Line+3,w
  4930     0728  00B1               	movwf	??_OLED_Printf_Line+5
  4931     0729  0830               	movf	??_OLED_Printf_Line+4,w
  4932     072A  00F0               	movwf	strcmp@r
  4933     072B  0831               	movf	??_OLED_Printf_Line+5,w
  4934     072C  00F1               	movwf	strcmp@r+1
  4935     072D  304E               	movlw	(low (OLED_Printf_Line@buf| 0))& (0+255)
  4936     072E  318C  246B  3183   	fcall	_strcmp
  4937     0731  0870               	movf	?_strcmp,w
  4938     0732  0471               	iorwf	?_strcmp+1,w
  4939     0733  1D03               	btfss	3,2
  4940     0734  2F36               	goto	u3001
  4941     0735  2F37               	goto	u3000
  4942     0736                     u3001:
  4943     0736  2F38               	goto	l2988
  4944     0737                     u3000:
  4945     0737  2FF1               	goto	l166
  4946     0738                     l2988:
  4947                           
  4948                           ;OLED_SSD1306.c: 542:     strcpy(last_text[line], buf);
  4949     0738  0021               	movlb	1	; select bank1
  4950     0739  084A               	movf	OLED_Printf_Line@line^(0+128),w
  4951     073A  0020               	movlb	0	; select bank0
  4952     073B  00AC               	movwf	??_OLED_Printf_Line
  4953     073C  01AD               	clrf	??_OLED_Printf_Line+1
  4954     073D  3005               	movlw	5
  4955     073E                     u3015:
  4956     073E  35AC               	lslf	??_OLED_Printf_Line,f
  4957     073F  0DAD               	rlf	??_OLED_Printf_Line+1,f
  4958     0740  0B89               	decfsz	9,f
  4959     0741  2F3E               	goto	u3015
  4960     0742  30F0               	movlw	240
  4961     0743  00AE               	movwf	??_OLED_Printf_Line+2
  4962     0744  3026               	movlw	38
  4963     0745  00AF               	movwf	??_OLED_Printf_Line+3
  4964     0746  082C               	movf	??_OLED_Printf_Line,w
  4965     0747  072E               	addwf	??_OLED_Printf_Line+2,w
  4966     0748  00F0               	movwf	strcpy@dest
  4967     0749  082D               	movf	??_OLED_Printf_Line+1,w
  4968     074A  3D2F               	addwfc	??_OLED_Printf_Line+3,w
  4969     074B  00F1               	movwf	strcpy@dest+1
  4970     074C  304E               	movlw	(low (OLED_Printf_Line@buf| 0))& (0+255)
  4971     074D  00F2               	movwf	strcpy@src
  4972     074E  318B  2332  3183   	fcall	_strcpy
  4973     0751                     l2990:
  4974                           
  4975                           ;OLED_SSD1306.c: 545:     memset(screen_buffer[line], 0, 128);
  4976     0751  0021               	movlb	1	; select bank1
  4977     0752  084A               	movf	OLED_Printf_Line@line^(0+128),w
  4978     0753  0020               	movlb	0	; select bank0
  4979     0754  00AC               	movwf	??_OLED_Printf_Line
  4980     0755  01AD               	clrf	??_OLED_Printf_Line+1
  4981     0756  3007               	movlw	7
  4982     0757                     u3025:
  4983     0757  35AC               	lslf	??_OLED_Printf_Line,f
  4984     0758  0DAD               	rlf	??_OLED_Printf_Line+1,f
  4985     0759  0B89               	decfsz	9,f
  4986     075A  2F57               	goto	u3025
  4987     075B  30F0               	movlw	240
  4988     075C  00AE               	movwf	??_OLED_Printf_Line+2
  4989     075D  3024               	movlw	36
  4990     075E  00AF               	movwf	??_OLED_Printf_Line+3
  4991     075F  082C               	movf	??_OLED_Printf_Line,w
  4992     0760  072E               	addwf	??_OLED_Printf_Line+2,w
  4993     0761  00F0               	movwf	memset@dest
  4994     0762  082D               	movf	??_OLED_Printf_Line+1,w
  4995     0763  3D2F               	addwfc	??_OLED_Printf_Line+3,w
  4996     0764  00F1               	movwf	memset@dest+1
  4997     0765  3000               	movlw	0
  4998     0766  00F2               	movwf	memset@c
  4999     0767  00F3               	movwf	memset@c+1
  5000     0768  3080               	movlw	128
  5001     0769  00F4               	movwf	memset@n
  5002     076A  3000               	movlw	0
  5003     076B  00F5               	movwf	memset@n+1
  5004     076C  318B  234D  3183   	fcall	_memset
  5005     076F                     l2992:
  5006                           
  5007                           ;OLED_SSD1306.c: 548:     uint8_t col = 0;
  5008     076F  0021               	movlb	1	; select bank1
  5009     0770  01B5               	clrf	OLED_Printf_Line@col^(0+128)
  5010     0771                     l2994:
  5011                           
  5012                           ;OLED_SSD1306.c: 549:     for (const char* p = buf; *p && (col + 8) <= 128; ++p)
  5013     0771  304E               	movlw	(low (OLED_Printf_Line@buf| 0))& (0+255)
  5014     0772  00B6               	movwf	OLED_Printf_Line@p^(0+128)
  5015     0773  2FCF               	goto	l3010
  5016     0774                     l2996:
  5017                           
  5018                           ;OLED_SSD1306.c: 550:     {;OLED_SSD1306.c: 551:         char ch = *p;
  5019     0774  0021               	movlb	1	; select bank1
  5020     0775  0836               	movf	OLED_Printf_Line@p^(0+128),w
  5021     0776  0086               	movwf	6
  5022     0777  0187               	clrf	7
  5023     0778  0801               	movf	1,w
  5024     0779  00BE               	movwf	OLED_Printf_Line@ch^(0+128)
  5025     077A                     l2998:
  5026                           
  5027                           ;OLED_SSD1306.c: 552:         if (ch < 32 || ch > 127) ch = ' ';
  5028     077A  3020               	movlw	32
  5029     077B  023E               	subwf	OLED_Printf_Line@ch^(0+128),w
  5030     077C  1C03               	skipc
  5031     077D  2F7F               	goto	u3031
  5032     077E  2F80               	goto	u3030
  5033     077F                     u3031:
  5034     077F  2F86               	goto	l3002
  5035     0780                     u3030:
  5036     0780                     l3000:
  5037     0780  3080               	movlw	128
  5038     0781  023E               	subwf	OLED_Printf_Line@ch^(0+128),w
  5039     0782  1C03               	skipc
  5040     0783  2F85               	goto	u3041
  5041     0784  2F86               	goto	u3040
  5042     0785                     u3041:
  5043     0785  2F88               	goto	l3004
  5044     0786                     u3040:
  5045     0786                     l3002:
  5046     0786  3020               	movlw	32
  5047     0787  00BE               	movwf	OLED_Printf_Line@ch^(0+128)
  5048     0788                     l3004:
  5049                           
  5050                           ;OLED_SSD1306.c: 554:         memcpy(&screen_buffer[line][col], &OledFont[(uint8_t)(ch -
      +                           32)][0], 8);
  5051     0788  0835               	movf	OLED_Printf_Line@col^(0+128),w
  5052     0789  0020               	movlb	0	; select bank0
  5053     078A  00AC               	movwf	??_OLED_Printf_Line
  5054     078B  01AD               	clrf	??_OLED_Printf_Line+1
  5055     078C  0021               	movlb	1	; select bank1
  5056     078D  084A               	movf	OLED_Printf_Line@line^(0+128),w
  5057     078E  0020               	movlb	0	; select bank0
  5058     078F  00AE               	movwf	??_OLED_Printf_Line+2
  5059     0790  01AF               	clrf	??_OLED_Printf_Line+3
  5060     0791  3007               	movlw	7
  5061     0792                     u3055:
  5062     0792  35AE               	lslf	??_OLED_Printf_Line+2,f
  5063     0793  0DAF               	rlf	??_OLED_Printf_Line+3,f
  5064     0794  0B89               	decfsz	9,f
  5065     0795  2F92               	goto	u3055
  5066     0796  30F0               	movlw	240
  5067     0797  00B0               	movwf	??_OLED_Printf_Line+4
  5068     0798  3024               	movlw	36
  5069     0799  00B1               	movwf	??_OLED_Printf_Line+5
  5070     079A  082E               	movf	??_OLED_Printf_Line+2,w
  5071     079B  0730               	addwf	??_OLED_Printf_Line+4,w
  5072     079C  00B2               	movwf	??_OLED_Printf_Line+6
  5073     079D  082F               	movf	??_OLED_Printf_Line+3,w
  5074     079E  3D31               	addwfc	??_OLED_Printf_Line+5,w
  5075     079F  00B3               	movwf	??_OLED_Printf_Line+7
  5076     07A0  082C               	movf	??_OLED_Printf_Line,w
  5077     07A1  0732               	addwf	??_OLED_Printf_Line+6,w
  5078     07A2  00F0               	movwf	memcpy@d1
  5079     07A3  082D               	movf	??_OLED_Printf_Line+1,w
  5080     07A4  3D33               	addwfc	??_OLED_Printf_Line+7,w
  5081     07A5  00F1               	movwf	memcpy@d1+1
  5082     07A6  0021               	movlb	1	; select bank1
  5083     07A7  083E               	movf	OLED_Printf_Line@ch^(0+128),w
  5084     07A8  3EE0               	addlw	224
  5085     07A9  0020               	movlb	0	; select bank0
  5086     07AA  00B4               	movwf	??_OLED_Printf_Line+8
  5087     07AB  01B5               	clrf	??_OLED_Printf_Line+9
  5088     07AC  35B4               	lslf	??_OLED_Printf_Line+8,f
  5089     07AD  0DB5               	rlf	??_OLED_Printf_Line+9,f
  5090     07AE  35B4               	lslf	??_OLED_Printf_Line+8,f
  5091     07AF  0DB5               	rlf	??_OLED_Printf_Line+9,f
  5092     07B0  35B4               	lslf	??_OLED_Printf_Line+8,f
  5093     07B1  0DB5               	rlf	??_OLED_Printf_Line+9,f
  5094     07B2  3000               	movlw	low (_OledFont| (0+32768))
  5095     07B3  00B6               	movwf	??_OLED_Printf_Line+10
  5096     07B4  3088               	movlw	high (_OledFont| (0+32768))
  5097     07B5  00B7               	movwf	??_OLED_Printf_Line+11
  5098     07B6  0834               	movf	??_OLED_Printf_Line+8,w
  5099     07B7  0736               	addwf	??_OLED_Printf_Line+10,w
  5100     07B8  00F2               	movwf	memcpy@s1
  5101     07B9  0835               	movf	??_OLED_Printf_Line+9,w
  5102     07BA  3D37               	addwfc	??_OLED_Printf_Line+11,w
  5103     07BB  00F3               	movwf	memcpy@s1+1
  5104     07BC  3008               	movlw	8
  5105     07BD  00F4               	movwf	memcpy@n
  5106     07BE  3000               	movlw	0
  5107     07BF  00F5               	movwf	memcpy@n+1
  5108     07C0  318C  2415  3183   	fcall	_memcpy
  5109     07C3                     l3006:
  5110                           
  5111                           ;OLED_SSD1306.c: 555:         col += 8;
  5112     07C3  3008               	movlw	8
  5113     07C4  0020               	movlb	0	; select bank0
  5114     07C5  00AC               	movwf	??_OLED_Printf_Line
  5115     07C6  082C               	movf	??_OLED_Printf_Line,w
  5116     07C7  0021               	movlb	1	; select bank1
  5117     07C8  07B5               	addwf	OLED_Printf_Line@col^(0+128),f
  5118     07C9                     l3008:
  5119                           
  5120                           ;OLED_SSD1306.c: 556:     }
  5121     07C9  3001               	movlw	1
  5122     07CA  0020               	movlb	0	; select bank0
  5123     07CB  00AC               	movwf	??_OLED_Printf_Line
  5124     07CC  082C               	movf	??_OLED_Printf_Line,w
  5125     07CD  0021               	movlb	1	; select bank1
  5126     07CE  07B6               	addwf	OLED_Printf_Line@p^(0+128),f
  5127     07CF                     l3010:
  5128     07CF  0836               	movf	OLED_Printf_Line@p^(0+128),w
  5129     07D0  0086               	movwf	6
  5130     07D1  0187               	clrf	7
  5131     07D2  0801               	movf	1,w
  5132     07D3  1903               	btfsc	3,2
  5133     07D4  2FD6               	goto	u3061
  5134     07D5  2FD7               	goto	u3060
  5135     07D6                     u3061:
  5136     07D6  2FEC               	goto	l3014
  5137     07D7                     u3060:
  5138     07D7                     l3012:
  5139     07D7  0835               	movf	OLED_Printf_Line@col^(0+128),w
  5140     07D8  3E08               	addlw	8
  5141     07D9  0020               	movlb	0	; select bank0
  5142     07DA  00AC               	movwf	??_OLED_Printf_Line
  5143     07DB  3000               	movlw	0
  5144     07DC  1803               	skipnc
  5145     07DD  3001               	movlw	1
  5146     07DE  00AD               	movwf	??_OLED_Printf_Line+1
  5147     07DF  082D               	movf	??_OLED_Printf_Line+1,w
  5148     07E0  3A80               	xorlw	128
  5149     07E1  00AE               	movwf	??_OLED_Printf_Line+2
  5150     07E2  3080               	movlw	128
  5151     07E3  022E               	subwf	??_OLED_Printf_Line+2,w
  5152     07E4  1D03               	skipz
  5153     07E5  2FE8               	goto	u3075
  5154     07E6  3081               	movlw	129
  5155     07E7  022C               	subwf	??_OLED_Printf_Line,w
  5156     07E8                     u3075:
  5157     07E8  1C03               	skipc
  5158     07E9  2FEB               	goto	u3071
  5159     07EA  2FEC               	goto	u3070
  5160     07EB                     u3071:
  5161     07EB  2F74               	goto	l2996
  5162     07EC                     u3070:
  5163     07EC                     l3014:
  5164                           
  5165                           ;OLED_SSD1306.c: 558:     OLED_UpdateLine(line);
  5166     07EC  0021               	movlb	1	; select bank1
  5167     07ED  084A               	movf	OLED_Printf_Line@line^(0+128),w
  5168     07EE  318C  243F  3183   	fcall	_OLED_UpdateLine
  5169     07F1                     l166:
  5170     07F1  0008               	return
  5171     07F2                     __end_of_OLED_Printf_Line:
  5172                           
  5173                           	psect	text6
  5174     0B32                     __ptext6:	
  5175 ;; *************** function _strcpy *****************
  5176 ;; Defined at:
  5177 ;;		line 3 in file "C:\Program Files\Microchip\xc8\v2.46\pic\sources\c99\common\strcpy.c"
  5178 ;; Parameters:    Size  Location     Type
  5179 ;;  dest            2    0[COMMON] PTR unsigned char 
  5180 ;;		 -> OLED_Printf_Line@last_text(256), 
  5181 ;;  src             1    2[COMMON] PTR const unsigned char 
  5182 ;;		 -> OLED_Printf_Line@buf(32), 
  5183 ;; Auto vars:     Size  Location     Type
  5184 ;;  d               2    5[COMMON] PTR unsigned char 
  5185 ;;		 -> OLED_Printf_Line@last_text(256), 
  5186 ;; Return value:  Size  Location     Type
  5187 ;;                  2    0[COMMON] PTR unsigned char 
  5188 ;; Registers used:
  5189 ;;		wreg, fsr0l, fsr0h, fsr1l, fsr1h, status,2, status,0
  5190 ;; Tracked objects:
  5191 ;;		On entry : 0/0
  5192 ;;		On exit  : 0/0
  5193 ;;		Unchanged: 0/0
  5194 ;; Data sizes:     COMMON   BANK0   BANK1   BANK2   BANK3   BANK4   BANK5   BANK6   BANK7   BANK8   BANK9  BANK10  BANK1
      +1  BANK12  BANK13  BANK14  BANK15  BANK16  BANK17  BANK18  BANK19  BANK20  BANK21  BANK22  BANK23  BANK24  BANK25
  5195 ;;      Params:         3       0       0       0       0       0       0       0       0       0       0       0       
      +0       0       0       0       0       0       0       0       0       0       0       0       0       0       0
  5196 ;;      Locals:         2       0       0       0       0       0       0       0       0       0       0       0       
      +0       0       0       0       0       0       0       0       0       0       0       0       0       0       0
  5197 ;;      Temps:          2       0       0       0       0       0       0       0       0       0       0       0       
      +0       0       0       0       0       0       0       0       0       0       0       0       0       0       0
  5198 ;;      Totals:         7       0       0       0       0       0       0       0       0       0       0       0       
      +0       0       0       0       0       0       0       0       0       0       0       0       0       0       0
  5199 ;;Total ram usage:        7 bytes
  5200 ;; Hardware stack levels used: 1
  5201 ;; This function calls:
  5202 ;;		Nothing
  5203 ;; This function is called by:
  5204 ;;		_OLED_Printf_Line
  5205 ;; This function uses a non-reentrant model
  5206 ;;
  5207                           
  5208     0B32                     _strcpy:	
  5209                           ;psect for function _strcpy
  5210                           
  5211     0B32                     l2396:	
  5212                           ;incstack = 0
  5213                           ; Regs used in _strcpy: [wreg-fsr1h+status,2+status,0]
  5214                           
  5215     0B32  0871               	movf	strcpy@dest+1,w
  5216     0B33  00F6               	movwf	strcpy@d+1
  5217     0B34  0870               	movf	strcpy@dest,w
  5218     0B35  00F5               	movwf	strcpy@d
  5219     0B36                     l2398:
  5220     0B36  0876               	movf	strcpy@d+1,w
  5221     0B37  00F4               	movwf	??_strcpy+1
  5222     0B38  0875               	movf	strcpy@d,w
  5223     0B39  00F3               	movwf	??_strcpy
  5224     0B3A  0AF5               	incf	strcpy@d,f
  5225     0B3B  1903               	skipnz
  5226     0B3C  0AF6               	incf	strcpy@d+1,f
  5227     0B3D  0873               	movf	??_strcpy,w
  5228     0B3E  0086               	movwf	6
  5229     0B3F  0874               	movf	??_strcpy+1,w
  5230     0B40  0087               	movwf	7
  5231     0B41  0872               	movf	strcpy@src,w
  5232     0B42  0084               	movwf	4
  5233     0B43  0185               	clrf	5
  5234     0B44  0AF2               	incf	strcpy@src,f
  5235     0B45  0800               	movf	0,w
  5236     0B46  3FC0               	movwi [0]fsr1
  5237     0B47  0889               	movf	9,f
  5238     0B48  1D03               	btfss	3,2
  5239     0B49  2B4B               	goto	u2061
  5240     0B4A  2B4C               	goto	u2060
  5241     0B4B                     u2061:
  5242     0B4B  2B36               	goto	l2398
  5243     0B4C                     u2060:
  5244     0B4C                     l978:
  5245     0B4C  0008               	return
  5246     0B4D                     __end_of_strcpy:
  5247                           
  5248                           	psect	text7
  5249     0C6B                     __ptext7:	
  5250 ;; *************** function _strcmp *****************
  5251 ;; Defined at:
  5252 ;;		line 3 in file "C:\Program Files\Microchip\xc8\v2.46\pic\sources\c99\common\strcmp.c"
  5253 ;; Parameters:    Size  Location     Type
  5254 ;;  l               1    wreg     PTR const unsigned char 
  5255 ;;		 -> OLED_Printf_Line@buf(32), 
  5256 ;;  r               2    0[COMMON] PTR const unsigned char 
  5257 ;;		 -> OLED_Printf_Line@last_text(256), 
  5258 ;; Auto vars:     Size  Location     Type
  5259 ;;  l               1    3[COMMON] PTR const unsigned char 
  5260 ;;		 -> OLED_Printf_Line@buf(32), 
  5261 ;; Return value:  Size  Location     Type
  5262 ;;                  2    0[COMMON] int 
  5263 ;; Registers used:
  5264 ;;		wreg, fsr0l, fsr0h, fsr1l, fsr1h, status,2, status,0
  5265 ;; Tracked objects:
  5266 ;;		On entry : 0/0
  5267 ;;		On exit  : 0/0
  5268 ;;		Unchanged: 0/0
  5269 ;; Data sizes:     COMMON   BANK0   BANK1   BANK2   BANK3   BANK4   BANK5   BANK6   BANK7   BANK8   BANK9  BANK10  BANK1
      +1  BANK12  BANK13  BANK14  BANK15  BANK16  BANK17  BANK18  BANK19  BANK20  BANK21  BANK22  BANK23  BANK24  BANK25
  5270 ;;      Params:         2       0       0       0       0       0       0       0       0       0       0       0       
      +0       0       0       0       0       0       0       0       0       0       0       0       0       0       0
  5271 ;;      Locals:         1       0       0       0       0       0       0       0       0       0       0       0       
      +0       0       0       0       0       0       0       0       0       0       0       0       0       0       0
  5272 ;;      Temps:          1       0       0       0       0       0       0       0       0       0       0       0       
      +0       0       0       0       0       0       0       0       0       0       0       0       0       0       0
  5273 ;;      Totals:         4       0       0       0       0       0       0       0       0       0       0       0       
      +0       0       0       0       0       0       0       0       0       0       0       0       0       0       0
  5274 ;;Total ram usage:        4 bytes
  5275 ;; Hardware stack levels used: 1
  5276 ;; This function calls:
  5277 ;;		Nothing
  5278 ;; This function is called by:
  5279 ;;		_OLED_Printf_Line
  5280 ;; This function uses a non-reentrant model
  5281 ;;
  5282                           
  5283     0C6B                     _strcmp:	
  5284                           ;psect for function _strcmp
  5285                           
  5286                           
  5287                           ;incstack = 0
  5288                           ; Regs used in _strcmp: [wreg-fsr1h+status,2+status,0]
  5289                           ;strcmp@l stored from wreg
  5290     0C6B  00F3               	movwf	strcmp@l
  5291     0C6C                     l2384:
  5292     0C6C  2C75               	goto	l2388
  5293     0C6D                     l2386:
  5294     0C6D  3001               	movlw	1
  5295     0C6E  00F2               	movwf	??_strcmp
  5296     0C6F  0872               	movf	??_strcmp,w
  5297     0C70  07F3               	addwf	strcmp@l,f
  5298     0C71  3001               	movlw	1
  5299     0C72  07F0               	addwf	strcmp@r,f
  5300     0C73  3000               	movlw	0
  5301     0C74  3DF1               	addwfc	strcmp@r+1,f
  5302     0C75                     l2388:
  5303     0C75  0870               	movf	strcmp@r,w
  5304     0C76  0086               	movwf	6
  5305     0C77  0871               	movf	strcmp@r+1,w
  5306     0C78  0087               	movwf	7
  5307     0C79  0873               	movf	strcmp@l,w
  5308     0C7A  0084               	movwf	4
  5309     0C7B  0185               	clrf	5
  5310     0C7C  0800               	movf	0,w
  5311     0C7D  0601               	xorwf	1,w
  5312     0C7E  1D03               	skipz
  5313     0C7F  2C81               	goto	u2041
  5314     0C80  2C82               	goto	u2040
  5315     0C81                     u2041:
  5316     0C81  2C8A               	goto	l2392
  5317     0C82                     u2040:
  5318     0C82                     l2390:
  5319     0C82  0873               	movf	strcmp@l,w
  5320     0C83  0086               	movwf	6
  5321     0C84  0187               	clrf	7
  5322     0C85  0801               	movf	1,w
  5323     0C86  1D03               	btfss	3,2
  5324     0C87  2C89               	goto	u2051
  5325     0C88  2C8A               	goto	u2050
  5326     0C89                     u2051:
  5327     0C89  2C6D               	goto	l2386
  5328     0C8A                     u2050:
  5329     0C8A                     l2392:
  5330     0C8A  0873               	movf	strcmp@l,w
  5331     0C8B  0086               	movwf	6
  5332     0C8C  0187               	clrf	7
  5333     0C8D  0870               	movf	strcmp@r,w
  5334     0C8E  0084               	movwf	4
  5335     0C8F  0871               	movf	strcmp@r+1,w
  5336     0C90  0085               	movwf	5
  5337     0C91  0800               	movf	0,w
  5338     0C92  0201               	subwf	1,w
  5339     0C93  00F0               	movwf	?_strcmp
  5340     0C94  01F1               	clrf	?_strcmp+1
  5341     0C95  1C03               	skipc
  5342     0C96  03F1               	decf	?_strcmp+1,f
  5343     0C97                     l972:
  5344     0C97  0008               	return
  5345     0C98                     __end_of_strcmp:
  5346                           
  5347                           	psect	text8
  5348     0C15                     __ptext8:	
  5349 ;; *************** function _memcpy *****************
  5350 ;; Defined at:
  5351 ;;		line 4 in file "C:\Program Files\Microchip\xc8\v2.46\pic\sources\c99\common\memcpy.c"
  5352 ;; Parameters:    Size  Location     Type
  5353 ;;  d1              2    0[COMMON] PTR void 
  5354 ;;		 -> screen_buffer(512), 
  5355 ;;  s1              2    2[COMMON] PTR const void 
  5356 ;;		 -> OledFont(768), 
  5357 ;;  n               2    4[COMMON] unsigned int 
  5358 ;; Auto vars:     Size  Location     Type
  5359 ;;  s               2    8[COMMON] PTR const unsigned char 
  5360 ;;		 -> OledFont(768), 
  5361 ;;  d               2    6[COMMON] PTR unsigned char 
  5362 ;;		 -> screen_buffer(512), 
  5363 ;;  tmp             1   10[COMMON] unsigned char 
  5364 ;; Return value:  Size  Location     Type
  5365 ;;                  2    0[COMMON] PTR void 
  5366 ;; Registers used:
  5367 ;;		wreg, fsr0l, fsr0h, fsr1l, fsr1h, status,2, status,0, pclath
  5368 ;; Tracked objects:
  5369 ;;		On entry : 0/0
  5370 ;;		On exit  : 0/0
  5371 ;;		Unchanged: 0/0
  5372 ;; Data sizes:     COMMON   BANK0   BANK1   BANK2   BANK3   BANK4   BANK5   BANK6   BANK7   BANK8   BANK9  BANK10  BANK1
      +1  BANK12  BANK13  BANK14  BANK15  BANK16  BANK17  BANK18  BANK19  BANK20  BANK21  BANK22  BANK23  BANK24  BANK25
  5373 ;;      Params:         6       0       0       0       0       0       0       0       0       0       0       0       
      +0       0       0       0       0       0       0       0       0       0       0       0       0       0       0
  5374 ;;      Locals:         5       0       0       0       0       0       0       0       0       0       0       0       
      +0       0       0       0       0       0       0       0       0       0       0       0       0       0       0
  5375 ;;      Temps:          0       0       0       0       0       0       0       0       0       0       0       0       
      +0       0       0       0       0       0       0       0       0       0       0       0       0       0       0
  5376 ;;      Totals:        11       0       0       0       0       0       0       0       0       0       0       0       
      +0       0       0       0       0       0       0       0       0       0       0       0       0       0       0
  5377 ;;Total ram usage:       11 bytes
  5378 ;; Hardware stack levels used: 1
  5379 ;; This function calls:
  5380 ;;		Nothing
  5381 ;; This function is called by:
  5382 ;;		_OLED_Printf_Line
  5383 ;; This function uses a non-reentrant model
  5384 ;;
  5385                           
  5386     0C15                     _memcpy:	
  5387                           ;psect for function _memcpy
  5388                           
  5389     0C15                     l2400:	
  5390                           ;incstack = 0
  5391                           ; Regs used in _memcpy: [wreg-fsr1h+status,2+status,0+pclath]
  5392                           
  5393     0C15  0873               	movf	memcpy@s1+1,w
  5394     0C16  00F9               	movwf	memcpy@s+1
  5395     0C17  0872               	movf	memcpy@s1,w
  5396     0C18  00F8               	movwf	memcpy@s
  5397     0C19  0871               	movf	memcpy@d1+1,w
  5398     0C1A  00F7               	movwf	memcpy@d+1
  5399     0C1B  0870               	movf	memcpy@d1,w
  5400     0C1C  00F6               	movwf	memcpy@d
  5401     0C1D  2C32               	goto	l2410
  5402     0C1E                     l2402:
  5403     0C1E  0878               	movf	memcpy@s,w
  5404     0C1F  0084               	movwf	4
  5405     0C20  0879               	movf	memcpy@s+1,w
  5406     0C21  0085               	movwf	5
  5407     0C22  0800               	movf	0,w	;code access
  5408     0C23  00FA               	movwf	memcpy@tmp
  5409     0C24                     l2404:
  5410     0C24  3001               	movlw	1
  5411     0C25  07F8               	addwf	memcpy@s,f
  5412     0C26  3000               	movlw	0
  5413     0C27  3DF9               	addwfc	memcpy@s+1,f
  5414     0C28                     l2406:
  5415     0C28  0876               	movf	memcpy@d,w
  5416     0C29  0086               	movwf	6
  5417     0C2A  0877               	movf	memcpy@d+1,w
  5418     0C2B  0087               	movwf	7
  5419     0C2C  087A               	movf	memcpy@tmp,w
  5420     0C2D  0081               	movwf	1
  5421     0C2E                     l2408:
  5422     0C2E  3001               	movlw	1
  5423     0C2F  07F6               	addwf	memcpy@d,f
  5424     0C30  3000               	movlw	0
  5425     0C31  3DF7               	addwfc	memcpy@d+1,f
  5426     0C32                     l2410:
  5427     0C32  3001               	movlw	1
  5428     0C33  02F4               	subwf	memcpy@n,f
  5429     0C34  3000               	movlw	0
  5430     0C35  3BF5               	subwfb	memcpy@n+1,f
  5431     0C36  0A74               	incf	memcpy@n,w
  5432     0C37  1D03               	skipz
  5433     0C38  2C3D               	goto	u2071
  5434     0C39  0A75               	incf	memcpy@n+1,w
  5435     0C3A  1D03               	btfss	3,2
  5436     0C3B  2C3D               	goto	u2071
  5437     0C3C  2C3E               	goto	u2070
  5438     0C3D                     u2071:
  5439     0C3D  2C1E               	goto	l2402
  5440     0C3E                     u2070:
  5441     0C3E                     l958:
  5442     0C3E  0008               	return
  5443     0C3F                     __end_of_memcpy:
  5444                           
  5445                           	psect	text9
  5446     0008                     __ptext9:	
  5447 ;; *************** function ___lwmod *****************
  5448 ;; Defined at:
  5449 ;;		line 5 in file "C:\Program Files\Microchip\xc8\v2.46\pic\sources\c99\common\lwmod.c"
  5450 ;; Parameters:    Size  Location     Type
  5451 ;;  divisor         2    0[COMMON] unsigned int 
  5452 ;;  dividend        2    2[COMMON] unsigned int 
  5453 ;; Auto vars:     Size  Location     Type
  5454 ;;  counter         1    5[COMMON] unsigned char 
  5455 ;; Return value:  Size  Location     Type
  5456 ;;                  2    0[COMMON] unsigned int 
  5457 ;; Registers used:
  5458 ;;		wreg, status,2, status,0
  5459 ;; Tracked objects:
  5460 ;;		On entry : 0/0
  5461 ;;		On exit  : 0/0
  5462 ;;		Unchanged: 0/0
  5463 ;; Data sizes:     COMMON   BANK0   BANK1   BANK2   BANK3   BANK4   BANK5   BANK6   BANK7   BANK8   BANK9  BANK10  BANK1
      +1  BANK12  BANK13  BANK14  BANK15  BANK16  BANK17  BANK18  BANK19  BANK20  BANK21  BANK22  BANK23  BANK24  BANK25
  5464 ;;      Params:         4       0       0       0       0       0       0       0       0       0       0       0       
      +0       0       0       0       0       0       0       0       0       0       0       0       0       0       0
  5465 ;;      Locals:         1       0       0       0       0       0       0       0       0       0       0       0       
      +0       0       0       0       0       0       0       0       0       0       0       0       0       0       0
  5466 ;;      Temps:          1       0       0       0       0       0       0       0       0       0       0       0       
      +0       0       0       0       0       0       0       0       0       0       0       0       0       0       0
  5467 ;;      Totals:         6       0       0       0       0       0       0       0       0       0       0       0       
      +0       0       0       0       0       0       0       0       0       0       0       0       0       0       0
  5468 ;;Total ram usage:        6 bytes
  5469 ;; Hardware stack levels used: 1
  5470 ;; This function calls:
  5471 ;;		Nothing
  5472 ;; This function is called by:
  5473 ;;		_OLED_Printf_Line
  5474 ;; This function uses a non-reentrant model
  5475 ;;
  5476                           
  5477     0008                     ___lwmod:	
  5478                           ;psect for function ___lwmod
  5479                           
  5480     0008                     l2668:	
  5481                           ;incstack = 0
  5482                           ; Regs used in ___lwmod: [wreg+status,2+status,0]
  5483                           
  5484     0008  0870               	movf	___lwmod@divisor,w
  5485     0009  0471               	iorwf	___lwmod@divisor+1,w
  5486     000A  1903               	btfsc	3,2
  5487     000B  280D               	goto	u2661
  5488     000C  280E               	goto	u2660
  5489     000D                     u2661:
  5490     000D  2837               	goto	l2686
  5491     000E                     u2660:
  5492     000E                     l2670:
  5493     000E  01F5               	clrf	___lwmod@counter
  5494     000F  0AF5               	incf	___lwmod@counter,f
  5495     0010  281A               	goto	l2676
  5496     0011                     l2672:
  5497     0011  3001               	movlw	1
  5498     0012                     u2675:
  5499     0012  35F0               	lslf	___lwmod@divisor,f
  5500     0013  0DF1               	rlf	___lwmod@divisor+1,f
  5501     0014  0B89               	decfsz	9,f
  5502     0015  2812               	goto	u2675
  5503     0016                     l2674:
  5504     0016  3001               	movlw	1
  5505     0017  00F4               	movwf	??___lwmod
  5506     0018  0874               	movf	??___lwmod,w
  5507     0019  07F5               	addwf	___lwmod@counter,f
  5508     001A                     l2676:
  5509     001A  1FF1               	btfss	___lwmod@divisor+1,7
  5510     001B  281D               	goto	u2681
  5511     001C  281E               	goto	u2680
  5512     001D                     u2681:
  5513     001D  2811               	goto	l2672
  5514     001E                     u2680:
  5515     001E                     l2678:
  5516     001E  0871               	movf	___lwmod@divisor+1,w
  5517     001F  0273               	subwf	___lwmod@dividend+1,w
  5518     0020  1D03               	skipz
  5519     0021  2824               	goto	u2695
  5520     0022  0870               	movf	___lwmod@divisor,w
  5521     0023  0272               	subwf	___lwmod@dividend,w
  5522     0024                     u2695:
  5523     0024  1C03               	skipc
  5524     0025  2827               	goto	u2691
  5525     0026  2828               	goto	u2690
  5526     0027                     u2691:
  5527     0027  282C               	goto	l2682
  5528     0028                     u2690:
  5529     0028                     l2680:
  5530     0028  0870               	movf	___lwmod@divisor,w
  5531     0029  02F2               	subwf	___lwmod@dividend,f
  5532     002A  0871               	movf	___lwmod@divisor+1,w
  5533     002B  3BF3               	subwfb	___lwmod@dividend+1,f
  5534     002C                     l2682:
  5535     002C  3001               	movlw	1
  5536     002D                     u2705:
  5537     002D  36F1               	lsrf	___lwmod@divisor+1,f
  5538     002E  0CF0               	rrf	___lwmod@divisor,f
  5539     002F  0B89               	decfsz	9,f
  5540     0030  282D               	goto	u2705
  5541     0031                     l2684:
  5542     0031  3001               	movlw	1
  5543     0032  02F5               	subwf	___lwmod@counter,f
  5544     0033  1D03               	btfss	3,2
  5545     0034  2836               	goto	u2711
  5546     0035  2837               	goto	u2710
  5547     0036                     u2711:
  5548     0036  281E               	goto	l2678
  5549     0037                     u2710:
  5550     0037                     l2686:
  5551     0037  0873               	movf	___lwmod@dividend+1,w
  5552     0038  00F1               	movwf	?___lwmod+1
  5553     0039  0872               	movf	___lwmod@dividend,w
  5554     003A  00F0               	movwf	?___lwmod
  5555     003B                     l786:
  5556     003B  0008               	return
  5557     003C                     __end_of___lwmod:
  5558                           
  5559                           	psect	text10
  5560     0CF8                     __ptext10:	
  5561 ;; *************** function ___lwdiv *****************
  5562 ;; Defined at:
  5563 ;;		line 5 in file "C:\Program Files\Microchip\xc8\v2.46\pic\sources\c99\common\lwdiv.c"
  5564 ;; Parameters:    Size  Location     Type
  5565 ;;  divisor         2    0[COMMON] unsigned int 
  5566 ;;  dividend        2    2[COMMON] unsigned int 
  5567 ;; Auto vars:     Size  Location     Type
  5568 ;;  quotient        2    5[COMMON] unsigned int 
  5569 ;;  counter         1    7[COMMON] unsigned char 
  5570 ;; Return value:  Size  Location     Type
  5571 ;;                  2    0[COMMON] unsigned int 
  5572 ;; Registers used:
  5573 ;;		wreg, status,2, status,0
  5574 ;; Tracked objects:
  5575 ;;		On entry : 0/0
  5576 ;;		On exit  : 0/0
  5577 ;;		Unchanged: 0/0
  5578 ;; Data sizes:     COMMON   BANK0   BANK1   BANK2   BANK3   BANK4   BANK5   BANK6   BANK7   BANK8   BANK9  BANK10  BANK1
      +1  BANK12  BANK13  BANK14  BANK15  BANK16  BANK17  BANK18  BANK19  BANK20  BANK21  BANK22  BANK23  BANK24  BANK25
  5579 ;;      Params:         4       0       0       0       0       0       0       0       0       0       0       0       
      +0       0       0       0       0       0       0       0       0       0       0       0       0       0       0
  5580 ;;      Locals:         3       0       0       0       0       0       0       0       0       0       0       0       
      +0       0       0       0       0       0       0       0       0       0       0       0       0       0       0
  5581 ;;      Temps:          1       0       0       0       0       0       0       0       0       0       0       0       
      +0       0       0       0       0       0       0       0       0       0       0       0       0       0       0
  5582 ;;      Totals:         8       0       0       0       0       0       0       0       0       0       0       0       
      +0       0       0       0       0       0       0       0       0       0       0       0       0       0       0
  5583 ;;Total ram usage:        8 bytes
  5584 ;; Hardware stack levels used: 1
  5585 ;; This function calls:
  5586 ;;		Nothing
  5587 ;; This function is called by:
  5588 ;;		_OLED_Printf_Line
  5589 ;; This function uses a non-reentrant model
  5590 ;;
  5591                           
  5592     0CF8                     ___lwdiv:	
  5593                           ;psect for function ___lwdiv
  5594                           
  5595     0CF8                     l2642:	
  5596                           ;incstack = 0
  5597                           ; Regs used in ___lwdiv: [wreg+status,2+status,0]
  5598                           
  5599     0CF8  01F5               	clrf	___lwdiv@quotient
  5600     0CF9  01F6               	clrf	___lwdiv@quotient+1
  5601     0CFA                     l2644:
  5602     0CFA  0870               	movf	___lwdiv@divisor,w
  5603     0CFB  0471               	iorwf	___lwdiv@divisor+1,w
  5604     0CFC  1903               	btfsc	3,2
  5605     0CFD  2CFF               	goto	u2591
  5606     0CFE  2D00               	goto	u2590
  5607     0CFF                     u2591:
  5608     0CFF  2D2F               	goto	l2664
  5609     0D00                     u2590:
  5610     0D00                     l2646:
  5611     0D00  01F7               	clrf	___lwdiv@counter
  5612     0D01  0AF7               	incf	___lwdiv@counter,f
  5613     0D02  2D0C               	goto	l2652
  5614     0D03                     l2648:
  5615     0D03  3001               	movlw	1
  5616     0D04                     u2605:
  5617     0D04  35F0               	lslf	___lwdiv@divisor,f
  5618     0D05  0DF1               	rlf	___lwdiv@divisor+1,f
  5619     0D06  0B89               	decfsz	9,f
  5620     0D07  2D04               	goto	u2605
  5621     0D08                     l2650:
  5622     0D08  3001               	movlw	1
  5623     0D09  00F4               	movwf	??___lwdiv
  5624     0D0A  0874               	movf	??___lwdiv,w
  5625     0D0B  07F7               	addwf	___lwdiv@counter,f
  5626     0D0C                     l2652:
  5627     0D0C  1FF1               	btfss	___lwdiv@divisor+1,7
  5628     0D0D  2D0F               	goto	u2611
  5629     0D0E  2D10               	goto	u2610
  5630     0D0F                     u2611:
  5631     0D0F  2D03               	goto	l2648
  5632     0D10                     u2610:
  5633     0D10                     l2654:
  5634     0D10  3001               	movlw	1
  5635     0D11                     u2625:
  5636     0D11  35F5               	lslf	___lwdiv@quotient,f
  5637     0D12  0DF6               	rlf	___lwdiv@quotient+1,f
  5638     0D13  0B89               	decfsz	9,f
  5639     0D14  2D11               	goto	u2625
  5640     0D15  0871               	movf	___lwdiv@divisor+1,w
  5641     0D16  0273               	subwf	___lwdiv@dividend+1,w
  5642     0D17  1D03               	skipz
  5643     0D18  2D1B               	goto	u2635
  5644     0D19  0870               	movf	___lwdiv@divisor,w
  5645     0D1A  0272               	subwf	___lwdiv@dividend,w
  5646     0D1B                     u2635:
  5647     0D1B  1C03               	skipc
  5648     0D1C  2D1E               	goto	u2631
  5649     0D1D  2D1F               	goto	u2630
  5650     0D1E                     u2631:
  5651     0D1E  2D24               	goto	l2660
  5652     0D1F                     u2630:
  5653     0D1F                     l2656:
  5654     0D1F  0870               	movf	___lwdiv@divisor,w
  5655     0D20  02F2               	subwf	___lwdiv@dividend,f
  5656     0D21  0871               	movf	___lwdiv@divisor+1,w
  5657     0D22  3BF3               	subwfb	___lwdiv@dividend+1,f
  5658     0D23                     l2658:
  5659     0D23  1475               	bsf	___lwdiv@quotient,0
  5660     0D24                     l2660:
  5661     0D24  3001               	movlw	1
  5662     0D25                     u2645:
  5663     0D25  36F1               	lsrf	___lwdiv@divisor+1,f
  5664     0D26  0CF0               	rrf	___lwdiv@divisor,f
  5665     0D27  0B89               	decfsz	9,f
  5666     0D28  2D25               	goto	u2645
  5667     0D29                     l2662:
  5668     0D29  3001               	movlw	1
  5669     0D2A  02F7               	subwf	___lwdiv@counter,f
  5670     0D2B  1D03               	btfss	3,2
  5671     0D2C  2D2E               	goto	u2651
  5672     0D2D  2D2F               	goto	u2650
  5673     0D2E                     u2651:
  5674     0D2E  2D10               	goto	l2654
  5675     0D2F                     u2650:
  5676     0D2F                     l2664:
  5677     0D2F  0876               	movf	___lwdiv@quotient+1,w
  5678     0D30  00F1               	movwf	?___lwdiv+1
  5679     0D31  0875               	movf	___lwdiv@quotient,w
  5680     0D32  00F0               	movwf	?___lwdiv
  5681     0D33                     l776:
  5682     0D33  0008               	return
  5683     0D34                     __end_of___lwdiv:
  5684                           
  5685                           	psect	text11
  5686     0DBF                     __ptext11:	
  5687 ;; *************** function ___llmod *****************
  5688 ;; Defined at:
  5689 ;;		line 5 in file "C:\Program Files\Microchip\xc8\v2.46\pic\sources\c99\common\llmod.c"
  5690 ;; Parameters:    Size  Location     Type
  5691 ;;  divisor         4    0[COMMON] unsigned long 
  5692 ;;  dividend        4    4[COMMON] unsigned long 
  5693 ;; Auto vars:     Size  Location     Type
  5694 ;;  counter         1    9[COMMON] unsigned char 
  5695 ;; Return value:  Size  Location     Type
  5696 ;;                  4    0[COMMON] unsigned long 
  5697 ;; Registers used:
  5698 ;;		wreg, status,2, status,0
  5699 ;; Tracked objects:
  5700 ;;		On entry : 0/0
  5701 ;;		On exit  : 0/0
  5702 ;;		Unchanged: 0/0
  5703 ;; Data sizes:     COMMON   BANK0   BANK1   BANK2   BANK3   BANK4   BANK5   BANK6   BANK7   BANK8   BANK9  BANK10  BANK1
      +1  BANK12  BANK13  BANK14  BANK15  BANK16  BANK17  BANK18  BANK19  BANK20  BANK21  BANK22  BANK23  BANK24  BANK25
  5704 ;;      Params:         8       0       0       0       0       0       0       0       0       0       0       0       
      +0       0       0       0       0       0       0       0       0       0       0       0       0       0       0
  5705 ;;      Locals:         1       0       0       0       0       0       0       0       0       0       0       0       
      +0       0       0       0       0       0       0       0       0       0       0       0       0       0       0
  5706 ;;      Temps:          1       0       0       0       0       0       0       0       0       0       0       0       
      +0       0       0       0       0       0       0       0       0       0       0       0       0       0       0
  5707 ;;      Totals:        10       0       0       0       0       0       0       0       0       0       0       0       
      +0       0       0       0       0       0       0       0       0       0       0       0       0       0       0
  5708 ;;Total ram usage:       10 bytes
  5709 ;; Hardware stack levels used: 1
  5710 ;; This function calls:
  5711 ;;		Nothing
  5712 ;; This function is called by:
  5713 ;;		_OLED_Printf_Line
  5714 ;; This function uses a non-reentrant model
  5715 ;;
  5716                           
  5717     0DBF                     ___llmod:	
  5718                           ;psect for function ___llmod
  5719                           
  5720     0DBF                     l2622:	
  5721                           ;incstack = 0
  5722                           ; Regs used in ___llmod: [wreg+status,2+status,0]
  5723                           
  5724     0DBF  0873               	movf	___llmod@divisor+3,w
  5725     0DC0  0472               	iorwf	___llmod@divisor+2,w
  5726     0DC1  0471               	iorwf	___llmod@divisor+1,w
  5727     0DC2  0470               	iorwf	___llmod@divisor,w
  5728     0DC3  1903               	skipnz
  5729     0DC4  2DC6               	goto	u2531
  5730     0DC5  2DC7               	goto	u2530
  5731     0DC6                     u2531:
  5732     0DC6  2E00               	goto	l2638
  5733     0DC7                     u2530:
  5734     0DC7                     l2624:
  5735     0DC7  01F9               	clrf	___llmod@counter
  5736     0DC8  0AF9               	incf	___llmod@counter,f
  5737     0DC9  2DD5               	goto	l2628
  5738     0DCA                     l2626:
  5739     0DCA  3001               	movlw	1
  5740     0DCB                     u2545:
  5741     0DCB  35F0               	lslf	___llmod@divisor,f
  5742     0DCC  0DF1               	rlf	___llmod@divisor+1,f
  5743     0DCD  0DF2               	rlf	___llmod@divisor+2,f
  5744     0DCE  0DF3               	rlf	___llmod@divisor+3,f
  5745     0DCF  0B89               	decfsz	9,f
  5746     0DD0  2DCB               	goto	u2545
  5747     0DD1  3001               	movlw	1
  5748     0DD2  00F8               	movwf	??___llmod
  5749     0DD3  0878               	movf	??___llmod,w
  5750     0DD4  07F9               	addwf	___llmod@counter,f
  5751     0DD5                     l2628:
  5752     0DD5  1FF3               	btfss	___llmod@divisor+3,7
  5753     0DD6  2DD8               	goto	u2551
  5754     0DD7  2DD9               	goto	u2550
  5755     0DD8                     u2551:
  5756     0DD8  2DCA               	goto	l2626
  5757     0DD9                     u2550:
  5758     0DD9                     l2630:
  5759     0DD9  0873               	movf	___llmod@divisor+3,w
  5760     0DDA  0277               	subwf	___llmod@dividend+3,w
  5761     0DDB  1D03               	skipz
  5762     0DDC  2DE7               	goto	u2565
  5763     0DDD  0872               	movf	___llmod@divisor+2,w
  5764     0DDE  0276               	subwf	___llmod@dividend+2,w
  5765     0DDF  1D03               	skipz
  5766     0DE0  2DE7               	goto	u2565
  5767     0DE1  0871               	movf	___llmod@divisor+1,w
  5768     0DE2  0275               	subwf	___llmod@dividend+1,w
  5769     0DE3  1D03               	skipz
  5770     0DE4  2DE7               	goto	u2565
  5771     0DE5  0870               	movf	___llmod@divisor,w
  5772     0DE6  0274               	subwf	___llmod@dividend,w
  5773     0DE7                     u2565:
  5774     0DE7  1C03               	skipc
  5775     0DE8  2DEA               	goto	u2561
  5776     0DE9  2DEB               	goto	u2560
  5777     0DEA                     u2561:
  5778     0DEA  2DF3               	goto	l2634
  5779     0DEB                     u2560:
  5780     0DEB                     l2632:
  5781     0DEB  0870               	movf	___llmod@divisor,w
  5782     0DEC  02F4               	subwf	___llmod@dividend,f
  5783     0DED  0871               	movf	___llmod@divisor+1,w
  5784     0DEE  3BF5               	subwfb	___llmod@dividend+1,f
  5785     0DEF  0872               	movf	___llmod@divisor+2,w
  5786     0DF0  3BF6               	subwfb	___llmod@dividend+2,f
  5787     0DF1  0873               	movf	___llmod@divisor+3,w
  5788     0DF2  3BF7               	subwfb	___llmod@dividend+3,f
  5789     0DF3                     l2634:
  5790     0DF3  3001               	movlw	1
  5791     0DF4                     u2575:
  5792     0DF4  36F3               	lsrf	___llmod@divisor+3,f
  5793     0DF5  0CF2               	rrf	___llmod@divisor+2,f
  5794     0DF6  0CF1               	rrf	___llmod@divisor+1,f
  5795     0DF7  0CF0               	rrf	___llmod@divisor,f
  5796     0DF8  0B89               	decfsz	9,f
  5797     0DF9  2DF4               	goto	u2575
  5798     0DFA                     l2636:
  5799     0DFA  3001               	movlw	1
  5800     0DFB  02F9               	subwf	___llmod@counter,f
  5801     0DFC  1D03               	btfss	3,2
  5802     0DFD  2DFF               	goto	u2581
  5803     0DFE  2E00               	goto	u2580
  5804     0DFF                     u2581:
  5805     0DFF  2DD9               	goto	l2630
  5806     0E00                     u2580:
  5807     0E00                     l2638:
  5808     0E00  0877               	movf	___llmod@dividend+3,w
  5809     0E01  00F3               	movwf	?___llmod+3
  5810     0E02  0876               	movf	___llmod@dividend+2,w
  5811     0E03  00F2               	movwf	?___llmod+2
  5812     0E04  0875               	movf	___llmod@dividend+1,w
  5813     0E05  00F1               	movwf	?___llmod+1
  5814     0E06  0874               	movf	___llmod@dividend,w
  5815     0E07  00F0               	movwf	?___llmod
  5816     0E08                     l726:
  5817     0E08  0008               	return
  5818     0E09                     __end_of___llmod:
  5819                           
  5820                           	psect	text12
  5821     0EF5                     __ptext12:	
  5822 ;; *************** function ___awmod *****************
  5823 ;; Defined at:
  5824 ;;		line 5 in file "C:\Program Files\Microchip\xc8\v2.46\pic\sources\c99\common\awmod.c"
  5825 ;; Parameters:    Size  Location     Type
  5826 ;;  divisor         2    0[COMMON] int 
  5827 ;;  dividend        2    2[COMMON] int 
  5828 ;; Auto vars:     Size  Location     Type
  5829 ;;  sign            1    6[COMMON] unsigned char 
  5830 ;;  counter         1    5[COMMON] unsigned char 
  5831 ;; Return value:  Size  Location     Type
  5832 ;;                  2    0[COMMON] int 
  5833 ;; Registers used:
  5834 ;;		wreg, status,2, status,0
  5835 ;; Tracked objects:
  5836 ;;		On entry : 0/0
  5837 ;;		On exit  : 0/0
  5838 ;;		Unchanged: 0/0
  5839 ;; Data sizes:     COMMON   BANK0   BANK1   BANK2   BANK3   BANK4   BANK5   BANK6   BANK7   BANK8   BANK9  BANK10  BANK1
      +1  BANK12  BANK13  BANK14  BANK15  BANK16  BANK17  BANK18  BANK19  BANK20  BANK21  BANK22  BANK23  BANK24  BANK25
  5840 ;;      Params:         4       0       0       0       0       0       0       0       0       0       0       0       
      +0       0       0       0       0       0       0       0       0       0       0       0       0       0       0
  5841 ;;      Locals:         2       0       0       0       0       0       0       0       0       0       0       0       
      +0       0       0       0       0       0       0       0       0       0       0       0       0       0       0
  5842 ;;      Temps:          1       0       0       0       0       0       0       0       0       0       0       0       
      +0       0       0       0       0       0       0       0       0       0       0       0       0       0       0
  5843 ;;      Totals:         7       0       0       0       0       0       0       0       0       0       0       0       
      +0       0       0       0       0       0       0       0       0       0       0       0       0       0       0
  5844 ;;Total ram usage:        7 bytes
  5845 ;; Hardware stack levels used: 1
  5846 ;; This function calls:
  5847 ;;		Nothing
  5848 ;; This function is called by:
  5849 ;;		_OLED_Printf_Line
  5850 ;; This function uses a non-reentrant model
  5851 ;;
  5852                           
  5853     0EF5                     ___awmod:	
  5854                           ;psect for function ___awmod
  5855                           
  5856     0EF5                     l2584:	
  5857                           ;incstack = 0
  5858                           ; Regs used in ___awmod: [wreg+status,2+status,0]
  5859                           
  5860     0EF5  01F6               	clrf	___awmod@sign
  5861     0EF6                     l2586:
  5862     0EF6  1FF3               	btfss	___awmod@dividend+1,7
  5863     0EF7  2EF9               	goto	u2441
  5864     0EF8  2EFA               	goto	u2440
  5865     0EF9                     u2441:
  5866     0EF9  2F01               	goto	l2592
  5867     0EFA                     u2440:
  5868     0EFA                     l2588:
  5869     0EFA  09F2               	comf	___awmod@dividend,f
  5870     0EFB  09F3               	comf	___awmod@dividend+1,f
  5871     0EFC  0AF2               	incf	___awmod@dividend,f
  5872     0EFD  1903               	skipnz
  5873     0EFE  0AF3               	incf	___awmod@dividend+1,f
  5874     0EFF                     l2590:
  5875     0EFF  01F6               	clrf	___awmod@sign
  5876     0F00  0AF6               	incf	___awmod@sign,f
  5877     0F01                     l2592:
  5878     0F01  1FF1               	btfss	___awmod@divisor+1,7
  5879     0F02  2F04               	goto	u2451
  5880     0F03  2F05               	goto	u2450
  5881     0F04                     u2451:
  5882     0F04  2F0A               	goto	l2596
  5883     0F05                     u2450:
  5884     0F05                     l2594:
  5885     0F05  09F0               	comf	___awmod@divisor,f
  5886     0F06  09F1               	comf	___awmod@divisor+1,f
  5887     0F07  0AF0               	incf	___awmod@divisor,f
  5888     0F08  1903               	skipnz
  5889     0F09  0AF1               	incf	___awmod@divisor+1,f
  5890     0F0A                     l2596:
  5891     0F0A  0870               	movf	___awmod@divisor,w
  5892     0F0B  0471               	iorwf	___awmod@divisor+1,w
  5893     0F0C  1903               	btfsc	3,2
  5894     0F0D  2F0F               	goto	u2461
  5895     0F0E  2F10               	goto	u2460
  5896     0F0F                     u2461:
  5897     0F0F  2F39               	goto	l2614
  5898     0F10                     u2460:
  5899     0F10                     l2598:
  5900     0F10  01F5               	clrf	___awmod@counter
  5901     0F11  0AF5               	incf	___awmod@counter,f
  5902     0F12  2F1C               	goto	l2604
  5903     0F13                     l2600:
  5904     0F13  3001               	movlw	1
  5905     0F14                     u2475:
  5906     0F14  35F0               	lslf	___awmod@divisor,f
  5907     0F15  0DF1               	rlf	___awmod@divisor+1,f
  5908     0F16  0B89               	decfsz	9,f
  5909     0F17  2F14               	goto	u2475
  5910     0F18                     l2602:
  5911     0F18  3001               	movlw	1
  5912     0F19  00F4               	movwf	??___awmod
  5913     0F1A  0874               	movf	??___awmod,w
  5914     0F1B  07F5               	addwf	___awmod@counter,f
  5915     0F1C                     l2604:
  5916     0F1C  1FF1               	btfss	___awmod@divisor+1,7
  5917     0F1D  2F1F               	goto	u2481
  5918     0F1E  2F20               	goto	u2480
  5919     0F1F                     u2481:
  5920     0F1F  2F13               	goto	l2600
  5921     0F20                     u2480:
  5922     0F20                     l2606:
  5923     0F20  0871               	movf	___awmod@divisor+1,w
  5924     0F21  0273               	subwf	___awmod@dividend+1,w
  5925     0F22  1D03               	skipz
  5926     0F23  2F26               	goto	u2495
  5927     0F24  0870               	movf	___awmod@divisor,w
  5928     0F25  0272               	subwf	___awmod@dividend,w
  5929     0F26                     u2495:
  5930     0F26  1C03               	skipc
  5931     0F27  2F29               	goto	u2491
  5932     0F28  2F2A               	goto	u2490
  5933     0F29                     u2491:
  5934     0F29  2F2E               	goto	l2610
  5935     0F2A                     u2490:
  5936     0F2A                     l2608:
  5937     0F2A  0870               	movf	___awmod@divisor,w
  5938     0F2B  02F2               	subwf	___awmod@dividend,f
  5939     0F2C  0871               	movf	___awmod@divisor+1,w
  5940     0F2D  3BF3               	subwfb	___awmod@dividend+1,f
  5941     0F2E                     l2610:
  5942     0F2E  3001               	movlw	1
  5943     0F2F                     u2505:
  5944     0F2F  36F1               	lsrf	___awmod@divisor+1,f
  5945     0F30  0CF0               	rrf	___awmod@divisor,f
  5946     0F31  0B89               	decfsz	9,f
  5947     0F32  2F2F               	goto	u2505
  5948     0F33                     l2612:
  5949     0F33  3001               	movlw	1
  5950     0F34  02F5               	subwf	___awmod@counter,f
  5951     0F35  1D03               	btfss	3,2
  5952     0F36  2F38               	goto	u2511
  5953     0F37  2F39               	goto	u2510
  5954     0F38                     u2511:
  5955     0F38  2F20               	goto	l2606
  5956     0F39                     u2510:
  5957     0F39                     l2614:
  5958     0F39  0876               	movf	___awmod@sign,w
  5959     0F3A  1903               	btfsc	3,2
  5960     0F3B  2F3D               	goto	u2521
  5961     0F3C  2F3E               	goto	u2520
  5962     0F3D                     u2521:
  5963     0F3D  2F43               	goto	l2618
  5964     0F3E                     u2520:
  5965     0F3E                     l2616:
  5966     0F3E  09F2               	comf	___awmod@dividend,f
  5967     0F3F  09F3               	comf	___awmod@dividend+1,f
  5968     0F40  0AF2               	incf	___awmod@dividend,f
  5969     0F41  1903               	skipnz
  5970     0F42  0AF3               	incf	___awmod@dividend+1,f
  5971     0F43                     l2618:
  5972     0F43  0873               	movf	___awmod@dividend+1,w
  5973     0F44  00F1               	movwf	?___awmod+1
  5974     0F45  0872               	movf	___awmod@dividend,w
  5975     0F46  00F0               	movwf	?___awmod
  5976     0F47                     l662:
  5977     0F47  0008               	return
  5978     0F48                     __end_of___awmod:
  5979                           
  5980                           	psect	text13
  5981     003C                     __ptext13:	
  5982 ;; *************** function ___awdiv *****************
  5983 ;; Defined at:
  5984 ;;		line 5 in file "C:\Program Files\Microchip\xc8\v2.46\pic\sources\c99\common\awdiv.c"
  5985 ;; Parameters:    Size  Location     Type
  5986 ;;  divisor         2    0[COMMON] int 
  5987 ;;  dividend        2    2[COMMON] int 
  5988 ;; Auto vars:     Size  Location     Type
  5989 ;;  quotient        2    7[COMMON] int 
  5990 ;;  sign            1    6[COMMON] unsigned char 
  5991 ;;  counter         1    5[COMMON] unsigned char 
  5992 ;; Return value:  Size  Location     Type
  5993 ;;                  2    0[COMMON] int 
  5994 ;; Registers used:
  5995 ;;		wreg, status,2, status,0
  5996 ;; Tracked objects:
  5997 ;;		On entry : 0/0
  5998 ;;		On exit  : 0/0
  5999 ;;		Unchanged: 0/0
  6000 ;; Data sizes:     COMMON   BANK0   BANK1   BANK2   BANK3   BANK4   BANK5   BANK6   BANK7   BANK8   BANK9  BANK10  BANK1
      +1  BANK12  BANK13  BANK14  BANK15  BANK16  BANK17  BANK18  BANK19  BANK20  BANK21  BANK22  BANK23  BANK24  BANK25
  6001 ;;      Params:         4       0       0       0       0       0       0       0       0       0       0       0       
      +0       0       0       0       0       0       0       0       0       0       0       0       0       0       0
  6002 ;;      Locals:         4       0       0       0       0       0       0       0       0       0       0       0       
      +0       0       0       0       0       0       0       0       0       0       0       0       0       0       0
  6003 ;;      Temps:          1       0       0       0       0       0       0       0       0       0       0       0       
      +0       0       0       0       0       0       0       0       0       0       0       0       0       0       0
  6004 ;;      Totals:         9       0       0       0       0       0       0       0       0       0       0       0       
      +0       0       0       0       0       0       0       0       0       0       0       0       0       0       0
  6005 ;;Total ram usage:        9 bytes
  6006 ;; Hardware stack levels used: 1
  6007 ;; This function calls:
  6008 ;;		Nothing
  6009 ;; This function is called by:
  6010 ;;		_OLED_Printf_Line
  6011 ;;		_OLED_DrawBattery
  6012 ;; This function uses a non-reentrant model
  6013 ;;
  6014                           
  6015     003C                     ___awdiv:	
  6016                           ;psect for function ___awdiv
  6017                           
  6018     003C                     l2540:	
  6019                           ;incstack = 0
  6020                           ; Regs used in ___awdiv: [wreg+status,2+status,0]
  6021                           
  6022     003C  01F6               	clrf	___awdiv@sign
  6023     003D                     l2542:
  6024     003D  1FF1               	btfss	___awdiv@divisor+1,7
  6025     003E  2840               	goto	u2341
  6026     003F  2841               	goto	u2340
  6027     0040                     u2341:
  6028     0040  2848               	goto	l2548
  6029     0041                     u2340:
  6030     0041                     l2544:
  6031     0041  09F0               	comf	___awdiv@divisor,f
  6032     0042  09F1               	comf	___awdiv@divisor+1,f
  6033     0043  0AF0               	incf	___awdiv@divisor,f
  6034     0044  1903               	skipnz
  6035     0045  0AF1               	incf	___awdiv@divisor+1,f
  6036     0046                     l2546:
  6037     0046  01F6               	clrf	___awdiv@sign
  6038     0047  0AF6               	incf	___awdiv@sign,f
  6039     0048                     l2548:
  6040     0048  1FF3               	btfss	___awdiv@dividend+1,7
  6041     0049  284B               	goto	u2351
  6042     004A  284C               	goto	u2350
  6043     004B                     u2351:
  6044     004B  2855               	goto	l2554
  6045     004C                     u2350:
  6046     004C                     l2550:
  6047     004C  09F2               	comf	___awdiv@dividend,f
  6048     004D  09F3               	comf	___awdiv@dividend+1,f
  6049     004E  0AF2               	incf	___awdiv@dividend,f
  6050     004F  1903               	skipnz
  6051     0050  0AF3               	incf	___awdiv@dividend+1,f
  6052     0051                     l2552:
  6053     0051  3001               	movlw	1
  6054     0052  00F4               	movwf	??___awdiv
  6055     0053  0874               	movf	??___awdiv,w
  6056     0054  06F6               	xorwf	___awdiv@sign,f
  6057     0055                     l2554:
  6058     0055  01F7               	clrf	___awdiv@quotient
  6059     0056  01F8               	clrf	___awdiv@quotient+1
  6060     0057                     l2556:
  6061     0057  0870               	movf	___awdiv@divisor,w
  6062     0058  0471               	iorwf	___awdiv@divisor+1,w
  6063     0059  1903               	btfsc	3,2
  6064     005A  285C               	goto	u2361
  6065     005B  285D               	goto	u2360
  6066     005C                     u2361:
  6067     005C  288C               	goto	l2576
  6068     005D                     u2360:
  6069     005D                     l2558:
  6070     005D  01F5               	clrf	___awdiv@counter
  6071     005E  0AF5               	incf	___awdiv@counter,f
  6072     005F  2869               	goto	l2564
  6073     0060                     l2560:
  6074     0060  3001               	movlw	1
  6075     0061                     u2375:
  6076     0061  35F0               	lslf	___awdiv@divisor,f
  6077     0062  0DF1               	rlf	___awdiv@divisor+1,f
  6078     0063  0B89               	decfsz	9,f
  6079     0064  2861               	goto	u2375
  6080     0065                     l2562:
  6081     0065  3001               	movlw	1
  6082     0066  00F4               	movwf	??___awdiv
  6083     0067  0874               	movf	??___awdiv,w
  6084     0068  07F5               	addwf	___awdiv@counter,f
  6085     0069                     l2564:
  6086     0069  1FF1               	btfss	___awdiv@divisor+1,7
  6087     006A  286C               	goto	u2381
  6088     006B  286D               	goto	u2380
  6089     006C                     u2381:
  6090     006C  2860               	goto	l2560
  6091     006D                     u2380:
  6092     006D                     l2566:
  6093     006D  3001               	movlw	1
  6094     006E                     u2395:
  6095     006E  35F7               	lslf	___awdiv@quotient,f
  6096     006F  0DF8               	rlf	___awdiv@quotient+1,f
  6097     0070  0B89               	decfsz	9,f
  6098     0071  286E               	goto	u2395
  6099     0072  0871               	movf	___awdiv@divisor+1,w
  6100     0073  0273               	subwf	___awdiv@dividend+1,w
  6101     0074  1D03               	skipz
  6102     0075  2878               	goto	u2405
  6103     0076  0870               	movf	___awdiv@divisor,w
  6104     0077  0272               	subwf	___awdiv@dividend,w
  6105     0078                     u2405:
  6106     0078  1C03               	skipc
  6107     0079  287B               	goto	u2401
  6108     007A  287C               	goto	u2400
  6109     007B                     u2401:
  6110     007B  2881               	goto	l2572
  6111     007C                     u2400:
  6112     007C                     l2568:
  6113     007C  0870               	movf	___awdiv@divisor,w
  6114     007D  02F2               	subwf	___awdiv@dividend,f
  6115     007E  0871               	movf	___awdiv@divisor+1,w
  6116     007F  3BF3               	subwfb	___awdiv@dividend+1,f
  6117     0080                     l2570:
  6118     0080  1477               	bsf	___awdiv@quotient,0
  6119     0081                     l2572:
  6120     0081  3001               	movlw	1
  6121     0082                     u2415:
  6122     0082  36F1               	lsrf	___awdiv@divisor+1,f
  6123     0083  0CF0               	rrf	___awdiv@divisor,f
  6124     0084  0B89               	decfsz	9,f
  6125     0085  2882               	goto	u2415
  6126     0086                     l2574:
  6127     0086  3001               	movlw	1
  6128     0087  02F5               	subwf	___awdiv@counter,f
  6129     0088  1D03               	btfss	3,2
  6130     0089  288B               	goto	u2421
  6131     008A  288C               	goto	u2420
  6132     008B                     u2421:
  6133     008B  286D               	goto	l2566
  6134     008C                     u2420:
  6135     008C                     l2576:
  6136     008C  0876               	movf	___awdiv@sign,w
  6137     008D  1903               	btfsc	3,2
  6138     008E  2890               	goto	u2431
  6139     008F  2891               	goto	u2430
  6140     0090                     u2431:
  6141     0090  2896               	goto	l2580
  6142     0091                     u2430:
  6143     0091                     l2578:
  6144     0091  09F7               	comf	___awdiv@quotient,f
  6145     0092  09F8               	comf	___awdiv@quotient+1,f
  6146     0093  0AF7               	incf	___awdiv@quotient,f
  6147     0094  1903               	skipnz
  6148     0095  0AF8               	incf	___awdiv@quotient+1,f
  6149     0096                     l2580:
  6150     0096  0878               	movf	___awdiv@quotient+1,w
  6151     0097  00F1               	movwf	?___awdiv+1
  6152     0098  0877               	movf	___awdiv@quotient,w
  6153     0099  00F0               	movwf	?___awdiv
  6154     009A                     l649:
  6155     009A  0008               	return
  6156     009B                     __end_of___awdiv:
  6157                           
  6158                           	psect	text14
  6159     0243                     __ptext14:	
  6160 ;; *************** function ___almod *****************
  6161 ;; Defined at:
  6162 ;;		line 5 in file "C:\Program Files\Microchip\xc8\v2.46\pic\sources\c99\common\almod.c"
  6163 ;; Parameters:    Size  Location     Type
  6164 ;;  divisor         4    0[COMMON] long 
  6165 ;;  dividend        4    4[COMMON] long 
  6166 ;; Auto vars:     Size  Location     Type
  6167 ;;  sign            1   10[COMMON] unsigned char 
  6168 ;;  counter         1    9[COMMON] unsigned char 
  6169 ;; Return value:  Size  Location     Type
  6170 ;;                  4    0[COMMON] long 
  6171 ;; Registers used:
  6172 ;;		wreg, status,2, status,0
  6173 ;; Tracked objects:
  6174 ;;		On entry : 0/0
  6175 ;;		On exit  : 0/0
  6176 ;;		Unchanged: 0/0
  6177 ;; Data sizes:     COMMON   BANK0   BANK1   BANK2   BANK3   BANK4   BANK5   BANK6   BANK7   BANK8   BANK9  BANK10  BANK1
      +1  BANK12  BANK13  BANK14  BANK15  BANK16  BANK17  BANK18  BANK19  BANK20  BANK21  BANK22  BANK23  BANK24  BANK25
  6178 ;;      Params:         8       0       0       0       0       0       0       0       0       0       0       0       
      +0       0       0       0       0       0       0       0       0       0       0       0       0       0       0
  6179 ;;      Locals:         2       0       0       0       0       0       0       0       0       0       0       0       
      +0       0       0       0       0       0       0       0       0       0       0       0       0       0       0
  6180 ;;      Temps:          1       0       0       0       0       0       0       0       0       0       0       0       
      +0       0       0       0       0       0       0       0       0       0       0       0       0       0       0
  6181 ;;      Totals:        11       0       0       0       0       0       0       0       0       0       0       0       
      +0       0       0       0       0       0       0       0       0       0       0       0       0       0       0
  6182 ;;Total ram usage:       11 bytes
  6183 ;; Hardware stack levels used: 1
  6184 ;; This function calls:
  6185 ;;		Nothing
  6186 ;; This function is called by:
  6187 ;;		_OLED_Printf_Line
  6188 ;; This function uses a non-reentrant model
  6189 ;;
  6190                           
  6191     0243                     ___almod:	
  6192                           ;psect for function ___almod
  6193                           
  6194     0243                     l2508:	
  6195                           ;incstack = 0
  6196                           ; Regs used in ___almod: [wreg+status,2+status,0]
  6197                           
  6198     0243  01FA               	clrf	___almod@sign
  6199     0244                     l2510:
  6200     0244  1FF7               	btfss	___almod@dividend+3,7
  6201     0245  2A47               	goto	u2251
  6202     0246  2A48               	goto	u2250
  6203     0247                     u2251:
  6204     0247  2A55               	goto	l574
  6205     0248                     u2250:
  6206     0248                     l2512:
  6207     0248  09F4               	comf	___almod@dividend,f
  6208     0249  09F5               	comf	___almod@dividend+1,f
  6209     024A  09F6               	comf	___almod@dividend+2,f
  6210     024B  09F7               	comf	___almod@dividend+3,f
  6211     024C  0AF4               	incf	___almod@dividend,f
  6212     024D  1903               	skipnz
  6213     024E  0AF5               	incf	___almod@dividend+1,f
  6214     024F  1903               	skipnz
  6215     0250  0AF6               	incf	___almod@dividend+2,f
  6216     0251  1903               	skipnz
  6217     0252  0AF7               	incf	___almod@dividend+3,f
  6218     0253  01FA               	clrf	___almod@sign
  6219     0254  0AFA               	incf	___almod@sign,f
  6220     0255                     l574:
  6221     0255  1FF3               	btfss	___almod@divisor+3,7
  6222     0256  2A58               	goto	u2261
  6223     0257  2A59               	goto	u2260
  6224     0258                     u2261:
  6225     0258  2A64               	goto	l2516
  6226     0259                     u2260:
  6227     0259                     l2514:
  6228     0259  09F0               	comf	___almod@divisor,f
  6229     025A  09F1               	comf	___almod@divisor+1,f
  6230     025B  09F2               	comf	___almod@divisor+2,f
  6231     025C  09F3               	comf	___almod@divisor+3,f
  6232     025D  0AF0               	incf	___almod@divisor,f
  6233     025E  1903               	skipnz
  6234     025F  0AF1               	incf	___almod@divisor+1,f
  6235     0260  1903               	skipnz
  6236     0261  0AF2               	incf	___almod@divisor+2,f
  6237     0262  1903               	skipnz
  6238     0263  0AF3               	incf	___almod@divisor+3,f
  6239     0264                     l2516:
  6240     0264  0873               	movf	___almod@divisor+3,w
  6241     0265  0472               	iorwf	___almod@divisor+2,w
  6242     0266  0471               	iorwf	___almod@divisor+1,w
  6243     0267  0470               	iorwf	___almod@divisor,w
  6244     0268  1903               	skipnz
  6245     0269  2A6B               	goto	u2271
  6246     026A  2A6C               	goto	u2270
  6247     026B                     u2271:
  6248     026B  2AA5               	goto	l2532
  6249     026C                     u2270:
  6250     026C                     l2518:
  6251     026C  01F9               	clrf	___almod@counter
  6252     026D  0AF9               	incf	___almod@counter,f
  6253     026E  2A7A               	goto	l2522
  6254     026F                     l2520:
  6255     026F  3001               	movlw	1
  6256     0270                     u2285:
  6257     0270  35F0               	lslf	___almod@divisor,f
  6258     0271  0DF1               	rlf	___almod@divisor+1,f
  6259     0272  0DF2               	rlf	___almod@divisor+2,f
  6260     0273  0DF3               	rlf	___almod@divisor+3,f
  6261     0274  0B89               	decfsz	9,f
  6262     0275  2A70               	goto	u2285
  6263     0276  3001               	movlw	1
  6264     0277  00F8               	movwf	??___almod
  6265     0278  0878               	movf	??___almod,w
  6266     0279  07F9               	addwf	___almod@counter,f
  6267     027A                     l2522:
  6268     027A  1FF3               	btfss	___almod@divisor+3,7
  6269     027B  2A7D               	goto	u2291
  6270     027C  2A7E               	goto	u2290
  6271     027D                     u2291:
  6272     027D  2A6F               	goto	l2520
  6273     027E                     u2290:
  6274     027E                     l2524:
  6275     027E  0873               	movf	___almod@divisor+3,w
  6276     027F  0277               	subwf	___almod@dividend+3,w
  6277     0280  1D03               	skipz
  6278     0281  2A8C               	goto	u2305
  6279     0282  0872               	movf	___almod@divisor+2,w
  6280     0283  0276               	subwf	___almod@dividend+2,w
  6281     0284  1D03               	skipz
  6282     0285  2A8C               	goto	u2305
  6283     0286  0871               	movf	___almod@divisor+1,w
  6284     0287  0275               	subwf	___almod@dividend+1,w
  6285     0288  1D03               	skipz
  6286     0289  2A8C               	goto	u2305
  6287     028A  0870               	movf	___almod@divisor,w
  6288     028B  0274               	subwf	___almod@dividend,w
  6289     028C                     u2305:
  6290     028C  1C03               	skipc
  6291     028D  2A8F               	goto	u2301
  6292     028E  2A90               	goto	u2300
  6293     028F                     u2301:
  6294     028F  2A98               	goto	l2528
  6295     0290                     u2300:
  6296     0290                     l2526:
  6297     0290  0870               	movf	___almod@divisor,w
  6298     0291  02F4               	subwf	___almod@dividend,f
  6299     0292  0871               	movf	___almod@divisor+1,w
  6300     0293  3BF5               	subwfb	___almod@dividend+1,f
  6301     0294  0872               	movf	___almod@divisor+2,w
  6302     0295  3BF6               	subwfb	___almod@dividend+2,f
  6303     0296  0873               	movf	___almod@divisor+3,w
  6304     0297  3BF7               	subwfb	___almod@dividend+3,f
  6305     0298                     l2528:
  6306     0298  3001               	movlw	1
  6307     0299                     u2315:
  6308     0299  36F3               	lsrf	___almod@divisor+3,f
  6309     029A  0CF2               	rrf	___almod@divisor+2,f
  6310     029B  0CF1               	rrf	___almod@divisor+1,f
  6311     029C  0CF0               	rrf	___almod@divisor,f
  6312     029D  0B89               	decfsz	9,f
  6313     029E  2A99               	goto	u2315
  6314     029F                     l2530:
  6315     029F  3001               	movlw	1
  6316     02A0  02F9               	subwf	___almod@counter,f
  6317     02A1  1D03               	btfss	3,2
  6318     02A2  2AA4               	goto	u2321
  6319     02A3  2AA5               	goto	u2320
  6320     02A4                     u2321:
  6321     02A4  2A7E               	goto	l2524
  6322     02A5                     u2320:
  6323     02A5                     l2532:
  6324     02A5  087A               	movf	___almod@sign,w
  6325     02A6  1903               	btfsc	3,2
  6326     02A7  2AA9               	goto	u2331
  6327     02A8  2AAA               	goto	u2330
  6328     02A9                     u2331:
  6329     02A9  2AB5               	goto	l2536
  6330     02AA                     u2330:
  6331     02AA                     l2534:
  6332     02AA  09F4               	comf	___almod@dividend,f
  6333     02AB  09F5               	comf	___almod@dividend+1,f
  6334     02AC  09F6               	comf	___almod@dividend+2,f
  6335     02AD  09F7               	comf	___almod@dividend+3,f
  6336     02AE  0AF4               	incf	___almod@dividend,f
  6337     02AF  1903               	skipnz
  6338     02B0  0AF5               	incf	___almod@dividend+1,f
  6339     02B1  1903               	skipnz
  6340     02B2  0AF6               	incf	___almod@dividend+2,f
  6341     02B3  1903               	skipnz
  6342     02B4  0AF7               	incf	___almod@dividend+3,f
  6343     02B5                     l2536:
  6344     02B5  0877               	movf	___almod@dividend+3,w
  6345     02B6  00F3               	movwf	?___almod+3
  6346     02B7  0876               	movf	___almod@dividend+2,w
  6347     02B8  00F2               	movwf	?___almod+2
  6348     02B9  0875               	movf	___almod@dividend+1,w
  6349     02BA  00F1               	movwf	?___almod+1
  6350     02BB  0874               	movf	___almod@dividend,w
  6351     02BC  00F0               	movwf	?___almod
  6352     02BD                     l584:
  6353     02BD  0008               	return
  6354     02BE                     __end_of___almod:
  6355                           
  6356                           	psect	text15
  6357     034C                     __ptext15:	
  6358 ;; *************** function ___aldiv *****************
  6359 ;; Defined at:
  6360 ;;		line 5 in file "C:\Program Files\Microchip\xc8\v2.46\pic\sources\c99\common\aldiv.c"
  6361 ;; Parameters:    Size  Location     Type
  6362 ;;  divisor         4    0[COMMON] long 
  6363 ;;  dividend        4    4[COMMON] long 
  6364 ;; Auto vars:     Size  Location     Type
  6365 ;;  quotient        4    2[BANK0 ] long 
  6366 ;;  sign            1    1[BANK0 ] unsigned char 
  6367 ;;  counter         1    0[BANK0 ] unsigned char 
  6368 ;; Return value:  Size  Location     Type
  6369 ;;                  4    0[COMMON] long 
  6370 ;; Registers used:
  6371 ;;		wreg, status,2, status,0
  6372 ;; Tracked objects:
  6373 ;;		On entry : 0/0
  6374 ;;		On exit  : 0/0
  6375 ;;		Unchanged: 0/0
  6376 ;; Data sizes:     COMMON   BANK0   BANK1   BANK2   BANK3   BANK4   BANK5   BANK6   BANK7   BANK8   BANK9  BANK10  BANK1
      +1  BANK12  BANK13  BANK14  BANK15  BANK16  BANK17  BANK18  BANK19  BANK20  BANK21  BANK22  BANK23  BANK24  BANK25
  6377 ;;      Params:         8       0       0       0       0       0       0       0       0       0       0       0       
      +0       0       0       0       0       0       0       0       0       0       0       0       0       0       0
  6378 ;;      Locals:         0       6       0       0       0       0       0       0       0       0       0       0       
      +0       0       0       0       0       0       0       0       0       0       0       0       0       0       0
  6379 ;;      Temps:          1       0       0       0       0       0       0       0       0       0       0       0       
      +0       0       0       0       0       0       0       0       0       0       0       0       0       0       0
  6380 ;;      Totals:         9       6       0       0       0       0       0       0       0       0       0       0       
      +0       0       0       0       0       0       0       0       0       0       0       0       0       0       0
  6381 ;;Total ram usage:       15 bytes
  6382 ;; Hardware stack levels used: 1
  6383 ;; This function calls:
  6384 ;;		Nothing
  6385 ;; This function is called by:
  6386 ;;		_OLED_Printf_Line
  6387 ;; This function uses a non-reentrant model
  6388 ;;
  6389                           
  6390     034C                     ___aldiv:	
  6391                           ;psect for function ___aldiv
  6392                           
  6393     034C                     l2468:	
  6394                           ;incstack = 0
  6395                           ; Regs used in ___aldiv: [wreg+status,2+status,0]
  6396                           
  6397     034C  0020               	movlb	0	; select bank0
  6398     034D  01A1               	clrf	___aldiv@sign
  6399     034E                     l2470:
  6400     034E  1FF3               	btfss	___aldiv@divisor+3,7
  6401     034F  2B51               	goto	u2151
  6402     0350  2B52               	goto	u2150
  6403     0351                     u2151:
  6404     0351  2B5F               	goto	l561
  6405     0352                     u2150:
  6406     0352                     l2472:
  6407     0352  09F0               	comf	___aldiv@divisor,f
  6408     0353  09F1               	comf	___aldiv@divisor+1,f
  6409     0354  09F2               	comf	___aldiv@divisor+2,f
  6410     0355  09F3               	comf	___aldiv@divisor+3,f
  6411     0356  0AF0               	incf	___aldiv@divisor,f
  6412     0357  1903               	skipnz
  6413     0358  0AF1               	incf	___aldiv@divisor+1,f
  6414     0359  1903               	skipnz
  6415     035A  0AF2               	incf	___aldiv@divisor+2,f
  6416     035B  1903               	skipnz
  6417     035C  0AF3               	incf	___aldiv@divisor+3,f
  6418     035D  01A1               	clrf	___aldiv@sign
  6419     035E  0AA1               	incf	___aldiv@sign,f
  6420     035F                     l561:
  6421     035F  1FF7               	btfss	___aldiv@dividend+3,7
  6422     0360  2B62               	goto	u2161
  6423     0361  2B63               	goto	u2160
  6424     0362                     u2161:
  6425     0362  2B72               	goto	l2478
  6426     0363                     u2160:
  6427     0363                     l2474:
  6428     0363  09F4               	comf	___aldiv@dividend,f
  6429     0364  09F5               	comf	___aldiv@dividend+1,f
  6430     0365  09F6               	comf	___aldiv@dividend+2,f
  6431     0366  09F7               	comf	___aldiv@dividend+3,f
  6432     0367  0AF4               	incf	___aldiv@dividend,f
  6433     0368  1903               	skipnz
  6434     0369  0AF5               	incf	___aldiv@dividend+1,f
  6435     036A  1903               	skipnz
  6436     036B  0AF6               	incf	___aldiv@dividend+2,f
  6437     036C  1903               	skipnz
  6438     036D  0AF7               	incf	___aldiv@dividend+3,f
  6439     036E                     l2476:
  6440     036E  3001               	movlw	1
  6441     036F  00F8               	movwf	??___aldiv
  6442     0370  0878               	movf	??___aldiv,w
  6443     0371  06A1               	xorwf	___aldiv@sign,f
  6444     0372                     l2478:
  6445     0372  3000               	movlw	0
  6446     0373  00A5               	movwf	___aldiv@quotient+3
  6447     0374  3000               	movlw	0
  6448     0375  00A4               	movwf	___aldiv@quotient+2
  6449     0376  3000               	movlw	0
  6450     0377  00A3               	movwf	___aldiv@quotient+1
  6451     0378  3000               	movlw	0
  6452     0379  00A2               	movwf	___aldiv@quotient
  6453     037A                     l2480:
  6454     037A  0873               	movf	___aldiv@divisor+3,w
  6455     037B  0472               	iorwf	___aldiv@divisor+2,w
  6456     037C  0471               	iorwf	___aldiv@divisor+1,w
  6457     037D  0470               	iorwf	___aldiv@divisor,w
  6458     037E  1903               	skipnz
  6459     037F  2B81               	goto	u2171
  6460     0380  2B82               	goto	u2170
  6461     0381                     u2171:
  6462     0381  2BC3               	goto	l2500
  6463     0382                     u2170:
  6464     0382                     l2482:
  6465     0382  01A0               	clrf	___aldiv@counter
  6466     0383  0AA0               	incf	___aldiv@counter,f
  6467     0384  2B90               	goto	l2486
  6468     0385                     l2484:
  6469     0385  3001               	movlw	1
  6470     0386                     u2185:
  6471     0386  35F0               	lslf	___aldiv@divisor,f
  6472     0387  0DF1               	rlf	___aldiv@divisor+1,f
  6473     0388  0DF2               	rlf	___aldiv@divisor+2,f
  6474     0389  0DF3               	rlf	___aldiv@divisor+3,f
  6475     038A  0B89               	decfsz	9,f
  6476     038B  2B86               	goto	u2185
  6477     038C  3001               	movlw	1
  6478     038D  00F8               	movwf	??___aldiv
  6479     038E  0878               	movf	??___aldiv,w
  6480     038F  07A0               	addwf	___aldiv@counter,f
  6481     0390                     l2486:
  6482     0390  1FF3               	btfss	___aldiv@divisor+3,7
  6483     0391  2B93               	goto	u2191
  6484     0392  2B94               	goto	u2190
  6485     0393                     u2191:
  6486     0393  2B85               	goto	l2484
  6487     0394                     u2190:
  6488     0394                     l2488:
  6489     0394  3001               	movlw	1
  6490     0395                     u2205:
  6491     0395  35A2               	lslf	___aldiv@quotient,f
  6492     0396  0DA3               	rlf	___aldiv@quotient+1,f
  6493     0397  0DA4               	rlf	___aldiv@quotient+2,f
  6494     0398  0DA5               	rlf	___aldiv@quotient+3,f
  6495     0399  0B89               	decfsz	9,f
  6496     039A  2B95               	goto	u2205
  6497     039B                     l2490:
  6498     039B  0873               	movf	___aldiv@divisor+3,w
  6499     039C  0277               	subwf	___aldiv@dividend+3,w
  6500     039D  1D03               	skipz
  6501     039E  2BA9               	goto	u2215
  6502     039F  0872               	movf	___aldiv@divisor+2,w
  6503     03A0  0276               	subwf	___aldiv@dividend+2,w
  6504     03A1  1D03               	skipz
  6505     03A2  2BA9               	goto	u2215
  6506     03A3  0871               	movf	___aldiv@divisor+1,w
  6507     03A4  0275               	subwf	___aldiv@dividend+1,w
  6508     03A5  1D03               	skipz
  6509     03A6  2BA9               	goto	u2215
  6510     03A7  0870               	movf	___aldiv@divisor,w
  6511     03A8  0274               	subwf	___aldiv@dividend,w
  6512     03A9                     u2215:
  6513     03A9  1C03               	skipc
  6514     03AA  2BAC               	goto	u2211
  6515     03AB  2BAD               	goto	u2210
  6516     03AC                     u2211:
  6517     03AC  2BB6               	goto	l2496
  6518     03AD                     u2210:
  6519     03AD                     l2492:
  6520     03AD  0870               	movf	___aldiv@divisor,w
  6521     03AE  02F4               	subwf	___aldiv@dividend,f
  6522     03AF  0871               	movf	___aldiv@divisor+1,w
  6523     03B0  3BF5               	subwfb	___aldiv@dividend+1,f
  6524     03B1  0872               	movf	___aldiv@divisor+2,w
  6525     03B2  3BF6               	subwfb	___aldiv@dividend+2,f
  6526     03B3  0873               	movf	___aldiv@divisor+3,w
  6527     03B4  3BF7               	subwfb	___aldiv@dividend+3,f
  6528     03B5                     l2494:
  6529     03B5  1422               	bsf	___aldiv@quotient,0
  6530     03B6                     l2496:
  6531     03B6  3001               	movlw	1
  6532     03B7                     u2225:
  6533     03B7  36F3               	lsrf	___aldiv@divisor+3,f
  6534     03B8  0CF2               	rrf	___aldiv@divisor+2,f
  6535     03B9  0CF1               	rrf	___aldiv@divisor+1,f
  6536     03BA  0CF0               	rrf	___aldiv@divisor,f
  6537     03BB  0B89               	decfsz	9,f
  6538     03BC  2BB7               	goto	u2225
  6539     03BD                     l2498:
  6540     03BD  3001               	movlw	1
  6541     03BE  02A0               	subwf	___aldiv@counter,f
  6542     03BF  1D03               	btfss	3,2
  6543     03C0  2BC2               	goto	u2231
  6544     03C1  2BC3               	goto	u2230
  6545     03C2                     u2231:
  6546     03C2  2B94               	goto	l2488
  6547     03C3                     u2230:
  6548     03C3                     l2500:
  6549     03C3  0821               	movf	___aldiv@sign,w
  6550     03C4  1903               	btfsc	3,2
  6551     03C5  2BC7               	goto	u2241
  6552     03C6  2BC8               	goto	u2240
  6553     03C7                     u2241:
  6554     03C7  2BD3               	goto	l2504
  6555     03C8                     u2240:
  6556     03C8                     l2502:
  6557     03C8  09A2               	comf	___aldiv@quotient,f
  6558     03C9  09A3               	comf	___aldiv@quotient+1,f
  6559     03CA  09A4               	comf	___aldiv@quotient+2,f
  6560     03CB  09A5               	comf	___aldiv@quotient+3,f
  6561     03CC  0AA2               	incf	___aldiv@quotient,f
  6562     03CD  1903               	skipnz
  6563     03CE  0AA3               	incf	___aldiv@quotient+1,f
  6564     03CF  1903               	skipnz
  6565     03D0  0AA4               	incf	___aldiv@quotient+2,f
  6566     03D1  1903               	skipnz
  6567     03D2  0AA5               	incf	___aldiv@quotient+3,f
  6568     03D3                     l2504:
  6569     03D3  0825               	movf	___aldiv@quotient+3,w
  6570     03D4  00F3               	movwf	?___aldiv+3
  6571     03D5  0824               	movf	___aldiv@quotient+2,w
  6572     03D6  00F2               	movwf	?___aldiv+2
  6573     03D7  0823               	movf	___aldiv@quotient+1,w
  6574     03D8  00F1               	movwf	?___aldiv+1
  6575     03D9  0822               	movf	___aldiv@quotient,w
  6576     03DA  00F0               	movwf	?___aldiv
  6577     03DB                     l571:
  6578     03DB  0008               	return
  6579     03DC                     __end_of___aldiv:
  6580                           
  6581                           	psect	text16
  6582     0C3F                     __ptext16:	
  6583 ;; *************** function _OLED_UpdateLine *****************
  6584 ;; Defined at:
  6585 ;;		line 370 in file "OLED_SSD1306.c"
  6586 ;; Parameters:    Size  Location     Type
  6587 ;;  page            1    wreg     unsigned char 
  6588 ;; Auto vars:     Size  Location     Type
  6589 ;;  page            1   12[COMMON] unsigned char 
  6590 ;; Return value:  Size  Location     Type
  6591 ;;                  1    wreg      void 
  6592 ;; Registers used:
  6593 ;;		wreg, fsr0l, fsr0h, status,2, status,0, pclath, cstack
  6594 ;; Tracked objects:
  6595 ;;		On entry : 0/0
  6596 ;;		On exit  : 0/0
  6597 ;;		Unchanged: 0/0
  6598 ;; Data sizes:     COMMON   BANK0   BANK1   BANK2   BANK3   BANK4   BANK5   BANK6   BANK7   BANK8   BANK9  BANK10  BANK1
      +1  BANK12  BANK13  BANK14  BANK15  BANK16  BANK17  BANK18  BANK19  BANK20  BANK21  BANK22  BANK23  BANK24  BANK25
  6599 ;;      Params:         0       0       0       0       0       0       0       0       0       0       0       0       
      +0       0       0       0       0       0       0       0       0       0       0       0       0       0       0
  6600 ;;      Locals:         1       0       0       0       0       0       0       0       0       0       0       0       
      +0       0       0       0       0       0       0       0       0       0       0       0       0       0       0
  6601 ;;      Temps:          0       6       0       0       0       0       0       0       0       0       0       0       
      +0       0       0       0       0       0       0       0       0       0       0       0       0       0       0
  6602 ;;      Totals:         1       6       0       0       0       0       0       0       0       0       0       0       
      +0       0       0       0       0       0       0       0       0       0       0       0       0       0       0
  6603 ;;Total ram usage:        7 bytes
  6604 ;; Hardware stack levels used: 1
  6605 ;; Hardware stack levels required when called: 4
  6606 ;; This function calls:
  6607 ;;		_OLED_WriteData
  6608 ;;		_OLED_YX
  6609 ;; This function is called by:
  6610 ;;		_OLED_Printf_Line
  6611 ;; This function uses a non-reentrant model
  6612 ;;
  6613                           
  6614     0C3F                     _OLED_UpdateLine:	
  6615                           ;psect for function _OLED_UpdateLine
  6616                           
  6617                           
  6618                           ;incstack = 0
  6619                           ; Regs used in _OLED_UpdateLine: [wreg-fsr0h+status,2+status,0+pclath+cstack]
  6620                           ;OLED_UpdateLine@page stored from wreg
  6621     0C3F  00FC               	movwf	OLED_UpdateLine@page
  6622     0C40                     l2376:
  6623                           
  6624                           ;OLED_SSD1306.c: 370: void OLED_UpdateLine(uint8_t page);OLED_SSD1306.c: 371: {;OLED_SSD
      +                          1306.c: 372:     if (page >= (32 / 8)) return;
  6625     0C40  3004               	movlw	4
  6626     0C41  027C               	subwf	OLED_UpdateLine@page,w
  6627     0C42  1C03               	skipc
  6628     0C43  2C45               	goto	u2021
  6629     0C44  2C46               	goto	u2020
  6630     0C45                     u2021:
  6631     0C45  2C47               	goto	l2380
  6632     0C46                     u2020:
  6633     0C46  2C6A               	goto	l143
  6634     0C47                     l2380:
  6635                           
  6636                           ;OLED_SSD1306.c: 374:     OLED_YX(page, 0);
  6637     0C47  01F7               	clrf	OLED_YX@col_char
  6638     0C48  087C               	movf	OLED_UpdateLine@page,w
  6639     0C49  318B  2387  318C   	fcall	_OLED_YX
  6640     0C4C                     l2382:
  6641                           
  6642                           ;OLED_SSD1306.c: 375:     (void)OLED_WriteData(screen_buffer[page], 128);
  6643     0C4C  087C               	movf	OLED_UpdateLine@page,w
  6644     0C4D  0020               	movlb	0	; select bank0
  6645     0C4E  00A0               	movwf	??_OLED_UpdateLine
  6646     0C4F  01A1               	clrf	??_OLED_UpdateLine+1
  6647     0C50  3007               	movlw	7
  6648     0C51                     u2035:
  6649     0C51  35A0               	lslf	??_OLED_UpdateLine,f
  6650     0C52  0DA1               	rlf	??_OLED_UpdateLine+1,f
  6651     0C53  0B89               	decfsz	9,f
  6652     0C54  2C51               	goto	u2035
  6653     0C55  30F0               	movlw	240
  6654     0C56  00A2               	movwf	??_OLED_UpdateLine+2
  6655     0C57  3024               	movlw	36
  6656     0C58  00A3               	movwf	??_OLED_UpdateLine+3
  6657     0C59  0820               	movf	??_OLED_UpdateLine,w
  6658     0C5A  0722               	addwf	??_OLED_UpdateLine+2,w
  6659     0C5B  00A4               	movwf	??_OLED_UpdateLine+4
  6660     0C5C  0821               	movf	??_OLED_UpdateLine+1,w
  6661     0C5D  3D23               	addwfc	??_OLED_UpdateLine+3,w
  6662     0C5E  00A5               	movwf	??_OLED_UpdateLine+5
  6663     0C5F  0824               	movf	??_OLED_UpdateLine+4,w
  6664     0C60  00F5               	movwf	OLED_WriteData@data
  6665     0C61  0825               	movf	??_OLED_UpdateLine+5,w
  6666     0C62  00F6               	movwf	OLED_WriteData@data+1
  6667     0C63  3080               	movlw	128
  6668     0C64  00F7               	movwf	OLED_WriteData@len
  6669     0C65  3000               	movlw	0
  6670     0C66  00F8               	movwf	OLED_WriteData@len+1
  6671     0C67  318E  26A5  318C   	fcall	_OLED_WriteData
  6672     0C6A                     l143:
  6673     0C6A  0008               	return
  6674     0C6B                     __end_of_OLED_UpdateLine:
  6675                           
  6676                           	psect	text17
  6677     01CF                     __ptext17:	
  6678 ;; *************** function _OLED_Init *****************
  6679 ;; Defined at:
  6680 ;;		line 298 in file "OLED_SSD1306.c"
  6681 ;; Parameters:    Size  Location     Type
  6682 ;;		None
  6683 ;; Auto vars:     Size  Location     Type
  6684 ;;		None
  6685 ;; Return value:  Size  Location     Type
  6686 ;;                  1    wreg      void 
  6687 ;; Registers used:
  6688 ;;		wreg, fsr0l, fsr0h, fsr1l, fsr1h, status,2, status,0, pclath, cstack
  6689 ;; Tracked objects:
  6690 ;;		On entry : 0/0
  6691 ;;		On exit  : 0/0
  6692 ;;		Unchanged: 0/0
  6693 ;; Data sizes:     COMMON   BANK0   BANK1   BANK2   BANK3   BANK4   BANK5   BANK6   BANK7   BANK8   BANK9  BANK10  BANK1
      +1  BANK12  BANK13  BANK14  BANK15  BANK16  BANK17  BANK18  BANK19  BANK20  BANK21  BANK22  BANK23  BANK24  BANK25
  6694 ;;      Params:         0       0       0       0       0       0       0       0       0       0       0       0       
      +0       0       0       0       0       0       0       0       0       0       0       0       0       0       0
  6695 ;;      Locals:         0       0       0       0       0       0       0       0       0       0       0       0       
      +0       0       0       0       0       0       0       0       0       0       0       0       0       0       0
  6696 ;;      Temps:          1       0       0       0       0       0       0       0       0       0       0       0       
      +0       0       0       0       0       0       0       0       0       0       0       0       0       0       0
  6697 ;;      Totals:         1       0       0       0       0       0       0       0       0       0       0       0       
      +0       0       0       0       0       0       0       0       0       0       0       0       0       0       0
  6698 ;;Total ram usage:        1 bytes
  6699 ;; Hardware stack levels used: 1
  6700 ;; Hardware stack levels required when called: 5
  6701 ;; This function calls:
  6702 ;;		_OLED_Clear
  6703 ;;		_OLED_Command
  6704 ;; This function is called by:
  6705 ;;		_main
  6706 ;; This function uses a non-reentrant model
  6707 ;;
  6708                           
  6709     01CF                     _OLED_Init:	
  6710                           ;psect for function _OLED_Init
  6711                           
  6712     01CF                     l2718:	
  6713                           ;incstack = 0
  6714                           ; Regs used in _OLED_Init: [wreg-fsr1h+status,2+status,0+pclath+cstack]
  6715                           
  6716                           
  6717                           ;OLED_SSD1306.c: 300:     _delay((unsigned long)((10)*(32000000/4000.0)));
  6718     01CF  3068               	movlw	104
  6719     01D0  00FD               	movwf	??_OLED_Init
  6720     01D1  30E4               	movlw	228
  6721     01D2                     u3367:
  6722     01D2  0B89               	decfsz	9,f
  6723     01D3  29D2               	goto	u3367
  6724     01D4  0BFD               	decfsz	??_OLED_Init,f
  6725     01D5  29D2               	goto	u3367
  6726     01D6  3200               	nop2
  6727     01D7                     l2720:
  6728                           
  6729                           ;OLED_SSD1306.c: 302:     (void)OLED_Command(0xAE);
  6730     01D7  30AE               	movlw	174
  6731     01D8  318C  2498  3181   	fcall	_OLED_Command
  6732     01DB                     l2722:
  6733                           
  6734                           ;OLED_SSD1306.c: 303:     (void)OLED_Command(0x2E);
  6735     01DB  302E               	movlw	46
  6736     01DC  318C  2498  3181   	fcall	_OLED_Command
  6737     01DF                     l2724:
  6738                           
  6739                           ;OLED_SSD1306.c: 305:     (void)OLED_Command(0xD5);
  6740     01DF  30D5               	movlw	213
  6741     01E0  318C  2498  3181   	fcall	_OLED_Command
  6742     01E3                     l2726:
  6743                           
  6744                           ;OLED_SSD1306.c: 306:     (void)OLED_Command(0x80);
  6745     01E3  3080               	movlw	128
  6746     01E4  318C  2498  3181   	fcall	_OLED_Command
  6747     01E7                     l2728:
  6748                           
  6749                           ;OLED_SSD1306.c: 308:     (void)OLED_Command(0xA8);
  6750     01E7  30A8               	movlw	168
  6751     01E8  318C  2498  3181   	fcall	_OLED_Command
  6752     01EB                     l2730:
  6753                           
  6754                           ;OLED_SSD1306.c: 312:     (void)OLED_Command(0x1F);
  6755     01EB  301F               	movlw	31
  6756     01EC  318C  2498  3181   	fcall	_OLED_Command
  6757     01EF                     l2732:
  6758                           
  6759                           ;OLED_SSD1306.c: 315:     (void)OLED_Command(0xD3);
  6760     01EF  30D3               	movlw	211
  6761     01F0  318C  2498  3181   	fcall	_OLED_Command
  6762     01F3                     l2734:
  6763                           
  6764                           ;OLED_SSD1306.c: 316:     (void)OLED_Command(0x00);
  6765     01F3  3000               	movlw	0
  6766     01F4  318C  2498  3181   	fcall	_OLED_Command
  6767     01F7                     l2736:
  6768                           
  6769                           ;OLED_SSD1306.c: 318:     (void)OLED_Command(0x40 | 0x00);
  6770     01F7  3040               	movlw	64
  6771     01F8  318C  2498  3181   	fcall	_OLED_Command
  6772     01FB                     l2738:
  6773                           
  6774                           ;OLED_SSD1306.c: 320:     (void)OLED_Command(0x8D);
  6775     01FB  308D               	movlw	141
  6776     01FC  318C  2498  3181   	fcall	_OLED_Command
  6777     01FF                     l2740:
  6778                           
  6779                           ;OLED_SSD1306.c: 321:     (void)OLED_Command(0x14);
  6780     01FF  3014               	movlw	20
  6781     0200  318C  2498  3181   	fcall	_OLED_Command
  6782     0203                     l2742:
  6783                           
  6784                           ;OLED_SSD1306.c: 323:     (void)OLED_Command(0x20);
  6785     0203  3020               	movlw	32
  6786     0204  318C  2498  3181   	fcall	_OLED_Command
  6787     0207                     l2744:
  6788                           
  6789                           ;OLED_SSD1306.c: 324:     (void)OLED_Command(0x02);
  6790     0207  3002               	movlw	2
  6791     0208  318C  2498  3181   	fcall	_OLED_Command
  6792     020B                     l2746:
  6793                           
  6794                           ;OLED_SSD1306.c: 326:     (void)OLED_Command(0xA0 | 0x01);
  6795     020B  30A1               	movlw	161
  6796     020C  318C  2498  3181   	fcall	_OLED_Command
  6797     020F                     l2748:
  6798                           
  6799                           ;OLED_SSD1306.c: 327:     (void)OLED_Command(0xC8);
  6800     020F  30C8               	movlw	200
  6801     0210  318C  2498  3181   	fcall	_OLED_Command
  6802     0213                     l2750:
  6803                           
  6804                           ;OLED_SSD1306.c: 329:     (void)OLED_Command(0xDA);
  6805     0213  30DA               	movlw	218
  6806     0214  318C  2498  3181   	fcall	_OLED_Command
  6807     0217                     l2752:
  6808                           
  6809                           ;OLED_SSD1306.c: 333:     (void)OLED_Command(0x02);
  6810     0217  3002               	movlw	2
  6811     0218  318C  2498  3181   	fcall	_OLED_Command
  6812     021B                     l2754:
  6813                           
  6814                           ;OLED_SSD1306.c: 336:     (void)OLED_Command(0x81);
  6815     021B  3081               	movlw	129
  6816     021C  318C  2498  3181   	fcall	_OLED_Command
  6817     021F                     l2756:
  6818                           
  6819                           ;OLED_SSD1306.c: 337:     (void)OLED_Command(0x8F);
  6820     021F  308F               	movlw	143
  6821     0220  318C  2498  3181   	fcall	_OLED_Command
  6822     0223                     l2758:
  6823                           
  6824                           ;OLED_SSD1306.c: 339:     (void)OLED_Command(0xD9);
  6825     0223  30D9               	movlw	217
  6826     0224  318C  2498  3181   	fcall	_OLED_Command
  6827     0227                     l2760:
  6828                           
  6829                           ;OLED_SSD1306.c: 340:     (void)OLED_Command(0xF1);
  6830     0227  30F1               	movlw	241
  6831     0228  318C  2498  3181   	fcall	_OLED_Command
  6832     022B                     l2762:
  6833                           
  6834                           ;OLED_SSD1306.c: 342:     (void)OLED_Command(0xDB);
  6835     022B  30DB               	movlw	219
  6836     022C  318C  2498  3181   	fcall	_OLED_Command
  6837     022F                     l2764:
  6838                           
  6839                           ;OLED_SSD1306.c: 343:     (void)OLED_Command(0x40);
  6840     022F  3040               	movlw	64
  6841     0230  318C  2498  3181   	fcall	_OLED_Command
  6842     0233                     l2766:
  6843                           
  6844                           ;OLED_SSD1306.c: 345:     (void)OLED_Command(0xA4);
  6845     0233  30A4               	movlw	164
  6846     0234  318C  2498  3181   	fcall	_OLED_Command
  6847     0237                     l2768:
  6848                           
  6849                           ;OLED_SSD1306.c: 346:     (void)OLED_Command(0xA6);
  6850     0237  30A6               	movlw	166
  6851     0238  318C  2498  3181   	fcall	_OLED_Command
  6852     023B                     l2770:
  6853                           
  6854                           ;OLED_SSD1306.c: 347:     (void)OLED_Command(0xAF);
  6855     023B  30AF               	movlw	175
  6856     023C  318C  2498  3181   	fcall	_OLED_Command
  6857     023F                     l2772:
  6858                           
  6859                           ;OLED_SSD1306.c: 350:     OLED_Clear();
  6860     023F  318E  2609  3181   	fcall	_OLED_Clear
  6861     0242                     l134:
  6862     0242  0008               	return
  6863     0243                     __end_of_OLED_Init:
  6864                           
  6865                           	psect	text18
  6866     0E09                     __ptext18:	
  6867 ;; *************** function _OLED_Clear *****************
  6868 ;; Defined at:
  6869 ;;		line 356 in file "OLED_SSD1306.c"
  6870 ;; Parameters:    Size  Location     Type
  6871 ;;		None
  6872 ;; Auto vars:     Size  Location     Type
  6873 ;;  p               1   12[COMMON] unsigned char 
  6874 ;; Return value:  Size  Location     Type
  6875 ;;                  1    wreg      void 
  6876 ;; Registers used:
  6877 ;;		wreg, fsr0l, fsr0h, fsr1l, fsr1h, status,2, status,0, pclath, cstack
  6878 ;; Tracked objects:
  6879 ;;		On entry : 0/0
  6880 ;;		On exit  : 0/0
  6881 ;;		Unchanged: 0/0
  6882 ;; Data sizes:     COMMON   BANK0   BANK1   BANK2   BANK3   BANK4   BANK5   BANK6   BANK7   BANK8   BANK9  BANK10  BANK1
      +1  BANK12  BANK13  BANK14  BANK15  BANK16  BANK17  BANK18  BANK19  BANK20  BANK21  BANK22  BANK23  BANK24  BANK25
  6883 ;;      Params:         0       0       0       0       0       0       0       0       0       0       0       0       
      +0       0       0       0       0       0       0       0       0       0       0       0       0       0       0
  6884 ;;      Locals:         1       0       0       0       0       0       0       0       0       0       0       0       
      +0       0       0       0       0       0       0       0       0       0       0       0       0       0       0
  6885 ;;      Temps:          0       6       0       0       0       0       0       0       0       0       0       0       
      +0       0       0       0       0       0       0       0       0       0       0       0       0       0       0
  6886 ;;      Totals:         1       6       0       0       0       0       0       0       0       0       0       0       
      +0       0       0       0       0       0       0       0       0       0       0       0       0       0       0
  6887 ;;Total ram usage:        7 bytes
  6888 ;; Hardware stack levels used: 1
  6889 ;; Hardware stack levels required when called: 4
  6890 ;; This function calls:
  6891 ;;		_OLED_WriteData
  6892 ;;		_OLED_YX
  6893 ;;		_memset
  6894 ;; This function is called by:
  6895 ;;		_OLED_Init
  6896 ;;		_main
  6897 ;; This function uses a non-reentrant model
  6898 ;;
  6899                           
  6900     0E09                     _OLED_Clear:	
  6901                           ;psect for function _OLED_Clear
  6902                           
  6903     0E09                     l2360:	
  6904                           ;incstack = 0
  6905                           ; Regs used in _OLED_Clear: [wreg-fsr1h+status,2+status,0+pclath+cstack]
  6906                           
  6907                           
  6908                           ;OLED_SSD1306.c: 358:     for (uint8_t p = 0; p < (32 / 8); p++)
  6909     0E09  01FC               	clrf	OLED_Clear@p
  6910     0E0A                     l2366:
  6911                           
  6912                           ;OLED_SSD1306.c: 359:     {;OLED_SSD1306.c: 360:         memset(screen_buffer[p], 0, 128
      +                          );
  6913     0E0A  087C               	movf	OLED_Clear@p,w
  6914     0E0B  0020               	movlb	0	; select bank0
  6915     0E0C  00A0               	movwf	??_OLED_Clear
  6916     0E0D  01A1               	clrf	??_OLED_Clear+1
  6917     0E0E  3007               	movlw	7
  6918     0E0F                     u1995:
  6919     0E0F  35A0               	lslf	??_OLED_Clear,f
  6920     0E10  0DA1               	rlf	??_OLED_Clear+1,f
  6921     0E11  0B89               	decfsz	9,f
  6922     0E12  2E0F               	goto	u1995
  6923     0E13  30F0               	movlw	240
  6924     0E14  00A2               	movwf	??_OLED_Clear+2
  6925     0E15  3024               	movlw	36
  6926     0E16  00A3               	movwf	??_OLED_Clear+3
  6927     0E17  0820               	movf	??_OLED_Clear,w
  6928     0E18  0722               	addwf	??_OLED_Clear+2,w
  6929     0E19  00F0               	movwf	memset@dest
  6930     0E1A  0821               	movf	??_OLED_Clear+1,w
  6931     0E1B  3D23               	addwfc	??_OLED_Clear+3,w
  6932     0E1C  00F1               	movwf	memset@dest+1
  6933     0E1D  3000               	movlw	0
  6934     0E1E  00F2               	movwf	memset@c
  6935     0E1F  00F3               	movwf	memset@c+1
  6936     0E20  3080               	movlw	128
  6937     0E21  00F4               	movwf	memset@n
  6938     0E22  3000               	movlw	0
  6939     0E23  00F5               	movwf	memset@n+1
  6940     0E24  318B  234D  318E   	fcall	_memset
  6941     0E27                     l2368:
  6942                           
  6943                           ;OLED_SSD1306.c: 362:         OLED_YX(p, 0);
  6944     0E27  01F7               	clrf	OLED_YX@col_char
  6945     0E28  087C               	movf	OLED_Clear@p,w
  6946     0E29  318B  2387  318E   	fcall	_OLED_YX
  6947     0E2C                     l2370:
  6948                           
  6949                           ;OLED_SSD1306.c: 363:         (void)OLED_WriteData(screen_buffer[p], 128);
  6950     0E2C  087C               	movf	OLED_Clear@p,w
  6951     0E2D  0020               	movlb	0	; select bank0
  6952     0E2E  00A0               	movwf	??_OLED_Clear
  6953     0E2F  01A1               	clrf	??_OLED_Clear+1
  6954     0E30  3007               	movlw	7
  6955     0E31                     u2005:
  6956     0E31  35A0               	lslf	??_OLED_Clear,f
  6957     0E32  0DA1               	rlf	??_OLED_Clear+1,f
  6958     0E33  0B89               	decfsz	9,f
  6959     0E34  2E31               	goto	u2005
  6960     0E35  30F0               	movlw	240
  6961     0E36  00A2               	movwf	??_OLED_Clear+2
  6962     0E37  3024               	movlw	36
  6963     0E38  00A3               	movwf	??_OLED_Clear+3
  6964     0E39  0820               	movf	??_OLED_Clear,w
  6965     0E3A  0722               	addwf	??_OLED_Clear+2,w
  6966     0E3B  00A4               	movwf	??_OLED_Clear+4
  6967     0E3C  0821               	movf	??_OLED_Clear+1,w
  6968     0E3D  3D23               	addwfc	??_OLED_Clear+3,w
  6969     0E3E  00A5               	movwf	??_OLED_Clear+5
  6970     0E3F  0824               	movf	??_OLED_Clear+4,w
  6971     0E40  00F5               	movwf	OLED_WriteData@data
  6972     0E41  0825               	movf	??_OLED_Clear+5,w
  6973     0E42  00F6               	movwf	OLED_WriteData@data+1
  6974     0E43  3080               	movlw	128
  6975     0E44  00F7               	movwf	OLED_WriteData@len
  6976     0E45  3000               	movlw	0
  6977     0E46  00F8               	movwf	OLED_WriteData@len+1
  6978     0E47  318E  26A5  318E   	fcall	_OLED_WriteData
  6979     0E4A                     l2372:
  6980                           
  6981                           ;OLED_SSD1306.c: 364:     }
  6982     0E4A  3001               	movlw	1
  6983     0E4B  0020               	movlb	0	; select bank0
  6984     0E4C  00A0               	movwf	??_OLED_Clear
  6985     0E4D  0820               	movf	??_OLED_Clear,w
  6986     0E4E  07FC               	addwf	OLED_Clear@p,f
  6987     0E4F                     l2374:
  6988     0E4F  3004               	movlw	4
  6989     0E50  027C               	subwf	OLED_Clear@p,w
  6990     0E51  1C03               	skipc
  6991     0E52  2E54               	goto	u2011
  6992     0E53  2E55               	goto	u2010
  6993     0E54                     u2011:
  6994     0E54  2E0A               	goto	l2366
  6995     0E55                     u2010:
  6996     0E55                     l139:
  6997     0E55  0008               	return
  6998     0E56                     __end_of_OLED_Clear:
  6999                           
  7000                           	psect	text19
  7001     0B4D                     __ptext19:	
  7002 ;; *************** function _memset *****************
  7003 ;; Defined at:
  7004 ;;		line 3 in file "C:\Program Files\Microchip\xc8\v2.46\pic\sources\c99\common\memset.c"
  7005 ;; Parameters:    Size  Location     Type
  7006 ;;  dest            2    0[COMMON] PTR void 
  7007 ;;		 -> screen_buffer(512), 
  7008 ;;  c               2    2[COMMON] int 
  7009 ;;  n               2    4[COMMON] unsigned int 
  7010 ;; Auto vars:     Size  Location     Type
  7011 ;;  p               2    6[COMMON] PTR unsigned char 
  7012 ;;		 -> screen_buffer(512), 
  7013 ;; Return value:  Size  Location     Type
  7014 ;;                  2    0[COMMON] PTR void 
  7015 ;; Registers used:
  7016 ;;		wreg, fsr1l, fsr1h, status,2, status,0
  7017 ;; Tracked objects:
  7018 ;;		On entry : 0/0
  7019 ;;		On exit  : 0/0
  7020 ;;		Unchanged: 0/0
  7021 ;; Data sizes:     COMMON   BANK0   BANK1   BANK2   BANK3   BANK4   BANK5   BANK6   BANK7   BANK8   BANK9  BANK10  BANK1
      +1  BANK12  BANK13  BANK14  BANK15  BANK16  BANK17  BANK18  BANK19  BANK20  BANK21  BANK22  BANK23  BANK24  BANK25
  7022 ;;      Params:         6       0       0       0       0       0       0       0       0       0       0       0       
      +0       0       0       0       0       0       0       0       0       0       0       0       0       0       0
  7023 ;;      Locals:         2       0       0       0       0       0       0       0       0       0       0       0       
      +0       0       0       0       0       0       0       0       0       0       0       0       0       0       0
  7024 ;;      Temps:          0       0       0       0       0       0       0       0       0       0       0       0       
      +0       0       0       0       0       0       0       0       0       0       0       0       0       0       0
  7025 ;;      Totals:         8       0       0       0       0       0       0       0       0       0       0       0       
      +0       0       0       0       0       0       0       0       0       0       0       0       0       0       0
  7026 ;;Total ram usage:        8 bytes
  7027 ;; Hardware stack levels used: 1
  7028 ;; This function calls:
  7029 ;;		Nothing
  7030 ;; This function is called by:
  7031 ;;		_OLED_Clear
  7032 ;;		_OLED_Printf_Line
  7033 ;; This function uses a non-reentrant model
  7034 ;;
  7035                           
  7036     0B4D                     _memset:	
  7037                           ;psect for function _memset
  7038                           
  7039     0B4D                     l2326:	
  7040                           ;incstack = 0
  7041                           ; Regs used in _memset: [wreg+fsr1l+fsr1h+status,2+status,0]
  7042                           
  7043     0B4D  0871               	movf	memset@dest+1,w
  7044     0B4E  00F7               	movwf	memset@p+1
  7045     0B4F  0870               	movf	memset@dest,w
  7046     0B50  00F6               	movwf	memset@p
  7047     0B51  2B5C               	goto	l2332
  7048     0B52                     l2328:
  7049     0B52  0876               	movf	memset@p,w
  7050     0B53  0086               	movwf	6
  7051     0B54  0877               	movf	memset@p+1,w
  7052     0B55  0087               	movwf	7
  7053     0B56  0872               	movf	memset@c,w
  7054     0B57  0081               	movwf	1
  7055     0B58                     l2330:
  7056     0B58  3001               	movlw	1
  7057     0B59  07F6               	addwf	memset@p,f
  7058     0B5A  3000               	movlw	0
  7059     0B5B  3DF7               	addwfc	memset@p+1,f
  7060     0B5C                     l2332:
  7061     0B5C  3001               	movlw	1
  7062     0B5D  02F4               	subwf	memset@n,f
  7063     0B5E  3000               	movlw	0
  7064     0B5F  3BF5               	subwfb	memset@n+1,f
  7065     0B60  0A74               	incf	memset@n,w
  7066     0B61  1D03               	skipz
  7067     0B62  2B67               	goto	u1911
  7068     0B63  0A75               	incf	memset@n+1,w
  7069     0B64  1D03               	btfss	3,2
  7070     0B65  2B67               	goto	u1911
  7071     0B66  2B68               	goto	u1910
  7072     0B67                     u1911:
  7073     0B67  2B52               	goto	l2328
  7074     0B68                     u1910:
  7075     0B68                     l964:
  7076     0B68  0008               	return
  7077     0B69                     __end_of_memset:
  7078                           
  7079                           	psect	text20
  7080     0B87                     __ptext20:	
  7081 ;; *************** function _OLED_YX *****************
  7082 ;; Defined at:
  7083 ;;		line 283 in file "OLED_SSD1306.c"
  7084 ;; Parameters:    Size  Location     Type
  7085 ;;  page            1    wreg     unsigned char 
  7086 ;;  col_char        1    7[COMMON] unsigned char 
  7087 ;; Auto vars:     Size  Location     Type
  7088 ;;  page            1    9[COMMON] unsigned char 
  7089 ;;  col             1   10[COMMON] unsigned char 
  7090 ;; Return value:  Size  Location     Type
  7091 ;;                  1    wreg      void 
  7092 ;; Registers used:
  7093 ;;		wreg, status,2, status,0, pclath, cstack
  7094 ;; Tracked objects:
  7095 ;;		On entry : 0/0
  7096 ;;		On exit  : 0/0
  7097 ;;		Unchanged: 0/0
  7098 ;; Data sizes:     COMMON   BANK0   BANK1   BANK2   BANK3   BANK4   BANK5   BANK6   BANK7   BANK8   BANK9  BANK10  BANK1
      +1  BANK12  BANK13  BANK14  BANK15  BANK16  BANK17  BANK18  BANK19  BANK20  BANK21  BANK22  BANK23  BANK24  BANK25
  7099 ;;      Params:         1       0       0       0       0       0       0       0       0       0       0       0       
      +0       0       0       0       0       0       0       0       0       0       0       0       0       0       0
  7100 ;;      Locals:         2       0       0       0       0       0       0       0       0       0       0       0       
      +0       0       0       0       0       0       0       0       0       0       0       0       0       0       0
  7101 ;;      Temps:          1       0       0       0       0       0       0       0       0       0       0       0       
      +0       0       0       0       0       0       0       0       0       0       0       0       0       0       0
  7102 ;;      Totals:         4       0       0       0       0       0       0       0       0       0       0       0       
      +0       0       0       0       0       0       0       0       0       0       0       0       0       0       0
  7103 ;;Total ram usage:        4 bytes
  7104 ;; Hardware stack levels used: 1
  7105 ;; Hardware stack levels required when called: 3
  7106 ;; This function calls:
  7107 ;;		_OLED_Command
  7108 ;; This function is called by:
  7109 ;;		_OLED_Clear
  7110 ;;		_OLED_UpdateLine
  7111 ;;		_OLED_WriteString
  7112 ;; This function uses a non-reentrant model
  7113 ;;
  7114                           
  7115     0B87                     _OLED_YX:	
  7116                           ;psect for function _OLED_YX
  7117                           
  7118                           
  7119                           ;incstack = 0
  7120                           ; Regs used in _OLED_YX: [wreg+status,2+status,0+pclath+cstack]
  7121                           ;OLED_YX@page stored from wreg
  7122     0B87  00F9               	movwf	OLED_YX@page
  7123     0B88                     l2318:
  7124                           
  7125                           ;OLED_SSD1306.c: 283: void OLED_YX(uint8_t page, uint8_t col_char);OLED_SSD1306.c: 284: 
      +                          {;OLED_SSD1306.c: 285:     uint8_t col = (uint8_t)(col_char * 8);
  7126     0B88  0877               	movf	OLED_YX@col_char,w
  7127     0B89  00F8               	movwf	??_OLED_YX
  7128     0B8A  3002               	movlw	2
  7129     0B8B                     u1895:
  7130     0B8B  35F8               	lslf	??_OLED_YX,f
  7131     0B8C  3EFF               	addlw	-1
  7132     0B8D  1D03               	skipz
  7133     0B8E  2B8B               	goto	u1895
  7134     0B8F  3578               	lslf	??_OLED_YX,w
  7135     0B90  00FA               	movwf	OLED_YX@col
  7136     0B91                     l2320:
  7137                           
  7138                           ;OLED_SSD1306.c: 287:     (void)OLED_Command(0xB0 | (page & 0x07));
  7139     0B91  0879               	movf	OLED_YX@page,w
  7140     0B92  3907               	andlw	7
  7141     0B93  38B0               	iorlw	176
  7142     0B94  318C  2498  318B   	fcall	_OLED_Command
  7143     0B97                     l2322:
  7144                           
  7145                           ;OLED_SSD1306.c: 288:     (void)OLED_Command(0x00 | (col & 0x0F));
  7146     0B97  087A               	movf	OLED_YX@col,w
  7147     0B98  390F               	andlw	15
  7148     0B99  318C  2498  318B   	fcall	_OLED_Command
  7149     0B9C                     l2324:
  7150                           
  7151                           ;OLED_SSD1306.c: 289:     (void)OLED_Command(0x10 | ((col >> 4) & 0x0F));
  7152     0B9C  087A               	movf	OLED_YX@col,w
  7153     0B9D  00F8               	movwf	??_OLED_YX
  7154     0B9E  3004               	movlw	4
  7155     0B9F                     u1905:
  7156     0B9F  36F8               	lsrf	??_OLED_YX,f
  7157     0BA0  0B89               	decfsz	9,f
  7158     0BA1  2B9F               	goto	u1905
  7159     0BA2  0878               	movf	??_OLED_YX,w
  7160     0BA3  390F               	andlw	15
  7161     0BA4  3810               	iorlw	16
  7162     0BA5  318C  2498  318B   	fcall	_OLED_Command
  7163     0BA8                     l131:
  7164     0BA8  0008               	return
  7165     0BA9                     __end_of_OLED_YX:
  7166                           
  7167                           	psect	text21
  7168     0C98                     __ptext21:	
  7169 ;; *************** function _OLED_Command *****************
  7170 ;; Defined at:
  7171 ;;		line 190 in file "OLED_SSD1306.c"
  7172 ;; Parameters:    Size  Location     Type
  7173 ;;  cmd             1    wreg     unsigned char 
  7174 ;; Auto vars:     Size  Location     Type
  7175 ;;  cmd             1    5[COMMON] unsigned char 
  7176 ;;  st              1    6[COMMON] enum E6043
  7177 ;; Return value:  Size  Location     Type
  7178 ;;                  1    wreg      enum E6043
  7179 ;; Registers used:
  7180 ;;		wreg, status,2, status,0, pclath, cstack
  7181 ;; Tracked objects:
  7182 ;;		On entry : 0/0
  7183 ;;		On exit  : 0/0
  7184 ;;		Unchanged: 0/0
  7185 ;; Data sizes:     COMMON   BANK0   BANK1   BANK2   BANK3   BANK4   BANK5   BANK6   BANK7   BANK8   BANK9  BANK10  BANK1
      +1  BANK12  BANK13  BANK14  BANK15  BANK16  BANK17  BANK18  BANK19  BANK20  BANK21  BANK22  BANK23  BANK24  BANK25
  7186 ;;      Params:         0       0       0       0       0       0       0       0       0       0       0       0       
      +0       0       0       0       0       0       0       0       0       0       0       0       0       0       0
  7187 ;;      Locals:         2       0       0       0       0       0       0       0       0       0       0       0       
      +0       0       0       0       0       0       0       0       0       0       0       0       0       0       0
  7188 ;;      Temps:          0       0       0       0       0       0       0       0       0       0       0       0       
      +0       0       0       0       0       0       0       0       0       0       0       0       0       0       0
  7189 ;;      Totals:         2       0       0       0       0       0       0       0       0       0       0       0       
      +0       0       0       0       0       0       0       0       0       0       0       0       0       0       0
  7190 ;;Total ram usage:        2 bytes
  7191 ;; Hardware stack levels used: 1
  7192 ;; Hardware stack levels required when called: 2
  7193 ;; This function calls:
  7194 ;;		_I2C_Start
  7195 ;;		_I2C_Stop
  7196 ;;		_I2C_WriteByte
  7197 ;;		_SSD1306_CtrlW
  7198 ;; This function is called by:
  7199 ;;		_OLED_SetOrientation
  7200 ;;		_OLED_YX
  7201 ;;		_OLED_Init
  7202 ;;		_OLED_UpdatePartialLine
  7203 ;; This function uses a non-reentrant model
  7204 ;;
  7205                           
  7206     0C98                     _OLED_Command:	
  7207                           ;psect for function _OLED_Command
  7208                           
  7209                           
  7210                           ;incstack = 0
  7211                           ; Regs used in _OLED_Command: [wreg+status,2+status,0+pclath+cstack]
  7212                           ;OLED_Command@cmd stored from wreg
  7213     0C98  00F5               	movwf	OLED_Command@cmd
  7214     0C99                     l2250:
  7215                           
  7216                           ;OLED_SSD1306.c: 190: static I2C_Status_t OLED_Command(uint8_t cmd);OLED_SSD1306.c: 191:
      +                           {;OLED_SSD1306.c: 192:     I2C_Status_t st;;OLED_SSD1306.c: 194:     st = I2C_Start();
  7217     0C99  318B  23F0  318C   	fcall	_I2C_Start
  7218     0C9C  00F6               	movwf	OLED_Command@st
  7219     0C9D                     l2252:
  7220                           
  7221                           ;OLED_SSD1306.c: 195:     if (st != I2C_OK) return st;
  7222     0C9D  0876               	movf	OLED_Command@st,w
  7223     0C9E  1903               	btfsc	3,2
  7224     0C9F  2CA1               	goto	u1801
  7225     0CA0  2CA2               	goto	u1800
  7226     0CA1                     u1801:
  7227     0CA1  2CA3               	goto	l2256
  7228     0CA2                     u1800:
  7229     0CA2  2CC5               	goto	l105
  7230     0CA3                     l2256:
  7231                           
  7232                           ;OLED_SSD1306.c: 197:     st = I2C_WriteByte(SSD1306_CtrlW());
  7233     0CA3  3180  2006  318C   	fcall	_SSD1306_CtrlW
  7234     0CA6  318C  24C6  318C   	fcall	_I2C_WriteByte
  7235     0CA9  00F6               	movwf	OLED_Command@st
  7236     0CAA                     l2258:
  7237                           
  7238                           ;OLED_SSD1306.c: 198:     if (st != I2C_OK) { I2C_Stop(); return st; }
  7239     0CAA  0876               	movf	OLED_Command@st,w
  7240     0CAB  1903               	btfsc	3,2
  7241     0CAC  2CAE               	goto	u1811
  7242     0CAD  2CAF               	goto	u1810
  7243     0CAE                     u1811:
  7244     0CAE  2CB3               	goto	l2264
  7245     0CAF                     u1810:
  7246     0CAF                     l2260:
  7247     0CAF  318B  23A9  318C   	fcall	_I2C_Stop
  7248     0CB2  2CC5               	goto	l105
  7249     0CB3                     l2264:
  7250                           
  7251                           ;OLED_SSD1306.c: 200:     st = I2C_WriteByte(0x00);
  7252     0CB3  3000               	movlw	0
  7253     0CB4  318C  24C6  318C   	fcall	_I2C_WriteByte
  7254     0CB7  00F6               	movwf	OLED_Command@st
  7255     0CB8                     l2266:
  7256                           
  7257                           ;OLED_SSD1306.c: 201:     if (st != I2C_OK) { I2C_Stop(); return st; }
  7258     0CB8  0876               	movf	OLED_Command@st,w
  7259     0CB9  1903               	btfsc	3,2
  7260     0CBA  2CBC               	goto	u1821
  7261     0CBB  2CBD               	goto	u1820
  7262     0CBC                     u1821:
  7263     0CBC  2CBE               	goto	l2272
  7264     0CBD                     u1820:
  7265     0CBD  2CAF               	goto	l2260
  7266     0CBE                     l2272:
  7267     0CBE  0875               	movf	OLED_Command@cmd,w
  7268     0CBF  318C  24C6  318C   	fcall	_I2C_WriteByte
  7269                           
  7270                           ;OLED_SSD1306.c: 204:     I2C_Stop();
  7271     0CC2  318B  23A9  318C   	fcall	_I2C_Stop
  7272     0CC5                     l105:
  7273     0CC5  0008               	return
  7274     0CC6                     __end_of_OLED_Command:
  7275                           
  7276                           	psect	text22
  7277     0EA5                     __ptext22:	
  7278 ;; *************** function _OLED_WriteData *****************
  7279 ;; Defined at:
  7280 ;;		line 215 in file "OLED_SSD1306.c"
  7281 ;; Parameters:    Size  Location     Type
  7282 ;;  data            2    5[COMMON] PTR const unsigned char 
  7283 ;;		 -> OledFont(768), screen_buffer(512), 
  7284 ;;  len             2    7[COMMON] unsigned short 
  7285 ;; Auto vars:     Size  Location     Type
  7286 ;;  i               2    9[COMMON] unsigned short 
  7287 ;;  st              1   11[COMMON] enum E6043
  7288 ;; Return value:  Size  Location     Type
  7289 ;;                  1    wreg      enum E6043
  7290 ;; Registers used:
  7291 ;;		wreg, fsr0l, fsr0h, status,2, status,0, pclath, cstack
  7292 ;; Tracked objects:
  7293 ;;		On entry : 0/0
  7294 ;;		On exit  : 0/0
  7295 ;;		Unchanged: 0/0
  7296 ;; Data sizes:     COMMON   BANK0   BANK1   BANK2   BANK3   BANK4   BANK5   BANK6   BANK7   BANK8   BANK9  BANK10  BANK1
      +1  BANK12  BANK13  BANK14  BANK15  BANK16  BANK17  BANK18  BANK19  BANK20  BANK21  BANK22  BANK23  BANK24  BANK25
  7297 ;;      Params:         4       0       0       0       0       0       0       0       0       0       0       0       
      +0       0       0       0       0       0       0       0       0       0       0       0       0       0       0
  7298 ;;      Locals:         3       0       0       0       0       0       0       0       0       0       0       0       
      +0       0       0       0       0       0       0       0       0       0       0       0       0       0       0
  7299 ;;      Temps:          0       0       0       0       0       0       0       0       0       0       0       0       
      +0       0       0       0       0       0       0       0       0       0       0       0       0       0       0
  7300 ;;      Totals:         7       0       0       0       0       0       0       0       0       0       0       0       
      +0       0       0       0       0       0       0       0       0       0       0       0       0       0       0
  7301 ;;Total ram usage:        7 bytes
  7302 ;; Hardware stack levels used: 1
  7303 ;; Hardware stack levels required when called: 2
  7304 ;; This function calls:
  7305 ;;		_I2C_Start
  7306 ;;		_I2C_Stop
  7307 ;;		_I2C_WriteByte
  7308 ;;		_SSD1306_CtrlW
  7309 ;; This function is called by:
  7310 ;;		_OLED_Clear
  7311 ;;		_OLED_UpdateLine
  7312 ;;		_OLED_UpdatePartialLine
  7313 ;;		_OLED_WriteString
  7314 ;; This function uses a non-reentrant model
  7315 ;;
  7316                           
  7317     0EA5                     _OLED_WriteData:	
  7318                           ;psect for function _OLED_WriteData
  7319                           
  7320     0EA5                     l2276:	
  7321                           ;incstack = 0
  7322                           ; Regs used in _OLED_WriteData: [wreg-fsr0h+status,2+status,0+pclath+cstack]
  7323                           
  7324                           
  7325                           ;OLED_SSD1306.c: 215: static I2C_Status_t OLED_WriteData(const uint8_t* data, uint16_t l
      +                          en);OLED_SSD1306.c: 216: {;OLED_SSD1306.c: 217:     I2C_Status_t st;;OLED_SSD1306.c: 219
      +                          :     if (data == ((void*)0)) return I2C_TIMEOUT;
  7326     0EA5  0875               	movf	OLED_WriteData@data,w
  7327     0EA6  0476               	iorwf	OLED_WriteData@data+1,w
  7328     0EA7  1D03               	btfss	3,2
  7329     0EA8  2EAA               	goto	u1831
  7330     0EA9  2EAB               	goto	u1830
  7331     0EAA                     u1831:
  7332     0EAA  2EAC               	goto	l2280
  7333     0EAB                     u1830:
  7334     0EAB  2EF4               	goto	l111
  7335     0EAC                     l2280:
  7336                           
  7337                           ;OLED_SSD1306.c: 221:     st = I2C_Start();
  7338     0EAC  318B  23F0  318E   	fcall	_I2C_Start
  7339     0EAF  00FB               	movwf	OLED_WriteData@st
  7340     0EB0                     l2282:
  7341                           
  7342                           ;OLED_SSD1306.c: 222:     if (st != I2C_OK) return st;
  7343     0EB0  087B               	movf	OLED_WriteData@st,w
  7344     0EB1  1903               	btfsc	3,2
  7345     0EB2  2EB4               	goto	u1841
  7346     0EB3  2EB5               	goto	u1840
  7347     0EB4                     u1841:
  7348     0EB4  2EB6               	goto	l2286
  7349     0EB5                     u1840:
  7350     0EB5  2EF4               	goto	l111
  7351     0EB6                     l2286:
  7352                           
  7353                           ;OLED_SSD1306.c: 224:     st = I2C_WriteByte(SSD1306_CtrlW());
  7354     0EB6  3180  2006  318E   	fcall	_SSD1306_CtrlW
  7355     0EB9  318C  24C6  318E   	fcall	_I2C_WriteByte
  7356     0EBC  00FB               	movwf	OLED_WriteData@st
  7357     0EBD                     l2288:
  7358                           
  7359                           ;OLED_SSD1306.c: 225:     if (st != I2C_OK) { I2C_Stop(); return st; }
  7360     0EBD  087B               	movf	OLED_WriteData@st,w
  7361     0EBE  1903               	btfsc	3,2
  7362     0EBF  2EC1               	goto	u1851
  7363     0EC0  2EC2               	goto	u1850
  7364     0EC1                     u1851:
  7365     0EC1  2EC6               	goto	l2294
  7366     0EC2                     u1850:
  7367     0EC2                     l2290:
  7368     0EC2  318B  23A9  318E   	fcall	_I2C_Stop
  7369     0EC5  2EF4               	goto	l111
  7370     0EC6                     l2294:
  7371                           
  7372                           ;OLED_SSD1306.c: 227:     st = I2C_WriteByte(0x40);
  7373     0EC6  3040               	movlw	64
  7374     0EC7  318C  24C6  318E   	fcall	_I2C_WriteByte
  7375     0ECA  00FB               	movwf	OLED_WriteData@st
  7376     0ECB                     l2296:
  7377                           
  7378                           ;OLED_SSD1306.c: 228:     if (st != I2C_OK) { I2C_Stop(); return st; }
  7379     0ECB  087B               	movf	OLED_WriteData@st,w
  7380     0ECC  1903               	btfsc	3,2
  7381     0ECD  2ECF               	goto	u1861
  7382     0ECE  2ED0               	goto	u1860
  7383     0ECF                     u1861:
  7384     0ECF  2ED1               	goto	l2302
  7385     0ED0                     u1860:
  7386     0ED0  2EC2               	goto	l2290
  7387     0ED1                     l2302:
  7388                           
  7389                           ;OLED_SSD1306.c: 230:     for (uint16_t i = 0; i < len; i++)
  7390     0ED1  01F9               	clrf	OLED_WriteData@i
  7391     0ED2  01FA               	clrf	OLED_WriteData@i+1
  7392     0ED3  2EE9               	goto	l115
  7393     0ED4                     l2304:
  7394                           
  7395                           ;OLED_SSD1306.c: 231:     {;OLED_SSD1306.c: 232:         st = I2C_WriteByte(data[i]);
  7396     0ED4  0875               	movf	OLED_WriteData@data,w
  7397     0ED5  0779               	addwf	OLED_WriteData@i,w
  7398     0ED6  0084               	movwf	4
  7399     0ED7  0876               	movf	OLED_WriteData@data+1,w
  7400     0ED8  3D7A               	addwfc	OLED_WriteData@i+1,w
  7401     0ED9  0085               	movwf	5
  7402     0EDA  0800               	movf	0,w	;code access
  7403     0EDB  318C  24C6  318E   	fcall	_I2C_WriteByte
  7404     0EDE  00FB               	movwf	OLED_WriteData@st
  7405     0EDF                     l2306:
  7406                           
  7407                           ;OLED_SSD1306.c: 233:         if (st != I2C_OK) { I2C_Stop(); return st; }
  7408     0EDF  087B               	movf	OLED_WriteData@st,w
  7409     0EE0  1903               	btfsc	3,2
  7410     0EE1  2EE3               	goto	u1871
  7411     0EE2  2EE4               	goto	u1870
  7412     0EE3                     u1871:
  7413     0EE3  2EE5               	goto	l2312
  7414     0EE4                     u1870:
  7415     0EE4  2EC2               	goto	l2290
  7416     0EE5                     l2312:
  7417                           
  7418                           ;OLED_SSD1306.c: 234:     }
  7419     0EE5  3001               	movlw	1
  7420     0EE6  07F9               	addwf	OLED_WriteData@i,f
  7421     0EE7  3000               	movlw	0
  7422     0EE8  3DFA               	addwfc	OLED_WriteData@i+1,f
  7423     0EE9                     l115:
  7424     0EE9  0878               	movf	OLED_WriteData@len+1,w
  7425     0EEA  027A               	subwf	OLED_WriteData@i+1,w
  7426     0EEB  1D03               	skipz
  7427     0EEC  2EEF               	goto	u1885
  7428     0EED  0877               	movf	OLED_WriteData@len,w
  7429     0EEE  0279               	subwf	OLED_WriteData@i,w
  7430     0EEF                     u1885:
  7431     0EEF  1C03               	skipc
  7432     0EF0  2EF2               	goto	u1881
  7433     0EF1  2EF3               	goto	u1880
  7434     0EF2                     u1881:
  7435     0EF2  2ED4               	goto	l2304
  7436     0EF3                     u1880:
  7437     0EF3  2EC2               	goto	l2290
  7438     0EF4                     l111:
  7439     0EF4  0008               	return
  7440     0EF5                     __end_of_OLED_WriteData:
  7441                           
  7442                           	psect	text23
  7443     0006                     __ptext23:	
  7444 ;; *************** function _SSD1306_CtrlW *****************
  7445 ;; Defined at:
  7446 ;;		line 182 in file "OLED_SSD1306.c"
  7447 ;; Parameters:    Size  Location     Type
  7448 ;;		None
  7449 ;; Auto vars:     Size  Location     Type
  7450 ;;		None
  7451 ;; Return value:  Size  Location     Type
  7452 ;;                  1    wreg      unsigned char 
  7453 ;; Registers used:
  7454 ;;		wreg
  7455 ;; Tracked objects:
  7456 ;;		On entry : 0/0
  7457 ;;		On exit  : 0/0
  7458 ;;		Unchanged: 0/0
  7459 ;; Data sizes:     COMMON   BANK0   BANK1   BANK2   BANK3   BANK4   BANK5   BANK6   BANK7   BANK8   BANK9  BANK10  BANK1
      +1  BANK12  BANK13  BANK14  BANK15  BANK16  BANK17  BANK18  BANK19  BANK20  BANK21  BANK22  BANK23  BANK24  BANK25
  7460 ;;      Params:         0       0       0       0       0       0       0       0       0       0       0       0       
      +0       0       0       0       0       0       0       0       0       0       0       0       0       0       0
  7461 ;;      Locals:         0       0       0       0       0       0       0       0       0       0       0       0       
      +0       0       0       0       0       0       0       0       0       0       0       0       0       0       0
  7462 ;;      Temps:          0       0       0       0       0       0       0       0       0       0       0       0       
      +0       0       0       0       0       0       0       0       0       0       0       0       0       0       0
  7463 ;;      Totals:         0       0       0       0       0       0       0       0       0       0       0       0       
      +0       0       0       0       0       0       0       0       0       0       0       0       0       0       0
  7464 ;;Total ram usage:        0 bytes
  7465 ;; Hardware stack levels used: 1
  7466 ;; This function calls:
  7467 ;;		Nothing
  7468 ;; This function is called by:
  7469 ;;		_OLED_Command
  7470 ;;		_OLED_WriteData
  7471 ;; This function uses a non-reentrant model
  7472 ;;
  7473                           
  7474     0006                     _SSD1306_CtrlW:	
  7475                           ;psect for function _SSD1306_CtrlW
  7476                           
  7477     0006                     l2246:	
  7478                           ;incstack = 0
  7479                           ; Regs used in _SSD1306_CtrlW: [wreg]
  7480                           
  7481     0006  3078               	movlw	120
  7482     0007                     l101:
  7483     0007  0008               	return
  7484     0008                     __end_of_SSD1306_CtrlW:
  7485                           
  7486                           	psect	text24
  7487     0CC6                     __ptext24:	
  7488 ;; *************** function _I2C_WriteByte *****************
  7489 ;; Defined at:
  7490 ;;		line 161 in file "I2C.c"
  7491 ;; Parameters:    Size  Location     Type
  7492 ;;  data            1    wreg     unsigned char 
  7493 ;; Auto vars:     Size  Location     Type
  7494 ;;  data            1    3[COMMON] unsigned char 
  7495 ;;  st              1    4[COMMON] enum E6036
  7496 ;; Return value:  Size  Location     Type
  7497 ;;                  1    wreg      enum E6036
  7498 ;; Registers used:
  7499 ;;		wreg, status,2, status,0, pclath, cstack
  7500 ;; Tracked objects:
  7501 ;;		On entry : 0/0
  7502 ;;		On exit  : 0/0
  7503 ;;		Unchanged: 0/0
  7504 ;; Data sizes:     COMMON   BANK0   BANK1   BANK2   BANK3   BANK4   BANK5   BANK6   BANK7   BANK8   BANK9  BANK10  BANK1
      +1  BANK12  BANK13  BANK14  BANK15  BANK16  BANK17  BANK18  BANK19  BANK20  BANK21  BANK22  BANK23  BANK24  BANK25
  7505 ;;      Params:         0       0       0       0       0       0       0       0       0       0       0       0       
      +0       0       0       0       0       0       0       0       0       0       0       0       0       0       0
  7506 ;;      Locals:         2       0       0       0       0       0       0       0       0       0       0       0       
      +0       0       0       0       0       0       0       0       0       0       0       0       0       0       0
  7507 ;;      Temps:          0       0       0       0       0       0       0       0       0       0       0       0       
      +0       0       0       0       0       0       0       0       0       0       0       0       0       0       0
  7508 ;;      Totals:         2       0       0       0       0       0       0       0       0       0       0       0       
      +0       0       0       0       0       0       0       0       0       0       0       0       0       0       0
  7509 ;;Total ram usage:        2 bytes
  7510 ;; Hardware stack levels used: 1
  7511 ;; Hardware stack levels required when called: 1
  7512 ;; This function calls:
  7513 ;;		_I2C_WaitIF
  7514 ;;		_I2C_WaitIdle
  7515 ;; This function is called by:
  7516 ;;		_OLED_Command
  7517 ;;		_OLED_WriteData
  7518 ;; This function uses a non-reentrant model
  7519 ;;
  7520                           
  7521     0CC6                     _I2C_WriteByte:	
  7522                           ;psect for function _I2C_WriteByte
  7523                           
  7524                           
  7525                           ;incstack = 0
  7526                           ; Regs used in _I2C_WriteByte: [wreg+status,2+status,0+pclath+cstack]
  7527                           ;I2C_WriteByte@data stored from wreg
  7528     0CC6  00F3               	movwf	I2C_WriteByte@data
  7529     0CC7                     l2218:
  7530                           
  7531                           ;I2C.c: 161: I2C_Status_t I2C_WriteByte(uint8_t data);I2C.c: 162: {;I2C.c: 163:     I2C_
      +                          Status_t st;;I2C.c: 165:     st = I2C_WaitIdle(50);
  7532     0CC7  3032               	movlw	50
  7533     0CC8  00F0               	movwf	I2C_WaitIdle@timeout_ms
  7534     0CC9  3000               	movlw	0
  7535     0CCA  00F1               	movwf	I2C_WaitIdle@timeout_ms+1
  7536     0CCB  318B  23CC  318C   	fcall	_I2C_WaitIdle
  7537     0CCE  00F4               	movwf	I2C_WriteByte@st
  7538     0CCF                     l2220:
  7539                           
  7540                           ;I2C.c: 166:     if (st != I2C_OK) return st;
  7541     0CCF  0874               	movf	I2C_WriteByte@st,w
  7542     0CD0  1903               	btfsc	3,2
  7543     0CD1  2CD3               	goto	u1771
  7544     0CD2  2CD4               	goto	u1770
  7545     0CD3                     u1771:
  7546     0CD3  2CD6               	goto	l60
  7547     0CD4                     u1770:
  7548     0CD4                     l2222:
  7549     0CD4  0874               	movf	I2C_WriteByte@st,w
  7550     0CD5  2CF7               	goto	l61
  7551     0CD6                     l60:
  7552                           
  7553                           ;I2C.c: 168:     PIR1bits.SSP1IF = 0;
  7554     0CD6  0020               	movlb	0	; select bank0
  7555     0CD7  1191               	bcf	17,3	;volatile
  7556     0CD8                     l2226:
  7557                           
  7558                           ;I2C.c: 169:     SSPBUF = data;
  7559     0CD8  0873               	movf	I2C_WriteByte@data,w
  7560     0CD9  0024               	movlb	4	; select bank4
  7561     0CDA  0091               	movwf	17	;volatile
  7562     0CDB                     l2228:
  7563                           
  7564                           ;I2C.c: 171:     st = I2C_WaitIF(50);
  7565     0CDB  3032               	movlw	50
  7566     0CDC  00F0               	movwf	I2C_WaitIF@timeout_ms
  7567     0CDD  3000               	movlw	0
  7568     0CDE  00F1               	movwf	I2C_WaitIF@timeout_ms+1
  7569     0CDF  318B  2369  318C   	fcall	_I2C_WaitIF
  7570     0CE2  00F4               	movwf	I2C_WriteByte@st
  7571     0CE3                     l2230:
  7572                           
  7573                           ;I2C.c: 172:     if (st != I2C_OK) return st;
  7574     0CE3  0874               	movf	I2C_WriteByte@st,w
  7575     0CE4  1903               	btfsc	3,2
  7576     0CE5  2CE7               	goto	u1781
  7577     0CE6  2CE8               	goto	u1780
  7578     0CE7                     u1781:
  7579     0CE7  2CE9               	goto	l62
  7580     0CE8                     u1780:
  7581     0CE8  2CD4               	goto	l2222
  7582     0CE9                     l62:
  7583                           
  7584                           ;I2C.c: 175:     if (PIR2bits.BCL1IF)
  7585     0CE9  0020               	movlb	0	; select bank0
  7586     0CEA  1D92               	btfss	18,3	;volatile
  7587     0CEB  2CED               	goto	u1791
  7588     0CEC  2CEE               	goto	u1790
  7589     0CED                     u1791:
  7590     0CED  2CF1               	goto	l63
  7591     0CEE                     u1790:
  7592     0CEE                     l2236:
  7593                           
  7594                           ;I2C.c: 176:     {;I2C.c: 177:         PIR2bits.BCL1IF = 0;
  7595     0CEE  1192               	bcf	18,3	;volatile
  7596     0CEF                     l2238:
  7597                           
  7598                           ;I2C.c: 178:         return I2C_BUS_COLLISION;
  7599     0CEF  3003               	movlw	3
  7600     0CF0  2CF7               	goto	l61
  7601     0CF1                     l63:	
  7602                           ;I2C.c: 179:     }
  7603                           
  7604                           
  7605                           ;I2C.c: 182:     PIR1bits.SSP1IF = 0;
  7606     0CF1  1191               	bcf	17,3	;volatile
  7607     0CF2                     l2242:
  7608                           
  7609                           ;I2C.c: 183:     return (SSPCON2bits.ACKSTAT == 0) ? I2C_OK : I2C_NAK;
  7610     0CF2  0024               	movlb	4	; select bank4
  7611     0CF3  0E16               	swapf	22,w	;volatile
  7612     0CF4  0C89               	rrf	9,f
  7613     0CF5  0C89               	rrf	9,f
  7614     0CF6  3901               	andlw	1
  7615     0CF7                     l61:
  7616     0CF7  0008               	return
  7617     0CF8                     __end_of_I2C_WriteByte:
  7618                           
  7619                           	psect	text25
  7620     0BA9                     __ptext25:	
  7621 ;; *************** function _I2C_Stop *****************
  7622 ;; Defined at:
  7623 ;;		line 138 in file "I2C.c"
  7624 ;; Parameters:    Size  Location     Type
  7625 ;;		None
  7626 ;; Auto vars:     Size  Location     Type
  7627 ;;  st              1    3[COMMON] enum E6036
  7628 ;; Return value:  Size  Location     Type
  7629 ;;                  1    wreg      enum E6036
  7630 ;; Registers used:
  7631 ;;		wreg, status,2, status,0, pclath, cstack
  7632 ;; Tracked objects:
  7633 ;;		On entry : 0/0
  7634 ;;		On exit  : 0/0
  7635 ;;		Unchanged: 0/0
  7636 ;; Data sizes:     COMMON   BANK0   BANK1   BANK2   BANK3   BANK4   BANK5   BANK6   BANK7   BANK8   BANK9  BANK10  BANK1
      +1  BANK12  BANK13  BANK14  BANK15  BANK16  BANK17  BANK18  BANK19  BANK20  BANK21  BANK22  BANK23  BANK24  BANK25
  7637 ;;      Params:         0       0       0       0       0       0       0       0       0       0       0       0       
      +0       0       0       0       0       0       0       0       0       0       0       0       0       0       0
  7638 ;;      Locals:         1       0       0       0       0       0       0       0       0       0       0       0       
      +0       0       0       0       0       0       0       0       0       0       0       0       0       0       0
  7639 ;;      Temps:          0       0       0       0       0       0       0       0       0       0       0       0       
      +0       0       0       0       0       0       0       0       0       0       0       0       0       0       0
  7640 ;;      Totals:         1       0       0       0       0       0       0       0       0       0       0       0       
      +0       0       0       0       0       0       0       0       0       0       0       0       0       0       0
  7641 ;;Total ram usage:        1 bytes
  7642 ;; Hardware stack levels used: 1
  7643 ;; Hardware stack levels required when called: 1
  7644 ;; This function calls:
  7645 ;;		_I2C_WaitIF
  7646 ;;		_I2C_WaitIdle
  7647 ;; This function is called by:
  7648 ;;		_OLED_Command
  7649 ;;		_OLED_WriteData
  7650 ;; This function uses a non-reentrant model
  7651 ;;
  7652                           
  7653     0BA9                     _I2C_Stop:	
  7654                           ;psect for function _I2C_Stop
  7655                           
  7656     0BA9                     l2206:	
  7657                           ;incstack = 0
  7658                           ; Regs used in _I2C_Stop: [wreg+status,2+status,0+pclath+cstack]
  7659                           
  7660                           
  7661                           ;I2C.c: 140:     I2C_Status_t st;;I2C.c: 142:     st = I2C_WaitIdle(50);
  7662     0BA9  3032               	movlw	50
  7663     0BAA  00F0               	movwf	I2C_WaitIdle@timeout_ms
  7664     0BAB  3000               	movlw	0
  7665     0BAC  00F1               	movwf	I2C_WaitIdle@timeout_ms+1
  7666     0BAD  318B  23CC  318B   	fcall	_I2C_WaitIdle
  7667     0BB0  00F3               	movwf	I2C_Stop@st
  7668     0BB1                     l2208:
  7669                           
  7670                           ;I2C.c: 143:     if (st != I2C_OK) return st;
  7671     0BB1  0873               	movf	I2C_Stop@st,w
  7672     0BB2  1903               	btfsc	3,2
  7673     0BB3  2BB5               	goto	u1751
  7674     0BB4  2BB6               	goto	u1750
  7675     0BB5                     u1751:
  7676     0BB5  2BB7               	goto	l55
  7677     0BB6                     u1750:
  7678     0BB6  2BCB               	goto	l56
  7679     0BB7                     l55:
  7680                           
  7681                           ;I2C.c: 145:     PIR1bits.SSP1IF = 0;
  7682     0BB7  0020               	movlb	0	; select bank0
  7683     0BB8  1191               	bcf	17,3	;volatile
  7684                           
  7685                           ;I2C.c: 146:     SSPCON2bits.PEN = 1;
  7686     0BB9  0024               	movlb	4	; select bank4
  7687     0BBA  1516               	bsf	22,2	;volatile
  7688     0BBB                     l2212:
  7689                           
  7690                           ;I2C.c: 148:     st = I2C_WaitIF(50);
  7691     0BBB  3032               	movlw	50
  7692     0BBC  00F0               	movwf	I2C_WaitIF@timeout_ms
  7693     0BBD  3000               	movlw	0
  7694     0BBE  00F1               	movwf	I2C_WaitIF@timeout_ms+1
  7695     0BBF  318B  2369  318B   	fcall	_I2C_WaitIF
  7696     0BC2  00F3               	movwf	I2C_Stop@st
  7697     0BC3                     l2214:
  7698                           
  7699                           ;I2C.c: 149:     if (st != I2C_OK) return st;
  7700     0BC3  0873               	movf	I2C_Stop@st,w
  7701     0BC4  1903               	btfsc	3,2
  7702     0BC5  2BC7               	goto	u1761
  7703     0BC6  2BC8               	goto	u1760
  7704     0BC7                     u1761:
  7705     0BC7  2BC9               	goto	l57
  7706     0BC8                     u1760:
  7707     0BC8  2BCB               	goto	l56
  7708     0BC9                     l57:
  7709                           
  7710                           ;I2C.c: 151:     PIR1bits.SSP1IF = 0;
  7711     0BC9  0020               	movlb	0	; select bank0
  7712     0BCA  1191               	bcf	17,3	;volatile
  7713     0BCB                     l56:	
  7714                           ;I2C.c: 152:     return I2C_OK;;	Return value of _I2C_Stop is never used
  7715                           
  7716     0BCB  0008               	return
  7717     0BCC                     __end_of_I2C_Stop:
  7718                           
  7719                           	psect	text26
  7720     0BF0                     __ptext26:	
  7721 ;; *************** function _I2C_Start *****************
  7722 ;; Defined at:
  7723 ;;		line 98 in file "I2C.c"
  7724 ;; Parameters:    Size  Location     Type
  7725 ;;		None
  7726 ;; Auto vars:     Size  Location     Type
  7727 ;;  st              1    3[COMMON] enum E6036
  7728 ;; Return value:  Size  Location     Type
  7729 ;;                  1    wreg      enum E6036
  7730 ;; Registers used:
  7731 ;;		wreg, status,2, status,0, pclath, cstack
  7732 ;; Tracked objects:
  7733 ;;		On entry : 0/0
  7734 ;;		On exit  : 0/0
  7735 ;;		Unchanged: 0/0
  7736 ;; Data sizes:     COMMON   BANK0   BANK1   BANK2   BANK3   BANK4   BANK5   BANK6   BANK7   BANK8   BANK9  BANK10  BANK1
      +1  BANK12  BANK13  BANK14  BANK15  BANK16  BANK17  BANK18  BANK19  BANK20  BANK21  BANK22  BANK23  BANK24  BANK25
  7737 ;;      Params:         0       0       0       0       0       0       0       0       0       0       0       0       
      +0       0       0       0       0       0       0       0       0       0       0       0       0       0       0
  7738 ;;      Locals:         1       0       0       0       0       0       0       0       0       0       0       0       
      +0       0       0       0       0       0       0       0       0       0       0       0       0       0       0
  7739 ;;      Temps:          0       0       0       0       0       0       0       0       0       0       0       0       
      +0       0       0       0       0       0       0       0       0       0       0       0       0       0       0
  7740 ;;      Totals:         1       0       0       0       0       0       0       0       0       0       0       0       
      +0       0       0       0       0       0       0       0       0       0       0       0       0       0       0
  7741 ;;Total ram usage:        1 bytes
  7742 ;; Hardware stack levels used: 1
  7743 ;; Hardware stack levels required when called: 1
  7744 ;; This function calls:
  7745 ;;		_I2C_WaitIF
  7746 ;;		_I2C_WaitIdle
  7747 ;; This function is called by:
  7748 ;;		_OLED_Command
  7749 ;;		_OLED_WriteData
  7750 ;; This function uses a non-reentrant model
  7751 ;;
  7752                           
  7753     0BF0                     _I2C_Start:	
  7754                           ;psect for function _I2C_Start
  7755                           
  7756     0BF0                     l2186:	
  7757                           ;incstack = 0
  7758                           ; Regs used in _I2C_Start: [wreg+status,2+status,0+pclath+cstack]
  7759                           
  7760                           
  7761                           ;I2C.c: 100:     I2C_Status_t st;;I2C.c: 102:     st = I2C_WaitIdle(50);
  7762     0BF0  3032               	movlw	50
  7763     0BF1  00F0               	movwf	I2C_WaitIdle@timeout_ms
  7764     0BF2  3000               	movlw	0
  7765     0BF3  00F1               	movwf	I2C_WaitIdle@timeout_ms+1
  7766     0BF4  318B  23CC  318B   	fcall	_I2C_WaitIdle
  7767     0BF7  00F3               	movwf	I2C_Start@st
  7768     0BF8                     l2188:
  7769                           
  7770                           ;I2C.c: 103:     if (st != I2C_OK) return st;
  7771     0BF8  0873               	movf	I2C_Start@st,w
  7772     0BF9  1903               	btfsc	3,2
  7773     0BFA  2BFC               	goto	u1731
  7774     0BFB  2BFD               	goto	u1730
  7775     0BFC                     u1731:
  7776     0BFC  2BFF               	goto	l45
  7777     0BFD                     u1730:
  7778     0BFD                     l2190:
  7779     0BFD  0873               	movf	I2C_Start@st,w
  7780     0BFE  2C14               	goto	l46
  7781     0BFF                     l45:
  7782                           
  7783                           ;I2C.c: 105:     PIR1bits.SSP1IF = 0;
  7784     0BFF  0020               	movlb	0	; select bank0
  7785     0C00  1191               	bcf	17,3	;volatile
  7786                           
  7787                           ;I2C.c: 106:     SSPCON2bits.SEN = 1;
  7788     0C01  0024               	movlb	4	; select bank4
  7789     0C02  1416               	bsf	22,0	;volatile
  7790     0C03                     l2194:
  7791                           
  7792                           ;I2C.c: 108:     st = I2C_WaitIF(50);
  7793     0C03  3032               	movlw	50
  7794     0C04  00F0               	movwf	I2C_WaitIF@timeout_ms
  7795     0C05  3000               	movlw	0
  7796     0C06  00F1               	movwf	I2C_WaitIF@timeout_ms+1
  7797     0C07  318B  2369  318B   	fcall	_I2C_WaitIF
  7798     0C0A  00F3               	movwf	I2C_Start@st
  7799     0C0B                     l2196:
  7800                           
  7801                           ;I2C.c: 109:     if (st != I2C_OK) return st;
  7802     0C0B  0873               	movf	I2C_Start@st,w
  7803     0C0C  1903               	btfsc	3,2
  7804     0C0D  2C0F               	goto	u1741
  7805     0C0E  2C10               	goto	u1740
  7806     0C0F                     u1741:
  7807     0C0F  2C11               	goto	l47
  7808     0C10                     u1740:
  7809     0C10  2BFD               	goto	l2190
  7810     0C11                     l47:
  7811                           
  7812                           ;I2C.c: 111:     PIR1bits.SSP1IF = 0;
  7813     0C11  0020               	movlb	0	; select bank0
  7814     0C12  1191               	bcf	17,3	;volatile
  7815     0C13                     l2202:
  7816                           
  7817                           ;I2C.c: 112:     return I2C_OK;
  7818     0C13  3000               	movlw	0
  7819     0C14                     l46:
  7820     0C14  0008               	return
  7821     0C15                     __end_of_I2C_Start:
  7822                           
  7823                           	psect	text27
  7824     0BCC                     __ptext27:	
  7825 ;; *************** function _I2C_WaitIdle *****************
  7826 ;; Defined at:
  7827 ;;		line 81 in file "I2C.c"
  7828 ;; Parameters:    Size  Location     Type
  7829 ;;  timeout_ms      2    0[COMMON] unsigned short 
  7830 ;; Auto vars:     Size  Location     Type
  7831 ;;		None
  7832 ;; Return value:  Size  Location     Type
  7833 ;;                  1    wreg      enum E6036
  7834 ;; Registers used:
  7835 ;;		wreg, status,2, status,0
  7836 ;; Tracked objects:
  7837 ;;		On entry : 0/0
  7838 ;;		On exit  : 0/0
  7839 ;;		Unchanged: 0/0
  7840 ;; Data sizes:     COMMON   BANK0   BANK1   BANK2   BANK3   BANK4   BANK5   BANK6   BANK7   BANK8   BANK9  BANK10  BANK1
      +1  BANK12  BANK13  BANK14  BANK15  BANK16  BANK17  BANK18  BANK19  BANK20  BANK21  BANK22  BANK23  BANK24  BANK25
  7841 ;;      Params:         2       0       0       0       0       0       0       0       0       0       0       0       
      +0       0       0       0       0       0       0       0       0       0       0       0       0       0       0
  7842 ;;      Locals:         0       0       0       0       0       0       0       0       0       0       0       0       
      +0       0       0       0       0       0       0       0       0       0       0       0       0       0       0
  7843 ;;      Temps:          1       0       0       0       0       0       0       0       0       0       0       0       
      +0       0       0       0       0       0       0       0       0       0       0       0       0       0       0
  7844 ;;      Totals:         3       0       0       0       0       0       0       0       0       0       0       0       
      +0       0       0       0       0       0       0       0       0       0       0       0       0       0       0
  7845 ;;Total ram usage:        3 bytes
  7846 ;; Hardware stack levels used: 1
  7847 ;; This function calls:
  7848 ;;		Nothing
  7849 ;; This function is called by:
  7850 ;;		_I2C_Start
  7851 ;;		_I2C_Stop
  7852 ;;		_I2C_WriteByte
  7853 ;;		_I2C_RepeatedStart
  7854 ;;		_I2C_ReadByte
  7855 ;; This function uses a non-reentrant model
  7856 ;;
  7857                           
  7858     0BCC                     _I2C_WaitIdle:	
  7859                           ;psect for function _I2C_WaitIdle
  7860                           
  7861     0BCC                     l2168:	
  7862                           ;incstack = 0
  7863                           ; Regs used in _I2C_WaitIdle: [wreg+status,2+status,0]
  7864                           
  7865                           
  7866                           ;I2C.c: 81: I2C_Status_t I2C_WaitIdle(uint16_t timeout_ms);I2C.c: 82: {;I2C.c: 83:     w
      +                          hile (timeout_ms--)
  7867     0BCC  2BE2               	goto	l2180
  7868     0BCD                     l2170:
  7869                           
  7870                           ;I2C.c: 84:     {;I2C.c: 87:         if ((SSPCON2 & 0x1F) == 0 && SSPSTATbits.R_nW == 0)
  7871     0BCD  0024               	movlb	4	; select bank4
  7872     0BCE  0816               	movf	22,w	;volatile
  7873     0BCF  391F               	andlw	31
  7874     0BD0  1D03               	btfss	3,2
  7875     0BD1  2BD3               	goto	u1701
  7876     0BD2  2BD4               	goto	u1700
  7877     0BD3                     u1701:
  7878     0BD3  2BDA               	goto	l2178
  7879     0BD4                     u1700:
  7880     0BD4                     l2172:
  7881     0BD4  1914               	btfsc	20,2	;volatile
  7882     0BD5  2BD7               	goto	u1711
  7883     0BD6  2BD8               	goto	u1710
  7884     0BD7                     u1711:
  7885     0BD7  2BDA               	goto	l2178
  7886     0BD8                     u1710:
  7887     0BD8                     l2174:
  7888                           
  7889                           ;I2C.c: 88:             return I2C_OK;
  7890     0BD8  3000               	movlw	0
  7891     0BD9  2BEF               	goto	l41
  7892     0BDA                     l2178:
  7893                           
  7894                           ;I2C.c: 90:         _delay((unsigned long)((1)*(32000000/4000.0)));
  7895     0BDA  300B               	movlw	11
  7896     0BDB  00F2               	movwf	??_I2C_WaitIdle
  7897     0BDC  3062               	movlw	98
  7898     0BDD                     u3377:
  7899     0BDD  0B89               	decfsz	9,f
  7900     0BDE  2BDD               	goto	u3377
  7901     0BDF  0BF2               	decfsz	??_I2C_WaitIdle,f
  7902     0BE0  2BDD               	goto	u3377
  7903     0BE1  3200               	nop2
  7904     0BE2                     l2180:
  7905                           
  7906                           ;I2C.c: 83:     while (timeout_ms--)
  7907     0BE2  3001               	movlw	1
  7908     0BE3  02F0               	subwf	I2C_WaitIdle@timeout_ms,f
  7909     0BE4  3000               	movlw	0
  7910     0BE5  3BF1               	subwfb	I2C_WaitIdle@timeout_ms+1,f
  7911     0BE6  0A70               	incf	I2C_WaitIdle@timeout_ms,w
  7912     0BE7  1D03               	skipz
  7913     0BE8  2BED               	goto	u1721
  7914     0BE9  0A71               	incf	I2C_WaitIdle@timeout_ms+1,w
  7915     0BEA  1D03               	btfss	3,2
  7916     0BEB  2BED               	goto	u1721
  7917     0BEC  2BEE               	goto	u1720
  7918     0BED                     u1721:
  7919     0BED  2BCD               	goto	l2170
  7920     0BEE                     u1720:
  7921     0BEE                     l2182:
  7922                           
  7923                           ;I2C.c: 92:     return I2C_TIMEOUT;
  7924     0BEE  3002               	movlw	2
  7925     0BEF                     l41:
  7926     0BEF  0008               	return
  7927     0BF0                     __end_of_I2C_WaitIdle:
  7928                           
  7929                           	psect	text28
  7930     0B69                     __ptext28:	
  7931 ;; *************** function _I2C_WaitIF *****************
  7932 ;; Defined at:
  7933 ;;		line 23 in file "I2C.c"
  7934 ;; Parameters:    Size  Location     Type
  7935 ;;  timeout_ms      2    0[COMMON] unsigned short 
  7936 ;; Auto vars:     Size  Location     Type
  7937 ;;		None
  7938 ;; Return value:  Size  Location     Type
  7939 ;;                  1    wreg      enum E6036
  7940 ;; Registers used:
  7941 ;;		wreg, status,2, status,0
  7942 ;; Tracked objects:
  7943 ;;		On entry : 0/0
  7944 ;;		On exit  : 0/0
  7945 ;;		Unchanged: 0/0
  7946 ;; Data sizes:     COMMON   BANK0   BANK1   BANK2   BANK3   BANK4   BANK5   BANK6   BANK7   BANK8   BANK9  BANK10  BANK1
      +1  BANK12  BANK13  BANK14  BANK15  BANK16  BANK17  BANK18  BANK19  BANK20  BANK21  BANK22  BANK23  BANK24  BANK25
  7947 ;;      Params:         2       0       0       0       0       0       0       0       0       0       0       0       
      +0       0       0       0       0       0       0       0       0       0       0       0       0       0       0
  7948 ;;      Locals:         0       0       0       0       0       0       0       0       0       0       0       0       
      +0       0       0       0       0       0       0       0       0       0       0       0       0       0       0
  7949 ;;      Temps:          1       0       0       0       0       0       0       0       0       0       0       0       
      +0       0       0       0       0       0       0       0       0       0       0       0       0       0       0
  7950 ;;      Totals:         3       0       0       0       0       0       0       0       0       0       0       0       
      +0       0       0       0       0       0       0       0       0       0       0       0       0       0       0
  7951 ;;Total ram usage:        3 bytes
  7952 ;; Hardware stack levels used: 1
  7953 ;; This function calls:
  7954 ;;		Nothing
  7955 ;; This function is called by:
  7956 ;;		_I2C_Start
  7957 ;;		_I2C_Stop
  7958 ;;		_I2C_WriteByte
  7959 ;;		_I2C_RepeatedStart
  7960 ;;		_I2C_ReadByte
  7961 ;; This function uses a non-reentrant model
  7962 ;;
  7963                           
  7964     0B69                     _I2C_WaitIF:	
  7965                           ;psect for function _I2C_WaitIF
  7966                           
  7967     0B69                     l2154:	
  7968                           ;incstack = 0
  7969                           ; Regs used in _I2C_WaitIF: [wreg+status,2+status,0]
  7970                           
  7971                           
  7972                           ;I2C.c: 23: static I2C_Status_t I2C_WaitIF(uint16_t timeout_ms);I2C.c: 24: {;I2C.c: 25: 
      +                              while (timeout_ms--)
  7973     0B69  2B79               	goto	l2162
  7974     0B6A                     l26:
  7975                           
  7976                           ;I2C.c: 26:     {;I2C.c: 27:         if (PIR1bits.SSP1IF)
  7977     0B6A  0020               	movlb	0	; select bank0
  7978     0B6B  1D91               	btfss	17,3	;volatile
  7979     0B6C  2B6E               	goto	u1681
  7980     0B6D  2B6F               	goto	u1680
  7981     0B6E                     u1681:
  7982     0B6E  2B71               	goto	l2160
  7983     0B6F                     u1680:
  7984     0B6F                     l2156:
  7985                           
  7986                           ;I2C.c: 28:             return I2C_OK;
  7987     0B6F  3000               	movlw	0
  7988     0B70  2B86               	goto	l28
  7989     0B71                     l2160:
  7990                           
  7991                           ;I2C.c: 30:         _delay((unsigned long)((1)*(32000000/4000.0)));
  7992     0B71  300B               	movlw	11
  7993     0B72  00F2               	movwf	??_I2C_WaitIF
  7994     0B73  3062               	movlw	98
  7995     0B74                     u3387:
  7996     0B74  0B89               	decfsz	9,f
  7997     0B75  2B74               	goto	u3387
  7998     0B76  0BF2               	decfsz	??_I2C_WaitIF,f
  7999     0B77  2B74               	goto	u3387
  8000     0B78  3200               	nop2
  8001     0B79                     l2162:
  8002                           
  8003                           ;I2C.c: 25:     while (timeout_ms--)
  8004     0B79  3001               	movlw	1
  8005     0B7A  02F0               	subwf	I2C_WaitIF@timeout_ms,f
  8006     0B7B  3000               	movlw	0
  8007     0B7C  3BF1               	subwfb	I2C_WaitIF@timeout_ms+1,f
  8008     0B7D  0A70               	incf	I2C_WaitIF@timeout_ms,w
  8009     0B7E  1D03               	skipz
  8010     0B7F  2B84               	goto	u1691
  8011     0B80  0A71               	incf	I2C_WaitIF@timeout_ms+1,w
  8012     0B81  1D03               	btfss	3,2
  8013     0B82  2B84               	goto	u1691
  8014     0B83  2B85               	goto	u1690
  8015     0B84                     u1691:
  8016     0B84  2B6A               	goto	l26
  8017     0B85                     u1690:
  8018     0B85                     l2164:
  8019                           
  8020                           ;I2C.c: 32:     return I2C_TIMEOUT;
  8021     0B85  3002               	movlw	2
  8022     0B86                     l28:
  8023     0B86  0008               	return
  8024     0B87                     __end_of_I2C_WaitIF:
  8025                           
  8026                           	psect	text29
  8027     009B                     __ptext29:	
  8028 ;; *************** function _Joystick_Read *****************
  8029 ;; Defined at:
  8030 ;;		line 150 in file "main.c"
  8031 ;; Parameters:    Size  Location     Type
  8032 ;;  joy             1    wreg     PTR struct .
  8033 ;;		 -> main@joy(10), 
  8034 ;; Auto vars:     Size  Location     Type
  8035 ;;  joy             1   16[BANK0 ] PTR struct .
  8036 ;;		 -> main@joy(10), 
  8037 ;; Return value:  Size  Location     Type
  8038 ;;                  1    wreg      void 
  8039 ;; Registers used:
  8040 ;;		wreg, fsr1l, fsr1h, status,2, status,0, pclath, cstack
  8041 ;; Tracked objects:
  8042 ;;		On entry : 0/0
  8043 ;;		On exit  : 0/0
  8044 ;;		Unchanged: 0/0
  8045 ;; Data sizes:     COMMON   BANK0   BANK1   BANK2   BANK3   BANK4   BANK5   BANK6   BANK7   BANK8   BANK9  BANK10  BANK1
      +1  BANK12  BANK13  BANK14  BANK15  BANK16  BANK17  BANK18  BANK19  BANK20  BANK21  BANK22  BANK23  BANK24  BANK25
  8046 ;;      Params:         0       0       0       0       0       0       0       0       0       0       0       0       
      +0       0       0       0       0       0       0       0       0       0       0       0       0       0       0
  8047 ;;      Locals:         0       1       0       0       0       0       0       0       0       0       0       0       
      +0       0       0       0       0       0       0       0       0       0       0       0       0       0       0
  8048 ;;      Temps:          0       4       0       0       0       0       0       0       0       0       0       0       
      +0       0       0       0       0       0       0       0       0       0       0       0       0       0       0
  8049 ;;      Totals:         0       5       0       0       0       0       0       0       0       0       0       0       
      +0       0       0       0       0       0       0       0       0       0       0       0       0       0       0
  8050 ;;Total ram usage:        5 bytes
  8051 ;; Hardware stack levels used: 1
  8052 ;; Hardware stack levels required when called: 2
  8053 ;; This function calls:
  8054 ;;		_ADC_Read_Averaged
  8055 ;;		_Joystick_GetDirection
  8056 ;; This function is called by:
  8057 ;;		_main
  8058 ;; This function uses a non-reentrant model
  8059 ;;
  8060                           
  8061     009B                     _Joystick_Read:	
  8062                           ;psect for function _Joystick_Read
  8063                           
  8064                           
  8065                           ;incstack = 0
  8066                           ; Regs used in _Joystick_Read: [wreg+fsr1l+fsr1h+status,2+status,0+pclath+cstack]
  8067                           ;Joystick_Read@joy stored from wreg
  8068     009B  0020               	movlb	0	; select bank0
  8069     009C  00B0               	movwf	Joystick_Read@joy
  8070     009D                     l3076:
  8071                           
  8072                           ;main.c: 150: void Joystick_Read(joystick_t *joy);main.c: 151: {;main.c: 153:     joy->r
      +                          aw_x = ADC_Read_Averaged(ADC_AN0, 8);
  8073     009D  3008               	movlw	8
  8074     009E  00A0               	movwf	ADC_Read_Averaged@samples
  8075     009F  3000               	movlw	0
  8076     00A0  3181  2162  3180   	fcall	_ADC_Read_Averaged
  8077     00A3  0020               	movlb	0	; select bank0
  8078     00A4  0830               	movf	Joystick_Read@joy,w
  8079     00A5  0086               	movwf	6
  8080     00A6  0187               	clrf	7
  8081     00A7  0820               	movf	?_ADC_Read_Averaged,w
  8082     00A8  3FC0               	movwi [0]fsr1
  8083     00A9  0821               	movf	?_ADC_Read_Averaged+1,w
  8084     00AA  3FC1               	movwi [1]fsr1
  8085                           
  8086                           ;main.c: 154:     joy->raw_y = ADC_Read_Averaged(ADC_AN1, 8);
  8087     00AB  3008               	movlw	8
  8088     00AC  00A0               	movwf	ADC_Read_Averaged@samples
  8089     00AD  3001               	movlw	1
  8090     00AE  3181  2162  3180   	fcall	_ADC_Read_Averaged
  8091     00B1  0020               	movlb	0	; select bank0
  8092     00B2  0830               	movf	Joystick_Read@joy,w
  8093     00B3  3E02               	addlw	2
  8094     00B4  0086               	movwf	6
  8095     00B5  0187               	clrf	7
  8096     00B6  0820               	movf	?_ADC_Read_Averaged,w
  8097     00B7  3FC0               	movwi [0]fsr1
  8098     00B8  0821               	movf	?_ADC_Read_Averaged+1,w
  8099     00B9  3FC1               	movwi [1]fsr1
  8100     00BA                     l3078:
  8101                           
  8102                           ;main.c: 157:     joy->x = (int16_t)joy->raw_x - 512;
  8103     00BA  0830               	movf	Joystick_Read@joy,w
  8104     00BB  0086               	movwf	6
  8105     00BC  0187               	clrf	7
  8106     00BD  3F40               	moviw [0]fsr1
  8107     00BE  00AC               	movwf	??_Joystick_Read
  8108     00BF  3F41               	moviw [1]fsr1
  8109     00C0  00AD               	movwf	??_Joystick_Read+1
  8110     00C1  082C               	movf	??_Joystick_Read,w
  8111     00C2  3E00               	addlw	0
  8112     00C3  00AE               	movwf	??_Joystick_Read+2
  8113     00C4  30FE               	movlw	254
  8114     00C5  3D2D               	addwfc	??_Joystick_Read+1,w
  8115     00C6  00AF               	movwf	??_Joystick_Read+3
  8116     00C7  0830               	movf	Joystick_Read@joy,w
  8117     00C8  3E04               	addlw	4
  8118     00C9  0086               	movwf	6
  8119     00CA  0187               	clrf	7
  8120     00CB  082E               	movf	??_Joystick_Read+2,w
  8121     00CC  3FC0               	movwi [0]fsr1
  8122     00CD  082F               	movf	??_Joystick_Read+3,w
  8123     00CE  3FC1               	movwi [1]fsr1
  8124     00CF                     l3080:
  8125                           
  8126                           ;main.c: 158:     joy->y = (int16_t)joy->raw_y - 512;
  8127     00CF  0830               	movf	Joystick_Read@joy,w
  8128     00D0  3E02               	addlw	2
  8129     00D1  0086               	movwf	6
  8130     00D2  0187               	clrf	7
  8131     00D3  3F40               	moviw [0]fsr1
  8132     00D4  00AC               	movwf	??_Joystick_Read
  8133     00D5  3F41               	moviw [1]fsr1
  8134     00D6  00AD               	movwf	??_Joystick_Read+1
  8135     00D7  082C               	movf	??_Joystick_Read,w
  8136     00D8  3E00               	addlw	0
  8137     00D9  00AE               	movwf	??_Joystick_Read+2
  8138     00DA  30FE               	movlw	254
  8139     00DB  3D2D               	addwfc	??_Joystick_Read+1,w
  8140     00DC  00AF               	movwf	??_Joystick_Read+3
  8141     00DD  0830               	movf	Joystick_Read@joy,w
  8142     00DE  3E06               	addlw	6
  8143     00DF  0086               	movwf	6
  8144     00E0  0187               	clrf	7
  8145     00E1  082E               	movf	??_Joystick_Read+2,w
  8146     00E2  3FC0               	movwi [0]fsr1
  8147     00E3  082F               	movf	??_Joystick_Read+3,w
  8148     00E4  3FC1               	movwi [1]fsr1
  8149     00E5                     l3082:
  8150                           
  8151                           ;main.c: 161:     joy->button = (PORTBbits.RB0 == 0) ? 1 : 0;
  8152     00E5  0830               	movf	Joystick_Read@joy,w
  8153     00E6  3E09               	addlw	9
  8154     00E7  0086               	movwf	6
  8155     00E8  0187               	clrf	7
  8156     00E9  1003               	clrc
  8157     00EA  1C0D               	btfss	13,0	;volatile
  8158     00EB  1403               	setc
  8159     00EC  3000               	movlw	0
  8160     00ED  1803               	btfsc	3,0
  8161     00EE  3001               	movlw	1
  8162     00EF  0081               	movwf	1
  8163     00F0                     l3084:
  8164                           
  8165                           ;main.c: 164:     joy->direction = Joystick_GetDirection(joy);
  8166     00F0  0830               	movf	Joystick_Read@joy,w
  8167     00F1  318F  27A2  3180   	fcall	_Joystick_GetDirection
  8168     00F4  0020               	movlb	0	; select bank0
  8169     00F5  00AC               	movwf	??_Joystick_Read
  8170     00F6  0830               	movf	Joystick_Read@joy,w
  8171     00F7  3E08               	addlw	8
  8172     00F8  0086               	movwf	6
  8173     00F9  0187               	clrf	7
  8174     00FA  082C               	movf	??_Joystick_Read,w
  8175     00FB  0081               	movwf	1
  8176     00FC                     l393:
  8177     00FC  0008               	return
  8178     00FD                     __end_of_Joystick_Read:
  8179                           
  8180                           	psect	text30
  8181     0FA2                     __ptext30:	
  8182 ;; *************** function _Joystick_GetDirection *****************
  8183 ;; Defined at:
  8184 ;;		line 174 in file "main.c"
  8185 ;; Parameters:    Size  Location     Type
  8186 ;;  joy             1    wreg     PTR struct .
  8187 ;;		 -> main@joy(10), 
  8188 ;; Auto vars:     Size  Location     Type
  8189 ;;  joy             1    4[COMMON] PTR struct .
  8190 ;;		 -> main@joy(10), 
  8191 ;;  dir             1    3[COMMON] unsigned char 
  8192 ;; Return value:  Size  Location     Type
  8193 ;;                  1    wreg      unsigned char 
  8194 ;; Registers used:
  8195 ;;		wreg, fsr1l, fsr1h, status,2, status,0
  8196 ;; Tracked objects:
  8197 ;;		On entry : 0/0
  8198 ;;		On exit  : 0/0
  8199 ;;		Unchanged: 0/0
  8200 ;; Data sizes:     COMMON   BANK0   BANK1   BANK2   BANK3   BANK4   BANK5   BANK6   BANK7   BANK8   BANK9  BANK10  BANK1
      +1  BANK12  BANK13  BANK14  BANK15  BANK16  BANK17  BANK18  BANK19  BANK20  BANK21  BANK22  BANK23  BANK24  BANK25
  8201 ;;      Params:         0       0       0       0       0       0       0       0       0       0       0       0       
      +0       0       0       0       0       0       0       0       0       0       0       0       0       0       0
  8202 ;;      Locals:         2       0       0       0       0       0       0       0       0       0       0       0       
      +0       0       0       0       0       0       0       0       0       0       0       0       0       0       0
  8203 ;;      Temps:          3       0       0       0       0       0       0       0       0       0       0       0       
      +0       0       0       0       0       0       0       0       0       0       0       0       0       0       0
  8204 ;;      Totals:         5       0       0       0       0       0       0       0       0       0       0       0       
      +0       0       0       0       0       0       0       0       0       0       0       0       0       0       0
  8205 ;;Total ram usage:        5 bytes
  8206 ;; Hardware stack levels used: 1
  8207 ;; This function calls:
  8208 ;;		Nothing
  8209 ;; This function is called by:
  8210 ;;		_Joystick_Read
  8211 ;; This function uses a non-reentrant model
  8212 ;;
  8213                           
  8214     0FA2                     _Joystick_GetDirection:	
  8215                           ;psect for function _Joystick_GetDirection
  8216                           
  8217                           
  8218                           ;incstack = 0
  8219                           ; Regs used in _Joystick_GetDirection: [wreg+fsr1l+fsr1h+status,2+status,0]
  8220                           ;Joystick_GetDirection@joy stored from wreg
  8221     0FA2  00F4               	movwf	Joystick_GetDirection@joy
  8222     0FA3                     l2446:
  8223                           
  8224                           ;main.c: 174: uint8_t Joystick_GetDirection(joystick_t *joy);main.c: 175: {;main.c: 176:
      +                               uint8_t dir = 0x00;
  8225     0FA3  01F3               	clrf	Joystick_GetDirection@dir
  8226     0FA4                     l2448:
  8227                           
  8228                           ;main.c: 179:     if (joy->x > 50)
  8229     0FA4  0874               	movf	Joystick_GetDirection@joy,w
  8230     0FA5  3E04               	addlw	4
  8231     0FA6  0086               	movwf	6
  8232     0FA7  0187               	clrf	7
  8233     0FA8  3F40               	moviw [0]fsr1
  8234     0FA9  00F0               	movwf	??_Joystick_GetDirection
  8235     0FAA  3F41               	moviw [1]fsr1
  8236     0FAB  00F1               	movwf	??_Joystick_GetDirection+1
  8237     0FAC  0871               	movf	??_Joystick_GetDirection+1,w
  8238     0FAD  3A80               	xorlw	128
  8239     0FAE  00F2               	movwf	??_Joystick_GetDirection+2
  8240     0FAF  3080               	movlw	128
  8241     0FB0  0272               	subwf	??_Joystick_GetDirection+2,w
  8242     0FB1  1D03               	skipz
  8243     0FB2  2FB5               	goto	u2115
  8244     0FB3  3033               	movlw	51
  8245     0FB4  0270               	subwf	??_Joystick_GetDirection,w
  8246     0FB5                     u2115:
  8247     0FB5  1C03               	skipc
  8248     0FB6  2FB8               	goto	u2111
  8249     0FB7  2FB9               	goto	u2110
  8250     0FB8                     u2111:
  8251     0FB8  2FBB               	goto	l2452
  8252     0FB9                     u2110:
  8253     0FB9                     l2450:
  8254                           
  8255                           ;main.c: 180:         dir |= 0x08;
  8256     0FB9  15F3               	bsf	Joystick_GetDirection@dir,3
  8257     0FBA  2FD1               	goto	l2456
  8258     0FBB                     l2452:
  8259     0FBB  0874               	movf	Joystick_GetDirection@joy,w
  8260     0FBC  3E04               	addlw	4
  8261     0FBD  0086               	movwf	6
  8262     0FBE  0187               	clrf	7
  8263     0FBF  3F40               	moviw [0]fsr1
  8264     0FC0  00F0               	movwf	??_Joystick_GetDirection
  8265     0FC1  3F41               	moviw [1]fsr1
  8266     0FC2  00F1               	movwf	??_Joystick_GetDirection+1
  8267     0FC3  0871               	movf	??_Joystick_GetDirection+1,w
  8268     0FC4  3A80               	xorlw	128
  8269     0FC5  00F2               	movwf	??_Joystick_GetDirection+2
  8270     0FC6  307F               	movlw	127
  8271     0FC7  0272               	subwf	??_Joystick_GetDirection+2,w
  8272     0FC8  1D03               	skipz
  8273     0FC9  2FCC               	goto	u2125
  8274     0FCA  30CE               	movlw	206
  8275     0FCB  0270               	subwf	??_Joystick_GetDirection,w
  8276     0FCC                     u2125:
  8277     0FCC  1803               	skipnc
  8278     0FCD  2FCF               	goto	u2121
  8279     0FCE  2FD0               	goto	u2120
  8280     0FCF                     u2121:
  8281     0FCF  2FD1               	goto	l2456
  8282     0FD0                     u2120:
  8283     0FD0                     l2454:
  8284                           
  8285                           ;main.c: 182:         dir |= 0x04;
  8286     0FD0  1573               	bsf	Joystick_GetDirection@dir,2
  8287     0FD1                     l2456:
  8288                           
  8289                           ;main.c: 186:     if (joy->y > 50)
  8290     0FD1  0874               	movf	Joystick_GetDirection@joy,w
  8291     0FD2  3E06               	addlw	6
  8292     0FD3  0086               	movwf	6
  8293     0FD4  0187               	clrf	7
  8294     0FD5  3F40               	moviw [0]fsr1
  8295     0FD6  00F0               	movwf	??_Joystick_GetDirection
  8296     0FD7  3F41               	moviw [1]fsr1
  8297     0FD8  00F1               	movwf	??_Joystick_GetDirection+1
  8298     0FD9  0871               	movf	??_Joystick_GetDirection+1,w
  8299     0FDA  3A80               	xorlw	128
  8300     0FDB  00F2               	movwf	??_Joystick_GetDirection+2
  8301     0FDC  3080               	movlw	128
  8302     0FDD  0272               	subwf	??_Joystick_GetDirection+2,w
  8303     0FDE  1D03               	skipz
  8304     0FDF  2FE2               	goto	u2135
  8305     0FE0  3033               	movlw	51
  8306     0FE1  0270               	subwf	??_Joystick_GetDirection,w
  8307     0FE2                     u2135:
  8308     0FE2  1C03               	skipc
  8309     0FE3  2FE5               	goto	u2131
  8310     0FE4  2FE6               	goto	u2130
  8311     0FE5                     u2131:
  8312     0FE5  2FE8               	goto	l2460
  8313     0FE6                     u2130:
  8314     0FE6                     l2458:
  8315                           
  8316                           ;main.c: 187:         dir |= 0x02;
  8317     0FE6  14F3               	bsf	Joystick_GetDirection@dir,1
  8318     0FE7  2FFE               	goto	l2464
  8319     0FE8                     l2460:
  8320     0FE8  0874               	movf	Joystick_GetDirection@joy,w
  8321     0FE9  3E06               	addlw	6
  8322     0FEA  0086               	movwf	6
  8323     0FEB  0187               	clrf	7
  8324     0FEC  3F40               	moviw [0]fsr1
  8325     0FED  00F0               	movwf	??_Joystick_GetDirection
  8326     0FEE  3F41               	moviw [1]fsr1
  8327     0FEF  00F1               	movwf	??_Joystick_GetDirection+1
  8328     0FF0  0871               	movf	??_Joystick_GetDirection+1,w
  8329     0FF1  3A80               	xorlw	128
  8330     0FF2  00F2               	movwf	??_Joystick_GetDirection+2
  8331     0FF3  307F               	movlw	127
  8332     0FF4  0272               	subwf	??_Joystick_GetDirection+2,w
  8333     0FF5  1D03               	skipz
  8334     0FF6  2FF9               	goto	u2145
  8335     0FF7  30CE               	movlw	206
  8336     0FF8  0270               	subwf	??_Joystick_GetDirection,w
  8337     0FF9                     u2145:
  8338     0FF9  1803               	skipnc
  8339     0FFA  2FFC               	goto	u2141
  8340     0FFB  2FFD               	goto	u2140
  8341     0FFC                     u2141:
  8342     0FFC  2FFE               	goto	l2464
  8343     0FFD                     u2140:
  8344     0FFD                     l2462:
  8345                           
  8346                           ;main.c: 189:         dir |= 0x01;
  8347     0FFD  1473               	bsf	Joystick_GetDirection@dir,0
  8348     0FFE                     l2464:
  8349                           
  8350                           ;main.c: 191:     return dir;
  8351     0FFE  0873               	movf	Joystick_GetDirection@dir,w
  8352     0FFF                     l402:
  8353     0FFF  0008               	return
  8354     1000                     __end_of_Joystick_GetDirection:
  8355                           
  8356                           	psect	text31
  8357     0162                     __ptext31:	
  8358 ;; *************** function _ADC_Read_Averaged *****************
  8359 ;; Defined at:
  8360 ;;		line 99 in file "./ADC.h"
  8361 ;; Parameters:    Size  Location     Type
  8362 ;;  channel         1    wreg     enum E6091
  8363 ;;  samples         1    0[BANK0 ] unsigned char 
  8364 ;; Auto vars:     Size  Location     Type
  8365 ;;  channel         1    6[BANK0 ] enum E6091
  8366 ;;  i               1   11[BANK0 ] unsigned char 
  8367 ;;  sum             4    7[BANK0 ] unsigned long 
  8368 ;; Return value:  Size  Location     Type
  8369 ;;                  2    0[BANK0 ] unsigned short 
  8370 ;; Registers used:
  8371 ;;		wreg, status,2, status,0, pclath, cstack
  8372 ;; Tracked objects:
  8373 ;;		On entry : 0/0
  8374 ;;		On exit  : 0/0
  8375 ;;		Unchanged: 0/0
  8376 ;; Data sizes:     COMMON   BANK0   BANK1   BANK2   BANK3   BANK4   BANK5   BANK6   BANK7   BANK8   BANK9  BANK10  BANK1
      +1  BANK12  BANK13  BANK14  BANK15  BANK16  BANK17  BANK18  BANK19  BANK20  BANK21  BANK22  BANK23  BANK24  BANK25
  8377 ;;      Params:         0       2       0       0       0       0       0       0       0       0       0       0       
      +0       0       0       0       0       0       0       0       0       0       0       0       0       0       0
  8378 ;;      Locals:         0       6       0       0       0       0       0       0       0       0       0       0       
      +0       0       0       0       0       0       0       0       0       0       0       0       0       0       0
  8379 ;;      Temps:          0       4       0       0       0       0       0       0       0       0       0       0       
      +0       0       0       0       0       0       0       0       0       0       0       0       0       0       0
  8380 ;;      Totals:         0      12       0       0       0       0       0       0       0       0       0       0       
      +0       0       0       0       0       0       0       0       0       0       0       0       0       0       0
  8381 ;;Total ram usage:       12 bytes
  8382 ;; Hardware stack levels used: 1
  8383 ;; Hardware stack levels required when called: 1
  8384 ;; This function calls:
  8385 ;;		___lldiv
  8386 ;; This function is called by:
  8387 ;;		_Joystick_Read
  8388 ;; This function uses a non-reentrant model
  8389 ;;
  8390                           
  8391     0162                     _ADC_Read_Averaged:	
  8392                           ;psect for function _ADC_Read_Averaged
  8393                           
  8394                           
  8395                           ;incstack = 0
  8396                           ; Regs used in _ADC_Read_Averaged: [wreg+status,2+status,0+pclath+cstack]
  8397                           ;ADC_Read_Averaged@channel stored from wreg
  8398     0162  0020               	movlb	0	; select bank0
  8399     0163  00A6               	movwf	ADC_Read_Averaged@channel
  8400     0164                     l2424:
  8401                           
  8402                           ;./ADC.h: 99: uint16_t ADC_Read_Averaged(adc_channel_t channel, uint8_t samples);./ADC.h
      +                          : 100: {;./ADC.h: 101:     uint32_t sum = 0;
  8403     0164  3000               	movlw	0
  8404     0165  00AA               	movwf	ADC_Read_Averaged@sum+3
  8405     0166  3000               	movlw	0
  8406     0167  00A9               	movwf	ADC_Read_Averaged@sum+2
  8407     0168  3000               	movlw	0
  8408     0169  00A8               	movwf	ADC_Read_Averaged@sum+1
  8409     016A  3000               	movlw	0
  8410     016B  00A7               	movwf	ADC_Read_Averaged@sum
  8411     016C                     l2426:
  8412                           
  8413                           ;./ADC.h: 104:     ADCON0bits.CHS = (uint8_t)channel;
  8414     016C  0826               	movf	ADC_Read_Averaged@channel,w
  8415     016D  00A2               	movwf	??_ADC_Read_Averaged
  8416     016E  0DA2               	rlf	??_ADC_Read_Averaged,f
  8417     016F  0DA2               	rlf	??_ADC_Read_Averaged,f
  8418     0170  0021               	movlb	1	; select bank1
  8419     0171  081D               	movf	29,w	;volatile
  8420     0172  0020               	movlb	0	; select bank0
  8421     0173  0622               	xorwf	??_ADC_Read_Averaged,w
  8422     0174  3983               	andlw	-125
  8423     0175  0622               	xorwf	??_ADC_Read_Averaged,w
  8424     0176  0021               	movlb	1	; select bank1
  8425     0177  009D               	movwf	29	;volatile
  8426     0178                     l2428:
  8427                           
  8428                           ;./ADC.h: 105:     ADCON0bits.ADON = 1;
  8429     0178  141D               	bsf	29,0	;volatile
  8430     0179                     l2430:
  8431                           
  8432                           ;./ADC.h: 106:     _delay((unsigned long)((20)*(32000000/4000000.0)));
  8433     0179  3035               	movlw	53
  8434     017A                     u3397:
  8435     017A  0B89               	decfsz	9,f
  8436     017B  297A               	goto	u3397
  8437     017C  0000               	nop
  8438     017D                     l2432:
  8439                           
  8440                           ;./ADC.h: 109:     for (uint8_t i = 0; i < samples; i++)
  8441     017D  0020               	movlb	0	; select bank0
  8442     017E  01AB               	clrf	ADC_Read_Averaged@i
  8443     017F  29AB               	goto	l2440
  8444     0180                     l378:
  8445                           
  8446                           ;./ADC.h: 110:     {;./ADC.h: 112:         ADCON0bits.GO = 1;
  8447     0180  0021               	movlb	1	; select bank1
  8448     0181  149D               	bsf	29,1	;volatile
  8449     0182                     l379:	
  8450                           ;./ADC.h: 113:         while (ADCON0bits.GO_nDONE);
  8451                           
  8452     0182  189D               	btfsc	29,1	;volatile
  8453     0183  2985               	goto	u2081
  8454     0184  2986               	goto	u2080
  8455     0185                     u2081:
  8456     0185  2982               	goto	l379
  8457     0186                     u2080:
  8458     0186                     l2434:
  8459                           
  8460                           ;./ADC.h: 115:         sum += (uint16_t)((ADRESH << 8) + ADRESL);
  8461     0186  081B               	movf	27,w	;volatile
  8462     0187  0020               	movlb	0	; select bank0
  8463     0188  07A7               	addwf	ADC_Read_Averaged@sum,f
  8464     0189  0021               	movlb	1	; select bank1
  8465     018A  081C               	movf	28,w	;volatile
  8466     018B  0020               	movlb	0	; select bank0
  8467     018C  3DA8               	addwfc	ADC_Read_Averaged@sum+1,f
  8468     018D  3000               	movlw	0
  8469     018E  3DA9               	addwfc	ADC_Read_Averaged@sum+2,f
  8470     018F  3DAA               	addwfc	ADC_Read_Averaged@sum+3,f
  8471                           
  8472                           ;./ADC.h: 118:         if (i < samples - 1) _delay((unsigned long)((5)*(32000000/4000000
      +                          .0)));
  8473     0190  0820               	movf	ADC_Read_Averaged@samples,w
  8474     0191  3EFF               	addlw	255
  8475     0192  00A2               	movwf	??_ADC_Read_Averaged
  8476     0193  30FF               	movlw	255
  8477     0194  1803               	skipnc
  8478     0195  3000               	movlw	0
  8479     0196  00A3               	movwf	??_ADC_Read_Averaged+1
  8480     0197  0823               	movf	??_ADC_Read_Averaged+1,w
  8481     0198  3A80               	xorlw	128
  8482     0199  3C80               	sublw	128
  8483     019A  1D03               	skipz
  8484     019B  299E               	goto	u2095
  8485     019C  0822               	movf	??_ADC_Read_Averaged,w
  8486     019D  022B               	subwf	ADC_Read_Averaged@i,w
  8487     019E                     u2095:
  8488     019E  1803               	skipnc
  8489     019F  29A1               	goto	u2091
  8490     01A0  29A2               	goto	u2090
  8491     01A1                     u2091:
  8492     01A1  29A6               	goto	l2438
  8493     01A2                     u2090:
  8494     01A2                     l2436:
  8495     01A2  300D               	movlw	13
  8496     01A3                     u3407:
  8497     01A3  0B89               	decfsz	9,f
  8498     01A4  29A3               	goto	u3407
  8499     01A5  0000               	nop
  8500     01A6                     l2438:
  8501                           
  8502                           ;./ADC.h: 119:     }
  8503     01A6  3001               	movlw	1
  8504     01A7  0020               	movlb	0	; select bank0
  8505     01A8  00A2               	movwf	??_ADC_Read_Averaged
  8506     01A9  0822               	movf	??_ADC_Read_Averaged,w
  8507     01AA  07AB               	addwf	ADC_Read_Averaged@i,f
  8508     01AB                     l2440:
  8509     01AB  0820               	movf	ADC_Read_Averaged@samples,w
  8510     01AC  022B               	subwf	ADC_Read_Averaged@i,w
  8511     01AD  1C03               	skipc
  8512     01AE  29B0               	goto	u2101
  8513     01AF  29B1               	goto	u2100
  8514     01B0                     u2101:
  8515     01B0  2980               	goto	l378
  8516     01B1                     u2100:
  8517     01B1                     l2442:
  8518                           
  8519                           ;./ADC.h: 121:     return (uint16_t)(sum / samples);
  8520     01B1  0820               	movf	ADC_Read_Averaged@samples,w
  8521     01B2  00A2               	movwf	??_ADC_Read_Averaged
  8522     01B3  01A3               	clrf	??_ADC_Read_Averaged+1
  8523     01B4  01A4               	clrf	??_ADC_Read_Averaged+2
  8524     01B5  01A5               	clrf	??_ADC_Read_Averaged+3
  8525     01B6  0825               	movf	??_ADC_Read_Averaged+3,w
  8526     01B7  00F3               	movwf	___lldiv@divisor+3
  8527     01B8  0824               	movf	??_ADC_Read_Averaged+2,w
  8528     01B9  00F2               	movwf	___lldiv@divisor+2
  8529     01BA  0823               	movf	??_ADC_Read_Averaged+1,w
  8530     01BB  00F1               	movwf	___lldiv@divisor+1
  8531     01BC  0822               	movf	??_ADC_Read_Averaged,w
  8532     01BD  00F0               	movwf	___lldiv@divisor
  8533     01BE  082A               	movf	ADC_Read_Averaged@sum+3,w
  8534     01BF  00F7               	movwf	___lldiv@dividend+3
  8535     01C0  0829               	movf	ADC_Read_Averaged@sum+2,w
  8536     01C1  00F6               	movwf	___lldiv@dividend+2
  8537     01C2  0828               	movf	ADC_Read_Averaged@sum+1,w
  8538     01C3  00F5               	movwf	___lldiv@dividend+1
  8539     01C4  0827               	movf	ADC_Read_Averaged@sum,w
  8540     01C5  00F4               	movwf	___lldiv@dividend
  8541     01C6  318F  2748  3181   	fcall	___lldiv
  8542     01C9  0871               	movf	?___lldiv+1,w
  8543     01CA  0020               	movlb	0	; select bank0
  8544     01CB  00A1               	movwf	?_ADC_Read_Averaged+1
  8545     01CC  0870               	movf	?___lldiv,w
  8546     01CD  00A0               	movwf	?_ADC_Read_Averaged
  8547     01CE                     l384:
  8548     01CE  0008               	return
  8549     01CF                     __end_of_ADC_Read_Averaged:
  8550                           
  8551                           	psect	text32
  8552     0F48                     __ptext32:	
  8553 ;; *************** function ___lldiv *****************
  8554 ;; Defined at:
  8555 ;;		line 5 in file "C:\Program Files\Microchip\xc8\v2.46\pic\sources\c99\common\__lldiv.c"
  8556 ;; Parameters:    Size  Location     Type
  8557 ;;  divisor         4    0[COMMON] unsigned long 
  8558 ;;  dividend        4    4[COMMON] unsigned long 
  8559 ;; Auto vars:     Size  Location     Type
  8560 ;;  quotient        4    9[COMMON] unsigned long 
  8561 ;;  counter         1   13[COMMON] unsigned char 
  8562 ;; Return value:  Size  Location     Type
  8563 ;;                  4    0[COMMON] unsigned long 
  8564 ;; Registers used:
  8565 ;;		wreg, status,2, status,0
  8566 ;; Tracked objects:
  8567 ;;		On entry : 0/0
  8568 ;;		On exit  : 0/0
  8569 ;;		Unchanged: 0/0
  8570 ;; Data sizes:     COMMON   BANK0   BANK1   BANK2   BANK3   BANK4   BANK5   BANK6   BANK7   BANK8   BANK9  BANK10  BANK1
      +1  BANK12  BANK13  BANK14  BANK15  BANK16  BANK17  BANK18  BANK19  BANK20  BANK21  BANK22  BANK23  BANK24  BANK25
  8571 ;;      Params:         8       0       0       0       0       0       0       0       0       0       0       0       
      +0       0       0       0       0       0       0       0       0       0       0       0       0       0       0
  8572 ;;      Locals:         5       0       0       0       0       0       0       0       0       0       0       0       
      +0       0       0       0       0       0       0       0       0       0       0       0       0       0       0
  8573 ;;      Temps:          1       0       0       0       0       0       0       0       0       0       0       0       
      +0       0       0       0       0       0       0       0       0       0       0       0       0       0       0
  8574 ;;      Totals:        14       0       0       0       0       0       0       0       0       0       0       0       
      +0       0       0       0       0       0       0       0       0       0       0       0       0       0       0
  8575 ;;Total ram usage:       14 bytes
  8576 ;; Hardware stack levels used: 1
  8577 ;; This function calls:
  8578 ;;		Nothing
  8579 ;; This function is called by:
  8580 ;;		_OLED_Printf_Line
  8581 ;;		_ADC_Read_Averaged
  8582 ;; This function uses a non-reentrant model
  8583 ;;
  8584                           
  8585     0F48                     ___lldiv:	
  8586                           ;psect for function ___lldiv
  8587                           
  8588     0F48                     l2334:	
  8589                           ;incstack = 0
  8590                           ; Regs used in ___lldiv: [wreg+status,2+status,0]
  8591                           
  8592     0F48  3000               	movlw	0
  8593     0F49  00FC               	movwf	___lldiv@quotient+3
  8594     0F4A  3000               	movlw	0
  8595     0F4B  00FB               	movwf	___lldiv@quotient+2
  8596     0F4C  3000               	movlw	0
  8597     0F4D  00FA               	movwf	___lldiv@quotient+1
  8598     0F4E  3000               	movlw	0
  8599     0F4F  00F9               	movwf	___lldiv@quotient
  8600     0F50  0873               	movf	___lldiv@divisor+3,w
  8601     0F51  0472               	iorwf	___lldiv@divisor+2,w
  8602     0F52  0471               	iorwf	___lldiv@divisor+1,w
  8603     0F53  0470               	iorwf	___lldiv@divisor,w
  8604     0F54  1903               	skipnz
  8605     0F55  2F57               	goto	u1921
  8606     0F56  2F58               	goto	u1920
  8607     0F57                     u1921:
  8608     0F57  2F99               	goto	l2354
  8609     0F58                     u1920:
  8610     0F58                     l2336:
  8611     0F58  01FD               	clrf	___lldiv@counter
  8612     0F59  0AFD               	incf	___lldiv@counter,f
  8613     0F5A  2F66               	goto	l2340
  8614     0F5B                     l2338:
  8615     0F5B  3001               	movlw	1
  8616     0F5C                     u1935:
  8617     0F5C  35F0               	lslf	___lldiv@divisor,f
  8618     0F5D  0DF1               	rlf	___lldiv@divisor+1,f
  8619     0F5E  0DF2               	rlf	___lldiv@divisor+2,f
  8620     0F5F  0DF3               	rlf	___lldiv@divisor+3,f
  8621     0F60  0B89               	decfsz	9,f
  8622     0F61  2F5C               	goto	u1935
  8623     0F62  3001               	movlw	1
  8624     0F63  00F8               	movwf	??___lldiv
  8625     0F64  0878               	movf	??___lldiv,w
  8626     0F65  07FD               	addwf	___lldiv@counter,f
  8627     0F66                     l2340:
  8628     0F66  1FF3               	btfss	___lldiv@divisor+3,7
  8629     0F67  2F69               	goto	u1941
  8630     0F68  2F6A               	goto	u1940
  8631     0F69                     u1941:
  8632     0F69  2F5B               	goto	l2338
  8633     0F6A                     u1940:
  8634     0F6A                     l2342:
  8635     0F6A  3001               	movlw	1
  8636     0F6B                     u1955:
  8637     0F6B  35F9               	lslf	___lldiv@quotient,f
  8638     0F6C  0DFA               	rlf	___lldiv@quotient+1,f
  8639     0F6D  0DFB               	rlf	___lldiv@quotient+2,f
  8640     0F6E  0DFC               	rlf	___lldiv@quotient+3,f
  8641     0F6F  0B89               	decfsz	9,f
  8642     0F70  2F6B               	goto	u1955
  8643     0F71                     l2344:
  8644     0F71  0873               	movf	___lldiv@divisor+3,w
  8645     0F72  0277               	subwf	___lldiv@dividend+3,w
  8646     0F73  1D03               	skipz
  8647     0F74  2F7F               	goto	u1965
  8648     0F75  0872               	movf	___lldiv@divisor+2,w
  8649     0F76  0276               	subwf	___lldiv@dividend+2,w
  8650     0F77  1D03               	skipz
  8651     0F78  2F7F               	goto	u1965
  8652     0F79  0871               	movf	___lldiv@divisor+1,w
  8653     0F7A  0275               	subwf	___lldiv@dividend+1,w
  8654     0F7B  1D03               	skipz
  8655     0F7C  2F7F               	goto	u1965
  8656     0F7D  0870               	movf	___lldiv@divisor,w
  8657     0F7E  0274               	subwf	___lldiv@dividend,w
  8658     0F7F                     u1965:
  8659     0F7F  1C03               	skipc
  8660     0F80  2F82               	goto	u1961
  8661     0F81  2F83               	goto	u1960
  8662     0F82                     u1961:
  8663     0F82  2F8C               	goto	l2350
  8664     0F83                     u1960:
  8665     0F83                     l2346:
  8666     0F83  0870               	movf	___lldiv@divisor,w
  8667     0F84  02F4               	subwf	___lldiv@dividend,f
  8668     0F85  0871               	movf	___lldiv@divisor+1,w
  8669     0F86  3BF5               	subwfb	___lldiv@dividend+1,f
  8670     0F87  0872               	movf	___lldiv@divisor+2,w
  8671     0F88  3BF6               	subwfb	___lldiv@dividend+2,f
  8672     0F89  0873               	movf	___lldiv@divisor+3,w
  8673     0F8A  3BF7               	subwfb	___lldiv@dividend+3,f
  8674     0F8B                     l2348:
  8675     0F8B  1479               	bsf	___lldiv@quotient,0
  8676     0F8C                     l2350:
  8677     0F8C  3001               	movlw	1
  8678     0F8D                     u1975:
  8679     0F8D  36F3               	lsrf	___lldiv@divisor+3,f
  8680     0F8E  0CF2               	rrf	___lldiv@divisor+2,f
  8681     0F8F  0CF1               	rrf	___lldiv@divisor+1,f
  8682     0F90  0CF0               	rrf	___lldiv@divisor,f
  8683     0F91  0B89               	decfsz	9,f
  8684     0F92  2F8D               	goto	u1975
  8685     0F93                     l2352:
  8686     0F93  3001               	movlw	1
  8687     0F94  02FD               	subwf	___lldiv@counter,f
  8688     0F95  1D03               	btfss	3,2
  8689     0F96  2F98               	goto	u1981
  8690     0F97  2F99               	goto	u1980
  8691     0F98                     u1981:
  8692     0F98  2F6A               	goto	l2342
  8693     0F99                     u1980:
  8694     0F99                     l2354:
  8695     0F99  087C               	movf	___lldiv@quotient+3,w
  8696     0F9A  00F3               	movwf	?___lldiv+3
  8697     0F9B  087B               	movf	___lldiv@quotient+2,w
  8698     0F9C  00F2               	movwf	?___lldiv+2
  8699     0F9D  087A               	movf	___lldiv@quotient+1,w
  8700     0F9E  00F1               	movwf	?___lldiv+1
  8701     0F9F  0879               	movf	___lldiv@quotient,w
  8702     0FA0  00F0               	movwf	?___lldiv
  8703     0FA1                     l532:
  8704     0FA1  0008               	return
  8705     0FA2                     __end_of___lldiv:
  8706                           
  8707                           	psect	text33
  8708     17E4                     __ptext33:	
  8709 ;; *************** function _Joystick_Init *****************
  8710 ;; Defined at:
  8711 ;;		line 132 in file "main.c"
  8712 ;; Parameters:    Size  Location     Type
  8713 ;;		None
  8714 ;; Auto vars:     Size  Location     Type
  8715 ;;		None
  8716 ;; Return value:  Size  Location     Type
  8717 ;;                  1    wreg      void 
  8718 ;; Registers used:
  8719 ;;		None
  8720 ;; Tracked objects:
  8721 ;;		On entry : 0/0
  8722 ;;		On exit  : 0/0
  8723 ;;		Unchanged: 0/0
  8724 ;; Data sizes:     COMMON   BANK0   BANK1   BANK2   BANK3   BANK4   BANK5   BANK6   BANK7   BANK8   BANK9  BANK10  BANK1
      +1  BANK12  BANK13  BANK14  BANK15  BANK16  BANK17  BANK18  BANK19  BANK20  BANK21  BANK22  BANK23  BANK24  BANK25
  8725 ;;      Params:         0       0       0       0       0       0       0       0       0       0       0       0       
      +0       0       0       0       0       0       0       0       0       0       0       0       0       0       0
  8726 ;;      Locals:         0       0       0       0       0       0       0       0       0       0       0       0       
      +0       0       0       0       0       0       0       0       0       0       0       0       0       0       0
  8727 ;;      Temps:          0       0       0       0       0       0       0       0       0       0       0       0       
      +0       0       0       0       0       0       0       0       0       0       0       0       0       0       0
  8728 ;;      Totals:         0       0       0       0       0       0       0       0       0       0       0       0       
      +0       0       0       0       0       0       0       0       0       0       0       0       0       0       0
  8729 ;;Total ram usage:        0 bytes
  8730 ;; Hardware stack levels used: 1
  8731 ;; This function calls:
  8732 ;;		Nothing
  8733 ;; This function is called by:
  8734 ;;		_main
  8735 ;; This function uses a non-reentrant model
  8736 ;;
  8737                           
  8738     17E4                     _Joystick_Init:	
  8739                           ;psect for function _Joystick_Init
  8740                           
  8741     17E4                     l3074:	
  8742                           ;incstack = 0
  8743                           ; Regs used in _Joystick_Init: []
  8744                           
  8745                           
  8746                           ;main.c: 135:     TRISBbits.TRISB0 = 1;
  8747     17E4  0021               	movlb	1	; select bank1
  8748     17E5  140D               	bsf	13,0	;volatile
  8749                           
  8750                           ;main.c: 136:     ANSELBbits.ANSB0 = 0;
  8751     17E6  0023               	movlb	3	; select bank3
  8752     17E7  100D               	bcf	13,0	;volatile
  8753                           
  8754                           ;main.c: 139:     OPTION_REGbits.nWPUEN = 0;
  8755     17E8  0021               	movlb	1	; select bank1
  8756     17E9  1395               	bcf	21,7	;volatile
  8757                           
  8758                           ;main.c: 140:     WPUBbits.WPUB0 = 1;
  8759     17EA  0024               	movlb	4	; select bank4
  8760     17EB  140D               	bsf	13,0	;volatile
  8761     17EC                     l390:
  8762     17EC  0008               	return
  8763     17ED                     __end_of_Joystick_Init:
  8764                           
  8765                           	psect	text34
  8766     0D75                     __ptext34:	
  8767 ;; *************** function _Joystick_DirectionString *****************
  8768 ;; Defined at:
  8769 ;;		line 201 in file "main.c"
  8770 ;; Parameters:    Size  Location     Type
  8771 ;;  direction       1    wreg     unsigned char 
  8772 ;; Auto vars:     Size  Location     Type
  8773 ;;  direction       1    2[COMMON] unsigned char 
  8774 ;; Return value:  Size  Location     Type
  8775 ;;                  2    0[COMMON] PTR const unsigned char 
  8776 ;; Registers used:
  8777 ;;		wreg, fsr0l, fsr0h, status,2, status,0
  8778 ;; Tracked objects:
  8779 ;;		On entry : 0/0
  8780 ;;		On exit  : 0/0
  8781 ;;		Unchanged: 0/0
  8782 ;; Data sizes:     COMMON   BANK0   BANK1   BANK2   BANK3   BANK4   BANK5   BANK6   BANK7   BANK8   BANK9  BANK10  BANK1
      +1  BANK12  BANK13  BANK14  BANK15  BANK16  BANK17  BANK18  BANK19  BANK20  BANK21  BANK22  BANK23  BANK24  BANK25
  8783 ;;      Params:         2       0       0       0       0       0       0       0       0       0       0       0       
      +0       0       0       0       0       0       0       0       0       0       0       0       0       0       0
  8784 ;;      Locals:         1       0       0       0       0       0       0       0       0       0       0       0       
      +0       0       0       0       0       0       0       0       0       0       0       0       0       0       0
  8785 ;;      Temps:          0       0       0       0       0       0       0       0       0       0       0       0       
      +0       0       0       0       0       0       0       0       0       0       0       0       0       0       0
  8786 ;;      Totals:         3       0       0       0       0       0       0       0       0       0       0       0       
      +0       0       0       0       0       0       0       0       0       0       0       0       0       0       0
  8787 ;;Total ram usage:        3 bytes
  8788 ;; Hardware stack levels used: 1
  8789 ;; This function calls:
  8790 ;;		Nothing
  8791 ;; This function is called by:
  8792 ;;		_main
  8793 ;; This function uses a non-reentrant model
  8794 ;;
  8795                           
  8796     0D75                     _Joystick_DirectionString:	
  8797                           ;psect for function _Joystick_DirectionString
  8798                           
  8799                           
  8800                           ;incstack = 0
  8801                           ; Regs used in _Joystick_DirectionString: [wreg-fsr0h+status,2+status,0]
  8802                           ;Joystick_DirectionString@direction stored from wreg
  8803     0D75  00F2               	movwf	Joystick_DirectionString@direction
  8804     0D76                     l3086:
  8805                           
  8806                           ;main.c: 201: const char* Joystick_DirectionString(uint8_t direction);main.c: 202: {;mai
      +                          n.c: 203:     switch(direction)
  8807     0D76  2DA4               	goto	l3126
  8808     0D77                     l3088:
  8809     0D77  3000               	movlw	low (STR_1| (0+32768))
  8810     0D78  00F0               	movwf	?_Joystick_DirectionString
  8811     0D79  3098               	movlw	high (STR_1| (0+32768))
  8812     0D7A  00F1               	movwf	?_Joystick_DirectionString+1
  8813     0D7B  2DBE               	goto	l407
  8814     0D7C                     l3092:
  8815     0D7C  3009               	movlw	low (STR_2| (0+32768))
  8816     0D7D  00F0               	movwf	?_Joystick_DirectionString
  8817     0D7E  3098               	movlw	high (STR_2| (0+32768))
  8818     0D7F  00F1               	movwf	?_Joystick_DirectionString+1
  8819     0D80  2DBE               	goto	l407
  8820     0D81                     l3096:
  8821     0D81  3012               	movlw	low (STR_3| (0+32768))
  8822     0D82  00F0               	movwf	?_Joystick_DirectionString
  8823     0D83  3098               	movlw	high (STR_3| (0+32768))
  8824     0D84  00F1               	movwf	?_Joystick_DirectionString+1
  8825     0D85  2DBE               	goto	l407
  8826     0D86                     l3100:
  8827     0D86  301B               	movlw	low (STR_4| (0+32768))
  8828     0D87  00F0               	movwf	?_Joystick_DirectionString
  8829     0D88  3098               	movlw	high (STR_4| (0+32768))
  8830     0D89  00F1               	movwf	?_Joystick_DirectionString+1
  8831     0D8A  2DBE               	goto	l407
  8832     0D8B                     l3104:
  8833     0D8B  3036               	movlw	low (STR_5| (0+32768))
  8834     0D8C  00F0               	movwf	?_Joystick_DirectionString
  8835     0D8D  3098               	movlw	high (STR_5| (0+32768))
  8836     0D8E  00F1               	movwf	?_Joystick_DirectionString+1
  8837     0D8F  2DBE               	goto	l407
  8838     0D90                     l3108:
  8839     0D90  3048               	movlw	low (STR_6| (0+32768))
  8840     0D91  00F0               	movwf	?_Joystick_DirectionString
  8841     0D92  3098               	movlw	high (STR_6| (0+32768))
  8842     0D93  00F1               	movwf	?_Joystick_DirectionString+1
  8843     0D94  2DBE               	goto	l407
  8844     0D95                     l3112:
  8845     0D95  302D               	movlw	low (STR_7| (0+32768))
  8846     0D96  00F0               	movwf	?_Joystick_DirectionString
  8847     0D97  3098               	movlw	high (STR_7| (0+32768))
  8848     0D98  00F1               	movwf	?_Joystick_DirectionString+1
  8849     0D99  2DBE               	goto	l407
  8850     0D9A                     l3116:
  8851     0D9A  303F               	movlw	low (STR_8| (0+32768))
  8852     0D9B  00F0               	movwf	?_Joystick_DirectionString
  8853     0D9C  3098               	movlw	high (STR_8| (0+32768))
  8854     0D9D  00F1               	movwf	?_Joystick_DirectionString+1
  8855     0D9E  2DBE               	goto	l407
  8856     0D9F                     l3120:
  8857     0D9F  3024               	movlw	low (STR_9| (0+32768))
  8858     0DA0  00F0               	movwf	?_Joystick_DirectionString
  8859     0DA1  3098               	movlw	high (STR_9| (0+32768))
  8860     0DA2  00F1               	movwf	?_Joystick_DirectionString+1
  8861     0DA3  2DBE               	goto	l407
  8862     0DA4                     l3126:
  8863     0DA4  0872               	movf	Joystick_DirectionString@direction,w
  8864                           
  8865                           ; Switch size 1, requested type "simple"
  8866                           ; Number of cases is 8, Range of values is 1 to 10
  8867                           ; switch strategies available:
  8868                           ; Name         Instructions Cycles
  8869                           ; simple_byte           25    13 (average)
  8870                           ; direct_byte           29     9 (fixed)
  8871                           ; jumptable            263     9 (fixed)
  8872                           ;	Chosen strategy is simple_byte
  8873     0DA5  3A01               	xorlw	1	; case 1
  8874     0DA6  1903               	skipnz
  8875     0DA7  2D77               	goto	l3088
  8876     0DA8  3A03               	xorlw	3	; case 2
  8877     0DA9  1903               	skipnz
  8878     0DAA  2D7C               	goto	l3092
  8879     0DAB  3A06               	xorlw	6	; case 4
  8880     0DAC  1903               	skipnz
  8881     0DAD  2D81               	goto	l3096
  8882     0DAE  3A01               	xorlw	1	; case 5
  8883     0DAF  1903               	skipnz
  8884     0DB0  2D8B               	goto	l3104
  8885     0DB1  3A03               	xorlw	3	; case 6
  8886     0DB2  1903               	skipnz
  8887     0DB3  2D95               	goto	l3112
  8888     0DB4  3A0E               	xorlw	14	; case 8
  8889     0DB5  1903               	skipnz
  8890     0DB6  2D86               	goto	l3100
  8891     0DB7  3A01               	xorlw	1	; case 9
  8892     0DB8  1903               	skipnz
  8893     0DB9  2D90               	goto	l3108
  8894     0DBA  3A03               	xorlw	3	; case 10
  8895     0DBB  1903               	skipnz
  8896     0DBC  2D9A               	goto	l3116
  8897     0DBD  2D9F               	goto	l3120
  8898     0DBE                     l407:
  8899     0DBE  0008               	return
  8900     0DBF                     __end_of_Joystick_DirectionString:
  8901                           
  8902                           	psect	text35
  8903     0B1E                     __ptext35:	
  8904 ;; *************** function _I2C_Init *****************
  8905 ;; Defined at:
  8906 ;;		line 41 in file "I2C.c"
  8907 ;; Parameters:    Size  Location     Type
  8908 ;;		None
  8909 ;; Auto vars:     Size  Location     Type
  8910 ;;		None
  8911 ;; Return value:  Size  Location     Type
  8912 ;;                  1    wreg      void 
  8913 ;; Registers used:
  8914 ;;		wreg, status,2, status,0, pclath, cstack
  8915 ;; Tracked objects:
  8916 ;;		On entry : 0/0
  8917 ;;		On exit  : 0/0
  8918 ;;		Unchanged: 0/0
  8919 ;; Data sizes:     COMMON   BANK0   BANK1   BANK2   BANK3   BANK4   BANK5   BANK6   BANK7   BANK8   BANK9  BANK10  BANK1
      +1  BANK12  BANK13  BANK14  BANK15  BANK16  BANK17  BANK18  BANK19  BANK20  BANK21  BANK22  BANK23  BANK24  BANK25
  8920 ;;      Params:         0       0       0       0       0       0       0       0       0       0       0       0       
      +0       0       0       0       0       0       0       0       0       0       0       0       0       0       0
  8921 ;;      Locals:         0       0       0       0       0       0       0       0       0       0       0       0       
      +0       0       0       0       0       0       0       0       0       0       0       0       0       0       0
  8922 ;;      Temps:          1       0       0       0       0       0       0       0       0       0       0       0       
      +0       0       0       0       0       0       0       0       0       0       0       0       0       0       0
  8923 ;;      Totals:         1       0       0       0       0       0       0       0       0       0       0       0       
      +0       0       0       0       0       0       0       0       0       0       0       0       0       0       0
  8924 ;;Total ram usage:        1 bytes
  8925 ;; Hardware stack levels used: 1
  8926 ;; Hardware stack levels required when called: 1
  8927 ;; This function calls:
  8928 ;;		_I2C_ClearErrors
  8929 ;; This function is called by:
  8930 ;;		_main
  8931 ;; This function uses a non-reentrant model
  8932 ;;
  8933                           
  8934     0B1E                     _I2C_Init:	
  8935                           ;psect for function _I2C_Init
  8936                           
  8937     0B1E                     l2690:	
  8938                           ;incstack = 0
  8939                           ; Regs used in _I2C_Init: [wreg+status,2+status,0+pclath+cstack]
  8940                           
  8941                           
  8942                           ;I2C.c: 44:     SSPCONbits.SSPM = 0x08;
  8943     0B1E  0024               	movlb	4	; select bank4
  8944     0B1F  0815               	movf	21,w	;volatile
  8945     0B20  39F0               	andlw	-16
  8946     0B21  3808               	iorlw	8
  8947     0B22  0095               	movwf	21	;volatile
  8948     0B23                     l2692:
  8949                           
  8950                           ;I2C.c: 47:     SSPCONbits.SSPEN = 1;
  8951     0B23  1695               	bsf	21,5	;volatile
  8952     0B24                     l2694:
  8953                           
  8954                           ;I2C.c: 50:     SSPADD = 79;
  8955     0B24  304F               	movlw	79
  8956     0B25  0092               	movwf	18	;volatile
  8957     0B26                     l2696:
  8958                           
  8959                           ;I2C.c: 52:     I2C_ClearErrors();
  8960     0B26  3197  27DD  318B   	fcall	_I2C_ClearErrors
  8961     0B29                     l2698:
  8962                           
  8963                           ;I2C.c: 53:     _delay((unsigned long)((10)*(32000000/4000.0)));
  8964     0B29  3068               	movlw	104
  8965     0B2A  00F0               	movwf	??_I2C_Init
  8966     0B2B  30E4               	movlw	228
  8967     0B2C                     u3417:
  8968     0B2C  0B89               	decfsz	9,f
  8969     0B2D  2B2C               	goto	u3417
  8970     0B2E  0BF0               	decfsz	??_I2C_Init,f
  8971     0B2F  2B2C               	goto	u3417
  8972     0B30  3200               	nop2
  8973     0B31                     l32:
  8974     0B31  0008               	return
  8975     0B32                     __end_of_I2C_Init:
  8976                           
  8977                           	psect	text36
  8978     17DD                     __ptext36:	
  8979 ;; *************** function _I2C_ClearErrors *****************
  8980 ;; Defined at:
  8981 ;;		line 62 in file "I2C.c"
  8982 ;; Parameters:    Size  Location     Type
  8983 ;;		None
  8984 ;; Auto vars:     Size  Location     Type
  8985 ;;		None
  8986 ;; Return value:  Size  Location     Type
  8987 ;;                  1    wreg      void 
  8988 ;; Registers used:
  8989 ;;		None
  8990 ;; Tracked objects:
  8991 ;;		On entry : 0/0
  8992 ;;		On exit  : 0/0
  8993 ;;		Unchanged: 0/0
  8994 ;; Data sizes:     COMMON   BANK0   BANK1   BANK2   BANK3   BANK4   BANK5   BANK6   BANK7   BANK8   BANK9  BANK10  BANK1
      +1  BANK12  BANK13  BANK14  BANK15  BANK16  BANK17  BANK18  BANK19  BANK20  BANK21  BANK22  BANK23  BANK24  BANK25
  8995 ;;      Params:         0       0       0       0       0       0       0       0       0       0       0       0       
      +0       0       0       0       0       0       0       0       0       0       0       0       0       0       0
  8996 ;;      Locals:         0       0       0       0       0       0       0       0       0       0       0       0       
      +0       0       0       0       0       0       0       0       0       0       0       0       0       0       0
  8997 ;;      Temps:          0       0       0       0       0       0       0       0       0       0       0       0       
      +0       0       0       0       0       0       0       0       0       0       0       0       0       0       0
  8998 ;;      Totals:         0       0       0       0       0       0       0       0       0       0       0       0       
      +0       0       0       0       0       0       0       0       0       0       0       0       0       0       0
  8999 ;;Total ram usage:        0 bytes
  9000 ;; Hardware stack levels used: 1
  9001 ;; This function calls:
  9002 ;;		Nothing
  9003 ;; This function is called by:
  9004 ;;		_I2C_Init
  9005 ;; This function uses a non-reentrant model
  9006 ;;
  9007                           
  9008     17DD                     _I2C_ClearErrors:	
  9009                           ;psect for function _I2C_ClearErrors
  9010                           
  9011     17DD                     l2358:	
  9012                           ;incstack = 0
  9013                           ; Regs used in _I2C_ClearErrors: []
  9014                           
  9015                           
  9016                           ;I2C.c: 65:     SSPCON1bits.SSPOV = 0;
  9017     17DD  0024               	movlb	4	; select bank4
  9018     17DE  1315               	bcf	21,6	;volatile
  9019                           
  9020                           ;I2C.c: 66:     SSPCON1bits.WCOL = 0;
  9021     17DF  1395               	bcf	21,7	;volatile
  9022                           
  9023                           ;I2C.c: 69:     PIR2bits.BCL1IF = 0;
  9024     17E0  0020               	movlb	0	; select bank0
  9025     17E1  1192               	bcf	18,3	;volatile
  9026                           
  9027                           ;I2C.c: 72:     PIR1bits.SSP1IF = 0;
  9028     17E2  1191               	bcf	17,3	;volatile
  9029     17E3                     l35:
  9030     17E3  0008               	return
  9031     17E4                     __end_of_I2C_ClearErrors:
  9032                           
  9033                           	psect	text37
  9034     17F6                     __ptext37:	
  9035 ;; *************** function _ADC_Init *****************
  9036 ;; Defined at:
  9037 ;;		line 76 in file "./ADC.h"
  9038 ;; Parameters:    Size  Location     Type
  9039 ;;		None
  9040 ;; Auto vars:     Size  Location     Type
  9041 ;;		None
  9042 ;; Return value:  Size  Location     Type
  9043 ;;                  1    wreg      void 
  9044 ;; Registers used:
  9045 ;;		wreg, status,2, status,0
  9046 ;; Tracked objects:
  9047 ;;		On entry : 0/0
  9048 ;;		On exit  : 0/0
  9049 ;;		Unchanged: 0/0
  9050 ;; Data sizes:     COMMON   BANK0   BANK1   BANK2   BANK3   BANK4   BANK5   BANK6   BANK7   BANK8   BANK9  BANK10  BANK1
      +1  BANK12  BANK13  BANK14  BANK15  BANK16  BANK17  BANK18  BANK19  BANK20  BANK21  BANK22  BANK23  BANK24  BANK25
  9051 ;;      Params:         0       0       0       0       0       0       0       0       0       0       0       0       
      +0       0       0       0       0       0       0       0       0       0       0       0       0       0       0
  9052 ;;      Locals:         0       0       0       0       0       0       0       0       0       0       0       0       
      +0       0       0       0       0       0       0       0       0       0       0       0       0       0       0
  9053 ;;      Temps:          0       0       0       0       0       0       0       0       0       0       0       0       
      +0       0       0       0       0       0       0       0       0       0       0       0       0       0       0
  9054 ;;      Totals:         0       0       0       0       0       0       0       0       0       0       0       0       
      +0       0       0       0       0       0       0       0       0       0       0       0       0       0       0
  9055 ;;Total ram usage:        0 bytes
  9056 ;; Hardware stack levels used: 1
  9057 ;; This function calls:
  9058 ;;		Nothing
  9059 ;; This function is called by:
  9060 ;;		_main
  9061 ;; This function uses a non-reentrant model
  9062 ;;
  9063                           
  9064     17F6                     _ADC_Init:	
  9065                           ;psect for function _ADC_Init
  9066                           
  9067     17F6                     l3016:	
  9068                           ;incstack = 0
  9069                           ; Regs used in _ADC_Init: [wreg+status,2+status,0]
  9070                           
  9071                           
  9072                           ;./ADC.h: 79:     ADCON1bits.ADCS = 0b010;
  9073     17F6  0021               	movlb	1	; select bank1
  9074     17F7  081E               	movf	30,w	;volatile
  9075     17F8  398F               	andlw	-113
  9076     17F9  3820               	iorlw	32
  9077     17FA  009E               	movwf	30	;volatile
  9078     17FB                     l3018:
  9079                           
  9080                           ;./ADC.h: 82:     ADCON1bits.ADFM = 1;
  9081     17FB  179E               	bsf	30,7	;volatile
  9082     17FC                     l3020:
  9083                           
  9084                           ;./ADC.h: 85:     ADCON1bits.ADNREF = 0;
  9085     17FC  111E               	bcf	30,2	;volatile
  9086                           
  9087                           ;./ADC.h: 88:     ADCON1bits.ADPREF = 0b00;
  9088     17FD  30FC               	movlw	-4
  9089     17FE  059E               	andwf	30,f	;volatile
  9090     17FF                     l374:
  9091     17FF  0008               	return
  9092     1800                     __end_of_ADC_Init:
  9093     007E                     btemp	set	126	;btemp
  9094     007E                     wtemp0	set	126
  9095     24F0                     
  9096                           	psect	config
  9097                           
  9098                           ;Config register CONFIG1 @ 0x8007
  9099                           ;	Oscillator Selection Bits
  9100                           ;	FOSC = INTOSC, INTOSC oscillator: I/O function on CLKIN pin
  9101                           ;	Watchdog Timer Enable
  9102                           ;	WDTE = OFF, WDT disabled
  9103                           ;	Power-up Timer Enable
  9104                           ;	PWRTE = OFF, PWRT disabled
  9105                           ;	MCLR Pin Function Select
  9106                           ;	MCLRE = OFF, MCLR/VPP pin function is digital input if LVP bit is also 0.
  9107                           ;	Flash Program Memory Code Protection
  9108                           ;	CP = OFF, Program memory code protection is disabled
  9109                           ;	Brown-out Reset Enable
  9110                           ;	BOREN = OFF, Brown-out Reset disabled
  9111                           ;	Clock Out Enable
  9112                           ;	CLKOUTEN = OFF, CLKOUT function is disabled. I/O or oscillator function on the CLKOUT 
      +                          pin
  9113                           ;	Internal/External Switchover Mode
  9114                           ;	IESO = ON, Internal/External Switchover Mode is enabled
  9115                           ;	Fail-Safe Clock Monitor Enable
  9116                           ;	FCMEN = OFF, Fail-Safe Clock Monitor is disabled
  9117     8007                     	org	32775
  9118     8007  19A4               	dw	6564
  9119                           
  9120                           ;Config register CONFIG2 @ 0x8008
  9121                           ;	Flash Memory Self-Write Protection
  9122                           ;	WRT = OFF, Write protection off
  9123                           ;	Peripheral Pin Select one-way control
  9124                           ;	PPS1WAY = ON, The PPSLOCK bit cannot be cleared once it is set by software
  9125                           ;	Zero-cross detect disable
  9126                           ;	ZCDDIS = ON, ZCD disabled. ZCD can be enabled by setting the ZCDSEN bit of ZCDCON
  9127                           ;	Phase Lock Loop enable
  9128                           ;	PLLEN = OFF, 4x PLL is disabled
  9129                           ;	Stack Overflow/Underflow Reset Enable
  9130                           ;	STVREN = ON, Stack Overflow or Underflow will cause a Reset
  9131                           ;	Brown-out Reset Voltage Selection
  9132                           ;	BORV = LO, Brown-out Reset Voltage (Vbor), low trip point selected.
  9133                           ;	Low-Power Brown Out Reset
  9134                           ;	LPBOR = OFF, Low-Power BOR is disabled
  9135                           ;	In-Circuit Debugger Mode
  9136                           ;	DEBUG = 0x1, unprogrammed default
  9137                           ;	Low-Voltage Programming Enable
  9138                           ;	LVP = OFF, High-voltage on MCLR/VPP must be used for programming
  9139     8008                     	org	32776
  9140     8008  1EFF               	dw	7935

Data Sizes:
    Strings     140
    Constant    778
    Data        0
    BSS         0
    Persistent  32
    Stack       0

Auto Spaces:
    Space          Size  Autos    Used
    COMMON           14     14      14
    BANK0            80     80      80
    BANK1            80     61      61
    BANK2            80      0       0
    BANK3            80      0       0
    BANK4            80      0       0
    BANK5            80      0       0
    BANK6            80      0       0
    BANK7            80      0       0
    BANK8            80      0       0
    BANK9            80      0       0
    BANK10           80      0       0
    BANK11           80      0       0
    BANK12           80      0       0
    BANK13           80      0       0
    BANK14           80      0       0
    BANK15           64      0       0
    BANK16            0      0       0
    BANK17            0      0       0
    BANK18            0      0       0
    BANK19            0      0       0
    BANK20            0      0       0
    BANK21            0      0       0
    BANK22            0      0       0
    BANK23            0      0       0
    BANK24            0      0       0
    BANK25            0      0       0

Pointer List with Targets:

    Joystick_GetDirection@joy	PTR struct . size(1) Largest target is 10
		 -> main@joy(BANK1[10]), 

    Joystick_Read@joy	PTR struct . size(1) Largest target is 10
		 -> main@joy(BANK1[10]), 

    main$879	PTR const unsigned char  size(2) Largest target is 8
		 -> STR_13(CODE[8]), STR_14(CODE[8]), 

    memcpy@d	PTR unsigned char  size(2) Largest target is 512
		 -> screen_buffer(BIGRAM[512]), 

    memcpy@d1	PTR void  size(2) Largest target is 512
		 -> screen_buffer(BIGRAM[512]), 

    memcpy@s	PTR const unsigned char  size(2) Largest target is 768
		 -> OledFont(CODE[768]), 

    memcpy@s1	PTR const void  size(2) Largest target is 768
		 -> OledFont(CODE[768]), 

    memset@dest	PTR void  size(2) Largest target is 512
		 -> screen_buffer(BIGRAM[512]), 

    memset@p	PTR unsigned char  size(2) Largest target is 512
		 -> screen_buffer(BIGRAM[512]), 

    OLED_Printf_Line@ap	PTR void [1] size(1) Largest target is 1
		 -> ?_OLED_Printf_Line(BANK0[1]), 

    OLED_Printf_Line@dst	PTR unsigned char  size(1) Largest target is 32
		 -> OLED_Printf_Line@buf(BANK0[32]), 

    OLED_Printf_Line@fmt	PTR const unsigned char  size(2) Largest target is 14
		 -> STR_10(CODE[13]), STR_11(CODE[8]), STR_12(CODE[8]), STR_15(CODE[14]), 

    OLED_Printf_Line@p	PTR const unsigned char  size(1) Largest target is 32
		 -> OLED_Printf_Line@buf(BANK0[32]), 

    OLED_Printf_Line@src	PTR const unsigned char  size(2) Largest target is 14
		 -> STR_10(CODE[13]), STR_11(CODE[8]), STR_12(CODE[8]), STR_15(CODE[14]), 

    OLED_Printf_Line@str	PTR const unsigned char  size(2) Largest target is 9
		 -> ?_OLED_Printf_Line(BANK0[1]), STR_1(CODE[9]), STR_13(CODE[8]), STR_14(CODE[8]), 
		 -> STR_2(CODE[9]), STR_3(CODE[9]), STR_4(CODE[9]), STR_5(CODE[9]), 
		 -> STR_6(CODE[9]), STR_7(CODE[9]), STR_8(CODE[9]), STR_9(CODE[9]), 

    OLED_WriteData@data	PTR const unsigned char  size(2) Largest target is 768
		 -> OledFont(CODE[768]), screen_buffer(BIGRAM[512]), 

    sp__Joystick_DirectionString	PTR const unsigned char  size(2) Largest target is 9
		 -> STR_1(CODE[9]), STR_2(CODE[9]), STR_3(CODE[9]), STR_4(CODE[9]), 
		 -> STR_5(CODE[9]), STR_6(CODE[9]), STR_7(CODE[9]), STR_8(CODE[9]), 
		 -> STR_9(CODE[9]), 

    sp__memcpy	PTR void  size(2) Largest target is 512
		 -> screen_buffer(BIGRAM[512]), 

    sp__memset	PTR void  size(2) Largest target is 512
		 -> screen_buffer(BIGRAM[512]), 

    sp__strcpy	PTR unsigned char  size(2) Largest target is 256
		 -> OLED_Printf_Line@last_text(BIGRAM[256]), 

    strcmp@l	PTR const unsigned char  size(1) Largest target is 32
		 -> OLED_Printf_Line@buf(BANK0[32]), 

    strcmp@r	PTR const unsigned char  size(2) Largest target is 256
		 -> OLED_Printf_Line@last_text(BIGRAM[256]), 

    strcpy@d	PTR unsigned char  size(2) Largest target is 256
		 -> OLED_Printf_Line@last_text(BIGRAM[256]), 

    strcpy@dest	PTR unsigned char  size(2) Largest target is 256
		 -> OLED_Printf_Line@last_text(BIGRAM[256]), 

    strcpy@src	PTR const unsigned char  size(1) Largest target is 32
		 -> OLED_Printf_Line@buf(BANK0[32]), 


Critical Paths under _main in COMMON

    _main->_OLED_Init
    _initMain->_ADC_ConfigurePin
    _OLED_SetOrientation->_OLED_Command
    _OLED_Printf_Line->___lldiv
    _OLED_UpdateLine->_OLED_WriteData
    _OLED_Init->_OLED_Clear
    _OLED_Clear->_OLED_WriteData
    _OLED_YX->_OLED_Command
    _OLED_Command->_I2C_WriteByte
    _OLED_WriteData->_I2C_WriteByte
    _I2C_WriteByte->_I2C_WaitIF
    _I2C_WriteByte->_I2C_WaitIdle
    _I2C_Stop->_I2C_WaitIF
    _I2C_Stop->_I2C_WaitIdle
    _I2C_Start->_I2C_WaitIF
    _I2C_Start->_I2C_WaitIdle
    _ADC_Read_Averaged->___lldiv

Critical Paths under _main in BANK0

    _main->_OLED_Printf_Line
    _OLED_Printf_Line->_OLED_UpdateLine
    _OLED_Printf_Line->___aldiv
    _OLED_Init->_OLED_Clear
    _Joystick_Read->_ADC_Read_Averaged

Critical Paths under _main in BANK1

    _main->_OLED_Printf_Line

Critical Paths under _main in BANK2

    None.

Critical Paths under _main in BANK3

    None.

Critical Paths under _main in BANK4

    None.

Critical Paths under _main in BANK5

    None.

Critical Paths under _main in BANK6

    None.

Critical Paths under _main in BANK7

    None.

Critical Paths under _main in BANK8

    None.

Critical Paths under _main in BANK9

    None.

Critical Paths under _main in BANK10

    None.

Critical Paths under _main in BANK11

    None.

Critical Paths under _main in BANK12

    None.

Critical Paths under _main in BANK13

    None.

Critical Paths under _main in BANK14

    None.

Critical Paths under _main in BANK15

    None.

Critical Paths under _main in BANK16

    None.

Critical Paths under _main in BANK17

    None.

Critical Paths under _main in BANK18

    None.

Critical Paths under _main in BANK19

    None.

Critical Paths under _main in BANK20

    None.

Critical Paths under _main in BANK21

    None.

Critical Paths under _main in BANK22

    None.

Critical Paths under _main in BANK23

    None.

Critical Paths under _main in BANK24

    None.

Critical Paths under _main in BANK25

    None.

Call Graph Tables:

 ---------------------------------------------------------------------------------
 (Depth) Function   	        Calls       Base Space   Used Autos Params    Refs
 ---------------------------------------------------------------------------------
 (0) _main                                                14    14      0   37577
                                             47 BANK1     14    14      0
                           _ADC_Init
                           _I2C_Init
           _Joystick_DirectionString
                      _Joystick_Init
                      _Joystick_Read
                         _OLED_Clear
                          _OLED_Init
                   _OLED_Printf_Line
                _OLED_SetOrientation
                           _initMain
 ---------------------------------------------------------------------------------
 (1) _initMain                                             1     1      0      22
                                              3 COMMON     1     1      0
                   _ADC_ConfigurePin
                        _internal_32
 ---------------------------------------------------------------------------------
 (2) _internal_32                                          0     0      0       0
 ---------------------------------------------------------------------------------
 (2) _ADC_ConfigurePin                                     3     3      0      22
                                              0 COMMON     3     3      0
 ---------------------------------------------------------------------------------
 (1) _OLED_SetOrientation                                  3     3      0    3038
                                              7 COMMON     3     3      0
                       _OLED_Command
 ---------------------------------------------------------------------------------
 (1) _OLED_Printf_Line                                   121   115      6   14657
                                              6 BANK0     74    68      6
                                              0 BANK1     47    47      0
           _Joystick_DirectionString (ARG)
                    _OLED_UpdateLine
                            ___aldiv
                            ___almod
                            ___awdiv
                            ___awmod
                            ___lldiv
                            ___llmod
                            ___lwdiv
                            ___lwmod
                             _memcpy
                             _memset
                             _strcmp
                             _strcpy
 ---------------------------------------------------------------------------------
 (2) _strcpy                                               7     4      3     225
                                              0 COMMON     7     4      3
 ---------------------------------------------------------------------------------
 (2) _strcmp                                               4     2      2     221
                                              0 COMMON     4     2      2
 ---------------------------------------------------------------------------------
 (2) _memcpy                                              11     5      6     371
                                              0 COMMON    11     5      6
 ---------------------------------------------------------------------------------
 (2) ___lwmod                                              6     2      4     311
                                              0 COMMON     6     2      4
 ---------------------------------------------------------------------------------
 (2) ___lwdiv                                              8     4      4     314
                                              0 COMMON     8     4      4
 ---------------------------------------------------------------------------------
 (2) ___llmod                                             10     2      8     311
                                              0 COMMON    10     2      8
 ---------------------------------------------------------------------------------
 (2) ___awmod                                              7     3      4     448
                                              0 COMMON     7     3      4
 ---------------------------------------------------------------------------------
 (2) ___awdiv                                              9     5      4     604
                                              0 COMMON     9     5      4
 ---------------------------------------------------------------------------------
 (2) ___almod                                             11     3      8     448
                                              0 COMMON    11     3      8
 ---------------------------------------------------------------------------------
 (2) ___aldiv                                             15     7      8     452
                                              0 COMMON     9     1      8
                                              0 BANK0      6     6      0
 ---------------------------------------------------------------------------------
 (2) _OLED_UpdateLine                                      7     7      0    7135
                                             12 COMMON     1     1      0
                                              0 BANK0      6     6      0
                     _OLED_WriteData
                            _OLED_YX
 ---------------------------------------------------------------------------------
 (1) _OLED_Init                                            1     1      0   10749
                                             13 COMMON     1     1      0
                         _OLED_Clear
                       _OLED_Command
 ---------------------------------------------------------------------------------
 (2) _OLED_Clear                                           7     7      0    7733
                                             12 COMMON     1     1      0
                                              0 BANK0      6     6      0
                     _OLED_WriteData
                            _OLED_YX
                             _memset
 ---------------------------------------------------------------------------------
 (2) _memset                                               8     2      6     552
                                              0 COMMON     8     2      6
 ---------------------------------------------------------------------------------
 (3) _OLED_YX                                              4     3      1    3333
                                              7 COMMON     4     3      1
                       _OLED_Command
 ---------------------------------------------------------------------------------
 (2) _OLED_Command                                         2     2      0    3016
                                              5 COMMON     2     2      0
                          _I2C_Start
                           _I2C_Stop
                      _I2C_WriteByte
                      _SSD1306_CtrlW
 ---------------------------------------------------------------------------------
 (3) _OLED_WriteData                                       7     3      4    3736
                                              5 COMMON     7     3      4
                          _I2C_Start
                           _I2C_Stop
                      _I2C_WriteByte
                      _SSD1306_CtrlW
 ---------------------------------------------------------------------------------
 (3) _SSD1306_CtrlW                                        0     0      0       0
 ---------------------------------------------------------------------------------
 (3) _I2C_WriteByte                                        2     2      0     992
                                              3 COMMON     2     2      0
                         _I2C_WaitIF
                       _I2C_WaitIdle
 ---------------------------------------------------------------------------------
 (3) _I2C_Stop                                             1     1      0     938
                                              3 COMMON     1     1      0
                         _I2C_WaitIF
                       _I2C_WaitIdle
 ---------------------------------------------------------------------------------
 (3) _I2C_Start                                            1     1      0     970
                                              3 COMMON     1     1      0
                         _I2C_WaitIF
                       _I2C_WaitIdle
 ---------------------------------------------------------------------------------
 (4) _I2C_WaitIdle                                         3     1      2     402
                                              0 COMMON     3     1      2
 ---------------------------------------------------------------------------------
 (4) _I2C_WaitIF                                           3     1      2     478
                                              0 COMMON     3     1      2
 ---------------------------------------------------------------------------------
 (1) _Joystick_Read                                        5     5      0    1155
                                             12 BANK0      5     5      0
                  _ADC_Read_Averaged
              _Joystick_GetDirection
 ---------------------------------------------------------------------------------
 (2) _Joystick_GetDirection                                5     5      0     148
                                              0 COMMON     5     5      0
 ---------------------------------------------------------------------------------
 (2) _ADC_Read_Averaged                                   12    10      2     776
                                              0 BANK0     12    10      2
                            ___lldiv
 ---------------------------------------------------------------------------------
 (2) ___lldiv                                             14     6      8     466
                                              0 COMMON    14     6      8
 ---------------------------------------------------------------------------------
 (1) _Joystick_Init                                        0     0      0       0
 ---------------------------------------------------------------------------------
 (1) _Joystick_DirectionString                             3     1      2      22
                                              0 COMMON     3     1      2
 ---------------------------------------------------------------------------------
 (1) _I2C_Init                                             1     1      0       0
                                              0 COMMON     1     1      0
                    _I2C_ClearErrors
 ---------------------------------------------------------------------------------
 (2) _I2C_ClearErrors                                      0     0      0       0
 ---------------------------------------------------------------------------------
 (1) _ADC_Init                                             0     0      0       0
 ---------------------------------------------------------------------------------
 Estimated maximum stack depth 4
 ---------------------------------------------------------------------------------

 Call Graph Graphs:

 _main (ROOT)
   _ADC_Init
   _I2C_Init
     _I2C_ClearErrors
   _Joystick_DirectionString
   _Joystick_Init
   _Joystick_Read
     _ADC_Read_Averaged
       ___lldiv
     _Joystick_GetDirection
   _OLED_Clear
     _OLED_WriteData
       _I2C_Start
         _I2C_WaitIF
         _I2C_WaitIdle
       _I2C_Stop
         _I2C_WaitIF
         _I2C_WaitIdle
       _I2C_WriteByte
         _I2C_WaitIF
         _I2C_WaitIdle
       _SSD1306_CtrlW
     _OLED_YX
       _OLED_Command
         _I2C_Start
         _I2C_Stop
         _I2C_WriteByte
         _SSD1306_CtrlW
     _memset
   _OLED_Init
     _OLED_Clear
     _OLED_Command
   _OLED_Printf_Line
     _Joystick_DirectionString (ARG)
     _OLED_UpdateLine (ARG)
       _OLED_WriteData
       _OLED_YX
     ___aldiv (ARG)
     ___almod (ARG)
     ___awdiv (ARG)
     ___awmod (ARG)
     ___lldiv (ARG)
     ___llmod (ARG)
     ___lwdiv (ARG)
     ___lwmod (ARG)
     _memcpy (ARG)
     _memset (ARG)
     _strcmp (ARG)
     _strcpy (ARG)
   _OLED_SetOrientation
     _OLED_Command
   _initMain
     _ADC_ConfigurePin
     _internal_32

 Address spaces:
Name               Size   Autos  Total    Cost      Usage
BIGRAM             7F0      0       0       0        0.0%
NULL                 0      0       0       0        0.0%
CODE                 0      0       0       0        0.0%
BITCOMMON            E      0       0       1        0.0%
BITSFR0              0      0       0       1        0.0%
SFR0                 0      0       0       1        0.0%
COMMON               E      E       E       2      100.0%
BITSFR1              0      0       0       2        0.0%
SFR1                 0      0       0       2        0.0%
BITSFR2              0      0       0       3        0.0%
SFR2                 0      0       0       3        0.0%
STACK                0      0       0       3        0.0%
BITBANK0            50      0       0       4        0.0%
BITSFR3              0      0       0       4        0.0%
SFR3                 0      0       0       4        0.0%
BANK0               50     50      50       5      100.0%
BITSFR4              0      0       0       5        0.0%
SFR4                 0      0       0       5        0.0%
BITBANK1            50      0       0       6        0.0%
BITSFR5              0      0       0       6        0.0%
SFR5                 0      0       0       6        0.0%
BANK1               50     3D      3D       7       76.2%
BITSFR6              0      0       0       7        0.0%
SFR6                 0      0       0       7        0.0%
BITBANK2            50      0       0       8        0.0%
BITSFR7              0      0       0       8        0.0%
SFR7                 0      0       0       8        0.0%
BANK2               50      0       0       9        0.0%
BITSFR8              0      0       0       9        0.0%
SFR8                 0      0       0       9        0.0%
BITBANK3            50      0       0      10        0.0%
BITSFR9              0      0       0      10        0.0%
SFR9                 0      0       0      10        0.0%
BANK3               50      0       0      11        0.0%
BITSFR10             0      0       0      11        0.0%
SFR10                0      0       0      11        0.0%
BITBANK4            50      0       0      12        0.0%
BITSFR11             0      0       0      12        0.0%
SFR11                0      0       0      12        0.0%
BANK4               50      0       0      13        0.0%
BITSFR12             0      0       0      13        0.0%
SFR12                0      0       0      13        0.0%
BITSFR13             0      0       0      14        0.0%
SFR13                0      0       0      14        0.0%
ABS                  0      0       0      14        0.0%
BITBANK5            50      0       0      15        0.0%
BITSFR14             0      0       0      15        0.0%
SFR14                0      0       0      15        0.0%
BANK5               50      0       0      16        0.0%
BITSFR15             0      0       0      16        0.0%
SFR15                0      0       0      16        0.0%
BITBANK6            50      0       0      17        0.0%
BITSFR16             0      0       0      17        0.0%
SFR16                0      0       0      17        0.0%
BANK6               50      0       0      18        0.0%
BITSFR17             0      0       0      18        0.0%
SFR17                0      0       0      18        0.0%
BITBANK7            50      0       0      19        0.0%
BITSFR18             0      0       0      19        0.0%
SFR18                0      0       0      19        0.0%
BANK7               50      0       0      20        0.0%
BITSFR19             0      0       0      20        0.0%
SFR19                0      0       0      20        0.0%
BITBANK8            50      0       0      21        0.0%
BITSFR20             0      0       0      21        0.0%
SFR20                0      0       0      21        0.0%
BANK8               50      0       0      22        0.0%
BITSFR21             0      0       0      22        0.0%
SFR21                0      0       0      22        0.0%
BITBANK9            50      0       0      23        0.0%
BITSFR22             0      0       0      23        0.0%
SFR22                0      0       0      23        0.0%
BANK9               50      0       0      24        0.0%
BITSFR23             0      0       0      24        0.0%
SFR23                0      0       0      24        0.0%
BITBANK10           50      0       0      25        0.0%
BITSFR24             0      0       0      25        0.0%
SFR24                0      0       0      25        0.0%
BANK10              50      0       0      26        0.0%
BITSFR25             0      0       0      26        0.0%
SFR25                0      0       0      26        0.0%
BITBANK11           50      0       0      27        0.0%
BITSFR26             0      0       0      27        0.0%
SFR26                0      0       0      27        0.0%
BITSFR27             0      0       0      28        0.0%
SFR27                0      0       0      28        0.0%
DATA                 0      0       0      28        0.0%
BANK11              50      0       0      29        0.0%
BITSFR28             0      0       0      29        0.0%
SFR28                0      0       0      29        0.0%
BITBANK12           50      0       0      30        0.0%
BITSFR29             0      0       0      30        0.0%
SFR29                0      0       0      30        0.0%
BANK12              50      0       0      31        0.0%
BITSFR30             0      0       0      31        0.0%
SFR30                0      0       0      31        0.0%
BITBANK13           50      0       0      32        0.0%
BITSFR31             0      0       0      32        0.0%
SFR31                0      0       0      32        0.0%
BANK13              50      0       0      33        0.0%
BITBANK14           50      0       0      34        0.0%
BANK14              50      0       0      35        0.0%
BITBANK15           50      0       0      36        0.0%
BANK15              40      0       0      37        0.0%
BITBANK16           50      0       0      38        0.0%
BANK16               0      0       0      39        0.0%
BITBANK17           50      0       0      40        0.0%
BANK17               0      0       0      41        0.0%
BITBANK18           50      0       0      42        0.0%
BANK18               0      0       0      43        0.0%
BITBANK19           50      0       0      44        0.0%
BANK19               0      0       0      45        0.0%
BITBANK20           50      0       0      46        0.0%
BANK20               0      0       0      47        0.0%
BITBANK21           50      0       0      48        0.0%
BANK21               0      0       0      49        0.0%
BITBANK22           50      0       0      50        0.0%
BANK22               0      0       0      51        0.0%
BITBANK23           50      0       0      52        0.0%
BANK23               0      0       0      53        0.0%
BITBANK24           50      0       0      54        0.0%
BANK24               0      0       0      55        0.0%
BITBANK25           20      0       0      56        0.0%
BANK25               0      0       0      57        0.0%


Microchip Technology PIC Macro Assembler V2.46 build 20240104201356 
Symbol Table                                                                                   Sat Feb 07 16:27:11 2026

                 _ADC_ConfigurePin 00FD                        _SSPSTATbits 0214  
                               l32 0B31                                 l41 0BEF  
                               l26 0B6A                                 l35 17E3  
                               l28 0B86                                 l60 0CD6  
                               l45 0BFF                                 l61 0CF7  
                               l46 0C14                                 l62 0CE9  
                               l47 0C11                                 l55 0BB7  
                               l63 0CF1                                 l56 0BCB  
                               l57 0BC9                       ___awdiv@sign 0076  
        OLED_Printf_Line@last_text 26F0                                l101 0007  
                              l111 0EF4                                l105 0CC5  
                              l115 0EE9                                l131 0BA8  
                              l134 0242                                l143 0C6A  
                              l128 0D74                                l402 0FFF  
                              l139 0E55                                l166 07F1  
                              l407 0DBE                                l361 0104  
                              l273 17F5                                l370 0131  
                              l362 0109                                l363 010E  
                              l371 0161                                l532 0FA1  
                              l364 0113                                l365 0118  
                              l374 17FF                                l390 17EC  
                              l366 011D                                l367 0122  
                              l359 00FF                                l384 01CE  
                              l368 0127                                l393 00FC  
                              l561 035F                                l369 012C  
                              l378 0180                                l379 0182  
                              l571 03DB                                l387 0EA4  
                              l574 0255                                l662 0F47  
                              l726 0E08                                l584 02BD  
                              l649 009A                                l776 0D33  
                              l786 003B                                l964 0B68  
                              l972 0C97                                l958 0C3E  
                              l978 0B4C                       ___awmod@sign 0076  
                              wreg 0009                               l3000 0780  
                             l2202 0C13                               l3002 0786  
                             l3010 07CF                               l3020 17FC  
                             l3100 0D86                               l2212 0BBB  
                             l2220 0CCF                               l3012 07D7  
                             l3004 0788                               l2214 0BC3  
                             l2206 0BA9                               l2230 0CE3  
                             l2222 0CD4                               l2302 0ED1  
                             l3014 07EC                               l3006 07C3  
                             l3030 0E65                               l3022 0E56  
                             l3016 17F6                               l3120 0D9F  
                             l3112 0D95                               l3104 0D8B  
                             l2160 0B71                               l2208 0BB1  
                             l2312 0EE5                               l2304 0ED4  
                             l2320 0B91                               l2400 0C15  
                             l3008 07C9                               l3040 0E6D  
                             l3032 0E66                               l3024 0E59  
                             l3018 17FB                               l2162 0B79  
                             l2154 0B69                               l2170 0BCD  
                             l2242 0CF2                               l2226 0CD8  
                             l2218 0CC7                               l2306 0EDF  
                             l2250 0C99                               l2322 0B97  
                             l2330 0B58                               l2402 0C1E  
                             l2410 0C32                               l3050 0E7F  
                             l3042 0E6F                               l3034 0E67  
                             l3026 0E61                               l3116 0D9A  
                             l3108 0D90                               l2340 0F66  
                             l2164 0B85                               l2156 0B6F  
                             l2172 0BD4                               l2180 0BE2  
                             l2236 0CEE                               l2228 0CDB  
                             l2260 0CAF                               l2252 0C9D  
                             l2324 0B9C                               l2332 0B5C  
                             l2500 03C3                               l2404 0C24  
                             l2412 17ED                               l3060 0E92  
                             l3052 0E84                               l3044 0E70  
                             l3036 0E69                               l3028 0E63  
                             l3126 0DA4                               l2350 0F8C  
                             l2342 0F6A                               l2334 0F48  
                             l2430 0179                               l2182 0BEE  
                             l2174 0BD8                               l2190 0BFD  
                             l2238 0CEF                               l2246 0006  
                             l2318 0B88                               l2326 0B4D  
                             l2502 03C8                               l2510 0244  
                             l2406 0C28                               l2414 00FE  
                             l3070 0E9C                               l3062 0E93  
                             l3054 0E88                               l3046 0E75  
                             l3038 0E6A                               l2352 0F93  
                             l2344 0F71                               l2336 0F58  
                             l2440 01AB                               l2432 017D  
                             l2424 0164                               l3080 00CF  
                             l2168 0BCC                               l2280 0EAC  
                             l2272 0CBE                               l2264 0CB3  
                             l2256 0CA3                               l2328 0B52  
                             l2360 0E09                               l2504 03D3  
                             l2520 026F                               l2512 0248  
                             l2600 0F13                               l2408 0C2E  
                             l3304 013E                               l3072 0EA0  
                             l3064 0E98                               l3056 0E8D  
                             l3048 0E7A                               l3240 02C4  
                             l3074 17E4                               l2346 0F83  
                             l2338 0F5B                               l2354 0F99  
                             l2442 01B1                               l2434 0186  
                             l2426 016C                               l2450 0FB9  
                             l3082 00E5                               l2178 0BDA  
                             l2194 0C03                               l2186 0BF0  
                             l2290 0EC2                               l2282 0EB0  
                             l2266 0CB8                               l2258 0CAA  
                             l2370 0E2C                               l2530 029F  
                             l2522 027A                               l2514 0259  
                             l2610 0F2E                               l2602 0F18  
                             l3306 0D66                               l2418 0136  
                             l3066 0E99                               l3058 0E90  
                             l3250 02D8                               l3242 02C7  
                             l3092 0D7C                               l2348 0F8B  
                             l2436 01A2                               l2428 0178  
                             l2460 0FE8                               l2452 0FBB  
                             l3084 00F0                               l3076 009D  
                             l2196 0C0B                               l2188 0BF8  
                             l2276 0EA5                               l2372 0E4A  
                             l2380 0C47                               l2524 027E  
                             l2532 02A5                               l2516 0264  
                             l2508 0243                               l2540 003C  
                             l2612 0F33                               l2604 0F1C  
                             l2700 0D35                               l3068 0E9A  
                             l3260 0313                               l3252 02F1  
                             l3244 02CB                               l3236 02BE  
                             l2358 17DD                               l3086 0D76  
                             l2438 01A6                               l2462 0FFD  
                             l2454 0FD0                               l2446 0FA3  
                             l3078 00BA                               l2294 0EC6  
                             l2286 0EB6                               l2374 0E4F  
                             l2366 0E0A                               l2382 0C4C  
                             l2470 034E                               l2534 02AA  
                             l2526 0290                               l2518 026C  
                             l2550 004C                               l2542 003D  
                             l2606 0F20                               l2614 0F39  
                             l2630 0DD9                               l2622 0DBF  
                             l2390 0C82                               l2702 0D3A  
                             l3262 0324                               l3254 0304  
                             l3246 02D1                               l3238 02C1  
                             l3096 0D81                               l3088 0D77  
                             l2464 0FFE                               l2456 0FD1  
                             l2448 0FA4                               l2296 0ECB  
                             l2288 0EBD                               l2368 0E27  
                             l2720 01D7                               l2376 0C40  
                             l2480 037A                               l2472 0352  
                             l2536 02B5                               l2528 0298  
                             l2560 0060                               l2552 0051  
                             l2544 0041                               l2616 0F3E  
                             l2608 0F2A                               l2632 0DEB  
                             l2624 0DC7                               l2392 0C8A  
                             l2384 0C6C                               l2800 0435  
                             l2704 0D43                               l2712 0D5E  
                             l3256 030A                               l3248 02D4  
                             l2458 0FE6                               l2730 01EB  
                             l2722 01DB                               l2490 039B  
                             l2482 0382                               l2474 0363  
                             l2570 0080                               l2562 0065  
                             l2554 0055                               l2546 0046  
                             l2618 0F43                               l2634 0DF3  
                             l2626 0DCA                               l2650 0D08  
                             l2642 0CF8                               l2386 0C6D  
                             l2810 0461                               l2802 043B  
                             l2706 0D4C                               l3258 030F  
                             l2740 01FF                               l2732 01EF  
                             l2724 01DF                               l2492 03AD  
                             l2484 0385                               l2476 036E  
                             l2468 034C                               l2580 0096  
                             l2572 0081                               l2564 0069  
                             l2556 0057                               l2548 0048  
                             l2636 0DFA                               l2628 0DD5  
                             l2660 0D24                               l2652 0D0C  
                             l2644 0CFA                               l2388 0C75  
                             l2396 0B32                               l2900 05F6  
                             l2820 0488                               l2812 0467  
                             l2804 044B                               l2708 0D55  
                             l2750 0213                               l2742 0203  
                             l2734 01F3                               l2726 01E3  
                             l2718 01CF                               l2494 03B5  
                             l2486 0390                               l2478 0372  
                             l2574 0086                               l2566 006D  
                             l2558 005D                               l2590 0EFF  
                             l2638 0E00                               l2662 0D29  
                             l2654 0D10                               l2646 0D00  
                             l2670 000E                               l2398 0B36  
                             l2910 061A                               l2902 05FF  
                             l2830 04CB                               l2822 048E  
                             l2814 046F                               l2806 0451  
                             l2760 0227                               l2752 0217  
                             l2744 0207                               l2736 01F7  
                             l2728 01E7                               l2496 03B6  
                             l2488 0394                               l2568 007C  
                             l2576 008C                               l2592 0F01  
                             l2584 0EF5                               l2656 0D1F  
                             l2648 0D03                               l2664 0D2F  
                             l2680 0028                               l2672 0011  
                             l2920 0635                               l2912 061B  
                             l2904 0605                               l2832 04D3  
                             l2824 048F                               l2840 04F1  
                             l2816 0473                               l2808 0458  
                             l2690 0B1E                               l2770 023B  
                             l2762 022B                               l2754 021B  
                             l2746 020B                               l2738 01FB  
                             l2498 03BD                               l2578 0091  
                             l2594 0F05                               l2586 0EF6  
                             l2658 0D23                               l2682 002C  
                             l2674 0016                               l2930 0654  
                             l2922 063D                               l2914 061E  
                             l2906 060D                               l2850 0515  
                             l2842 04FB                               l2834 04DA  
                             l2826 04A9                               l2818 047D  
                             l2692 0B23                               l2772 023F  
                             l2764 022F                               l2756 021F  
                             l2748 020F                               l2596 0F0A  
                             l2588 0EFA                               l2684 0031  
                             l2676 001A                               l2668 0008  
                             l2940 0679                               l2932 065D  
                             l2924 0642                               l2916 0624  
                             l2908 0614                               l2860 0547  
                             l2852 051B                               l2844 0506  
                             l2836 04E3                               l2828 04AF  
                             l2780 03F2                               l2694 0B24  
                             l2766 0233                               l2758 0223  
                             l2598 0F10                               l2678 001E  
                             l2686 0037                               l2950 069E  
                             l2942 0682                               l2934 0663  
                             l2926 0647                               l2918 062D  
                             l2870 0581                               l2862 0563  
                             l2854 0526                               l2846 050C  
                             l2838 04E9                               l2790 0412  
                             l2782 03FC                               l2774 03DE  
                             l2696 0B26                               l2768 0237  
                             l2960 06B9                               l2952 06A6  
                             l2944 0686                               l2936 066B  
                             l2928 064D                               l2880 05A8  
                             l2864 056B                               l2856 0527  
                             l2848 0510                               l2872 0589  
                             l2792 0417                               l2784 0401  
                             l2698 0B29                               l2962 06BE  
                             l2954 06AC                               l2946 068C  
                             l2938 0672                               l2890 05C1  
                             l2874 058E                               l2866 0572  
                             l2858 0541                               l2882 05AE  
                             l2970 06E9                               l2794 041D  
                             l2786 0408                               l2778 03EF  
                             l2980 070A                               l2964 06C4  
                             l2956 06B3                               l2948 0695  
                             l2892 05D3                               l2884 05B3  
                             l2876 0594                               l2868 057B  
                             l2796 0422                               l2788 040E  
                             l2972 06EE                               l2990 0751  
                             l2982 0712                               l2974 06F7  
                             l2894 05D9                               l2886 05BA  
                             l2878 059F                               l2798 0423  
                             l2992 076F                               l2984 0716  
                             l2976 06FB                               l2896 05E9  
                             l2888 05C0                               l2968 06CE  
                             l2994 0771                               l2898 05EF  
                             l2978 0701                               l2996 0774  
                             l2988 0738                               l2998 077A  
                             STR_1 1800                               STR_2 1809  
                             STR_3 1812                               STR_4 181B  
                             STR_5 1836                               STR_6 1848  
                             STR_7 182D                               STR_8 183F  
                             STR_9 1824                    __end_of_OLED_YX 0BA9  
                             u2010 0E55                               u2011 0E54  
                             u2100 01B1                               u2020 0C46  
                             u2101 01B0                               u2005 0E31  
                             u2021 0C45                               u2110 0FB9  
                             u2111 0FB8                        ?_OLED_Clear 0070  
                             u2120 0FD0                               u2040 0C82  
                             u3000 0737                               u2121 0FCF  
                             u2041 0C81                               u3001 0736  
                             u2130 0FE6                               u2210 03AD  
                             u2050 0C8A                               u2131 0FE5  
                             u2115 0FB5                               u2035 0C51  
                             u2211 03AC                               u2051 0C89  
                             u2140 0FFD                               u2300 0290  
                             u2060 0B4C                               u2141 0FFC  
                             u2125 0FCC                               u2205 0395  
                             u2301 028F                               u2061 0B4B  
                             u2230 03C3                               u2150 0352  
                             u2070 0C3E                               u3030 0780  
                             u2135 0FE2                               u2231 03C2  
                             u2215 03A9                               u2151 0351  
                             u2071 0C3D                               u3031 077F  
                             u3015 073E                               u2080 0186  
                             u2240 03C8                               u2160 0363  
                             u2320 02A5                               u2400 007C  
                             u3040 0786                               u2081 0185  
                             u2145 0FF9                               u2241 03C7  
                             u2225 03B7                               u2161 0362  
                             u2321 02A4                               u2305 028C  
                             u2401 007B                               u3041 0785  
                             u3025 0757                               u2090 01A2  
                             u2170 0382                               u2330 02AA  
                             u2250 0248                               u2091 01A1  
                             u2171 0381                               u2331 02A9  
                             u2315 0299                               u2251 0247  
                             u1700 0BD4                               u2260 0259  
                             u2420 008C                               u2340 0041  
                             u3060 07D7                               u1701 0BD3  
                             u2261 0258                               u2421 008B  
                             u2405 0078                               u2341 0040  
                             u3061 07D6                               u1710 0BD8  
                             u2190 0394                               u2270 026C  
                             u2430 0091                               u2350 004C  
                             u2510 0F39                               u3070 07EC  
                             u2095 019E                               u1711 0BD7  
                             u2191 0393                               u2271 026B  
                             u2431 0090                               u2415 0082  
                             u2351 004B                               u2511 0F38  
                             u3071 07EB                               u3055 0792  
                             u1720 0BEE                               u1800 0CA2  
                             u2360 005D                               u2520 0F3E  
                             u2440 0EFA                               u1721 0BED  
                             u1801 0CA1                               u2185 0386  
                             u2361 005C                               u2521 0F3D  
                             u2505 0F2F                               u2441 0EF9  
                             u1730 0BFD                               u1810 0CAF  
                             u2290 027E                               u2450 0F05  
                             u2530 0DC7                               u2610 0D10  
                             u3330 030A                               u1731 0BFC  
                             u1811 0CAE                               u2291 027D  
                             u2451 0F04                               u2531 0DC6  
                             u2611 0D0F                               u3075 07E8  
                             u3331 0309                               u1740 0C10  
                             u1820 0CBD                               u2380 006D  
                             u2460 0F10                               u1741 0C0F  
                             u1821 0CBC                               u2285 0270  
                             u2381 006C                               u2461 0F0F  
                             u2605 0D04                               u1750 0BB6  
                             u1830 0EAB                               u1910 0B68  
                             u2550 0DD9                               u2630 0D1F  
                             u2710 0037                               u3407 01A3  
                             u1751 0BB5                               u1831 0EAA  
                             u1911 0B67                               u2375 0061  
                             u2551 0DD8                               u2631 0D1E  
                             u2711 0036                               u1920 0F58  
                             u1680 0B6F                               u1760 0BC8  
                             u1840 0EB5                               u2480 0F20  
                             u2560 0DEB                               u2800 04D9  
                             u2720 03EE                               u3417 0B2C  
                             u1921 0F57                               u1681 0B6E  
                             u1761 0BC7                               u1841 0EB4  
                             u1905 0B9F                               u2481 0F1F  
                             u2561 0DEA                               u2545 0DCB  
                             u2625 0D11                               u2705 002D  
                             u2801 04D8                               u2721 03ED  
                             u1690 0B85                               u1770 0CD4  
                             u1850 0EC2                               u2490 0F2A  
                             u2650 0D2F                               u2810 04F0  
                             u2730 03FC                               u1691 0B84  
                             u1771 0CD3                               u1851 0EC1  
                             u2395 006E                               u2491 0F29  
                             u2475 0F14                               u2651 0D2E  
                             u2635 0D1B                               u2811 04EF  
                             u2731 03FB                               u3347 0343  
                             u1940 0F6A                               u1780 0CE8  
                             u1860 0ED0                               u2580 0E00  
                             u2660 000E                               u2900 0624  
                             u2820 04FB                               u2740 0412  
                             u1941 0F69                               u1781 0CE7  
                             u1861 0ECF                               u2581 0DFF  
                             u2565 0DE7                               u2645 0D25  
                             u2661 000D                               u2901 0623  
                             u2821 04FA                               u2741 0411  
                             u3357 0E5C                               u1790 0CEE  
                             u1870 0EE4                               u2590 0D00  
                             u2830 0510                               u2750 0451  
                             u1935 0F5C                               u1791 0CED  
                             u1871 0EE3                               u3367 01D2  
                             u2495 0F26                               u2575 0DF4  
                             u2591 0CFF                               u2831 050F  
                             u2751 0450                               u1960 0F83  
                             u1880 0EF3                               u2680 001E  
                             u2920 064D                               u2840 056B  
                             u2760 0457                               u1961 0F82  
                             u3377 0BDD                               u1881 0EF2  
                             u2681 001D                               u2921 064C  
                             u2841 056A                               u2761 0456  
                             u2690 0028                               u2930 0653  
                             u2850 0571                               u2770 046E  
                             u1955 0F6B                               u3387 0B74  
                             u2691 0027                               u2675 0012  
                             u2931 0652                               u2915 0643  
                             u2851 0570                               u2771 046D  
                             u1980 0F99                               u2940 066A  
                             u2860 0588                               u2780 047D  
                             u1981 0F98                               u1965 0F7F  
                             u3397 017A                               u1885 0EEF  
                             u2941 0669                               u2861 0587  
                             u2781 047C                               u2950 0695  
                             u2870 05EF                               u2790 04D3  
                             u1975 0F8D                               u1895 0B8B  
                             u2695 0024                               u2951 0694  
                             u2871 05EE                               u2791 04D2  
                             u2960 069D                               u2880 05F5  
                             u2961 069C                               u2881 05F4  
                             u2970 070A                               u2890 060C  
                             u1995 0E0F                               u2971 0709  
                             u2891 060B                               u2980 0712  
                             u2981 0711                               _SCS0 04C8  
                             u2995 071B                               _SCS1 04C9  
                OLED_Printf_Line@i 00BF                  OLED_Printf_Line@p 00B6  
                             _main 02BE                   __end_of_I2C_Init 0B32  
                             fsr0h 0005                               fsr1h 0007  
                             indf0 0000                               fsr0l 0004  
                             indf1 0001                               fsr1l 0006  
                             btemp 007E                   __end_of_I2C_Stop 0BCC  
                 __end_of_ADC_Init 1800                               start 0003  
         _Joystick_DirectionString 0D75                   ??_OLED_WriteData 0079  
                  __end_of___aldiv 03DC                    __end_of___almod 02BE  
                            ?_main 0070                    __end_of___awdiv 009B  
                            STR_10 1000                              STR_11 1869  
                            STR_12 1861                              STR_13 1859  
                            STR_14 1851                              STR_15 0B00  
                  __end_of___awmod 0F48                    __end_of___lldiv 0FA2  
                  ___awdiv@divisor 0070                    __end_of___llmod 0E09  
                            _IRCF0 04CB                              _IRCF1 04CC  
                            _IRCF2 04CD                              _IRCF3 04CE  
                  __end_of___lwdiv 0D34                    __end_of___lwmod 003C  
                  ___awdiv@counter 0075                 OLED_Printf_Line@ch 00BE  
               OLED_Printf_Line@ap 00CB                  ??_OLED_UpdateLine 0020  
            __end_of_Joystick_Init 17ED              __end_of_Joystick_Read 00FD  
                __end_of_I2C_Start 0C15                        _BatteryIcon 100D  
                     _I2C_WaitIdle 0BCC               I2C_WaitIF@timeout_ms 0070  
                            status 0003               OLED_SetOrientation@o 0079  
                            wtemp0 007E                       ?_internal_32 0070  
                  __initialization 07F2                       __end_of_main 034C  
                 __end_of_OledFont 0B00                             ??_main 00CF  
                        ??_OLED_YX 0078                   ___llmod@dividend 0074  
                           _ADRESH 009C                             _ADRESL 009B  
                 ___awdiv@dividend 0072                       ??_I2C_WaitIF 0072  
                __end_of_OLED_Init 0243                      ?_OLED_Command 0070  
          ??_Joystick_GetDirection 0070                             _SPLLEN 04CF  
                           _SSPADD 0212                             _SSPBUF 0211  
                ?_OLED_Printf_Line 0026                 ??_OLED_Printf_Line 002C  
                        ??___aldiv 0078                          ??___almod 0078  
          ADC_ConfigurePin@channel 0072                          ??___awdiv 0074  
                        ??___awmod 0074                          ??___lldiv 0078  
                        ??___llmod 0078                OLED_Printf_Line@col 00B5  
              OLED_Printf_Line@buf 004E                          ??___lwdiv 0074  
              OLED_Printf_Line@fmt 0026                OLED_Printf_Line@dst 00CE  
                        ??___lwmod 0074                OLED_Printf_Line@val 00C8  
              OLED_Printf_Line@src 00CC                   __end_of_initMain 0EA5  
              OLED_Printf_Line@str 00B3                             _memcpy 0C15  
                           _memset 0B4D                        OLED_Clear@p 007C  
                 ___awdiv@quotient 0077                    ___awmod@divisor 0070  
                  ___awmod@counter 0075                        OLED_YX@page 0079  
               __end_of_I2C_WaitIF 0B87                             _strcmp 0C6B  
                           _strcpy 0B32                          ?_I2C_Init 0070  
                        ?_I2C_Stop 0070                          ?_ADC_Init 0070  
         __end_of_ADC_ConfigurePin 0162                     ??_OLED_Command 0075  
                  I2C_WriteByte@st 0074            __end_of__initialization 07FD  
                   __pcstackCOMMON 0070                      _I2C_WriteByte 0CC6  
                       ??_I2C_Init 0070                     _OPTION_REGbits 0095  
                       ??_I2C_Stop 0073                         ??_ADC_Init 0070  
      __end_of_OLED_SetOrientation 0D75                       ??_OLED_Clear 0020  
       ??_Joystick_DirectionString 0072                      _SSD1306_CtrlW 0006  
                       __pmaintext 02BE                     ?_I2C_WriteByte 0070  
                _ADC_Read_Averaged 0162                 ?_ADC_Read_Averaged 0020  
                          ?_memcpy 0070                            ?_memset 0070  
                       I2C_Stop@st 0073                    _OLED_UpdateLine 0C3F  
               __end_of_OLED_Clear 0E56                            ?_strcmp 0070  
                          ?_strcpy 0070            OLED_Printf_Line@val_350 00B7  
          OLED_Printf_Line@val_353 00C4            OLED_Printf_Line@val_356 00BB  
          OLED_Printf_Line@val_359 00B1                ??_ADC_Read_Averaged 0022  
                          _OLED_YX 0B87                            _PPSLOCK 0E0F  
                          _SSPCON2 0216             I2C_WaitIdle@timeout_ms 0070  
                        ?_initMain 0070                          _I2C_Start 0BF0  
                   ?_SSD1306_CtrlW 0070          __end_of_ADC_Read_Averaged 01CF  
                          ___aldiv 034C                            ___almod 0243  
                          ___awdiv 003C                            ___awmod 0EF5  
                          ___lldiv 0F48                            ___llmod 0DBF  
                ??_I2C_ClearErrors 0070                            ___lwdiv 0CF8  
                          ___lwmod 0008                   Joystick_Read@joy 0030  
             __end_of_OLED_Command 0CC6                            __ptext1 0E56  
                          __ptext2 17ED                            __ptext3 00FD  
                          __ptext4 0D34                            __ptext5 03DC  
                          __ptext6 0B32                            __ptext7 0C6B  
                          __ptext8 0C15                            __ptext9 0008  
             OLED_Printf_Line@line 00CA               OLED_Printf_Line@temp 00A0  
                 ___awmod@dividend 0072                   ___aldiv@dividend 0074  
                          main@joy 00D3                            clrloop0 0B13  
             end_of_initialization 07FD                            memcpy@d 0076  
                          memcpy@n 0074                            memcpy@s 0078  
                       ??_initMain 0073                            memset@c 0072  
                          memset@n 0074                            memset@p 0076  
                        _OLED_Init 01CF                         ?_I2C_Start 0070  
                OLED_WriteData@len 0077      __end_of_Joystick_GetDirection 1000  
                  ??_I2C_WriteByte 0073                    ___lldiv@divisor 0070  
                  ___lldiv@counter 007D            __end_of_OLED_UpdateLine 0C6B  
                 ___aldiv@quotient 0022                            strcmp@l 0073  
                          strcmp@r 0070                            strcpy@d 0075  
              OLED_UpdateLine@page 007C                          _PORTBbits 000D  
                        _TRISAbits 008C                          _TRISBbits 008D  
                        _TRISCbits 008E                    OLED_YX@col_char 0077  
                        _RXPPSbits 0E24                  ?_ADC_ConfigurePin 0070  
                  OLED_Command@cmd 0075  Joystick_DirectionString@direction 0072  
                  ??_SSD1306_CtrlW 0070                 ??_ADC_ConfigurePin 0070  
                       ?_OLED_Init 0070                     __end_of_memcpy 0C3F  
                   __end_of_memset 0B69                     __end_of_strcmp 0C98  
                   __end_of_strcpy 0B4D                start_initialization 07F2  
                    _Joystick_Init 17E4                      _Joystick_Read 009B  
                  ___llmod@divisor 0070                        ??_I2C_Start 0073  
                  ___llmod@counter 0079           ADC_Read_Averaged@channel 0026  
                 ?_OLED_UpdateLine 0070                         OLED_YX@col 007A  
         ADC_Read_Averaged@samples 0020                           ??_memcpy 0076  
                         ??_memset 0076                         memset@dest 0070  
                         ??_strcmp 0072                           ??_strcpy 0073  
                      __pbssBIGRAM 24F0                          ___latbits 0003  
                         ?_OLED_YX 0077                      __pcstackBANK0 0020  
                    __pcstackBANK1 00A0                     ?_Joystick_Init 0070  
                   ?_Joystick_Read 0070                      ?_I2C_WaitIdle 0070  
                     _OLED_Command 0C98                    _I2C_ClearErrors 17DD  
                    ??_internal_32 0070                        ??_OLED_Init 007D  
                    _screen_buffer 24F0                   ___lwdiv@dividend 0072  
                         ?___aldiv 0070                           ?___almod 0070  
                         ?___awdiv 0070                           ?___awmod 0070  
                         ?___lldiv 0070                           ?___llmod 0070  
                         ?___lwdiv 0070                           ?___lwmod 0070  
           OLED_Printf_Line@nibble 00BD          ?_Joystick_DirectionString 0070  
                 _OLED_Printf_Line 03DC                   ___almod@dividend 0074  
                      I2C_Start@st 0073                           _I2C_Init 0B1E  
                         _I2C_Stop 0BA9                           _ADC_Init 17F6  
                   _OLED_WriteData 0EA5                   ___lwdiv@quotient 0075  
                   ??_I2C_WaitIdle 0072                    ___aldiv@divisor 0070  
                  ___aldiv@counter 0020                          clear_ram0 0B12  
         OLED_Printf_Line@temp_351 0038           OLED_Printf_Line@temp_360 00AC  
         OLED_Printf_Line@temp_354 0043           OLED_Printf_Line@temp_357 00A6  
                 OLED_WriteData@st 007B                           _PIR1bits 0011  
                         _PIR2bits 0012                __end_of_internal_32 17F6  
                       _ADCON0bits 009D                         _ADCON1bits 009E  
           __end_of_OLED_WriteData 0EF5                     OLED_Command@st 0076  
                         _WPUBbits 020D                    ??_Joystick_Init 0070  
                  ??_Joystick_Read 002C            __end_of_I2C_ClearErrors 17E4  
                       _I2C_WaitIF 0B69                           _OledFont 0800  
                        memcpy@tmp 007A              __end_of_I2C_WriteByte 0CF8  
            _Joystick_GetDirection 0FA2                         _ANSELAbits 018C  
                       _ANSELBbits 018D                         _ANSELCbits 018E  
                  ?_OLED_WriteData 0075              OLED_Printf_Line@i_352 00C0  
            OLED_Printf_Line@i_361 00C3              OLED_Printf_Line@i_355 00C1  
            OLED_Printf_Line@i_358 00C2                           _main$879 00D1  
                  ___lwdiv@divisor 0070                    ___lwdiv@counter 0077  
                         __ptext10 0CF8                           __ptext11 0DBF  
                         __ptext20 0B87                           __ptext12 0EF5  
                         __ptext21 0C98                           __ptext13 003C  
                         __ptext30 0FA2                           __ptext22 0EA5  
                         __ptext14 0243                           __ptext31 0162  
                         __ptext23 0006                           __ptext15 034C  
                         __ptext32 0F48                           __ptext24 0CC6  
                         __ptext16 0C3F                           __ptext33 17E4  
                         __ptext25 0BA9                           __ptext17 01CF  
                         __ptext34 0D75                           __ptext26 0BF0  
                         __ptext18 0E09                           __ptext35 0B1E  
                         __ptext27 0BCC                           __ptext19 0B4D  
                         __ptext36 17DD                           __ptext28 0B69  
                         __ptext37 17F6                           __ptext29 009B  
                  ___almod@divisor 0070                    ___almod@counter 0079  
                       strcpy@dest 0070                           _initMain 0E56  
                    _SSPDATPPSbits 0E21                        _internal_32 17ED  
            __end_of_SSD1306_CtrlW 0008                         _RB2PPSbits 0E9A  
                  OLED_WriteData@i 0079                         _RC4PPSbits 0EA4  
                    _SSPCLKPPSbits 0E20                         _RC5PPSbits 0EA5  
             __end_of_I2C_WaitIdle 0BF0                _OLED_SetOrientation 0D34  
                         memcpy@d1 0070                           memcpy@s1 0072  
                   __pstringtext10 1836                     __pstringtext11 183F  
                   __pstringtext12 1848                     __pstringtext13 1851  
                   __pstringtext14 1859                     __pstringtext15 1861  
                   __pstringtext16 1869                     __pstringtext17 0000  
                 ?_I2C_ClearErrors 0070                        ?_I2C_WaitIF 0070  
                       _OLED_Clear 0E09               _OLED_Printf_Line$363 006E  
               OLED_WriteData@data 0075           __end_of_OLED_Printf_Line 07F2  
                 ___lwmod@dividend 0072               ?_OLED_SetOrientation 0070  
                 ___lldiv@dividend 0074   __end_of_Joystick_DirectionString 0DBF  
                        strcpy@src 0072                        _PPSLOCKbits 0E0F  
           ?_Joystick_GetDirection 0070                      __pstringtext1 100D  
                    __pstringtext2 0800                      __pstringtext3 1000  
                    __pstringtext4 1800                      __pstringtext5 1809  
                    __pstringtext6 1812                      __pstringtext7 181B  
                    __pstringtext8 1824                      __pstringtext9 182D  
         Joystick_GetDirection@dir 0073           Joystick_GetDirection@joy 0074  
                 ___lldiv@quotient 0079                    ___lwmod@divisor 0070  
                  ___lwmod@counter 0075                       ___aldiv@sign 0021  
                      _SSPCON1bits 0215                        _SSPCON2bits 0216  
             ADC_Read_Averaged@sum 0027                       ___almod@sign 007A  
            ??_OLED_SetOrientation 0077                  I2C_WriteByte@data 0073  
                       _SSPCONbits 0215                 ADC_Read_Averaged@i 002B  
              __end_of_BatteryIcon 1017  
