

Microchip MPLAB XC8 Assembler V2.46 build 20240104201356 
                                                                                               Sat Dec 14 21:13:08 2024

Microchip MPLAB XC8 C Compiler v2.46 (Free license) build 20240104201356 Og1 
     1                           	processor	16F1719
     2                           	pagewidth 120
     3                           	opt	flic
     4                           	psect	idataBANK1,global,class=CODE,delta=2,noexec
     5                           	psect	stringtext1,global,class=STRCODE,delta=2,noexec
     6                           	psect	stringtext2,global,class=STRCODE,delta=2,noexec
     7                           	psect	stringtext3,global,class=STRCODE,delta=2,noexec
     8                           	psect	stringtext4,global,class=STRCODE,delta=2,noexec
     9                           	psect	stringtext5,global,class=STRCODE,delta=2,noexec
    10                           	psect	stringtext6,global,class=STRCODE,delta=2,noexec
    11                           	psect	stringtext7,global,class=STRCODE,delta=2,noexec
    12                           	psect	stringtext8,global,class=STRCODE,delta=2,noexec
    13                           	psect	stringtext9,global,class=STRCODE,delta=2,noexec
    14                           	psect	cinit,global,class=CODE,merge=1,delta=2
    15                           	psect	bssBANK0,global,class=BANK0,space=1,delta=1,noexec
    16                           	psect	bssBANK1,global,class=BANK1,space=1,delta=1,noexec
    17                           	psect	dataBANK1,global,class=BANK1,space=1,delta=1,noexec
    18                           	psect	bssBANK2,global,class=BANK2,space=1,delta=1,noexec
    19                           	psect	clrtext,global,class=CODE,delta=2
    20                           	psect	cstackBANK1,global,class=BANK1,space=1,delta=1,noexec
    21                           	psect	cstackCOMMON,global,class=COMMON,space=1,delta=1,noexec
    22                           	psect	cstackBANK0,global,class=BANK0,space=1,delta=1,noexec
    23                           	psect	maintext,global,class=CODE,merge=1,split=1,delta=2
    24                           	psect	text1,local,class=CODE,merge=1,delta=2
    25                           	psect	text2,local,class=CODE,merge=1,delta=2
    26                           	psect	text3,local,class=CODE,merge=1,delta=2
    27                           	psect	text4,local,class=CODE,merge=1,delta=2,group=2
    28                           	psect	text5,local,class=CODE,merge=1,delta=2
    29                           	psect	text6,local,class=CODE,merge=1,delta=2,group=2
    30                           	psect	text7,local,class=CODE,merge=1,delta=2
    31                           	psect	text8,local,class=CODE,merge=1,delta=2
    32                           	psect	text9,local,class=CODE,merge=1,delta=2,group=3
    33                           	psect	text10,local,class=CODE,merge=1,delta=2,group=1
    34                           	psect	text11,local,class=CODE,merge=1,delta=2,group=1
    35                           	psect	text12,local,class=CODE,merge=1,delta=2,group=3
    36                           	psect	text13,local,class=CODE,merge=1,delta=2,group=3
    37                           	psect	text14,local,class=CODE,merge=1,delta=2,group=2
    38                           	psect	text15,local,class=CODE,merge=1,delta=2,group=2
    39                           	psect	text16,local,class=CODE,merge=1,delta=2
    40                           	psect	text17,local,class=CODE,merge=1,delta=2
    41                           	psect	text18,local,class=CODE,merge=1,delta=2
    42                           	psect	text19,local,class=CODE,merge=1,delta=2,group=2
    43                           	psect	text20,local,class=CODE,merge=1,delta=2,group=2
    44                           	psect	text21,local,class=CODE,merge=1,delta=2,group=2
    45                           	psect	text22,local,class=CODE,merge=1,delta=2,group=2
    46                           	psect	text23,local,class=CODE,merge=1,delta=2,group=2
    47                           	psect	text24,local,class=CODE,merge=1,delta=2,group=2
    48                           	psect	text25,local,class=CODE,merge=1,delta=2,group=2
    49                           	psect	text26,local,class=CODE,merge=1,delta=2,group=2
    50                           	psect	text27,local,class=CODE,merge=1,delta=2,group=2
    51                           	psect	text28,local,class=CODE,merge=1,delta=2,group=2
    52                           	psect	text29,local,class=CODE,merge=1,delta=2,group=2
    53                           	psect	text30,local,class=CODE,merge=1,delta=2
    54                           	psect	text31,local,class=CODE,merge=1,delta=2
    55                           	psect	intentry,global,class=CODE,delta=2
    56                           	psect	config,global,abs,ovrld,class=CONFIG,space=4,delta=2,noexec
    57                           	dabs	1,0x7E,2
    58     0000                     
    59                           ; Generated 07/09/2023 GMT
    60                           ; 
    61                           ; Copyright © 2023, Microchip Technology Inc. and its subsidiaries ("Microchip")
    62                           ; All rights reserved.
    63                           ; 
    64                           ; This software is developed by Microchip Technology Inc. and its subsidiaries ("Microch
      +                          ip").
    65                           ; 
    66                           ; Redistribution and use in source and binary forms, with or without modification, are
    67                           ; permitted provided that the following conditions are met:
    68                           ; 
    69                           ;     1. Redistributions of source code must retain the above copyright notice, this lis
      +                          t of
    70                           ;        conditions and the following disclaimer.
    71                           ; 
    72                           ;     2. Redistributions in binary form must reproduce the above copyright notice, this 
      +                          list
    73                           ;        of conditions and the following disclaimer in the documentation and/or other
    74                           ;        materials provided with the distribution. Publication is not required when
    75                           ;        this file is used in an embedded application.
    76                           ; 
    77                           ;     3. Microchip's name may not be used to endorse or promote products derived from th
      +                          is
    78                           ;        software without specific prior written permission.
    79                           ; 
    80                           ; THIS SOFTWARE IS PROVIDED BY MICROCHIP "AS IS" AND ANY EXPRESS OR IMPLIED WARRANTIES,
    81                           ; INCLUDING, BUT NOT LIMITED TO, THE IMPLIED WARRANTIES OF MERCHANTABILITY AND FITNESS F
      +                          OR
    82                           ; PURPOSE ARE DISCLAIMED.  IN NO EVENT SHALL MICROCHIP BE LIABLE FOR ANY DIRECT, INDIREC
      +                          T,
    83                           ; INCIDENTAL, SPECIAL, EXEMPLARY, OR CONSEQUENTIAL DAMAGES (INCLUDING BUT NOT LIMITED TO
    84                           ; PROCUREMENT OF SUBSTITUTE GOODS OR SERVICES; LOSS OF USE, DATA OR PROFITS; OR BUSINESS
    85                           ; INTERRUPTION) HOWSOEVER CAUSED AND ON ANY THEORY OF LIABILITY, WHETHER IN CONTRACT, ST
      +                          RICT
    86                           ; LIABILITY, OR TORT (INCLUDING NEGLIGENCE OR OTHERWISE) ARISING IN ANY WAY OUT OF THE U
      +                          SE OF
    87                           ; THIS SOFTWARE, EVEN IF ADVISED OF THE POSSIBILITY OF SUCH DAMAGE.
    88                           ; 
    89                           ; 
    90                           ; Code-generator required, PIC16F1719 Definitions
    91                           ; 
    92                           ; SFR Addresses
    93     0000                     	;# 
    94     0001                     	;# 
    95     0002                     	;# 
    96     0003                     	;# 
    97     0004                     	;# 
    98     0005                     	;# 
    99     0006                     	;# 
   100     0007                     	;# 
   101     0008                     	;# 
   102     0009                     	;# 
   103     000A                     	;# 
   104     000B                     	;# 
   105     000C                     	;# 
   106     000D                     	;# 
   107     000E                     	;# 
   108     000F                     	;# 
   109     0010                     	;# 
   110     0011                     	;# 
   111     0012                     	;# 
   112     0013                     	;# 
   113     0015                     	;# 
   114     0016                     	;# 
   115     0016                     	;# 
   116     0017                     	;# 
   117     0018                     	;# 
   118     0019                     	;# 
   119     001A                     	;# 
   120     001B                     	;# 
   121     001C                     	;# 
   122     008C                     	;# 
   123     008D                     	;# 
   124     008E                     	;# 
   125     008F                     	;# 
   126     0090                     	;# 
   127     0091                     	;# 
   128     0092                     	;# 
   129     0093                     	;# 
   130     0095                     	;# 
   131     0096                     	;# 
   132     0097                     	;# 
   133     0098                     	;# 
   134     0099                     	;# 
   135     009A                     	;# 
   136     009B                     	;# 
   137     009B                     	;# 
   138     009C                     	;# 
   139     009D                     	;# 
   140     009E                     	;# 
   141     009F                     	;# 
   142     010C                     	;# 
   143     010D                     	;# 
   144     010E                     	;# 
   145     010F                     	;# 
   146     0110                     	;# 
   147     0111                     	;# 
   148     0112                     	;# 
   149     0113                     	;# 
   150     0114                     	;# 
   151     0115                     	;# 
   152     0116                     	;# 
   153     0117                     	;# 
   154     0118                     	;# 
   155     0119                     	;# 
   156     011A                     	;# 
   157     011B                     	;# 
   158     011B                     	;# 
   159     011C                     	;# 
   160     018C                     	;# 
   161     018D                     	;# 
   162     018E                     	;# 
   163     018F                     	;# 
   164     0190                     	;# 
   165     0191                     	;# 
   166     0191                     	;# 
   167     0192                     	;# 
   168     0193                     	;# 
   169     0193                     	;# 
   170     0194                     	;# 
   171     0195                     	;# 
   172     0196                     	;# 
   173     0197                     	;# 
   174     0199                     	;# 
   175     0199                     	;# 
   176     0199                     	;# 
   177     019A                     	;# 
   178     019A                     	;# 
   179     019A                     	;# 
   180     019B                     	;# 
   181     019B                     	;# 
   182     019B                     	;# 
   183     019B                     	;# 
   184     019B                     	;# 
   185     019C                     	;# 
   186     019C                     	;# 
   187     019C                     	;# 
   188     019D                     	;# 
   189     019D                     	;# 
   190     019D                     	;# 
   191     019E                     	;# 
   192     019E                     	;# 
   193     019E                     	;# 
   194     019F                     	;# 
   195     019F                     	;# 
   196     019F                     	;# 
   197     019F                     	;# 
   198     019F                     	;# 
   199     020C                     	;# 
   200     020D                     	;# 
   201     020E                     	;# 
   202     020F                     	;# 
   203     0210                     	;# 
   204     0211                     	;# 
   205     0211                     	;# 
   206     0212                     	;# 
   207     0212                     	;# 
   208     0213                     	;# 
   209     0213                     	;# 
   210     0214                     	;# 
   211     0214                     	;# 
   212     0215                     	;# 
   213     0215                     	;# 
   214     0215                     	;# 
   215     0215                     	;# 
   216     0216                     	;# 
   217     0216                     	;# 
   218     0217                     	;# 
   219     0217                     	;# 
   220     028C                     	;# 
   221     028D                     	;# 
   222     028E                     	;# 
   223     028F                     	;# 
   224     0290                     	;# 
   225     0291                     	;# 
   226     0291                     	;# 
   227     0292                     	;# 
   228     0293                     	;# 
   229     0293                     	;# 
   230     0298                     	;# 
   231     0298                     	;# 
   232     0299                     	;# 
   233     029A                     	;# 
   234     029A                     	;# 
   235     029E                     	;# 
   236     030C                     	;# 
   237     030D                     	;# 
   238     030E                     	;# 
   239     030F                     	;# 
   240     0310                     	;# 
   241     038C                     	;# 
   242     038D                     	;# 
   243     038E                     	;# 
   244     038F                     	;# 
   245     0390                     	;# 
   246     0391                     	;# 
   247     0392                     	;# 
   248     0393                     	;# 
   249     0394                     	;# 
   250     0395                     	;# 
   251     0396                     	;# 
   252     0397                     	;# 
   253     0398                     	;# 
   254     0399                     	;# 
   255     039D                     	;# 
   256     039E                     	;# 
   257     039F                     	;# 
   258     0415                     	;# 
   259     0416                     	;# 
   260     0417                     	;# 
   261     041C                     	;# 
   262     041D                     	;# 
   263     041E                     	;# 
   264     0498                     	;# 
   265     0498                     	;# 
   266     0499                     	;# 
   267     049A                     	;# 
   268     049B                     	;# 
   269     049B                     	;# 
   270     049C                     	;# 
   271     049D                     	;# 
   272     049E                     	;# 
   273     049F                     	;# 
   274     0511                     	;# 
   275     0515                     	;# 
   276     0617                     	;# 
   277     0618                     	;# 
   278     0619                     	;# 
   279     0619                     	;# 
   280     061A                     	;# 
   281     061B                     	;# 
   282     061C                     	;# 
   283     061C                     	;# 
   284     0691                     	;# 
   285     0692                     	;# 
   286     0693                     	;# 
   287     0694                     	;# 
   288     0695                     	;# 
   289     0696                     	;# 
   290     0697                     	;# 
   291     0698                     	;# 
   292     0699                     	;# 
   293     069A                     	;# 
   294     069B                     	;# 
   295     069C                     	;# 
   296     069D                     	;# 
   297     069E                     	;# 
   298     069F                     	;# 
   299     0E0F                     	;# 
   300     0E10                     	;# 
   301     0E11                     	;# 
   302     0E12                     	;# 
   303     0E13                     	;# 
   304     0E14                     	;# 
   305     0E15                     	;# 
   306     0E17                     	;# 
   307     0E20                     	;# 
   308     0E21                     	;# 
   309     0E22                     	;# 
   310     0E24                     	;# 
   311     0E25                     	;# 
   312     0E28                     	;# 
   313     0E29                     	;# 
   314     0E2A                     	;# 
   315     0E2B                     	;# 
   316     0E90                     	;# 
   317     0E91                     	;# 
   318     0E92                     	;# 
   319     0E93                     	;# 
   320     0E94                     	;# 
   321     0E95                     	;# 
   322     0E96                     	;# 
   323     0E97                     	;# 
   324     0E98                     	;# 
   325     0E99                     	;# 
   326     0E9A                     	;# 
   327     0E9B                     	;# 
   328     0E9C                     	;# 
   329     0E9D                     	;# 
   330     0E9E                     	;# 
   331     0E9F                     	;# 
   332     0EA0                     	;# 
   333     0EA1                     	;# 
   334     0EA2                     	;# 
   335     0EA3                     	;# 
   336     0EA4                     	;# 
   337     0EA5                     	;# 
   338     0EA6                     	;# 
   339     0EA7                     	;# 
   340     0EA8                     	;# 
   341     0EA9                     	;# 
   342     0EAA                     	;# 
   343     0EAB                     	;# 
   344     0EAC                     	;# 
   345     0EAD                     	;# 
   346     0EAE                     	;# 
   347     0EAF                     	;# 
   348     0EB0                     	;# 
   349     0EB1                     	;# 
   350     0EB2                     	;# 
   351     0F0F                     	;# 
   352     0F10                     	;# 
   353     0F11                     	;# 
   354     0F12                     	;# 
   355     0F13                     	;# 
   356     0F14                     	;# 
   357     0F15                     	;# 
   358     0F16                     	;# 
   359     0F17                     	;# 
   360     0F18                     	;# 
   361     0F19                     	;# 
   362     0F1A                     	;# 
   363     0F1B                     	;# 
   364     0F1C                     	;# 
   365     0F1D                     	;# 
   366     0F1E                     	;# 
   367     0F1F                     	;# 
   368     0F20                     	;# 
   369     0F21                     	;# 
   370     0F22                     	;# 
   371     0F23                     	;# 
   372     0F24                     	;# 
   373     0F25                     	;# 
   374     0F26                     	;# 
   375     0F27                     	;# 
   376     0F28                     	;# 
   377     0F29                     	;# 
   378     0F2A                     	;# 
   379     0F2B                     	;# 
   380     0F2C                     	;# 
   381     0F2D                     	;# 
   382     0F2E                     	;# 
   383     0F2F                     	;# 
   384     0F30                     	;# 
   385     0F31                     	;# 
   386     0F32                     	;# 
   387     0F33                     	;# 
   388     0F34                     	;# 
   389     0F35                     	;# 
   390     0F36                     	;# 
   391     0F37                     	;# 
   392     0FE4                     	;# 
   393     0FE5                     	;# 
   394     0FE6                     	;# 
   395     0FE7                     	;# 
   396     0FE8                     	;# 
   397     0FE9                     	;# 
   398     0FEA                     	;# 
   399     0FEB                     	;# 
   400     0FED                     	;# 
   401     0FEE                     	;# 
   402     0FEF                     	;# 
   403     0000                     	;# 
   404     0001                     	;# 
   405     0002                     	;# 
   406     0003                     	;# 
   407     0004                     	;# 
   408     0005                     	;# 
   409     0006                     	;# 
   410     0007                     	;# 
   411     0008                     	;# 
   412     0009                     	;# 
   413     000A                     	;# 
   414     000B                     	;# 
   415     000C                     	;# 
   416     000D                     	;# 
   417     000E                     	;# 
   418     000F                     	;# 
   419     0010                     	;# 
   420     0011                     	;# 
   421     0012                     	;# 
   422     0013                     	;# 
   423     0015                     	;# 
   424     0016                     	;# 
   425     0016                     	;# 
   426     0017                     	;# 
   427     0018                     	;# 
   428     0019                     	;# 
   429     001A                     	;# 
   430     001B                     	;# 
   431     001C                     	;# 
   432     008C                     	;# 
   433     008D                     	;# 
   434     008E                     	;# 
   435     008F                     	;# 
   436     0090                     	;# 
   437     0091                     	;# 
   438     0092                     	;# 
   439     0093                     	;# 
   440     0095                     	;# 
   441     0096                     	;# 
   442     0097                     	;# 
   443     0098                     	;# 
   444     0099                     	;# 
   445     009A                     	;# 
   446     009B                     	;# 
   447     009B                     	;# 
   448     009C                     	;# 
   449     009D                     	;# 
   450     009E                     	;# 
   451     009F                     	;# 
   452     010C                     	;# 
   453     010D                     	;# 
   454     010E                     	;# 
   455     010F                     	;# 
   456     0110                     	;# 
   457     0111                     	;# 
   458     0112                     	;# 
   459     0113                     	;# 
   460     0114                     	;# 
   461     0115                     	;# 
   462     0116                     	;# 
   463     0117                     	;# 
   464     0118                     	;# 
   465     0119                     	;# 
   466     011A                     	;# 
   467     011B                     	;# 
   468     011B                     	;# 
   469     011C                     	;# 
   470     018C                     	;# 
   471     018D                     	;# 
   472     018E                     	;# 
   473     018F                     	;# 
   474     0190                     	;# 
   475     0191                     	;# 
   476     0191                     	;# 
   477     0192                     	;# 
   478     0193                     	;# 
   479     0193                     	;# 
   480     0194                     	;# 
   481     0195                     	;# 
   482     0196                     	;# 
   483     0197                     	;# 
   484     0199                     	;# 
   485     0199                     	;# 
   486     0199                     	;# 
   487     019A                     	;# 
   488     019A                     	;# 
   489     019A                     	;# 
   490     019B                     	;# 
   491     019B                     	;# 
   492     019B                     	;# 
   493     019B                     	;# 
   494     019B                     	;# 
   495     019C                     	;# 
   496     019C                     	;# 
   497     019C                     	;# 
   498     019D                     	;# 
   499     019D                     	;# 
   500     019D                     	;# 
   501     019E                     	;# 
   502     019E                     	;# 
   503     019E                     	;# 
   504     019F                     	;# 
   505     019F                     	;# 
   506     019F                     	;# 
   507     019F                     	;# 
   508     019F                     	;# 
   509     020C                     	;# 
   510     020D                     	;# 
   511     020E                     	;# 
   512     020F                     	;# 
   513     0210                     	;# 
   514     0211                     	;# 
   515     0211                     	;# 
   516     0212                     	;# 
   517     0212                     	;# 
   518     0213                     	;# 
   519     0213                     	;# 
   520     0214                     	;# 
   521     0214                     	;# 
   522     0215                     	;# 
   523     0215                     	;# 
   524     0215                     	;# 
   525     0215                     	;# 
   526     0216                     	;# 
   527     0216                     	;# 
   528     0217                     	;# 
   529     0217                     	;# 
   530     028C                     	;# 
   531     028D                     	;# 
   532     028E                     	;# 
   533     028F                     	;# 
   534     0290                     	;# 
   535     0291                     	;# 
   536     0291                     	;# 
   537     0292                     	;# 
   538     0293                     	;# 
   539     0293                     	;# 
   540     0298                     	;# 
   541     0298                     	;# 
   542     0299                     	;# 
   543     029A                     	;# 
   544     029A                     	;# 
   545     029E                     	;# 
   546     030C                     	;# 
   547     030D                     	;# 
   548     030E                     	;# 
   549     030F                     	;# 
   550     0310                     	;# 
   551     038C                     	;# 
   552     038D                     	;# 
   553     038E                     	;# 
   554     038F                     	;# 
   555     0390                     	;# 
   556     0391                     	;# 
   557     0392                     	;# 
   558     0393                     	;# 
   559     0394                     	;# 
   560     0395                     	;# 
   561     0396                     	;# 
   562     0397                     	;# 
   563     0398                     	;# 
   564     0399                     	;# 
   565     039D                     	;# 
   566     039E                     	;# 
   567     039F                     	;# 
   568     0415                     	;# 
   569     0416                     	;# 
   570     0417                     	;# 
   571     041C                     	;# 
   572     041D                     	;# 
   573     041E                     	;# 
   574     0498                     	;# 
   575     0498                     	;# 
   576     0499                     	;# 
   577     049A                     	;# 
   578     049B                     	;# 
   579     049B                     	;# 
   580     049C                     	;# 
   581     049D                     	;# 
   582     049E                     	;# 
   583     049F                     	;# 
   584     0511                     	;# 
   585     0515                     	;# 
   586     0617                     	;# 
   587     0618                     	;# 
   588     0619                     	;# 
   589     0619                     	;# 
   590     061A                     	;# 
   591     061B                     	;# 
   592     061C                     	;# 
   593     061C                     	;# 
   594     0691                     	;# 
   595     0692                     	;# 
   596     0693                     	;# 
   597     0694                     	;# 
   598     0695                     	;# 
   599     0696                     	;# 
   600     0697                     	;# 
   601     0698                     	;# 
   602     0699                     	;# 
   603     069A                     	;# 
   604     069B                     	;# 
   605     069C                     	;# 
   606     069D                     	;# 
   607     069E                     	;# 
   608     069F                     	;# 
   609     0E0F                     	;# 
   610     0E10                     	;# 
   611     0E11                     	;# 
   612     0E12                     	;# 
   613     0E13                     	;# 
   614     0E14                     	;# 
   615     0E15                     	;# 
   616     0E17                     	;# 
   617     0E20                     	;# 
   618     0E21                     	;# 
   619     0E22                     	;# 
   620     0E24                     	;# 
   621     0E25                     	;# 
   622     0E28                     	;# 
   623     0E29                     	;# 
   624     0E2A                     	;# 
   625     0E2B                     	;# 
   626     0E90                     	;# 
   627     0E91                     	;# 
   628     0E92                     	;# 
   629     0E93                     	;# 
   630     0E94                     	;# 
   631     0E95                     	;# 
   632     0E96                     	;# 
   633     0E97                     	;# 
   634     0E98                     	;# 
   635     0E99                     	;# 
   636     0E9A                     	;# 
   637     0E9B                     	;# 
   638     0E9C                     	;# 
   639     0E9D                     	;# 
   640     0E9E                     	;# 
   641     0E9F                     	;# 
   642     0EA0                     	;# 
   643     0EA1                     	;# 
   644     0EA2                     	;# 
   645     0EA3                     	;# 
   646     0EA4                     	;# 
   647     0EA5                     	;# 
   648     0EA6                     	;# 
   649     0EA7                     	;# 
   650     0EA8                     	;# 
   651     0EA9                     	;# 
   652     0EAA                     	;# 
   653     0EAB                     	;# 
   654     0EAC                     	;# 
   655     0EAD                     	;# 
   656     0EAE                     	;# 
   657     0EAF                     	;# 
   658     0EB0                     	;# 
   659     0EB1                     	;# 
   660     0EB2                     	;# 
   661     0F0F                     	;# 
   662     0F10                     	;# 
   663     0F11                     	;# 
   664     0F12                     	;# 
   665     0F13                     	;# 
   666     0F14                     	;# 
   667     0F15                     	;# 
   668     0F16                     	;# 
   669     0F17                     	;# 
   670     0F18                     	;# 
   671     0F19                     	;# 
   672     0F1A                     	;# 
   673     0F1B                     	;# 
   674     0F1C                     	;# 
   675     0F1D                     	;# 
   676     0F1E                     	;# 
   677     0F1F                     	;# 
   678     0F20                     	;# 
   679     0F21                     	;# 
   680     0F22                     	;# 
   681     0F23                     	;# 
   682     0F24                     	;# 
   683     0F25                     	;# 
   684     0F26                     	;# 
   685     0F27                     	;# 
   686     0F28                     	;# 
   687     0F29                     	;# 
   688     0F2A                     	;# 
   689     0F2B                     	;# 
   690     0F2C                     	;# 
   691     0F2D                     	;# 
   692     0F2E                     	;# 
   693     0F2F                     	;# 
   694     0F30                     	;# 
   695     0F31                     	;# 
   696     0F32                     	;# 
   697     0F33                     	;# 
   698     0F34                     	;# 
   699     0F35                     	;# 
   700     0F36                     	;# 
   701     0F37                     	;# 
   702     0FE4                     	;# 
   703     0FE5                     	;# 
   704     0FE6                     	;# 
   705     0FE7                     	;# 
   706     0FE8                     	;# 
   707     0FE9                     	;# 
   708     0FEA                     	;# 
   709     0FEB                     	;# 
   710     0FED                     	;# 
   711     0FEE                     	;# 
   712     0FEF                     	;# 
   713     0000                     	;# 
   714     0001                     	;# 
   715     0002                     	;# 
   716     0003                     	;# 
   717     0004                     	;# 
   718     0005                     	;# 
   719     0006                     	;# 
   720     0007                     	;# 
   721     0008                     	;# 
   722     0009                     	;# 
   723     000A                     	;# 
   724     000B                     	;# 
   725     000C                     	;# 
   726     000D                     	;# 
   727     000E                     	;# 
   728     000F                     	;# 
   729     0010                     	;# 
   730     0011                     	;# 
   731     0012                     	;# 
   732     0013                     	;# 
   733     0015                     	;# 
   734     0016                     	;# 
   735     0016                     	;# 
   736     0017                     	;# 
   737     0018                     	;# 
   738     0019                     	;# 
   739     001A                     	;# 
   740     001B                     	;# 
   741     001C                     	;# 
   742     008C                     	;# 
   743     008D                     	;# 
   744     008E                     	;# 
   745     008F                     	;# 
   746     0090                     	;# 
   747     0091                     	;# 
   748     0092                     	;# 
   749     0093                     	;# 
   750     0095                     	;# 
   751     0096                     	;# 
   752     0097                     	;# 
   753     0098                     	;# 
   754     0099                     	;# 
   755     009A                     	;# 
   756     009B                     	;# 
   757     009B                     	;# 
   758     009C                     	;# 
   759     009D                     	;# 
   760     009E                     	;# 
   761     009F                     	;# 
   762     010C                     	;# 
   763     010D                     	;# 
   764     010E                     	;# 
   765     010F                     	;# 
   766     0110                     	;# 
   767     0111                     	;# 
   768     0112                     	;# 
   769     0113                     	;# 
   770     0114                     	;# 
   771     0115                     	;# 
   772     0116                     	;# 
   773     0117                     	;# 
   774     0118                     	;# 
   775     0119                     	;# 
   776     011A                     	;# 
   777     011B                     	;# 
   778     011B                     	;# 
   779     011C                     	;# 
   780     018C                     	;# 
   781     018D                     	;# 
   782     018E                     	;# 
   783     018F                     	;# 
   784     0190                     	;# 
   785     0191                     	;# 
   786     0191                     	;# 
   787     0192                     	;# 
   788     0193                     	;# 
   789     0193                     	;# 
   790     0194                     	;# 
   791     0195                     	;# 
   792     0196                     	;# 
   793     0197                     	;# 
   794     0199                     	;# 
   795     0199                     	;# 
   796     0199                     	;# 
   797     019A                     	;# 
   798     019A                     	;# 
   799     019A                     	;# 
   800     019B                     	;# 
   801     019B                     	;# 
   802     019B                     	;# 
   803     019B                     	;# 
   804     019B                     	;# 
   805     019C                     	;# 
   806     019C                     	;# 
   807     019C                     	;# 
   808     019D                     	;# 
   809     019D                     	;# 
   810     019D                     	;# 
   811     019E                     	;# 
   812     019E                     	;# 
   813     019E                     	;# 
   814     019F                     	;# 
   815     019F                     	;# 
   816     019F                     	;# 
   817     019F                     	;# 
   818     019F                     	;# 
   819     020C                     	;# 
   820     020D                     	;# 
   821     020E                     	;# 
   822     020F                     	;# 
   823     0210                     	;# 
   824     0211                     	;# 
   825     0211                     	;# 
   826     0212                     	;# 
   827     0212                     	;# 
   828     0213                     	;# 
   829     0213                     	;# 
   830     0214                     	;# 
   831     0214                     	;# 
   832     0215                     	;# 
   833     0215                     	;# 
   834     0215                     	;# 
   835     0215                     	;# 
   836     0216                     	;# 
   837     0216                     	;# 
   838     0217                     	;# 
   839     0217                     	;# 
   840     028C                     	;# 
   841     028D                     	;# 
   842     028E                     	;# 
   843     028F                     	;# 
   844     0290                     	;# 
   845     0291                     	;# 
   846     0291                     	;# 
   847     0292                     	;# 
   848     0293                     	;# 
   849     0293                     	;# 
   850     0298                     	;# 
   851     0298                     	;# 
   852     0299                     	;# 
   853     029A                     	;# 
   854     029A                     	;# 
   855     029E                     	;# 
   856     030C                     	;# 
   857     030D                     	;# 
   858     030E                     	;# 
   859     030F                     	;# 
   860     0310                     	;# 
   861     038C                     	;# 
   862     038D                     	;# 
   863     038E                     	;# 
   864     038F                     	;# 
   865     0390                     	;# 
   866     0391                     	;# 
   867     0392                     	;# 
   868     0393                     	;# 
   869     0394                     	;# 
   870     0395                     	;# 
   871     0396                     	;# 
   872     0397                     	;# 
   873     0398                     	;# 
   874     0399                     	;# 
   875     039D                     	;# 
   876     039E                     	;# 
   877     039F                     	;# 
   878     0415                     	;# 
   879     0416                     	;# 
   880     0417                     	;# 
   881     041C                     	;# 
   882     041D                     	;# 
   883     041E                     	;# 
   884     0498                     	;# 
   885     0498                     	;# 
   886     0499                     	;# 
   887     049A                     	;# 
   888     049B                     	;# 
   889     049B                     	;# 
   890     049C                     	;# 
   891     049D                     	;# 
   892     049E                     	;# 
   893     049F                     	;# 
   894     0511                     	;# 
   895     0515                     	;# 
   896     0617                     	;# 
   897     0618                     	;# 
   898     0619                     	;# 
   899     0619                     	;# 
   900     061A                     	;# 
   901     061B                     	;# 
   902     061C                     	;# 
   903     061C                     	;# 
   904     0691                     	;# 
   905     0692                     	;# 
   906     0693                     	;# 
   907     0694                     	;# 
   908     0695                     	;# 
   909     0696                     	;# 
   910     0697                     	;# 
   911     0698                     	;# 
   912     0699                     	;# 
   913     069A                     	;# 
   914     069B                     	;# 
   915     069C                     	;# 
   916     069D                     	;# 
   917     069E                     	;# 
   918     069F                     	;# 
   919     0E0F                     	;# 
   920     0E10                     	;# 
   921     0E11                     	;# 
   922     0E12                     	;# 
   923     0E13                     	;# 
   924     0E14                     	;# 
   925     0E15                     	;# 
   926     0E17                     	;# 
   927     0E20                     	;# 
   928     0E21                     	;# 
   929     0E22                     	;# 
   930     0E24                     	;# 
   931     0E25                     	;# 
   932     0E28                     	;# 
   933     0E29                     	;# 
   934     0E2A                     	;# 
   935     0E2B                     	;# 
   936     0E90                     	;# 
   937     0E91                     	;# 
   938     0E92                     	;# 
   939     0E93                     	;# 
   940     0E94                     	;# 
   941     0E95                     	;# 
   942     0E96                     	;# 
   943     0E97                     	;# 
   944     0E98                     	;# 
   945     0E99                     	;# 
   946     0E9A                     	;# 
   947     0E9B                     	;# 
   948     0E9C                     	;# 
   949     0E9D                     	;# 
   950     0E9E                     	;# 
   951     0E9F                     	;# 
   952     0EA0                     	;# 
   953     0EA1                     	;# 
   954     0EA2                     	;# 
   955     0EA3                     	;# 
   956     0EA4                     	;# 
   957     0EA5                     	;# 
   958     0EA6                     	;# 
   959     0EA7                     	;# 
   960     0EA8                     	;# 
   961     0EA9                     	;# 
   962     0EAA                     	;# 
   963     0EAB                     	;# 
   964     0EAC                     	;# 
   965     0EAD                     	;# 
   966     0EAE                     	;# 
   967     0EAF                     	;# 
   968     0EB0                     	;# 
   969     0EB1                     	;# 
   970     0EB2                     	;# 
   971     0F0F                     	;# 
   972     0F10                     	;# 
   973     0F11                     	;# 
   974     0F12                     	;# 
   975     0F13                     	;# 
   976     0F14                     	;# 
   977     0F15                     	;# 
   978     0F16                     	;# 
   979     0F17                     	;# 
   980     0F18                     	;# 
   981     0F19                     	;# 
   982     0F1A                     	;# 
   983     0F1B                     	;# 
   984     0F1C                     	;# 
   985     0F1D                     	;# 
   986     0F1E                     	;# 
   987     0F1F                     	;# 
   988     0F20                     	;# 
   989     0F21                     	;# 
   990     0F22                     	;# 
   991     0F23                     	;# 
   992     0F24                     	;# 
   993     0F25                     	;# 
   994     0F26                     	;# 
   995     0F27                     	;# 
   996     0F28                     	;# 
   997     0F29                     	;# 
   998     0F2A                     	;# 
   999     0F2B                     	;# 
  1000     0F2C                     	;# 
  1001     0F2D                     	;# 
  1002     0F2E                     	;# 
  1003     0F2F                     	;# 
  1004     0F30                     	;# 
  1005     0F31                     	;# 
  1006     0F32                     	;# 
  1007     0F33                     	;# 
  1008     0F34                     	;# 
  1009     0F35                     	;# 
  1010     0F36                     	;# 
  1011     0F37                     	;# 
  1012     0FE4                     	;# 
  1013     0FE5                     	;# 
  1014     0FE6                     	;# 
  1015     0FE7                     	;# 
  1016     0FE8                     	;# 
  1017     0FE9                     	;# 
  1018     0FEA                     	;# 
  1019     0FEB                     	;# 
  1020     0FED                     	;# 
  1021     0FEE                     	;# 
  1022     0FEF                     	;# 
  1023                           
  1024                           	psect	idataBANK1
  1025     07FD                     __pidataBANK1:
  1026                           
  1027                           ;initializer for _calibration_value
  1028     07FD  3462               	retlw	98
  1029     0016                     _TMR1	set	22
  1030     000E                     _PORTCbits	set	14
  1031     0018                     _T1CON	set	24
  1032     000B                     _INTCONbits	set	11
  1033     0015                     _TMR0	set	21
  1034     0011                     _PIR1bits	set	17
  1035     0091                     _PIE1bits	set	145
  1036     0095                     _OPTION_REGbits	set	149
  1037     008E                     _TRISCbits	set	142
  1038     008D                     _TRISBbits	set	141
  1039     04CF                     _SPLLEN	set	1231
  1040     04CE                     _IRCF3	set	1230
  1041     04CD                     _IRCF2	set	1229
  1042     04CC                     _IRCF1	set	1228
  1043     04CB                     _IRCF0	set	1227
  1044     04C9                     _SCS1	set	1225
  1045     04C8                     _SCS0	set	1224
  1046     010E                     _LATCbits	set	270
  1047     018E                     _ANSELCbits	set	398
  1048     018D                     _ANSELBbits	set	397
  1049     019A                     _TX1REG	set	410
  1050     0199                     _RC1REG	set	409
  1051     019D                     _RC1STAbits	set	413
  1052     019B                     _SPBRGL	set	411
  1053     0CF5                     _TXEN	set	3317
  1054     0CEC                     _CREN	set	3308
  1055     0CEF                     _SPEN	set	3311
  1056     0CF4                     _SYNC	set	3316
  1057     0CFB                     _BRG16	set	3323
  1058     0CF2                     _BRGH	set	3314
  1059     0E11                     _T0CKIPPSbits	set	3601
  1060     0E24                     _RXPPSbits	set	3620
  1061     0E0F                     _PPSLOCKbits	set	3599
  1062     0E0F                     _PPSLOCK	set	3599
  1063     0E9A                     _RB2PPSbits	set	3738
  1064                           
  1065                           	psect	stringtext1
  1066     1800                     __pstringtext1:
  1067     1800                     STR_5:
  1068     1800  3445               	retlw	69	;'E'
  1069     1801  3472               	retlw	114	;'r'
  1070     1802  3472               	retlw	114	;'r'
  1071     1803  346F               	retlw	111	;'o'
  1072     1804  3472               	retlw	114	;'r'
  1073     1805  343A               	retlw	58	;':'
  1074     1806  3420               	retlw	32	;' '
  1075     1807  3455               	retlw	85	;'U'
  1076     1808  346E               	retlw	110	;'n'
  1077     1809  3461               	retlw	97	;'a'
  1078     180A  3462               	retlw	98	;'b'
  1079     180B  346C               	retlw	108	;'l'
  1080     180C  3465               	retlw	101	;'e'
  1081     180D  3420               	retlw	32	;' '
  1082     180E  3474               	retlw	116	;'t'
  1083     180F  346F               	retlw	111	;'o'
  1084     1810  3420               	retlw	32	;' '
  1085     1811  346D               	retlw	109	;'m'
  1086     1812  3465               	retlw	101	;'e'
  1087     1813  3461               	retlw	97	;'a'
  1088     1814  3473               	retlw	115	;'s'
  1089     1815  3475               	retlw	117	;'u'
  1090     1816  3472               	retlw	114	;'r'
  1091     1817  3465               	retlw	101	;'e'
  1092     1818  3420               	retlw	32	;' '
  1093     1819  3466               	retlw	102	;'f'
  1094     181A  3472               	retlw	114	;'r'
  1095     181B  3465               	retlw	101	;'e'
  1096     181C  3471               	retlw	113	;'q'
  1097     181D  3475               	retlw	117	;'u'
  1098     181E  3465               	retlw	101	;'e'
  1099     181F  346E               	retlw	110	;'n'
  1100     1820  3463               	retlw	99	;'c'
  1101     1821  3479               	retlw	121	;'y'
  1102     1822  3420               	retlw	32	;' '
  1103     1823  3464               	retlw	100	;'d'
  1104     1824  3475               	retlw	117	;'u'
  1105     1825  3472               	retlw	114	;'r'
  1106     1826  3469               	retlw	105	;'i'
  1107     1827  346E               	retlw	110	;'n'
  1108     1828  3467               	retlw	103	;'g'
  1109     1829  3420               	retlw	32	;' '
  1110     182A  3463               	retlw	99	;'c'
  1111     182B  3461               	retlw	97	;'a'
  1112     182C  346C               	retlw	108	;'l'
  1113     182D  3469               	retlw	105	;'i'
  1114     182E  3462               	retlw	98	;'b'
  1115     182F  3472               	retlw	114	;'r'
  1116     1830  3461               	retlw	97	;'a'
  1117     1831  3474               	retlw	116	;'t'
  1118     1832  3469               	retlw	105	;'i'
  1119     1833  346F               	retlw	111	;'o'
  1120     1834  346E               	retlw	110	;'n'
  1121     1835  340A               	retlw	10
  1122     1836  3400               	retlw	0
  1123                           
  1124                           	psect	stringtext2
  1125     1837                     __pstringtext2:
  1126     1837                     STR_3:
  1127     1837  3443               	retlw	67	;'C'
  1128     1838  3461               	retlw	97	;'a'
  1129     1839  346C               	retlw	108	;'l'
  1130     183A  3469               	retlw	105	;'i'
  1131     183B  3462               	retlw	98	;'b'
  1132     183C  3472               	retlw	114	;'r'
  1133     183D  3461               	retlw	97	;'a'
  1134     183E  3474               	retlw	116	;'t'
  1135     183F  3469               	retlw	105	;'i'
  1136     1840  346F               	retlw	111	;'o'
  1137     1841  346E               	retlw	110	;'n'
  1138     1842  3420               	retlw	32	;' '
  1139     1843  3463               	retlw	99	;'c'
  1140     1844  346F               	retlw	111	;'o'
  1141     1845  346D               	retlw	109	;'m'
  1142     1846  3470               	retlw	112	;'p'
  1143     1847  346C               	retlw	108	;'l'
  1144     1848  3465               	retlw	101	;'e'
  1145     1849  3474               	retlw	116	;'t'
  1146     184A  3465               	retlw	101	;'e'
  1147     184B  342E               	retlw	46	;'.'
  1148     184C  3420               	retlw	32	;' '
  1149     184D  344F               	retlw	79	;'O'
  1150     184E  3466               	retlw	102	;'f'
  1151     184F  3466               	retlw	102	;'f'
  1152     1850  3473               	retlw	115	;'s'
  1153     1851  3465               	retlw	101	;'e'
  1154     1852  3474               	retlw	116	;'t'
  1155     1853  3420               	retlw	32	;' '
  1156     1854  3428               	retlw	40	;'('
  1157     1855  3475               	retlw	117	;'u'
  1158     1856  3448               	retlw	72	;'H'
  1159     1857  3429               	retlw	41	;')'
  1160     1858  343A               	retlw	58	;':'
  1161     1859  3420               	retlw	32	;' '
  1162     185A  3400               	retlw	0
  1163                           
  1164                           	psect	stringtext3
  1165     185B                     __pstringtext3:
  1166     185B                     STR_2:
  1167     185B  3443               	retlw	67	;'C'
  1168     185C  3461               	retlw	97	;'a'
  1169     185D  346C               	retlw	108	;'l'
  1170     185E  3469               	retlw	105	;'i'
  1171     185F  3462               	retlw	98	;'b'
  1172     1860  3472               	retlw	114	;'r'
  1173     1861  3461               	retlw	97	;'a'
  1174     1862  3474               	retlw	116	;'t'
  1175     1863  3469               	retlw	105	;'i'
  1176     1864  346F               	retlw	111	;'o'
  1177     1865  346E               	retlw	110	;'n'
  1178     1866  3420               	retlw	32	;' '
  1179     1867  346D               	retlw	109	;'m'
  1180     1868  346F               	retlw	111	;'o'
  1181     1869  3464               	retlw	100	;'d'
  1182     186A  3465               	retlw	101	;'e'
  1183     186B  3420               	retlw	32	;' '
  1184     186C  3473               	retlw	115	;'s'
  1185     186D  3474               	retlw	116	;'t'
  1186     186E  3461               	retlw	97	;'a'
  1187     186F  3472               	retlw	114	;'r'
  1188     1870  3474               	retlw	116	;'t'
  1189     1871  3465               	retlw	101	;'e'
  1190     1872  3464               	retlw	100	;'d'
  1191     1873  342E               	retlw	46	;'.'
  1192     1874  342E               	retlw	46	;'.'
  1193     1875  342E               	retlw	46	;'.'
  1194     1876  340A               	retlw	10
  1195     1877  3400               	retlw	0
  1196                           
  1197                           	psect	stringtext4
  1198     1878                     __pstringtext4:
  1199     1878                     STR_12:
  1200     1878  3445               	retlw	69	;'E'
  1201     1879  3472               	retlw	114	;'r'
  1202     187A  3472               	retlw	114	;'r'
  1203     187B  346F               	retlw	111	;'o'
  1204     187C  3472               	retlw	114	;'r'
  1205     187D  343A               	retlw	58	;':'
  1206     187E  3420               	retlw	32	;' '
  1207     187F  3446               	retlw	70	;'F'
  1208     1880  3472               	retlw	114	;'r'
  1209     1881  3465               	retlw	101	;'e'
  1210     1882  3471               	retlw	113	;'q'
  1211     1883  3475               	retlw	117	;'u'
  1212     1884  3465               	retlw	101	;'e'
  1213     1885  346E               	retlw	110	;'n'
  1214     1886  3463               	retlw	99	;'c'
  1215     1887  3479               	retlw	121	;'y'
  1216     1888  3420               	retlw	32	;' '
  1217     1889  3474               	retlw	116	;'t'
  1218     188A  346F               	retlw	111	;'o'
  1219     188B  346F               	retlw	111	;'o'
  1220     188C  3420               	retlw	32	;' '
  1221     188D  346C               	retlw	108	;'l'
  1222     188E  346F               	retlw	111	;'o'
  1223     188F  3477               	retlw	119	;'w'
  1224     1890  340A               	retlw	10
  1225     1891  3400               	retlw	0
  1226                           
  1227                           	psect	stringtext5
  1228     1892                     __pstringtext5:
  1229     1892                     STR_7:
  1230     1892  3420               	retlw	32	;' '
  1231     1893  3449               	retlw	73	;'I'
  1232     1894  346E               	retlw	110	;'n'
  1233     1895  3464               	retlw	100	;'d'
  1234     1896  3475               	retlw	117	;'u'
  1235     1897  3463               	retlw	99	;'c'
  1236     1898  3474               	retlw	116	;'t'
  1237     1899  3461               	retlw	97	;'a'
  1238     189A  346E               	retlw	110	;'n'
  1239     189B  3463               	retlw	99	;'c'
  1240     189C  3465               	retlw	101	;'e'
  1241     189D  3420               	retlw	32	;' '
  1242     189E  3428               	retlw	40	;'('
  1243     189F  346D               	retlw	109	;'m'
  1244     18A0  3448               	retlw	72	;'H'
  1245     18A1  3429               	retlw	41	;')'
  1246     18A2  343A               	retlw	58	;':'
  1247     18A3  3420               	retlw	32	;' '
  1248     18A4  3400               	retlw	0
  1249                           
  1250                           	psect	stringtext6
  1251     18A5                     __pstringtext6:
  1252     18A5                     STR_10:
  1253     18A5  3420               	retlw	32	;' '
  1254     18A6  3449               	retlw	73	;'I'
  1255     18A7  346E               	retlw	110	;'n'
  1256     18A8  3464               	retlw	100	;'d'
  1257     18A9  3475               	retlw	117	;'u'
  1258     18AA  3463               	retlw	99	;'c'
  1259     18AB  3474               	retlw	116	;'t'
  1260     18AC  3461               	retlw	97	;'a'
  1261     18AD  346E               	retlw	110	;'n'
  1262     18AE  3463               	retlw	99	;'c'
  1263     18AF  3465               	retlw	101	;'e'
  1264     18B0  3420               	retlw	32	;' '
  1265     18B1  3428               	retlw	40	;'('
  1266     18B2  3475               	retlw	117	;'u'
  1267     18B3  3448               	retlw	72	;'H'
  1268     18B4  3429               	retlw	41	;')'
  1269     18B5  343A               	retlw	58	;':'
  1270     18B6  3420               	retlw	32	;' '
  1271     18B7  3400               	retlw	0
  1272                           
  1273                           	psect	stringtext7
  1274     18B8                     __pstringtext7:
  1275     18B8                     STR_6:
  1276     18B8  3446               	retlw	70	;'F'
  1277     18B9  3472               	retlw	114	;'r'
  1278     18BA  3465               	retlw	101	;'e'
  1279     18BB  3471               	retlw	113	;'q'
  1280     18BC  3475               	retlw	117	;'u'
  1281     18BD  3465               	retlw	101	;'e'
  1282     18BE  346E               	retlw	110	;'n'
  1283     18BF  3463               	retlw	99	;'c'
  1284     18C0  3479               	retlw	121	;'y'
  1285     18C1  3420               	retlw	32	;' '
  1286     18C2  3428               	retlw	40	;'('
  1287     18C3  3448               	retlw	72	;'H'
  1288     18C4  347A               	retlw	122	;'z'
  1289     18C5  3429               	retlw	41	;')'
  1290     18C6  343A               	retlw	58	;':'
  1291     18C7  3420               	retlw	32	;' '
  1292     18C8  3400               	retlw	0
  1293                           
  1294                           	psect	stringtext8
  1295     18C9                     __pstringtext8:
  1296     18C9                     STR_1:
  1297     18C9  3425               	retlw	37	;'%'
  1298     18CA  346C               	retlw	108	;'l'
  1299     18CB  3475               	retlw	117	;'u'
  1300     18CC  3400               	retlw	0
  1301                           
  1302                           	psect	stringtext9
  1303     0000                     __pstringtext9:
  1304     1876                     
  1305                           	psect	cinit
  1306     001C                     start_initialization:	
  1307                           ; #config settings
  1308                           
  1309     001C                     __initialization:
  1310                           
  1311                           ; Initialize objects allocated to BANK1
  1312     001C  0021               	movlb	1	; select bank1
  1313     001D  3187  27FD  3180   	fcall	__pidataBANK1	;fetch initializer
  1314     0020  00E4               	movwf	__pdataBANK1& (0+127)
  1315                           
  1316                           ; Clear objects allocated to BANK0
  1317     0021  0020               	movlb	0	; select bank0
  1318     0022  01E9               	clrf	__pbssBANK0& (0+127)
  1319     0023  01EA               	clrf	(__pbssBANK0+1)& (0+127)
  1320     0024  01EB               	clrf	(__pbssBANK0+2)& (0+127)
  1321     0025  01EC               	clrf	(__pbssBANK0+3)& (0+127)
  1322     0026  01ED               	clrf	(__pbssBANK0+4)& (0+127)
  1323                           
  1324                           ; Clear objects allocated to BANK1
  1325     0027  0021               	movlb	1	; select bank1
  1326     0028  01E2               	clrf	__pbssBANK1& (0+127)
  1327     0029  01E3               	clrf	(__pbssBANK1+1)& (0+127)
  1328                           
  1329                           ; Clear objects allocated to BANK2
  1330     002A  3020               	movlw	low __pbssBANK2
  1331     002B  0084               	movwf	4
  1332     002C  3001               	movlw	high __pbssBANK2
  1333     002D  0085               	movwf	5
  1334     002E  3020               	movlw	32
  1335     002F  3195  2502  3180   	fcall	clear_ram0
  1336     0032                     end_of_initialization:	
  1337                           ;End of C runtime variable initialization code
  1338                           
  1339     0032                     __end_of__initialization:
  1340     0032  107E               	bcf	int$flags,0	;clear compiler interrupt flag (level 1)
  1341     0033  0020               	movlb	0
  1342     0034  3180  2836         	ljmp	_main	;jump to C main() function
  1343                           
  1344                           	psect	bssBANK0
  1345     0069                     __pbssBANK0:
  1346     0069                     _width:
  1347     0069                     	ds	2
  1348     006B                     _prec:
  1349     006B                     	ds	2
  1350     006D                     _flags:
  1351     006D                     	ds	1
  1352                           
  1353                           	psect	bssBANK1
  1354     00E2                     __pbssBANK1:
  1355     00E2                     _tmr0_overflows:
  1356     00E2                     	ds	2
  1357                           
  1358                           	psect	dataBANK1
  1359     00E4                     __pdataBANK1:
  1360     00E4                     _calibration_value:
  1361     00E4                     	ds	1
  1362                           
  1363                           	psect	bssBANK2
  1364     0120                     __pbssBANK2:
  1365     0120                     _dbuf:
  1366     0120                     	ds	32
  1367                           
  1368                           	psect	clrtext
  1369     1502                     clear_ram0:	
  1370                           ;	Called with FSR0 containing the base address, and
  1371                           ;	WREG with the size to clear
  1372                           
  1373     1502  0064               	clrwdt	;clear the watchdog before getting into this loop
  1374     1503                     clrloop0:
  1375     1503  0180               	clrf	0	;clear RAM location pointed to by FSR
  1376     1504  3101               	addfsr 0,1
  1377     1505  0B89               	decfsz	9,f	;Have we reached the end of clearing yet?
  1378     1506  2D03               	goto	clrloop0	;have we reached the end yet?
  1379     1507  3400               	retlw	0	;all done for this memory range, return
  1380                           
  1381                           	psect	cstackBANK1
  1382     00A0                     __pcstackBANK1:
  1383     00A0                     calibrate@capacitance:
  1384     00A0                     EUSART_Write_Float@buffer:	
  1385                           ; 4 bytes @ 0x0
  1386                           
  1387                           
  1388                           ; 32 bytes @ 0x0
  1389     00A0                     	ds	4
  1390     00A4                     calibrate@precomputed_constant:
  1391                           
  1392                           ; 4 bytes @ 0x4
  1393     00A4                     	ds	4
  1394     00A8                     calibrate@inductance_h:
  1395                           
  1396                           ; 4 bytes @ 0x8
  1397     00A8                     	ds	4
  1398     00AC                     _calibrate$1141:
  1399                           
  1400                           ; 4 bytes @ 0xC
  1401     00AC                     	ds	4
  1402     00B0                     calibrate@total_counts:
  1403                           
  1404                           ; 2 bytes @ 0x10
  1405     00B0                     	ds	2
  1406     00B2                     calibrate@frequency:
  1407                           
  1408                           ; 4 bytes @ 0x12
  1409     00B2                     	ds	4
  1410     00B6                     calibrate@count_start:
  1411                           
  1412                           ; 2 bytes @ 0x16
  1413     00B6                     	ds	2
  1414     00B8                     calibrate@count_end:
  1415                           
  1416                           ; 2 bytes @ 0x18
  1417     00B8                     	ds	8
  1418     00C0                     main@inductance_h:
  1419                           
  1420                           ; 4 bytes @ 0x20
  1421     00C0                     	ds	4
  1422     00C4                     main@inductance_mh:
  1423                           
  1424                           ; 4 bytes @ 0x24
  1425     00C4                     	ds	4
  1426     00C8                     main@capacitance:
  1427                           
  1428                           ; 4 bytes @ 0x28
  1429     00C8                     	ds	4
  1430     00CC                     main@precomputed_constant:
  1431                           
  1432                           ; 4 bytes @ 0x2C
  1433     00CC                     	ds	4
  1434     00D0                     _main$1142:
  1435                           
  1436                           ; 4 bytes @ 0x30
  1437     00D0                     	ds	4
  1438     00D4                     main@total_counts:
  1439                           
  1440                           ; 2 bytes @ 0x34
  1441     00D4                     	ds	2
  1442     00D6                     main@count_start:
  1443                           
  1444                           ; 2 bytes @ 0x36
  1445     00D6                     	ds	2
  1446     00D8                     main@count_end:
  1447                           
  1448                           ; 2 bytes @ 0x38
  1449     00D8                     	ds	2
  1450     00DA                     main@inductance_uh:
  1451                           
  1452                           ; 4 bytes @ 0x3A
  1453     00DA                     	ds	4
  1454     00DE                     main@frequency:
  1455                           
  1456                           ; 4 bytes @ 0x3E
  1457     00DE                     	ds	4
  1458                           
  1459                           	psect	cstackCOMMON
  1460     0070                     __pcstackCOMMON:
  1461     0070                     ?___flge:
  1462     0070                     ?_internal_32:	
  1463                           ; 1 bit 
  1464                           
  1465     0070                     ??_internal_32:	
  1466                           ; 1 bytes @ 0x0
  1467                           
  1468     0070                     ?_putch:	
  1469                           ; 1 bytes @ 0x0
  1470                           
  1471     0070                     ??_putch:	
  1472                           ; 1 bytes @ 0x0
  1473                           
  1474     0070                     ?_EUSART_Write:	
  1475                           ; 1 bytes @ 0x0
  1476                           
  1477     0070                     ??_EUSART_Write:	
  1478                           ; 1 bytes @ 0x0
  1479                           
  1480     0070                     ?_initMain:	
  1481                           ; 1 bytes @ 0x0
  1482                           
  1483     0070                     ?_isr:	
  1484                           ; 1 bytes @ 0x0
  1485                           
  1486     0070                     ??_isr:	
  1487                           ; 1 bytes @ 0x0
  1488                           
  1489     0070                     ?_calibrate:	
  1490                           ; 1 bytes @ 0x0
  1491                           
  1492     0070                     ?_main:	
  1493                           ; 1 bytes @ 0x0
  1494                           
  1495     0070                     ?__Umul8_16:	
  1496                           ; 1 bytes @ 0x0
  1497                           
  1498     0070                     ?_fputc:	
  1499                           ; 2 bytes @ 0x0
  1500                           
  1501     0070                     ?_ReadTimer0WithOverflows:	
  1502                           ; 2 bytes @ 0x0
  1503                           
  1504     0070                     ?___wmul:	
  1505                           ; 2 bytes @ 0x0
  1506                           
  1507     0070                     ?___awdiv:	
  1508                           ; 2 bytes @ 0x0
  1509                           
  1510     0070                     ?___awmod:	
  1511                           ; 2 bytes @ 0x0
  1512                           
  1513     0070                     ?___lldiv:	
  1514                           ; 2 bytes @ 0x0
  1515                           
  1516     0070                     ?___aldiv:	
  1517                           ; 4 bytes @ 0x0
  1518                           
  1519     0070                     ?___flneg:	
  1520                           ; 4 bytes @ 0x0
  1521                           
  1522     0070                     ?___llmod:	
  1523                           ; 4 bytes @ 0x0
  1524                           
  1525     0070                     ?___fladd:	
  1526                           ; 4 bytes @ 0x0
  1527                           
  1528     0070                     ?___xxtofl:	
  1529                           ; 4 bytes @ 0x0
  1530                           
  1531     0070                     EUSART_Write@txData:	
  1532                           ; 4 bytes @ 0x0
  1533                           
  1534     0070                     __Umul8_16@multiplicand:	
  1535                           ; 1 bytes @ 0x0
  1536                           
  1537     0070                     putch@c:	
  1538                           ; 1 bytes @ 0x0
  1539                           
  1540     0070                     ___wmul@multiplier:	
  1541                           ; 1 bytes @ 0x0
  1542                           
  1543     0070                     ___awdiv@divisor:	
  1544                           ; 2 bytes @ 0x0
  1545                           
  1546     0070                     ___awmod@divisor:	
  1547                           ; 2 bytes @ 0x0
  1548                           
  1549     0070                     fputc@c:	
  1550                           ; 2 bytes @ 0x0
  1551                           
  1552     0070                     ___lldiv@divisor:	
  1553                           ; 2 bytes @ 0x0
  1554                           
  1555     0070                     ___aldiv@divisor:	
  1556                           ; 4 bytes @ 0x0
  1557                           
  1558     0070                     ___flge@ff1:	
  1559                           ; 4 bytes @ 0x0
  1560                           
  1561     0070                     ___flneg@f1:	
  1562                           ; 4 bytes @ 0x0
  1563                           
  1564     0070                     ___llmod@divisor:	
  1565                           ; 4 bytes @ 0x0
  1566                           
  1567     0070                     ___fladd@b:	
  1568                           ; 4 bytes @ 0x0
  1569                           
  1570     0070                     ___xxtofl@val:	
  1571                           ; 4 bytes @ 0x0
  1572                           
  1573                           
  1574                           ; 4 bytes @ 0x0
  1575     0070                     	ds	1
  1576     0071                     ?_EUSART_Write_Text:
  1577     0071                     EUSART_Write_Text@text:	
  1578                           ; 1 bytes @ 0x1
  1579                           
  1580                           
  1581                           ; 2 bytes @ 0x1
  1582     0071                     	ds	1
  1583     0072                     ??__Umul8_16:
  1584     0072                     ??_ReadTimer0WithOverflows:	
  1585                           ; 1 bytes @ 0x2
  1586                           
  1587     0072                     fputc@fp:	
  1588                           ; 1 bytes @ 0x2
  1589                           
  1590     0072                     ___wmul@multiplicand:	
  1591                           ; 1 bytes @ 0x2
  1592                           
  1593     0072                     ___awdiv@dividend:	
  1594                           ; 2 bytes @ 0x2
  1595                           
  1596     0072                     ___awmod@dividend:	
  1597                           ; 2 bytes @ 0x2
  1598                           
  1599                           
  1600                           ; 2 bytes @ 0x2
  1601     0072                     	ds	1
  1602     0073                     ??_fputc:
  1603     0073                     ??_EUSART_Write_Text:	
  1604                           ; 1 bytes @ 0x3
  1605                           
  1606                           
  1607                           ; 1 bytes @ 0x3
  1608     0073                     	ds	1
  1609     0074                     ??___wmul:
  1610     0074                     ??___awdiv:	
  1611                           ; 1 bytes @ 0x4
  1612                           
  1613     0074                     ??___awmod:	
  1614                           ; 1 bytes @ 0x4
  1615                           
  1616     0074                     ??___flneg:	
  1617                           ; 1 bytes @ 0x4
  1618                           
  1619     0074                     ??___xxtofl:	
  1620                           ; 1 bytes @ 0x4
  1621                           
  1622     0074                     EUSART_Write_Text@i:	
  1623                           ; 1 bytes @ 0x4
  1624                           
  1625     0074                     ___wmul@product:	
  1626                           ; 2 bytes @ 0x4
  1627                           
  1628     0074                     __Umul8_16@product:	
  1629                           ; 2 bytes @ 0x4
  1630                           
  1631     0074                     ___lldiv@dividend:	
  1632                           ; 2 bytes @ 0x4
  1633                           
  1634     0074                     ___aldiv@dividend:	
  1635                           ; 4 bytes @ 0x4
  1636                           
  1637     0074                     ___flge@ff2:	
  1638                           ; 4 bytes @ 0x4
  1639                           
  1640     0074                     ___llmod@dividend:	
  1641                           ; 4 bytes @ 0x4
  1642                           
  1643     0074                     ___fladd@a:	
  1644                           ; 4 bytes @ 0x4
  1645                           
  1646                           
  1647                           ; 4 bytes @ 0x4
  1648     0074                     	ds	1
  1649     0075                     ___awdiv@counter:
  1650     0075                     ___awmod@counter:	
  1651                           ; 1 bytes @ 0x5
  1652                           
  1653                           
  1654                           ; 1 bytes @ 0x5
  1655     0075                     	ds	1
  1656     0076                     ___awdiv@sign:
  1657     0076                     ___awmod@sign:	
  1658                           ; 1 bytes @ 0x6
  1659                           
  1660     0076                     __Umul8_16@word_mpld:	
  1661                           ; 1 bytes @ 0x6
  1662                           
  1663                           
  1664                           ; 2 bytes @ 0x6
  1665     0076                     	ds	1
  1666     0077                     ___awdiv@quotient:
  1667                           
  1668                           ; 2 bytes @ 0x7
  1669     0077                     	ds	1
  1670     0078                     ??___lldiv:
  1671     0078                     ??___aldiv:	
  1672                           ; 1 bytes @ 0x8
  1673                           
  1674     0078                     ??___flge:	
  1675                           ; 1 bytes @ 0x8
  1676                           
  1677     0078                     ??___llmod:	
  1678                           ; 1 bytes @ 0x8
  1679                           
  1680     0078                     ___fladd@signs:	
  1681                           ; 1 bytes @ 0x8
  1682                           
  1683     0078                     __Umul8_16@multiplier:	
  1684                           ; 1 bytes @ 0x8
  1685                           
  1686     0078                     ___xxtofl@sign:	
  1687                           ; 1 bytes @ 0x8
  1688                           
  1689                           
  1690                           ; 1 bytes @ 0x8
  1691     0078                     	ds	1
  1692     0079                     ?_itoa:
  1693     0079                     ___llmod@counter:	
  1694                           ; 1 bytes @ 0x9
  1695                           
  1696     0079                     ___fladd@aexp:	
  1697                           ; 1 bytes @ 0x9
  1698                           
  1699     0079                     ___xxtofl@exp:	
  1700                           ; 1 bytes @ 0x9
  1701                           
  1702     0079                     EUSART_Initialize@x:	
  1703                           ; 1 bytes @ 0x9
  1704                           
  1705     0079                     itoa@d:	
  1706                           ; 2 bytes @ 0x9
  1707                           
  1708     0079                     ___lldiv@quotient:	
  1709                           ; 2 bytes @ 0x9
  1710                           
  1711                           
  1712                           ; 4 bytes @ 0x9
  1713     0079                     	ds	1
  1714     007A                     ___fladd@bexp:
  1715     007A                     ___xxtofl@arg:	
  1716                           ; 1 bytes @ 0xA
  1717                           
  1718                           
  1719                           ; 4 bytes @ 0xA
  1720     007A                     	ds	1
  1721     007B                     ??_itoa:
  1722     007B                     ??_initMain:	
  1723                           ; 1 bytes @ 0xB
  1724                           
  1725     007B                     ___fladd@grs:	
  1726                           ; 1 bytes @ 0xB
  1727                           
  1728                           
  1729                           ; 1 bytes @ 0xB
  1730     007B                     	ds	2
  1731     007D                     ___lldiv@counter:
  1732                           
  1733                           ; 1 bytes @ 0xD
  1734     007D                     	ds	1
  1735     007E                     ??_EUSART_Write_Unsigned_Integer:
  1736     007E                     ??_EUSART_Write_Float:	
  1737                           ; 1 bytes @ 0xE
  1738                           
  1739     007E                     ??___flsub:	
  1740                           ; 1 bytes @ 0xE
  1741                           
  1742                           
  1743                           	psect	cstackBANK0
  1744     0020                     __pcstackBANK0:	
  1745                           ; 1 bytes @ 0xE
  1746                           
  1747     0020                     ??___fladd:
  1748     0020                     ?_vfpfcnvrt:	
  1749                           ; 1 bytes @ 0x0
  1750                           
  1751     0020                     ?___flmul:	
  1752                           ; 1 bytes @ 0x0
  1753                           
  1754     0020                     ___aldiv@counter:	
  1755                           ; 4 bytes @ 0x0
  1756                           
  1757     0020                     vfpfcnvrt@fmt:	
  1758                           ; 1 bytes @ 0x0
  1759                           
  1760     0020                     itoa@num:	
  1761                           ; 1 bytes @ 0x0
  1762                           
  1763     0020                     ___flmul@b:	
  1764                           ; 2 bytes @ 0x0
  1765                           
  1766                           
  1767                           ; 4 bytes @ 0x0
  1768     0020                     	ds	1
  1769     0021                     ___aldiv@sign:
  1770     0021                     vfpfcnvrt@ap:	
  1771                           ; 1 bytes @ 0x1
  1772                           
  1773                           
  1774                           ; 1 bytes @ 0x1
  1775     0021                     	ds	1
  1776     0022                     ??_vfpfcnvrt:
  1777     0022                     itoa@temp:	
  1778                           ; 1 bytes @ 0x2
  1779                           
  1780     0022                     ___aldiv@quotient:	
  1781                           ; 2 bytes @ 0x2
  1782                           
  1783                           
  1784                           ; 4 bytes @ 0x2
  1785     0022                     	ds	2
  1786     0024                     itoa@buf:
  1787     0024                     ___flmul@a:	
  1788                           ; 1 bytes @ 0x4
  1789                           
  1790                           
  1791                           ; 4 bytes @ 0x4
  1792     0024                     	ds	1
  1793     0025                     itoa@div:
  1794                           
  1795                           ; 2 bytes @ 0x5
  1796     0025                     	ds	1
  1797     0026                     ?_EUSART_Initialize:
  1798     0026                     vfpfcnvrt@fp:	
  1799                           ; 1 bytes @ 0x6
  1800                           
  1801     0026                     EUSART_Initialize@baudrate:	
  1802                           ; 1 bytes @ 0x6
  1803                           
  1804                           
  1805                           ; 4 bytes @ 0x6
  1806     0026                     	ds	1
  1807     0027                     vfpfcnvrt@convarg:
  1808                           
  1809                           ; 4 bytes @ 0x7
  1810     0027                     	ds	1
  1811     0028                     ??___flmul:
  1812     0028                     ?___flsub:	
  1813                           ; 1 bytes @ 0x8
  1814                           
  1815     0028                     ___flsub@a:	
  1816                           ; 4 bytes @ 0x8
  1817                           
  1818                           
  1819                           ; 4 bytes @ 0x8
  1820     0028                     	ds	2
  1821     002A                     ??_EUSART_Initialize:
  1822                           
  1823                           ; 1 bytes @ 0xA
  1824     002A                     	ds	1
  1825     002B                     vfpfcnvrt@cp:
  1826                           
  1827                           ; 2 bytes @ 0xB
  1828     002B                     	ds	1
  1829     002C                     ___flsub@b:
  1830                           
  1831                           ; 4 bytes @ 0xC
  1832     002C                     	ds	1
  1833     002D                     ___flmul@sign:
  1834     002D                     vfpfcnvrt@c:	
  1835                           ; 1 bytes @ 0xD
  1836                           
  1837                           
  1838                           ; 1 bytes @ 0xD
  1839     002D                     	ds	1
  1840     002E                     ?_vfprintf:
  1841     002E                     vfprintf@fmt:	
  1842                           ; 2 bytes @ 0xE
  1843                           
  1844     002E                     ___flmul@grs:	
  1845                           ; 2 bytes @ 0xE
  1846                           
  1847                           
  1848                           ; 4 bytes @ 0xE
  1849     002E                     	ds	2
  1850     0030                     vfprintf@ap:
  1851                           
  1852                           ; 1 bytes @ 0x10
  1853     0030                     	ds	1
  1854     0031                     ??_vfprintf:
  1855                           
  1856                           ; 1 bytes @ 0x11
  1857     0031                     	ds	1
  1858     0032                     ___flmul@aexp:
  1859     0032                     vfprintf@fp:	
  1860                           ; 1 bytes @ 0x12
  1861                           
  1862                           
  1863                           ; 1 bytes @ 0x12
  1864     0032                     	ds	1
  1865     0033                     ___flmul@bexp:
  1866     0033                     vfprintf@cfmt:	
  1867                           ; 1 bytes @ 0x13
  1868                           
  1869                           
  1870                           ; 2 bytes @ 0x13
  1871     0033                     	ds	1
  1872     0034                     ___flmul@prod:
  1873                           
  1874                           ; 4 bytes @ 0x14
  1875     0034                     	ds	1
  1876     0035                     ?_sprintf:
  1877     0035                     sprintf@fmt:	
  1878                           ; 2 bytes @ 0x15
  1879                           
  1880                           
  1881                           ; 2 bytes @ 0x15
  1882     0035                     	ds	3
  1883     0038                     ___flmul@temp:
  1884                           
  1885                           ; 2 bytes @ 0x18
  1886     0038                     	ds	2
  1887     003A                     ?___fltol:
  1888     003A                     ?___fldiv:	
  1889                           ; 4 bytes @ 0x1A
  1890                           
  1891     003A                     ___fltol@f1:	
  1892                           ; 4 bytes @ 0x1A
  1893                           
  1894     003A                     ___fldiv@a:	
  1895                           ; 4 bytes @ 0x1A
  1896                           
  1897                           
  1898                           ; 4 bytes @ 0x1A
  1899     003A                     	ds	1
  1900     003B                     ??_sprintf:
  1901                           
  1902                           ; 1 bytes @ 0x1B
  1903     003B                     	ds	1
  1904     003C                     sprintf@ap:
  1905                           
  1906                           ; 1 bytes @ 0x1C
  1907     003C                     	ds	1
  1908     003D                     sprintf@s:
  1909                           
  1910                           ; 1 bytes @ 0x1D
  1911     003D                     	ds	1
  1912     003E                     ??___fltol:
  1913     003E                     ___fldiv@b:	
  1914                           ; 1 bytes @ 0x1E
  1915                           
  1916     003E                     sprintf@f:	
  1917                           ; 4 bytes @ 0x1E
  1918                           
  1919                           
  1920                           ; 11 bytes @ 0x1E
  1921     003E                     	ds	4
  1922     0042                     ??___fldiv:
  1923     0042                     ___fltol@sign1:	
  1924                           ; 1 bytes @ 0x22
  1925                           
  1926                           
  1927                           ; 1 bytes @ 0x22
  1928     0042                     	ds	1
  1929     0043                     ___fltol@exp1:
  1930                           
  1931                           ; 1 bytes @ 0x23
  1932     0043                     	ds	1
  1933     0044                     ?_ftoa:
  1934     0044                     ftoa@value:	
  1935                           ; 1 bytes @ 0x24
  1936                           
  1937                           
  1938                           ; 4 bytes @ 0x24
  1939     0044                     	ds	3
  1940     0047                     ___fldiv@rem:
  1941                           
  1942                           ; 4 bytes @ 0x27
  1943     0047                     	ds	1
  1944     0048                     ftoa@precision:
  1945                           
  1946                           ; 2 bytes @ 0x28
  1947     0048                     	ds	1
  1948     0049                     ?_EUSART_Write_Unsigned_Integer:
  1949     0049                     EUSART_Write_Unsigned_Integer@value_to_send:	
  1950                           ; 1 bytes @ 0x29
  1951                           
  1952                           
  1953                           ; 4 bytes @ 0x29
  1954     0049                     	ds	1
  1955     004A                     ??_ftoa:
  1956                           
  1957                           ; 1 bytes @ 0x2A
  1958     004A                     	ds	1
  1959     004B                     ___fldiv@sign:
  1960     004B                     ftoa@i:	
  1961                           ; 1 bytes @ 0x2B
  1962                           
  1963                           
  1964                           ; 2 bytes @ 0x2B
  1965     004B                     	ds	1
  1966     004C                     ___fldiv@new_exp:
  1967                           
  1968                           ; 2 bytes @ 0x2C
  1969     004C                     	ds	1
  1970     004D                     ftoa@integer_part:
  1971     004D                     EUSART_Write_Unsigned_Integer@buffer:	
  1972                           ; 2 bytes @ 0x2D
  1973                           
  1974                           
  1975                           ; 20 bytes @ 0x2D
  1976     004D                     	ds	1
  1977     004E                     ___fldiv@grs:
  1978                           
  1979                           ; 4 bytes @ 0x2E
  1980     004E                     	ds	1
  1981     004F                     ftoa@digit:
  1982                           
  1983                           ; 2 bytes @ 0x2F
  1984     004F                     	ds	2
  1985     0051                     ftoa@buffer:
  1986                           
  1987                           ; 1 bytes @ 0x31
  1988     0051                     	ds	1
  1989     0052                     ftoa@ptr:
  1990     0052                     ___fldiv@bexp:	
  1991                           ; 1 bytes @ 0x32
  1992                           
  1993                           
  1994                           ; 1 bytes @ 0x32
  1995     0052                     	ds	1
  1996     0053                     ?_EUSART_Write_Float:
  1997     0053                     ___fldiv@aexp:	
  1998                           ; 1 bytes @ 0x33
  1999                           
  2000     0053                     EUSART_Write_Float@value:	
  2001                           ; 1 bytes @ 0x33
  2002                           
  2003                           
  2004                           ; 4 bytes @ 0x33
  2005     0053                     	ds	4
  2006     0057                     EUSART_Write_Float@precision:
  2007                           
  2008                           ; 2 bytes @ 0x37
  2009     0057                     	ds	10
  2010     0061                     ??_calibrate:
  2011                           
  2012                           ; 1 bytes @ 0x41
  2013     0061                     	ds	4
  2014     0065                     ??_main:
  2015                           
  2016                           ; 1 bytes @ 0x45
  2017     0065                     	ds	4
  2018                           
  2019                           	psect	maintext
  2020     0036                     __pmaintext:	
  2021 ;;
  2022 ;;Main: autosize = 0, tempsize = 4, incstack = 0, save=0
  2023 ;;
  2024 ;; *************** function _main *****************
  2025 ;; Defined at:
  2026 ;;		line 175 in file "main.c"
  2027 ;; Parameters:    Size  Location     Type
  2028 ;;		None
  2029 ;; Auto vars:     Size  Location     Type
  2030 ;;  frequency       4   62[BANK1 ] float 
  2031 ;;  inductance_u    4   58[BANK1 ] float 
  2032 ;;  precomputed_    4   44[BANK1 ] float 
  2033 ;;  capacitance     4   40[BANK1 ] float 
  2034 ;;  inductance_m    4   36[BANK1 ] float 
  2035 ;;  inductance_h    4   32[BANK1 ] float 
  2036 ;;  count_end       2   56[BANK1 ] unsigned short 
  2037 ;;  count_start     2   54[BANK1 ] unsigned short 
  2038 ;;  total_counts    2   52[BANK1 ] unsigned short 
  2039 ;; Return value:  Size  Location     Type
  2040 ;;                  1    wreg      void 
  2041 ;; Registers used:
  2042 ;;		wreg, fsr0l, fsr0h, fsr1l, fsr1h, status,2, status,0, pclath, cstack
  2043 ;; Tracked objects:
  2044 ;;		On entry : B1F/0
  2045 ;;		On exit  : 0/0
  2046 ;;		Unchanged: 0/0
  2047 ;; Data sizes:     COMMON   BANK0   BANK1   BANK2   BANK3   BANK4   BANK5   BANK6   BANK7   BANK8   BANK9  BANK10  BANK1
      +1  BANK12  BANK13  BANK14  BANK15  BANK16  BANK17  BANK18  BANK19  BANK20  BANK21  BANK22  BANK23  BANK24  BANK25
  2048 ;;      Params:         0       0       0       0       0       0       0       0       0       0       0       0       
      +0       0       0       0       0       0       0       0       0       0       0       0       0       0       0
  2049 ;;      Locals:         0       0      34       0       0       0       0       0       0       0       0       0       
      +0       0       0       0       0       0       0       0       0       0       0       0       0       0       0
  2050 ;;      Temps:          0       4       0       0       0       0       0       0       0       0       0       0       
      +0       0       0       0       0       0       0       0       0       0       0       0       0       0       0
  2051 ;;      Totals:         0       4      34       0       0       0       0       0       0       0       0       0       
      +0       0       0       0       0       0       0       0       0       0       0       0       0       0       0
  2052 ;;Total ram usage:       38 bytes
  2053 ;; Hardware stack levels required when called: 8
  2054 ;; This function calls:
  2055 ;;		_EUSART_Write_Float
  2056 ;;		_EUSART_Write_Text
  2057 ;;		_EUSART_Write_Unsigned_Integer
  2058 ;;		_ReadTimer0WithOverflows
  2059 ;;		___fldiv
  2060 ;;		___flge
  2061 ;;		___flmul
  2062 ;;		___flsub
  2063 ;;		___fltol
  2064 ;;		___xxtofl
  2065 ;;		_calibrate
  2066 ;;		_initMain
  2067 ;; This function is called by:
  2068 ;;		Startup code after reset
  2069 ;; This function uses a non-reentrant model
  2070 ;;
  2071                           
  2072     0036                     _main:	
  2073                           ;psect for function _main
  2074                           
  2075     0036                     l3120:	
  2076                           ;incstack = 0
  2077                           ; Regs used in _main: [wreg-fsr1h+status,2+status,0+pclath+cstack]
  2078                           
  2079                           
  2080                           ;main.c: 176:     initMain();
  2081     0036  3197  274D  3180   	fcall	_initMain
  2082     0039                     l3122:
  2083                           
  2084                           ;main.c: 178:     uint16_t count_start, count_end, total_counts;;main.c: 179:     float 
      +                          frequency, inductance_h, inductance_uh, inductance_mh;;main.c: 182:     float capacitanc
      +                          e = 100e-9;
  2085     0039  3033               	movlw	51
  2086     003A  0021               	movlb	1	; select bank1
  2087     003B  00CB               	movwf	(main@capacitance+3)^(0+128)
  2088     003C  30D6               	movlw	214
  2089     003D  00CA               	movwf	(main@capacitance+2)^(0+128)
  2090     003E  30BF               	movlw	191
  2091     003F  00C9               	movwf	(main@capacitance+1)^(0+128)
  2092     0040  3095               	movlw	149
  2093     0041  00C8               	movwf	main@capacitance^(0+128)
  2094     0042                     l3124:
  2095                           
  2096                           ;main.c: 185:     float precomputed_constant = 4 * 3.14159 * 3.14159 * capacitance;
  2097     0042  3042               	movlw	66
  2098     0043  0020               	movlb	0	; select bank0
  2099     0044  00A3               	movwf	___flmul@b+3
  2100     0045  301D               	movlw	29
  2101     0046  00A2               	movwf	___flmul@b+2
  2102     0047  30E9               	movlw	233
  2103     0048  00A1               	movwf	___flmul@b+1
  2104     0049  30D5               	movlw	213
  2105     004A  00A0               	movwf	___flmul@b
  2106     004B  0021               	movlb	1	; select bank1
  2107     004C  084B               	movf	(main@capacitance+3)^(0+128),w
  2108     004D  0020               	movlb	0	; select bank0
  2109     004E  00A7               	movwf	___flmul@a+3
  2110     004F  0021               	movlb	1	; select bank1
  2111     0050  084A               	movf	(main@capacitance+2)^(0+128),w
  2112     0051  0020               	movlb	0	; select bank0
  2113     0052  00A6               	movwf	___flmul@a+2
  2114     0053  0021               	movlb	1	; select bank1
  2115     0054  0849               	movf	(main@capacitance+1)^(0+128),w
  2116     0055  0020               	movlb	0	; select bank0
  2117     0056  00A5               	movwf	___flmul@a+1
  2118     0057  0021               	movlb	1	; select bank1
  2119     0058  0848               	movf	main@capacitance^(0+128),w
  2120     0059  0020               	movlb	0	; select bank0
  2121     005A  00A4               	movwf	___flmul@a
  2122     005B  3182  22F9  3180   	fcall	___flmul
  2123     005E  0020               	movlb	0	; select bank0
  2124     005F  0823               	movf	?___flmul+3,w
  2125     0060  0021               	movlb	1	; select bank1
  2126     0061  00CF               	movwf	(main@precomputed_constant+3)^(0+128)
  2127     0062  0020               	movlb	0	; select bank0
  2128     0063  0822               	movf	?___flmul+2,w
  2129     0064  0021               	movlb	1	; select bank1
  2130     0065  00CE               	movwf	(main@precomputed_constant+2)^(0+128)
  2131     0066  0020               	movlb	0	; select bank0
  2132     0067  0821               	movf	?___flmul+1,w
  2133     0068  0021               	movlb	1	; select bank1
  2134     0069  00CD               	movwf	(main@precomputed_constant+1)^(0+128)
  2135     006A  0020               	movlb	0	; select bank0
  2136     006B  0820               	movf	?___flmul,w
  2137     006C  0021               	movlb	1	; select bank1
  2138     006D  00CC               	movwf	main@precomputed_constant^(0+128)
  2139     006E                     l3126:
  2140                           
  2141                           ;main.c: 188:     {;main.c: 189:         LATCbits.LATC4 = 1;
  2142     006E  0022               	movlb	2	; select bank2
  2143     006F  160E               	bsf	14,4	;volatile
  2144     0070                     l3128:
  2145                           
  2146                           ;main.c: 192:         if (PORTCbits.RC6 != 1) {
  2147     0070  0020               	movlb	0	; select bank0
  2148     0071  1B0E               	btfsc	14,6	;volatile
  2149     0072  2874               	goto	u4121
  2150     0073  2875               	goto	u4120
  2151     0074                     u4121:
  2152     0074  288E               	goto	l3136
  2153     0075                     u4120:
  2154     0075                     l3130:
  2155                           
  2156                           ;main.c: 193:             _delay((unsigned long)((50)*(32000000/4000.0)));
  2157     0075  3003               	movlw	3
  2158     0076  0020               	movlb	0	; select bank0
  2159     0077  00E6               	movwf	??_main+1
  2160     0078  3008               	movlw	8
  2161     0079  00E5               	movwf	??_main
  2162     007A  3077               	movlw	119
  2163     007B                     u4187:
  2164     007B  0B89               	decfsz	9,f
  2165     007C  287B               	goto	u4187
  2166     007D  0BE5               	decfsz	??_main,f
  2167     007E  287B               	goto	u4187
  2168     007F  0BE6               	decfsz	??_main+1,f
  2169     0080  287B               	goto	u4187
  2170     0081                     l3132:
  2171                           
  2172                           ;main.c: 194:             if (PORTCbits.RC6 != 1) {
  2173     0081  0020               	movlb	0	; select bank0
  2174     0082  1B0E               	btfsc	14,6	;volatile
  2175     0083  2885               	goto	u4131
  2176     0084  2886               	goto	u4130
  2177     0085                     u4131:
  2178     0085  288E               	goto	l3136
  2179     0086                     u4130:
  2180     0086                     l3134:
  2181                           
  2182                           ;main.c: 195:                 calibrate();
  2183     0086  318E  2649  3180   	fcall	_calibrate
  2184     0089                     l163:	
  2185                           ;main.c: 196:                 while (PORTCbits.RC6 != 1);
  2186                           
  2187     0089  0020               	movlb	0	; select bank0
  2188     008A  1F0E               	btfss	14,6	;volatile
  2189     008B  288D               	goto	u4141
  2190     008C  288E               	goto	u4140
  2191     008D                     u4141:
  2192     008D  2889               	goto	l163
  2193     008E                     u4140:
  2194     008E                     l3136:
  2195                           
  2196                           ;main.c: 201:         count_start = ReadTimer0WithOverflows();
  2197     008E  3187  27EA  3180   	fcall	_ReadTimer0WithOverflows
  2198     0091  0871               	movf	?_ReadTimer0WithOverflows+1,w
  2199     0092  0021               	movlb	1	; select bank1
  2200     0093  00D7               	movwf	(main@count_start+1)^(0+128)
  2201     0094  0870               	movf	?_ReadTimer0WithOverflows,w
  2202     0095  00D6               	movwf	main@count_start^(0+128)
  2203     0096                     l3138:
  2204                           
  2205                           ;main.c: 202:         _delay((unsigned long)((1000)*(32000000/4000.0)));
  2206     0096  3029               	movlw	41
  2207     0097  0020               	movlb	0	; select bank0
  2208     0098  00E6               	movwf	??_main+1
  2209     0099  3096               	movlw	150
  2210     009A  00E5               	movwf	??_main
  2211     009B  307F               	movlw	127
  2212     009C                     u4197:
  2213     009C  0B89               	decfsz	9,f
  2214     009D  289C               	goto	u4197
  2215     009E  0BE5               	decfsz	??_main,f
  2216     009F  289C               	goto	u4197
  2217     00A0  0BE6               	decfsz	??_main+1,f
  2218     00A1  289C               	goto	u4197
  2219     00A2                     l3140:
  2220                           
  2221                           ;main.c: 203:         count_end = ReadTimer0WithOverflows();
  2222     00A2  3187  27EA  3180   	fcall	_ReadTimer0WithOverflows
  2223     00A5  0871               	movf	?_ReadTimer0WithOverflows+1,w
  2224     00A6  0021               	movlb	1	; select bank1
  2225     00A7  00D9               	movwf	(main@count_end+1)^(0+128)
  2226     00A8  0870               	movf	?_ReadTimer0WithOverflows,w
  2227     00A9  00D8               	movwf	main@count_end^(0+128)
  2228                           
  2229                           ;main.c: 206:         total_counts = (count_end >= count_start)
  2230     00AA  0857               	movf	(main@count_start+1)^(0+128),w
  2231     00AB  0259               	subwf	(main@count_end+1)^(0+128),w
  2232     00AC  1D03               	skipz
  2233     00AD  28B0               	goto	u4155
  2234     00AE  0856               	movf	main@count_start^(0+128),w
  2235     00AF  0258               	subwf	main@count_end^(0+128),w
  2236     00B0                     u4155:
  2237     00B0  1803               	skipnc
  2238     00B1  28B3               	goto	u4151
  2239     00B2  28B4               	goto	u4150
  2240     00B3                     u4151:
  2241     00B3  28CE               	goto	l3144
  2242     00B4                     u4150:
  2243     00B4                     l3142:
  2244     00B4  0862               	movf	_tmr0_overflows^(0+128),w	;volatile
  2245     00B5  0020               	movlb	0	; select bank0
  2246     00B6  00E6               	movwf	??_main+1
  2247     00B7  01E5               	clrf	??_main
  2248     00B8  0021               	movlb	1	; select bank1
  2249     00B9  0856               	movf	main@count_start^(0+128),w
  2250     00BA  0020               	movlb	0	; select bank0
  2251     00BB  0265               	subwf	??_main,w
  2252     00BC  00E7               	movwf	??_main+2
  2253     00BD  0021               	movlb	1	; select bank1
  2254     00BE  0857               	movf	(main@count_start+1)^(0+128),w
  2255     00BF  0020               	movlb	0	; select bank0
  2256     00C0  3B66               	subwfb	??_main+1,w
  2257     00C1  00E8               	movwf	??_main+3
  2258     00C2  0021               	movlb	1	; select bank1
  2259     00C3  0858               	movf	main@count_end^(0+128),w
  2260     00C4  0020               	movlb	0	; select bank0
  2261     00C5  0767               	addwf	??_main+2,w
  2262     00C6  0021               	movlb	1	; select bank1
  2263     00C7  00D4               	movwf	main@total_counts^(0+128)
  2264     00C8  0859               	movf	(main@count_end+1)^(0+128),w
  2265     00C9  0020               	movlb	0	; select bank0
  2266     00CA  3D68               	addwfc	??_main+3,w
  2267     00CB  0021               	movlb	1	; select bank1
  2268     00CC  00D5               	movwf	(main@total_counts+1)^(0+128)
  2269     00CD  28D4               	goto	l3146
  2270     00CE                     l3144:
  2271     00CE  0856               	movf	main@count_start^(0+128),w
  2272     00CF  0258               	subwf	main@count_end^(0+128),w
  2273     00D0  00D4               	movwf	main@total_counts^(0+128)
  2274     00D1  0857               	movf	(main@count_start+1)^(0+128),w
  2275     00D2  3B59               	subwfb	(main@count_end+1)^(0+128),w
  2276     00D3  00D5               	movwf	(main@total_counts+1)^(0+128)
  2277     00D4                     l3146:
  2278                           
  2279                           ;main.c: 209:         tmr0_overflows = 0;
  2280     00D4  01E2               	clrf	_tmr0_overflows^(0+128)	;volatile
  2281     00D5  01E3               	clrf	(_tmr0_overflows+1)^(0+128)	;volatile
  2282     00D6                     l3148:
  2283                           
  2284                           ;main.c: 212:         frequency = ((float)total_counts * 16) / 1.0;
  2285     00D6  303F               	movlw	63
  2286     00D7  0020               	movlb	0	; select bank0
  2287     00D8  00BD               	movwf	___fldiv@a+3
  2288     00D9  3080               	movlw	128
  2289     00DA  00BC               	movwf	___fldiv@a+2
  2290     00DB  3000               	movlw	0
  2291     00DC  00BB               	movwf	___fldiv@a+1
  2292     00DD  3000               	movlw	0
  2293     00DE  00BA               	movwf	___fldiv@a
  2294     00DF  3041               	movlw	65
  2295     00E0  00A3               	movwf	___flmul@b+3
  2296     00E1  3080               	movlw	128
  2297     00E2  00A2               	movwf	___flmul@b+2
  2298     00E3  3000               	movlw	0
  2299     00E4  00A1               	movwf	___flmul@b+1
  2300     00E5  3000               	movlw	0
  2301     00E6  00A0               	movwf	___flmul@b
  2302     00E7  0021               	movlb	1	; select bank1
  2303     00E8  0854               	movf	main@total_counts^(0+128),w
  2304     00E9  00F0               	movwf	___xxtofl@val
  2305     00EA  0855               	movf	(main@total_counts+1)^(0+128),w
  2306     00EB  00F1               	movwf	___xxtofl@val+1
  2307     00EC  01F2               	clrf	___xxtofl@val+2
  2308     00ED  01F3               	clrf	___xxtofl@val+3
  2309     00EE  3000               	movlw	0
  2310     00EF  3187  2740  3180   	fcall	___xxtofl
  2311     00F2  0873               	movf	?___xxtofl+3,w
  2312     00F3  0020               	movlb	0	; select bank0
  2313     00F4  00A7               	movwf	___flmul@a+3
  2314     00F5  0872               	movf	?___xxtofl+2,w
  2315     00F6  00A6               	movwf	___flmul@a+2
  2316     00F7  0871               	movf	?___xxtofl+1,w
  2317     00F8  00A5               	movwf	___flmul@a+1
  2318     00F9  0870               	movf	?___xxtofl,w
  2319     00FA  00A4               	movwf	___flmul@a
  2320     00FB  3182  22F9  3180   	fcall	___flmul
  2321     00FE  0020               	movlb	0	; select bank0
  2322     00FF  0823               	movf	?___flmul+3,w
  2323     0100  00C1               	movwf	___fldiv@b+3
  2324     0101  0822               	movf	?___flmul+2,w
  2325     0102  00C0               	movwf	___fldiv@b+2
  2326     0103  0821               	movf	?___flmul+1,w
  2327     0104  00BF               	movwf	___fldiv@b+1
  2328     0105  0820               	movf	?___flmul,w
  2329     0106  00BE               	movwf	___fldiv@b
  2330     0107  318C  249F  3180   	fcall	___fldiv
  2331     010A  0020               	movlb	0	; select bank0
  2332     010B  083D               	movf	?___fldiv+3,w
  2333     010C  0021               	movlb	1	; select bank1
  2334     010D  00E1               	movwf	(main@frequency+3)^(0+128)
  2335     010E  0020               	movlb	0	; select bank0
  2336     010F  083C               	movf	?___fldiv+2,w
  2337     0110  0021               	movlb	1	; select bank1
  2338     0111  00E0               	movwf	(main@frequency+2)^(0+128)
  2339     0112  0020               	movlb	0	; select bank0
  2340     0113  083B               	movf	?___fldiv+1,w
  2341     0114  0021               	movlb	1	; select bank1
  2342     0115  00DF               	movwf	(main@frequency+1)^(0+128)
  2343     0116  0020               	movlb	0	; select bank0
  2344     0117  083A               	movf	?___fldiv,w
  2345     0118  0021               	movlb	1	; select bank1
  2346     0119  00DE               	movwf	main@frequency^(0+128)
  2347     011A                     l3150:
  2348                           
  2349                           ;main.c: 214:         if (frequency > 0) {
  2350     011A  3000               	movlw	0
  2351     011B  00F3               	movwf	___flge@ff1+3
  2352     011C  3000               	movlw	0
  2353     011D  00F2               	movwf	___flge@ff1+2
  2354     011E  3000               	movlw	0
  2355     011F  00F1               	movwf	___flge@ff1+1
  2356     0120  3000               	movlw	0
  2357     0121  00F0               	movwf	___flge@ff1
  2358     0122  0861               	movf	(main@frequency+3)^(0+128),w
  2359     0123  00F7               	movwf	___flge@ff2+3
  2360     0124  0860               	movf	(main@frequency+2)^(0+128),w
  2361     0125  00F6               	movwf	___flge@ff2+2
  2362     0126  085F               	movf	(main@frequency+1)^(0+128),w
  2363     0127  00F5               	movwf	___flge@ff2+1
  2364     0128  085E               	movf	main@frequency^(0+128),w
  2365     0129  00F4               	movwf	___flge@ff2
  2366     012A  3188  20CC  3180   	fcall	___flge
  2367     012D  1803               	btfsc	3,0
  2368     012E  2930               	goto	u4161
  2369     012F  2931               	goto	u4160
  2370     0130                     u4161:
  2371     0130  2AEF               	goto	l3174
  2372     0131                     u4160:
  2373     0131                     l3152:
  2374                           
  2375                           ;main.c: 216:             inductance_h = 1.0 / (precomputed_constant * frequency * frequ
      +                          ency);
  2376     0131  0021               	movlb	1	; select bank1
  2377     0132  0861               	movf	(main@frequency+3)^(0+128),w
  2378     0133  0020               	movlb	0	; select bank0
  2379     0134  00A3               	movwf	___flmul@b+3
  2380     0135  0021               	movlb	1	; select bank1
  2381     0136  0860               	movf	(main@frequency+2)^(0+128),w
  2382     0137  0020               	movlb	0	; select bank0
  2383     0138  00A2               	movwf	___flmul@b+2
  2384     0139  0021               	movlb	1	; select bank1
  2385     013A  085F               	movf	(main@frequency+1)^(0+128),w
  2386     013B  0020               	movlb	0	; select bank0
  2387     013C  00A1               	movwf	___flmul@b+1
  2388     013D  0021               	movlb	1	; select bank1
  2389     013E  085E               	movf	main@frequency^(0+128),w
  2390     013F  0020               	movlb	0	; select bank0
  2391     0140  00A0               	movwf	___flmul@b
  2392     0141  0021               	movlb	1	; select bank1
  2393     0142  084F               	movf	(main@precomputed_constant+3)^(0+128),w
  2394     0143  0020               	movlb	0	; select bank0
  2395     0144  00A7               	movwf	___flmul@a+3
  2396     0145  0021               	movlb	1	; select bank1
  2397     0146  084E               	movf	(main@precomputed_constant+2)^(0+128),w
  2398     0147  0020               	movlb	0	; select bank0
  2399     0148  00A6               	movwf	___flmul@a+2
  2400     0149  0021               	movlb	1	; select bank1
  2401     014A  084D               	movf	(main@precomputed_constant+1)^(0+128),w
  2402     014B  0020               	movlb	0	; select bank0
  2403     014C  00A5               	movwf	___flmul@a+1
  2404     014D  0021               	movlb	1	; select bank1
  2405     014E  084C               	movf	main@precomputed_constant^(0+128),w
  2406     014F  0020               	movlb	0	; select bank0
  2407     0150  00A4               	movwf	___flmul@a
  2408     0151  3182  22F9  3180   	fcall	___flmul
  2409     0154  0020               	movlb	0	; select bank0
  2410     0155  0823               	movf	?___flmul+3,w
  2411     0156  0021               	movlb	1	; select bank1
  2412     0157  00D3               	movwf	(_main$1142+3)^(0+128)
  2413     0158  0020               	movlb	0	; select bank0
  2414     0159  0822               	movf	?___flmul+2,w
  2415     015A  0021               	movlb	1	; select bank1
  2416     015B  00D2               	movwf	(_main$1142+2)^(0+128)
  2417     015C  0020               	movlb	0	; select bank0
  2418     015D  0821               	movf	?___flmul+1,w
  2419     015E  0021               	movlb	1	; select bank1
  2420     015F  00D1               	movwf	(_main$1142+1)^(0+128)
  2421     0160  0020               	movlb	0	; select bank0
  2422     0161  0820               	movf	?___flmul,w
  2423     0162  0021               	movlb	1	; select bank1
  2424     0163  00D0               	movwf	_main$1142^(0+128)
  2425                           
  2426                           ;main.c: 216:             inductance_h = 1.0 / (precomputed_constant * frequency * frequ
      +                          ency);
  2427     0164  0861               	movf	(main@frequency+3)^(0+128),w
  2428     0165  0020               	movlb	0	; select bank0
  2429     0166  00A3               	movwf	___flmul@b+3
  2430     0167  0021               	movlb	1	; select bank1
  2431     0168  0860               	movf	(main@frequency+2)^(0+128),w
  2432     0169  0020               	movlb	0	; select bank0
  2433     016A  00A2               	movwf	___flmul@b+2
  2434     016B  0021               	movlb	1	; select bank1
  2435     016C  085F               	movf	(main@frequency+1)^(0+128),w
  2436     016D  0020               	movlb	0	; select bank0
  2437     016E  00A1               	movwf	___flmul@b+1
  2438     016F  0021               	movlb	1	; select bank1
  2439     0170  085E               	movf	main@frequency^(0+128),w
  2440     0171  0020               	movlb	0	; select bank0
  2441     0172  00A0               	movwf	___flmul@b
  2442     0173  0021               	movlb	1	; select bank1
  2443     0174  0853               	movf	(_main$1142+3)^(0+128),w
  2444     0175  0020               	movlb	0	; select bank0
  2445     0176  00A7               	movwf	___flmul@a+3
  2446     0177  0021               	movlb	1	; select bank1
  2447     0178  0852               	movf	(_main$1142+2)^(0+128),w
  2448     0179  0020               	movlb	0	; select bank0
  2449     017A  00A6               	movwf	___flmul@a+2
  2450     017B  0021               	movlb	1	; select bank1
  2451     017C  0851               	movf	(_main$1142+1)^(0+128),w
  2452     017D  0020               	movlb	0	; select bank0
  2453     017E  00A5               	movwf	___flmul@a+1
  2454     017F  0021               	movlb	1	; select bank1
  2455     0180  0850               	movf	_main$1142^(0+128),w
  2456     0181  0020               	movlb	0	; select bank0
  2457     0182  00A4               	movwf	___flmul@a
  2458     0183  3182  22F9  3180   	fcall	___flmul
  2459     0186  0020               	movlb	0	; select bank0
  2460     0187  0823               	movf	?___flmul+3,w
  2461     0188  00BD               	movwf	___fldiv@a+3
  2462     0189  0822               	movf	?___flmul+2,w
  2463     018A  00BC               	movwf	___fldiv@a+2
  2464     018B  0821               	movf	?___flmul+1,w
  2465     018C  00BB               	movwf	___fldiv@a+1
  2466     018D  0820               	movf	?___flmul,w
  2467     018E  00BA               	movwf	___fldiv@a
  2468     018F  303F               	movlw	63
  2469     0190  00C1               	movwf	___fldiv@b+3
  2470     0191  3080               	movlw	128
  2471     0192  00C0               	movwf	___fldiv@b+2
  2472     0193  3000               	movlw	0
  2473     0194  00BF               	movwf	___fldiv@b+1
  2474     0195  3000               	movlw	0
  2475     0196  00BE               	movwf	___fldiv@b
  2476     0197  318C  249F  3180   	fcall	___fldiv
  2477     019A  0020               	movlb	0	; select bank0
  2478     019B  083D               	movf	?___fldiv+3,w
  2479     019C  0021               	movlb	1	; select bank1
  2480     019D  00C3               	movwf	(main@inductance_h+3)^(0+128)
  2481     019E  0020               	movlb	0	; select bank0
  2482     019F  083C               	movf	?___fldiv+2,w
  2483     01A0  0021               	movlb	1	; select bank1
  2484     01A1  00C2               	movwf	(main@inductance_h+2)^(0+128)
  2485     01A2  0020               	movlb	0	; select bank0
  2486     01A3  083B               	movf	?___fldiv+1,w
  2487     01A4  0021               	movlb	1	; select bank1
  2488     01A5  00C1               	movwf	(main@inductance_h+1)^(0+128)
  2489     01A6  0020               	movlb	0	; select bank0
  2490     01A7  083A               	movf	?___fldiv,w
  2491     01A8  0021               	movlb	1	; select bank1
  2492     01A9  00C0               	movwf	main@inductance_h^(0+128)
  2493                           
  2494                           ;main.c: 219:             inductance_uh = inductance_h * 1e6;
  2495     01AA  3049               	movlw	73
  2496     01AB  0020               	movlb	0	; select bank0
  2497     01AC  00A3               	movwf	___flmul@b+3
  2498     01AD  3074               	movlw	116
  2499     01AE  00A2               	movwf	___flmul@b+2
  2500     01AF  3024               	movlw	36
  2501     01B0  00A1               	movwf	___flmul@b+1
  2502     01B1  3000               	movlw	0
  2503     01B2  00A0               	movwf	___flmul@b
  2504     01B3  0021               	movlb	1	; select bank1
  2505     01B4  0843               	movf	(main@inductance_h+3)^(0+128),w
  2506     01B5  0020               	movlb	0	; select bank0
  2507     01B6  00A7               	movwf	___flmul@a+3
  2508     01B7  0021               	movlb	1	; select bank1
  2509     01B8  0842               	movf	(main@inductance_h+2)^(0+128),w
  2510     01B9  0020               	movlb	0	; select bank0
  2511     01BA  00A6               	movwf	___flmul@a+2
  2512     01BB  0021               	movlb	1	; select bank1
  2513     01BC  0841               	movf	(main@inductance_h+1)^(0+128),w
  2514     01BD  0020               	movlb	0	; select bank0
  2515     01BE  00A5               	movwf	___flmul@a+1
  2516     01BF  0021               	movlb	1	; select bank1
  2517     01C0  0840               	movf	main@inductance_h^(0+128),w
  2518     01C1  0020               	movlb	0	; select bank0
  2519     01C2  00A4               	movwf	___flmul@a
  2520     01C3  3182  22F9  3180   	fcall	___flmul
  2521     01C6  0020               	movlb	0	; select bank0
  2522     01C7  0823               	movf	?___flmul+3,w
  2523     01C8  0021               	movlb	1	; select bank1
  2524     01C9  00DD               	movwf	(main@inductance_uh+3)^(0+128)
  2525     01CA  0020               	movlb	0	; select bank0
  2526     01CB  0822               	movf	?___flmul+2,w
  2527     01CC  0021               	movlb	1	; select bank1
  2528     01CD  00DC               	movwf	(main@inductance_uh+2)^(0+128)
  2529     01CE  0020               	movlb	0	; select bank0
  2530     01CF  0821               	movf	?___flmul+1,w
  2531     01D0  0021               	movlb	1	; select bank1
  2532     01D1  00DB               	movwf	(main@inductance_uh+1)^(0+128)
  2533     01D2  0020               	movlb	0	; select bank0
  2534     01D3  0820               	movf	?___flmul,w
  2535     01D4  0021               	movlb	1	; select bank1
  2536     01D5  00DA               	movwf	main@inductance_uh^(0+128)
  2537                           
  2538                           ;main.c: 220:             inductance_uh = inductance_uh - calibration_value;
  2539     01D6  0864               	movf	_calibration_value^(0+128),w
  2540     01D7  0020               	movlb	0	; select bank0
  2541     01D8  00E5               	movwf	??_main
  2542     01D9  01E6               	clrf	??_main+1
  2543     01DA  01E7               	clrf	??_main+2
  2544     01DB  01E8               	clrf	??_main+3
  2545     01DC  0868               	movf	??_main+3,w
  2546     01DD  00F3               	movwf	___xxtofl@val+3
  2547     01DE  0867               	movf	??_main+2,w
  2548     01DF  00F2               	movwf	___xxtofl@val+2
  2549     01E0  0866               	movf	??_main+1,w
  2550     01E1  00F1               	movwf	___xxtofl@val+1
  2551     01E2  0865               	movf	??_main,w
  2552     01E3  00F0               	movwf	___xxtofl@val
  2553     01E4  3001               	movlw	1
  2554     01E5  3187  2740  3180   	fcall	___xxtofl
  2555     01E8  0873               	movf	?___xxtofl+3,w
  2556     01E9  0020               	movlb	0	; select bank0
  2557     01EA  00AB               	movwf	___flsub@a+3
  2558     01EB  0872               	movf	?___xxtofl+2,w
  2559     01EC  00AA               	movwf	___flsub@a+2
  2560     01ED  0871               	movf	?___xxtofl+1,w
  2561     01EE  00A9               	movwf	___flsub@a+1
  2562     01EF  0870               	movf	?___xxtofl,w
  2563     01F0  00A8               	movwf	___flsub@a
  2564     01F1  0021               	movlb	1	; select bank1
  2565     01F2  085D               	movf	(main@inductance_uh+3)^(0+128),w
  2566     01F3  0020               	movlb	0	; select bank0
  2567     01F4  00AF               	movwf	___flsub@b+3
  2568     01F5  0021               	movlb	1	; select bank1
  2569     01F6  085C               	movf	(main@inductance_uh+2)^(0+128),w
  2570     01F7  0020               	movlb	0	; select bank0
  2571     01F8  00AE               	movwf	___flsub@b+2
  2572     01F9  0021               	movlb	1	; select bank1
  2573     01FA  085B               	movf	(main@inductance_uh+1)^(0+128),w
  2574     01FB  0020               	movlb	0	; select bank0
  2575     01FC  00AD               	movwf	___flsub@b+1
  2576     01FD  0021               	movlb	1	; select bank1
  2577     01FE  085A               	movf	main@inductance_uh^(0+128),w
  2578     01FF  0020               	movlb	0	; select bank0
  2579     0200  00AC               	movwf	___flsub@b
  2580     0201  3195  25CD  3180   	fcall	___flsub
  2581     0204  0020               	movlb	0	; select bank0
  2582     0205  082B               	movf	?___flsub+3,w
  2583     0206  0021               	movlb	1	; select bank1
  2584     0207  00DD               	movwf	(main@inductance_uh+3)^(0+128)
  2585     0208  0020               	movlb	0	; select bank0
  2586     0209  082A               	movf	?___flsub+2,w
  2587     020A  0021               	movlb	1	; select bank1
  2588     020B  00DC               	movwf	(main@inductance_uh+2)^(0+128)
  2589     020C  0020               	movlb	0	; select bank0
  2590     020D  0829               	movf	?___flsub+1,w
  2591     020E  0021               	movlb	1	; select bank1
  2592     020F  00DB               	movwf	(main@inductance_uh+1)^(0+128)
  2593     0210  0020               	movlb	0	; select bank0
  2594     0211  0828               	movf	?___flsub,w
  2595     0212  0021               	movlb	1	; select bank1
  2596     0213  00DA               	movwf	main@inductance_uh^(0+128)
  2597                           
  2598                           ;main.c: 223:             if (inductance_uh > 999.0) {
  2599     0214  3044               	movlw	68
  2600     0215  00F3               	movwf	___flge@ff1+3
  2601     0216  3079               	movlw	121
  2602     0217  00F2               	movwf	___flge@ff1+2
  2603     0218  30C0               	movlw	192
  2604     0219  00F1               	movwf	___flge@ff1+1
  2605     021A  3000               	movlw	0
  2606     021B  00F0               	movwf	___flge@ff1
  2607     021C  085D               	movf	(main@inductance_uh+3)^(0+128),w
  2608     021D  00F7               	movwf	___flge@ff2+3
  2609     021E  085C               	movf	(main@inductance_uh+2)^(0+128),w
  2610     021F  00F6               	movwf	___flge@ff2+2
  2611     0220  085B               	movf	(main@inductance_uh+1)^(0+128),w
  2612     0221  00F5               	movwf	___flge@ff2+1
  2613     0222  085A               	movf	main@inductance_uh^(0+128),w
  2614     0223  00F4               	movwf	___flge@ff2
  2615     0224  3188  20CC  3180   	fcall	___flge
  2616     0227  1803               	btfsc	3,0
  2617     0228  2A2A               	goto	u4171
  2618     0229  2A2B               	goto	u4170
  2619     022A                     u4171:
  2620     022A  2AA3               	goto	l3166
  2621     022B                     u4170:
  2622     022B                     l3154:
  2623                           
  2624                           ;main.c: 225:                 inductance_mh = inductance_uh / 1000.0;
  2625     022B  3044               	movlw	68
  2626     022C  0020               	movlb	0	; select bank0
  2627     022D  00BD               	movwf	___fldiv@a+3
  2628     022E  307A               	movlw	122
  2629     022F  00BC               	movwf	___fldiv@a+2
  2630     0230  3000               	movlw	0
  2631     0231  00BB               	movwf	___fldiv@a+1
  2632     0232  3000               	movlw	0
  2633     0233  00BA               	movwf	___fldiv@a
  2634     0234  0021               	movlb	1	; select bank1
  2635     0235  085D               	movf	(main@inductance_uh+3)^(0+128),w
  2636     0236  0020               	movlb	0	; select bank0
  2637     0237  00C1               	movwf	___fldiv@b+3
  2638     0238  0021               	movlb	1	; select bank1
  2639     0239  085C               	movf	(main@inductance_uh+2)^(0+128),w
  2640     023A  0020               	movlb	0	; select bank0
  2641     023B  00C0               	movwf	___fldiv@b+2
  2642     023C  0021               	movlb	1	; select bank1
  2643     023D  085B               	movf	(main@inductance_uh+1)^(0+128),w
  2644     023E  0020               	movlb	0	; select bank0
  2645     023F  00BF               	movwf	___fldiv@b+1
  2646     0240  0021               	movlb	1	; select bank1
  2647     0241  085A               	movf	main@inductance_uh^(0+128),w
  2648     0242  0020               	movlb	0	; select bank0
  2649     0243  00BE               	movwf	___fldiv@b
  2650     0244  318C  249F  3180   	fcall	___fldiv
  2651     0247  0020               	movlb	0	; select bank0
  2652     0248  083D               	movf	?___fldiv+3,w
  2653     0249  0021               	movlb	1	; select bank1
  2654     024A  00C7               	movwf	(main@inductance_mh+3)^(0+128)
  2655     024B  0020               	movlb	0	; select bank0
  2656     024C  083C               	movf	?___fldiv+2,w
  2657     024D  0021               	movlb	1	; select bank1
  2658     024E  00C6               	movwf	(main@inductance_mh+2)^(0+128)
  2659     024F  0020               	movlb	0	; select bank0
  2660     0250  083B               	movf	?___fldiv+1,w
  2661     0251  0021               	movlb	1	; select bank1
  2662     0252  00C5               	movwf	(main@inductance_mh+1)^(0+128)
  2663     0253  0020               	movlb	0	; select bank0
  2664     0254  083A               	movf	?___fldiv,w
  2665     0255  0021               	movlb	1	; select bank1
  2666     0256  00C4               	movwf	main@inductance_mh^(0+128)
  2667     0257                     l3156:
  2668                           
  2669                           ;main.c: 228:                 EUSART_Write_Text("Frequency (Hz): ");
  2670     0257  30B8               	movlw	low (STR_6| (0+32768))
  2671     0258  00F1               	movwf	EUSART_Write_Text@text
  2672     0259  3098               	movlw	high (STR_6| (0+32768))
  2673     025A  00F2               	movwf	EUSART_Write_Text@text+1
  2674     025B  3195  2574  3180   	fcall	_EUSART_Write_Text
  2675     025E                     l3158:
  2676                           
  2677                           ;main.c: 229:                 EUSART_Write_Unsigned_Integer((uint32_t)frequency);
  2678     025E  0021               	movlb	1	; select bank1
  2679     025F  0861               	movf	(main@frequency+3)^(0+128),w
  2680     0260  0020               	movlb	0	; select bank0
  2681     0261  00BD               	movwf	___fltol@f1+3
  2682     0262  0021               	movlb	1	; select bank1
  2683     0263  0860               	movf	(main@frequency+2)^(0+128),w
  2684     0264  0020               	movlb	0	; select bank0
  2685     0265  00BC               	movwf	___fltol@f1+2
  2686     0266  0021               	movlb	1	; select bank1
  2687     0267  085F               	movf	(main@frequency+1)^(0+128),w
  2688     0268  0020               	movlb	0	; select bank0
  2689     0269  00BB               	movwf	___fltol@f1+1
  2690     026A  0021               	movlb	1	; select bank1
  2691     026B  085E               	movf	main@frequency^(0+128),w
  2692     026C  0020               	movlb	0	; select bank0
  2693     026D  00BA               	movwf	___fltol@f1
  2694     026E  3188  205B  3180   	fcall	___fltol
  2695     0271  0020               	movlb	0	; select bank0
  2696     0272  083D               	movf	?___fltol+3,w
  2697     0273  00CC               	movwf	EUSART_Write_Unsigned_Integer@value_to_send+3
  2698     0274  083C               	movf	?___fltol+2,w
  2699     0275  00CB               	movwf	EUSART_Write_Unsigned_Integer@value_to_send+2
  2700     0276  083B               	movf	?___fltol+1,w
  2701     0277  00CA               	movwf	EUSART_Write_Unsigned_Integer@value_to_send+1
  2702     0278  083A               	movf	?___fltol,w
  2703     0279  00C9               	movwf	EUSART_Write_Unsigned_Integer@value_to_send
  2704     027A  3195  253F  3180   	fcall	_EUSART_Write_Unsigned_Integer
  2705     027D                     l3160:
  2706                           
  2707                           ;main.c: 230:                 EUSART_Write_Text(" Inductance (mH): ");
  2708     027D  3092               	movlw	low (STR_7| (0+32768))
  2709     027E  00F1               	movwf	EUSART_Write_Text@text
  2710     027F  3098               	movlw	high (STR_7| (0+32768))
  2711     0280  00F2               	movwf	EUSART_Write_Text@text+1
  2712     0281  3195  2574  3180   	fcall	_EUSART_Write_Text
  2713     0284                     l3162:
  2714                           
  2715                           ;main.c: 231:                 EUSART_Write_Float(inductance_mh, 3);
  2716     0284  0021               	movlb	1	; select bank1
  2717     0285  0847               	movf	(main@inductance_mh+3)^(0+128),w
  2718     0286  0020               	movlb	0	; select bank0
  2719     0287  00D6               	movwf	EUSART_Write_Float@value+3
  2720     0288  0021               	movlb	1	; select bank1
  2721     0289  0846               	movf	(main@inductance_mh+2)^(0+128),w
  2722     028A  0020               	movlb	0	; select bank0
  2723     028B  00D5               	movwf	EUSART_Write_Float@value+2
  2724     028C  0021               	movlb	1	; select bank1
  2725     028D  0845               	movf	(main@inductance_mh+1)^(0+128),w
  2726     028E  0020               	movlb	0	; select bank0
  2727     028F  00D4               	movwf	EUSART_Write_Float@value+1
  2728     0290  0021               	movlb	1	; select bank1
  2729     0291  0844               	movf	main@inductance_mh^(0+128),w
  2730     0292  0020               	movlb	0	; select bank0
  2731     0293  00D3               	movwf	EUSART_Write_Float@value
  2732     0294  3003               	movlw	3
  2733     0295  00D7               	movwf	EUSART_Write_Float@precision
  2734     0296  3000               	movlw	0
  2735     0297  00D8               	movwf	EUSART_Write_Float@precision+1
  2736     0298  3195  2526  3180   	fcall	_EUSART_Write_Float
  2737     029B                     l3164:
  2738                           
  2739                           ;main.c: 232:                 EUSART_Write_Text("\n");
  2740     029B  3076               	movlw	low ((STR_2+27)| (0+32768))
  2741     029C  00F1               	movwf	EUSART_Write_Text@text
  2742     029D  3098               	movlw	high ((STR_2+27)| (0+32768))
  2743     029E  00F2               	movwf	EUSART_Write_Text@text+1
  2744     029F  3195  2574  3180   	fcall	_EUSART_Write_Text
  2745                           
  2746                           ;main.c: 233:             } else {
  2747     02A2  286E               	goto	l3126
  2748     02A3                     l3166:
  2749                           
  2750                           ;main.c: 235:                 EUSART_Write_Text("Frequency (Hz): ");
  2751     02A3  30B8               	movlw	low (STR_6| (0+32768))
  2752     02A4  00F1               	movwf	EUSART_Write_Text@text
  2753     02A5  3098               	movlw	high (STR_6| (0+32768))
  2754     02A6  00F2               	movwf	EUSART_Write_Text@text+1
  2755     02A7  3195  2574  3180   	fcall	_EUSART_Write_Text
  2756     02AA                     l3168:
  2757                           
  2758                           ;main.c: 236:                 EUSART_Write_Unsigned_Integer((uint32_t)frequency);
  2759     02AA  0021               	movlb	1	; select bank1
  2760     02AB  0861               	movf	(main@frequency+3)^(0+128),w
  2761     02AC  0020               	movlb	0	; select bank0
  2762     02AD  00BD               	movwf	___fltol@f1+3
  2763     02AE  0021               	movlb	1	; select bank1
  2764     02AF  0860               	movf	(main@frequency+2)^(0+128),w
  2765     02B0  0020               	movlb	0	; select bank0
  2766     02B1  00BC               	movwf	___fltol@f1+2
  2767     02B2  0021               	movlb	1	; select bank1
  2768     02B3  085F               	movf	(main@frequency+1)^(0+128),w
  2769     02B4  0020               	movlb	0	; select bank0
  2770     02B5  00BB               	movwf	___fltol@f1+1
  2771     02B6  0021               	movlb	1	; select bank1
  2772     02B7  085E               	movf	main@frequency^(0+128),w
  2773     02B8  0020               	movlb	0	; select bank0
  2774     02B9  00BA               	movwf	___fltol@f1
  2775     02BA  3188  205B  3180   	fcall	___fltol
  2776     02BD  0020               	movlb	0	; select bank0
  2777     02BE  083D               	movf	?___fltol+3,w
  2778     02BF  00CC               	movwf	EUSART_Write_Unsigned_Integer@value_to_send+3
  2779     02C0  083C               	movf	?___fltol+2,w
  2780     02C1  00CB               	movwf	EUSART_Write_Unsigned_Integer@value_to_send+2
  2781     02C2  083B               	movf	?___fltol+1,w
  2782     02C3  00CA               	movwf	EUSART_Write_Unsigned_Integer@value_to_send+1
  2783     02C4  083A               	movf	?___fltol,w
  2784     02C5  00C9               	movwf	EUSART_Write_Unsigned_Integer@value_to_send
  2785     02C6  3195  253F  3180   	fcall	_EUSART_Write_Unsigned_Integer
  2786     02C9                     l3170:
  2787                           
  2788                           ;main.c: 237:                 EUSART_Write_Text(" Inductance (uH): ");
  2789     02C9  30A5               	movlw	low (STR_10| (0+32768))
  2790     02CA  00F1               	movwf	EUSART_Write_Text@text
  2791     02CB  3098               	movlw	high (STR_10| (0+32768))
  2792     02CC  00F2               	movwf	EUSART_Write_Text@text+1
  2793     02CD  3195  2574  3180   	fcall	_EUSART_Write_Text
  2794                           
  2795                           ;main.c: 238:                 EUSART_Write_Float(inductance_uh, 2);
  2796     02D0  0021               	movlb	1	; select bank1
  2797     02D1  085D               	movf	(main@inductance_uh+3)^(0+128),w
  2798     02D2  0020               	movlb	0	; select bank0
  2799     02D3  00D6               	movwf	EUSART_Write_Float@value+3
  2800     02D4  0021               	movlb	1	; select bank1
  2801     02D5  085C               	movf	(main@inductance_uh+2)^(0+128),w
  2802     02D6  0020               	movlb	0	; select bank0
  2803     02D7  00D5               	movwf	EUSART_Write_Float@value+2
  2804     02D8  0021               	movlb	1	; select bank1
  2805     02D9  085B               	movf	(main@inductance_uh+1)^(0+128),w
  2806     02DA  0020               	movlb	0	; select bank0
  2807     02DB  00D4               	movwf	EUSART_Write_Float@value+1
  2808     02DC  0021               	movlb	1	; select bank1
  2809     02DD  085A               	movf	main@inductance_uh^(0+128),w
  2810     02DE  0020               	movlb	0	; select bank0
  2811     02DF  00D3               	movwf	EUSART_Write_Float@value
  2812     02E0  3002               	movlw	2
  2813     02E1  00D7               	movwf	EUSART_Write_Float@precision
  2814     02E2  3000               	movlw	0
  2815     02E3  00D8               	movwf	EUSART_Write_Float@precision+1
  2816     02E4  3195  2526  3180   	fcall	_EUSART_Write_Float
  2817     02E7                     l3172:
  2818                           
  2819                           ;main.c: 239:                 EUSART_Write_Text("\n");
  2820     02E7  3076               	movlw	low ((STR_2+27)| (0+32768))
  2821     02E8  00F1               	movwf	EUSART_Write_Text@text
  2822     02E9  3098               	movlw	high ((STR_2+27)| (0+32768))
  2823     02EA  00F2               	movwf	EUSART_Write_Text@text+1
  2824     02EB  3195  2574  3180   	fcall	_EUSART_Write_Text
  2825     02EE  286E               	goto	l3126
  2826     02EF                     l3174:
  2827                           
  2828                           ;main.c: 243:             EUSART_Write_Text("Error: Frequency too low\n");
  2829     02EF  3078               	movlw	low (STR_12| (0+32768))
  2830     02F0  00F1               	movwf	EUSART_Write_Text@text
  2831     02F1  3098               	movlw	high (STR_12| (0+32768))
  2832     02F2  00F2               	movwf	EUSART_Write_Text@text+1
  2833     02F3  3195  2574  3180   	fcall	_EUSART_Write_Text
  2834     02F6  286E               	goto	l3126
  2835     02F7  3180  281A         	ljmp	start
  2836     02F9                     __end_of_main:
  2837                           
  2838                           	psect	text1
  2839     174D                     __ptext1:	
  2840 ;; *************** function _initMain *****************
  2841 ;; Defined at:
  2842 ;;		line 49 in file "main.c"
  2843 ;; Parameters:    Size  Location     Type
  2844 ;;		None
  2845 ;; Auto vars:     Size  Location     Type
  2846 ;;		None
  2847 ;; Return value:  Size  Location     Type
  2848 ;;                  1    wreg      void 
  2849 ;; Registers used:
  2850 ;;		wreg, status,2, status,0, pclath, cstack
  2851 ;; Tracked objects:
  2852 ;;		On entry : 0/0
  2853 ;;		On exit  : 0/0
  2854 ;;		Unchanged: 0/0
  2855 ;; Data sizes:     COMMON   BANK0   BANK1   BANK2   BANK3   BANK4   BANK5   BANK6   BANK7   BANK8   BANK9  BANK10  BANK1
      +1  BANK12  BANK13  BANK14  BANK15  BANK16  BANK17  BANK18  BANK19  BANK20  BANK21  BANK22  BANK23  BANK24  BANK25
  2856 ;;      Params:         0       0       0       0       0       0       0       0       0       0       0       0       
      +0       0       0       0       0       0       0       0       0       0       0       0       0       0       0
  2857 ;;      Locals:         0       0       0       0       0       0       0       0       0       0       0       0       
      +0       0       0       0       0       0       0       0       0       0       0       0       0       0       0
  2858 ;;      Temps:          1       0       0       0       0       0       0       0       0       0       0       0       
      +0       0       0       0       0       0       0       0       0       0       0       0       0       0       0
  2859 ;;      Totals:         1       0       0       0       0       0       0       0       0       0       0       0       
      +0       0       0       0       0       0       0       0       0       0       0       0       0       0       0
  2860 ;;Total ram usage:        1 bytes
  2861 ;; Hardware stack levels used: 1
  2862 ;; Hardware stack levels required when called: 3
  2863 ;; This function calls:
  2864 ;;		_EUSART_Initialize
  2865 ;;		_internal_32
  2866 ;; This function is called by:
  2867 ;;		_main
  2868 ;; This function uses a non-reentrant model
  2869 ;;
  2870                           
  2871     174D                     _initMain:	
  2872                           ;psect for function _initMain
  2873                           
  2874     174D                     l2994:	
  2875                           ;incstack = 0
  2876                           ; Regs used in _initMain: [wreg+status,2+status,0+pclath+cstack]
  2877                           
  2878                           
  2879                           ;main.c: 52:     internal_32();
  2880     174D  3195  2508  3197   	fcall	_internal_32
  2881     1750                     l2996:
  2882                           
  2883                           ;main.c: 55:     _delay((unsigned long)((10)*(32000000/4000.0)));
  2884     1750  3068               	movlw	104
  2885     1751  00FB               	movwf	??_initMain
  2886     1752  30E4               	movlw	228
  2887     1753                     u4207:
  2888     1753  0B89               	decfsz	9,f
  2889     1754  2F53               	goto	u4207
  2890     1755  0BFB               	decfsz	??_initMain,f
  2891     1756  2F53               	goto	u4207
  2892     1757  3200               	nop2
  2893     1758                     l2998:
  2894                           
  2895                           ;main.c: 60:     PPSLOCK = 0x55;
  2896     1758  3055               	movlw	85
  2897     1759  003C               	movlb	28	; select bank28
  2898     175A  008F               	movwf	15	;volsfr
  2899     175B                     l3000:
  2900                           
  2901                           ;main.c: 61:     PPSLOCK = 0xAA;
  2902     175B  30AA               	movlw	170
  2903     175C  008F               	movwf	15	;volsfr
  2904     175D                     l3002:
  2905                           
  2906                           ;main.c: 62:     PPSLOCKbits.PPSLOCKED = 0x00;
  2907     175D  100F               	bcf	15,0	;volsfr
  2908     175E                     l3004:
  2909                           
  2910                           ;main.c: 64:     RB2PPSbits.RB2PPS = 0x14;
  2911     175E  003D               	movlb	29	; select bank29
  2912     175F  081A               	movf	26,w	;volatile
  2913     1760  39E0               	andlw	-32
  2914     1761  3814               	iorlw	20
  2915     1762  009A               	movwf	26	;volatile
  2916     1763                     l3006:
  2917                           
  2918                           ;main.c: 65:     RXPPSbits.RXPPS = 0x0B;
  2919     1763  003C               	movlb	28	; select bank28
  2920     1764  0824               	movf	36,w	;volatile
  2921     1765  39E0               	andlw	-32
  2922     1766  380B               	iorlw	11
  2923     1767  00A4               	movwf	36	;volatile
  2924     1768                     l3008:
  2925                           
  2926                           ;main.c: 67:     T0CKIPPSbits.T0CKIPPS = 0x08;
  2927     1768  0811               	movf	17,w	;volatile
  2928     1769  39E0               	andlw	-32
  2929     176A  3808               	iorlw	8
  2930     176B  0091               	movwf	17	;volatile
  2931     176C                     l3010:
  2932                           
  2933                           ;main.c: 69:     PPSLOCK = 0x55;
  2934     176C  3055               	movlw	85
  2935     176D  008F               	movwf	15	;volsfr
  2936     176E                     l3012:
  2937                           
  2938                           ;main.c: 70:     PPSLOCK = 0xAA;
  2939     176E  30AA               	movlw	170
  2940     176F  008F               	movwf	15	;volsfr
  2941     1770                     l3014:
  2942                           
  2943                           ;main.c: 71:     PPSLOCKbits.PPSLOCKED = 0x01;
  2944     1770  140F               	bsf	15,0	;volsfr
  2945     1771                     l3016:
  2946                           
  2947                           ;main.c: 73:     TRISBbits.TRISB2 = 0;
  2948     1771  0021               	movlb	1	; select bank1
  2949     1772  110D               	bcf	13,2	;volatile
  2950     1773                     l3018:
  2951                           
  2952                           ;main.c: 74:     ANSELBbits.ANSB2 = 0;
  2953     1773  0023               	movlb	3	; select bank3
  2954     1774  110D               	bcf	13,2	;volatile
  2955     1775                     l3020:
  2956                           
  2957                           ;main.c: 77:     TRISCbits.TRISC4 = 0;
  2958     1775  0021               	movlb	1	; select bank1
  2959     1776  120E               	bcf	14,4	;volatile
  2960     1777                     l3022:
  2961                           
  2962                           ;main.c: 78:     ANSELCbits.ANSC4 = 0;
  2963     1777  0023               	movlb	3	; select bank3
  2964     1778  120E               	bcf	14,4	;volatile
  2965     1779                     l3024:
  2966                           
  2967                           ;main.c: 80:     TRISCbits.TRISC6 = 1;
  2968     1779  0021               	movlb	1	; select bank1
  2969     177A  170E               	bsf	14,6	;volatile
  2970     177B                     l3026:
  2971                           
  2972                           ;main.c: 81:     ANSELCbits.ANSC6 = 0;
  2973     177B  0023               	movlb	3	; select bank3
  2974     177C  130E               	bcf	14,6	;volatile
  2975     177D                     l3028:
  2976                           
  2977                           ;main.c: 84:     TRISBbits.TRISB0 = 1;
  2978     177D  0021               	movlb	1	; select bank1
  2979     177E  140D               	bsf	13,0	;volatile
  2980     177F                     l3030:
  2981                           
  2982                           ;main.c: 85:     ANSELBbits.ANSB0 = 0;
  2983     177F  0023               	movlb	3	; select bank3
  2984     1780  100D               	bcf	13,0	;volatile
  2985     1781                     l3032:
  2986                           
  2987                           ;main.c: 88:     OPTION_REGbits.TMR0CS = 1;
  2988     1781  0021               	movlb	1	; select bank1
  2989     1782  1695               	bsf	21,5	;volatile
  2990     1783                     l3034:
  2991                           
  2992                           ;main.c: 89:     OPTION_REGbits.PSA = 0;
  2993     1783  1195               	bcf	21,3	;volatile
  2994     1784                     l3036:
  2995                           
  2996                           ;main.c: 90:     OPTION_REGbits.PS = 0b011;
  2997     1784  0815               	movf	21,w	;volatile
  2998     1785  39F8               	andlw	-8
  2999     1786  3803               	iorlw	3
  3000     1787  0095               	movwf	21	;volatile
  3001     1788                     l3038:
  3002                           
  3003                           ;main.c: 91:     TMR0 = 0;
  3004     1788  0020               	movlb	0	; select bank0
  3005     1789  0195               	clrf	21	;volatile
  3006     178A                     l3040:
  3007                           
  3008                           ;main.c: 94:     INTCONbits.TMR0IE = 1;
  3009     178A  168B               	bsf	11,5	;volatile
  3010     178B                     l3042:
  3011                           
  3012                           ;main.c: 95:     INTCONbits.TMR0IF = 0;
  3013     178B  110B               	bcf	11,2	;volatile
  3014     178C                     l3044:
  3015                           
  3016                           ;main.c: 98:     T1CON = 0b00110001;
  3017     178C  3031               	movlw	49
  3018     178D  0098               	movwf	24	;volatile
  3019     178E                     l3046:
  3020                           
  3021                           ;main.c: 99:     TMR1 = 0;
  3022     178E  0196               	clrf	22	;volatile
  3023     178F  0197               	clrf	23	;volatile
  3024     1790                     l3048:
  3025                           
  3026                           ;main.c: 100:     PIE1bits.TMR1IE = 1;
  3027     1790  0021               	movlb	1	; select bank1
  3028     1791  1411               	bsf	17,0	;volatile
  3029     1792                     l3050:
  3030                           
  3031                           ;main.c: 101:     INTCONbits.PEIE = 1;
  3032     1792  170B               	bsf	11,6	;volatile
  3033     1793                     l3052:
  3034                           
  3035                           ;main.c: 104:     INTCONbits.GIE = 1;
  3036     1793  178B               	bsf	11,7	;volatile
  3037     1794                     l3054:
  3038                           
  3039                           ;main.c: 107:     EUSART_Initialize(19200);
  3040     1794  3000               	movlw	0
  3041     1795  0020               	movlb	0	; select bank0
  3042     1796  00A9               	movwf	EUSART_Initialize@baudrate+3
  3043     1797  3000               	movlw	0
  3044     1798  00A8               	movwf	EUSART_Initialize@baudrate+2
  3045     1799  304B               	movlw	75
  3046     179A  00A7               	movwf	EUSART_Initialize@baudrate+1
  3047     179B  3000               	movlw	0
  3048     179C  00A6               	movwf	EUSART_Initialize@baudrate
  3049     179D  3196  26AA  3197   	fcall	_EUSART_Initialize
  3050     17A0                     l136:
  3051     17A0  0008               	return
  3052     17A1                     __end_of_initMain:
  3053                           
  3054                           	psect	text2
  3055     1508                     __ptext2:	
  3056 ;; *************** function _internal_32 *****************
  3057 ;; Defined at:
  3058 ;;		line 32 in file "PIC16F1719_Internal.c"
  3059 ;; Parameters:    Size  Location     Type
  3060 ;;		None
  3061 ;; Auto vars:     Size  Location     Type
  3062 ;;		None
  3063 ;; Return value:  Size  Location     Type
  3064 ;;                  1    wreg      void 
  3065 ;; Registers used:
  3066 ;;		None
  3067 ;; Tracked objects:
  3068 ;;		On entry : 0/0
  3069 ;;		On exit  : 0/0
  3070 ;;		Unchanged: 0/0
  3071 ;; Data sizes:     COMMON   BANK0   BANK1   BANK2   BANK3   BANK4   BANK5   BANK6   BANK7   BANK8   BANK9  BANK10  BANK1
      +1  BANK12  BANK13  BANK14  BANK15  BANK16  BANK17  BANK18  BANK19  BANK20  BANK21  BANK22  BANK23  BANK24  BANK25
  3072 ;;      Params:         0       0       0       0       0       0       0       0       0       0       0       0       
      +0       0       0       0       0       0       0       0       0       0       0       0       0       0       0
  3073 ;;      Locals:         0       0       0       0       0       0       0       0       0       0       0       0       
      +0       0       0       0       0       0       0       0       0       0       0       0       0       0       0
  3074 ;;      Temps:          0       0       0       0       0       0       0       0       0       0       0       0       
      +0       0       0       0       0       0       0       0       0       0       0       0       0       0       0
  3075 ;;      Totals:         0       0       0       0       0       0       0       0       0       0       0       0       
      +0       0       0       0       0       0       0       0       0       0       0       0       0       0       0
  3076 ;;Total ram usage:        0 bytes
  3077 ;; Hardware stack levels used: 1
  3078 ;; Hardware stack levels required when called: 1
  3079 ;; This function calls:
  3080 ;;		Nothing
  3081 ;; This function is called by:
  3082 ;;		_initMain
  3083 ;; This function uses a non-reentrant model
  3084 ;;
  3085                           
  3086     1508                     _internal_32:	
  3087                           ;psect for function _internal_32
  3088                           
  3089     1508                     l2844:	
  3090                           ;incstack = 0
  3091                           ; Regs used in _internal_32: []
  3092                           
  3093                           
  3094                           ;PIC16F1719_Internal.c: 34:     SCS0 = 0;
  3095     1508  0021               	movlb	1	; select bank1
  3096     1509  1019               	bcf	25,0	;volatile
  3097                           
  3098                           ;PIC16F1719_Internal.c: 35:     SCS1 = 0;
  3099     150A  1099               	bcf	25,1	;volatile
  3100                           
  3101                           ;PIC16F1719_Internal.c: 38:     IRCF0 = 0;
  3102     150B  1199               	bcf	25,3	;volatile
  3103                           
  3104                           ;PIC16F1719_Internal.c: 39:     IRCF1 = 1;
  3105     150C  1619               	bsf	25,4	;volatile
  3106                           
  3107                           ;PIC16F1719_Internal.c: 40:     IRCF2 = 1;
  3108     150D  1699               	bsf	25,5	;volatile
  3109                           
  3110                           ;PIC16F1719_Internal.c: 41:     IRCF3 = 1;
  3111     150E  1719               	bsf	25,6	;volatile
  3112                           
  3113                           ;PIC16F1719_Internal.c: 44:     SPLLEN = 1;
  3114     150F  1799               	bsf	25,7	;volatile
  3115     1510                     l193:
  3116     1510  0008               	return
  3117     1511                     __end_of_internal_32:
  3118                           
  3119                           	psect	text3
  3120     16AA                     __ptext3:	
  3121 ;; *************** function _EUSART_Initialize *****************
  3122 ;; Defined at:
  3123 ;;		line 36 in file "EUSART.c"
  3124 ;; Parameters:    Size  Location     Type
  3125 ;;  baudrate        4    6[BANK0 ] const long 
  3126 ;; Auto vars:     Size  Location     Type
  3127 ;;  x               2    9[COMMON] unsigned int 
  3128 ;; Return value:  Size  Location     Type
  3129 ;;                  1    wreg      unsigned char 
  3130 ;; Registers used:
  3131 ;;		wreg, status,2, status,0, pclath, cstack
  3132 ;; Tracked objects:
  3133 ;;		On entry : 0/0
  3134 ;;		On exit  : 0/0
  3135 ;;		Unchanged: 0/0
  3136 ;; Data sizes:     COMMON   BANK0   BANK1   BANK2   BANK3   BANK4   BANK5   BANK6   BANK7   BANK8   BANK9  BANK10  BANK1
      +1  BANK12  BANK13  BANK14  BANK15  BANK16  BANK17  BANK18  BANK19  BANK20  BANK21  BANK22  BANK23  BANK24  BANK25
  3137 ;;      Params:         0       4       0       0       0       0       0       0       0       0       0       0       
      +0       0       0       0       0       0       0       0       0       0       0       0       0       0       0
  3138 ;;      Locals:         2       0       0       0       0       0       0       0       0       0       0       0       
      +0       0       0       0       0       0       0       0       0       0       0       0       0       0       0
  3139 ;;      Temps:          0      12       0       0       0       0       0       0       0       0       0       0       
      +0       0       0       0       0       0       0       0       0       0       0       0       0       0       0
  3140 ;;      Totals:         2      16       0       0       0       0       0       0       0       0       0       0       
      +0       0       0       0       0       0       0       0       0       0       0       0       0       0       0
  3141 ;;Total ram usage:       18 bytes
  3142 ;; Hardware stack levels used: 1
  3143 ;; Hardware stack levels required when called: 2
  3144 ;; This function calls:
  3145 ;;		___aldiv
  3146 ;; This function is called by:
  3147 ;;		_initMain
  3148 ;; This function uses a non-reentrant model
  3149 ;;
  3150                           
  3151     16AA                     _EUSART_Initialize:	
  3152                           ;psect for function _EUSART_Initialize
  3153                           
  3154     16AA                     l2786:	
  3155                           ;incstack = 0
  3156                           ; Regs used in _EUSART_Initialize: [wreg+status,2+status,0+pclath+cstack]
  3157                           
  3158                           
  3159                           ;EUSART.c: 36: char EUSART_Initialize(const long int baudrate);EUSART.c: 37: {;EUSART.c:
      +                           38:     unsigned int x;;EUSART.c: 39:  x = (32000000 - baudrate*64)/(baudrate*64);
  3160     16AA  0020               	movlb	0	; select bank0
  3161     16AB  0826               	movf	EUSART_Initialize@baudrate,w
  3162     16AC  00AA               	movwf	??_EUSART_Initialize
  3163     16AD  0827               	movf	EUSART_Initialize@baudrate+1,w
  3164     16AE  00AB               	movwf	??_EUSART_Initialize+1
  3165     16AF  0828               	movf	EUSART_Initialize@baudrate+2,w
  3166     16B0  00AC               	movwf	??_EUSART_Initialize+2
  3167     16B1  0829               	movf	EUSART_Initialize@baudrate+3,w
  3168     16B2  00AD               	movwf	??_EUSART_Initialize+3
  3169     16B3  3006               	movlw	6
  3170     16B4                     u3745:
  3171     16B4  35AA               	lslf	??_EUSART_Initialize,f
  3172     16B5  0DAB               	rlf	??_EUSART_Initialize+1,f
  3173     16B6  0DAC               	rlf	??_EUSART_Initialize+2,f
  3174     16B7  0DAD               	rlf	??_EUSART_Initialize+3,f
  3175     16B8                     u3740:
  3176     16B8  0B89               	decfsz	9,f
  3177     16B9  2EB4               	goto	u3745
  3178     16BA  082D               	movf	??_EUSART_Initialize+3,w
  3179     16BB  00F3               	movwf	___aldiv@divisor+3
  3180     16BC  082C               	movf	??_EUSART_Initialize+2,w
  3181     16BD  00F2               	movwf	___aldiv@divisor+2
  3182     16BE  082B               	movf	??_EUSART_Initialize+1,w
  3183     16BF  00F1               	movwf	___aldiv@divisor+1
  3184     16C0  082A               	movf	??_EUSART_Initialize,w
  3185     16C1  00F0               	movwf	___aldiv@divisor
  3186     16C2  0826               	movf	EUSART_Initialize@baudrate,w
  3187     16C3  00AE               	movwf	??_EUSART_Initialize+4
  3188     16C4  0827               	movf	EUSART_Initialize@baudrate+1,w
  3189     16C5  00AF               	movwf	??_EUSART_Initialize+5
  3190     16C6  0828               	movf	EUSART_Initialize@baudrate+2,w
  3191     16C7  00B0               	movwf	??_EUSART_Initialize+6
  3192     16C8  0829               	movf	EUSART_Initialize@baudrate+3,w
  3193     16C9  00B1               	movwf	??_EUSART_Initialize+7
  3194     16CA  3006               	movlw	6
  3195     16CB                     u3755:
  3196     16CB  35AE               	lslf	??_EUSART_Initialize+4,f
  3197     16CC  0DAF               	rlf	??_EUSART_Initialize+5,f
  3198     16CD  0DB0               	rlf	??_EUSART_Initialize+6,f
  3199     16CE  0DB1               	rlf	??_EUSART_Initialize+7,f
  3200     16CF                     u3750:
  3201     16CF  0B89               	decfsz	9,f
  3202     16D0  2ECB               	goto	u3755
  3203     16D1  3000               	movlw	0
  3204     16D2  00B2               	movwf	??_EUSART_Initialize+8
  3205     16D3  3048               	movlw	72
  3206     16D4  00B3               	movwf	??_EUSART_Initialize+9
  3207     16D5  30E8               	movlw	232
  3208     16D6  00B4               	movwf	??_EUSART_Initialize+10
  3209     16D7  3001               	movlw	1
  3210     16D8  00B5               	movwf	??_EUSART_Initialize+11
  3211     16D9  082E               	movf	??_EUSART_Initialize+4,w
  3212     16DA  02B2               	subwf	??_EUSART_Initialize+8,f
  3213     16DB  082F               	movf	??_EUSART_Initialize+5,w
  3214     16DC  3BB3               	subwfb	??_EUSART_Initialize+9,f
  3215     16DD  0830               	movf	??_EUSART_Initialize+6,w
  3216     16DE  3BB4               	subwfb	??_EUSART_Initialize+10,f
  3217     16DF  0831               	movf	??_EUSART_Initialize+7,w
  3218     16E0  3BB5               	subwfb	??_EUSART_Initialize+11,f
  3219     16E1  0835               	movf	??_EUSART_Initialize+11,w
  3220     16E2  00F7               	movwf	___aldiv@dividend+3
  3221     16E3  0834               	movf	??_EUSART_Initialize+10,w
  3222     16E4  00F6               	movwf	___aldiv@dividend+2
  3223     16E5  0833               	movf	??_EUSART_Initialize+9,w
  3224     16E6  00F5               	movwf	___aldiv@dividend+1
  3225     16E7  0832               	movf	??_EUSART_Initialize+8,w
  3226     16E8  00F4               	movwf	___aldiv@dividend
  3227     16E9  3189  2156  3196   	fcall	___aldiv
  3228     16EC  0871               	movf	?___aldiv+1,w
  3229     16ED  00FA               	movwf	EUSART_Initialize@x+1
  3230     16EE  0870               	movf	?___aldiv,w
  3231     16EF  00F9               	movwf	EUSART_Initialize@x
  3232     16F0                     l2788:
  3233                           
  3234                           ;EUSART.c: 41:  SPBRGL = x;
  3235     16F0  0879               	movf	EUSART_Initialize@x,w
  3236     16F1  0023               	movlb	3	; select bank3
  3237     16F2  009B               	movwf	27	;volatile
  3238     16F3                     l2790:
  3239                           
  3240                           ;EUSART.c: 42:     BRGH = 0;
  3241     16F3  111E               	bcf	30,2	;volatile
  3242     16F4                     l2792:
  3243                           
  3244                           ;EUSART.c: 43:     BRG16 = 0;
  3245     16F4  119F               	bcf	31,3	;volatile
  3246     16F5                     l2794:
  3247                           
  3248                           ;EUSART.c: 44:     SYNC = 0;
  3249     16F5  121E               	bcf	30,4	;volatile
  3250     16F6                     l2796:
  3251                           
  3252                           ;EUSART.c: 45:     SPEN = 1;
  3253     16F6  179D               	bsf	29,7	;volatile
  3254     16F7                     l2798:
  3255                           
  3256                           ;EUSART.c: 46:     CREN = 1;
  3257     16F7  161D               	bsf	29,4	;volatile
  3258     16F8                     l2800:
  3259                           
  3260                           ;EUSART.c: 47:     TXEN = 1;
  3261     16F8  169E               	bsf	30,5	;volatile
  3262     16F9                     l27:
  3263     16F9  0008               	return
  3264     16FA                     __end_of_EUSART_Initialize:
  3265                           
  3266                           	psect	text4
  3267     0956                     __ptext4:	
  3268 ;; *************** function ___aldiv *****************
  3269 ;; Defined at:
  3270 ;;		line 5 in file "C:\Program Files\Microchip\xc8\v2.46\pic\sources\c99\common\aldiv.c"
  3271 ;; Parameters:    Size  Location     Type
  3272 ;;  divisor         4    0[COMMON] long 
  3273 ;;  dividend        4    4[COMMON] long 
  3274 ;; Auto vars:     Size  Location     Type
  3275 ;;  quotient        4    2[BANK0 ] long 
  3276 ;;  sign            1    1[BANK0 ] unsigned char 
  3277 ;;  counter         1    0[BANK0 ] unsigned char 
  3278 ;; Return value:  Size  Location     Type
  3279 ;;                  4    0[COMMON] long 
  3280 ;; Registers used:
  3281 ;;		wreg, status,2, status,0
  3282 ;; Tracked objects:
  3283 ;;		On entry : 0/0
  3284 ;;		On exit  : 0/0
  3285 ;;		Unchanged: 0/0
  3286 ;; Data sizes:     COMMON   BANK0   BANK1   BANK2   BANK3   BANK4   BANK5   BANK6   BANK7   BANK8   BANK9  BANK10  BANK1
      +1  BANK12  BANK13  BANK14  BANK15  BANK16  BANK17  BANK18  BANK19  BANK20  BANK21  BANK22  BANK23  BANK24  BANK25
  3287 ;;      Params:         8       0       0       0       0       0       0       0       0       0       0       0       
      +0       0       0       0       0       0       0       0       0       0       0       0       0       0       0
  3288 ;;      Locals:         0       6       0       0       0       0       0       0       0       0       0       0       
      +0       0       0       0       0       0       0       0       0       0       0       0       0       0       0
  3289 ;;      Temps:          1       0       0       0       0       0       0       0       0       0       0       0       
      +0       0       0       0       0       0       0       0       0       0       0       0       0       0       0
  3290 ;;      Totals:         9       6       0       0       0       0       0       0       0       0       0       0       
      +0       0       0       0       0       0       0       0       0       0       0       0       0       0       0
  3291 ;;Total ram usage:       15 bytes
  3292 ;; Hardware stack levels used: 1
  3293 ;; Hardware stack levels required when called: 1
  3294 ;; This function calls:
  3295 ;;		Nothing
  3296 ;; This function is called by:
  3297 ;;		_EUSART_Initialize
  3298 ;; This function uses a non-reentrant model
  3299 ;;
  3300                           
  3301     0956                     ___aldiv:	
  3302                           ;psect for function ___aldiv
  3303                           
  3304     0956                     l2492:	
  3305                           ;incstack = 0
  3306                           ; Regs used in ___aldiv: [wreg+status,2+status,0]
  3307                           
  3308     0956  0020               	movlb	0	; select bank0
  3309     0957  01A1               	clrf	___aldiv@sign
  3310     0958                     l2494:
  3311     0958  1FF3               	btfss	___aldiv@divisor+3,7
  3312     0959  295B               	goto	u3081
  3313     095A  295C               	goto	u3080
  3314     095B                     u3081:
  3315     095B  2969               	goto	l344
  3316     095C                     u3080:
  3317     095C                     l2496:
  3318     095C  09F0               	comf	___aldiv@divisor,f
  3319     095D  09F1               	comf	___aldiv@divisor+1,f
  3320     095E  09F2               	comf	___aldiv@divisor+2,f
  3321     095F  09F3               	comf	___aldiv@divisor+3,f
  3322     0960  0AF0               	incf	___aldiv@divisor,f
  3323     0961  1903               	skipnz
  3324     0962  0AF1               	incf	___aldiv@divisor+1,f
  3325     0963  1903               	skipnz
  3326     0964  0AF2               	incf	___aldiv@divisor+2,f
  3327     0965  1903               	skipnz
  3328     0966  0AF3               	incf	___aldiv@divisor+3,f
  3329     0967  01A1               	clrf	___aldiv@sign
  3330     0968  0AA1               	incf	___aldiv@sign,f
  3331     0969                     l344:
  3332     0969  1FF7               	btfss	___aldiv@dividend+3,7
  3333     096A  296C               	goto	u3091
  3334     096B  296D               	goto	u3090
  3335     096C                     u3091:
  3336     096C  297C               	goto	l2502
  3337     096D                     u3090:
  3338     096D                     l2498:
  3339     096D  09F4               	comf	___aldiv@dividend,f
  3340     096E  09F5               	comf	___aldiv@dividend+1,f
  3341     096F  09F6               	comf	___aldiv@dividend+2,f
  3342     0970  09F7               	comf	___aldiv@dividend+3,f
  3343     0971  0AF4               	incf	___aldiv@dividend,f
  3344     0972  1903               	skipnz
  3345     0973  0AF5               	incf	___aldiv@dividend+1,f
  3346     0974  1903               	skipnz
  3347     0975  0AF6               	incf	___aldiv@dividend+2,f
  3348     0976  1903               	skipnz
  3349     0977  0AF7               	incf	___aldiv@dividend+3,f
  3350     0978                     l2500:
  3351     0978  3001               	movlw	1
  3352     0979  00F8               	movwf	??___aldiv
  3353     097A  0878               	movf	??___aldiv,w
  3354     097B  06A1               	xorwf	___aldiv@sign,f
  3355     097C                     l2502:
  3356     097C  3000               	movlw	0
  3357     097D  00A5               	movwf	___aldiv@quotient+3
  3358     097E  3000               	movlw	0
  3359     097F  00A4               	movwf	___aldiv@quotient+2
  3360     0980  3000               	movlw	0
  3361     0981  00A3               	movwf	___aldiv@quotient+1
  3362     0982  3000               	movlw	0
  3363     0983  00A2               	movwf	___aldiv@quotient
  3364     0984                     l2504:
  3365     0984  0873               	movf	___aldiv@divisor+3,w
  3366     0985  0472               	iorwf	___aldiv@divisor+2,w
  3367     0986  0471               	iorwf	___aldiv@divisor+1,w
  3368     0987  0470               	iorwf	___aldiv@divisor,w
  3369     0988  1903               	skipnz
  3370     0989  298B               	goto	u3101
  3371     098A  298C               	goto	u3100
  3372     098B                     u3101:
  3373     098B  29CD               	goto	l2524
  3374     098C                     u3100:
  3375     098C                     l2506:
  3376     098C  01A0               	clrf	___aldiv@counter
  3377     098D  0AA0               	incf	___aldiv@counter,f
  3378     098E  299A               	goto	l2510
  3379     098F                     l2508:
  3380     098F  3001               	movlw	1
  3381     0990                     u3115:
  3382     0990  35F0               	lslf	___aldiv@divisor,f
  3383     0991  0DF1               	rlf	___aldiv@divisor+1,f
  3384     0992  0DF2               	rlf	___aldiv@divisor+2,f
  3385     0993  0DF3               	rlf	___aldiv@divisor+3,f
  3386     0994  0B89               	decfsz	9,f
  3387     0995  2990               	goto	u3115
  3388     0996  3001               	movlw	1
  3389     0997  00F8               	movwf	??___aldiv
  3390     0998  0878               	movf	??___aldiv,w
  3391     0999  07A0               	addwf	___aldiv@counter,f
  3392     099A                     l2510:
  3393     099A  1FF3               	btfss	___aldiv@divisor+3,7
  3394     099B  299D               	goto	u3121
  3395     099C  299E               	goto	u3120
  3396     099D                     u3121:
  3397     099D  298F               	goto	l2508
  3398     099E                     u3120:
  3399     099E                     l2512:
  3400     099E  3001               	movlw	1
  3401     099F                     u3135:
  3402     099F  35A2               	lslf	___aldiv@quotient,f
  3403     09A0  0DA3               	rlf	___aldiv@quotient+1,f
  3404     09A1  0DA4               	rlf	___aldiv@quotient+2,f
  3405     09A2  0DA5               	rlf	___aldiv@quotient+3,f
  3406     09A3  0B89               	decfsz	9,f
  3407     09A4  299F               	goto	u3135
  3408     09A5                     l2514:
  3409     09A5  0873               	movf	___aldiv@divisor+3,w
  3410     09A6  0277               	subwf	___aldiv@dividend+3,w
  3411     09A7  1D03               	skipz
  3412     09A8  29B3               	goto	u3145
  3413     09A9  0872               	movf	___aldiv@divisor+2,w
  3414     09AA  0276               	subwf	___aldiv@dividend+2,w
  3415     09AB  1D03               	skipz
  3416     09AC  29B3               	goto	u3145
  3417     09AD  0871               	movf	___aldiv@divisor+1,w
  3418     09AE  0275               	subwf	___aldiv@dividend+1,w
  3419     09AF  1D03               	skipz
  3420     09B0  29B3               	goto	u3145
  3421     09B1  0870               	movf	___aldiv@divisor,w
  3422     09B2  0274               	subwf	___aldiv@dividend,w
  3423     09B3                     u3145:
  3424     09B3  1C03               	skipc
  3425     09B4  29B6               	goto	u3141
  3426     09B5  29B7               	goto	u3140
  3427     09B6                     u3141:
  3428     09B6  29C0               	goto	l2520
  3429     09B7                     u3140:
  3430     09B7                     l2516:
  3431     09B7  0870               	movf	___aldiv@divisor,w
  3432     09B8  02F4               	subwf	___aldiv@dividend,f
  3433     09B9  0871               	movf	___aldiv@divisor+1,w
  3434     09BA  3BF5               	subwfb	___aldiv@dividend+1,f
  3435     09BB  0872               	movf	___aldiv@divisor+2,w
  3436     09BC  3BF6               	subwfb	___aldiv@dividend+2,f
  3437     09BD  0873               	movf	___aldiv@divisor+3,w
  3438     09BE  3BF7               	subwfb	___aldiv@dividend+3,f
  3439     09BF                     l2518:
  3440     09BF  1422               	bsf	___aldiv@quotient,0
  3441     09C0                     l2520:
  3442     09C0  3001               	movlw	1
  3443     09C1                     u3155:
  3444     09C1  36F3               	lsrf	___aldiv@divisor+3,f
  3445     09C2  0CF2               	rrf	___aldiv@divisor+2,f
  3446     09C3  0CF1               	rrf	___aldiv@divisor+1,f
  3447     09C4  0CF0               	rrf	___aldiv@divisor,f
  3448     09C5  0B89               	decfsz	9,f
  3449     09C6  29C1               	goto	u3155
  3450     09C7                     l2522:
  3451     09C7  3001               	movlw	1
  3452     09C8  02A0               	subwf	___aldiv@counter,f
  3453     09C9  1D03               	btfss	3,2
  3454     09CA  29CC               	goto	u3161
  3455     09CB  29CD               	goto	u3160
  3456     09CC                     u3161:
  3457     09CC  299E               	goto	l2512
  3458     09CD                     u3160:
  3459     09CD                     l2524:
  3460     09CD  0821               	movf	___aldiv@sign,w
  3461     09CE  1903               	btfsc	3,2
  3462     09CF  29D1               	goto	u3171
  3463     09D0  29D2               	goto	u3170
  3464     09D1                     u3171:
  3465     09D1  29DD               	goto	l2528
  3466     09D2                     u3170:
  3467     09D2                     l2526:
  3468     09D2  09A2               	comf	___aldiv@quotient,f
  3469     09D3  09A3               	comf	___aldiv@quotient+1,f
  3470     09D4  09A4               	comf	___aldiv@quotient+2,f
  3471     09D5  09A5               	comf	___aldiv@quotient+3,f
  3472     09D6  0AA2               	incf	___aldiv@quotient,f
  3473     09D7  1903               	skipnz
  3474     09D8  0AA3               	incf	___aldiv@quotient+1,f
  3475     09D9  1903               	skipnz
  3476     09DA  0AA4               	incf	___aldiv@quotient+2,f
  3477     09DB  1903               	skipnz
  3478     09DC  0AA5               	incf	___aldiv@quotient+3,f
  3479     09DD                     l2528:
  3480     09DD  0825               	movf	___aldiv@quotient+3,w
  3481     09DE  00F3               	movwf	?___aldiv+3
  3482     09DF  0824               	movf	___aldiv@quotient+2,w
  3483     09E0  00F2               	movwf	?___aldiv+2
  3484     09E1  0823               	movf	___aldiv@quotient+1,w
  3485     09E2  00F1               	movwf	?___aldiv+1
  3486     09E3  0822               	movf	___aldiv@quotient,w
  3487     09E4  00F0               	movwf	?___aldiv
  3488     09E5                     l354:
  3489     09E5  0008               	return
  3490     09E6                     __end_of___aldiv:
  3491                           
  3492                           	psect	text5
  3493     0E49                     __ptext5:	
  3494 ;; *************** function _calibrate *****************
  3495 ;; Defined at:
  3496 ;;		line 138 in file "main.c"
  3497 ;; Parameters:    Size  Location     Type
  3498 ;;		None
  3499 ;; Auto vars:     Size  Location     Type
  3500 ;;  inductance_h    4    8[BANK1 ] float 
  3501 ;;  precomputed_    4    4[BANK1 ] float 
  3502 ;;  capacitance     4    0[BANK1 ] float 
  3503 ;;  frequency       4   18[BANK1 ] float 
  3504 ;;  count_end       2   24[BANK1 ] unsigned short 
  3505 ;;  count_start     2   22[BANK1 ] unsigned short 
  3506 ;;  total_counts    2   16[BANK1 ] unsigned short 
  3507 ;; Return value:  Size  Location     Type
  3508 ;;                  1    wreg      void 
  3509 ;; Registers used:
  3510 ;;		wreg, fsr0l, fsr0h, fsr1l, fsr1h, status,2, status,0, pclath, cstack
  3511 ;; Tracked objects:
  3512 ;;		On entry : 0/0
  3513 ;;		On exit  : 0/0
  3514 ;;		Unchanged: 0/0
  3515 ;; Data sizes:     COMMON   BANK0   BANK1   BANK2   BANK3   BANK4   BANK5   BANK6   BANK7   BANK8   BANK9  BANK10  BANK1
      +1  BANK12  BANK13  BANK14  BANK15  BANK16  BANK17  BANK18  BANK19  BANK20  BANK21  BANK22  BANK23  BANK24  BANK25
  3516 ;;      Params:         0       0       0       0       0       0       0       0       0       0       0       0       
      +0       0       0       0       0       0       0       0       0       0       0       0       0       0       0
  3517 ;;      Locals:         0       0      26       0       0       0       0       0       0       0       0       0       
      +0       0       0       0       0       0       0       0       0       0       0       0       0       0       0
  3518 ;;      Temps:          0       4       0       0       0       0       0       0       0       0       0       0       
      +0       0       0       0       0       0       0       0       0       0       0       0       0       0       0
  3519 ;;      Totals:         0       4      26       0       0       0       0       0       0       0       0       0       
      +0       0       0       0       0       0       0       0       0       0       0       0       0       0       0
  3520 ;;Total ram usage:       30 bytes
  3521 ;; Hardware stack levels used: 1
  3522 ;; Hardware stack levels required when called: 7
  3523 ;; This function calls:
  3524 ;;		_EUSART_Write_Text
  3525 ;;		_EUSART_Write_Unsigned_Integer
  3526 ;;		_ReadTimer0WithOverflows
  3527 ;;		___fldiv
  3528 ;;		___flge
  3529 ;;		___flmul
  3530 ;;		___fltol
  3531 ;;		___xxtofl
  3532 ;; This function is called by:
  3533 ;;		_main
  3534 ;; This function uses a non-reentrant model
  3535 ;;
  3536                           
  3537     0E49                     _calibrate:	
  3538                           ;psect for function _calibrate
  3539                           
  3540     0E49                     l3056:	
  3541                           ;incstack = 0
  3542                           ; Regs used in _calibrate: [wreg-fsr1h+status,2+status,0+pclath+cstack]
  3543                           
  3544                           
  3545                           ;main.c: 139:     EUSART_Write_Text("Calibration mode started...\n");
  3546     0E49  305B               	movlw	low (STR_2| (0+32768))
  3547     0E4A  00F1               	movwf	EUSART_Write_Text@text
  3548     0E4B  3098               	movlw	high (STR_2| (0+32768))
  3549     0E4C  00F2               	movwf	EUSART_Write_Text@text+1
  3550     0E4D  3195  2574  318E   	fcall	_EUSART_Write_Text
  3551     0E50                     l3058:
  3552                           
  3553                           ;main.c: 140:     _delay((unsigned long)((500)*(32000000/4000.0)));
  3554     0E50  3015               	movlw	21
  3555     0E51  0020               	movlb	0	; select bank0
  3556     0E52  00E2               	movwf	??_calibrate+1
  3557     0E53  304B               	movlw	75
  3558     0E54  00E1               	movwf	??_calibrate
  3559     0E55  30BE               	movlw	190
  3560     0E56                     u4217:
  3561     0E56  0B89               	decfsz	9,f
  3562     0E57  2E56               	goto	u4217
  3563     0E58  0BE1               	decfsz	??_calibrate,f
  3564     0E59  2E56               	goto	u4217
  3565     0E5A  0BE2               	decfsz	??_calibrate+1,f
  3566     0E5B  2E56               	goto	u4217
  3567     0E5C  0000               	nop
  3568     0E5D                     l3060:
  3569                           
  3570                           ;main.c: 143:     uint16_t count_start = ReadTimer0WithOverflows();
  3571     0E5D  3187  27EA  318E   	fcall	_ReadTimer0WithOverflows
  3572     0E60  0871               	movf	?_ReadTimer0WithOverflows+1,w
  3573     0E61  0021               	movlb	1	; select bank1
  3574     0E62  00B7               	movwf	(calibrate@count_start+1)^(0+128)
  3575     0E63  0870               	movf	?_ReadTimer0WithOverflows,w
  3576     0E64  00B6               	movwf	calibrate@count_start^(0+128)
  3577     0E65                     l3062:
  3578                           
  3579                           ;main.c: 144:     _delay((unsigned long)((1000)*(32000000/4000.0)));
  3580     0E65  3029               	movlw	41
  3581     0E66  0020               	movlb	0	; select bank0
  3582     0E67  00E2               	movwf	??_calibrate+1
  3583     0E68  3096               	movlw	150
  3584     0E69  00E1               	movwf	??_calibrate
  3585     0E6A  307F               	movlw	127
  3586     0E6B                     u4227:
  3587     0E6B  0B89               	decfsz	9,f
  3588     0E6C  2E6B               	goto	u4227
  3589     0E6D  0BE1               	decfsz	??_calibrate,f
  3590     0E6E  2E6B               	goto	u4227
  3591     0E6F  0BE2               	decfsz	??_calibrate+1,f
  3592     0E70  2E6B               	goto	u4227
  3593     0E71                     l3064:
  3594                           
  3595                           ;main.c: 145:     uint16_t count_end = ReadTimer0WithOverflows();
  3596     0E71  3187  27EA  318E   	fcall	_ReadTimer0WithOverflows
  3597     0E74  0871               	movf	?_ReadTimer0WithOverflows+1,w
  3598     0E75  0021               	movlb	1	; select bank1
  3599     0E76  00B9               	movwf	(calibrate@count_end+1)^(0+128)
  3600     0E77  0870               	movf	?_ReadTimer0WithOverflows,w
  3601     0E78  00B8               	movwf	calibrate@count_end^(0+128)
  3602     0E79                     l3066:
  3603                           
  3604                           ;main.c: 147:     uint16_t total_counts = (count_end >= count_start)
  3605     0E79  0837               	movf	(calibrate@count_start+1)^(0+128),w
  3606     0E7A  0239               	subwf	(calibrate@count_end+1)^(0+128),w
  3607     0E7B  1D03               	skipz
  3608     0E7C  2E7F               	goto	u4075
  3609     0E7D  0836               	movf	calibrate@count_start^(0+128),w
  3610     0E7E  0238               	subwf	calibrate@count_end^(0+128),w
  3611     0E7F                     u4075:
  3612     0E7F  1803               	skipnc
  3613     0E80  2E82               	goto	u4071
  3614     0E81  2E83               	goto	u4070
  3615     0E82                     u4071:
  3616     0E82  2E9D               	goto	l3070
  3617     0E83                     u4070:
  3618     0E83                     l3068:
  3619     0E83  0862               	movf	_tmr0_overflows^(0+128),w	;volatile
  3620     0E84  0020               	movlb	0	; select bank0
  3621     0E85  00E2               	movwf	??_calibrate+1
  3622     0E86  01E1               	clrf	??_calibrate
  3623     0E87  0021               	movlb	1	; select bank1
  3624     0E88  0836               	movf	calibrate@count_start^(0+128),w
  3625     0E89  0020               	movlb	0	; select bank0
  3626     0E8A  0261               	subwf	??_calibrate,w
  3627     0E8B  00E3               	movwf	??_calibrate+2
  3628     0E8C  0021               	movlb	1	; select bank1
  3629     0E8D  0837               	movf	(calibrate@count_start+1)^(0+128),w
  3630     0E8E  0020               	movlb	0	; select bank0
  3631     0E8F  3B62               	subwfb	??_calibrate+1,w
  3632     0E90  00E4               	movwf	??_calibrate+3
  3633     0E91  0021               	movlb	1	; select bank1
  3634     0E92  0838               	movf	calibrate@count_end^(0+128),w
  3635     0E93  0020               	movlb	0	; select bank0
  3636     0E94  0763               	addwf	??_calibrate+2,w
  3637     0E95  0021               	movlb	1	; select bank1
  3638     0E96  00B0               	movwf	calibrate@total_counts^(0+128)
  3639     0E97  0839               	movf	(calibrate@count_end+1)^(0+128),w
  3640     0E98  0020               	movlb	0	; select bank0
  3641     0E99  3D64               	addwfc	??_calibrate+3,w
  3642     0E9A  0021               	movlb	1	; select bank1
  3643     0E9B  00B1               	movwf	(calibrate@total_counts+1)^(0+128)
  3644     0E9C  2EA3               	goto	l3072
  3645     0E9D                     l3070:
  3646     0E9D  0836               	movf	calibrate@count_start^(0+128),w
  3647     0E9E  0238               	subwf	calibrate@count_end^(0+128),w
  3648     0E9F  00B0               	movwf	calibrate@total_counts^(0+128)
  3649     0EA0  0837               	movf	(calibrate@count_start+1)^(0+128),w
  3650     0EA1  3B39               	subwfb	(calibrate@count_end+1)^(0+128),w
  3651     0EA2  00B1               	movwf	(calibrate@total_counts+1)^(0+128)
  3652     0EA3                     l3072:
  3653                           
  3654                           ;main.c: 150:     tmr0_overflows = 0;
  3655     0EA3  01E2               	clrf	_tmr0_overflows^(0+128)	;volatile
  3656     0EA4  01E3               	clrf	(_tmr0_overflows+1)^(0+128)	;volatile
  3657     0EA5                     l3074:
  3658                           
  3659                           ;main.c: 152:     float frequency = ((float)total_counts * 16) / 1.0;
  3660     0EA5  303F               	movlw	63
  3661     0EA6  0020               	movlb	0	; select bank0
  3662     0EA7  00BD               	movwf	___fldiv@a+3
  3663     0EA8  3080               	movlw	128
  3664     0EA9  00BC               	movwf	___fldiv@a+2
  3665     0EAA  3000               	movlw	0
  3666     0EAB  00BB               	movwf	___fldiv@a+1
  3667     0EAC  3000               	movlw	0
  3668     0EAD  00BA               	movwf	___fldiv@a
  3669     0EAE  3041               	movlw	65
  3670     0EAF  00A3               	movwf	___flmul@b+3
  3671     0EB0  3080               	movlw	128
  3672     0EB1  00A2               	movwf	___flmul@b+2
  3673     0EB2  3000               	movlw	0
  3674     0EB3  00A1               	movwf	___flmul@b+1
  3675     0EB4  3000               	movlw	0
  3676     0EB5  00A0               	movwf	___flmul@b
  3677     0EB6  0021               	movlb	1	; select bank1
  3678     0EB7  0830               	movf	calibrate@total_counts^(0+128),w
  3679     0EB8  00F0               	movwf	___xxtofl@val
  3680     0EB9  0831               	movf	(calibrate@total_counts+1)^(0+128),w
  3681     0EBA  00F1               	movwf	___xxtofl@val+1
  3682     0EBB  01F2               	clrf	___xxtofl@val+2
  3683     0EBC  01F3               	clrf	___xxtofl@val+3
  3684     0EBD  3000               	movlw	0
  3685     0EBE  3187  2740  318E   	fcall	___xxtofl
  3686     0EC1  0873               	movf	?___xxtofl+3,w
  3687     0EC2  0020               	movlb	0	; select bank0
  3688     0EC3  00A7               	movwf	___flmul@a+3
  3689     0EC4  0872               	movf	?___xxtofl+2,w
  3690     0EC5  00A6               	movwf	___flmul@a+2
  3691     0EC6  0871               	movf	?___xxtofl+1,w
  3692     0EC7  00A5               	movwf	___flmul@a+1
  3693     0EC8  0870               	movf	?___xxtofl,w
  3694     0EC9  00A4               	movwf	___flmul@a
  3695     0ECA  3182  22F9  318E   	fcall	___flmul
  3696     0ECD  0020               	movlb	0	; select bank0
  3697     0ECE  0823               	movf	?___flmul+3,w
  3698     0ECF  00C1               	movwf	___fldiv@b+3
  3699     0ED0  0822               	movf	?___flmul+2,w
  3700     0ED1  00C0               	movwf	___fldiv@b+2
  3701     0ED2  0821               	movf	?___flmul+1,w
  3702     0ED3  00BF               	movwf	___fldiv@b+1
  3703     0ED4  0820               	movf	?___flmul,w
  3704     0ED5  00BE               	movwf	___fldiv@b
  3705     0ED6  318C  249F  318E   	fcall	___fldiv
  3706     0ED9  0020               	movlb	0	; select bank0
  3707     0EDA  083D               	movf	?___fldiv+3,w
  3708     0EDB  0021               	movlb	1	; select bank1
  3709     0EDC  00B5               	movwf	(calibrate@frequency+3)^(0+128)
  3710     0EDD  0020               	movlb	0	; select bank0
  3711     0EDE  083C               	movf	?___fldiv+2,w
  3712     0EDF  0021               	movlb	1	; select bank1
  3713     0EE0  00B4               	movwf	(calibrate@frequency+2)^(0+128)
  3714     0EE1  0020               	movlb	0	; select bank0
  3715     0EE2  083B               	movf	?___fldiv+1,w
  3716     0EE3  0021               	movlb	1	; select bank1
  3717     0EE4  00B3               	movwf	(calibrate@frequency+1)^(0+128)
  3718     0EE5  0020               	movlb	0	; select bank0
  3719     0EE6  083A               	movf	?___fldiv,w
  3720     0EE7  0021               	movlb	1	; select bank1
  3721     0EE8  00B2               	movwf	calibrate@frequency^(0+128)
  3722     0EE9                     l3076:
  3723                           
  3724                           ;main.c: 154:     if (frequency > 0) {
  3725     0EE9  3000               	movlw	0
  3726     0EEA  00F3               	movwf	___flge@ff1+3
  3727     0EEB  3000               	movlw	0
  3728     0EEC  00F2               	movwf	___flge@ff1+2
  3729     0EED  3000               	movlw	0
  3730     0EEE  00F1               	movwf	___flge@ff1+1
  3731     0EEF  3000               	movlw	0
  3732     0EF0  00F0               	movwf	___flge@ff1
  3733     0EF1  0835               	movf	(calibrate@frequency+3)^(0+128),w
  3734     0EF2  00F7               	movwf	___flge@ff2+3
  3735     0EF3  0834               	movf	(calibrate@frequency+2)^(0+128),w
  3736     0EF4  00F6               	movwf	___flge@ff2+2
  3737     0EF5  0833               	movf	(calibrate@frequency+1)^(0+128),w
  3738     0EF6  00F5               	movwf	___flge@ff2+1
  3739     0EF7  0832               	movf	calibrate@frequency^(0+128),w
  3740     0EF8  00F4               	movwf	___flge@ff2
  3741     0EF9  3188  20CC  318E   	fcall	___flge
  3742     0EFC  1803               	btfsc	3,0
  3743     0EFD  2EFF               	goto	u4081
  3744     0EFE  2F00               	goto	u4080
  3745     0EFF                     u4081:
  3746     0EFF  2FF8               	goto	l3094
  3747     0F00                     u4080:
  3748     0F00                     l3078:
  3749                           
  3750                           ;main.c: 155:         float capacitance = 100e-9;
  3751     0F00  3033               	movlw	51
  3752     0F01  0021               	movlb	1	; select bank1
  3753     0F02  00A3               	movwf	(calibrate@capacitance+3)^(0+128)
  3754     0F03  30D6               	movlw	214
  3755     0F04  00A2               	movwf	(calibrate@capacitance+2)^(0+128)
  3756     0F05  30BF               	movlw	191
  3757     0F06  00A1               	movwf	(calibrate@capacitance+1)^(0+128)
  3758     0F07  3095               	movlw	149
  3759     0F08  00A0               	movwf	calibrate@capacitance^(0+128)
  3760     0F09                     l3080:
  3761                           
  3762                           ;main.c: 156:         float precomputed_constant = 4 * 3.14159 * 3.14159 * capacitance;
  3763     0F09  3042               	movlw	66
  3764     0F0A  0020               	movlb	0	; select bank0
  3765     0F0B  00A3               	movwf	___flmul@b+3
  3766     0F0C  301D               	movlw	29
  3767     0F0D  00A2               	movwf	___flmul@b+2
  3768     0F0E  30E9               	movlw	233
  3769     0F0F  00A1               	movwf	___flmul@b+1
  3770     0F10  30D5               	movlw	213
  3771     0F11  00A0               	movwf	___flmul@b
  3772     0F12  0021               	movlb	1	; select bank1
  3773     0F13  0823               	movf	(calibrate@capacitance+3)^(0+128),w
  3774     0F14  0020               	movlb	0	; select bank0
  3775     0F15  00A7               	movwf	___flmul@a+3
  3776     0F16  0021               	movlb	1	; select bank1
  3777     0F17  0822               	movf	(calibrate@capacitance+2)^(0+128),w
  3778     0F18  0020               	movlb	0	; select bank0
  3779     0F19  00A6               	movwf	___flmul@a+2
  3780     0F1A  0021               	movlb	1	; select bank1
  3781     0F1B  0821               	movf	(calibrate@capacitance+1)^(0+128),w
  3782     0F1C  0020               	movlb	0	; select bank0
  3783     0F1D  00A5               	movwf	___flmul@a+1
  3784     0F1E  0021               	movlb	1	; select bank1
  3785     0F1F  0820               	movf	calibrate@capacitance^(0+128),w
  3786     0F20  0020               	movlb	0	; select bank0
  3787     0F21  00A4               	movwf	___flmul@a
  3788     0F22  3182  22F9  318E   	fcall	___flmul
  3789     0F25  0020               	movlb	0	; select bank0
  3790     0F26  0823               	movf	?___flmul+3,w
  3791     0F27  0021               	movlb	1	; select bank1
  3792     0F28  00A7               	movwf	(calibrate@precomputed_constant+3)^(0+128)
  3793     0F29  0020               	movlb	0	; select bank0
  3794     0F2A  0822               	movf	?___flmul+2,w
  3795     0F2B  0021               	movlb	1	; select bank1
  3796     0F2C  00A6               	movwf	(calibrate@precomputed_constant+2)^(0+128)
  3797     0F2D  0020               	movlb	0	; select bank0
  3798     0F2E  0821               	movf	?___flmul+1,w
  3799     0F2F  0021               	movlb	1	; select bank1
  3800     0F30  00A5               	movwf	(calibrate@precomputed_constant+1)^(0+128)
  3801     0F31  0020               	movlb	0	; select bank0
  3802     0F32  0820               	movf	?___flmul,w
  3803     0F33  0021               	movlb	1	; select bank1
  3804     0F34  00A4               	movwf	calibrate@precomputed_constant^(0+128)
  3805     0F35                     l3082:
  3806                           
  3807                           ;main.c: 157:         float inductance_h = 1.0 / (precomputed_constant * frequency * fre
      +                          quency);
  3808     0F35  0835               	movf	(calibrate@frequency+3)^(0+128),w
  3809     0F36  0020               	movlb	0	; select bank0
  3810     0F37  00A3               	movwf	___flmul@b+3
  3811     0F38  0021               	movlb	1	; select bank1
  3812     0F39  0834               	movf	(calibrate@frequency+2)^(0+128),w
  3813     0F3A  0020               	movlb	0	; select bank0
  3814     0F3B  00A2               	movwf	___flmul@b+2
  3815     0F3C  0021               	movlb	1	; select bank1
  3816     0F3D  0833               	movf	(calibrate@frequency+1)^(0+128),w
  3817     0F3E  0020               	movlb	0	; select bank0
  3818     0F3F  00A1               	movwf	___flmul@b+1
  3819     0F40  0021               	movlb	1	; select bank1
  3820     0F41  0832               	movf	calibrate@frequency^(0+128),w
  3821     0F42  0020               	movlb	0	; select bank0
  3822     0F43  00A0               	movwf	___flmul@b
  3823     0F44  0021               	movlb	1	; select bank1
  3824     0F45  0827               	movf	(calibrate@precomputed_constant+3)^(0+128),w
  3825     0F46  0020               	movlb	0	; select bank0
  3826     0F47  00A7               	movwf	___flmul@a+3
  3827     0F48  0021               	movlb	1	; select bank1
  3828     0F49  0826               	movf	(calibrate@precomputed_constant+2)^(0+128),w
  3829     0F4A  0020               	movlb	0	; select bank0
  3830     0F4B  00A6               	movwf	___flmul@a+2
  3831     0F4C  0021               	movlb	1	; select bank1
  3832     0F4D  0825               	movf	(calibrate@precomputed_constant+1)^(0+128),w
  3833     0F4E  0020               	movlb	0	; select bank0
  3834     0F4F  00A5               	movwf	___flmul@a+1
  3835     0F50  0021               	movlb	1	; select bank1
  3836     0F51  0824               	movf	calibrate@precomputed_constant^(0+128),w
  3837     0F52  0020               	movlb	0	; select bank0
  3838     0F53  00A4               	movwf	___flmul@a
  3839     0F54  3182  22F9  318E   	fcall	___flmul
  3840     0F57  0020               	movlb	0	; select bank0
  3841     0F58  0823               	movf	?___flmul+3,w
  3842     0F59  0021               	movlb	1	; select bank1
  3843     0F5A  00AF               	movwf	(_calibrate$1141+3)^(0+128)
  3844     0F5B  0020               	movlb	0	; select bank0
  3845     0F5C  0822               	movf	?___flmul+2,w
  3846     0F5D  0021               	movlb	1	; select bank1
  3847     0F5E  00AE               	movwf	(_calibrate$1141+2)^(0+128)
  3848     0F5F  0020               	movlb	0	; select bank0
  3849     0F60  0821               	movf	?___flmul+1,w
  3850     0F61  0021               	movlb	1	; select bank1
  3851     0F62  00AD               	movwf	(_calibrate$1141+1)^(0+128)
  3852     0F63  0020               	movlb	0	; select bank0
  3853     0F64  0820               	movf	?___flmul,w
  3854     0F65  0021               	movlb	1	; select bank1
  3855     0F66  00AC               	movwf	_calibrate$1141^(0+128)
  3856     0F67                     l3084:
  3857                           
  3858                           ;main.c: 157:         float inductance_h = 1.0 / (precomputed_constant * frequency * fre
      +                          quency);
  3859     0F67  0835               	movf	(calibrate@frequency+3)^(0+128),w
  3860     0F68  0020               	movlb	0	; select bank0
  3861     0F69  00A3               	movwf	___flmul@b+3
  3862     0F6A  0021               	movlb	1	; select bank1
  3863     0F6B  0834               	movf	(calibrate@frequency+2)^(0+128),w
  3864     0F6C  0020               	movlb	0	; select bank0
  3865     0F6D  00A2               	movwf	___flmul@b+2
  3866     0F6E  0021               	movlb	1	; select bank1
  3867     0F6F  0833               	movf	(calibrate@frequency+1)^(0+128),w
  3868     0F70  0020               	movlb	0	; select bank0
  3869     0F71  00A1               	movwf	___flmul@b+1
  3870     0F72  0021               	movlb	1	; select bank1
  3871     0F73  0832               	movf	calibrate@frequency^(0+128),w
  3872     0F74  0020               	movlb	0	; select bank0
  3873     0F75  00A0               	movwf	___flmul@b
  3874     0F76  0021               	movlb	1	; select bank1
  3875     0F77  082F               	movf	(_calibrate$1141+3)^(0+128),w
  3876     0F78  0020               	movlb	0	; select bank0
  3877     0F79  00A7               	movwf	___flmul@a+3
  3878     0F7A  0021               	movlb	1	; select bank1
  3879     0F7B  082E               	movf	(_calibrate$1141+2)^(0+128),w
  3880     0F7C  0020               	movlb	0	; select bank0
  3881     0F7D  00A6               	movwf	___flmul@a+2
  3882     0F7E  0021               	movlb	1	; select bank1
  3883     0F7F  082D               	movf	(_calibrate$1141+1)^(0+128),w
  3884     0F80  0020               	movlb	0	; select bank0
  3885     0F81  00A5               	movwf	___flmul@a+1
  3886     0F82  0021               	movlb	1	; select bank1
  3887     0F83  082C               	movf	_calibrate$1141^(0+128),w
  3888     0F84  0020               	movlb	0	; select bank0
  3889     0F85  00A4               	movwf	___flmul@a
  3890     0F86  3182  22F9  318E   	fcall	___flmul
  3891     0F89  0020               	movlb	0	; select bank0
  3892     0F8A  0823               	movf	?___flmul+3,w
  3893     0F8B  00BD               	movwf	___fldiv@a+3
  3894     0F8C  0822               	movf	?___flmul+2,w
  3895     0F8D  00BC               	movwf	___fldiv@a+2
  3896     0F8E  0821               	movf	?___flmul+1,w
  3897     0F8F  00BB               	movwf	___fldiv@a+1
  3898     0F90  0820               	movf	?___flmul,w
  3899     0F91  00BA               	movwf	___fldiv@a
  3900     0F92  303F               	movlw	63
  3901     0F93  00C1               	movwf	___fldiv@b+3
  3902     0F94  3080               	movlw	128
  3903     0F95  00C0               	movwf	___fldiv@b+2
  3904     0F96  3000               	movlw	0
  3905     0F97  00BF               	movwf	___fldiv@b+1
  3906     0F98  3000               	movlw	0
  3907     0F99  00BE               	movwf	___fldiv@b
  3908     0F9A  318C  249F  318E   	fcall	___fldiv
  3909     0F9D  0020               	movlb	0	; select bank0
  3910     0F9E  083D               	movf	?___fldiv+3,w
  3911     0F9F  0021               	movlb	1	; select bank1
  3912     0FA0  00AB               	movwf	(calibrate@inductance_h+3)^(0+128)
  3913     0FA1  0020               	movlb	0	; select bank0
  3914     0FA2  083C               	movf	?___fldiv+2,w
  3915     0FA3  0021               	movlb	1	; select bank1
  3916     0FA4  00AA               	movwf	(calibrate@inductance_h+2)^(0+128)
  3917     0FA5  0020               	movlb	0	; select bank0
  3918     0FA6  083B               	movf	?___fldiv+1,w
  3919     0FA7  0021               	movlb	1	; select bank1
  3920     0FA8  00A9               	movwf	(calibrate@inductance_h+1)^(0+128)
  3921     0FA9  0020               	movlb	0	; select bank0
  3922     0FAA  083A               	movf	?___fldiv,w
  3923     0FAB  0021               	movlb	1	; select bank1
  3924     0FAC  00A8               	movwf	calibrate@inductance_h^(0+128)
  3925     0FAD                     l3086:
  3926                           
  3927                           ;main.c: 158:         calibration_value = (uint8_t)(inductance_h * 1e6);
  3928     0FAD  082B               	movf	(calibrate@inductance_h+3)^(0+128),w
  3929     0FAE  0020               	movlb	0	; select bank0
  3930     0FAF  00A7               	movwf	___flmul@a+3
  3931     0FB0  0021               	movlb	1	; select bank1
  3932     0FB1  082A               	movf	(calibrate@inductance_h+2)^(0+128),w
  3933     0FB2  0020               	movlb	0	; select bank0
  3934     0FB3  00A6               	movwf	___flmul@a+2
  3935     0FB4  0021               	movlb	1	; select bank1
  3936     0FB5  0829               	movf	(calibrate@inductance_h+1)^(0+128),w
  3937     0FB6  0020               	movlb	0	; select bank0
  3938     0FB7  00A5               	movwf	___flmul@a+1
  3939     0FB8  0021               	movlb	1	; select bank1
  3940     0FB9  0828               	movf	calibrate@inductance_h^(0+128),w
  3941     0FBA  0020               	movlb	0	; select bank0
  3942     0FBB  00A4               	movwf	___flmul@a
  3943     0FBC  3049               	movlw	73
  3944     0FBD  00A3               	movwf	___flmul@b+3
  3945     0FBE  3074               	movlw	116
  3946     0FBF  00A2               	movwf	___flmul@b+2
  3947     0FC0  3024               	movlw	36
  3948     0FC1  00A1               	movwf	___flmul@b+1
  3949     0FC2  3000               	movlw	0
  3950     0FC3  00A0               	movwf	___flmul@b
  3951     0FC4  3182  22F9  318E   	fcall	___flmul
  3952     0FC7  0020               	movlb	0	; select bank0
  3953     0FC8  0823               	movf	?___flmul+3,w
  3954     0FC9  00BD               	movwf	___fltol@f1+3
  3955     0FCA  0822               	movf	?___flmul+2,w
  3956     0FCB  00BC               	movwf	___fltol@f1+2
  3957     0FCC  0821               	movf	?___flmul+1,w
  3958     0FCD  00BB               	movwf	___fltol@f1+1
  3959     0FCE  0820               	movf	?___flmul,w
  3960     0FCF  00BA               	movwf	___fltol@f1
  3961     0FD0  3188  205B  318E   	fcall	___fltol
  3962     0FD3  0020               	movlb	0	; select bank0
  3963     0FD4  083A               	movf	?___fltol,w
  3964     0FD5  0021               	movlb	1	; select bank1
  3965     0FD6  00E4               	movwf	_calibration_value^(0+128)
  3966     0FD7                     l3088:
  3967                           
  3968                           ;main.c: 159:         EUSART_Write_Text("Calibration complete. Offset (uH): ");
  3969     0FD7  3037               	movlw	low (STR_3| (0+32768))
  3970     0FD8  00F1               	movwf	EUSART_Write_Text@text
  3971     0FD9  3098               	movlw	high (STR_3| (0+32768))
  3972     0FDA  00F2               	movwf	EUSART_Write_Text@text+1
  3973     0FDB  3195  2574  318E   	fcall	_EUSART_Write_Text
  3974     0FDE                     l3090:
  3975                           
  3976                           ;main.c: 160:         EUSART_Write_Unsigned_Integer(calibration_value);
  3977     0FDE  0021               	movlb	1	; select bank1
  3978     0FDF  0864               	movf	_calibration_value^(0+128),w
  3979     0FE0  0020               	movlb	0	; select bank0
  3980     0FE1  00E1               	movwf	??_calibrate
  3981     0FE2  01E2               	clrf	??_calibrate+1
  3982     0FE3  01E3               	clrf	??_calibrate+2
  3983     0FE4  01E4               	clrf	??_calibrate+3
  3984     0FE5  0864               	movf	??_calibrate+3,w
  3985     0FE6  00CC               	movwf	EUSART_Write_Unsigned_Integer@value_to_send+3
  3986     0FE7  0863               	movf	??_calibrate+2,w
  3987     0FE8  00CB               	movwf	EUSART_Write_Unsigned_Integer@value_to_send+2
  3988     0FE9  0862               	movf	??_calibrate+1,w
  3989     0FEA  00CA               	movwf	EUSART_Write_Unsigned_Integer@value_to_send+1
  3990     0FEB  0861               	movf	??_calibrate,w
  3991     0FEC  00C9               	movwf	EUSART_Write_Unsigned_Integer@value_to_send
  3992     0FED  3195  253F  318E   	fcall	_EUSART_Write_Unsigned_Integer
  3993     0FF0                     l3092:
  3994                           
  3995                           ;main.c: 161:         EUSART_Write_Text("\n");
  3996     0FF0  3076               	movlw	low ((STR_2+27)| (0+32768))
  3997     0FF1  00F1               	movwf	EUSART_Write_Text@text
  3998     0FF2  3098               	movlw	high ((STR_2+27)| (0+32768))
  3999     0FF3  00F2               	movwf	EUSART_Write_Text@text+1
  4000     0FF4  3195  2574  318E   	fcall	_EUSART_Write_Text
  4001                           
  4002                           ;main.c: 162:     } else {
  4003     0FF7  2FFF               	goto	l155
  4004     0FF8                     l3094:
  4005                           
  4006                           ;main.c: 163:         EUSART_Write_Text("Error: Unable to measure frequency during calib
      +                          ration\n");
  4007     0FF8  3000               	movlw	low (STR_5| (0+32768))
  4008     0FF9  00F1               	movwf	EUSART_Write_Text@text
  4009     0FFA  3098               	movlw	high (STR_5| (0+32768))
  4010     0FFB  00F2               	movwf	EUSART_Write_Text@text+1
  4011     0FFC  3195  2574  318E   	fcall	_EUSART_Write_Text
  4012     0FFF                     l155:
  4013     0FFF  0008               	return
  4014     1000                     __end_of_calibrate:
  4015                           
  4016                           	psect	text6
  4017     0C9F                     __ptext6:	
  4018 ;; *************** function ___fldiv *****************
  4019 ;; Defined at:
  4020 ;;		line 8 in file "C:\Program Files\Microchip\xc8\v2.46\pic\sources\c99\common\sprcdiv.c"
  4021 ;; Parameters:    Size  Location     Type
  4022 ;;  a               4   26[BANK0 ] void 
  4023 ;;  b               4   30[BANK0 ] void 
  4024 ;; Auto vars:     Size  Location     Type
  4025 ;;  grs             4   46[BANK0 ] unsigned long 
  4026 ;;  rem             4   39[BANK0 ] unsigned long 
  4027 ;;  new_exp         2   44[BANK0 ] short 
  4028 ;;  aexp            1   51[BANK0 ] unsigned char 
  4029 ;;  bexp            1   50[BANK0 ] unsigned char 
  4030 ;;  sign            1   43[BANK0 ] unsigned char 
  4031 ;; Return value:  Size  Location     Type
  4032 ;;                  4   26[BANK0 ] unsigned char 
  4033 ;; Registers used:
  4034 ;;		wreg, status,2, status,0
  4035 ;; Tracked objects:
  4036 ;;		On entry : 0/0
  4037 ;;		On exit  : 0/0
  4038 ;;		Unchanged: 0/0
  4039 ;; Data sizes:     COMMON   BANK0   BANK1   BANK2   BANK3   BANK4   BANK5   BANK6   BANK7   BANK8   BANK9  BANK10  BANK1
      +1  BANK12  BANK13  BANK14  BANK15  BANK16  BANK17  BANK18  BANK19  BANK20  BANK21  BANK22  BANK23  BANK24  BANK25
  4040 ;;      Params:         0       8       0       0       0       0       0       0       0       0       0       0       
      +0       0       0       0       0       0       0       0       0       0       0       0       0       0       0
  4041 ;;      Locals:         0      13       0       0       0       0       0       0       0       0       0       0       
      +0       0       0       0       0       0       0       0       0       0       0       0       0       0       0
  4042 ;;      Temps:          0       5       0       0       0       0       0       0       0       0       0       0       
      +0       0       0       0       0       0       0       0       0       0       0       0       0       0       0
  4043 ;;      Totals:         0      26       0       0       0       0       0       0       0       0       0       0       
      +0       0       0       0       0       0       0       0       0       0       0       0       0       0       0
  4044 ;;Total ram usage:       26 bytes
  4045 ;; Hardware stack levels used: 1
  4046 ;; Hardware stack levels required when called: 1
  4047 ;; This function calls:
  4048 ;;		Nothing
  4049 ;; This function is called by:
  4050 ;;		_calibrate
  4051 ;;		_main
  4052 ;; This function uses a non-reentrant model
  4053 ;;
  4054                           
  4055     0C9F                     ___fldiv:	
  4056                           ;psect for function ___fldiv
  4057                           
  4058     0C9F                     l2850:	
  4059                           ;incstack = 0
  4060                           ; Regs used in ___fldiv: [wreg+status,2+status,0]
  4061                           
  4062     0C9F  0020               	movlb	0	; select bank0
  4063     0CA0  0841               	movf	___fldiv@b+3,w
  4064     0CA1  3980               	andlw	128
  4065     0CA2  00CB               	movwf	___fldiv@sign
  4066     0CA3                     l2852:
  4067     0CA3  3541               	lslf	___fldiv@b+3,w
  4068     0CA4  00D2               	movwf	___fldiv@bexp
  4069     0CA5                     l2854:
  4070     0CA5  1FC0               	btfss	___fldiv@b+2,7
  4071     0CA6  2CA8               	goto	u3781
  4072     0CA7  2CA9               	goto	u3780
  4073     0CA8                     u3781:
  4074     0CA8  2CAA               	goto	l2858
  4075     0CA9                     u3780:
  4076     0CA9                     l2856:
  4077     0CA9  1452               	bsf	___fldiv@bexp,0
  4078     0CAA                     l2858:
  4079     0CAA  0852               	movf	___fldiv@bexp,w
  4080     0CAB  1903               	btfsc	3,2
  4081     0CAC  2CAE               	goto	u3791
  4082     0CAD  2CAF               	goto	u3790
  4083     0CAE                     u3791:
  4084     0CAE  2CBF               	goto	l2868
  4085     0CAF                     u3790:
  4086     0CAF                     l2860:
  4087     0CAF  0A52               	incf	___fldiv@bexp,w
  4088     0CB0  1D03               	btfss	3,2
  4089     0CB1  2CB3               	goto	u3801
  4090     0CB2  2CB4               	goto	u3800
  4091     0CB3                     u3801:
  4092     0CB3  2CBC               	goto	l2864
  4093     0CB4                     u3800:
  4094     0CB4                     l2862:
  4095     0CB4  3000               	movlw	0
  4096     0CB5  00C1               	movwf	___fldiv@b+3
  4097     0CB6  3000               	movlw	0
  4098     0CB7  00C0               	movwf	___fldiv@b+2
  4099     0CB8  3000               	movlw	0
  4100     0CB9  00BF               	movwf	___fldiv@b+1
  4101     0CBA  3000               	movlw	0
  4102     0CBB  00BE               	movwf	___fldiv@b
  4103     0CBC                     l2864:
  4104     0CBC  17C0               	bsf	___fldiv@b+2,7
  4105     0CBD                     l2866:
  4106     0CBD  01C1               	clrf	___fldiv@b+3
  4107     0CBE  2CC7               	goto	l2870
  4108     0CBF                     l2868:
  4109     0CBF  3000               	movlw	0
  4110     0CC0  00C1               	movwf	___fldiv@b+3
  4111     0CC1  3000               	movlw	0
  4112     0CC2  00C0               	movwf	___fldiv@b+2
  4113     0CC3  3000               	movlw	0
  4114     0CC4  00BF               	movwf	___fldiv@b+1
  4115     0CC5  3000               	movlw	0
  4116     0CC6  00BE               	movwf	___fldiv@b
  4117     0CC7                     l2870:
  4118     0CC7  083D               	movf	___fldiv@a+3,w
  4119     0CC8  3980               	andlw	128
  4120     0CC9  00C2               	movwf	??___fldiv
  4121     0CCA  0842               	movf	??___fldiv,w
  4122     0CCB  06CB               	xorwf	___fldiv@sign,f
  4123     0CCC                     l2872:
  4124     0CCC  353D               	lslf	___fldiv@a+3,w
  4125     0CCD  00D3               	movwf	___fldiv@aexp
  4126     0CCE                     l2874:
  4127     0CCE  1FBC               	btfss	___fldiv@a+2,7
  4128     0CCF  2CD1               	goto	u3811
  4129     0CD0  2CD2               	goto	u3810
  4130     0CD1                     u3811:
  4131     0CD1  2CD3               	goto	l2878
  4132     0CD2                     u3810:
  4133     0CD2                     l2876:
  4134     0CD2  1453               	bsf	___fldiv@aexp,0
  4135     0CD3                     l2878:
  4136     0CD3  0853               	movf	___fldiv@aexp,w
  4137     0CD4  1903               	btfsc	3,2
  4138     0CD5  2CD7               	goto	u3821
  4139     0CD6  2CD8               	goto	u3820
  4140     0CD7                     u3821:
  4141     0CD7  2CE8               	goto	l2888
  4142     0CD8                     u3820:
  4143     0CD8                     l2880:
  4144     0CD8  0A53               	incf	___fldiv@aexp,w
  4145     0CD9  1D03               	btfss	3,2
  4146     0CDA  2CDC               	goto	u3831
  4147     0CDB  2CDD               	goto	u3830
  4148     0CDC                     u3831:
  4149     0CDC  2CE5               	goto	l2884
  4150     0CDD                     u3830:
  4151     0CDD                     l2882:
  4152     0CDD  3000               	movlw	0
  4153     0CDE  00BD               	movwf	___fldiv@a+3
  4154     0CDF  3000               	movlw	0
  4155     0CE0  00BC               	movwf	___fldiv@a+2
  4156     0CE1  3000               	movlw	0
  4157     0CE2  00BB               	movwf	___fldiv@a+1
  4158     0CE3  3000               	movlw	0
  4159     0CE4  00BA               	movwf	___fldiv@a
  4160     0CE5                     l2884:
  4161     0CE5  17BC               	bsf	___fldiv@a+2,7
  4162     0CE6                     l2886:
  4163     0CE6  01BD               	clrf	___fldiv@a+3
  4164     0CE7  2CF0               	goto	l636
  4165     0CE8                     l2888:
  4166     0CE8  3000               	movlw	0
  4167     0CE9  00BD               	movwf	___fldiv@a+3
  4168     0CEA  3000               	movlw	0
  4169     0CEB  00BC               	movwf	___fldiv@a+2
  4170     0CEC  3000               	movlw	0
  4171     0CED  00BB               	movwf	___fldiv@a+1
  4172     0CEE  3000               	movlw	0
  4173     0CEF  00BA               	movwf	___fldiv@a
  4174     0CF0                     l636:
  4175     0CF0  083D               	movf	___fldiv@a+3,w
  4176     0CF1  043C               	iorwf	___fldiv@a+2,w
  4177     0CF2  043B               	iorwf	___fldiv@a+1,w
  4178     0CF3  043A               	iorwf	___fldiv@a,w
  4179     0CF4  1D03               	skipz
  4180     0CF5  2CF7               	goto	u3841
  4181     0CF6  2CF8               	goto	u3840
  4182     0CF7                     u3841:
  4183     0CF7  2D11               	goto	l2898
  4184     0CF8                     u3840:
  4185     0CF8                     l2890:
  4186     0CF8  3000               	movlw	0
  4187     0CF9  00C1               	movwf	___fldiv@b+3
  4188     0CFA  3000               	movlw	0
  4189     0CFB  00C0               	movwf	___fldiv@b+2
  4190     0CFC  3000               	movlw	0
  4191     0CFD  00BF               	movwf	___fldiv@b+1
  4192     0CFE  3000               	movlw	0
  4193     0CFF  00BE               	movwf	___fldiv@b
  4194     0D00  3080               	movlw	128
  4195     0D01  04C0               	iorwf	___fldiv@b+2,f
  4196     0D02  307F               	movlw	127
  4197     0D03  04C1               	iorwf	___fldiv@b+3,f
  4198     0D04                     l2892:
  4199     0D04  084B               	movf	___fldiv@sign,w
  4200     0D05  00C2               	movwf	??___fldiv
  4201     0D06  0842               	movf	??___fldiv,w
  4202     0D07  04C1               	iorwf	___fldiv@b+3,f
  4203     0D08                     l2894:
  4204     0D08  0841               	movf	___fldiv@b+3,w
  4205     0D09  00BD               	movwf	?___fldiv+3
  4206     0D0A  0840               	movf	___fldiv@b+2,w
  4207     0D0B  00BC               	movwf	?___fldiv+2
  4208     0D0C  083F               	movf	___fldiv@b+1,w
  4209     0D0D  00BB               	movwf	?___fldiv+1
  4210     0D0E  083E               	movf	___fldiv@b,w
  4211     0D0F  00BA               	movwf	?___fldiv
  4212     0D10  2E48               	goto	l638
  4213     0D11                     l2898:
  4214     0D11  0852               	movf	___fldiv@bexp,w
  4215     0D12  1D03               	btfss	3,2
  4216     0D13  2D15               	goto	u3851
  4217     0D14  2D16               	goto	u3850
  4218     0D15                     u3851:
  4219     0D15  2D1F               	goto	l2904
  4220     0D16                     u3850:
  4221     0D16                     l2900:
  4222     0D16  3000               	movlw	0
  4223     0D17  00BD               	movwf	?___fldiv+3
  4224     0D18  3000               	movlw	0
  4225     0D19  00BC               	movwf	?___fldiv+2
  4226     0D1A  3000               	movlw	0
  4227     0D1B  00BB               	movwf	?___fldiv+1
  4228     0D1C  3000               	movlw	0
  4229     0D1D  00BA               	movwf	?___fldiv
  4230     0D1E  2E48               	goto	l638
  4231     0D1F                     l2904:
  4232     0D1F  0852               	movf	___fldiv@bexp,w
  4233     0D20  00C2               	movwf	??___fldiv
  4234     0D21  01C3               	clrf	??___fldiv+1
  4235     0D22  0843               	movf	??___fldiv+1,w
  4236     0D23  00C5               	movwf	??___fldiv+3
  4237     0D24  0853               	movf	___fldiv@aexp,w
  4238     0D25  0242               	subwf	??___fldiv,w
  4239     0D26  00C4               	movwf	??___fldiv+2
  4240     0D27  1C03               	skipc
  4241     0D28  03C5               	decf	??___fldiv+3,f
  4242     0D29  0844               	movf	??___fldiv+2,w
  4243     0D2A  3E7F               	addlw	127
  4244     0D2B  00CC               	movwf	___fldiv@new_exp
  4245     0D2C  3000               	movlw	0
  4246     0D2D  3D45               	addwfc	??___fldiv+3,w
  4247     0D2E  00CD               	movwf	___fldiv@new_exp+1
  4248     0D2F                     l2906:
  4249     0D2F  0841               	movf	___fldiv@b+3,w
  4250     0D30  00CA               	movwf	___fldiv@rem+3
  4251     0D31  0840               	movf	___fldiv@b+2,w
  4252     0D32  00C9               	movwf	___fldiv@rem+2
  4253     0D33  083F               	movf	___fldiv@b+1,w
  4254     0D34  00C8               	movwf	___fldiv@rem+1
  4255     0D35  083E               	movf	___fldiv@b,w
  4256     0D36  00C7               	movwf	___fldiv@rem
  4257     0D37                     l2908:
  4258     0D37  3000               	movlw	0
  4259     0D38  00C1               	movwf	___fldiv@b+3
  4260     0D39  3000               	movlw	0
  4261     0D3A  00C0               	movwf	___fldiv@b+2
  4262     0D3B  3000               	movlw	0
  4263     0D3C  00BF               	movwf	___fldiv@b+1
  4264     0D3D  3000               	movlw	0
  4265     0D3E  00BE               	movwf	___fldiv@b
  4266     0D3F                     l2910:
  4267     0D3F  3000               	movlw	0
  4268     0D40  00D1               	movwf	___fldiv@grs+3
  4269     0D41  3000               	movlw	0
  4270     0D42  00D0               	movwf	___fldiv@grs+2
  4271     0D43  3000               	movlw	0
  4272     0D44  00CF               	movwf	___fldiv@grs+1
  4273     0D45  3000               	movlw	0
  4274     0D46  00CE               	movwf	___fldiv@grs
  4275     0D47                     l2912:
  4276     0D47  01D3               	clrf	___fldiv@aexp
  4277     0D48  2D87               	goto	l2932
  4278     0D49                     l2914:
  4279     0D49  0853               	movf	___fldiv@aexp,w
  4280     0D4A  1903               	btfsc	3,2
  4281     0D4B  2D4D               	goto	u3861
  4282     0D4C  2D4E               	goto	u3860
  4283     0D4D                     u3861:
  4284     0D4D  2D68               	goto	l2924
  4285     0D4E                     u3860:
  4286     0D4E                     l2916:
  4287     0D4E  3001               	movlw	1
  4288     0D4F                     u3875:
  4289     0D4F  35C7               	lslf	___fldiv@rem,f
  4290     0D50  0DC8               	rlf	___fldiv@rem+1,f
  4291     0D51  0DC9               	rlf	___fldiv@rem+2,f
  4292     0D52  0DCA               	rlf	___fldiv@rem+3,f
  4293     0D53  0B89               	decfsz	9,f
  4294     0D54  2D4F               	goto	u3875
  4295     0D55  3001               	movlw	1
  4296     0D56                     u3885:
  4297     0D56  35BE               	lslf	___fldiv@b,f
  4298     0D57  0DBF               	rlf	___fldiv@b+1,f
  4299     0D58  0DC0               	rlf	___fldiv@b+2,f
  4300     0D59  0DC1               	rlf	___fldiv@b+3,f
  4301     0D5A  0B89               	decfsz	9,f
  4302     0D5B  2D56               	goto	u3885
  4303     0D5C                     l2918:
  4304     0D5C  1FD1               	btfss	___fldiv@grs+3,7
  4305     0D5D  2D5F               	goto	u3891
  4306     0D5E  2D60               	goto	u3890
  4307     0D5F                     u3891:
  4308     0D5F  2D61               	goto	l2922
  4309     0D60                     u3890:
  4310     0D60                     l2920:
  4311     0D60  143E               	bsf	___fldiv@b,0
  4312     0D61                     l2922:
  4313     0D61  3001               	movlw	1
  4314     0D62                     u3905:
  4315     0D62  35CE               	lslf	___fldiv@grs,f
  4316     0D63  0DCF               	rlf	___fldiv@grs+1,f
  4317     0D64  0DD0               	rlf	___fldiv@grs+2,f
  4318     0D65  0DD1               	rlf	___fldiv@grs+3,f
  4319     0D66  0B89               	decfsz	9,f
  4320     0D67  2D62               	goto	u3905
  4321     0D68                     l2924:
  4322     0D68  083D               	movf	___fldiv@a+3,w
  4323     0D69  024A               	subwf	___fldiv@rem+3,w
  4324     0D6A  1D03               	skipz
  4325     0D6B  2D76               	goto	u3915
  4326     0D6C  083C               	movf	___fldiv@a+2,w
  4327     0D6D  0249               	subwf	___fldiv@rem+2,w
  4328     0D6E  1D03               	skipz
  4329     0D6F  2D76               	goto	u3915
  4330     0D70  083B               	movf	___fldiv@a+1,w
  4331     0D71  0248               	subwf	___fldiv@rem+1,w
  4332     0D72  1D03               	skipz
  4333     0D73  2D76               	goto	u3915
  4334     0D74  083A               	movf	___fldiv@a,w
  4335     0D75  0247               	subwf	___fldiv@rem,w
  4336     0D76                     u3915:
  4337     0D76  1C03               	skipc
  4338     0D77  2D79               	goto	u3911
  4339     0D78  2D7A               	goto	u3910
  4340     0D79                     u3911:
  4341     0D79  2D83               	goto	l2930
  4342     0D7A                     u3910:
  4343     0D7A                     l2926:
  4344     0D7A  1751               	bsf	___fldiv@grs+3,6
  4345     0D7B                     l2928:
  4346     0D7B  083A               	movf	___fldiv@a,w
  4347     0D7C  02C7               	subwf	___fldiv@rem,f
  4348     0D7D  083B               	movf	___fldiv@a+1,w
  4349     0D7E  3BC8               	subwfb	___fldiv@rem+1,f
  4350     0D7F  083C               	movf	___fldiv@a+2,w
  4351     0D80  3BC9               	subwfb	___fldiv@rem+2,f
  4352     0D81  083D               	movf	___fldiv@a+3,w
  4353     0D82  3BCA               	subwfb	___fldiv@rem+3,f
  4354     0D83                     l2930:
  4355     0D83  3001               	movlw	1
  4356     0D84  00C2               	movwf	??___fldiv
  4357     0D85  0842               	movf	??___fldiv,w
  4358     0D86  07D3               	addwf	___fldiv@aexp,f
  4359     0D87                     l2932:
  4360     0D87  301A               	movlw	26
  4361     0D88  0253               	subwf	___fldiv@aexp,w
  4362     0D89  1C03               	skipc
  4363     0D8A  2D8C               	goto	u3921
  4364     0D8B  2D8D               	goto	u3920
  4365     0D8C                     u3921:
  4366     0D8C  2D49               	goto	l2914
  4367     0D8D                     u3920:
  4368     0D8D                     l2934:
  4369     0D8D  084A               	movf	___fldiv@rem+3,w
  4370     0D8E  0449               	iorwf	___fldiv@rem+2,w
  4371     0D8F  0448               	iorwf	___fldiv@rem+1,w
  4372     0D90  0447               	iorwf	___fldiv@rem,w
  4373     0D91  1903               	skipnz
  4374     0D92  2D94               	goto	u3931
  4375     0D93  2D95               	goto	u3930
  4376     0D94                     u3931:
  4377     0D94  2DAE               	goto	l2948
  4378     0D95                     u3930:
  4379     0D95                     l2936:
  4380     0D95  144E               	bsf	___fldiv@grs,0
  4381     0D96  2DAE               	goto	l2948
  4382     0D97                     l2938:
  4383     0D97  3001               	movlw	1
  4384     0D98                     u3945:
  4385     0D98  35BE               	lslf	___fldiv@b,f
  4386     0D99  0DBF               	rlf	___fldiv@b+1,f
  4387     0D9A  0DC0               	rlf	___fldiv@b+2,f
  4388     0D9B  0DC1               	rlf	___fldiv@b+3,f
  4389     0D9C  0B89               	decfsz	9,f
  4390     0D9D  2D98               	goto	u3945
  4391     0D9E                     l2940:
  4392     0D9E  1FD1               	btfss	___fldiv@grs+3,7
  4393     0D9F  2DA1               	goto	u3951
  4394     0DA0  2DA2               	goto	u3950
  4395     0DA1                     u3951:
  4396     0DA1  2DA3               	goto	l2944
  4397     0DA2                     u3950:
  4398     0DA2                     l2942:
  4399     0DA2  143E               	bsf	___fldiv@b,0
  4400     0DA3                     l2944:
  4401     0DA3  3001               	movlw	1
  4402     0DA4                     u3965:
  4403     0DA4  35CE               	lslf	___fldiv@grs,f
  4404     0DA5  0DCF               	rlf	___fldiv@grs+1,f
  4405     0DA6  0DD0               	rlf	___fldiv@grs+2,f
  4406     0DA7  0DD1               	rlf	___fldiv@grs+3,f
  4407     0DA8  0B89               	decfsz	9,f
  4408     0DA9  2DA4               	goto	u3965
  4409     0DAA                     l2946:
  4410     0DAA  30FF               	movlw	255
  4411     0DAB  07CC               	addwf	___fldiv@new_exp,f
  4412     0DAC  30FF               	movlw	255
  4413     0DAD  3DCD               	addwfc	___fldiv@new_exp+1,f
  4414     0DAE                     l2948:
  4415     0DAE  1FC0               	btfss	___fldiv@b+2,7
  4416     0DAF  2DB1               	goto	u3971
  4417     0DB0  2DB2               	goto	u3970
  4418     0DB1                     u3971:
  4419     0DB1  2D97               	goto	l2938
  4420     0DB2                     u3970:
  4421     0DB2                     l2950:
  4422     0DB2  01D3               	clrf	___fldiv@aexp
  4423     0DB3                     l2952:
  4424     0DB3  1FD1               	btfss	___fldiv@grs+3,7
  4425     0DB4  2DB6               	goto	u3981
  4426     0DB5  2DB7               	goto	u3980
  4427     0DB6                     u3981:
  4428     0DB6  2DD3               	goto	l2960
  4429     0DB7                     u3980:
  4430     0DB7                     l2954:
  4431     0DB7  30FF               	movlw	255
  4432     0DB8  054E               	andwf	___fldiv@grs,w
  4433     0DB9  00C2               	movwf	??___fldiv
  4434     0DBA  30FF               	movlw	255
  4435     0DBB  054F               	andwf	___fldiv@grs+1,w
  4436     0DBC  00C3               	movwf	??___fldiv+1
  4437     0DBD  30FF               	movlw	255
  4438     0DBE  0550               	andwf	___fldiv@grs+2,w
  4439     0DBF  00C4               	movwf	??___fldiv+2
  4440     0DC0  307F               	movlw	127
  4441     0DC1  0551               	andwf	___fldiv@grs+3,w
  4442     0DC2  00C5               	movwf	??___fldiv+3
  4443     0DC3  0845               	movf	??___fldiv+3,w
  4444     0DC4  0444               	iorwf	??___fldiv+2,w
  4445     0DC5  0443               	iorwf	??___fldiv+1,w
  4446     0DC6  0442               	iorwf	??___fldiv,w
  4447     0DC7  1903               	skipnz
  4448     0DC8  2DCA               	goto	u3991
  4449     0DC9  2DCB               	goto	u3990
  4450     0DCA                     u3991:
  4451     0DCA  2DCE               	goto	l652
  4452     0DCB                     u3990:
  4453     0DCB                     l2956:
  4454     0DCB  01D3               	clrf	___fldiv@aexp
  4455     0DCC  0AD3               	incf	___fldiv@aexp,f
  4456     0DCD  2DD3               	goto	l2960
  4457     0DCE                     l652:
  4458     0DCE  1C3E               	btfss	___fldiv@b,0
  4459     0DCF  2DD1               	goto	u4001
  4460     0DD0  2DD2               	goto	u4000
  4461     0DD1                     u4001:
  4462     0DD1  2DD3               	goto	l2960
  4463     0DD2                     u4000:
  4464     0DD2  2DCB               	goto	l2956
  4465     0DD3                     l2960:
  4466     0DD3  0853               	movf	___fldiv@aexp,w
  4467     0DD4  1903               	btfsc	3,2
  4468     0DD5  2DD7               	goto	u4011
  4469     0DD6  2DD8               	goto	u4010
  4470     0DD7                     u4011:
  4471     0DD7  2E00               	goto	l2970
  4472     0DD8                     u4010:
  4473     0DD8                     l2962:
  4474     0DD8  3001               	movlw	1
  4475     0DD9  07BE               	addwf	___fldiv@b,f
  4476     0DDA  3000               	movlw	0
  4477     0DDB  3DBF               	addwfc	___fldiv@b+1,f
  4478     0DDC  3000               	movlw	0
  4479     0DDD  3DC0               	addwfc	___fldiv@b+2,f
  4480     0DDE  3000               	movlw	0
  4481     0DDF  3DC1               	addwfc	___fldiv@b+3,f
  4482     0DE0                     l2964:
  4483     0DE0  1C41               	btfss	___fldiv@b+3,0
  4484     0DE1  2DE3               	goto	u4021
  4485     0DE2  2DE4               	goto	u4020
  4486     0DE3                     u4021:
  4487     0DE3  2E00               	goto	l2970
  4488     0DE4                     u4020:
  4489     0DE4                     l2966:
  4490     0DE4  083E               	movf	___fldiv@b,w
  4491     0DE5  00C2               	movwf	??___fldiv
  4492     0DE6  083F               	movf	___fldiv@b+1,w
  4493     0DE7  00C3               	movwf	??___fldiv+1
  4494     0DE8  0840               	movf	___fldiv@b+2,w
  4495     0DE9  00C4               	movwf	??___fldiv+2
  4496     0DEA  0841               	movf	___fldiv@b+3,w
  4497     0DEB  00C5               	movwf	??___fldiv+3
  4498     0DEC  3001               	movlw	1
  4499     0DED  00C6               	movwf	??___fldiv+4
  4500     0DEE                     u4035:
  4501     0DEE  37C5               	asrf	??___fldiv+3,f
  4502     0DEF  0CC4               	rrf	??___fldiv+2,f
  4503     0DF0  0CC3               	rrf	??___fldiv+1,f
  4504     0DF1  0CC2               	rrf	??___fldiv,f
  4505     0DF2                     u4030:
  4506     0DF2  0BC6               	decfsz	??___fldiv+4,f
  4507     0DF3  2DEE               	goto	u4035
  4508     0DF4  0845               	movf	??___fldiv+3,w
  4509     0DF5  00C1               	movwf	___fldiv@b+3
  4510     0DF6  0844               	movf	??___fldiv+2,w
  4511     0DF7  00C0               	movwf	___fldiv@b+2
  4512     0DF8  0843               	movf	??___fldiv+1,w
  4513     0DF9  00BF               	movwf	___fldiv@b+1
  4514     0DFA  0842               	movf	??___fldiv,w
  4515     0DFB  00BE               	movwf	___fldiv@b
  4516     0DFC                     l2968:
  4517     0DFC  3001               	movlw	1
  4518     0DFD  07CC               	addwf	___fldiv@new_exp,f
  4519     0DFE  3000               	movlw	0
  4520     0DFF  3DCD               	addwfc	___fldiv@new_exp+1,f
  4521     0E00                     l2970:
  4522     0E00  084D               	movf	___fldiv@new_exp+1,w
  4523     0E01  3A80               	xorlw	128
  4524     0E02  00C2               	movwf	??___fldiv
  4525     0E03  3080               	movlw	128
  4526     0E04  0242               	subwf	??___fldiv,w
  4527     0E05  1D03               	skipz
  4528     0E06  2E09               	goto	u4045
  4529     0E07  30FF               	movlw	255
  4530     0E08  024C               	subwf	___fldiv@new_exp,w
  4531     0E09                     u4045:
  4532     0E09  1C03               	skipc
  4533     0E0A  2E0C               	goto	u4041
  4534     0E0B  2E0D               	goto	u4040
  4535     0E0C                     u4041:
  4536     0E0C  2E1A               	goto	l657
  4537     0E0D                     u4040:
  4538     0E0D                     l2972:
  4539     0E0D  30FF               	movlw	255
  4540     0E0E  0020               	movlb	0	; select bank0
  4541     0E0F  00CC               	movwf	___fldiv@new_exp
  4542     0E10  3000               	movlw	0
  4543     0E11  00CD               	movwf	___fldiv@new_exp+1
  4544     0E12  3000               	movlw	0
  4545     0E13  00C1               	movwf	___fldiv@b+3
  4546     0E14  3000               	movlw	0
  4547     0E15  00C0               	movwf	___fldiv@b+2
  4548     0E16  3000               	movlw	0
  4549     0E17  00BF               	movwf	___fldiv@b+1
  4550     0E18  3000               	movlw	0
  4551     0E19  00BE               	movwf	___fldiv@b
  4552     0E1A                     l657:
  4553     0E1A  0020               	movlb	0	; select bank0
  4554     0E1B  084D               	movf	___fldiv@new_exp+1,w
  4555     0E1C  3A80               	xorlw	128
  4556     0E1D  00C2               	movwf	??___fldiv
  4557     0E1E  3080               	movlw	128
  4558     0E1F  0242               	subwf	??___fldiv,w
  4559     0E20  1D03               	skipz
  4560     0E21  2E24               	goto	u4055
  4561     0E22  3001               	movlw	1
  4562     0E23  024C               	subwf	___fldiv@new_exp,w
  4563     0E24                     u4055:
  4564     0E24  1803               	skipnc
  4565     0E25  2E27               	goto	u4051
  4566     0E26  2E28               	goto	u4050
  4567     0E27                     u4051:
  4568     0E27  2E34               	goto	l658
  4569     0E28                     u4050:
  4570     0E28                     l2974:
  4571     0E28  0020               	movlb	0	; select bank0
  4572     0E29  01CC               	clrf	___fldiv@new_exp
  4573     0E2A  01CD               	clrf	___fldiv@new_exp+1
  4574     0E2B                     l2976:
  4575     0E2B  3000               	movlw	0
  4576     0E2C  00C1               	movwf	___fldiv@b+3
  4577     0E2D  3000               	movlw	0
  4578     0E2E  00C0               	movwf	___fldiv@b+2
  4579     0E2F  3000               	movlw	0
  4580     0E30  00BF               	movwf	___fldiv@b+1
  4581     0E31  3000               	movlw	0
  4582     0E32  00BE               	movwf	___fldiv@b
  4583     0E33                     l2978:
  4584     0E33  01CB               	clrf	___fldiv@sign
  4585     0E34                     l658:
  4586     0E34  0020               	movlb	0	; select bank0
  4587     0E35  084C               	movf	___fldiv@new_exp,w
  4588     0E36  00D2               	movwf	___fldiv@bexp
  4589     0E37                     l2980:
  4590     0E37  1C52               	btfss	___fldiv@bexp,0
  4591     0E38  2E3A               	goto	u4061
  4592     0E39  2E3B               	goto	u4060
  4593     0E3A                     u4061:
  4594     0E3A  2E3D               	goto	l2984
  4595     0E3B                     u4060:
  4596     0E3B                     l2982:
  4597     0E3B  17C0               	bsf	___fldiv@b+2,7
  4598     0E3C  2E41               	goto	l660
  4599     0E3D                     l2984:
  4600     0E3D  307F               	movlw	127
  4601     0E3E  00C2               	movwf	??___fldiv
  4602     0E3F  0842               	movf	??___fldiv,w
  4603     0E40  05C0               	andwf	___fldiv@b+2,f
  4604     0E41                     l660:
  4605     0E41  3652               	lsrf	___fldiv@bexp,w
  4606     0E42  00C1               	movwf	___fldiv@b+3
  4607     0E43  084B               	movf	___fldiv@sign,w
  4608     0E44  00C2               	movwf	??___fldiv
  4609     0E45  0842               	movf	??___fldiv,w
  4610     0E46  04C1               	iorwf	___fldiv@b+3,f
  4611     0E47  2D08               	goto	l2894
  4612     0E48                     l638:
  4613     0E48  0008               	return
  4614     0E49                     __end_of___fldiv:
  4615                           
  4616                           	psect	text7
  4617     07EA                     __ptext7:	
  4618 ;; *************** function _ReadTimer0WithOverflows *****************
  4619 ;; Defined at:
  4620 ;;		line 127 in file "main.c"
  4621 ;; Parameters:    Size  Location     Type
  4622 ;;		None
  4623 ;; Auto vars:     Size  Location     Type
  4624 ;;		None
  4625 ;; Return value:  Size  Location     Type
  4626 ;;                  2    0[COMMON] unsigned short 
  4627 ;; Registers used:
  4628 ;;		wreg, status,2, status,0
  4629 ;; Tracked objects:
  4630 ;;		On entry : 0/0
  4631 ;;		On exit  : 0/0
  4632 ;;		Unchanged: 0/0
  4633 ;; Data sizes:     COMMON   BANK0   BANK1   BANK2   BANK3   BANK4   BANK5   BANK6   BANK7   BANK8   BANK9  BANK10  BANK1
      +1  BANK12  BANK13  BANK14  BANK15  BANK16  BANK17  BANK18  BANK19  BANK20  BANK21  BANK22  BANK23  BANK24  BANK25
  4634 ;;      Params:         2       0       0       0       0       0       0       0       0       0       0       0       
      +0       0       0       0       0       0       0       0       0       0       0       0       0       0       0
  4635 ;;      Locals:         0       0       0       0       0       0       0       0       0       0       0       0       
      +0       0       0       0       0       0       0       0       0       0       0       0       0       0       0
  4636 ;;      Temps:          6       0       0       0       0       0       0       0       0       0       0       0       
      +0       0       0       0       0       0       0       0       0       0       0       0       0       0       0
  4637 ;;      Totals:         8       0       0       0       0       0       0       0       0       0       0       0       
      +0       0       0       0       0       0       0       0       0       0       0       0       0       0       0
  4638 ;;Total ram usage:        8 bytes
  4639 ;; Hardware stack levels used: 1
  4640 ;; Hardware stack levels required when called: 1
  4641 ;; This function calls:
  4642 ;;		Nothing
  4643 ;; This function is called by:
  4644 ;;		_calibrate
  4645 ;;		_main
  4646 ;; This function uses a non-reentrant model
  4647 ;;
  4648                           
  4649     07EA                     _ReadTimer0WithOverflows:	
  4650                           ;psect for function _ReadTimer0WithOverflows
  4651                           
  4652     07EA                     l2846:	
  4653                           ;incstack = 0
  4654                           ; Regs used in _ReadTimer0WithOverflows: [wreg+status,2+status,0]
  4655                           
  4656                           
  4657                           ;main.c: 129:     return (tmr0_overflows * 256) + TMR0;
  4658     07EA  0020               	movlb	0	; select bank0
  4659     07EB  0815               	movf	21,w	;volatile
  4660     07EC  00F2               	movwf	??_ReadTimer0WithOverflows
  4661     07ED  01F3               	clrf	??_ReadTimer0WithOverflows+1
  4662     07EE  0021               	movlb	1	; select bank1
  4663     07EF  0862               	movf	_tmr0_overflows^(0+128),w	;volatile
  4664     07F0  00F5               	movwf	??_ReadTimer0WithOverflows+3
  4665     07F1  01F4               	clrf	??_ReadTimer0WithOverflows+2
  4666     07F2  0872               	movf	??_ReadTimer0WithOverflows,w
  4667     07F3  0774               	addwf	??_ReadTimer0WithOverflows+2,w
  4668     07F4  00F6               	movwf	??_ReadTimer0WithOverflows+4
  4669     07F5  0873               	movf	??_ReadTimer0WithOverflows+1,w
  4670     07F6  3D75               	addwfc	??_ReadTimer0WithOverflows+3,w
  4671     07F7  00F7               	movwf	??_ReadTimer0WithOverflows+5
  4672     07F8  0876               	movf	??_ReadTimer0WithOverflows+4,w
  4673     07F9  00F0               	movwf	?_ReadTimer0WithOverflows
  4674     07FA  0877               	movf	??_ReadTimer0WithOverflows+5,w
  4675     07FB  00F1               	movwf	?_ReadTimer0WithOverflows+1
  4676     07FC                     l146:
  4677     07FC  0008               	return
  4678     07FD                     __end_of_ReadTimer0WithOverflows:
  4679                           
  4680                           	psect	text8
  4681     153F                     __ptext8:	
  4682 ;; *************** function _EUSART_Write_Unsigned_Integer *****************
  4683 ;; Defined at:
  4684 ;;		line 200 in file "EUSART.c"
  4685 ;; Parameters:    Size  Location     Type
  4686 ;;  value_to_sen    4   41[BANK0 ] unsigned long 
  4687 ;; Auto vars:     Size  Location     Type
  4688 ;;  buffer         20   45[BANK0 ] unsigned char [20]
  4689 ;; Return value:  Size  Location     Type
  4690 ;;                  1    wreg      void 
  4691 ;; Registers used:
  4692 ;;		wreg, fsr0l, fsr0h, fsr1l, fsr1h, status,2, status,0, pclath, cstack
  4693 ;; Tracked objects:
  4694 ;;		On entry : 0/0
  4695 ;;		On exit  : 0/0
  4696 ;;		Unchanged: 0/0
  4697 ;; Data sizes:     COMMON   BANK0   BANK1   BANK2   BANK3   BANK4   BANK5   BANK6   BANK7   BANK8   BANK9  BANK10  BANK1
      +1  BANK12  BANK13  BANK14  BANK15  BANK16  BANK17  BANK18  BANK19  BANK20  BANK21  BANK22  BANK23  BANK24  BANK25
  4698 ;;      Params:         0       4       0       0       0       0       0       0       0       0       0       0       
      +0       0       0       0       0       0       0       0       0       0       0       0       0       0       0
  4699 ;;      Locals:         0      20       0       0       0       0       0       0       0       0       0       0       
      +0       0       0       0       0       0       0       0       0       0       0       0       0       0       0
  4700 ;;      Temps:          0       0       0       0       0       0       0       0       0       0       0       0       
      +0       0       0       0       0       0       0       0       0       0       0       0       0       0       0
  4701 ;;      Totals:         0      24       0       0       0       0       0       0       0       0       0       0       
      +0       0       0       0       0       0       0       0       0       0       0       0       0       0       0
  4702 ;;Total ram usage:       24 bytes
  4703 ;; Hardware stack levels used: 1
  4704 ;; Hardware stack levels required when called: 6
  4705 ;; This function calls:
  4706 ;;		_EUSART_Write_Text
  4707 ;;		_sprintf
  4708 ;; This function is called by:
  4709 ;;		_calibrate
  4710 ;;		_main
  4711 ;; This function uses a non-reentrant model
  4712 ;;
  4713                           
  4714     153F                     _EUSART_Write_Unsigned_Integer:	
  4715                           ;psect for function _EUSART_Write_Unsigned_Integer
  4716                           
  4717     153F                     l2804:	
  4718                           ;incstack = 0
  4719                           ; Regs used in _EUSART_Write_Unsigned_Integer: [wreg-fsr1h+status,2+status,0+pclath+csta
      +                          ck]
  4720                           
  4721                           
  4722                           ;EUSART.c: 201:     char buffer[20];;EUSART.c: 202:     sprintf(buffer, "%lu", value_to_
      +                          send);
  4723     153F  30C9               	movlw	low (STR_1| (0+32768))
  4724     1540  0020               	movlb	0	; select bank0
  4725     1541  00B5               	movwf	sprintf@fmt
  4726     1542  3098               	movlw	high (STR_1| (0+32768))
  4727     1543  00B6               	movwf	sprintf@fmt+1
  4728     1544  084C               	movf	EUSART_Write_Unsigned_Integer@value_to_send+3,w
  4729     1545  00BA               	movwf	?_sprintf+5
  4730     1546  084B               	movf	EUSART_Write_Unsigned_Integer@value_to_send+2,w
  4731     1547  00B9               	movwf	?_sprintf+4
  4732     1548  084A               	movf	EUSART_Write_Unsigned_Integer@value_to_send+1,w
  4733     1549  00B8               	movwf	?_sprintf+3
  4734     154A  0849               	movf	EUSART_Write_Unsigned_Integer@value_to_send,w
  4735     154B  00B7               	movwf	?_sprintf+2
  4736     154C  304D               	movlw	(low (EUSART_Write_Unsigned_Integer@buffer| 0))& (0+255)
  4737     154D  3195  2591  3195   	fcall	_sprintf
  4738     1550                     l2806:
  4739                           
  4740                           ;EUSART.c: 203:     EUSART_Write_Text(buffer);
  4741     1550  304D               	movlw	low EUSART_Write_Unsigned_Integer@buffer
  4742     1551  00F1               	movwf	EUSART_Write_Text@text
  4743     1552  3000               	movlw	high EUSART_Write_Unsigned_Integer@buffer
  4744     1553  00F2               	movwf	EUSART_Write_Text@text+1
  4745     1554  3195  2574  3195   	fcall	_EUSART_Write_Text
  4746     1557                     l71:
  4747     1557  0008               	return
  4748     1558                     __end_of_EUSART_Write_Unsigned_Integer:
  4749                           
  4750                           	psect	text9
  4751     1591                     __ptext9:	
  4752 ;; *************** function _sprintf *****************
  4753 ;; Defined at:
  4754 ;;		line 9 in file "C:\Program Files\Microchip\xc8\v2.46\pic\sources\c99\common\nf_sprintf.c"
  4755 ;; Parameters:    Size  Location     Type
  4756 ;;  s               1    wreg     PTR unsigned char 
  4757 ;;		 -> EUSART_Write_Unsigned_Integer@buffer(20), 
  4758 ;;  fmt             2   21[BANK0 ] PTR const unsigned char 
  4759 ;;		 -> STR_1(4), 
  4760 ;; Auto vars:     Size  Location     Type
  4761 ;;  s               1   29[BANK0 ] PTR unsigned char 
  4762 ;;		 -> EUSART_Write_Unsigned_Integer@buffer(20), 
  4763 ;;  f              11   30[BANK0 ] struct _IO_FILE
  4764 ;;  ret             2    0        int 
  4765 ;;  ap              1   28[BANK0 ] PTR void [1]
  4766 ;;		 -> ?_sprintf(2), 
  4767 ;; Return value:  Size  Location     Type
  4768 ;;                  2   21[BANK0 ] int 
  4769 ;; Registers used:
  4770 ;;		wreg, fsr0l, fsr0h, fsr1l, fsr1h, status,2, status,0, pclath, cstack
  4771 ;; Tracked objects:
  4772 ;;		On entry : 0/0
  4773 ;;		On exit  : 0/0
  4774 ;;		Unchanged: 0/0
  4775 ;; Data sizes:     COMMON   BANK0   BANK1   BANK2   BANK3   BANK4   BANK5   BANK6   BANK7   BANK8   BANK9  BANK10  BANK1
      +1  BANK12  BANK13  BANK14  BANK15  BANK16  BANK17  BANK18  BANK19  BANK20  BANK21  BANK22  BANK23  BANK24  BANK25
  4776 ;;      Params:         0       6       0       0       0       0       0       0       0       0       0       0       
      +0       0       0       0       0       0       0       0       0       0       0       0       0       0       0
  4777 ;;      Locals:         0      13       0       0       0       0       0       0       0       0       0       0       
      +0       0       0       0       0       0       0       0       0       0       0       0       0       0       0
  4778 ;;      Temps:          0       1       0       0       0       0       0       0       0       0       0       0       
      +0       0       0       0       0       0       0       0       0       0       0       0       0       0       0
  4779 ;;      Totals:         0      20       0       0       0       0       0       0       0       0       0       0       
      +0       0       0       0       0       0       0       0       0       0       0       0       0       0       0
  4780 ;;Total ram usage:       20 bytes
  4781 ;; Hardware stack levels used: 1
  4782 ;; Hardware stack levels required when called: 5
  4783 ;; This function calls:
  4784 ;;		_vfprintf
  4785 ;; This function is called by:
  4786 ;;		_EUSART_Write_Unsigned_Integer
  4787 ;; This function uses a non-reentrant model
  4788 ;;
  4789                           
  4790     1591                     _sprintf:	
  4791                           ;psect for function _sprintf
  4792                           
  4793                           
  4794                           ;incstack = 0
  4795                           ; Regs used in _sprintf: [wreg-fsr1h+status,2+status,0+pclath+cstack]
  4796                           ;sprintf@s stored from wreg
  4797     1591  0020               	movlb	0	; select bank0
  4798     1592  00BD               	movwf	sprintf@s
  4799     1593                     l2480:
  4800     1593  3037               	movlw	(low ((?_sprintf| 0+2)))& (0+255)
  4801     1594  00BC               	movwf	sprintf@ap
  4802     1595  083D               	movf	sprintf@s,w
  4803     1596  00BE               	movwf	sprintf@f
  4804     1597                     l2482:
  4805     1597  01C0               	clrf	sprintf@f+2
  4806     1598  01C1               	clrf	sprintf@f+3
  4807     1599                     l2484:
  4808     1599  01C7               	clrf	sprintf@f+9
  4809     159A  01C8               	clrf	sprintf@f+10
  4810     159B                     l2486:
  4811     159B  0836               	movf	sprintf@fmt+1,w
  4812     159C  00AF               	movwf	vfprintf@fmt+1
  4813     159D  0835               	movf	sprintf@fmt,w
  4814     159E  00AE               	movwf	vfprintf@fmt
  4815     159F  303C               	movlw	(low (sprintf@ap| 0))& (0+255)
  4816     15A0  00B0               	movwf	vfprintf@ap
  4817     15A1  303E               	movlw	(low (sprintf@f| 0))& (0+255)
  4818     15A2  3195  2558  3195   	fcall	_vfprintf
  4819     15A5                     l2488:
  4820     15A5  0020               	movlb	0	; select bank0
  4821     15A6  0840               	movf	sprintf@f+2,w
  4822     15A7  073D               	addwf	sprintf@s,w
  4823     15A8  00BB               	movwf	??_sprintf
  4824     15A9  083B               	movf	??_sprintf,w
  4825     15AA  0086               	movwf	6
  4826     15AB  0187               	clrf	7
  4827     15AC  0181               	clrf	1
  4828     15AD                     l742:
  4829     15AD  0008               	return
  4830     15AE                     __end_of_sprintf:
  4831                           
  4832                           	psect	text10
  4833     1558                     __ptext10:	
  4834 ;; *************** function _vfprintf *****************
  4835 ;; Defined at:
  4836 ;;		line 1817 in file "C:\Program Files\Microchip\xc8\v2.46\pic\sources\c99\common\doprnt.c"
  4837 ;; Parameters:    Size  Location     Type
  4838 ;;  fp              1    wreg     PTR struct _IO_FILE
  4839 ;;		 -> sprintf@f(11), 
  4840 ;;  fmt             2   14[BANK0 ] PTR const unsigned char 
  4841 ;;		 -> STR_1(4), 
  4842 ;;  ap              1   16[BANK0 ] PTR PTR void 
  4843 ;;		 -> sprintf@ap(1), 
  4844 ;; Auto vars:     Size  Location     Type
  4845 ;;  fp              1   18[BANK0 ] PTR struct _IO_FILE
  4846 ;;		 -> sprintf@f(11), 
  4847 ;;  cfmt            2   19[BANK0 ] PTR unsigned char 
  4848 ;;		 -> STR_1(4), 
  4849 ;; Return value:  Size  Location     Type
  4850 ;;                  2   14[BANK0 ] int 
  4851 ;; Registers used:
  4852 ;;		wreg, fsr0l, fsr0h, fsr1l, fsr1h, status,2, status,0, pclath, cstack
  4853 ;; Tracked objects:
  4854 ;;		On entry : 0/0
  4855 ;;		On exit  : 0/0
  4856 ;;		Unchanged: 0/0
  4857 ;; Data sizes:     COMMON   BANK0   BANK1   BANK2   BANK3   BANK4   BANK5   BANK6   BANK7   BANK8   BANK9  BANK10  BANK1
      +1  BANK12  BANK13  BANK14  BANK15  BANK16  BANK17  BANK18  BANK19  BANK20  BANK21  BANK22  BANK23  BANK24  BANK25
  4858 ;;      Params:         0       3       0       0       0       0       0       0       0       0       0       0       
      +0       0       0       0       0       0       0       0       0       0       0       0       0       0       0
  4859 ;;      Locals:         0       3       0       0       0       0       0       0       0       0       0       0       
      +0       0       0       0       0       0       0       0       0       0       0       0       0       0       0
  4860 ;;      Temps:          0       1       0       0       0       0       0       0       0       0       0       0       
      +0       0       0       0       0       0       0       0       0       0       0       0       0       0       0
  4861 ;;      Totals:         0       7       0       0       0       0       0       0       0       0       0       0       
      +0       0       0       0       0       0       0       0       0       0       0       0       0       0       0
  4862 ;;Total ram usage:        7 bytes
  4863 ;; Hardware stack levels used: 1
  4864 ;; Hardware stack levels required when called: 4
  4865 ;; This function calls:
  4866 ;;		_vfpfcnvrt
  4867 ;; This function is called by:
  4868 ;;		_sprintf
  4869 ;; This function uses a non-reentrant model
  4870 ;;
  4871                           
  4872     1558                     _vfprintf:	
  4873                           ;psect for function _vfprintf
  4874                           
  4875                           
  4876                           ;incstack = 0
  4877                           ; Regs used in _vfprintf: [wreg-fsr1h+status,2+status,0+pclath+cstack]
  4878                           ;vfprintf@fp stored from wreg
  4879     1558  0020               	movlb	0	; select bank0
  4880     1559  00B2               	movwf	vfprintf@fp
  4881     155A                     l2444:
  4882                           
  4883                           ;C:\Program Files\Microchip\xc8\v2.46\pic\sources\c99\common\doprnt.c: 1817: int vfprint
      +                          f(FILE *fp, const char *fmt, va_list ap);C:\Program Files\Microchip\xc8\v2.46\pic\source
      +                          s\c99\common\doprnt.c: 1818: {;C:\Program Files\Microchip\xc8\v2.46\pic\sources\c99\comm
      +                          on\doprnt.c: 1820:     char *cfmt;;C:\Program Files\Microchip\xc8\v2.46\pic\sources\c99\
      +                          common\doprnt.c: 1822:     cfmt = (char *)fmt;
  4884     155A  082F               	movf	vfprintf@fmt+1,w
  4885     155B  00B4               	movwf	vfprintf@cfmt+1
  4886     155C  082E               	movf	vfprintf@fmt,w
  4887     155D  00B3               	movwf	vfprintf@cfmt
  4888                           
  4889                           ;C:\Program Files\Microchip\xc8\v2.46\pic\sources\c99\common\doprnt.c: 1826:     while (
      +                          *cfmt) {
  4890     155E  2D67               	goto	l2448
  4891     155F                     l2446:
  4892                           
  4893                           ;C:\Program Files\Microchip\xc8\v2.46\pic\sources\c99\common\doprnt.c: 1830:    vfpfcnvr
      +                          t(fp, &cfmt, ap);
  4894     155F  3033               	movlw	(low (vfprintf@cfmt| 0))& (0+255)
  4895     1560  00A0               	movwf	vfpfcnvrt@fmt
  4896     1561  0830               	movf	vfprintf@ap,w
  4897     1562  00A1               	movwf	vfpfcnvrt@ap
  4898     1563  0832               	movf	vfprintf@fp,w
  4899     1564  318B  2381  3195   	fcall	_vfpfcnvrt
  4900     1567                     l2448:
  4901                           
  4902                           ;C:\Program Files\Microchip\xc8\v2.46\pic\sources\c99\common\doprnt.c: 1826:     while (
      +                          *cfmt) {
  4903     1567  0020               	movlb	0	; select bank0
  4904     1568  0833               	movf	vfprintf@cfmt,w
  4905     1569  0084               	movwf	4
  4906     156A  0834               	movf	vfprintf@cfmt+1,w
  4907     156B  0085               	movwf	5
  4908     156C  0012               	moviw fsr0++
  4909     156D  1D03               	btfss	3,2
  4910     156E  2D70               	goto	u3031
  4911     156F  2D71               	goto	u3030
  4912     1570                     u3031:
  4913     1570  2D5F               	goto	l2446
  4914     1571                     u3030:
  4915     1571                     l2450:
  4916                           
  4917                           ;C:\Program Files\Microchip\xc8\v2.46\pic\sources\c99\common\doprnt.c: 1835:  return 0;
  4918     1571  01AE               	clrf	?_vfprintf
  4919     1572  01AF               	clrf	?_vfprintf+1
  4920     1573                     l795:
  4921     1573  0008               	return
  4922     1574                     __end_of_vfprintf:
  4923                           
  4924                           	psect	text11
  4925     0B81                     __ptext11:	
  4926 ;; *************** function _vfpfcnvrt *****************
  4927 ;; Defined at:
  4928 ;;		line 1177 in file "C:\Program Files\Microchip\xc8\v2.46\pic\sources\c99\common\doprnt.c"
  4929 ;; Parameters:    Size  Location     Type
  4930 ;;  fp              1    wreg     PTR struct _IO_FILE
  4931 ;;		 -> sprintf@f(11), 
  4932 ;;  fmt             1    0[BANK0 ] PTR PTR unsigned char 
  4933 ;;		 -> vfprintf@cfmt(2), 
  4934 ;;  ap              1    1[BANK0 ] PTR PTR void 
  4935 ;;		 -> sprintf@ap(1), 
  4936 ;; Auto vars:     Size  Location     Type
  4937 ;;  fp              1    6[BANK0 ] PTR struct _IO_FILE
  4938 ;;		 -> sprintf@f(11), 
  4939 ;;  convarg         4    7[BANK0 ] struct .
  4940 ;;  cp              2   11[BANK0 ] PTR unsigned char 
  4941 ;;		 -> STR_1(4), 
  4942 ;;  c               1   13[BANK0 ] unsigned char 
  4943 ;;  done            1    0        _Bool 
  4944 ;; Return value:  Size  Location     Type
  4945 ;;                  1    wreg      void 
  4946 ;; Registers used:
  4947 ;;		wreg, fsr0l, fsr0h, fsr1l, fsr1h, status,2, status,0, pclath, cstack
  4948 ;; Tracked objects:
  4949 ;;		On entry : 0/0
  4950 ;;		On exit  : 0/0
  4951 ;;		Unchanged: 0/0
  4952 ;; Data sizes:     COMMON   BANK0   BANK1   BANK2   BANK3   BANK4   BANK5   BANK6   BANK7   BANK8   BANK9  BANK10  BANK1
      +1  BANK12  BANK13  BANK14  BANK15  BANK16  BANK17  BANK18  BANK19  BANK20  BANK21  BANK22  BANK23  BANK24  BANK25
  4953 ;;      Params:         0       2       0       0       0       0       0       0       0       0       0       0       
      +0       0       0       0       0       0       0       0       0       0       0       0       0       0       0
  4954 ;;      Locals:         0       8       0       0       0       0       0       0       0       0       0       0       
      +0       0       0       0       0       0       0       0       0       0       0       0       0       0       0
  4955 ;;      Temps:          0       4       0       0       0       0       0       0       0       0       0       0       
      +0       0       0       0       0       0       0       0       0       0       0       0       0       0       0
  4956 ;;      Totals:         0      14       0       0       0       0       0       0       0       0       0       0       
      +0       0       0       0       0       0       0       0       0       0       0       0       0       0       0
  4957 ;;Total ram usage:       14 bytes
  4958 ;; Hardware stack levels used: 1
  4959 ;; Hardware stack levels required when called: 3
  4960 ;; This function calls:
  4961 ;;		___lldiv
  4962 ;;		___llmod
  4963 ;;		_fputc
  4964 ;; This function is called by:
  4965 ;;		_vfprintf
  4966 ;; This function uses a non-reentrant model
  4967 ;;
  4968                           
  4969     0B81                     _vfpfcnvrt:	
  4970                           ;psect for function _vfpfcnvrt
  4971                           
  4972                           
  4973                           ;incstack = 0
  4974                           ; Regs used in _vfpfcnvrt: [wreg-fsr1h+status,2+status,0+pclath+cstack]
  4975                           ;vfpfcnvrt@fp stored from wreg
  4976     0B81  0020               	movlb	0	; select bank0
  4977     0B82  00A6               	movwf	vfpfcnvrt@fp
  4978     0B83                     l2072:
  4979                           
  4980                           ;C:\Program Files\Microchip\xc8\v2.46\pic\sources\c99\common\doprnt.c: 1177: vfpfcnvrt(F
      +                          ILE *fp, char *fmt[], va_list ap);C:\Program Files\Microchip\xc8\v2.46\pic\sources\c99\c
      +                          ommon\doprnt.c: 1178: {;C:\Program Files\Microchip\xc8\v2.46\pic\sources\c99\common\dopr
      +                          nt.c: 1179:     char c, *cp;;C:\Program Files\Microchip\xc8\v2.46\pic\sources\c99\common
      +                          \doprnt.c: 1180:     _Bool done;;C:\Program Files\Microchip\xc8\v2.46\pic\sources\c99\co
      +                          mmon\doprnt.c: 1188:  } convarg;;C:\Program Files\Microchip\xc8\v2.46\pic\sources\c99\co
      +                          mmon\doprnt.c: 1201:     if ((*fmt)[0] == '%') {
  4981     0B83  0820               	movf	vfpfcnvrt@fmt,w
  4982     0B84  0086               	movwf	6
  4983     0B85  0187               	clrf	7
  4984     0B86  3F40               	moviw [0]fsr1
  4985     0B87  00A2               	movwf	??_vfpfcnvrt
  4986     0B88  3F41               	moviw [1]fsr1
  4987     0B89  00A3               	movwf	??_vfpfcnvrt+1
  4988     0B8A  0822               	movf	??_vfpfcnvrt,w
  4989     0B8B  0084               	movwf	4
  4990     0B8C  0823               	movf	??_vfpfcnvrt+1,w
  4991     0B8D  0085               	movwf	5
  4992     0B8E  0012               	moviw fsr0++
  4993     0B8F  3A25               	xorlw	37
  4994     0B90  1D03               	btfss	3,2
  4995     0B91  2B93               	goto	u2281
  4996     0B92  2B94               	goto	u2280
  4997     0B93                     u2281:
  4998     0B93  2C86               	goto	l2130
  4999     0B94                     u2280:
  5000     0B94                     l2074:
  5001                           
  5002                           ;C:\Program Files\Microchip\xc8\v2.46\pic\sources\c99\common\doprnt.c: 1202:         ++*
      +                          fmt;
  5003     0B94  0820               	movf	vfpfcnvrt@fmt,w
  5004     0B95  0086               	movwf	6
  5005     0B96  0187               	clrf	7
  5006     0B97  3001               	movlw	1
  5007     0B98  0781               	addwf	1,f
  5008     0B99  3141               	addfsr 1,1
  5009     0B9A  1803               	skipnc
  5010     0B9B  0A81               	incf	1,f
  5011     0B9C                     l2076:
  5012                           
  5013                           ;C:\Program Files\Microchip\xc8\v2.46\pic\sources\c99\common\doprnt.c: 1204:         fla
      +                          gs = width = 0;
  5014     0B9C  01E9               	clrf	_width
  5015     0B9D  01EA               	clrf	_width+1
  5016     0B9E  1003               	clrc
  5017     0B9F  3000               	movlw	0
  5018     0BA0  1803               	btfsc	3,0
  5019     0BA1  3001               	movlw	1
  5020     0BA2  00ED               	movwf	_flags
  5021     0BA3                     l2078:
  5022                           
  5023                           ;C:\Program Files\Microchip\xc8\v2.46\pic\sources\c99\common\doprnt.c: 1205:         pre
      +                          c = -1;
  5024     0BA3  30FF               	movlw	255
  5025     0BA4  00EB               	movwf	_prec
  5026     0BA5  30FF               	movlw	255
  5027     0BA6  00EC               	movwf	_prec+1
  5028     0BA7                     l2080:
  5029                           
  5030                           ;C:\Program Files\Microchip\xc8\v2.46\pic\sources\c99\common\doprnt.c: 1291:   cp = *fmt
      +                          ;
  5031     0BA7  0820               	movf	vfpfcnvrt@fmt,w
  5032     0BA8  0086               	movwf	6
  5033     0BA9  0187               	clrf	7
  5034     0BAA  3F40               	moviw [0]fsr1
  5035     0BAB  00AB               	movwf	vfpfcnvrt@cp
  5036     0BAC  3F41               	moviw [1]fsr1
  5037     0BAD  00AC               	movwf	vfpfcnvrt@cp+1
  5038     0BAE                     l2082:
  5039                           
  5040                           ;C:\Program Files\Microchip\xc8\v2.46\pic\sources\c99\common\doprnt.c: 1293:   c = *cp;
  5041     0BAE  082B               	movf	vfpfcnvrt@cp,w
  5042     0BAF  0084               	movwf	4
  5043     0BB0  082C               	movf	vfpfcnvrt@cp+1,w
  5044     0BB1  0085               	movwf	5
  5045     0BB2  0800               	movf	0,w	;code access
  5046     0BB3  00AD               	movwf	vfpfcnvrt@c
  5047                           
  5048                           ;C:\Program Files\Microchip\xc8\v2.46\pic\sources\c99\common\doprnt.c: 1294:   switch(c)
      +                           {
  5049     0BB4  2BBF               	goto	l2092
  5050     0BB5                     l2084:
  5051                           
  5052                           ;C:\Program Files\Microchip\xc8\v2.46\pic\sources\c99\common\doprnt.c: 1309:     cp++;
  5053     0BB5  3001               	movlw	1
  5054     0BB6  07AB               	addwf	vfpfcnvrt@cp,f
  5055     0BB7  3000               	movlw	0
  5056     0BB8  3DAC               	addwfc	vfpfcnvrt@cp+1,f
  5057                           
  5058                           ;C:\Program Files\Microchip\xc8\v2.46\pic\sources\c99\common\doprnt.c: 1316:     break;
  5059     0BB9  2BC7               	goto	l2094
  5060     0BBA                     l2086:
  5061                           
  5062                           ;C:\Program Files\Microchip\xc8\v2.46\pic\sources\c99\common\doprnt.c: 1350:     c = 'i'
      +                          ;
  5063     0BBA  3069               	movlw	105
  5064     0BBB  00AD               	movwf	vfpfcnvrt@c
  5065                           
  5066                           ;C:\Program Files\Microchip\xc8\v2.46\pic\sources\c99\common\doprnt.c: 1351:     break;
  5067     0BBC  2BC7               	goto	l2094
  5068     0BBD                     l2088:
  5069                           
  5070                           ;C:\Program Files\Microchip\xc8\v2.46\pic\sources\c99\common\doprnt.c: 1353:     c = 0;
  5071     0BBD  01AD               	clrf	vfpfcnvrt@c
  5072                           
  5073                           ;C:\Program Files\Microchip\xc8\v2.46\pic\sources\c99\common\doprnt.c: 1354:     break;
  5074     0BBE  2BC7               	goto	l2094
  5075     0BBF                     l2092:
  5076     0BBF  082D               	movf	vfpfcnvrt@c,w
  5077                           
  5078                           ; Switch size 1, requested type "simple"
  5079                           ; Number of cases is 2, Range of values is 108 to 117
  5080                           ; switch strategies available:
  5081                           ; Name         Instructions Cycles
  5082                           ; simple_byte            7     4 (average)
  5083                           ; direct_byte           29     9 (fixed)
  5084                           ; jumptable            263     9 (fixed)
  5085                           ;	Chosen strategy is simple_byte
  5086     0BC0  3A6C               	xorlw	108	; case 108
  5087     0BC1  1903               	skipnz
  5088     0BC2  2BB5               	goto	l2084
  5089     0BC3  3A19               	xorlw	25	; case 117
  5090     0BC4  1903               	skipnz
  5091     0BC5  2BBA               	goto	l2086
  5092     0BC6  2BBD               	goto	l2088
  5093     0BC7                     l2094:
  5094     0BC7  082B               	movf	vfpfcnvrt@cp,w
  5095     0BC8  0084               	movwf	4
  5096     0BC9  082C               	movf	vfpfcnvrt@cp+1,w
  5097     0BCA  0085               	movwf	5
  5098     0BCB  0012               	moviw fsr0++
  5099     0BCC  3A75               	xorlw	117
  5100     0BCD  1D03               	btfss	3,2
  5101     0BCE  2BD0               	goto	u2291
  5102     0BCF  2BD1               	goto	u2290
  5103     0BD0                     u2291:
  5104     0BD0  2C7C               	goto	l2126
  5105     0BD1                     u2290:
  5106     0BD1  2BF6               	goto	l2102
  5107     0BD2                     l2096:
  5108                           
  5109                           ;C:\Program Files\Microchip\xc8\v2.46\pic\sources\c99\common\doprnt.c: 1456:      convar
      +                          g.uint = (vfpf_uint_t)(unsigned int)(*(unsigned int *)__va_arg(*(unsigned int **)ap, (un
      +                          signed int)0));
  5110     0BD2  0821               	movf	vfpfcnvrt@ap,w
  5111     0BD3  0086               	movwf	6
  5112     0BD4  0187               	clrf	7
  5113     0BD5  0801               	movf	1,w
  5114     0BD6  0084               	movwf	4
  5115     0BD7  0185               	clrf	5
  5116     0BD8  3002               	movlw	2
  5117     0BD9  0781               	addwf	1,f
  5118     0BDA  3F00               	moviw [0]fsr0
  5119     0BDB  00A2               	movwf	??_vfpfcnvrt
  5120     0BDC  3F01               	moviw [1]fsr0
  5121     0BDD  00A3               	movwf	??_vfpfcnvrt+1
  5122     0BDE  0822               	movf	??_vfpfcnvrt,w
  5123     0BDF  00A7               	movwf	vfpfcnvrt@convarg
  5124     0BE0  0823               	movf	??_vfpfcnvrt+1,w
  5125     0BE1  00A8               	movwf	vfpfcnvrt@convarg+1
  5126     0BE2  01A9               	clrf	vfpfcnvrt@convarg+2
  5127     0BE3  01AA               	clrf	vfpfcnvrt@convarg+3
  5128                           
  5129                           ;C:\Program Files\Microchip\xc8\v2.46\pic\sources\c99\common\doprnt.c: 1457:      break;
  5130     0BE4  2BFE               	goto	l2104
  5131     0BE5                     l2098:
  5132                           
  5133                           ;C:\Program Files\Microchip\xc8\v2.46\pic\sources\c99\common\doprnt.c: 1470:      convar
      +                          g.uint = (vfpf_uint_t)(*(unsigned long *)__va_arg(*(unsigned long **)ap, (unsigned long)
      +                          0));
  5134     0BE5  0821               	movf	vfpfcnvrt@ap,w
  5135     0BE6  0086               	movwf	6
  5136     0BE7  0187               	clrf	7
  5137     0BE8  0801               	movf	1,w
  5138     0BE9  0084               	movwf	4
  5139     0BEA  0185               	clrf	5
  5140     0BEB  3004               	movlw	4
  5141     0BEC  0781               	addwf	1,f
  5142     0BED  3F00               	moviw [0]fsr0
  5143     0BEE  00A7               	movwf	vfpfcnvrt@convarg
  5144     0BEF  3F01               	moviw [1]fsr0
  5145     0BF0  00A8               	movwf	vfpfcnvrt@convarg+1
  5146     0BF1  3F02               	moviw [2]fsr0
  5147     0BF2  00A9               	movwf	vfpfcnvrt@convarg+2
  5148     0BF3  3F03               	moviw [3]fsr0
  5149     0BF4  00AA               	movwf	vfpfcnvrt@convarg+3
  5150                           
  5151                           ;C:\Program Files\Microchip\xc8\v2.46\pic\sources\c99\common\doprnt.c: 1471:      break;
  5152     0BF5  2BFE               	goto	l2104
  5153     0BF6                     l2102:
  5154     0BF6  082D               	movf	vfpfcnvrt@c,w
  5155                           
  5156                           ; Switch size 1, requested type "simple"
  5157                           ; Number of cases is 2, Range of values is 105 to 108
  5158                           ; switch strategies available:
  5159                           ; Name         Instructions Cycles
  5160                           ; simple_byte            7     4 (average)
  5161                           ; direct_byte           17     9 (fixed)
  5162                           ; jumptable            263     9 (fixed)
  5163                           ;	Chosen strategy is simple_byte
  5164     0BF7  3A69               	xorlw	105	; case 105
  5165     0BF8  1903               	skipnz
  5166     0BF9  2BD2               	goto	l2096
  5167     0BFA  3A05               	xorlw	5	; case 108
  5168     0BFB  1903               	skipnz
  5169     0BFC  2BE5               	goto	l2098
  5170     0BFD  2BFE               	goto	l2104
  5171     0BFE                     l2104:
  5172                           
  5173                           ;C:\Program Files\Microchip\xc8\v2.46\pic\sources\c99\common\doprnt.c: 1497:    *fmt = c
      +                          p+1;
  5174     0BFE  082B               	movf	vfpfcnvrt@cp,w
  5175     0BFF  3E01               	addlw	1
  5176     0C00  00A2               	movwf	??_vfpfcnvrt
  5177     0C01  3000               	movlw	0
  5178     0C02  3D2C               	addwfc	vfpfcnvrt@cp+1,w
  5179     0C03  00A3               	movwf	??_vfpfcnvrt+1
  5180     0C04  0820               	movf	vfpfcnvrt@fmt,w
  5181     0C05  0086               	movwf	6
  5182     0C06  0187               	clrf	7
  5183     0C07  0822               	movf	??_vfpfcnvrt,w
  5184     0C08  3FC0               	movwi [0]fsr1
  5185     0C09  0823               	movf	??_vfpfcnvrt+1,w
  5186     0C0A  3FC1               	movwi [1]fsr1
  5187                           
  5188                           ;C:\Program Files\Microchip\xc8\v2.46\pic\sources\c99\common\doprnt.c: 1498:    switch (
      +                          *cp) {
  5189     0C0B  2C73               	goto	l2124
  5190     0C0C                     l2106:
  5191                           
  5192                           ;C:\Program Files\Microchip\xc8\v2.46\pic\sources\c99\common\doprnt.c: 1525:      c = si
      +                          zeof(dbuf);
  5193     0C0C  3020               	movlw	32
  5194     0C0D  00AD               	movwf	vfpfcnvrt@c
  5195     0C0E                     l2108:
  5196                           
  5197                           ;C:\Program Files\Microchip\xc8\v2.46\pic\sources\c99\common\doprnt.c: 1527:       dbuf[
      +                          --c] = (convarg.uint % 10) + '0';
  5198     0C0E  3001               	movlw	1
  5199     0C0F  02AD               	subwf	vfpfcnvrt@c,f
  5200     0C10  082D               	movf	vfpfcnvrt@c,w
  5201     0C11  3E20               	addlw	(low (_dbuf| (0+256)))& (0+255)
  5202     0C12  0086               	movwf	6
  5203     0C13  3001               	movlw	1	; select bank2/3
  5204     0C14  0087               	movwf	7
  5205     0C15  3000               	movlw	0
  5206     0C16  00F3               	movwf	___llmod@divisor+3
  5207     0C17  3000               	movlw	0
  5208     0C18  00F2               	movwf	___llmod@divisor+2
  5209     0C19  3000               	movlw	0
  5210     0C1A  00F1               	movwf	___llmod@divisor+1
  5211     0C1B  300A               	movlw	10
  5212     0C1C  00F0               	movwf	___llmod@divisor
  5213     0C1D  082A               	movf	vfpfcnvrt@convarg+3,w
  5214     0C1E  00F7               	movwf	___llmod@dividend+3
  5215     0C1F  0829               	movf	vfpfcnvrt@convarg+2,w
  5216     0C20  00F6               	movwf	___llmod@dividend+2
  5217     0C21  0828               	movf	vfpfcnvrt@convarg+1,w
  5218     0C22  00F5               	movwf	___llmod@dividend+1
  5219     0C23  0827               	movf	vfpfcnvrt@convarg,w
  5220     0C24  00F4               	movwf	___llmod@dividend
  5221     0C25  3196  2610  318B   	fcall	___llmod
  5222     0C28  0870               	movf	?___llmod,w
  5223     0C29  3E30               	addlw	48
  5224     0C2A  0081               	movwf	1
  5225     0C2B                     l2110:
  5226                           
  5227                           ;C:\Program Files\Microchip\xc8\v2.46\pic\sources\c99\common\doprnt.c: 1528:       conva
      +                          rg.uint /= 10;
  5228     0C2B  3000               	movlw	0
  5229     0C2C  00F3               	movwf	___lldiv@divisor+3
  5230     0C2D  3000               	movlw	0
  5231     0C2E  00F2               	movwf	___lldiv@divisor+2
  5232     0C2F  3000               	movlw	0
  5233     0C30  00F1               	movwf	___lldiv@divisor+1
  5234     0C31  300A               	movlw	10
  5235     0C32  00F0               	movwf	___lldiv@divisor
  5236     0C33  0020               	movlb	0	; select bank0
  5237     0C34  082A               	movf	vfpfcnvrt@convarg+3,w
  5238     0C35  00F7               	movwf	___lldiv@dividend+3
  5239     0C36  0829               	movf	vfpfcnvrt@convarg+2,w
  5240     0C37  00F6               	movwf	___lldiv@dividend+2
  5241     0C38  0828               	movf	vfpfcnvrt@convarg+1,w
  5242     0C39  00F5               	movwf	___lldiv@dividend+1
  5243     0C3A  0827               	movf	vfpfcnvrt@convarg,w
  5244     0C3B  00F4               	movwf	___lldiv@dividend
  5245     0C3C  3188  2001  318B   	fcall	___lldiv
  5246     0C3F  0873               	movf	?___lldiv+3,w
  5247     0C40  0020               	movlb	0	; select bank0
  5248     0C41  00AA               	movwf	vfpfcnvrt@convarg+3
  5249     0C42  0872               	movf	?___lldiv+2,w
  5250     0C43  00A9               	movwf	vfpfcnvrt@convarg+2
  5251     0C44  0871               	movf	?___lldiv+1,w
  5252     0C45  00A8               	movwf	vfpfcnvrt@convarg+1
  5253     0C46  0870               	movf	?___lldiv,w
  5254     0C47  00A7               	movwf	vfpfcnvrt@convarg
  5255     0C48                     l2112:
  5256                           
  5257                           ;C:\Program Files\Microchip\xc8\v2.46\pic\sources\c99\common\doprnt.c: 1532:      } whil
      +                          e (convarg.uint != 0 && c != 0);
  5258     0C48  082A               	movf	vfpfcnvrt@convarg+3,w
  5259     0C49  0429               	iorwf	vfpfcnvrt@convarg+2,w
  5260     0C4A  0428               	iorwf	vfpfcnvrt@convarg+1,w
  5261     0C4B  0427               	iorwf	vfpfcnvrt@convarg,w
  5262     0C4C  1903               	skipnz
  5263     0C4D  2C4F               	goto	u2301
  5264     0C4E  2C50               	goto	u2300
  5265     0C4F                     u2301:
  5266     0C4F  2C6C               	goto	l2120
  5267     0C50                     u2300:
  5268     0C50                     l2114:
  5269     0C50  082D               	movf	vfpfcnvrt@c,w
  5270     0C51  1D03               	btfss	3,2
  5271     0C52  2C54               	goto	u2311
  5272     0C53  2C55               	goto	u2310
  5273     0C54                     u2311:
  5274     0C54  2C0E               	goto	l2108
  5275     0C55                     u2310:
  5276     0C55  2C6C               	goto	l2120
  5277     0C56                     l2116:
  5278                           
  5279                           ;C:\Program Files\Microchip\xc8\v2.46\pic\sources\c99\common\doprnt.c: 1534:       fputc
      +                          (dbuf[c++], fp);
  5280     0C56  082D               	movf	vfpfcnvrt@c,w
  5281     0C57  3E20               	addlw	(low (_dbuf| (0+256)))& (0+255)
  5282     0C58  0086               	movwf	6
  5283     0C59  3001               	movlw	1	; select bank2/3
  5284     0C5A  0087               	movwf	7
  5285     0C5B  0801               	movf	1,w
  5286     0C5C  00A2               	movwf	??_vfpfcnvrt
  5287     0C5D  01A3               	clrf	??_vfpfcnvrt+1
  5288     0C5E  0822               	movf	??_vfpfcnvrt,w
  5289     0C5F  00F0               	movwf	fputc@c
  5290     0C60  0823               	movf	??_vfpfcnvrt+1,w
  5291     0C61  00F1               	movwf	fputc@c+1
  5292     0C62  0826               	movf	vfpfcnvrt@fp,w
  5293     0C63  00F2               	movwf	fputc@fp
  5294     0C64  3196  265A  318B   	fcall	_fputc
  5295     0C67                     l2118:
  5296     0C67  3001               	movlw	1
  5297     0C68  0020               	movlb	0	; select bank0
  5298     0C69  00A2               	movwf	??_vfpfcnvrt
  5299     0C6A  0822               	movf	??_vfpfcnvrt,w
  5300     0C6B  07AD               	addwf	vfpfcnvrt@c,f
  5301     0C6C                     l2120:
  5302                           
  5303                           ;C:\Program Files\Microchip\xc8\v2.46\pic\sources\c99\common\doprnt.c: 1533:      while 
      +                          (c != sizeof(dbuf)) {
  5304     0C6C  3020               	movlw	32
  5305     0C6D  062D               	xorwf	vfpfcnvrt@c,w
  5306     0C6E  1D03               	btfss	3,2
  5307     0C6F  2C71               	goto	u2321
  5308     0C70  2C72               	goto	u2320
  5309     0C71                     u2321:
  5310     0C71  2C56               	goto	l2116
  5311     0C72                     u2320:
  5312     0C72  2C9E               	goto	l788
  5313     0C73                     l2124:
  5314     0C73  082B               	movf	vfpfcnvrt@cp,w
  5315     0C74  0084               	movwf	4
  5316     0C75  082C               	movf	vfpfcnvrt@cp+1,w
  5317     0C76  0085               	movwf	5
  5318     0C77  0800               	movf	0,w	;code access
  5319                           
  5320                           ; Switch size 1, requested type "simple"
  5321                           ; Number of cases is 1, Range of values is 117 to 117
  5322                           ; switch strategies available:
  5323                           ; Name         Instructions Cycles
  5324                           ; simple_byte            4     3 (average)
  5325                           ; direct_byte           11     9 (fixed)
  5326                           ; jumptable            263     9 (fixed)
  5327                           ;	Chosen strategy is simple_byte
  5328     0C78  3A75               	xorlw	117	; case 117
  5329     0C79  1903               	skipnz
  5330     0C7A  2C0C               	goto	l2106
  5331     0C7B  2C7C               	goto	l2126
  5332     0C7C                     l2126:
  5333                           
  5334                           ;C:\Program Files\Microchip\xc8\v2.46\pic\sources\c99\common\doprnt.c: 1806:         ++*
      +                          fmt;
  5335     0C7C  0020               	movlb	0	; select bank0
  5336     0C7D  0820               	movf	vfpfcnvrt@fmt,w
  5337     0C7E  0086               	movwf	6
  5338     0C7F  0187               	clrf	7
  5339     0C80  3001               	movlw	1
  5340     0C81  0781               	addwf	1,f
  5341     0C82  3141               	addfsr 1,1
  5342     0C83  1803               	skipnc
  5343     0C84  0A81               	incf	1,f
  5344     0C85  2C9E               	goto	l788
  5345     0C86                     l2130:
  5346                           
  5347                           ;C:\Program Files\Microchip\xc8\v2.46\pic\sources\c99\common\doprnt.c: 1811:     fputc((
      +                          int)(*fmt)[0], fp);
  5348     0C86  0820               	movf	vfpfcnvrt@fmt,w
  5349     0C87  0086               	movwf	6
  5350     0C88  0187               	clrf	7
  5351     0C89  3F40               	moviw [0]fsr1
  5352     0C8A  00A2               	movwf	??_vfpfcnvrt
  5353     0C8B  3F41               	moviw [1]fsr1
  5354     0C8C  00A3               	movwf	??_vfpfcnvrt+1
  5355     0C8D  0822               	movf	??_vfpfcnvrt,w
  5356     0C8E  0084               	movwf	4
  5357     0C8F  0823               	movf	??_vfpfcnvrt+1,w
  5358     0C90  0085               	movwf	5
  5359     0C91  0800               	movf	0,w	;code access
  5360     0C92  00A4               	movwf	??_vfpfcnvrt+2
  5361     0C93  01A5               	clrf	??_vfpfcnvrt+3
  5362     0C94  0824               	movf	??_vfpfcnvrt+2,w
  5363     0C95  00F0               	movwf	fputc@c
  5364     0C96  0825               	movf	??_vfpfcnvrt+3,w
  5365     0C97  00F1               	movwf	fputc@c+1
  5366     0C98  0826               	movf	vfpfcnvrt@fp,w
  5367     0C99  00F2               	movwf	fputc@fp
  5368     0C9A  3196  265A  318B   	fcall	_fputc
  5369     0C9D  2C7C               	goto	l2126
  5370     0C9E                     l788:
  5371     0C9E  0008               	return
  5372     0C9F                     __end_of_vfpfcnvrt:
  5373                           
  5374                           	psect	text12
  5375     165A                     __ptext12:	
  5376 ;; *************** function _fputc *****************
  5377 ;; Defined at:
  5378 ;;		line 8 in file "C:\Program Files\Microchip\xc8\v2.46\pic\sources\c99\common\nf_fputc.c"
  5379 ;; Parameters:    Size  Location     Type
  5380 ;;  c               2    0[COMMON] int 
  5381 ;;  fp              1    2[COMMON] PTR struct _IO_FILE
  5382 ;;		 -> sprintf@f(11), 
  5383 ;; Auto vars:     Size  Location     Type
  5384 ;;		None
  5385 ;; Return value:  Size  Location     Type
  5386 ;;                  2    0[COMMON] int 
  5387 ;; Registers used:
  5388 ;;		wreg, fsr0l, fsr0h, fsr1l, fsr1h, status,2, status,0, pclath, cstack
  5389 ;; Tracked objects:
  5390 ;;		On entry : 0/0
  5391 ;;		On exit  : 0/0
  5392 ;;		Unchanged: 0/0
  5393 ;; Data sizes:     COMMON   BANK0   BANK1   BANK2   BANK3   BANK4   BANK5   BANK6   BANK7   BANK8   BANK9  BANK10  BANK1
      +1  BANK12  BANK13  BANK14  BANK15  BANK16  BANK17  BANK18  BANK19  BANK20  BANK21  BANK22  BANK23  BANK24  BANK25
  5394 ;;      Params:         3       0       0       0       0       0       0       0       0       0       0       0       
      +0       0       0       0       0       0       0       0       0       0       0       0       0       0       0
  5395 ;;      Locals:         0       0       0       0       0       0       0       0       0       0       0       0       
      +0       0       0       0       0       0       0       0       0       0       0       0       0       0       0
  5396 ;;      Temps:          5       0       0       0       0       0       0       0       0       0       0       0       
      +0       0       0       0       0       0       0       0       0       0       0       0       0       0       0
  5397 ;;      Totals:         8       0       0       0       0       0       0       0       0       0       0       0       
      +0       0       0       0       0       0       0       0       0       0       0       0       0       0       0
  5398 ;;Total ram usage:        8 bytes
  5399 ;; Hardware stack levels used: 1
  5400 ;; Hardware stack levels required when called: 2
  5401 ;; This function calls:
  5402 ;;		_putch
  5403 ;; This function is called by:
  5404 ;;		_vfpfcnvrt
  5405 ;; This function uses a non-reentrant model
  5406 ;;
  5407                           
  5408     165A                     _fputc:	
  5409                           ;psect for function _fputc
  5410                           
  5411     165A                     l2056:	
  5412                           ;incstack = 0
  5413                           ; Regs used in _fputc: [wreg-fsr1h+status,2+status,0+pclath+cstack]
  5414                           
  5415     165A  0872               	movf	fputc@fp,w
  5416     165B  1903               	btfsc	3,2
  5417     165C  2E5E               	goto	u2241
  5418     165D  2E5F               	goto	u2240
  5419     165E                     u2241:
  5420     165E  2E64               	goto	l2060
  5421     165F                     u2240:
  5422     165F                     l2058:
  5423     165F  0872               	movf	fputc@fp,w
  5424     1660  1D03               	btfss	3,2
  5425     1661  2E63               	goto	u2251
  5426     1662  2E64               	goto	u2250
  5427     1663                     u2251:
  5428     1663  2E69               	goto	l2062
  5429     1664                     u2250:
  5430     1664                     l2060:
  5431     1664  0870               	movf	fputc@c,w
  5432     1665  3187  27FE  3196   	fcall	_putch
  5433     1668  2EA9               	goto	l807
  5434     1669                     l2062:
  5435     1669  0872               	movf	fputc@fp,w
  5436     166A  3E09               	addlw	9
  5437     166B  0086               	movwf	6
  5438     166C  0187               	clrf	7
  5439     166D  0016               	moviw fsr1++
  5440     166E  0401               	iorwf	1,w
  5441     166F  1903               	btfsc	3,2
  5442     1670  2E72               	goto	u2261
  5443     1671  2E73               	goto	u2260
  5444     1672                     u2261:
  5445     1672  2E91               	goto	l2066
  5446     1673                     u2260:
  5447     1673                     l2064:
  5448     1673  0872               	movf	fputc@fp,w
  5449     1674  3E09               	addlw	9
  5450     1675  0086               	movwf	6
  5451     1676  0187               	clrf	7
  5452     1677  3F40               	moviw [0]fsr1
  5453     1678  00F3               	movwf	??_fputc
  5454     1679  3F41               	moviw [1]fsr1
  5455     167A  00F4               	movwf	??_fputc+1
  5456     167B  0872               	movf	fputc@fp,w
  5457     167C  3E02               	addlw	2
  5458     167D  0086               	movwf	6
  5459     167E  0187               	clrf	7
  5460     167F  3F40               	moviw [0]fsr1
  5461     1680  00F5               	movwf	??_fputc+2
  5462     1681  3F41               	moviw [1]fsr1
  5463     1682  00F6               	movwf	??_fputc+3
  5464     1683  0876               	movf	??_fputc+3,w
  5465     1684  3A80               	xorlw	128
  5466     1685  00F7               	movwf	??_fputc+4
  5467     1686  0874               	movf	??_fputc+1,w
  5468     1687  3A80               	xorlw	128
  5469     1688  0277               	subwf	??_fputc+4,w
  5470     1689  1D03               	skipz
  5471     168A  2E8D               	goto	u2275
  5472     168B  0873               	movf	??_fputc,w
  5473     168C  0275               	subwf	??_fputc+2,w
  5474     168D                     u2275:
  5475     168D  1803               	skipnc
  5476     168E  2E90               	goto	u2271
  5477     168F  2E91               	goto	u2270
  5478     1690                     u2271:
  5479     1690  2EA9               	goto	l807
  5480     1691                     u2270:
  5481     1691                     l2066:
  5482     1691  0872               	movf	fputc@fp,w
  5483     1692  0086               	movwf	6
  5484     1693  0187               	clrf	7
  5485     1694  0872               	movf	fputc@fp,w
  5486     1695  3E02               	addlw	2
  5487     1696  0084               	movwf	4
  5488     1697  0185               	clrf	5
  5489     1698  0800               	movf	0,w
  5490     1699  0701               	addwf	1,w
  5491     169A  00F3               	movwf	??_fputc
  5492     169B  0873               	movf	??_fputc,w
  5493     169C  0086               	movwf	6
  5494     169D  0187               	clrf	7
  5495     169E  0870               	movf	fputc@c,w
  5496     169F  0081               	movwf	1
  5497     16A0                     l2068:
  5498     16A0  0872               	movf	fputc@fp,w
  5499     16A1  3E02               	addlw	2
  5500     16A2  0086               	movwf	6
  5501     16A3  0187               	clrf	7
  5502     16A4  3001               	movlw	1
  5503     16A5  0781               	addwf	1,f
  5504     16A6  3141               	addfsr 1,1
  5505     16A7  1803               	skipnc
  5506     16A8  0A81               	incf	1,f
  5507     16A9                     l807:
  5508     16A9  0008               	return
  5509     16AA                     __end_of_fputc:
  5510                           
  5511                           	psect	text13
  5512     07FE                     __ptext13:	
  5513 ;; *************** function _putch *****************
  5514 ;; Defined at:
  5515 ;;		line 7 in file "C:\Program Files\Microchip\xc8\v2.46\pic\sources\c99\common\putch.c"
  5516 ;; Parameters:    Size  Location     Type
  5517 ;;  c               1    wreg     unsigned char 
  5518 ;; Auto vars:     Size  Location     Type
  5519 ;;  c               1    0[COMMON] unsigned char 
  5520 ;; Return value:  Size  Location     Type
  5521 ;;                  1    wreg      void 
  5522 ;; Registers used:
  5523 ;;		wreg
  5524 ;; Tracked objects:
  5525 ;;		On entry : 0/0
  5526 ;;		On exit  : 0/0
  5527 ;;		Unchanged: 0/0
  5528 ;; Data sizes:     COMMON   BANK0   BANK1   BANK2   BANK3   BANK4   BANK5   BANK6   BANK7   BANK8   BANK9  BANK10  BANK1
      +1  BANK12  BANK13  BANK14  BANK15  BANK16  BANK17  BANK18  BANK19  BANK20  BANK21  BANK22  BANK23  BANK24  BANK25
  5529 ;;      Params:         0       0       0       0       0       0       0       0       0       0       0       0       
      +0       0       0       0       0       0       0       0       0       0       0       0       0       0       0
  5530 ;;      Locals:         0       0       0       0       0       0       0       0       0       0       0       0       
      +0       0       0       0       0       0       0       0       0       0       0       0       0       0       0
  5531 ;;      Temps:          0       0       0       0       0       0       0       0       0       0       0       0       
      +0       0       0       0       0       0       0       0       0       0       0       0       0       0       0
  5532 ;;      Totals:         0       0       0       0       0       0       0       0       0       0       0       0       
      +0       0       0       0       0       0       0       0       0       0       0       0       0       0       0
  5533 ;;Total ram usage:        0 bytes
  5534 ;; Hardware stack levels used: 1
  5535 ;; Hardware stack levels required when called: 1
  5536 ;; This function calls:
  5537 ;;		Nothing
  5538 ;; This function is called by:
  5539 ;;		_fputc
  5540 ;; This function uses a non-reentrant model
  5541 ;;
  5542                           
  5543     07FE                     _putch:	
  5544                           ;psect for function _putch
  5545                           
  5546     07FE                     l818:	
  5547                           ;incstack = 0
  5548                           ; Regs used in _putch: [wreg]
  5549                           
  5550     07FE  0008               	return
  5551     07FF                     __end_of_putch:
  5552                           
  5553                           	psect	text14
  5554     1610                     __ptext14:	
  5555 ;; *************** function ___llmod *****************
  5556 ;; Defined at:
  5557 ;;		line 5 in file "C:\Program Files\Microchip\xc8\v2.46\pic\sources\c99\common\llmod.c"
  5558 ;; Parameters:    Size  Location     Type
  5559 ;;  divisor         4    0[COMMON] unsigned long 
  5560 ;;  dividend        4    4[COMMON] unsigned long 
  5561 ;; Auto vars:     Size  Location     Type
  5562 ;;  counter         1    9[COMMON] unsigned char 
  5563 ;; Return value:  Size  Location     Type
  5564 ;;                  4    0[COMMON] unsigned long 
  5565 ;; Registers used:
  5566 ;;		wreg, status,2, status,0
  5567 ;; Tracked objects:
  5568 ;;		On entry : 0/0
  5569 ;;		On exit  : 0/0
  5570 ;;		Unchanged: 0/0
  5571 ;; Data sizes:     COMMON   BANK0   BANK1   BANK2   BANK3   BANK4   BANK5   BANK6   BANK7   BANK8   BANK9  BANK10  BANK1
      +1  BANK12  BANK13  BANK14  BANK15  BANK16  BANK17  BANK18  BANK19  BANK20  BANK21  BANK22  BANK23  BANK24  BANK25
  5572 ;;      Params:         8       0       0       0       0       0       0       0       0       0       0       0       
      +0       0       0       0       0       0       0       0       0       0       0       0       0       0       0
  5573 ;;      Locals:         1       0       0       0       0       0       0       0       0       0       0       0       
      +0       0       0       0       0       0       0       0       0       0       0       0       0       0       0
  5574 ;;      Temps:          1       0       0       0       0       0       0       0       0       0       0       0       
      +0       0       0       0       0       0       0       0       0       0       0       0       0       0       0
  5575 ;;      Totals:        10       0       0       0       0       0       0       0       0       0       0       0       
      +0       0       0       0       0       0       0       0       0       0       0       0       0       0       0
  5576 ;;Total ram usage:       10 bytes
  5577 ;; Hardware stack levels used: 1
  5578 ;; Hardware stack levels required when called: 1
  5579 ;; This function calls:
  5580 ;;		Nothing
  5581 ;; This function is called by:
  5582 ;;		_vfpfcnvrt
  5583 ;; This function uses a non-reentrant model
  5584 ;;
  5585                           
  5586     1610                     ___llmod:	
  5587                           ;psect for function ___llmod
  5588                           
  5589     1610                     l2036:	
  5590                           ;incstack = 0
  5591                           ; Regs used in ___llmod: [wreg+status,2+status,0]
  5592                           
  5593     1610  0873               	movf	___llmod@divisor+3,w
  5594     1611  0472               	iorwf	___llmod@divisor+2,w
  5595     1612  0471               	iorwf	___llmod@divisor+1,w
  5596     1613  0470               	iorwf	___llmod@divisor,w
  5597     1614  1903               	skipnz
  5598     1615  2E17               	goto	u2181
  5599     1616  2E18               	goto	u2180
  5600     1617                     u2181:
  5601     1617  2E51               	goto	l2052
  5602     1618                     u2180:
  5603     1618                     l2038:
  5604     1618  01F9               	clrf	___llmod@counter
  5605     1619  0AF9               	incf	___llmod@counter,f
  5606     161A  2E26               	goto	l2042
  5607     161B                     l2040:
  5608     161B  3001               	movlw	1
  5609     161C                     u2195:
  5610     161C  35F0               	lslf	___llmod@divisor,f
  5611     161D  0DF1               	rlf	___llmod@divisor+1,f
  5612     161E  0DF2               	rlf	___llmod@divisor+2,f
  5613     161F  0DF3               	rlf	___llmod@divisor+3,f
  5614     1620  0B89               	decfsz	9,f
  5615     1621  2E1C               	goto	u2195
  5616     1622  3001               	movlw	1
  5617     1623  00F8               	movwf	??___llmod
  5618     1624  0878               	movf	??___llmod,w
  5619     1625  07F9               	addwf	___llmod@counter,f
  5620     1626                     l2042:
  5621     1626  1FF3               	btfss	___llmod@divisor+3,7
  5622     1627  2E29               	goto	u2201
  5623     1628  2E2A               	goto	u2200
  5624     1629                     u2201:
  5625     1629  2E1B               	goto	l2040
  5626     162A                     u2200:
  5627     162A                     l2044:
  5628     162A  0873               	movf	___llmod@divisor+3,w
  5629     162B  0277               	subwf	___llmod@dividend+3,w
  5630     162C  1D03               	skipz
  5631     162D  2E38               	goto	u2215
  5632     162E  0872               	movf	___llmod@divisor+2,w
  5633     162F  0276               	subwf	___llmod@dividend+2,w
  5634     1630  1D03               	skipz
  5635     1631  2E38               	goto	u2215
  5636     1632  0871               	movf	___llmod@divisor+1,w
  5637     1633  0275               	subwf	___llmod@dividend+1,w
  5638     1634  1D03               	skipz
  5639     1635  2E38               	goto	u2215
  5640     1636  0870               	movf	___llmod@divisor,w
  5641     1637  0274               	subwf	___llmod@dividend,w
  5642     1638                     u2215:
  5643     1638  1C03               	skipc
  5644     1639  2E3B               	goto	u2211
  5645     163A  2E3C               	goto	u2210
  5646     163B                     u2211:
  5647     163B  2E44               	goto	l2048
  5648     163C                     u2210:
  5649     163C                     l2046:
  5650     163C  0870               	movf	___llmod@divisor,w
  5651     163D  02F4               	subwf	___llmod@dividend,f
  5652     163E  0871               	movf	___llmod@divisor+1,w
  5653     163F  3BF5               	subwfb	___llmod@dividend+1,f
  5654     1640  0872               	movf	___llmod@divisor+2,w
  5655     1641  3BF6               	subwfb	___llmod@dividend+2,f
  5656     1642  0873               	movf	___llmod@divisor+3,w
  5657     1643  3BF7               	subwfb	___llmod@dividend+3,f
  5658     1644                     l2048:
  5659     1644  3001               	movlw	1
  5660     1645                     u2225:
  5661     1645  36F3               	lsrf	___llmod@divisor+3,f
  5662     1646  0CF2               	rrf	___llmod@divisor+2,f
  5663     1647  0CF1               	rrf	___llmod@divisor+1,f
  5664     1648  0CF0               	rrf	___llmod@divisor,f
  5665     1649  0B89               	decfsz	9,f
  5666     164A  2E45               	goto	u2225
  5667     164B                     l2050:
  5668     164B  3001               	movlw	1
  5669     164C  02F9               	subwf	___llmod@counter,f
  5670     164D  1D03               	btfss	3,2
  5671     164E  2E50               	goto	u2231
  5672     164F  2E51               	goto	u2230
  5673     1650                     u2231:
  5674     1650  2E2A               	goto	l2044
  5675     1651                     u2230:
  5676     1651                     l2052:
  5677     1651  0877               	movf	___llmod@dividend+3,w
  5678     1652  00F3               	movwf	?___llmod+3
  5679     1653  0876               	movf	___llmod@dividend+2,w
  5680     1654  00F2               	movwf	?___llmod+2
  5681     1655  0875               	movf	___llmod@dividend+1,w
  5682     1656  00F1               	movwf	?___llmod+1
  5683     1657  0874               	movf	___llmod@dividend,w
  5684     1658  00F0               	movwf	?___llmod
  5685     1659                     l509:
  5686     1659  0008               	return
  5687     165A                     __end_of___llmod:
  5688                           
  5689                           	psect	text15
  5690     0801                     __ptext15:	
  5691 ;; *************** function ___lldiv *****************
  5692 ;; Defined at:
  5693 ;;		line 5 in file "C:\Program Files\Microchip\xc8\v2.46\pic\sources\c99\common\__lldiv.c"
  5694 ;; Parameters:    Size  Location     Type
  5695 ;;  divisor         4    0[COMMON] unsigned long 
  5696 ;;  dividend        4    4[COMMON] unsigned long 
  5697 ;; Auto vars:     Size  Location     Type
  5698 ;;  quotient        4    9[COMMON] unsigned long 
  5699 ;;  counter         1   13[COMMON] unsigned char 
  5700 ;; Return value:  Size  Location     Type
  5701 ;;                  4    0[COMMON] unsigned long 
  5702 ;; Registers used:
  5703 ;;		wreg, status,2, status,0
  5704 ;; Tracked objects:
  5705 ;;		On entry : 0/0
  5706 ;;		On exit  : 0/0
  5707 ;;		Unchanged: 0/0
  5708 ;; Data sizes:     COMMON   BANK0   BANK1   BANK2   BANK3   BANK4   BANK5   BANK6   BANK7   BANK8   BANK9  BANK10  BANK1
      +1  BANK12  BANK13  BANK14  BANK15  BANK16  BANK17  BANK18  BANK19  BANK20  BANK21  BANK22  BANK23  BANK24  BANK25
  5709 ;;      Params:         8       0       0       0       0       0       0       0       0       0       0       0       
      +0       0       0       0       0       0       0       0       0       0       0       0       0       0       0
  5710 ;;      Locals:         5       0       0       0       0       0       0       0       0       0       0       0       
      +0       0       0       0       0       0       0       0       0       0       0       0       0       0       0
  5711 ;;      Temps:          1       0       0       0       0       0       0       0       0       0       0       0       
      +0       0       0       0       0       0       0       0       0       0       0       0       0       0       0
  5712 ;;      Totals:        14       0       0       0       0       0       0       0       0       0       0       0       
      +0       0       0       0       0       0       0       0       0       0       0       0       0       0       0
  5713 ;;Total ram usage:       14 bytes
  5714 ;; Hardware stack levels used: 1
  5715 ;; Hardware stack levels required when called: 1
  5716 ;; This function calls:
  5717 ;;		Nothing
  5718 ;; This function is called by:
  5719 ;;		_vfpfcnvrt
  5720 ;; This function uses a non-reentrant model
  5721 ;;
  5722                           
  5723     0801                     ___lldiv:	
  5724                           ;psect for function ___lldiv
  5725                           
  5726     0801                     l2012:	
  5727                           ;incstack = 0
  5728                           ; Regs used in ___lldiv: [wreg+status,2+status,0]
  5729                           
  5730     0801  3000               	movlw	0
  5731     0802  00FC               	movwf	___lldiv@quotient+3
  5732     0803  3000               	movlw	0
  5733     0804  00FB               	movwf	___lldiv@quotient+2
  5734     0805  3000               	movlw	0
  5735     0806  00FA               	movwf	___lldiv@quotient+1
  5736     0807  3000               	movlw	0
  5737     0808  00F9               	movwf	___lldiv@quotient
  5738     0809  0873               	movf	___lldiv@divisor+3,w
  5739     080A  0472               	iorwf	___lldiv@divisor+2,w
  5740     080B  0471               	iorwf	___lldiv@divisor+1,w
  5741     080C  0470               	iorwf	___lldiv@divisor,w
  5742     080D  1903               	skipnz
  5743     080E  2810               	goto	u2111
  5744     080F  2811               	goto	u2110
  5745     0810                     u2111:
  5746     0810  2852               	goto	l2032
  5747     0811                     u2110:
  5748     0811                     l2014:
  5749     0811  01FD               	clrf	___lldiv@counter
  5750     0812  0AFD               	incf	___lldiv@counter,f
  5751     0813  281F               	goto	l2018
  5752     0814                     l2016:
  5753     0814  3001               	movlw	1
  5754     0815                     u2125:
  5755     0815  35F0               	lslf	___lldiv@divisor,f
  5756     0816  0DF1               	rlf	___lldiv@divisor+1,f
  5757     0817  0DF2               	rlf	___lldiv@divisor+2,f
  5758     0818  0DF3               	rlf	___lldiv@divisor+3,f
  5759     0819  0B89               	decfsz	9,f
  5760     081A  2815               	goto	u2125
  5761     081B  3001               	movlw	1
  5762     081C  00F8               	movwf	??___lldiv
  5763     081D  0878               	movf	??___lldiv,w
  5764     081E  07FD               	addwf	___lldiv@counter,f
  5765     081F                     l2018:
  5766     081F  1FF3               	btfss	___lldiv@divisor+3,7
  5767     0820  2822               	goto	u2131
  5768     0821  2823               	goto	u2130
  5769     0822                     u2131:
  5770     0822  2814               	goto	l2016
  5771     0823                     u2130:
  5772     0823                     l2020:
  5773     0823  3001               	movlw	1
  5774     0824                     u2145:
  5775     0824  35F9               	lslf	___lldiv@quotient,f
  5776     0825  0DFA               	rlf	___lldiv@quotient+1,f
  5777     0826  0DFB               	rlf	___lldiv@quotient+2,f
  5778     0827  0DFC               	rlf	___lldiv@quotient+3,f
  5779     0828  0B89               	decfsz	9,f
  5780     0829  2824               	goto	u2145
  5781     082A                     l2022:
  5782     082A  0873               	movf	___lldiv@divisor+3,w
  5783     082B  0277               	subwf	___lldiv@dividend+3,w
  5784     082C  1D03               	skipz
  5785     082D  2838               	goto	u2155
  5786     082E  0872               	movf	___lldiv@divisor+2,w
  5787     082F  0276               	subwf	___lldiv@dividend+2,w
  5788     0830  1D03               	skipz
  5789     0831  2838               	goto	u2155
  5790     0832  0871               	movf	___lldiv@divisor+1,w
  5791     0833  0275               	subwf	___lldiv@dividend+1,w
  5792     0834  1D03               	skipz
  5793     0835  2838               	goto	u2155
  5794     0836  0870               	movf	___lldiv@divisor,w
  5795     0837  0274               	subwf	___lldiv@dividend,w
  5796     0838                     u2155:
  5797     0838  1C03               	skipc
  5798     0839  283B               	goto	u2151
  5799     083A  283C               	goto	u2150
  5800     083B                     u2151:
  5801     083B  2845               	goto	l2028
  5802     083C                     u2150:
  5803     083C                     l2024:
  5804     083C  0870               	movf	___lldiv@divisor,w
  5805     083D  02F4               	subwf	___lldiv@dividend,f
  5806     083E  0871               	movf	___lldiv@divisor+1,w
  5807     083F  3BF5               	subwfb	___lldiv@dividend+1,f
  5808     0840  0872               	movf	___lldiv@divisor+2,w
  5809     0841  3BF6               	subwfb	___lldiv@dividend+2,f
  5810     0842  0873               	movf	___lldiv@divisor+3,w
  5811     0843  3BF7               	subwfb	___lldiv@dividend+3,f
  5812     0844                     l2026:
  5813     0844  1479               	bsf	___lldiv@quotient,0
  5814     0845                     l2028:
  5815     0845  3001               	movlw	1
  5816     0846                     u2165:
  5817     0846  36F3               	lsrf	___lldiv@divisor+3,f
  5818     0847  0CF2               	rrf	___lldiv@divisor+2,f
  5819     0848  0CF1               	rrf	___lldiv@divisor+1,f
  5820     0849  0CF0               	rrf	___lldiv@divisor,f
  5821     084A  0B89               	decfsz	9,f
  5822     084B  2846               	goto	u2165
  5823     084C                     l2030:
  5824     084C  3001               	movlw	1
  5825     084D  02FD               	subwf	___lldiv@counter,f
  5826     084E  1D03               	btfss	3,2
  5827     084F  2851               	goto	u2171
  5828     0850  2852               	goto	u2170
  5829     0851                     u2171:
  5830     0851  2823               	goto	l2020
  5831     0852                     u2170:
  5832     0852                     l2032:
  5833     0852  087C               	movf	___lldiv@quotient+3,w
  5834     0853  00F3               	movwf	?___lldiv+3
  5835     0854  087B               	movf	___lldiv@quotient+2,w
  5836     0855  00F2               	movwf	?___lldiv+2
  5837     0856  087A               	movf	___lldiv@quotient+1,w
  5838     0857  00F1               	movwf	?___lldiv+1
  5839     0858  0879               	movf	___lldiv@quotient,w
  5840     0859  00F0               	movwf	?___lldiv
  5841     085A                     l315:
  5842     085A  0008               	return
  5843     085B                     __end_of___lldiv:
  5844                           
  5845                           	psect	text16
  5846     1526                     __ptext16:	
  5847 ;; *************** function _EUSART_Write_Float *****************
  5848 ;; Defined at:
  5849 ;;		line 254 in file "EUSART.c"
  5850 ;; Parameters:    Size  Location     Type
  5851 ;;  value           4   51[BANK0 ] float 
  5852 ;;  precision       2   55[BANK0 ] int 
  5853 ;; Auto vars:     Size  Location     Type
  5854 ;;  buffer         32    0[BANK1 ] unsigned char [32]
  5855 ;; Return value:  Size  Location     Type
  5856 ;;                  1    wreg      void 
  5857 ;; Registers used:
  5858 ;;		wreg, fsr0l, fsr0h, fsr1l, fsr1h, status,2, status,0, pclath, cstack
  5859 ;; Tracked objects:
  5860 ;;		On entry : 0/0
  5861 ;;		On exit  : 0/0
  5862 ;;		Unchanged: 0/0
  5863 ;; Data sizes:     COMMON   BANK0   BANK1   BANK2   BANK3   BANK4   BANK5   BANK6   BANK7   BANK8   BANK9  BANK10  BANK1
      +1  BANK12  BANK13  BANK14  BANK15  BANK16  BANK17  BANK18  BANK19  BANK20  BANK21  BANK22  BANK23  BANK24  BANK25
  5864 ;;      Params:         0       6       0       0       0       0       0       0       0       0       0       0       
      +0       0       0       0       0       0       0       0       0       0       0       0       0       0       0
  5865 ;;      Locals:         0       0      32       0       0       0       0       0       0       0       0       0       
      +0       0       0       0       0       0       0       0       0       0       0       0       0       0       0
  5866 ;;      Temps:          0       0       0       0       0       0       0       0       0       0       0       0       
      +0       0       0       0       0       0       0       0       0       0       0       0       0       0       0
  5867 ;;      Totals:         0       6      32       0       0       0       0       0       0       0       0       0       
      +0       0       0       0       0       0       0       0       0       0       0       0       0       0       0
  5868 ;;Total ram usage:       38 bytes
  5869 ;; Hardware stack levels used: 1
  5870 ;; Hardware stack levels required when called: 4
  5871 ;; This function calls:
  5872 ;;		_EUSART_Write_Text
  5873 ;;		_ftoa
  5874 ;; This function is called by:
  5875 ;;		_main
  5876 ;; This function uses a non-reentrant model
  5877 ;;
  5878                           
  5879     1526                     _EUSART_Write_Float:	
  5880                           ;psect for function _EUSART_Write_Float
  5881                           
  5882     1526                     l2990:	
  5883                           ;incstack = 0
  5884                           ; Regs used in _EUSART_Write_Float: [wreg-fsr1h+status,2+status,0+pclath+cstack]
  5885                           
  5886                           
  5887                           ;EUSART.c: 255:     char buffer[32];;EUSART.c: 256:     ftoa(buffer, value, precision);
  5888     1526  0020               	movlb	0	; select bank0
  5889     1527  0856               	movf	EUSART_Write_Float@value+3,w
  5890     1528  00C7               	movwf	ftoa@value+3
  5891     1529  0855               	movf	EUSART_Write_Float@value+2,w
  5892     152A  00C6               	movwf	ftoa@value+2
  5893     152B  0854               	movf	EUSART_Write_Float@value+1,w
  5894     152C  00C5               	movwf	ftoa@value+1
  5895     152D  0853               	movf	EUSART_Write_Float@value,w
  5896     152E  00C4               	movwf	ftoa@value
  5897     152F  0858               	movf	EUSART_Write_Float@precision+1,w
  5898     1530  00C9               	movwf	ftoa@precision+1
  5899     1531  0857               	movf	EUSART_Write_Float@precision,w
  5900     1532  00C8               	movwf	ftoa@precision
  5901     1533  30A0               	movlw	(low (EUSART_Write_Float@buffer| 0))& (0+255)
  5902     1534  318A  227F  3195   	fcall	_ftoa
  5903     1537                     l2992:
  5904                           
  5905                           ;EUSART.c: 257:     EUSART_Write_Text(buffer);
  5906     1537  30A0               	movlw	low EUSART_Write_Float@buffer
  5907     1538  00F1               	movwf	EUSART_Write_Text@text
  5908     1539  3000               	movlw	high EUSART_Write_Float@buffer
  5909     153A  00F2               	movwf	EUSART_Write_Text@text+1
  5910     153B  3195  2574  3195   	fcall	_EUSART_Write_Text
  5911     153E                     l81:
  5912     153E  0008               	return
  5913     153F                     __end_of_EUSART_Write_Float:
  5914                           
  5915                           	psect	text17
  5916     0A7F                     __ptext17:	
  5917 ;; *************** function _ftoa *****************
  5918 ;; Defined at:
  5919 ;;		line 216 in file "EUSART.c"
  5920 ;; Parameters:    Size  Location     Type
  5921 ;;  buffer          1    wreg     PTR unsigned char 
  5922 ;;		 -> EUSART_Write_Float@buffer(32), 
  5923 ;;  value           4   36[BANK0 ] float 
  5924 ;;  precision       2   40[BANK0 ] int 
  5925 ;; Auto vars:     Size  Location     Type
  5926 ;;  buffer          1   49[BANK0 ] PTR unsigned char 
  5927 ;;		 -> EUSART_Write_Float@buffer(32), 
  5928 ;;  digit           2   47[BANK0 ] int 
  5929 ;;  i               2   43[BANK0 ] int 
  5930 ;;  integer_part    2   45[BANK0 ] int 
  5931 ;;  ptr             1   50[BANK0 ] PTR unsigned char 
  5932 ;;		 -> EUSART_Write_Float@buffer(32), EUSART_Write_Integer@buffer(20), 
  5933 ;; Return value:  Size  Location     Type
  5934 ;;                  1    wreg      void 
  5935 ;; Registers used:
  5936 ;;		wreg, fsr0l, fsr0h, fsr1l, fsr1h, status,2, status,0, pclath, cstack
  5937 ;; Tracked objects:
  5938 ;;		On entry : 0/0
  5939 ;;		On exit  : 0/0
  5940 ;;		Unchanged: 0/0
  5941 ;; Data sizes:     COMMON   BANK0   BANK1   BANK2   BANK3   BANK4   BANK5   BANK6   BANK7   BANK8   BANK9  BANK10  BANK1
      +1  BANK12  BANK13  BANK14  BANK15  BANK16  BANK17  BANK18  BANK19  BANK20  BANK21  BANK22  BANK23  BANK24  BANK25
  5942 ;;      Params:         0       6       0       0       0       0       0       0       0       0       0       0       
      +0       0       0       0       0       0       0       0       0       0       0       0       0       0       0
  5943 ;;      Locals:         0       8       0       0       0       0       0       0       0       0       0       0       
      +0       0       0       0       0       0       0       0       0       0       0       0       0       0       0
  5944 ;;      Temps:          0       1       0       0       0       0       0       0       0       0       0       0       
      +0       0       0       0       0       0       0       0       0       0       0       0       0       0       0
  5945 ;;      Totals:         0      15       0       0       0       0       0       0       0       0       0       0       
      +0       0       0       0       0       0       0       0       0       0       0       0       0       0       0
  5946 ;;Total ram usage:       15 bytes
  5947 ;; Hardware stack levels used: 1
  5948 ;; Hardware stack levels required when called: 3
  5949 ;; This function calls:
  5950 ;;		___flge
  5951 ;;		___flmul
  5952 ;;		___flneg
  5953 ;;		___flsub
  5954 ;;		___fltol
  5955 ;;		___xxtofl
  5956 ;;		_itoa
  5957 ;; This function is called by:
  5958 ;;		_EUSART_Write_Float
  5959 ;; This function uses a non-reentrant model
  5960 ;;
  5961                           
  5962     0A7F                     _ftoa:	
  5963                           ;psect for function _ftoa
  5964                           
  5965                           
  5966                           ;incstack = 0
  5967                           ; Regs used in _ftoa: [wreg-fsr1h+status,2+status,0+pclath+cstack]
  5968                           ;ftoa@buffer stored from wreg
  5969     0A7F  0020               	movlb	0	; select bank0
  5970     0A80  00D1               	movwf	ftoa@buffer
  5971     0A81                     l2808:
  5972                           
  5973                           ;EUSART.c: 218:     if (value < 0) {
  5974     0A81  0847               	movf	ftoa@value+3,w
  5975     0A82  00F3               	movwf	___flge@ff1+3
  5976     0A83  0846               	movf	ftoa@value+2,w
  5977     0A84  00F2               	movwf	___flge@ff1+2
  5978     0A85  0845               	movf	ftoa@value+1,w
  5979     0A86  00F1               	movwf	___flge@ff1+1
  5980     0A87  0844               	movf	ftoa@value,w
  5981     0A88  00F0               	movwf	___flge@ff1
  5982     0A89  3000               	movlw	0
  5983     0A8A  00F7               	movwf	___flge@ff2+3
  5984     0A8B  3000               	movlw	0
  5985     0A8C  00F6               	movwf	___flge@ff2+2
  5986     0A8D  3000               	movlw	0
  5987     0A8E  00F5               	movwf	___flge@ff2+1
  5988     0A8F  3000               	movlw	0
  5989     0A90  00F4               	movwf	___flge@ff2
  5990     0A91  3188  20CC  318A   	fcall	___flge
  5991     0A94  1803               	btfsc	3,0
  5992     0A95  2A97               	goto	u3761
  5993     0A96  2A98               	goto	u3760
  5994     0A97                     u3761:
  5995     0A97  2AB6               	goto	l2816
  5996     0A98                     u3760:
  5997     0A98                     l2810:
  5998                           
  5999                           ;EUSART.c: 219:         *buffer++ = '-';
  6000     0A98  0020               	movlb	0	; select bank0
  6001     0A99  0851               	movf	ftoa@buffer,w
  6002     0A9A  0086               	movwf	6
  6003     0A9B  0187               	clrf	7
  6004     0A9C  302D               	movlw	45
  6005     0A9D  0081               	movwf	1
  6006     0A9E                     l2812:
  6007     0A9E  3001               	movlw	1
  6008     0A9F  00CA               	movwf	??_ftoa
  6009     0AA0  084A               	movf	??_ftoa,w
  6010     0AA1  07D1               	addwf	ftoa@buffer,f
  6011     0AA2                     l2814:
  6012                           
  6013                           ;EUSART.c: 220:         value = -value;
  6014     0AA2  0847               	movf	ftoa@value+3,w
  6015     0AA3  00F3               	movwf	___flneg@f1+3
  6016     0AA4  0846               	movf	ftoa@value+2,w
  6017     0AA5  00F2               	movwf	___flneg@f1+2
  6018     0AA6  0845               	movf	ftoa@value+1,w
  6019     0AA7  00F1               	movwf	___flneg@f1+1
  6020     0AA8  0844               	movf	ftoa@value,w
  6021     0AA9  00F0               	movwf	___flneg@f1
  6022     0AAA  3195  251B  318A   	fcall	___flneg
  6023     0AAD  0873               	movf	?___flneg+3,w
  6024     0AAE  0020               	movlb	0	; select bank0
  6025     0AAF  00C7               	movwf	ftoa@value+3
  6026     0AB0  0872               	movf	?___flneg+2,w
  6027     0AB1  00C6               	movwf	ftoa@value+2
  6028     0AB2  0871               	movf	?___flneg+1,w
  6029     0AB3  00C5               	movwf	ftoa@value+1
  6030     0AB4  0870               	movf	?___flneg,w
  6031     0AB5  00C4               	movwf	ftoa@value
  6032     0AB6                     l2816:
  6033                           
  6034                           ;EUSART.c: 224:     int integer_part = (int)value;
  6035     0AB6  0020               	movlb	0	; select bank0
  6036     0AB7  0847               	movf	ftoa@value+3,w
  6037     0AB8  00BD               	movwf	___fltol@f1+3
  6038     0AB9  0846               	movf	ftoa@value+2,w
  6039     0ABA  00BC               	movwf	___fltol@f1+2
  6040     0ABB  0845               	movf	ftoa@value+1,w
  6041     0ABC  00BB               	movwf	___fltol@f1+1
  6042     0ABD  0844               	movf	ftoa@value,w
  6043     0ABE  00BA               	movwf	___fltol@f1
  6044     0ABF  3188  205B  318A   	fcall	___fltol
  6045     0AC2  0020               	movlb	0	; select bank0
  6046     0AC3  083B               	movf	?___fltol+1,w
  6047     0AC4  00CE               	movwf	ftoa@integer_part+1
  6048     0AC5  083A               	movf	?___fltol,w
  6049     0AC6  00CD               	movwf	ftoa@integer_part
  6050     0AC7                     l2818:
  6051                           
  6052                           ;EUSART.c: 225:     value -= integer_part;
  6053     0AC7  084D               	movf	ftoa@integer_part,w
  6054     0AC8  00F0               	movwf	___xxtofl@val
  6055     0AC9  084E               	movf	ftoa@integer_part+1,w
  6056     0ACA  00F1               	movwf	___xxtofl@val+1
  6057     0ACB  0D89               	rlf	9,f
  6058     0ACC  3B89               	subwfb	9,f
  6059     0ACD  0989               	comf	9,f
  6060     0ACE  00F2               	movwf	___xxtofl@val+2
  6061     0ACF  00F3               	movwf	___xxtofl@val+3
  6062     0AD0  3001               	movlw	1
  6063     0AD1  3187  2740  318A   	fcall	___xxtofl
  6064     0AD4  0873               	movf	?___xxtofl+3,w
  6065     0AD5  0020               	movlb	0	; select bank0
  6066     0AD6  00AB               	movwf	___flsub@a+3
  6067     0AD7  0872               	movf	?___xxtofl+2,w
  6068     0AD8  00AA               	movwf	___flsub@a+2
  6069     0AD9  0871               	movf	?___xxtofl+1,w
  6070     0ADA  00A9               	movwf	___flsub@a+1
  6071     0ADB  0870               	movf	?___xxtofl,w
  6072     0ADC  00A8               	movwf	___flsub@a
  6073     0ADD  0847               	movf	ftoa@value+3,w
  6074     0ADE  00AF               	movwf	___flsub@b+3
  6075     0ADF  0846               	movf	ftoa@value+2,w
  6076     0AE0  00AE               	movwf	___flsub@b+2
  6077     0AE1  0845               	movf	ftoa@value+1,w
  6078     0AE2  00AD               	movwf	___flsub@b+1
  6079     0AE3  0844               	movf	ftoa@value,w
  6080     0AE4  00AC               	movwf	___flsub@b
  6081     0AE5  3195  25CD  318A   	fcall	___flsub
  6082     0AE8  0020               	movlb	0	; select bank0
  6083     0AE9  082B               	movf	?___flsub+3,w
  6084     0AEA  00C7               	movwf	ftoa@value+3
  6085     0AEB  082A               	movf	?___flsub+2,w
  6086     0AEC  00C6               	movwf	ftoa@value+2
  6087     0AED  0829               	movf	?___flsub+1,w
  6088     0AEE  00C5               	movwf	ftoa@value+1
  6089     0AEF  0828               	movf	?___flsub,w
  6090     0AF0  00C4               	movwf	ftoa@value
  6091     0AF1                     l2820:
  6092                           
  6093                           ;EUSART.c: 228:     char *ptr = buffer;
  6094     0AF1  0851               	movf	ftoa@buffer,w
  6095     0AF2  00D2               	movwf	ftoa@ptr
  6096     0AF3                     l2822:
  6097                           
  6098                           ;EUSART.c: 229:     itoa(&ptr, integer_part);
  6099     0AF3  084E               	movf	ftoa@integer_part+1,w
  6100     0AF4  00FA               	movwf	itoa@d+1
  6101     0AF5  084D               	movf	ftoa@integer_part,w
  6102     0AF6  00F9               	movwf	itoa@d
  6103     0AF7  3052               	movlw	(low (ftoa@ptr| 0))& (0+255)
  6104     0AF8  3189  21E6  318A   	fcall	_itoa
  6105     0AFB                     l2824:
  6106                           
  6107                           ;EUSART.c: 232:     *ptr++ = '.';
  6108     0AFB  0020               	movlb	0	; select bank0
  6109     0AFC  0852               	movf	ftoa@ptr,w
  6110     0AFD  0086               	movwf	6
  6111     0AFE  0187               	clrf	7
  6112     0AFF  302E               	movlw	46
  6113     0B00  0081               	movwf	1
  6114     0B01                     l2826:
  6115     0B01  3001               	movlw	1
  6116     0B02  00CA               	movwf	??_ftoa
  6117     0B03  084A               	movf	??_ftoa,w
  6118     0B04  07D2               	addwf	ftoa@ptr,f
  6119     0B05                     l2828:
  6120                           
  6121                           ;EUSART.c: 235:     for (int i = 0; i < precision; i++) {
  6122     0B05  01CB               	clrf	ftoa@i
  6123     0B06  01CC               	clrf	ftoa@i+1
  6124     0B07  2B6D               	goto	l2840
  6125     0B08                     l2830:
  6126                           
  6127                           ;EUSART.c: 236:         value *= 10;
  6128     0B08  3041               	movlw	65
  6129     0B09  0020               	movlb	0	; select bank0
  6130     0B0A  00A3               	movwf	___flmul@b+3
  6131     0B0B  3020               	movlw	32
  6132     0B0C  00A2               	movwf	___flmul@b+2
  6133     0B0D  3000               	movlw	0
  6134     0B0E  00A1               	movwf	___flmul@b+1
  6135     0B0F  3000               	movlw	0
  6136     0B10  00A0               	movwf	___flmul@b
  6137     0B11  0847               	movf	ftoa@value+3,w
  6138     0B12  00A7               	movwf	___flmul@a+3
  6139     0B13  0846               	movf	ftoa@value+2,w
  6140     0B14  00A6               	movwf	___flmul@a+2
  6141     0B15  0845               	movf	ftoa@value+1,w
  6142     0B16  00A5               	movwf	___flmul@a+1
  6143     0B17  0844               	movf	ftoa@value,w
  6144     0B18  00A4               	movwf	___flmul@a
  6145     0B19  3182  22F9  318A   	fcall	___flmul
  6146     0B1C  0020               	movlb	0	; select bank0
  6147     0B1D  0823               	movf	?___flmul+3,w
  6148     0B1E  00C7               	movwf	ftoa@value+3
  6149     0B1F  0822               	movf	?___flmul+2,w
  6150     0B20  00C6               	movwf	ftoa@value+2
  6151     0B21  0821               	movf	?___flmul+1,w
  6152     0B22  00C5               	movwf	ftoa@value+1
  6153     0B23  0820               	movf	?___flmul,w
  6154     0B24  00C4               	movwf	ftoa@value
  6155                           
  6156                           ;EUSART.c: 237:         int digit = (int)value;
  6157     0B25  0847               	movf	ftoa@value+3,w
  6158     0B26  00BD               	movwf	___fltol@f1+3
  6159     0B27  0846               	movf	ftoa@value+2,w
  6160     0B28  00BC               	movwf	___fltol@f1+2
  6161     0B29  0845               	movf	ftoa@value+1,w
  6162     0B2A  00BB               	movwf	___fltol@f1+1
  6163     0B2B  0844               	movf	ftoa@value,w
  6164     0B2C  00BA               	movwf	___fltol@f1
  6165     0B2D  3188  205B  318A   	fcall	___fltol
  6166     0B30  0020               	movlb	0	; select bank0
  6167     0B31  083B               	movf	?___fltol+1,w
  6168     0B32  00D0               	movwf	ftoa@digit+1
  6169     0B33  083A               	movf	?___fltol,w
  6170     0B34  00CF               	movwf	ftoa@digit
  6171     0B35                     l2832:
  6172                           
  6173                           ;EUSART.c: 238:         *ptr++ = digit + '0';
  6174     0B35  0852               	movf	ftoa@ptr,w
  6175     0B36  0086               	movwf	6
  6176     0B37  0187               	clrf	7
  6177     0B38  084F               	movf	ftoa@digit,w
  6178     0B39  3E30               	addlw	48
  6179     0B3A  0081               	movwf	1
  6180     0B3B                     l2834:
  6181     0B3B  3001               	movlw	1
  6182     0B3C  00CA               	movwf	??_ftoa
  6183     0B3D  084A               	movf	??_ftoa,w
  6184     0B3E  07D2               	addwf	ftoa@ptr,f
  6185     0B3F                     l2836:
  6186                           
  6187                           ;EUSART.c: 239:         value -= digit;
  6188     0B3F  084F               	movf	ftoa@digit,w
  6189     0B40  00F0               	movwf	___xxtofl@val
  6190     0B41  0850               	movf	ftoa@digit+1,w
  6191     0B42  00F1               	movwf	___xxtofl@val+1
  6192     0B43  0D89               	rlf	9,f
  6193     0B44  3B89               	subwfb	9,f
  6194     0B45  0989               	comf	9,f
  6195     0B46  00F2               	movwf	___xxtofl@val+2
  6196     0B47  00F3               	movwf	___xxtofl@val+3
  6197     0B48  3001               	movlw	1
  6198     0B49  3187  2740  318A   	fcall	___xxtofl
  6199     0B4C  0873               	movf	?___xxtofl+3,w
  6200     0B4D  0020               	movlb	0	; select bank0
  6201     0B4E  00AB               	movwf	___flsub@a+3
  6202     0B4F  0872               	movf	?___xxtofl+2,w
  6203     0B50  00AA               	movwf	___flsub@a+2
  6204     0B51  0871               	movf	?___xxtofl+1,w
  6205     0B52  00A9               	movwf	___flsub@a+1
  6206     0B53  0870               	movf	?___xxtofl,w
  6207     0B54  00A8               	movwf	___flsub@a
  6208     0B55  0847               	movf	ftoa@value+3,w
  6209     0B56  00AF               	movwf	___flsub@b+3
  6210     0B57  0846               	movf	ftoa@value+2,w
  6211     0B58  00AE               	movwf	___flsub@b+2
  6212     0B59  0845               	movf	ftoa@value+1,w
  6213     0B5A  00AD               	movwf	___flsub@b+1
  6214     0B5B  0844               	movf	ftoa@value,w
  6215     0B5C  00AC               	movwf	___flsub@b
  6216     0B5D  3195  25CD  318A   	fcall	___flsub
  6217     0B60  0020               	movlb	0	; select bank0
  6218     0B61  082B               	movf	?___flsub+3,w
  6219     0B62  00C7               	movwf	ftoa@value+3
  6220     0B63  082A               	movf	?___flsub+2,w
  6221     0B64  00C6               	movwf	ftoa@value+2
  6222     0B65  0829               	movf	?___flsub+1,w
  6223     0B66  00C5               	movwf	ftoa@value+1
  6224     0B67  0828               	movf	?___flsub,w
  6225     0B68  00C4               	movwf	ftoa@value
  6226     0B69                     l2838:
  6227                           
  6228                           ;EUSART.c: 240:     }
  6229     0B69  3001               	movlw	1
  6230     0B6A  07CB               	addwf	ftoa@i,f
  6231     0B6B  3000               	movlw	0
  6232     0B6C  3DCC               	addwfc	ftoa@i+1,f
  6233     0B6D                     l2840:
  6234     0B6D  084C               	movf	ftoa@i+1,w
  6235     0B6E  3A80               	xorlw	128
  6236     0B6F  00CA               	movwf	??_ftoa
  6237     0B70  0849               	movf	ftoa@precision+1,w
  6238     0B71  3A80               	xorlw	128
  6239     0B72  024A               	subwf	??_ftoa,w
  6240     0B73  1D03               	skipz
  6241     0B74  2B77               	goto	u3775
  6242     0B75  0848               	movf	ftoa@precision,w
  6243     0B76  024B               	subwf	ftoa@i,w
  6244     0B77                     u3775:
  6245     0B77  1C03               	skipc
  6246     0B78  2B7A               	goto	u3771
  6247     0B79  2B7B               	goto	u3770
  6248     0B7A                     u3771:
  6249     0B7A  2B08               	goto	l2830
  6250     0B7B                     u3770:
  6251     0B7B                     l2842:
  6252                           
  6253                           ;EUSART.c: 243:     *ptr = '\0';
  6254     0B7B  0020               	movlb	0	; select bank0
  6255     0B7C  0852               	movf	ftoa@ptr,w
  6256     0B7D  0086               	movwf	6
  6257     0B7E  0187               	clrf	7
  6258     0B7F  0181               	clrf	1
  6259     0B80                     l78:
  6260     0B80  0008               	return
  6261     0B81                     __end_of_ftoa:
  6262                           
  6263                           	psect	text18
  6264     09E6                     __ptext18:	
  6265 ;; *************** function _itoa *****************
  6266 ;; Defined at:
  6267 ;;		line 149 in file "EUSART.c"
  6268 ;; Parameters:    Size  Location     Type
  6269 ;;  buf             1    wreg     PTR PTR unsigned char 
  6270 ;;		 -> ftoa@ptr(1), EUSART_Write_Integer@ptr(1), 
  6271 ;;  d               2    9[COMMON] int 
  6272 ;; Auto vars:     Size  Location     Type
  6273 ;;  buf             1    4[BANK0 ] PTR PTR unsigned char 
  6274 ;;		 -> ftoa@ptr(1), EUSART_Write_Integer@ptr(1), 
  6275 ;;  num             2    0[BANK0 ] int 
  6276 ;;  div             2    5[BANK0 ] int 
  6277 ;;  temp            2    2[BANK0 ] int 
  6278 ;; Return value:  Size  Location     Type
  6279 ;;                  1    wreg      void 
  6280 ;; Registers used:
  6281 ;;		wreg, fsr0l, fsr0h, fsr1l, fsr1h, status,2, status,0, pclath, cstack
  6282 ;; Tracked objects:
  6283 ;;		On entry : 0/0
  6284 ;;		On exit  : 0/0
  6285 ;;		Unchanged: 0/0
  6286 ;; Data sizes:     COMMON   BANK0   BANK1   BANK2   BANK3   BANK4   BANK5   BANK6   BANK7   BANK8   BANK9  BANK10  BANK1
      +1  BANK12  BANK13  BANK14  BANK15  BANK16  BANK17  BANK18  BANK19  BANK20  BANK21  BANK22  BANK23  BANK24  BANK25
  6287 ;;      Params:         2       0       0       0       0       0       0       0       0       0       0       0       
      +0       0       0       0       0       0       0       0       0       0       0       0       0       0       0
  6288 ;;      Locals:         0       7       0       0       0       0       0       0       0       0       0       0       
      +0       0       0       0       0       0       0       0       0       0       0       0       0       0       0
  6289 ;;      Temps:          0       0       0       0       0       0       0       0       0       0       0       0       
      +0       0       0       0       0       0       0       0       0       0       0       0       0       0       0
  6290 ;;      Totals:         2       7       0       0       0       0       0       0       0       0       0       0       
      +0       0       0       0       0       0       0       0       0       0       0       0       0       0       0
  6291 ;;Total ram usage:        9 bytes
  6292 ;; Hardware stack levels used: 1
  6293 ;; Hardware stack levels required when called: 2
  6294 ;; This function calls:
  6295 ;;		___awdiv
  6296 ;;		___awmod
  6297 ;;		___wmul
  6298 ;; This function is called by:
  6299 ;;		_ftoa
  6300 ;;		_EUSART_Write_Integer
  6301 ;; This function uses a non-reentrant model
  6302 ;;
  6303                           
  6304     09E6                     _itoa:	
  6305                           ;psect for function _itoa
  6306                           
  6307                           
  6308                           ;incstack = 0
  6309                           ; Regs used in _itoa: [wreg-fsr1h+status,2+status,0+pclath+cstack]
  6310                           ;itoa@buf stored from wreg
  6311     09E6  0020               	movlb	0	; select bank0
  6312     09E7  00A4               	movwf	itoa@buf
  6313     09E8                     l2462:
  6314                           
  6315                           ;EUSART.c: 149: void itoa(char **buf, int d);EUSART.c: 150: {;EUSART.c: 151:     int div
      +                           = 1;
  6316     09E8  3001               	movlw	1
  6317     09E9  00A5               	movwf	itoa@div
  6318     09EA  3000               	movlw	0
  6319     09EB  00A6               	movwf	itoa@div+1
  6320                           
  6321                           ;EUSART.c: 152:     if (d < 0)
  6322     09EC  1FFA               	btfss	itoa@d+1,7
  6323     09ED  29EF               	goto	u3051
  6324     09EE  29F0               	goto	u3050
  6325     09EF                     u3051:
  6326     09EF  29FE               	goto	l2468
  6327     09F0                     u3050:
  6328     09F0                     l2464:
  6329                           
  6330                           ;EUSART.c: 153:     {;EUSART.c: 154:         *((*buf)++) = '-';
  6331     09F0  0824               	movf	itoa@buf,w
  6332     09F1  0086               	movwf	6
  6333     09F2  0187               	clrf	7
  6334     09F3  3F40               	moviw [0]fsr1
  6335     09F4  0084               	movwf	4
  6336     09F5  0185               	clrf	5
  6337     09F6  0A81               	incf	1,f
  6338     09F7  302D               	movlw	45
  6339     09F8  0080               	movwf	0
  6340     09F9                     l2466:
  6341                           
  6342                           ;EUSART.c: 155:         d = -d;
  6343     09F9  09F9               	comf	itoa@d,f
  6344     09FA  09FA               	comf	itoa@d+1,f
  6345     09FB  0AF9               	incf	itoa@d,f
  6346     09FC  1903               	skipnz
  6347     09FD  0AFA               	incf	itoa@d+1,f
  6348     09FE                     l2468:
  6349                           
  6350                           ;EUSART.c: 158:     int temp = d;
  6351     09FE  087A               	movf	itoa@d+1,w
  6352     09FF  00A3               	movwf	itoa@temp+1
  6353     0A00  0879               	movf	itoa@d,w
  6354     0A01  00A2               	movwf	itoa@temp
  6355                           
  6356                           ;EUSART.c: 159:     while (temp / 10)
  6357     0A02  2A24               	goto	l56
  6358     0A03                     l2470:
  6359                           
  6360                           ;EUSART.c: 160:     {;EUSART.c: 161:         temp /= 10;
  6361     0A03  300A               	movlw	10
  6362     0A04  00F0               	movwf	___awdiv@divisor
  6363     0A05  3000               	movlw	0
  6364     0A06  00F1               	movwf	___awdiv@divisor+1
  6365     0A07  0020               	movlb	0	; select bank0
  6366     0A08  0823               	movf	itoa@temp+1,w
  6367     0A09  00F3               	movwf	___awdiv@dividend+1
  6368     0A0A  0822               	movf	itoa@temp,w
  6369     0A0B  00F2               	movwf	___awdiv@dividend
  6370     0A0C  3197  27A1  3189   	fcall	___awdiv
  6371     0A0F  0871               	movf	?___awdiv+1,w
  6372     0A10  0020               	movlb	0	; select bank0
  6373     0A11  00A3               	movwf	itoa@temp+1
  6374     0A12  0870               	movf	?___awdiv,w
  6375     0A13  00A2               	movwf	itoa@temp
  6376                           
  6377                           ;EUSART.c: 162:         div *= 10;
  6378     0A14  300A               	movlw	10
  6379     0A15  00F0               	movwf	___wmul@multiplier
  6380     0A16  3000               	movlw	0
  6381     0A17  00F1               	movwf	___wmul@multiplier+1
  6382     0A18  0826               	movf	itoa@div+1,w
  6383     0A19  00F3               	movwf	___wmul@multiplicand+1
  6384     0A1A  0825               	movf	itoa@div,w
  6385     0A1B  00F2               	movwf	___wmul@multiplicand
  6386     0A1C  3195  25AE  3189   	fcall	___wmul
  6387     0A1F  0871               	movf	?___wmul+1,w
  6388     0A20  0020               	movlb	0	; select bank0
  6389     0A21  00A6               	movwf	itoa@div+1
  6390     0A22  0870               	movf	?___wmul,w
  6391     0A23  00A5               	movwf	itoa@div
  6392     0A24                     l56:	
  6393                           ;EUSART.c: 163:     }
  6394                           
  6395                           
  6396                           ;EUSART.c: 159:     while (temp / 10)
  6397     0A24  300A               	movlw	10
  6398     0A25  00F0               	movwf	___awdiv@divisor
  6399     0A26  3000               	movlw	0
  6400     0A27  00F1               	movwf	___awdiv@divisor+1
  6401     0A28  0823               	movf	itoa@temp+1,w
  6402     0A29  00F3               	movwf	___awdiv@dividend+1
  6403     0A2A  0822               	movf	itoa@temp,w
  6404     0A2B  00F2               	movwf	___awdiv@dividend
  6405     0A2C  3197  27A1  3189   	fcall	___awdiv
  6406     0A2F  0870               	movf	?___awdiv,w
  6407     0A30  0471               	iorwf	?___awdiv+1,w
  6408     0A31  1D03               	btfss	3,2
  6409     0A32  2A34               	goto	u3061
  6410     0A33  2A35               	goto	u3060
  6411     0A34                     u3061:
  6412     0A34  2A03               	goto	l2470
  6413     0A35                     u3060:
  6414     0A35  2A70               	goto	l2476
  6415     0A36                     l2472:
  6416                           
  6417                           ;EUSART.c: 166:     {;EUSART.c: 167:         int num = d / div;
  6418     0A36  0826               	movf	itoa@div+1,w
  6419     0A37  00F1               	movwf	___awdiv@divisor+1
  6420     0A38  0825               	movf	itoa@div,w
  6421     0A39  00F0               	movwf	___awdiv@divisor
  6422     0A3A  087A               	movf	itoa@d+1,w
  6423     0A3B  00F3               	movwf	___awdiv@dividend+1
  6424     0A3C  0879               	movf	itoa@d,w
  6425     0A3D  00F2               	movwf	___awdiv@dividend
  6426     0A3E  3197  27A1  3189   	fcall	___awdiv
  6427     0A41  0871               	movf	?___awdiv+1,w
  6428     0A42  0020               	movlb	0	; select bank0
  6429     0A43  00A1               	movwf	itoa@num+1
  6430     0A44  0870               	movf	?___awdiv,w
  6431     0A45  00A0               	movwf	itoa@num
  6432                           
  6433                           ;EUSART.c: 168:         d %= div;
  6434     0A46  0826               	movf	itoa@div+1,w
  6435     0A47  00F1               	movwf	___awmod@divisor+1
  6436     0A48  0825               	movf	itoa@div,w
  6437     0A49  00F0               	movwf	___awmod@divisor
  6438     0A4A  087A               	movf	itoa@d+1,w
  6439     0A4B  00F3               	movwf	___awmod@dividend+1
  6440     0A4C  0879               	movf	itoa@d,w
  6441     0A4D  00F2               	movwf	___awmod@dividend
  6442     0A4E  3196  26FA  3189   	fcall	___awmod
  6443     0A51  0871               	movf	?___awmod+1,w
  6444     0A52  00FA               	movwf	itoa@d+1
  6445     0A53  0870               	movf	?___awmod,w
  6446     0A54  00F9               	movwf	itoa@d
  6447                           
  6448                           ;EUSART.c: 169:         div /= 10;
  6449     0A55  300A               	movlw	10
  6450     0A56  00F0               	movwf	___awdiv@divisor
  6451     0A57  3000               	movlw	0
  6452     0A58  00F1               	movwf	___awdiv@divisor+1
  6453     0A59  0020               	movlb	0	; select bank0
  6454     0A5A  0826               	movf	itoa@div+1,w
  6455     0A5B  00F3               	movwf	___awdiv@dividend+1
  6456     0A5C  0825               	movf	itoa@div,w
  6457     0A5D  00F2               	movwf	___awdiv@dividend
  6458     0A5E  3197  27A1  3189   	fcall	___awdiv
  6459     0A61  0871               	movf	?___awdiv+1,w
  6460     0A62  0020               	movlb	0	; select bank0
  6461     0A63  00A6               	movwf	itoa@div+1
  6462     0A64  0870               	movf	?___awdiv,w
  6463     0A65  00A5               	movwf	itoa@div
  6464     0A66                     l2474:
  6465                           
  6466                           ;EUSART.c: 170:         *((*buf)++) = num + '0';
  6467     0A66  0824               	movf	itoa@buf,w
  6468     0A67  0086               	movwf	6
  6469     0A68  0187               	clrf	7
  6470     0A69  3F40               	moviw [0]fsr1
  6471     0A6A  0084               	movwf	4
  6472     0A6B  0185               	clrf	5
  6473     0A6C  0A81               	incf	1,f
  6474     0A6D  0820               	movf	itoa@num,w
  6475     0A6E  3E30               	addlw	48
  6476     0A6F  0080               	movwf	0
  6477     0A70                     l2476:
  6478                           
  6479                           ;EUSART.c: 165:     while (div != 0)
  6480     0A70  0020               	movlb	0	; select bank0
  6481     0A71  0825               	movf	itoa@div,w
  6482     0A72  0426               	iorwf	itoa@div+1,w
  6483     0A73  1D03               	btfss	3,2
  6484     0A74  2A76               	goto	u3071
  6485     0A75  2A77               	goto	u3070
  6486     0A76                     u3071:
  6487     0A76  2A36               	goto	l2472
  6488     0A77                     u3070:
  6489     0A77                     l2478:
  6490                           
  6491                           ;EUSART.c: 172:     *(*buf) = '\0';
  6492     0A77  0824               	movf	itoa@buf,w
  6493     0A78  0086               	movwf	6
  6494     0A79  0187               	clrf	7
  6495     0A7A  0801               	movf	1,w
  6496     0A7B  0086               	movwf	6
  6497     0A7C  0187               	clrf	7
  6498     0A7D  0181               	clrf	1
  6499     0A7E                     l62:
  6500     0A7E  0008               	return
  6501     0A7F                     __end_of_itoa:
  6502                           
  6503                           	psect	text19
  6504     15AE                     __ptext19:	
  6505 ;; *************** function ___wmul *****************
  6506 ;; Defined at:
  6507 ;;		line 15 in file "C:\Program Files\Microchip\xc8\v2.46\pic\sources\c99\common\Umul16.c"
  6508 ;; Parameters:    Size  Location     Type
  6509 ;;  multiplier      2    0[COMMON] unsigned int 
  6510 ;;  multiplicand    2    2[COMMON] unsigned int 
  6511 ;; Auto vars:     Size  Location     Type
  6512 ;;  product         2    4[COMMON] unsigned int 
  6513 ;; Return value:  Size  Location     Type
  6514 ;;                  2    0[COMMON] unsigned int 
  6515 ;; Registers used:
  6516 ;;		wreg, status,2, status,0
  6517 ;; Tracked objects:
  6518 ;;		On entry : 0/0
  6519 ;;		On exit  : 0/0
  6520 ;;		Unchanged: 0/0
  6521 ;; Data sizes:     COMMON   BANK0   BANK1   BANK2   BANK3   BANK4   BANK5   BANK6   BANK7   BANK8   BANK9  BANK10  BANK1
      +1  BANK12  BANK13  BANK14  BANK15  BANK16  BANK17  BANK18  BANK19  BANK20  BANK21  BANK22  BANK23  BANK24  BANK25
  6522 ;;      Params:         4       0       0       0       0       0       0       0       0       0       0       0       
      +0       0       0       0       0       0       0       0       0       0       0       0       0       0       0
  6523 ;;      Locals:         2       0       0       0       0       0       0       0       0       0       0       0       
      +0       0       0       0       0       0       0       0       0       0       0       0       0       0       0
  6524 ;;      Temps:          0       0       0       0       0       0       0       0       0       0       0       0       
      +0       0       0       0       0       0       0       0       0       0       0       0       0       0       0
  6525 ;;      Totals:         6       0       0       0       0       0       0       0       0       0       0       0       
      +0       0       0       0       0       0       0       0       0       0       0       0       0       0       0
  6526 ;;Total ram usage:        6 bytes
  6527 ;; Hardware stack levels used: 1
  6528 ;; Hardware stack levels required when called: 1
  6529 ;; This function calls:
  6530 ;;		Nothing
  6531 ;; This function is called by:
  6532 ;;		_itoa
  6533 ;; This function uses a non-reentrant model
  6534 ;;
  6535                           
  6536     15AE                     ___wmul:	
  6537                           ;psect for function ___wmul
  6538                           
  6539     15AE                     l2140:	
  6540                           ;incstack = 0
  6541                           ; Regs used in ___wmul: [wreg+status,2+status,0]
  6542                           
  6543     15AE  01F4               	clrf	___wmul@product
  6544     15AF  01F5               	clrf	___wmul@product+1
  6545     15B0                     l2142:
  6546     15B0  1C70               	btfss	___wmul@multiplier,0
  6547     15B1  2DB3               	goto	u2341
  6548     15B2  2DB4               	goto	u2340
  6549     15B3                     u2341:
  6550     15B3  2DB8               	goto	l279
  6551     15B4                     u2340:
  6552     15B4                     l2144:
  6553     15B4  0872               	movf	___wmul@multiplicand,w
  6554     15B5  07F4               	addwf	___wmul@product,f
  6555     15B6  0873               	movf	___wmul@multiplicand+1,w
  6556     15B7  3DF5               	addwfc	___wmul@product+1,f
  6557     15B8                     l279:
  6558     15B8  3001               	movlw	1
  6559     15B9                     u2355:
  6560     15B9  35F2               	lslf	___wmul@multiplicand,f
  6561     15BA  0DF3               	rlf	___wmul@multiplicand+1,f
  6562     15BB  0B89               	decfsz	9,f
  6563     15BC  2DB9               	goto	u2355
  6564     15BD                     l2146:
  6565     15BD  3001               	movlw	1
  6566     15BE                     u2365:
  6567     15BE  36F1               	lsrf	___wmul@multiplier+1,f
  6568     15BF  0CF0               	rrf	___wmul@multiplier,f
  6569     15C0  0B89               	decfsz	9,f
  6570     15C1  2DBE               	goto	u2365
  6571     15C2                     l2148:
  6572     15C2  0870               	movf	___wmul@multiplier,w
  6573     15C3  0471               	iorwf	___wmul@multiplier+1,w
  6574     15C4  1D03               	btfss	3,2
  6575     15C5  2DC7               	goto	u2371
  6576     15C6  2DC8               	goto	u2370
  6577     15C7                     u2371:
  6578     15C7  2DB0               	goto	l2142
  6579     15C8                     u2370:
  6580     15C8                     l2150:
  6581     15C8  0875               	movf	___wmul@product+1,w
  6582     15C9  00F1               	movwf	?___wmul+1
  6583     15CA  0874               	movf	___wmul@product,w
  6584     15CB  00F0               	movwf	?___wmul
  6585     15CC                     l281:
  6586     15CC  0008               	return
  6587     15CD                     __end_of___wmul:
  6588                           
  6589                           	psect	text20
  6590     16FA                     __ptext20:	
  6591 ;; *************** function ___awmod *****************
  6592 ;; Defined at:
  6593 ;;		line 5 in file "C:\Program Files\Microchip\xc8\v2.46\pic\sources\c99\common\awmod.c"
  6594 ;; Parameters:    Size  Location     Type
  6595 ;;  divisor         2    0[COMMON] int 
  6596 ;;  dividend        2    2[COMMON] int 
  6597 ;; Auto vars:     Size  Location     Type
  6598 ;;  sign            1    6[COMMON] unsigned char 
  6599 ;;  counter         1    5[COMMON] unsigned char 
  6600 ;; Return value:  Size  Location     Type
  6601 ;;                  2    0[COMMON] int 
  6602 ;; Registers used:
  6603 ;;		wreg, status,2, status,0
  6604 ;; Tracked objects:
  6605 ;;		On entry : 0/0
  6606 ;;		On exit  : 0/0
  6607 ;;		Unchanged: 0/0
  6608 ;; Data sizes:     COMMON   BANK0   BANK1   BANK2   BANK3   BANK4   BANK5   BANK6   BANK7   BANK8   BANK9  BANK10  BANK1
      +1  BANK12  BANK13  BANK14  BANK15  BANK16  BANK17  BANK18  BANK19  BANK20  BANK21  BANK22  BANK23  BANK24  BANK25
  6609 ;;      Params:         4       0       0       0       0       0       0       0       0       0       0       0       
      +0       0       0       0       0       0       0       0       0       0       0       0       0       0       0
  6610 ;;      Locals:         2       0       0       0       0       0       0       0       0       0       0       0       
      +0       0       0       0       0       0       0       0       0       0       0       0       0       0       0
  6611 ;;      Temps:          1       0       0       0       0       0       0       0       0       0       0       0       
      +0       0       0       0       0       0       0       0       0       0       0       0       0       0       0
  6612 ;;      Totals:         7       0       0       0       0       0       0       0       0       0       0       0       
      +0       0       0       0       0       0       0       0       0       0       0       0       0       0       0
  6613 ;;Total ram usage:        7 bytes
  6614 ;; Hardware stack levels used: 1
  6615 ;; Hardware stack levels required when called: 1
  6616 ;; This function calls:
  6617 ;;		Nothing
  6618 ;; This function is called by:
  6619 ;;		_itoa
  6620 ;; This function uses a non-reentrant model
  6621 ;;
  6622                           
  6623     16FA                     ___awmod:	
  6624                           ;psect for function ___awmod
  6625                           
  6626     16FA                     l2198:	
  6627                           ;incstack = 0
  6628                           ; Regs used in ___awmod: [wreg+status,2+status,0]
  6629                           
  6630     16FA  01F6               	clrf	___awmod@sign
  6631     16FB                     l2200:
  6632     16FB  1FF3               	btfss	___awmod@dividend+1,7
  6633     16FC  2EFE               	goto	u2481
  6634     16FD  2EFF               	goto	u2480
  6635     16FE                     u2481:
  6636     16FE  2F06               	goto	l2206
  6637     16FF                     u2480:
  6638     16FF                     l2202:
  6639     16FF  09F2               	comf	___awmod@dividend,f
  6640     1700  09F3               	comf	___awmod@dividend+1,f
  6641     1701  0AF2               	incf	___awmod@dividend,f
  6642     1702  1903               	skipnz
  6643     1703  0AF3               	incf	___awmod@dividend+1,f
  6644     1704                     l2204:
  6645     1704  01F6               	clrf	___awmod@sign
  6646     1705  0AF6               	incf	___awmod@sign,f
  6647     1706                     l2206:
  6648     1706  1FF1               	btfss	___awmod@divisor+1,7
  6649     1707  2F09               	goto	u2491
  6650     1708  2F0A               	goto	u2490
  6651     1709                     u2491:
  6652     1709  2F0F               	goto	l2210
  6653     170A                     u2490:
  6654     170A                     l2208:
  6655     170A  09F0               	comf	___awmod@divisor,f
  6656     170B  09F1               	comf	___awmod@divisor+1,f
  6657     170C  0AF0               	incf	___awmod@divisor,f
  6658     170D  1903               	skipnz
  6659     170E  0AF1               	incf	___awmod@divisor+1,f
  6660     170F                     l2210:
  6661     170F  0870               	movf	___awmod@divisor,w
  6662     1710  0471               	iorwf	___awmod@divisor+1,w
  6663     1711  1903               	btfsc	3,2
  6664     1712  2F14               	goto	u2501
  6665     1713  2F15               	goto	u2500
  6666     1714                     u2501:
  6667     1714  2F3E               	goto	l2228
  6668     1715                     u2500:
  6669     1715                     l2212:
  6670     1715  01F5               	clrf	___awmod@counter
  6671     1716  0AF5               	incf	___awmod@counter,f
  6672     1717  2F21               	goto	l2218
  6673     1718                     l2214:
  6674     1718  3001               	movlw	1
  6675     1719                     u2515:
  6676     1719  35F0               	lslf	___awmod@divisor,f
  6677     171A  0DF1               	rlf	___awmod@divisor+1,f
  6678     171B  0B89               	decfsz	9,f
  6679     171C  2F19               	goto	u2515
  6680     171D                     l2216:
  6681     171D  3001               	movlw	1
  6682     171E  00F4               	movwf	??___awmod
  6683     171F  0874               	movf	??___awmod,w
  6684     1720  07F5               	addwf	___awmod@counter,f
  6685     1721                     l2218:
  6686     1721  1FF1               	btfss	___awmod@divisor+1,7
  6687     1722  2F24               	goto	u2521
  6688     1723  2F25               	goto	u2520
  6689     1724                     u2521:
  6690     1724  2F18               	goto	l2214
  6691     1725                     u2520:
  6692     1725                     l2220:
  6693     1725  0871               	movf	___awmod@divisor+1,w
  6694     1726  0273               	subwf	___awmod@dividend+1,w
  6695     1727  1D03               	skipz
  6696     1728  2F2B               	goto	u2535
  6697     1729  0870               	movf	___awmod@divisor,w
  6698     172A  0272               	subwf	___awmod@dividend,w
  6699     172B                     u2535:
  6700     172B  1C03               	skipc
  6701     172C  2F2E               	goto	u2531
  6702     172D  2F2F               	goto	u2530
  6703     172E                     u2531:
  6704     172E  2F33               	goto	l2224
  6705     172F                     u2530:
  6706     172F                     l2222:
  6707     172F  0870               	movf	___awmod@divisor,w
  6708     1730  02F2               	subwf	___awmod@dividend,f
  6709     1731  0871               	movf	___awmod@divisor+1,w
  6710     1732  3BF3               	subwfb	___awmod@dividend+1,f
  6711     1733                     l2224:
  6712     1733  3001               	movlw	1
  6713     1734                     u2545:
  6714     1734  36F1               	lsrf	___awmod@divisor+1,f
  6715     1735  0CF0               	rrf	___awmod@divisor,f
  6716     1736  0B89               	decfsz	9,f
  6717     1737  2F34               	goto	u2545
  6718     1738                     l2226:
  6719     1738  3001               	movlw	1
  6720     1739  02F5               	subwf	___awmod@counter,f
  6721     173A  1D03               	btfss	3,2
  6722     173B  2F3D               	goto	u2551
  6723     173C  2F3E               	goto	u2550
  6724     173D                     u2551:
  6725     173D  2F25               	goto	l2220
  6726     173E                     u2550:
  6727     173E                     l2228:
  6728     173E  0876               	movf	___awmod@sign,w
  6729     173F  1903               	btfsc	3,2
  6730     1740  2F42               	goto	u2561
  6731     1741  2F43               	goto	u2560
  6732     1742                     u2561:
  6733     1742  2F48               	goto	l2232
  6734     1743                     u2560:
  6735     1743                     l2230:
  6736     1743  09F2               	comf	___awmod@dividend,f
  6737     1744  09F3               	comf	___awmod@dividend+1,f
  6738     1745  0AF2               	incf	___awmod@dividend,f
  6739     1746  1903               	skipnz
  6740     1747  0AF3               	incf	___awmod@dividend+1,f
  6741     1748                     l2232:
  6742     1748  0873               	movf	___awmod@dividend+1,w
  6743     1749  00F1               	movwf	?___awmod+1
  6744     174A  0872               	movf	___awmod@dividend,w
  6745     174B  00F0               	movwf	?___awmod
  6746     174C                     l445:
  6747     174C  0008               	return
  6748     174D                     __end_of___awmod:
  6749                           
  6750                           	psect	text21
  6751     17A1                     __ptext21:	
  6752 ;; *************** function ___awdiv *****************
  6753 ;; Defined at:
  6754 ;;		line 5 in file "C:\Program Files\Microchip\xc8\v2.46\pic\sources\c99\common\awdiv.c"
  6755 ;; Parameters:    Size  Location     Type
  6756 ;;  divisor         2    0[COMMON] int 
  6757 ;;  dividend        2    2[COMMON] int 
  6758 ;; Auto vars:     Size  Location     Type
  6759 ;;  quotient        2    7[COMMON] int 
  6760 ;;  sign            1    6[COMMON] unsigned char 
  6761 ;;  counter         1    5[COMMON] unsigned char 
  6762 ;; Return value:  Size  Location     Type
  6763 ;;                  2    0[COMMON] int 
  6764 ;; Registers used:
  6765 ;;		wreg, status,2, status,0
  6766 ;; Tracked objects:
  6767 ;;		On entry : 0/0
  6768 ;;		On exit  : 0/0
  6769 ;;		Unchanged: 0/0
  6770 ;; Data sizes:     COMMON   BANK0   BANK1   BANK2   BANK3   BANK4   BANK5   BANK6   BANK7   BANK8   BANK9  BANK10  BANK1
      +1  BANK12  BANK13  BANK14  BANK15  BANK16  BANK17  BANK18  BANK19  BANK20  BANK21  BANK22  BANK23  BANK24  BANK25
  6771 ;;      Params:         4       0       0       0       0       0       0       0       0       0       0       0       
      +0       0       0       0       0       0       0       0       0       0       0       0       0       0       0
  6772 ;;      Locals:         4       0       0       0       0       0       0       0       0       0       0       0       
      +0       0       0       0       0       0       0       0       0       0       0       0       0       0       0
  6773 ;;      Temps:          1       0       0       0       0       0       0       0       0       0       0       0       
      +0       0       0       0       0       0       0       0       0       0       0       0       0       0       0
  6774 ;;      Totals:         9       0       0       0       0       0       0       0       0       0       0       0       
      +0       0       0       0       0       0       0       0       0       0       0       0       0       0       0
  6775 ;;Total ram usage:        9 bytes
  6776 ;; Hardware stack levels used: 1
  6777 ;; Hardware stack levels required when called: 1
  6778 ;; This function calls:
  6779 ;;		Nothing
  6780 ;; This function is called by:
  6781 ;;		_itoa
  6782 ;; This function uses a non-reentrant model
  6783 ;;
  6784                           
  6785     17A1                     ___awdiv:	
  6786                           ;psect for function ___awdiv
  6787                           
  6788     17A1                     l2154:	
  6789                           ;incstack = 0
  6790                           ; Regs used in ___awdiv: [wreg+status,2+status,0]
  6791                           
  6792     17A1  01F6               	clrf	___awdiv@sign
  6793     17A2                     l2156:
  6794     17A2  1FF1               	btfss	___awdiv@divisor+1,7
  6795     17A3  2FA5               	goto	u2381
  6796     17A4  2FA6               	goto	u2380
  6797     17A5                     u2381:
  6798     17A5  2FAD               	goto	l2162
  6799     17A6                     u2380:
  6800     17A6                     l2158:
  6801     17A6  09F0               	comf	___awdiv@divisor,f
  6802     17A7  09F1               	comf	___awdiv@divisor+1,f
  6803     17A8  0AF0               	incf	___awdiv@divisor,f
  6804     17A9  1903               	skipnz
  6805     17AA  0AF1               	incf	___awdiv@divisor+1,f
  6806     17AB                     l2160:
  6807     17AB  01F6               	clrf	___awdiv@sign
  6808     17AC  0AF6               	incf	___awdiv@sign,f
  6809     17AD                     l2162:
  6810     17AD  1FF3               	btfss	___awdiv@dividend+1,7
  6811     17AE  2FB0               	goto	u2391
  6812     17AF  2FB1               	goto	u2390
  6813     17B0                     u2391:
  6814     17B0  2FBA               	goto	l2168
  6815     17B1                     u2390:
  6816     17B1                     l2164:
  6817     17B1  09F2               	comf	___awdiv@dividend,f
  6818     17B2  09F3               	comf	___awdiv@dividend+1,f
  6819     17B3  0AF2               	incf	___awdiv@dividend,f
  6820     17B4  1903               	skipnz
  6821     17B5  0AF3               	incf	___awdiv@dividend+1,f
  6822     17B6                     l2166:
  6823     17B6  3001               	movlw	1
  6824     17B7  00F4               	movwf	??___awdiv
  6825     17B8  0874               	movf	??___awdiv,w
  6826     17B9  06F6               	xorwf	___awdiv@sign,f
  6827     17BA                     l2168:
  6828     17BA  01F7               	clrf	___awdiv@quotient
  6829     17BB  01F8               	clrf	___awdiv@quotient+1
  6830     17BC                     l2170:
  6831     17BC  0870               	movf	___awdiv@divisor,w
  6832     17BD  0471               	iorwf	___awdiv@divisor+1,w
  6833     17BE  1903               	btfsc	3,2
  6834     17BF  2FC1               	goto	u2401
  6835     17C0  2FC2               	goto	u2400
  6836     17C1                     u2401:
  6837     17C1  2FF1               	goto	l2190
  6838     17C2                     u2400:
  6839     17C2                     l2172:
  6840     17C2  01F5               	clrf	___awdiv@counter
  6841     17C3  0AF5               	incf	___awdiv@counter,f
  6842     17C4  2FCE               	goto	l2178
  6843     17C5                     l2174:
  6844     17C5  3001               	movlw	1
  6845     17C6                     u2415:
  6846     17C6  35F0               	lslf	___awdiv@divisor,f
  6847     17C7  0DF1               	rlf	___awdiv@divisor+1,f
  6848     17C8  0B89               	decfsz	9,f
  6849     17C9  2FC6               	goto	u2415
  6850     17CA                     l2176:
  6851     17CA  3001               	movlw	1
  6852     17CB  00F4               	movwf	??___awdiv
  6853     17CC  0874               	movf	??___awdiv,w
  6854     17CD  07F5               	addwf	___awdiv@counter,f
  6855     17CE                     l2178:
  6856     17CE  1FF1               	btfss	___awdiv@divisor+1,7
  6857     17CF  2FD1               	goto	u2421
  6858     17D0  2FD2               	goto	u2420
  6859     17D1                     u2421:
  6860     17D1  2FC5               	goto	l2174
  6861     17D2                     u2420:
  6862     17D2                     l2180:
  6863     17D2  3001               	movlw	1
  6864     17D3                     u2435:
  6865     17D3  35F7               	lslf	___awdiv@quotient,f
  6866     17D4  0DF8               	rlf	___awdiv@quotient+1,f
  6867     17D5  0B89               	decfsz	9,f
  6868     17D6  2FD3               	goto	u2435
  6869     17D7  0871               	movf	___awdiv@divisor+1,w
  6870     17D8  0273               	subwf	___awdiv@dividend+1,w
  6871     17D9  1D03               	skipz
  6872     17DA  2FDD               	goto	u2445
  6873     17DB  0870               	movf	___awdiv@divisor,w
  6874     17DC  0272               	subwf	___awdiv@dividend,w
  6875     17DD                     u2445:
  6876     17DD  1C03               	skipc
  6877     17DE  2FE0               	goto	u2441
  6878     17DF  2FE1               	goto	u2440
  6879     17E0                     u2441:
  6880     17E0  2FE6               	goto	l2186
  6881     17E1                     u2440:
  6882     17E1                     l2182:
  6883     17E1  0870               	movf	___awdiv@divisor,w
  6884     17E2  02F2               	subwf	___awdiv@dividend,f
  6885     17E3  0871               	movf	___awdiv@divisor+1,w
  6886     17E4  3BF3               	subwfb	___awdiv@dividend+1,f
  6887     17E5                     l2184:
  6888     17E5  1477               	bsf	___awdiv@quotient,0
  6889     17E6                     l2186:
  6890     17E6  3001               	movlw	1
  6891     17E7                     u2455:
  6892     17E7  36F1               	lsrf	___awdiv@divisor+1,f
  6893     17E8  0CF0               	rrf	___awdiv@divisor,f
  6894     17E9  0B89               	decfsz	9,f
  6895     17EA  2FE7               	goto	u2455
  6896     17EB                     l2188:
  6897     17EB  3001               	movlw	1
  6898     17EC  02F5               	subwf	___awdiv@counter,f
  6899     17ED  1D03               	btfss	3,2
  6900     17EE  2FF0               	goto	u2461
  6901     17EF  2FF1               	goto	u2460
  6902     17F0                     u2461:
  6903     17F0  2FD2               	goto	l2180
  6904     17F1                     u2460:
  6905     17F1                     l2190:
  6906     17F1  0876               	movf	___awdiv@sign,w
  6907     17F2  1903               	btfsc	3,2
  6908     17F3  2FF5               	goto	u2471
  6909     17F4  2FF6               	goto	u2470
  6910     17F5                     u2471:
  6911     17F5  2FFB               	goto	l2194
  6912     17F6                     u2470:
  6913     17F6                     l2192:
  6914     17F6  09F7               	comf	___awdiv@quotient,f
  6915     17F7  09F8               	comf	___awdiv@quotient+1,f
  6916     17F8  0AF7               	incf	___awdiv@quotient,f
  6917     17F9  1903               	skipnz
  6918     17FA  0AF8               	incf	___awdiv@quotient+1,f
  6919     17FB                     l2194:
  6920     17FB  0878               	movf	___awdiv@quotient+1,w
  6921     17FC  00F1               	movwf	?___awdiv+1
  6922     17FD  0877               	movf	___awdiv@quotient,w
  6923     17FE  00F0               	movwf	?___awdiv
  6924     17FF                     l432:
  6925     17FF  0008               	return
  6926     1800                     __end_of___awdiv:
  6927                           
  6928                           	psect	text22
  6929     0740                     __ptext22:	
  6930 ;; *************** function ___xxtofl *****************
  6931 ;; Defined at:
  6932 ;;		line 10 in file "C:\Program Files\Microchip\xc8\v2.46\pic\sources\c99\common\xxtofl.c"
  6933 ;; Parameters:    Size  Location     Type
  6934 ;;  sign            1    wreg     unsigned char 
  6935 ;;  val             4    0[COMMON] long 
  6936 ;; Auto vars:     Size  Location     Type
  6937 ;;  sign            1    8[COMMON] unsigned char 
  6938 ;;  arg             4   10[COMMON] unsigned long 
  6939 ;;  exp             1    9[COMMON] unsigned char 
  6940 ;; Return value:  Size  Location     Type
  6941 ;;                  4    0[COMMON] unsigned char 
  6942 ;; Registers used:
  6943 ;;		wreg, status,2, status,0
  6944 ;; Tracked objects:
  6945 ;;		On entry : 0/0
  6946 ;;		On exit  : 0/0
  6947 ;;		Unchanged: 0/0
  6948 ;; Data sizes:     COMMON   BANK0   BANK1   BANK2   BANK3   BANK4   BANK5   BANK6   BANK7   BANK8   BANK9  BANK10  BANK1
      +1  BANK12  BANK13  BANK14  BANK15  BANK16  BANK17  BANK18  BANK19  BANK20  BANK21  BANK22  BANK23  BANK24  BANK25
  6949 ;;      Params:         4       0       0       0       0       0       0       0       0       0       0       0       
      +0       0       0       0       0       0       0       0       0       0       0       0       0       0       0
  6950 ;;      Locals:         6       0       0       0       0       0       0       0       0       0       0       0       
      +0       0       0       0       0       0       0       0       0       0       0       0       0       0       0
  6951 ;;      Temps:          4       0       0       0       0       0       0       0       0       0       0       0       
      +0       0       0       0       0       0       0       0       0       0       0       0       0       0       0
  6952 ;;      Totals:        14       0       0       0       0       0       0       0       0       0       0       0       
      +0       0       0       0       0       0       0       0       0       0       0       0       0       0       0
  6953 ;;Total ram usage:       14 bytes
  6954 ;; Hardware stack levels used: 1
  6955 ;; Hardware stack levels required when called: 1
  6956 ;; This function calls:
  6957 ;;		Nothing
  6958 ;; This function is called by:
  6959 ;;		_ftoa
  6960 ;;		_calibrate
  6961 ;;		_main
  6962 ;; This function uses a non-reentrant model
  6963 ;;
  6964                           
  6965     0740                     ___xxtofl:	
  6966                           ;psect for function ___xxtofl
  6967                           
  6968                           
  6969                           ;incstack = 0
  6970                           ; Regs used in ___xxtofl: [wreg+status,2+status,0]
  6971                           ;___xxtofl@sign stored from wreg
  6972     0740  00F8               	movwf	___xxtofl@sign
  6973     0741                     l2742:
  6974     0741  0878               	movf	___xxtofl@sign,w
  6975     0742  1903               	btfsc	3,2
  6976     0743  2F45               	goto	u3601
  6977     0744  2F46               	goto	u3600
  6978     0745                     u3601:
  6979     0745  2F5A               	goto	l2748
  6980     0746                     u3600:
  6981     0746                     l2744:
  6982     0746  1FF3               	btfss	___xxtofl@val+3,7
  6983     0747  2F49               	goto	u3611
  6984     0748  2F4A               	goto	u3610
  6985     0749                     u3611:
  6986     0749  2F5A               	goto	l2748
  6987     074A                     u3610:
  6988     074A                     l2746:
  6989     074A  0970               	comf	___xxtofl@val,w
  6990     074B  00FA               	movwf	___xxtofl@arg
  6991     074C  0971               	comf	___xxtofl@val+1,w
  6992     074D  00FB               	movwf	___xxtofl@arg+1
  6993     074E  0972               	comf	___xxtofl@val+2,w
  6994     074F  00FC               	movwf	___xxtofl@arg+2
  6995     0750  0973               	comf	___xxtofl@val+3,w
  6996     0751  00FD               	movwf	___xxtofl@arg+3
  6997     0752  0AFA               	incf	___xxtofl@arg,f
  6998     0753  1903               	skipnz
  6999     0754  0AFB               	incf	___xxtofl@arg+1,f
  7000     0755  1903               	skipnz
  7001     0756  0AFC               	incf	___xxtofl@arg+2,f
  7002     0757  1903               	skipnz
  7003     0758  0AFD               	incf	___xxtofl@arg+3,f
  7004     0759  2F62               	goto	l720
  7005     075A                     l2748:
  7006     075A  0873               	movf	___xxtofl@val+3,w
  7007     075B  00FD               	movwf	___xxtofl@arg+3
  7008     075C  0872               	movf	___xxtofl@val+2,w
  7009     075D  00FC               	movwf	___xxtofl@arg+2
  7010     075E  0871               	movf	___xxtofl@val+1,w
  7011     075F  00FB               	movwf	___xxtofl@arg+1
  7012     0760  0870               	movf	___xxtofl@val,w
  7013     0761  00FA               	movwf	___xxtofl@arg
  7014     0762                     l720:
  7015     0762  0873               	movf	___xxtofl@val+3,w
  7016     0763  0472               	iorwf	___xxtofl@val+2,w
  7017     0764  0471               	iorwf	___xxtofl@val+1,w
  7018     0765  0470               	iorwf	___xxtofl@val,w
  7019     0766  1D03               	skipz
  7020     0767  2F69               	goto	u3621
  7021     0768  2F6A               	goto	u3620
  7022     0769                     u3621:
  7023     0769  2F73               	goto	l2754
  7024     076A                     u3620:
  7025     076A                     l2750:
  7026     076A  3000               	movlw	0
  7027     076B  00F3               	movwf	?___xxtofl+3
  7028     076C  3000               	movlw	0
  7029     076D  00F2               	movwf	?___xxtofl+2
  7030     076E  3000               	movlw	0
  7031     076F  00F1               	movwf	?___xxtofl+1
  7032     0770  3000               	movlw	0
  7033     0771  00F0               	movwf	?___xxtofl
  7034     0772  2FE9               	goto	l722
  7035     0773                     l2754:
  7036     0773  3096               	movlw	150
  7037     0774  00F9               	movwf	___xxtofl@exp
  7038     0775  2F81               	goto	l2758
  7039     0776                     l2756:
  7040     0776  3001               	movlw	1
  7041     0777  00F4               	movwf	??___xxtofl
  7042     0778  0874               	movf	??___xxtofl,w
  7043     0779  07F9               	addwf	___xxtofl@exp,f
  7044     077A  3001               	movlw	1
  7045     077B                     u3635:
  7046     077B  36FD               	lsrf	___xxtofl@arg+3,f
  7047     077C  0CFC               	rrf	___xxtofl@arg+2,f
  7048     077D  0CFB               	rrf	___xxtofl@arg+1,f
  7049     077E  0CFA               	rrf	___xxtofl@arg,f
  7050     077F  0B89               	decfsz	9,f
  7051     0780  2F7B               	goto	u3635
  7052     0781                     l2758:
  7053     0781  30FE               	movlw	254
  7054     0782  057D               	andwf	___xxtofl@arg+3,w
  7055     0783  1D03               	btfss	3,2
  7056     0784  2F86               	goto	u3641
  7057     0785  2F87               	goto	u3640
  7058     0786                     u3641:
  7059     0786  2F76               	goto	l2756
  7060     0787                     u3640:
  7061     0787  2F9B               	goto	l726
  7062     0788                     l2760:
  7063     0788  3001               	movlw	1
  7064     0789  00F4               	movwf	??___xxtofl
  7065     078A  0874               	movf	??___xxtofl,w
  7066     078B  07F9               	addwf	___xxtofl@exp,f
  7067     078C                     l2762:
  7068     078C  3001               	movlw	1
  7069     078D  07FA               	addwf	___xxtofl@arg,f
  7070     078E  3000               	movlw	0
  7071     078F  3DFB               	addwfc	___xxtofl@arg+1,f
  7072     0790  3000               	movlw	0
  7073     0791  3DFC               	addwfc	___xxtofl@arg+2,f
  7074     0792  3000               	movlw	0
  7075     0793  3DFD               	addwfc	___xxtofl@arg+3,f
  7076     0794                     l2764:
  7077     0794  3001               	movlw	1
  7078     0795                     u3655:
  7079     0795  36FD               	lsrf	___xxtofl@arg+3,f
  7080     0796  0CFC               	rrf	___xxtofl@arg+2,f
  7081     0797  0CFB               	rrf	___xxtofl@arg+1,f
  7082     0798  0CFA               	rrf	___xxtofl@arg,f
  7083     0799  0B89               	decfsz	9,f
  7084     079A  2F95               	goto	u3655
  7085     079B                     l726:
  7086     079B  30FF               	movlw	255
  7087     079C  057D               	andwf	___xxtofl@arg+3,w
  7088     079D  1D03               	btfss	3,2
  7089     079E  2FA0               	goto	u3661
  7090     079F  2FA1               	goto	u3660
  7091     07A0                     u3661:
  7092     07A0  2F88               	goto	l2760
  7093     07A1                     u3660:
  7094     07A1  2FAB               	goto	l2768
  7095     07A2                     l2766:
  7096     07A2  3001               	movlw	1
  7097     07A3  02F9               	subwf	___xxtofl@exp,f
  7098     07A4  3001               	movlw	1
  7099     07A5                     u3675:
  7100     07A5  35FA               	lslf	___xxtofl@arg,f
  7101     07A6  0DFB               	rlf	___xxtofl@arg+1,f
  7102     07A7  0DFC               	rlf	___xxtofl@arg+2,f
  7103     07A8  0DFD               	rlf	___xxtofl@arg+3,f
  7104     07A9  0B89               	decfsz	9,f
  7105     07AA  2FA5               	goto	u3675
  7106     07AB                     l2768:
  7107     07AB  1BFC               	btfsc	___xxtofl@arg+2,7
  7108     07AC  2FAE               	goto	u3681
  7109     07AD  2FAF               	goto	u3680
  7110     07AE                     u3681:
  7111     07AE  2FB5               	goto	l733
  7112     07AF                     u3680:
  7113     07AF                     l2770:
  7114     07AF  3002               	movlw	2
  7115     07B0  0279               	subwf	___xxtofl@exp,w
  7116     07B1  1803               	skipnc
  7117     07B2  2FB4               	goto	u3691
  7118     07B3  2FB5               	goto	u3690
  7119     07B4                     u3691:
  7120     07B4  2FA2               	goto	l2766
  7121     07B5                     u3690:
  7122     07B5                     l733:
  7123     07B5  1879               	btfsc	___xxtofl@exp,0
  7124     07B6  2FB8               	goto	u3701
  7125     07B7  2FB9               	goto	u3700
  7126     07B8                     u3701:
  7127     07B8  2FC1               	goto	l734
  7128     07B9                     u3700:
  7129     07B9                     l2772:
  7130     07B9  30FF               	movlw	255
  7131     07BA  05FA               	andwf	___xxtofl@arg,f
  7132     07BB  30FF               	movlw	255
  7133     07BC  05FB               	andwf	___xxtofl@arg+1,f
  7134     07BD  307F               	movlw	127
  7135     07BE  05FC               	andwf	___xxtofl@arg+2,f
  7136     07BF  30FF               	movlw	255
  7137     07C0  05FD               	andwf	___xxtofl@arg+3,f
  7138     07C1                     l734:
  7139     07C1  1003               	clrc
  7140     07C2  0CF9               	rrf	___xxtofl@exp,f
  7141     07C3                     l2774:
  7142     07C3  0879               	movf	___xxtofl@exp,w
  7143     07C4  00F4               	movwf	??___xxtofl
  7144     07C5  01F5               	clrf	??___xxtofl+1
  7145     07C6  01F6               	clrf	??___xxtofl+2
  7146     07C7  01F7               	clrf	??___xxtofl+3
  7147     07C8  3018               	movlw	24
  7148     07C9                     u3715:
  7149     07C9  35F4               	lslf	??___xxtofl,f
  7150     07CA  0DF5               	rlf	??___xxtofl+1,f
  7151     07CB  0DF6               	rlf	??___xxtofl+2,f
  7152     07CC  0DF7               	rlf	??___xxtofl+3,f
  7153     07CD                     u3710:
  7154     07CD  0B89               	decfsz	9,f
  7155     07CE  2FC9               	goto	u3715
  7156     07CF  0874               	movf	??___xxtofl,w
  7157     07D0  04FA               	iorwf	___xxtofl@arg,f
  7158     07D1  0875               	movf	??___xxtofl+1,w
  7159     07D2  04FB               	iorwf	___xxtofl@arg+1,f
  7160     07D3  0876               	movf	??___xxtofl+2,w
  7161     07D4  04FC               	iorwf	___xxtofl@arg+2,f
  7162     07D5  0877               	movf	??___xxtofl+3,w
  7163     07D6  04FD               	iorwf	___xxtofl@arg+3,f
  7164     07D7                     l2776:
  7165     07D7  0878               	movf	___xxtofl@sign,w
  7166     07D8  1903               	btfsc	3,2
  7167     07D9  2FDB               	goto	u3721
  7168     07DA  2FDC               	goto	u3720
  7169     07DB                     u3721:
  7170     07DB  2FE1               	goto	l2782
  7171     07DC                     u3720:
  7172     07DC                     l2778:
  7173     07DC  1FF3               	btfss	___xxtofl@val+3,7
  7174     07DD  2FDF               	goto	u3731
  7175     07DE  2FE0               	goto	u3730
  7176     07DF                     u3731:
  7177     07DF  2FE1               	goto	l2782
  7178     07E0                     u3730:
  7179     07E0                     l2780:
  7180     07E0  17FD               	bsf	___xxtofl@arg+3,7
  7181     07E1                     l2782:
  7182     07E1  087D               	movf	___xxtofl@arg+3,w
  7183     07E2  00F3               	movwf	?___xxtofl+3
  7184     07E3  087C               	movf	___xxtofl@arg+2,w
  7185     07E4  00F2               	movwf	?___xxtofl+2
  7186     07E5  087B               	movf	___xxtofl@arg+1,w
  7187     07E6  00F1               	movwf	?___xxtofl+1
  7188     07E7  087A               	movf	___xxtofl@arg,w
  7189     07E8  00F0               	movwf	?___xxtofl
  7190     07E9                     l722:
  7191     07E9  0008               	return
  7192     07EA                     __end_of___xxtofl:
  7193                           
  7194                           	psect	text23
  7195     085B                     __ptext23:	
  7196 ;; *************** function ___fltol *****************
  7197 ;; Defined at:
  7198 ;;		line 43 in file "C:\Program Files\Microchip\xc8\v2.46\pic\sources\c99\common\fltol.c"
  7199 ;; Parameters:    Size  Location     Type
  7200 ;;  f1              4   26[BANK0 ] unsigned char 
  7201 ;; Auto vars:     Size  Location     Type
  7202 ;;  exp1            1   35[BANK0 ] unsigned char 
  7203 ;;  sign1           1   34[BANK0 ] unsigned char 
  7204 ;; Return value:  Size  Location     Type
  7205 ;;                  4   26[BANK0 ] long 
  7206 ;; Registers used:
  7207 ;;		wreg, status,2, status,0
  7208 ;; Tracked objects:
  7209 ;;		On entry : 0/0
  7210 ;;		On exit  : 0/0
  7211 ;;		Unchanged: 0/0
  7212 ;; Data sizes:     COMMON   BANK0   BANK1   BANK2   BANK3   BANK4   BANK5   BANK6   BANK7   BANK8   BANK9  BANK10  BANK1
      +1  BANK12  BANK13  BANK14  BANK15  BANK16  BANK17  BANK18  BANK19  BANK20  BANK21  BANK22  BANK23  BANK24  BANK25
  7213 ;;      Params:         0       4       0       0       0       0       0       0       0       0       0       0       
      +0       0       0       0       0       0       0       0       0       0       0       0       0       0       0
  7214 ;;      Locals:         0       2       0       0       0       0       0       0       0       0       0       0       
      +0       0       0       0       0       0       0       0       0       0       0       0       0       0       0
  7215 ;;      Temps:          0       4       0       0       0       0       0       0       0       0       0       0       
      +0       0       0       0       0       0       0       0       0       0       0       0       0       0       0
  7216 ;;      Totals:         0      10       0       0       0       0       0       0       0       0       0       0       
      +0       0       0       0       0       0       0       0       0       0       0       0       0       0       0
  7217 ;;Total ram usage:       10 bytes
  7218 ;; Hardware stack levels used: 1
  7219 ;; Hardware stack levels required when called: 1
  7220 ;; This function calls:
  7221 ;;		Nothing
  7222 ;; This function is called by:
  7223 ;;		_ftoa
  7224 ;;		_calibrate
  7225 ;;		_main
  7226 ;; This function uses a non-reentrant model
  7227 ;;
  7228                           
  7229     085B                     ___fltol:	
  7230                           ;psect for function ___fltol
  7231                           
  7232     085B                     l2560:	
  7233                           ;incstack = 0
  7234                           ; Regs used in ___fltol: [wreg+status,2+status,0]
  7235                           
  7236     085B  1003               	clrc
  7237     085C  0020               	movlb	0	; select bank0
  7238     085D  0D3C               	rlf	___fltol@f1+2,w
  7239     085E  0D3D               	rlf	___fltol@f1+3,w
  7240     085F  00C3               	movwf	___fltol@exp1
  7241     0860  0843               	movf	___fltol@exp1,w
  7242     0861  1D03               	btfss	3,2
  7243     0862  2864               	goto	u3241
  7244     0863  2865               	goto	u3240
  7245     0864                     u3241:
  7246     0864  286E               	goto	l2566
  7247     0865                     u3240:
  7248     0865                     l2562:
  7249     0865  3000               	movlw	0
  7250     0866  00BD               	movwf	?___fltol+3
  7251     0867  3000               	movlw	0
  7252     0868  00BC               	movwf	?___fltol+2
  7253     0869  3000               	movlw	0
  7254     086A  00BB               	movwf	?___fltol+1
  7255     086B  3000               	movlw	0
  7256     086C  00BA               	movwf	?___fltol
  7257     086D  28CB               	goto	l473
  7258     086E                     l2566:
  7259     086E  083A               	movf	___fltol@f1,w
  7260     086F  00BE               	movwf	??___fltol
  7261     0870  083B               	movf	___fltol@f1+1,w
  7262     0871  00BF               	movwf	??___fltol+1
  7263     0872  083C               	movf	___fltol@f1+2,w
  7264     0873  00C0               	movwf	??___fltol+2
  7265     0874  083D               	movf	___fltol@f1+3,w
  7266     0875  00C1               	movwf	??___fltol+3
  7267     0876  301F               	movlw	31
  7268     0877                     u3255:
  7269     0877  36C1               	lsrf	??___fltol+3,f
  7270     0878  0CC0               	rrf	??___fltol+2,f
  7271     0879  0CBF               	rrf	??___fltol+1,f
  7272     087A  0CBE               	rrf	??___fltol,f
  7273     087B                     u3250:
  7274     087B  0B89               	decfsz	9,f
  7275     087C  2877               	goto	u3255
  7276     087D  083E               	movf	??___fltol,w
  7277     087E  00C2               	movwf	___fltol@sign1
  7278     087F                     l2568:
  7279     087F  17BC               	bsf	___fltol@f1+2,7
  7280     0880                     l2570:
  7281     0880  30FF               	movlw	255
  7282     0881  05BA               	andwf	___fltol@f1,f
  7283     0882  30FF               	movlw	255
  7284     0883  05BB               	andwf	___fltol@f1+1,f
  7285     0884  30FF               	movlw	255
  7286     0885  05BC               	andwf	___fltol@f1+2,f
  7287     0886  3000               	movlw	0
  7288     0887  05BD               	andwf	___fltol@f1+3,f
  7289     0888                     l2572:
  7290     0888  3096               	movlw	150
  7291     0889  02C3               	subwf	___fltol@exp1,f
  7292     088A                     l2574:
  7293     088A  1FC3               	btfss	___fltol@exp1,7
  7294     088B  288D               	goto	u3261
  7295     088C  288E               	goto	u3260
  7296     088D                     u3261:
  7297     088D  28A6               	goto	l2584
  7298     088E                     u3260:
  7299     088E                     l2576:
  7300     088E  0843               	movf	___fltol@exp1,w
  7301     088F  3A80               	xorlw	128
  7302     0890  3E97               	addlw	151
  7303     0891  1803               	skipnc
  7304     0892  2894               	goto	u3271
  7305     0893  2895               	goto	u3270
  7306     0894                     u3271:
  7307     0894  2896               	goto	l2582
  7308     0895                     u3270:
  7309     0895  2865               	goto	l2562
  7310     0896                     l2582:
  7311     0896  3001               	movlw	1
  7312     0897                     u3285:
  7313     0897  36BD               	lsrf	___fltol@f1+3,f
  7314     0898  0CBC               	rrf	___fltol@f1+2,f
  7315     0899  0CBB               	rrf	___fltol@f1+1,f
  7316     089A  0CBA               	rrf	___fltol@f1,f
  7317     089B  0B89               	decfsz	9,f
  7318     089C  2897               	goto	u3285
  7319     089D  3001               	movlw	1
  7320     089E  00BE               	movwf	??___fltol
  7321     089F  083E               	movf	??___fltol,w
  7322     08A0  07C3               	addwf	___fltol@exp1,f
  7323     08A1  1D03               	btfss	3,2
  7324     08A2  28A4               	goto	u3291
  7325     08A3  28A5               	goto	u3290
  7326     08A4                     u3291:
  7327     08A4  2896               	goto	l2582
  7328     08A5                     u3290:
  7329     08A5  28BB               	goto	l2592
  7330     08A6                     l2584:
  7331     08A6  3020               	movlw	32
  7332     08A7  0243               	subwf	___fltol@exp1,w
  7333     08A8  1C03               	skipc
  7334     08A9  28AB               	goto	u3301
  7335     08AA  28AC               	goto	u3300
  7336     08AB                     u3301:
  7337     08AB  28B6               	goto	l480
  7338     08AC                     u3300:
  7339     08AC  2865               	goto	l2562
  7340     08AD                     l2590:
  7341     08AD  3001               	movlw	1
  7342     08AE                     u3315:
  7343     08AE  35BA               	lslf	___fltol@f1,f
  7344     08AF  0DBB               	rlf	___fltol@f1+1,f
  7345     08B0  0DBC               	rlf	___fltol@f1+2,f
  7346     08B1  0DBD               	rlf	___fltol@f1+3,f
  7347     08B2  0B89               	decfsz	9,f
  7348     08B3  28AE               	goto	u3315
  7349     08B4  3001               	movlw	1
  7350     08B5  02C3               	subwf	___fltol@exp1,f
  7351     08B6                     l480:
  7352     08B6  0843               	movf	___fltol@exp1,w
  7353     08B7  1D03               	btfss	3,2
  7354     08B8  28BA               	goto	u3321
  7355     08B9  28BB               	goto	u3320
  7356     08BA                     u3321:
  7357     08BA  28AD               	goto	l2590
  7358     08BB                     u3320:
  7359     08BB                     l2592:
  7360     08BB  0842               	movf	___fltol@sign1,w
  7361     08BC  1903               	btfsc	3,2
  7362     08BD  28BF               	goto	u3331
  7363     08BE  28C0               	goto	u3330
  7364     08BF                     u3331:
  7365     08BF  28CB               	goto	l483
  7366     08C0                     u3330:
  7367     08C0                     l2594:
  7368     08C0  09BA               	comf	___fltol@f1,f
  7369     08C1  09BB               	comf	___fltol@f1+1,f
  7370     08C2  09BC               	comf	___fltol@f1+2,f
  7371     08C3  09BD               	comf	___fltol@f1+3,f
  7372     08C4  0ABA               	incf	___fltol@f1,f
  7373     08C5  1903               	skipnz
  7374     08C6  0ABB               	incf	___fltol@f1+1,f
  7375     08C7  1903               	skipnz
  7376     08C8  0ABC               	incf	___fltol@f1+2,f
  7377     08C9  1903               	skipnz
  7378     08CA  0ABD               	incf	___fltol@f1+3,f
  7379     08CB                     l483:
  7380     08CB                     l473:
  7381     08CB  0008               	return
  7382     08CC                     __end_of___fltol:
  7383                           
  7384                           	psect	text24
  7385     15CD                     __ptext24:	
  7386 ;; *************** function ___flsub *****************
  7387 ;; Defined at:
  7388 ;;		line 242 in file "C:\Program Files\Microchip\xc8\v2.46\pic\sources\c99\common\sprcadd.c"
  7389 ;; Parameters:    Size  Location     Type
  7390 ;;  a               4    8[BANK0 ] long 
  7391 ;;  b               4   12[BANK0 ] long 
  7392 ;; Auto vars:     Size  Location     Type
  7393 ;;		None
  7394 ;; Return value:  Size  Location     Type
  7395 ;;                  4    8[BANK0 ] long 
  7396 ;; Registers used:
  7397 ;;		wreg, status,2, status,0, pclath, cstack
  7398 ;; Tracked objects:
  7399 ;;		On entry : 0/0
  7400 ;;		On exit  : 0/0
  7401 ;;		Unchanged: 0/0
  7402 ;; Data sizes:     COMMON   BANK0   BANK1   BANK2   BANK3   BANK4   BANK5   BANK6   BANK7   BANK8   BANK9  BANK10  BANK1
      +1  BANK12  BANK13  BANK14  BANK15  BANK16  BANK17  BANK18  BANK19  BANK20  BANK21  BANK22  BANK23  BANK24  BANK25
  7403 ;;      Params:         0       8       0       0       0       0       0       0       0       0       0       0       
      +0       0       0       0       0       0       0       0       0       0       0       0       0       0       0
  7404 ;;      Locals:         0       0       0       0       0       0       0       0       0       0       0       0       
      +0       0       0       0       0       0       0       0       0       0       0       0       0       0       0
  7405 ;;      Temps:          0       0       0       0       0       0       0       0       0       0       0       0       
      +0       0       0       0       0       0       0       0       0       0       0       0       0       0       0
  7406 ;;      Totals:         0       8       0       0       0       0       0       0       0       0       0       0       
      +0       0       0       0       0       0       0       0       0       0       0       0       0       0       0
  7407 ;;Total ram usage:        8 bytes
  7408 ;; Hardware stack levels used: 1
  7409 ;; Hardware stack levels required when called: 2
  7410 ;; This function calls:
  7411 ;;		___fladd
  7412 ;; This function is called by:
  7413 ;;		_ftoa
  7414 ;;		_main
  7415 ;; This function uses a non-reentrant model
  7416 ;;
  7417                           
  7418     15CD                     ___flsub:	
  7419                           ;psect for function ___flsub
  7420                           
  7421     15CD                     l2596:	
  7422                           ;incstack = 0
  7423                           ; Regs used in ___flsub: [wreg+status,2+status,0+pclath+cstack]
  7424                           
  7425     15CD  3080               	movlw	128
  7426     15CE  0020               	movlb	0	; select bank0
  7427     15CF  06AB               	xorwf	___flsub@a+3,f
  7428     15D0                     l2598:
  7429     15D0  082F               	movf	___flsub@b+3,w
  7430     15D1  00F3               	movwf	___fladd@b+3
  7431     15D2  082E               	movf	___flsub@b+2,w
  7432     15D3  00F2               	movwf	___fladd@b+2
  7433     15D4  082D               	movf	___flsub@b+1,w
  7434     15D5  00F1               	movwf	___fladd@b+1
  7435     15D6  082C               	movf	___flsub@b,w
  7436     15D7  00F0               	movwf	___fladd@b
  7437     15D8  082B               	movf	___flsub@a+3,w
  7438     15D9  00F7               	movwf	___fladd@a+3
  7439     15DA  082A               	movf	___flsub@a+2,w
  7440     15DB  00F6               	movwf	___fladd@a+2
  7441     15DC  0829               	movf	___flsub@a+1,w
  7442     15DD  00F5               	movwf	___fladd@a+1
  7443     15DE  0828               	movf	___flsub@a,w
  7444     15DF  00F4               	movwf	___fladd@a
  7445     15E0  3185  2534  3195   	fcall	___fladd
  7446     15E3  0873               	movf	?___fladd+3,w
  7447     15E4  0020               	movlb	0	; select bank0
  7448     15E5  00AB               	movwf	?___flsub+3
  7449     15E6  0872               	movf	?___fladd+2,w
  7450     15E7  00AA               	movwf	?___flsub+2
  7451     15E8  0871               	movf	?___fladd+1,w
  7452     15E9  00A9               	movwf	?___flsub+1
  7453     15EA  0870               	movf	?___fladd,w
  7454     15EB  00A8               	movwf	?___flsub
  7455     15EC                     l626:
  7456     15EC  0008               	return
  7457     15ED                     __end_of___flsub:
  7458                           
  7459                           	psect	text25
  7460     0534                     __ptext25:	
  7461 ;; *************** function ___fladd *****************
  7462 ;; Defined at:
  7463 ;;		line 10 in file "C:\Program Files\Microchip\xc8\v2.46\pic\sources\c99\common\sprcadd.c"
  7464 ;; Parameters:    Size  Location     Type
  7465 ;;  b               4    0[COMMON] long 
  7466 ;;  a               4    4[COMMON] long 
  7467 ;; Auto vars:     Size  Location     Type
  7468 ;;  grs             1   11[COMMON] unsigned char 
  7469 ;;  bexp            1   10[COMMON] unsigned char 
  7470 ;;  aexp            1    9[COMMON] unsigned char 
  7471 ;;  signs           1    8[COMMON] unsigned char 
  7472 ;; Return value:  Size  Location     Type
  7473 ;;                  4    0[COMMON] unsigned char 
  7474 ;; Registers used:
  7475 ;;		wreg, status,2, status,0
  7476 ;; Tracked objects:
  7477 ;;		On entry : 0/0
  7478 ;;		On exit  : 0/0
  7479 ;;		Unchanged: 0/0
  7480 ;; Data sizes:     COMMON   BANK0   BANK1   BANK2   BANK3   BANK4   BANK5   BANK6   BANK7   BANK8   BANK9  BANK10  BANK1
      +1  BANK12  BANK13  BANK14  BANK15  BANK16  BANK17  BANK18  BANK19  BANK20  BANK21  BANK22  BANK23  BANK24  BANK25
  7481 ;;      Params:         8       0       0       0       0       0       0       0       0       0       0       0       
      +0       0       0       0       0       0       0       0       0       0       0       0       0       0       0
  7482 ;;      Locals:         4       0       0       0       0       0       0       0       0       0       0       0       
      +0       0       0       0       0       0       0       0       0       0       0       0       0       0       0
  7483 ;;      Temps:          0       8       0       0       0       0       0       0       0       0       0       0       
      +0       0       0       0       0       0       0       0       0       0       0       0       0       0       0
  7484 ;;      Totals:        12       8       0       0       0       0       0       0       0       0       0       0       
      +0       0       0       0       0       0       0       0       0       0       0       0       0       0       0
  7485 ;;Total ram usage:       20 bytes
  7486 ;; Hardware stack levels used: 1
  7487 ;; Hardware stack levels required when called: 1
  7488 ;; This function calls:
  7489 ;;		Nothing
  7490 ;; This function is called by:
  7491 ;;		___flsub
  7492 ;; This function uses a non-reentrant model
  7493 ;;
  7494                           
  7495     0534                     ___fladd:	
  7496                           ;psect for function ___fladd
  7497                           
  7498     0534                     l2236:	
  7499                           ;incstack = 0
  7500                           ; Regs used in ___fladd: [wreg+status,2+status,0]
  7501                           
  7502     0534  0873               	movf	___fladd@b+3,w
  7503     0535  3980               	andlw	128
  7504     0536  00F8               	movwf	___fladd@signs
  7505     0537                     l2238:
  7506     0537  3573               	lslf	___fladd@b+3,w
  7507     0538  00FA               	movwf	___fladd@bexp
  7508     0539                     l2240:
  7509     0539  1FF2               	btfss	___fladd@b+2,7
  7510     053A  2D3C               	goto	u2571
  7511     053B  2D3D               	goto	u2570
  7512     053C                     u2571:
  7513     053C  2D3E               	goto	l2244
  7514     053D                     u2570:
  7515     053D                     l2242:
  7516     053D  147A               	bsf	___fladd@bexp,0
  7517     053E                     l2244:
  7518     053E  087A               	movf	___fladd@bexp,w
  7519     053F  1903               	btfsc	3,2
  7520     0540  2D42               	goto	u2581
  7521     0541  2D43               	goto	u2580
  7522     0542                     u2581:
  7523     0542  2D53               	goto	l2254
  7524     0543                     u2580:
  7525     0543                     l2246:
  7526     0543  0A7A               	incf	___fladd@bexp,w
  7527     0544  1D03               	btfss	3,2
  7528     0545  2D47               	goto	u2591
  7529     0546  2D48               	goto	u2590
  7530     0547                     u2591:
  7531     0547  2D50               	goto	l2250
  7532     0548                     u2590:
  7533     0548                     l2248:
  7534     0548  3000               	movlw	0
  7535     0549  00F3               	movwf	___fladd@b+3
  7536     054A  3000               	movlw	0
  7537     054B  00F2               	movwf	___fladd@b+2
  7538     054C  3000               	movlw	0
  7539     054D  00F1               	movwf	___fladd@b+1
  7540     054E  3000               	movlw	0
  7541     054F  00F0               	movwf	___fladd@b
  7542     0550                     l2250:
  7543     0550  17F2               	bsf	___fladd@b+2,7
  7544     0551                     l2252:
  7545     0551  01F3               	clrf	___fladd@b+3
  7546     0552  2D5B               	goto	l2256
  7547     0553                     l2254:
  7548     0553  3000               	movlw	0
  7549     0554  00F3               	movwf	___fladd@b+3
  7550     0555  3000               	movlw	0
  7551     0556  00F2               	movwf	___fladd@b+2
  7552     0557  3000               	movlw	0
  7553     0558  00F1               	movwf	___fladd@b+1
  7554     0559  3000               	movlw	0
  7555     055A  00F0               	movwf	___fladd@b
  7556     055B                     l2256:
  7557     055B  0877               	movf	___fladd@a+3,w
  7558     055C  3980               	andlw	128
  7559     055D  00F9               	movwf	___fladd@aexp
  7560     055E                     l2258:
  7561     055E  0879               	movf	___fladd@aexp,w
  7562     055F  0678               	xorwf	___fladd@signs,w
  7563     0560  1903               	skipnz
  7564     0561  2D63               	goto	u2601
  7565     0562  2D64               	goto	u2600
  7566     0563                     u2601:
  7567     0563  2D65               	goto	l2262
  7568     0564                     u2600:
  7569     0564                     l2260:
  7570     0564  1778               	bsf	___fladd@signs,6
  7571     0565                     l2262:
  7572     0565  3577               	lslf	___fladd@a+3,w
  7573     0566  00F9               	movwf	___fladd@aexp
  7574     0567                     l2264:
  7575     0567  1FF6               	btfss	___fladd@a+2,7
  7576     0568  2D6A               	goto	u2611
  7577     0569  2D6B               	goto	u2610
  7578     056A                     u2611:
  7579     056A  2D6C               	goto	l2268
  7580     056B                     u2610:
  7581     056B                     l2266:
  7582     056B  1479               	bsf	___fladd@aexp,0
  7583     056C                     l2268:
  7584     056C  0879               	movf	___fladd@aexp,w
  7585     056D  1903               	btfsc	3,2
  7586     056E  2D70               	goto	u2621
  7587     056F  2D71               	goto	u2620
  7588     0570                     u2621:
  7589     0570  2D81               	goto	l2278
  7590     0571                     u2620:
  7591     0571                     l2270:
  7592     0571  0A79               	incf	___fladd@aexp,w
  7593     0572  1D03               	btfss	3,2
  7594     0573  2D75               	goto	u2631
  7595     0574  2D76               	goto	u2630
  7596     0575                     u2631:
  7597     0575  2D7E               	goto	l2274
  7598     0576                     u2630:
  7599     0576                     l2272:
  7600     0576  3000               	movlw	0
  7601     0577  00F7               	movwf	___fladd@a+3
  7602     0578  3000               	movlw	0
  7603     0579  00F6               	movwf	___fladd@a+2
  7604     057A  3000               	movlw	0
  7605     057B  00F5               	movwf	___fladd@a+1
  7606     057C  3000               	movlw	0
  7607     057D  00F4               	movwf	___fladd@a
  7608     057E                     l2274:
  7609     057E  17F6               	bsf	___fladd@a+2,7
  7610     057F                     l2276:
  7611     057F  01F7               	clrf	___fladd@a+3
  7612     0580  2D89               	goto	l580
  7613     0581                     l2278:
  7614     0581  3000               	movlw	0
  7615     0582  00F7               	movwf	___fladd@a+3
  7616     0583  3000               	movlw	0
  7617     0584  00F6               	movwf	___fladd@a+2
  7618     0585  3000               	movlw	0
  7619     0586  00F5               	movwf	___fladd@a+1
  7620     0587  3000               	movlw	0
  7621     0588  00F4               	movwf	___fladd@a
  7622     0589                     l580:
  7623     0589  087A               	movf	___fladd@bexp,w
  7624     058A  0279               	subwf	___fladd@aexp,w
  7625     058B  1803               	skipnc
  7626     058C  2D8E               	goto	u2641
  7627     058D  2D8F               	goto	u2640
  7628     058E                     u2641:
  7629     058E  2DB6               	goto	l2314
  7630     058F                     u2640:
  7631     058F                     l2280:
  7632     058F  1F78               	btfss	___fladd@signs,6
  7633     0590  2D92               	goto	u2651
  7634     0591  2D93               	goto	u2650
  7635     0592                     u2651:
  7636     0592  2D98               	goto	l2284
  7637     0593                     u2650:
  7638     0593                     l2282:
  7639     0593  3080               	movlw	128
  7640     0594  0020               	movlb	0	; select bank0
  7641     0595  00A0               	movwf	??___fladd
  7642     0596  0820               	movf	??___fladd,w
  7643     0597  06F8               	xorwf	___fladd@signs,f
  7644     0598                     l2284:
  7645     0598  087A               	movf	___fladd@bexp,w
  7646     0599  00FB               	movwf	___fladd@grs
  7647     059A                     l2286:
  7648     059A  0879               	movf	___fladd@aexp,w
  7649     059B  00FA               	movwf	___fladd@bexp
  7650     059C                     l2288:
  7651     059C  087B               	movf	___fladd@grs,w
  7652     059D  00F9               	movwf	___fladd@aexp
  7653     059E                     l2290:
  7654     059E  0870               	movf	___fladd@b,w
  7655     059F  00FB               	movwf	___fladd@grs
  7656     05A0                     l2292:
  7657     05A0  0874               	movf	___fladd@a,w
  7658     05A1  00F0               	movwf	___fladd@b
  7659     05A2                     l2294:
  7660     05A2  087B               	movf	___fladd@grs,w
  7661     05A3  00F4               	movwf	___fladd@a
  7662     05A4                     l2296:
  7663     05A4  0871               	movf	___fladd@b+1,w
  7664     05A5  00FB               	movwf	___fladd@grs
  7665     05A6                     l2298:
  7666     05A6  0875               	movf	___fladd@a+1,w
  7667     05A7  00F1               	movwf	___fladd@b+1
  7668     05A8                     l2300:
  7669     05A8  087B               	movf	___fladd@grs,w
  7670     05A9  00F5               	movwf	___fladd@a+1
  7671     05AA                     l2302:
  7672     05AA  0872               	movf	___fladd@b+2,w
  7673     05AB  00FB               	movwf	___fladd@grs
  7674     05AC                     l2304:
  7675     05AC  0876               	movf	___fladd@a+2,w
  7676     05AD  00F2               	movwf	___fladd@b+2
  7677     05AE                     l2306:
  7678     05AE  087B               	movf	___fladd@grs,w
  7679     05AF  00F6               	movwf	___fladd@a+2
  7680     05B0                     l2308:
  7681     05B0  0873               	movf	___fladd@b+3,w
  7682     05B1  00FB               	movwf	___fladd@grs
  7683     05B2                     l2310:
  7684     05B2  0877               	movf	___fladd@a+3,w
  7685     05B3  00F3               	movwf	___fladd@b+3
  7686     05B4                     l2312:
  7687     05B4  087B               	movf	___fladd@grs,w
  7688     05B5  00F7               	movwf	___fladd@a+3
  7689     05B6                     l2314:
  7690     05B6  01FB               	clrf	___fladd@grs
  7691     05B7                     l2316:
  7692     05B7  0879               	movf	___fladd@aexp,w
  7693     05B8  0020               	movlb	0	; select bank0
  7694     05B9  00A0               	movwf	??___fladd
  7695     05BA  01A1               	clrf	??___fladd+1
  7696     05BB  0821               	movf	??___fladd+1,w
  7697     05BC  00A3               	movwf	??___fladd+3
  7698     05BD  087A               	movf	___fladd@bexp,w
  7699     05BE  0220               	subwf	??___fladd,w
  7700     05BF  00A2               	movwf	??___fladd+2
  7701     05C0  1C03               	skipc
  7702     05C1  03A3               	decf	??___fladd+3,f
  7703     05C2  0823               	movf	??___fladd+3,w
  7704     05C3  3A80               	xorlw	128
  7705     05C4  00A4               	movwf	??___fladd+4
  7706     05C5  3080               	movlw	128
  7707     05C6  0224               	subwf	??___fladd+4,w
  7708     05C7  1D03               	skipz
  7709     05C8  2DCB               	goto	u2665
  7710     05C9  301A               	movlw	26
  7711     05CA  0222               	subwf	??___fladd+2,w
  7712     05CB                     u2665:
  7713     05CB  1C03               	skipc
  7714     05CC  2DCE               	goto	u2661
  7715     05CD  2DCF               	goto	u2660
  7716     05CE                     u2661:
  7717     05CE  2E01               	goto	l2332
  7718     05CF                     u2660:
  7719     05CF                     l2318:
  7720     05CF  0873               	movf	___fladd@b+3,w
  7721     05D0  0472               	iorwf	___fladd@b+2,w
  7722     05D1  0471               	iorwf	___fladd@b+1,w
  7723     05D2  0470               	iorwf	___fladd@b,w
  7724     05D3  1D03               	skipz
  7725     05D4  2DD6               	goto	u2671
  7726     05D5  2DD8               	goto	u2670
  7727     05D6                     u2671:
  7728     05D6  3001               	movlw	1
  7729     05D7  2DD9               	goto	u2680
  7730     05D8                     u2670:
  7731     05D8  3000               	movlw	0
  7732     05D9                     u2680:
  7733     05D9  00FB               	movwf	___fladd@grs
  7734     05DA  3000               	movlw	0
  7735     05DB  00F3               	movwf	___fladd@b+3
  7736     05DC  3000               	movlw	0
  7737     05DD  00F2               	movwf	___fladd@b+2
  7738     05DE  3000               	movlw	0
  7739     05DF  00F1               	movwf	___fladd@b+1
  7740     05E0  3000               	movlw	0
  7741     05E1  00F0               	movwf	___fladd@b
  7742     05E2  0879               	movf	___fladd@aexp,w
  7743     05E3  00FA               	movwf	___fladd@bexp
  7744     05E4  2E07               	goto	l584
  7745     05E5                     l586:
  7746     05E5  1C7B               	btfss	___fladd@grs,0
  7747     05E6  2DE8               	goto	u2691
  7748     05E7  2DE9               	goto	u2690
  7749     05E8                     u2691:
  7750     05E8  2DED               	goto	l2322
  7751     05E9                     u2690:
  7752     05E9                     l2320:
  7753     05E9  367B               	lsrf	___fladd@grs,w
  7754     05EA  3801               	iorlw	1
  7755     05EB  00FB               	movwf	___fladd@grs
  7756     05EC  2DEF               	goto	l2324
  7757     05ED                     l2322:
  7758     05ED  1003               	clrc
  7759     05EE  0CFB               	rrf	___fladd@grs,f
  7760     05EF                     l2324:
  7761     05EF  1C70               	btfss	___fladd@b,0
  7762     05F0  2DF2               	goto	u2701
  7763     05F1  2DF3               	goto	u2700
  7764     05F2                     u2701:
  7765     05F2  2DF4               	goto	l2328
  7766     05F3                     u2700:
  7767     05F3                     l2326:
  7768     05F3  17FB               	bsf	___fladd@grs,7
  7769     05F4                     l2328:
  7770     05F4  3001               	movlw	1
  7771     05F5  0020               	movlb	0	; select bank0
  7772     05F6  00A0               	movwf	??___fladd
  7773     05F7                     u2715:
  7774     05F7  37F3               	asrf	___fladd@b+3,f
  7775     05F8  0CF2               	rrf	___fladd@b+2,f
  7776     05F9  0CF1               	rrf	___fladd@b+1,f
  7777     05FA  0CF0               	rrf	___fladd@b,f
  7778     05FB  0BA0               	decfsz	??___fladd& (0+127),f
  7779     05FC  2DF7               	goto	u2715
  7780     05FD                     l2330:
  7781     05FD  3001               	movlw	1
  7782     05FE  00A0               	movwf	??___fladd
  7783     05FF  0820               	movf	??___fladd,w
  7784     0600  07FA               	addwf	___fladd@bexp,f
  7785     0601                     l2332:
  7786     0601  0879               	movf	___fladd@aexp,w
  7787     0602  027A               	subwf	___fladd@bexp,w
  7788     0603  1C03               	skipc
  7789     0604  2E06               	goto	u2721
  7790     0605  2E07               	goto	u2720
  7791     0606                     u2721:
  7792     0606  2DE5               	goto	l586
  7793     0607                     u2720:
  7794     0607                     l584:
  7795     0607  1B78               	btfsc	___fladd@signs,6
  7796     0608  2E0A               	goto	u2731
  7797     0609  2E0B               	goto	u2730
  7798     060A                     u2731:
  7799     060A  2E42               	goto	l2358
  7800     060B                     u2730:
  7801     060B                     l2334:
  7802     060B  087A               	movf	___fladd@bexp,w
  7803     060C  1D03               	btfss	3,2
  7804     060D  2E0F               	goto	u2741
  7805     060E  2E10               	goto	u2740
  7806     060F                     u2741:
  7807     060F  2E19               	goto	l2340
  7808     0610                     u2740:
  7809     0610                     l2336:
  7810     0610  3000               	movlw	0
  7811     0611  00F3               	movwf	?___fladd+3
  7812     0612  3000               	movlw	0
  7813     0613  00F2               	movwf	?___fladd+2
  7814     0614  3000               	movlw	0
  7815     0615  00F1               	movwf	?___fladd+1
  7816     0616  3000               	movlw	0
  7817     0617  00F0               	movwf	?___fladd
  7818     0618  2F3F               	goto	l593
  7819     0619                     l2340:
  7820     0619  0874               	movf	___fladd@a,w
  7821     061A  07F0               	addwf	___fladd@b,f
  7822     061B  0875               	movf	___fladd@a+1,w
  7823     061C  3DF1               	addwfc	___fladd@b+1,f
  7824     061D  0876               	movf	___fladd@a+2,w
  7825     061E  3DF2               	addwfc	___fladd@b+2,f
  7826     061F  0877               	movf	___fladd@a+3,w
  7827     0620  3DF3               	addwfc	___fladd@b+3,f
  7828     0621                     l2342:
  7829     0621  1C73               	btfss	___fladd@b+3,0
  7830     0622  2E24               	goto	u2751
  7831     0623  2E25               	goto	u2750
  7832     0624                     u2751:
  7833     0624  2ECF               	goto	l2392
  7834     0625                     u2750:
  7835     0625                     l2344:
  7836     0625  1C7B               	btfss	___fladd@grs,0
  7837     0626  2E28               	goto	u2761
  7838     0627  2E29               	goto	u2760
  7839     0628                     u2761:
  7840     0628  2E2D               	goto	l2348
  7841     0629                     u2760:
  7842     0629                     l2346:
  7843     0629  367B               	lsrf	___fladd@grs,w
  7844     062A  3801               	iorlw	1
  7845     062B  00FB               	movwf	___fladd@grs
  7846     062C  2E2F               	goto	l2350
  7847     062D                     l2348:
  7848     062D  1003               	clrc
  7849     062E  0CFB               	rrf	___fladd@grs,f
  7850     062F                     l2350:
  7851     062F  1C70               	btfss	___fladd@b,0
  7852     0630  2E32               	goto	u2771
  7853     0631  2E33               	goto	u2770
  7854     0632                     u2771:
  7855     0632  2E34               	goto	l2354
  7856     0633                     u2770:
  7857     0633                     l2352:
  7858     0633  17FB               	bsf	___fladd@grs,7
  7859     0634                     l2354:
  7860     0634  3001               	movlw	1
  7861     0635  0020               	movlb	0	; select bank0
  7862     0636  00A0               	movwf	??___fladd
  7863     0637                     u2785:
  7864     0637  37F3               	asrf	___fladd@b+3,f
  7865     0638  0CF2               	rrf	___fladd@b+2,f
  7866     0639  0CF1               	rrf	___fladd@b+1,f
  7867     063A  0CF0               	rrf	___fladd@b,f
  7868     063B  0BA0               	decfsz	??___fladd& (0+127),f
  7869     063C  2E37               	goto	u2785
  7870     063D                     l2356:
  7871     063D  3001               	movlw	1
  7872     063E  00A0               	movwf	??___fladd
  7873     063F  0820               	movf	??___fladd,w
  7874     0640  07FA               	addwf	___fladd@bexp,f
  7875     0641  2ECF               	goto	l2392
  7876     0642                     l2358:
  7877     0642  0873               	movf	___fladd@b+3,w
  7878     0643  3A80               	xorlw	128
  7879     0644  0020               	movlb	0	; select bank0
  7880     0645  00A0               	movwf	??___fladd
  7881     0646  0877               	movf	___fladd@a+3,w
  7882     0647  3A80               	xorlw	128
  7883     0648  0220               	subwf	??___fladd,w
  7884     0649  1D03               	skipz
  7885     064A  2E55               	goto	u2793
  7886     064B  0876               	movf	___fladd@a+2,w
  7887     064C  0272               	subwf	___fladd@b+2,w
  7888     064D  1D03               	skipz
  7889     064E  2E55               	goto	u2793
  7890     064F  0875               	movf	___fladd@a+1,w
  7891     0650  0271               	subwf	___fladd@b+1,w
  7892     0651  1D03               	skipz
  7893     0652  2E55               	goto	u2793
  7894     0653  0874               	movf	___fladd@a,w
  7895     0654  0270               	subwf	___fladd@b,w
  7896     0655                     u2793:
  7897     0655  1803               	skipnc
  7898     0656  2E58               	goto	u2791
  7899     0657  2E59               	goto	u2790
  7900     0658                     u2791:
  7901     0658  2E91               	goto	l2368
  7902     0659                     u2790:
  7903     0659                     l2360:
  7904     0659  30FF               	movlw	255
  7905     065A  00A0               	movwf	??___fladd
  7906     065B  30FF               	movlw	255
  7907     065C  00A1               	movwf	??___fladd+1
  7908     065D  30FF               	movlw	255
  7909     065E  00A2               	movwf	??___fladd+2
  7910     065F  30FF               	movlw	255
  7911     0660  00A3               	movwf	??___fladd+3
  7912     0661  0870               	movf	___fladd@b,w
  7913     0662  0274               	subwf	___fladd@a,w
  7914     0663  00A4               	movwf	??___fladd+4
  7915     0664  0871               	movf	___fladd@b+1,w
  7916     0665  3B75               	subwfb	___fladd@a+1,w
  7917     0666  00A5               	movwf	??___fladd+5
  7918     0667  0872               	movf	___fladd@b+2,w
  7919     0668  3B76               	subwfb	___fladd@a+2,w
  7920     0669  00A6               	movwf	??___fladd+6
  7921     066A  0873               	movf	___fladd@b+3,w
  7922     066B  3B77               	subwfb	___fladd@a+3,w
  7923     066C  00A7               	movwf	??___fladd+7
  7924     066D  0824               	movf	??___fladd+4,w
  7925     066E  07A0               	addwf	??___fladd,f
  7926     066F  0825               	movf	??___fladd+5,w
  7927     0670  3DA1               	addwfc	??___fladd+1,f
  7928     0671  0826               	movf	??___fladd+6,w
  7929     0672  3DA2               	addwfc	??___fladd+2,f
  7930     0673  0827               	movf	??___fladd+7,w
  7931     0674  3DA3               	addwfc	??___fladd+3,f
  7932     0675  0823               	movf	??___fladd+3,w
  7933     0676  00F3               	movwf	___fladd@b+3
  7934     0677  0822               	movf	??___fladd+2,w
  7935     0678  00F2               	movwf	___fladd@b+2
  7936     0679  0821               	movf	??___fladd+1,w
  7937     067A  00F1               	movwf	___fladd@b+1
  7938     067B  0820               	movf	??___fladd,w
  7939     067C  00F0               	movwf	___fladd@b
  7940     067D                     l2362:
  7941     067D  3080               	movlw	128
  7942     067E  00A0               	movwf	??___fladd
  7943     067F  0820               	movf	??___fladd,w
  7944     0680  06F8               	xorwf	___fladd@signs,f
  7945     0681  09FB               	comf	___fladd@grs,f
  7946     0682  0AFB               	incf	___fladd@grs,f
  7947     0683                     l2364:
  7948     0683  087B               	movf	___fladd@grs,w
  7949     0684  1D03               	btfss	3,2
  7950     0685  2E87               	goto	u2801
  7951     0686  2E88               	goto	u2800
  7952     0687                     u2801:
  7953     0687  2E99               	goto	l601
  7954     0688                     u2800:
  7955     0688                     l2366:
  7956     0688  3001               	movlw	1
  7957     0689  07F0               	addwf	___fladd@b,f
  7958     068A  3000               	movlw	0
  7959     068B  3DF1               	addwfc	___fladd@b+1,f
  7960     068C  3000               	movlw	0
  7961     068D  3DF2               	addwfc	___fladd@b+2,f
  7962     068E  3000               	movlw	0
  7963     068F  3DF3               	addwfc	___fladd@b+3,f
  7964     0690  2E99               	goto	l601
  7965     0691                     l2368:
  7966     0691  0874               	movf	___fladd@a,w
  7967     0692  02F0               	subwf	___fladd@b,f
  7968     0693  0875               	movf	___fladd@a+1,w
  7969     0694  3BF1               	subwfb	___fladd@b+1,f
  7970     0695  0876               	movf	___fladd@a+2,w
  7971     0696  3BF2               	subwfb	___fladd@b+2,f
  7972     0697  0877               	movf	___fladd@a+3,w
  7973     0698  3BF3               	subwfb	___fladd@b+3,f
  7974     0699                     l601:
  7975     0699  0873               	movf	___fladd@b+3,w
  7976     069A  0472               	iorwf	___fladd@b+2,w
  7977     069B  0471               	iorwf	___fladd@b+1,w
  7978     069C  0470               	iorwf	___fladd@b,w
  7979     069D  1D03               	skipz
  7980     069E  2EA0               	goto	u2811
  7981     069F  2EA1               	goto	u2810
  7982     06A0                     u2811:
  7983     06A0  2ECB               	goto	l2390
  7984     06A1                     u2810:
  7985     06A1                     l2370:
  7986     06A1  087B               	movf	___fladd@grs,w
  7987     06A2  1D03               	btfss	3,2
  7988     06A3  2EA5               	goto	u2821
  7989     06A4  2EA6               	goto	u2820
  7990     06A5                     u2821:
  7991     06A5  2ECB               	goto	l2390
  7992     06A6                     u2820:
  7993     06A6                     l2372:
  7994     06A6  3000               	movlw	0
  7995     06A7  00F3               	movwf	?___fladd+3
  7996     06A8  3000               	movlw	0
  7997     06A9  00F2               	movwf	?___fladd+2
  7998     06AA  3000               	movlw	0
  7999     06AB  00F1               	movwf	?___fladd+1
  8000     06AC  3000               	movlw	0
  8001     06AD  00F0               	movwf	?___fladd
  8002     06AE  2F3F               	goto	l593
  8003     06AF                     l2376:
  8004     06AF  3001               	movlw	1
  8005     06B0                     u2835:
  8006     06B0  35F0               	lslf	___fladd@b,f
  8007     06B1  0DF1               	rlf	___fladd@b+1,f
  8008     06B2  0DF2               	rlf	___fladd@b+2,f
  8009     06B3  0DF3               	rlf	___fladd@b+3,f
  8010     06B4  0B89               	decfsz	9,f
  8011     06B5  2EB0               	goto	u2835
  8012     06B6                     l2378:
  8013     06B6  1FFB               	btfss	___fladd@grs,7
  8014     06B7  2EB9               	goto	u2841
  8015     06B8  2EBA               	goto	u2840
  8016     06B9                     u2841:
  8017     06B9  2EBB               	goto	l605
  8018     06BA                     u2840:
  8019     06BA                     l2380:
  8020     06BA  1470               	bsf	___fladd@b,0
  8021     06BB                     l605:
  8022     06BB  1C7B               	btfss	___fladd@grs,0
  8023     06BC  2EBE               	goto	u2851
  8024     06BD  2EBF               	goto	u2850
  8025     06BE                     u2851:
  8026     06BE  2EC2               	goto	l2384
  8027     06BF                     u2850:
  8028     06BF                     l2382:
  8029     06BF  1403               	setc
  8030     06C0  0DFB               	rlf	___fladd@grs,f
  8031     06C1  2EC4               	goto	l2386
  8032     06C2                     l2384:
  8033     06C2  1003               	clrc
  8034     06C3  0DFB               	rlf	___fladd@grs,f
  8035     06C4                     l2386:
  8036     06C4  087A               	movf	___fladd@bexp,w
  8037     06C5  1903               	btfsc	3,2
  8038     06C6  2EC8               	goto	u2861
  8039     06C7  2EC9               	goto	u2860
  8040     06C8                     u2861:
  8041     06C8  2ECB               	goto	l2390
  8042     06C9                     u2860:
  8043     06C9                     l2388:
  8044     06C9  3001               	movlw	1
  8045     06CA  02FA               	subwf	___fladd@bexp,f
  8046     06CB                     l2390:
  8047     06CB  1FF2               	btfss	___fladd@b+2,7
  8048     06CC  2ECE               	goto	u2871
  8049     06CD  2ECF               	goto	u2870
  8050     06CE                     u2871:
  8051     06CE  2EAF               	goto	l2376
  8052     06CF                     u2870:
  8053     06CF                     l2392:
  8054     06CF  01F9               	clrf	___fladd@aexp
  8055     06D0                     l2394:
  8056     06D0  1FFB               	btfss	___fladd@grs,7
  8057     06D1  2ED3               	goto	u2881
  8058     06D2  2ED4               	goto	u2880
  8059     06D3                     u2881:
  8060     06D3  2EE2               	goto	l2402
  8061     06D4                     u2880:
  8062     06D4                     l2396:
  8063     06D4  087B               	movf	___fladd@grs,w
  8064     06D5  397F               	andlw	127
  8065     06D6  1903               	btfsc	3,2
  8066     06D7  2ED9               	goto	u2891
  8067     06D8  2EDA               	goto	u2890
  8068     06D9                     u2891:
  8069     06D9  2EDD               	goto	l611
  8070     06DA                     u2890:
  8071     06DA                     l2398:
  8072     06DA  01F9               	clrf	___fladd@aexp
  8073     06DB  0AF9               	incf	___fladd@aexp,f
  8074     06DC  2EE2               	goto	l2402
  8075     06DD                     l611:
  8076     06DD  1C70               	btfss	___fladd@b,0
  8077     06DE  2EE0               	goto	u2901
  8078     06DF  2EE1               	goto	u2900
  8079     06E0                     u2901:
  8080     06E0  2EE2               	goto	l2402
  8081     06E1                     u2900:
  8082     06E1  2EDA               	goto	l2398
  8083     06E2                     l2402:
  8084     06E2  0879               	movf	___fladd@aexp,w
  8085     06E3  1903               	btfsc	3,2
  8086     06E4  2EE6               	goto	u2911
  8087     06E5  2EE7               	goto	u2910
  8088     06E6                     u2911:
  8089     06E6  2F15               	goto	l614
  8090     06E7                     u2910:
  8091     06E7                     l2404:
  8092     06E7  3001               	movlw	1
  8093     06E8  07F0               	addwf	___fladd@b,f
  8094     06E9  3000               	movlw	0
  8095     06EA  3DF1               	addwfc	___fladd@b+1,f
  8096     06EB  3000               	movlw	0
  8097     06EC  3DF2               	addwfc	___fladd@b+2,f
  8098     06ED  3000               	movlw	0
  8099     06EE  3DF3               	addwfc	___fladd@b+3,f
  8100     06EF                     l2406:
  8101     06EF  1C73               	btfss	___fladd@b+3,0
  8102     06F0  2EF2               	goto	u2921
  8103     06F1  2EF3               	goto	u2920
  8104     06F2                     u2921:
  8105     06F2  2F15               	goto	l614
  8106     06F3                     u2920:
  8107     06F3                     l2408:
  8108     06F3  0870               	movf	___fladd@b,w
  8109     06F4  0020               	movlb	0	; select bank0
  8110     06F5  00A0               	movwf	??___fladd
  8111     06F6  0871               	movf	___fladd@b+1,w
  8112     06F7  00A1               	movwf	??___fladd+1
  8113     06F8  0872               	movf	___fladd@b+2,w
  8114     06F9  00A2               	movwf	??___fladd+2
  8115     06FA  0873               	movf	___fladd@b+3,w
  8116     06FB  00A3               	movwf	??___fladd+3
  8117     06FC  3001               	movlw	1
  8118     06FD  00A4               	movwf	??___fladd+4
  8119     06FE                     u2935:
  8120     06FE  37A3               	asrf	??___fladd+3,f
  8121     06FF  0CA2               	rrf	??___fladd+2,f
  8122     0700  0CA1               	rrf	??___fladd+1,f
  8123     0701  0CA0               	rrf	??___fladd,f
  8124     0702                     u2930:
  8125     0702  0BA4               	decfsz	??___fladd+4,f
  8126     0703  2EFE               	goto	u2935
  8127     0704  0823               	movf	??___fladd+3,w
  8128     0705  00F3               	movwf	___fladd@b+3
  8129     0706  0822               	movf	??___fladd+2,w
  8130     0707  00F2               	movwf	___fladd@b+2
  8131     0708  0821               	movf	??___fladd+1,w
  8132     0709  00F1               	movwf	___fladd@b+1
  8133     070A  0820               	movf	??___fladd,w
  8134     070B  00F0               	movwf	___fladd@b
  8135     070C  0A7A               	incf	___fladd@bexp,w
  8136     070D  1903               	btfsc	3,2
  8137     070E  2F10               	goto	u2941
  8138     070F  2F11               	goto	u2940
  8139     0710                     u2941:
  8140     0710  2F15               	goto	l614
  8141     0711                     u2940:
  8142     0711                     l2410:
  8143     0711  3001               	movlw	1
  8144     0712  00A0               	movwf	??___fladd
  8145     0713  0820               	movf	??___fladd,w
  8146     0714  07FA               	addwf	___fladd@bexp,f
  8147     0715                     l614:
  8148     0715  0A7A               	incf	___fladd@bexp,w
  8149     0716  1903               	btfsc	3,2
  8150     0717  2F19               	goto	u2951
  8151     0718  2F1A               	goto	u2950
  8152     0719                     u2951:
  8153     0719  2F1F               	goto	l2414
  8154     071A                     u2950:
  8155     071A                     l2412:
  8156     071A  087A               	movf	___fladd@bexp,w
  8157     071B  1D03               	btfss	3,2
  8158     071C  2F1E               	goto	u2961
  8159     071D  2F1F               	goto	u2960
  8160     071E                     u2961:
  8161     071E  2F2D               	goto	l2420
  8162     071F                     u2960:
  8163     071F                     l2414:
  8164     071F  3000               	movlw	0
  8165     0720  00F3               	movwf	___fladd@b+3
  8166     0721  3000               	movlw	0
  8167     0722  00F2               	movwf	___fladd@b+2
  8168     0723  3000               	movlw	0
  8169     0724  00F1               	movwf	___fladd@b+1
  8170     0725  3000               	movlw	0
  8171     0726  00F0               	movwf	___fladd@b
  8172     0727                     l2416:
  8173     0727  087A               	movf	___fladd@bexp,w
  8174     0728  1D03               	btfss	3,2
  8175     0729  2F2B               	goto	u2971
  8176     072A  2F2C               	goto	u2970
  8177     072B                     u2971:
  8178     072B  2F2D               	goto	l2420
  8179     072C                     u2970:
  8180     072C                     l2418:
  8181     072C  01F8               	clrf	___fladd@signs
  8182     072D                     l2420:
  8183     072D  1C7A               	btfss	___fladd@bexp,0
  8184     072E  2F30               	goto	u2981
  8185     072F  2F31               	goto	u2980
  8186     0730                     u2981:
  8187     0730  2F33               	goto	l2424
  8188     0731                     u2980:
  8189     0731                     l2422:
  8190     0731  17F2               	bsf	___fladd@b+2,7
  8191     0732  2F38               	goto	l622
  8192     0733                     l2424:
  8193     0733  307F               	movlw	127
  8194     0734  0020               	movlb	0	; select bank0
  8195     0735  00A0               	movwf	??___fladd
  8196     0736  0820               	movf	??___fladd,w
  8197     0737  05F2               	andwf	___fladd@b+2,f
  8198     0738                     l622:
  8199     0738  367A               	lsrf	___fladd@bexp,w
  8200     0739  00F3               	movwf	___fladd@b+3
  8201     073A                     l2426:
  8202     073A  1FF8               	btfss	___fladd@signs,7
  8203     073B  2F3D               	goto	u2991
  8204     073C  2F3E               	goto	u2990
  8205     073D                     u2991:
  8206     073D  2F3F               	goto	l623
  8207     073E                     u2990:
  8208     073E                     l2428:
  8209     073E  17F3               	bsf	___fladd@b+3,7
  8210     073F                     l623:
  8211     073F                     l593:
  8212     073F  0008               	return
  8213     0740                     __end_of___fladd:
  8214                           
  8215                           	psect	text26
  8216     151B                     __ptext26:	
  8217 ;; *************** function ___flneg *****************
  8218 ;; Defined at:
  8219 ;;		line 15 in file "C:\Program Files\Microchip\xc8\v2.46\pic\sources\c99\common\flneg.c"
  8220 ;; Parameters:    Size  Location     Type
  8221 ;;  f1              4    0[COMMON] unsigned char 
  8222 ;; Auto vars:     Size  Location     Type
  8223 ;;		None
  8224 ;; Return value:  Size  Location     Type
  8225 ;;                  4    0[COMMON] unsigned char 
  8226 ;; Registers used:
  8227 ;;		wreg
  8228 ;; Tracked objects:
  8229 ;;		On entry : 0/0
  8230 ;;		On exit  : 0/0
  8231 ;;		Unchanged: 0/0
  8232 ;; Data sizes:     COMMON   BANK0   BANK1   BANK2   BANK3   BANK4   BANK5   BANK6   BANK7   BANK8   BANK9  BANK10  BANK1
      +1  BANK12  BANK13  BANK14  BANK15  BANK16  BANK17  BANK18  BANK19  BANK20  BANK21  BANK22  BANK23  BANK24  BANK25
  8233 ;;      Params:         4       0       0       0       0       0       0       0       0       0       0       0       
      +0       0       0       0       0       0       0       0       0       0       0       0       0       0       0
  8234 ;;      Locals:         0       0       0       0       0       0       0       0       0       0       0       0       
      +0       0       0       0       0       0       0       0       0       0       0       0       0       0       0
  8235 ;;      Temps:          0       0       0       0       0       0       0       0       0       0       0       0       
      +0       0       0       0       0       0       0       0       0       0       0       0       0       0       0
  8236 ;;      Totals:         4       0       0       0       0       0       0       0       0       0       0       0       
      +0       0       0       0       0       0       0       0       0       0       0       0       0       0       0
  8237 ;;Total ram usage:        4 bytes
  8238 ;; Hardware stack levels used: 1
  8239 ;; Hardware stack levels required when called: 1
  8240 ;; This function calls:
  8241 ;;		Nothing
  8242 ;; This function is called by:
  8243 ;;		_ftoa
  8244 ;; This function uses a non-reentrant model
  8245 ;;
  8246                           
  8247     151B                     ___flneg:	
  8248                           ;psect for function ___flneg
  8249                           
  8250     151B                     l2552:	
  8251                           ;incstack = 0
  8252                           ; Regs used in ___flneg: [wreg]
  8253                           
  8254     151B  0873               	movf	___flneg@f1+3,w
  8255     151C  0472               	iorwf	___flneg@f1+2,w
  8256     151D  0471               	iorwf	___flneg@f1+1,w
  8257     151E  0470               	iorwf	___flneg@f1,w
  8258     151F  1903               	skipnz
  8259     1520  2D22               	goto	u3231
  8260     1521  2D23               	goto	u3230
  8261     1522                     u3231:
  8262     1522  2D25               	goto	l2556
  8263     1523                     u3230:
  8264     1523                     l2554:
  8265     1523  3080               	movlw	128
  8266     1524  06F3               	xorwf	___flneg@f1+3,f
  8267     1525                     l2556:
  8268     1525                     l469:
  8269     1525  0008               	return
  8270     1526                     __end_of___flneg:
  8271                           
  8272                           	psect	text27
  8273     02F9                     __ptext27:	
  8274 ;; *************** function ___flmul *****************
  8275 ;; Defined at:
  8276 ;;		line 8 in file "C:\Program Files\Microchip\xc8\v2.46\pic\sources\c99\common\sprcmul.c"
  8277 ;; Parameters:    Size  Location     Type
  8278 ;;  b               4    0[BANK0 ] unsigned char 
  8279 ;;  a               4    4[BANK0 ] unsigned char 
  8280 ;; Auto vars:     Size  Location     Type
  8281 ;;  prod            4   20[BANK0 ] struct .
  8282 ;;  grs             4   14[BANK0 ] unsigned long 
  8283 ;;  temp            2   24[BANK0 ] struct .
  8284 ;;  bexp            1   19[BANK0 ] unsigned char 
  8285 ;;  aexp            1   18[BANK0 ] unsigned char 
  8286 ;;  sign            1   13[BANK0 ] unsigned char 
  8287 ;; Return value:  Size  Location     Type
  8288 ;;                  4    0[BANK0 ] unsigned char 
  8289 ;; Registers used:
  8290 ;;		wreg, status,2, status,0, pclath, cstack
  8291 ;; Tracked objects:
  8292 ;;		On entry : 0/0
  8293 ;;		On exit  : 0/0
  8294 ;;		Unchanged: 0/0
  8295 ;; Data sizes:     COMMON   BANK0   BANK1   BANK2   BANK3   BANK4   BANK5   BANK6   BANK7   BANK8   BANK9  BANK10  BANK1
      +1  BANK12  BANK13  BANK14  BANK15  BANK16  BANK17  BANK18  BANK19  BANK20  BANK21  BANK22  BANK23  BANK24  BANK25
  8296 ;;      Params:         0       8       0       0       0       0       0       0       0       0       0       0       
      +0       0       0       0       0       0       0       0       0       0       0       0       0       0       0
  8297 ;;      Locals:         0      13       0       0       0       0       0       0       0       0       0       0       
      +0       0       0       0       0       0       0       0       0       0       0       0       0       0       0
  8298 ;;      Temps:          0       5       0       0       0       0       0       0       0       0       0       0       
      +0       0       0       0       0       0       0       0       0       0       0       0       0       0       0
  8299 ;;      Totals:         0      26       0       0       0       0       0       0       0       0       0       0       
      +0       0       0       0       0       0       0       0       0       0       0       0       0       0       0
  8300 ;;Total ram usage:       26 bytes
  8301 ;; Hardware stack levels used: 1
  8302 ;; Hardware stack levels required when called: 2
  8303 ;; This function calls:
  8304 ;;		__Umul8_16
  8305 ;; This function is called by:
  8306 ;;		_ftoa
  8307 ;;		_calibrate
  8308 ;;		_main
  8309 ;; This function uses a non-reentrant model
  8310 ;;
  8311                           
  8312     02F9                     ___flmul:	
  8313                           ;psect for function ___flmul
  8314                           
  8315     02F9                     l2602:	
  8316                           ;incstack = 0
  8317                           ; Regs used in ___flmul: [wreg+status,2+status,0+pclath+cstack]
  8318                           
  8319     02F9  0020               	movlb	0	; select bank0
  8320     02FA  0823               	movf	___flmul@b+3,w
  8321     02FB  3980               	andlw	128
  8322     02FC  00AD               	movwf	___flmul@sign
  8323     02FD                     l2604:
  8324     02FD  3523               	lslf	___flmul@b+3,w
  8325     02FE  00B3               	movwf	___flmul@bexp
  8326     02FF                     l2606:
  8327     02FF  1FA2               	btfss	___flmul@b+2,7
  8328     0300  2B02               	goto	u3341
  8329     0301  2B03               	goto	u3340
  8330     0302                     u3341:
  8331     0302  2B04               	goto	l2610
  8332     0303                     u3340:
  8333     0303                     l2608:
  8334     0303  1433               	bsf	___flmul@bexp,0
  8335     0304                     l2610:
  8336     0304  0833               	movf	___flmul@bexp,w
  8337     0305  1903               	btfsc	3,2
  8338     0306  2B08               	goto	u3351
  8339     0307  2B09               	goto	u3350
  8340     0308                     u3351:
  8341     0308  2B18               	goto	l2618
  8342     0309                     u3350:
  8343     0309                     l2612:
  8344     0309  0A33               	incf	___flmul@bexp,w
  8345     030A  1D03               	btfss	3,2
  8346     030B  2B0D               	goto	u3361
  8347     030C  2B0E               	goto	u3360
  8348     030D                     u3361:
  8349     030D  2B16               	goto	l2616
  8350     030E                     u3360:
  8351     030E                     l2614:
  8352     030E  3000               	movlw	0
  8353     030F  00A3               	movwf	___flmul@b+3
  8354     0310  3000               	movlw	0
  8355     0311  00A2               	movwf	___flmul@b+2
  8356     0312  3000               	movlw	0
  8357     0313  00A1               	movwf	___flmul@b+1
  8358     0314  3000               	movlw	0
  8359     0315  00A0               	movwf	___flmul@b
  8360     0316                     l2616:
  8361     0316  17A2               	bsf	___flmul@b+2,7
  8362     0317  2B20               	goto	l2620
  8363     0318                     l2618:
  8364     0318  3000               	movlw	0
  8365     0319  00A3               	movwf	___flmul@b+3
  8366     031A  3000               	movlw	0
  8367     031B  00A2               	movwf	___flmul@b+2
  8368     031C  3000               	movlw	0
  8369     031D  00A1               	movwf	___flmul@b+1
  8370     031E  3000               	movlw	0
  8371     031F  00A0               	movwf	___flmul@b
  8372     0320                     l2620:
  8373     0320  0827               	movf	___flmul@a+3,w
  8374     0321  3980               	andlw	128
  8375     0322  00A8               	movwf	??___flmul
  8376     0323  0828               	movf	??___flmul,w
  8377     0324  06AD               	xorwf	___flmul@sign,f
  8378     0325                     l2622:
  8379     0325  3527               	lslf	___flmul@a+3,w
  8380     0326  00B2               	movwf	___flmul@aexp
  8381     0327                     l2624:
  8382     0327  1FA6               	btfss	___flmul@a+2,7
  8383     0328  2B2A               	goto	u3371
  8384     0329  2B2B               	goto	u3370
  8385     032A                     u3371:
  8386     032A  2B2C               	goto	l2628
  8387     032B                     u3370:
  8388     032B                     l2626:
  8389     032B  1432               	bsf	___flmul@aexp,0
  8390     032C                     l2628:
  8391     032C  0832               	movf	___flmul@aexp,w
  8392     032D  1903               	btfsc	3,2
  8393     032E  2B30               	goto	u3381
  8394     032F  2B31               	goto	u3380
  8395     0330                     u3381:
  8396     0330  2B40               	goto	l2636
  8397     0331                     u3380:
  8398     0331                     l2630:
  8399     0331  0A32               	incf	___flmul@aexp,w
  8400     0332  1D03               	btfss	3,2
  8401     0333  2B35               	goto	u3391
  8402     0334  2B36               	goto	u3390
  8403     0335                     u3391:
  8404     0335  2B3E               	goto	l2634
  8405     0336                     u3390:
  8406     0336                     l2632:
  8407     0336  3000               	movlw	0
  8408     0337  00A7               	movwf	___flmul@a+3
  8409     0338  3000               	movlw	0
  8410     0339  00A6               	movwf	___flmul@a+2
  8411     033A  3000               	movlw	0
  8412     033B  00A5               	movwf	___flmul@a+1
  8413     033C  3000               	movlw	0
  8414     033D  00A4               	movwf	___flmul@a
  8415     033E                     l2634:
  8416     033E  17A6               	bsf	___flmul@a+2,7
  8417     033F  2B48               	goto	l2638
  8418     0340                     l2636:
  8419     0340  3000               	movlw	0
  8420     0341  00A7               	movwf	___flmul@a+3
  8421     0342  3000               	movlw	0
  8422     0343  00A6               	movwf	___flmul@a+2
  8423     0344  3000               	movlw	0
  8424     0345  00A5               	movwf	___flmul@a+1
  8425     0346  3000               	movlw	0
  8426     0347  00A4               	movwf	___flmul@a
  8427     0348                     l2638:
  8428     0348  0832               	movf	___flmul@aexp,w
  8429     0349  1903               	btfsc	3,2
  8430     034A  2B4C               	goto	u3401
  8431     034B  2B4D               	goto	u3400
  8432     034C                     u3401:
  8433     034C  2B52               	goto	l2642
  8434     034D                     u3400:
  8435     034D                     l2640:
  8436     034D  0833               	movf	___flmul@bexp,w
  8437     034E  1D03               	btfss	3,2
  8438     034F  2B51               	goto	u3411
  8439     0350  2B52               	goto	u3410
  8440     0351                     u3411:
  8441     0351  2B5B               	goto	l2646
  8442     0352                     u3410:
  8443     0352                     l2642:
  8444     0352  3000               	movlw	0
  8445     0353  00A3               	movwf	?___flmul+3
  8446     0354  3000               	movlw	0
  8447     0355  00A2               	movwf	?___flmul+2
  8448     0356  3000               	movlw	0
  8449     0357  00A1               	movwf	?___flmul+1
  8450     0358  3000               	movlw	0
  8451     0359  00A0               	movwf	?___flmul
  8452     035A  2D33               	goto	l676
  8453     035B                     l2646:
  8454     035B  0820               	movf	___flmul@b,w
  8455     035C  00F0               	movwf	__Umul8_16@multiplicand
  8456     035D  0826               	movf	___flmul@a+2,w
  8457     035E  3195  25ED  3182   	fcall	__Umul8_16
  8458     0361  0871               	movf	?__Umul8_16+1,w
  8459     0362  0020               	movlb	0	; select bank0
  8460     0363  00B9               	movwf	___flmul@temp+1
  8461     0364  0870               	movf	?__Umul8_16,w
  8462     0365  00B8               	movwf	___flmul@temp
  8463     0366                     l2648:
  8464     0366  0838               	movf	___flmul@temp,w
  8465     0367  00A8               	movwf	??___flmul
  8466     0368  01A9               	clrf	??___flmul+1
  8467     0369  01AA               	clrf	??___flmul+2
  8468     036A  01AB               	clrf	??___flmul+3
  8469     036B  082B               	movf	??___flmul+3,w
  8470     036C  00B1               	movwf	___flmul@grs+3
  8471     036D  082A               	movf	??___flmul+2,w
  8472     036E  00B0               	movwf	___flmul@grs+2
  8473     036F  0829               	movf	??___flmul+1,w
  8474     0370  00AF               	movwf	___flmul@grs+1
  8475     0371  0828               	movf	??___flmul,w
  8476     0372  00AE               	movwf	___flmul@grs
  8477     0373                     l2650:
  8478     0373  0839               	movf	___flmul@temp+1,w
  8479     0374  00A8               	movwf	??___flmul
  8480     0375  01A9               	clrf	??___flmul+1
  8481     0376  01AA               	clrf	??___flmul+2
  8482     0377  01AB               	clrf	??___flmul+3
  8483     0378  082B               	movf	??___flmul+3,w
  8484     0379  00B7               	movwf	___flmul@prod+3
  8485     037A  082A               	movf	??___flmul+2,w
  8486     037B  00B6               	movwf	___flmul@prod+2
  8487     037C  0829               	movf	??___flmul+1,w
  8488     037D  00B5               	movwf	___flmul@prod+1
  8489     037E  0828               	movf	??___flmul,w
  8490     037F  00B4               	movwf	___flmul@prod
  8491     0380  0821               	movf	___flmul@b+1,w
  8492     0381  00F0               	movwf	__Umul8_16@multiplicand
  8493     0382  0825               	movf	___flmul@a+1,w
  8494     0383  3195  25ED  3182   	fcall	__Umul8_16
  8495     0386  0871               	movf	?__Umul8_16+1,w
  8496     0387  0020               	movlb	0	; select bank0
  8497     0388  00B9               	movwf	___flmul@temp+1
  8498     0389  0870               	movf	?__Umul8_16,w
  8499     038A  00B8               	movwf	___flmul@temp
  8500     038B                     l2652:
  8501     038B  0838               	movf	___flmul@temp,w
  8502     038C  00A8               	movwf	??___flmul
  8503     038D  01A9               	clrf	??___flmul+1
  8504     038E  01AA               	clrf	??___flmul+2
  8505     038F  01AB               	clrf	??___flmul+3
  8506     0390  0828               	movf	??___flmul,w
  8507     0391  07AE               	addwf	___flmul@grs,f
  8508     0392  0829               	movf	??___flmul+1,w
  8509     0393  3DAF               	addwfc	___flmul@grs+1,f
  8510     0394  082A               	movf	??___flmul+2,w
  8511     0395  3DB0               	addwfc	___flmul@grs+2,f
  8512     0396  082B               	movf	??___flmul+3,w
  8513     0397  3DB1               	addwfc	___flmul@grs+3,f
  8514     0398                     l2654:
  8515     0398  0839               	movf	___flmul@temp+1,w
  8516     0399  00A8               	movwf	??___flmul
  8517     039A  01A9               	clrf	??___flmul+1
  8518     039B  01AA               	clrf	??___flmul+2
  8519     039C  01AB               	clrf	??___flmul+3
  8520     039D  0828               	movf	??___flmul,w
  8521     039E  07B4               	addwf	___flmul@prod,f
  8522     039F  0829               	movf	??___flmul+1,w
  8523     03A0  3DB5               	addwfc	___flmul@prod+1,f
  8524     03A1  082A               	movf	??___flmul+2,w
  8525     03A2  3DB6               	addwfc	___flmul@prod+2,f
  8526     03A3  082B               	movf	??___flmul+3,w
  8527     03A4  3DB7               	addwfc	___flmul@prod+3,f
  8528     03A5  0822               	movf	___flmul@b+2,w
  8529     03A6  00F0               	movwf	__Umul8_16@multiplicand
  8530     03A7  0824               	movf	___flmul@a,w
  8531     03A8  3195  25ED  3182   	fcall	__Umul8_16
  8532     03AB  0871               	movf	?__Umul8_16+1,w
  8533     03AC  0020               	movlb	0	; select bank0
  8534     03AD  00B9               	movwf	___flmul@temp+1
  8535     03AE  0870               	movf	?__Umul8_16,w
  8536     03AF  00B8               	movwf	___flmul@temp
  8537     03B0                     l2656:
  8538     03B0  0838               	movf	___flmul@temp,w
  8539     03B1  00A8               	movwf	??___flmul
  8540     03B2  01A9               	clrf	??___flmul+1
  8541     03B3  01AA               	clrf	??___flmul+2
  8542     03B4  01AB               	clrf	??___flmul+3
  8543     03B5  0828               	movf	??___flmul,w
  8544     03B6  07AE               	addwf	___flmul@grs,f
  8545     03B7  0829               	movf	??___flmul+1,w
  8546     03B8  3DAF               	addwfc	___flmul@grs+1,f
  8547     03B9  082A               	movf	??___flmul+2,w
  8548     03BA  3DB0               	addwfc	___flmul@grs+2,f
  8549     03BB  082B               	movf	??___flmul+3,w
  8550     03BC  3DB1               	addwfc	___flmul@grs+3,f
  8551     03BD                     l2658:
  8552     03BD  0839               	movf	___flmul@temp+1,w
  8553     03BE  00A8               	movwf	??___flmul
  8554     03BF  01A9               	clrf	??___flmul+1
  8555     03C0  01AA               	clrf	??___flmul+2
  8556     03C1  01AB               	clrf	??___flmul+3
  8557     03C2  0828               	movf	??___flmul,w
  8558     03C3  07B4               	addwf	___flmul@prod,f
  8559     03C4  0829               	movf	??___flmul+1,w
  8560     03C5  3DB5               	addwfc	___flmul@prod+1,f
  8561     03C6  082A               	movf	??___flmul+2,w
  8562     03C7  3DB6               	addwfc	___flmul@prod+2,f
  8563     03C8  082B               	movf	??___flmul+3,w
  8564     03C9  3DB7               	addwfc	___flmul@prod+3,f
  8565     03CA                     l2660:
  8566     03CA  3008               	movlw	8
  8567     03CB                     u3425:
  8568     03CB  35AE               	lslf	___flmul@grs,f
  8569     03CC  0DAF               	rlf	___flmul@grs+1,f
  8570     03CD  0DB0               	rlf	___flmul@grs+2,f
  8571     03CE  0DB1               	rlf	___flmul@grs+3,f
  8572     03CF  0B89               	decfsz	9,f
  8573     03D0  2BCB               	goto	u3425
  8574     03D1                     l2662:
  8575     03D1  0821               	movf	___flmul@b+1,w
  8576     03D2  00F0               	movwf	__Umul8_16@multiplicand
  8577     03D3  0824               	movf	___flmul@a,w
  8578     03D4  3195  25ED  3182   	fcall	__Umul8_16
  8579     03D7  0871               	movf	?__Umul8_16+1,w
  8580     03D8  0020               	movlb	0	; select bank0
  8581     03D9  00B9               	movwf	___flmul@temp+1
  8582     03DA  0870               	movf	?__Umul8_16,w
  8583     03DB  00B8               	movwf	___flmul@temp
  8584     03DC                     l2664:
  8585     03DC  0838               	movf	___flmul@temp,w
  8586     03DD  07AE               	addwf	___flmul@grs,f
  8587     03DE  0839               	movf	___flmul@temp+1,w
  8588     03DF  3DAF               	addwfc	___flmul@grs+1,f
  8589     03E0  3000               	movlw	0
  8590     03E1  3DB0               	addwfc	___flmul@grs+2,f
  8591     03E2  3DB1               	addwfc	___flmul@grs+3,f
  8592     03E3                     l2666:
  8593     03E3  0820               	movf	___flmul@b,w
  8594     03E4  00F0               	movwf	__Umul8_16@multiplicand
  8595     03E5  0825               	movf	___flmul@a+1,w
  8596     03E6  3195  25ED  3182   	fcall	__Umul8_16
  8597     03E9  0871               	movf	?__Umul8_16+1,w
  8598     03EA  0020               	movlb	0	; select bank0
  8599     03EB  00B9               	movwf	___flmul@temp+1
  8600     03EC  0870               	movf	?__Umul8_16,w
  8601     03ED  00B8               	movwf	___flmul@temp
  8602     03EE                     l2668:
  8603     03EE  0838               	movf	___flmul@temp,w
  8604     03EF  07AE               	addwf	___flmul@grs,f
  8605     03F0  0839               	movf	___flmul@temp+1,w
  8606     03F1  3DAF               	addwfc	___flmul@grs+1,f
  8607     03F2  3000               	movlw	0
  8608     03F3  3DB0               	addwfc	___flmul@grs+2,f
  8609     03F4  3DB1               	addwfc	___flmul@grs+3,f
  8610     03F5                     l2670:
  8611     03F5  3008               	movlw	8
  8612     03F6                     u3435:
  8613     03F6  35AE               	lslf	___flmul@grs,f
  8614     03F7  0DAF               	rlf	___flmul@grs+1,f
  8615     03F8  0DB0               	rlf	___flmul@grs+2,f
  8616     03F9  0DB1               	rlf	___flmul@grs+3,f
  8617     03FA  0B89               	decfsz	9,f
  8618     03FB  2BF6               	goto	u3435
  8619     03FC  0820               	movf	___flmul@b,w
  8620     03FD  00F0               	movwf	__Umul8_16@multiplicand
  8621     03FE  0824               	movf	___flmul@a,w
  8622     03FF  3195  25ED  3182   	fcall	__Umul8_16
  8623     0402  0871               	movf	?__Umul8_16+1,w
  8624     0403  0020               	movlb	0	; select bank0
  8625     0404  00B9               	movwf	___flmul@temp+1
  8626     0405  0870               	movf	?__Umul8_16,w
  8627     0406  00B8               	movwf	___flmul@temp
  8628     0407                     l2672:
  8629     0407  0838               	movf	___flmul@temp,w
  8630     0408  07AE               	addwf	___flmul@grs,f
  8631     0409  0839               	movf	___flmul@temp+1,w
  8632     040A  3DAF               	addwfc	___flmul@grs+1,f
  8633     040B  3000               	movlw	0
  8634     040C  3DB0               	addwfc	___flmul@grs+2,f
  8635     040D  3DB1               	addwfc	___flmul@grs+3,f
  8636     040E                     l2674:
  8637     040E  0821               	movf	___flmul@b+1,w
  8638     040F  00F0               	movwf	__Umul8_16@multiplicand
  8639     0410  0826               	movf	___flmul@a+2,w
  8640     0411  3195  25ED  3182   	fcall	__Umul8_16
  8641     0414  0871               	movf	?__Umul8_16+1,w
  8642     0415  0020               	movlb	0	; select bank0
  8643     0416  00B9               	movwf	___flmul@temp+1
  8644     0417  0870               	movf	?__Umul8_16,w
  8645     0418  00B8               	movwf	___flmul@temp
  8646     0419  0838               	movf	___flmul@temp,w
  8647     041A  07B4               	addwf	___flmul@prod,f
  8648     041B  0839               	movf	___flmul@temp+1,w
  8649     041C  3DB5               	addwfc	___flmul@prod+1,f
  8650     041D  3000               	movlw	0
  8651     041E  3DB6               	addwfc	___flmul@prod+2,f
  8652     041F  3DB7               	addwfc	___flmul@prod+3,f
  8653     0420                     l2676:
  8654     0420  0822               	movf	___flmul@b+2,w
  8655     0421  00F0               	movwf	__Umul8_16@multiplicand
  8656     0422  0825               	movf	___flmul@a+1,w
  8657     0423  3195  25ED  3182   	fcall	__Umul8_16
  8658     0426  0871               	movf	?__Umul8_16+1,w
  8659     0427  0020               	movlb	0	; select bank0
  8660     0428  00B9               	movwf	___flmul@temp+1
  8661     0429  0870               	movf	?__Umul8_16,w
  8662     042A  00B8               	movwf	___flmul@temp
  8663     042B                     l2678:
  8664     042B  0838               	movf	___flmul@temp,w
  8665     042C  07B4               	addwf	___flmul@prod,f
  8666     042D  0839               	movf	___flmul@temp+1,w
  8667     042E  3DB5               	addwfc	___flmul@prod+1,f
  8668     042F  3000               	movlw	0
  8669     0430  3DB6               	addwfc	___flmul@prod+2,f
  8670     0431  3DB7               	addwfc	___flmul@prod+3,f
  8671     0432  0822               	movf	___flmul@b+2,w
  8672     0433  00F0               	movwf	__Umul8_16@multiplicand
  8673     0434  0826               	movf	___flmul@a+2,w
  8674     0435  3195  25ED  3182   	fcall	__Umul8_16
  8675     0438  0871               	movf	?__Umul8_16+1,w
  8676     0439  0020               	movlb	0	; select bank0
  8677     043A  00B9               	movwf	___flmul@temp+1
  8678     043B  0870               	movf	?__Umul8_16,w
  8679     043C  00B8               	movwf	___flmul@temp
  8680     043D                     l2680:
  8681     043D  0838               	movf	___flmul@temp,w
  8682     043E  00A8               	movwf	??___flmul
  8683     043F  0839               	movf	___flmul@temp+1,w
  8684     0440  00A9               	movwf	??___flmul+1
  8685     0441  01AA               	clrf	??___flmul+2
  8686     0442  01AB               	clrf	??___flmul+3
  8687     0443  3008               	movlw	8
  8688     0444                     u3445:
  8689     0444  35A8               	lslf	??___flmul,f
  8690     0445  0DA9               	rlf	??___flmul+1,f
  8691     0446  0DAA               	rlf	??___flmul+2,f
  8692     0447  0DAB               	rlf	??___flmul+3,f
  8693     0448                     u3440:
  8694     0448  0B89               	decfsz	9,f
  8695     0449  2C44               	goto	u3445
  8696     044A  0828               	movf	??___flmul,w
  8697     044B  07B4               	addwf	___flmul@prod,f
  8698     044C  0829               	movf	??___flmul+1,w
  8699     044D  3DB5               	addwfc	___flmul@prod+1,f
  8700     044E  082A               	movf	??___flmul+2,w
  8701     044F  3DB6               	addwfc	___flmul@prod+2,f
  8702     0450  082B               	movf	??___flmul+3,w
  8703     0451  3DB7               	addwfc	___flmul@prod+3,f
  8704     0452                     l2682:
  8705     0452  082E               	movf	___flmul@grs,w
  8706     0453  00A8               	movwf	??___flmul
  8707     0454  082F               	movf	___flmul@grs+1,w
  8708     0455  00A9               	movwf	??___flmul+1
  8709     0456  0830               	movf	___flmul@grs+2,w
  8710     0457  00AA               	movwf	??___flmul+2
  8711     0458  0831               	movf	___flmul@grs+3,w
  8712     0459  00AB               	movwf	??___flmul+3
  8713     045A  3018               	movlw	24
  8714     045B                     u3455:
  8715     045B  36AB               	lsrf	??___flmul+3,f
  8716     045C  0CAA               	rrf	??___flmul+2,f
  8717     045D  0CA9               	rrf	??___flmul+1,f
  8718     045E  0CA8               	rrf	??___flmul,f
  8719     045F                     u3450:
  8720     045F  0B89               	decfsz	9,f
  8721     0460  2C5B               	goto	u3455
  8722     0461  0828               	movf	??___flmul,w
  8723     0462  07B4               	addwf	___flmul@prod,f
  8724     0463  0829               	movf	??___flmul+1,w
  8725     0464  3DB5               	addwfc	___flmul@prod+1,f
  8726     0465  082A               	movf	??___flmul+2,w
  8727     0466  3DB6               	addwfc	___flmul@prod+2,f
  8728     0467  082B               	movf	??___flmul+3,w
  8729     0468  3DB7               	addwfc	___flmul@prod+3,f
  8730     0469                     l2684:
  8731     0469  3008               	movlw	8
  8732     046A                     u3465:
  8733     046A  35AE               	lslf	___flmul@grs,f
  8734     046B  0DAF               	rlf	___flmul@grs+1,f
  8735     046C  0DB0               	rlf	___flmul@grs+2,f
  8736     046D  0DB1               	rlf	___flmul@grs+3,f
  8737     046E  0B89               	decfsz	9,f
  8738     046F  2C6A               	goto	u3465
  8739     0470                     l2686:
  8740     0470  0833               	movf	___flmul@bexp,w
  8741     0471  0732               	addwf	___flmul@aexp,w
  8742     0472  00A8               	movwf	??___flmul
  8743     0473  01A9               	clrf	??___flmul+1
  8744     0474  0DA9               	rlf	??___flmul+1,f
  8745     0475  0828               	movf	??___flmul,w
  8746     0476  3E82               	addlw	130
  8747     0477  00B8               	movwf	___flmul@temp
  8748     0478  30FF               	movlw	255
  8749     0479  3D29               	addwfc	??___flmul+1,w
  8750     047A  00B9               	movwf	___flmul@temp+1
  8751     047B  2C93               	goto	l2698
  8752     047C                     l2688:
  8753     047C  3001               	movlw	1
  8754     047D                     u3475:
  8755     047D  35B4               	lslf	___flmul@prod,f
  8756     047E  0DB5               	rlf	___flmul@prod+1,f
  8757     047F  0DB6               	rlf	___flmul@prod+2,f
  8758     0480  0DB7               	rlf	___flmul@prod+3,f
  8759     0481  0B89               	decfsz	9,f
  8760     0482  2C7D               	goto	u3475
  8761     0483                     l2690:
  8762     0483  1FB1               	btfss	___flmul@grs+3,7
  8763     0484  2C86               	goto	u3481
  8764     0485  2C87               	goto	u3480
  8765     0486                     u3481:
  8766     0486  2C88               	goto	l2694
  8767     0487                     u3480:
  8768     0487                     l2692:
  8769     0487  1434               	bsf	___flmul@prod,0
  8770     0488                     l2694:
  8771     0488  3001               	movlw	1
  8772     0489                     u3495:
  8773     0489  35AE               	lslf	___flmul@grs,f
  8774     048A  0DAF               	rlf	___flmul@grs+1,f
  8775     048B  0DB0               	rlf	___flmul@grs+2,f
  8776     048C  0DB1               	rlf	___flmul@grs+3,f
  8777     048D  0B89               	decfsz	9,f
  8778     048E  2C89               	goto	u3495
  8779     048F                     l2696:
  8780     048F  30FF               	movlw	255
  8781     0490  07B8               	addwf	___flmul@temp,f
  8782     0491  30FF               	movlw	255
  8783     0492  3DB9               	addwfc	___flmul@temp+1,f
  8784     0493                     l2698:
  8785     0493  1FB6               	btfss	___flmul@prod+2,7
  8786     0494  2C96               	goto	u3501
  8787     0495  2C97               	goto	u3500
  8788     0496                     u3501:
  8789     0496  2C7C               	goto	l2688
  8790     0497                     u3500:
  8791     0497                     l2700:
  8792     0497  01B2               	clrf	___flmul@aexp
  8793     0498                     l2702:
  8794     0498  1FB1               	btfss	___flmul@grs+3,7
  8795     0499  2C9B               	goto	u3511
  8796     049A  2C9C               	goto	u3510
  8797     049B                     u3511:
  8798     049B  2CB8               	goto	l2710
  8799     049C                     u3510:
  8800     049C                     l2704:
  8801     049C  30FF               	movlw	255
  8802     049D  052E               	andwf	___flmul@grs,w
  8803     049E  00A8               	movwf	??___flmul
  8804     049F  30FF               	movlw	255
  8805     04A0  052F               	andwf	___flmul@grs+1,w
  8806     04A1  00A9               	movwf	??___flmul+1
  8807     04A2  30FF               	movlw	255
  8808     04A3  0530               	andwf	___flmul@grs+2,w
  8809     04A4  00AA               	movwf	??___flmul+2
  8810     04A5  307F               	movlw	127
  8811     04A6  0531               	andwf	___flmul@grs+3,w
  8812     04A7  00AB               	movwf	??___flmul+3
  8813     04A8  082B               	movf	??___flmul+3,w
  8814     04A9  042A               	iorwf	??___flmul+2,w
  8815     04AA  0429               	iorwf	??___flmul+1,w
  8816     04AB  0428               	iorwf	??___flmul,w
  8817     04AC  1903               	skipnz
  8818     04AD  2CAF               	goto	u3521
  8819     04AE  2CB0               	goto	u3520
  8820     04AF                     u3521:
  8821     04AF  2CB3               	goto	l682
  8822     04B0                     u3520:
  8823     04B0                     l2706:
  8824     04B0  01B2               	clrf	___flmul@aexp
  8825     04B1  0AB2               	incf	___flmul@aexp,f
  8826     04B2  2CB8               	goto	l2710
  8827     04B3                     l682:
  8828     04B3  1C34               	btfss	___flmul@prod,0
  8829     04B4  2CB6               	goto	u3531
  8830     04B5  2CB7               	goto	u3530
  8831     04B6                     u3531:
  8832     04B6  2CB8               	goto	l2710
  8833     04B7                     u3530:
  8834     04B7  2CB0               	goto	l2706
  8835     04B8                     l2710:
  8836     04B8  0832               	movf	___flmul@aexp,w
  8837     04B9  1903               	btfsc	3,2
  8838     04BA  2CBC               	goto	u3541
  8839     04BB  2CBD               	goto	u3540
  8840     04BC                     u3541:
  8841     04BC  2CE5               	goto	l2720
  8842     04BD                     u3540:
  8843     04BD                     l2712:
  8844     04BD  3001               	movlw	1
  8845     04BE  07B4               	addwf	___flmul@prod,f
  8846     04BF  3000               	movlw	0
  8847     04C0  3DB5               	addwfc	___flmul@prod+1,f
  8848     04C1  3000               	movlw	0
  8849     04C2  3DB6               	addwfc	___flmul@prod+2,f
  8850     04C3  3000               	movlw	0
  8851     04C4  3DB7               	addwfc	___flmul@prod+3,f
  8852     04C5                     l2714:
  8853     04C5  1C37               	btfss	___flmul@prod+3,0
  8854     04C6  2CC8               	goto	u3551
  8855     04C7  2CC9               	goto	u3550
  8856     04C8                     u3551:
  8857     04C8  2CE5               	goto	l2720
  8858     04C9                     u3550:
  8859     04C9                     l2716:
  8860     04C9  0834               	movf	___flmul@prod,w
  8861     04CA  00A8               	movwf	??___flmul
  8862     04CB  0835               	movf	___flmul@prod+1,w
  8863     04CC  00A9               	movwf	??___flmul+1
  8864     04CD  0836               	movf	___flmul@prod+2,w
  8865     04CE  00AA               	movwf	??___flmul+2
  8866     04CF  0837               	movf	___flmul@prod+3,w
  8867     04D0  00AB               	movwf	??___flmul+3
  8868     04D1  3001               	movlw	1
  8869     04D2  00AC               	movwf	??___flmul+4
  8870     04D3                     u3565:
  8871     04D3  37AB               	asrf	??___flmul+3,f
  8872     04D4  0CAA               	rrf	??___flmul+2,f
  8873     04D5  0CA9               	rrf	??___flmul+1,f
  8874     04D6  0CA8               	rrf	??___flmul,f
  8875     04D7                     u3560:
  8876     04D7  0BAC               	decfsz	??___flmul+4,f
  8877     04D8  2CD3               	goto	u3565
  8878     04D9  082B               	movf	??___flmul+3,w
  8879     04DA  00B7               	movwf	___flmul@prod+3
  8880     04DB  082A               	movf	??___flmul+2,w
  8881     04DC  00B6               	movwf	___flmul@prod+2
  8882     04DD  0829               	movf	??___flmul+1,w
  8883     04DE  00B5               	movwf	___flmul@prod+1
  8884     04DF  0828               	movf	??___flmul,w
  8885     04E0  00B4               	movwf	___flmul@prod
  8886     04E1                     l2718:
  8887     04E1  3001               	movlw	1
  8888     04E2  07B8               	addwf	___flmul@temp,f
  8889     04E3  3000               	movlw	0
  8890     04E4  3DB9               	addwfc	___flmul@temp+1,f
  8891     04E5                     l2720:
  8892     04E5  0839               	movf	___flmul@temp+1,w
  8893     04E6  3A80               	xorlw	128
  8894     04E7  00A8               	movwf	??___flmul
  8895     04E8  3080               	movlw	128
  8896     04E9  0228               	subwf	??___flmul,w
  8897     04EA  1D03               	skipz
  8898     04EB  2CEE               	goto	u3575
  8899     04EC  30FF               	movlw	255
  8900     04ED  0238               	subwf	___flmul@temp,w
  8901     04EE                     u3575:
  8902     04EE  1C03               	skipc
  8903     04EF  2CF1               	goto	u3571
  8904     04F0  2CF2               	goto	u3570
  8905     04F1                     u3571:
  8906     04F1  2CFC               	goto	l2724
  8907     04F2                     u3570:
  8908     04F2                     l2722:
  8909     04F2  307F               	movlw	127
  8910     04F3  0020               	movlb	0	; select bank0
  8911     04F4  00B7               	movwf	___flmul@prod+3
  8912     04F5  3080               	movlw	128
  8913     04F6  00B6               	movwf	___flmul@prod+2
  8914     04F7  3000               	movlw	0
  8915     04F8  00B5               	movwf	___flmul@prod+1
  8916     04F9  3000               	movlw	0
  8917     04FA  00B4               	movwf	___flmul@prod
  8918     04FB  2D27               	goto	l688
  8919     04FC                     l2724:
  8920     04FC  0020               	movlb	0	; select bank0
  8921     04FD  0839               	movf	___flmul@temp+1,w
  8922     04FE  3A80               	xorlw	128
  8923     04FF  00A8               	movwf	??___flmul
  8924     0500  3080               	movlw	128
  8925     0501  0228               	subwf	??___flmul,w
  8926     0502  1D03               	skipz
  8927     0503  2D06               	goto	u3585
  8928     0504  3001               	movlw	1
  8929     0505  0238               	subwf	___flmul@temp,w
  8930     0506                     u3585:
  8931     0506  1803               	skipnc
  8932     0507  2D09               	goto	u3581
  8933     0508  2D0A               	goto	u3580
  8934     0509                     u3581:
  8935     0509  2D15               	goto	l2730
  8936     050A                     u3580:
  8937     050A                     l2726:
  8938     050A  3000               	movlw	0
  8939     050B  0020               	movlb	0	; select bank0
  8940     050C  00B7               	movwf	___flmul@prod+3
  8941     050D  3000               	movlw	0
  8942     050E  00B6               	movwf	___flmul@prod+2
  8943     050F  3000               	movlw	0
  8944     0510  00B5               	movwf	___flmul@prod+1
  8945     0511  3000               	movlw	0
  8946     0512  00B4               	movwf	___flmul@prod
  8947     0513                     l2728:
  8948     0513  01AD               	clrf	___flmul@sign
  8949     0514  2D27               	goto	l688
  8950     0515                     l2730:
  8951     0515  0020               	movlb	0	; select bank0
  8952     0516  0838               	movf	___flmul@temp,w
  8953     0517  00B3               	movwf	___flmul@bexp
  8954     0518  30FF               	movlw	255
  8955     0519  05B4               	andwf	___flmul@prod,f
  8956     051A  30FF               	movlw	255
  8957     051B  05B5               	andwf	___flmul@prod+1,f
  8958     051C  307F               	movlw	127
  8959     051D  05B6               	andwf	___flmul@prod+2,f
  8960     051E  3000               	movlw	0
  8961     051F  05B7               	andwf	___flmul@prod+3,f
  8962     0520                     l2732:
  8963     0520  1C33               	btfss	___flmul@bexp,0
  8964     0521  2D23               	goto	u3591
  8965     0522  2D24               	goto	u3590
  8966     0523                     u3591:
  8967     0523  2D25               	goto	l2736
  8968     0524                     u3590:
  8969     0524                     l2734:
  8970     0524  17B6               	bsf	___flmul@prod+2,7
  8971     0525                     l2736:
  8972     0525  3633               	lsrf	___flmul@bexp,w
  8973     0526  00B7               	movwf	___flmul@prod+3
  8974     0527                     l688:
  8975     0527  082D               	movf	___flmul@sign,w
  8976     0528  00A8               	movwf	??___flmul
  8977     0529  0828               	movf	??___flmul,w
  8978     052A  04B7               	iorwf	___flmul@prod+3,f
  8979     052B                     l2738:
  8980     052B  0837               	movf	___flmul@prod+3,w
  8981     052C  00A3               	movwf	?___flmul+3
  8982     052D  0836               	movf	___flmul@prod+2,w
  8983     052E  00A2               	movwf	?___flmul+2
  8984     052F  0835               	movf	___flmul@prod+1,w
  8985     0530  00A1               	movwf	?___flmul+1
  8986     0531  0834               	movf	___flmul@prod,w
  8987     0532  00A0               	movwf	?___flmul
  8988     0533                     l676:
  8989     0533  0008               	return
  8990     0534                     __end_of___flmul:
  8991                           
  8992                           	psect	text28
  8993     15ED                     __ptext28:	
  8994 ;; *************** function __Umul8_16 *****************
  8995 ;; Defined at:
  8996 ;;		line 4 in file "C:\Program Files\Microchip\xc8\v2.46\pic\sources\c99\common\Umul8_16.c"
  8997 ;; Parameters:    Size  Location     Type
  8998 ;;  multiplier      1    wreg     unsigned char 
  8999 ;;  multiplicand    1    0[COMMON] unsigned char 
  9000 ;; Auto vars:     Size  Location     Type
  9001 ;;  multiplier      1    8[COMMON] unsigned char 
  9002 ;;  word_mpld       2    6[COMMON] unsigned short 
  9003 ;;  product         2    4[COMMON] unsigned short 
  9004 ;; Return value:  Size  Location     Type
  9005 ;;                  2    0[COMMON] unsigned int 
  9006 ;; Registers used:
  9007 ;;		wreg, status,2, status,0
  9008 ;; Tracked objects:
  9009 ;;		On entry : 0/0
  9010 ;;		On exit  : 0/0
  9011 ;;		Unchanged: 0/0
  9012 ;; Data sizes:     COMMON   BANK0   BANK1   BANK2   BANK3   BANK4   BANK5   BANK6   BANK7   BANK8   BANK9  BANK10  BANK1
      +1  BANK12  BANK13  BANK14  BANK15  BANK16  BANK17  BANK18  BANK19  BANK20  BANK21  BANK22  BANK23  BANK24  BANK25
  9013 ;;      Params:         2       0       0       0       0       0       0       0       0       0       0       0       
      +0       0       0       0       0       0       0       0       0       0       0       0       0       0       0
  9014 ;;      Locals:         5       0       0       0       0       0       0       0       0       0       0       0       
      +0       0       0       0       0       0       0       0       0       0       0       0       0       0       0
  9015 ;;      Temps:          2       0       0       0       0       0       0       0       0       0       0       0       
      +0       0       0       0       0       0       0       0       0       0       0       0       0       0       0
  9016 ;;      Totals:         9       0       0       0       0       0       0       0       0       0       0       0       
      +0       0       0       0       0       0       0       0       0       0       0       0       0       0       0
  9017 ;;Total ram usage:        9 bytes
  9018 ;; Hardware stack levels used: 1
  9019 ;; Hardware stack levels required when called: 1
  9020 ;; This function calls:
  9021 ;;		Nothing
  9022 ;; This function is called by:
  9023 ;;		___flmul
  9024 ;; This function uses a non-reentrant model
  9025 ;;
  9026                           
  9027     15ED                     __Umul8_16:	
  9028                           ;psect for function __Umul8_16
  9029                           
  9030                           
  9031                           ;incstack = 0
  9032                           ; Regs used in __Umul8_16: [wreg+status,2+status,0]
  9033                           ;__Umul8_16@multiplier stored from wreg
  9034     15ED  00F8               	movwf	__Umul8_16@multiplier
  9035     15EE                     l2430:
  9036     15EE  01F4               	clrf	__Umul8_16@product
  9037     15EF  01F5               	clrf	__Umul8_16@product+1
  9038     15F0                     l2432:
  9039     15F0  0870               	movf	__Umul8_16@multiplicand,w
  9040     15F1  00F2               	movwf	??__Umul8_16
  9041     15F2  01F3               	clrf	??__Umul8_16+1
  9042     15F3  0872               	movf	??__Umul8_16,w
  9043     15F4  00F6               	movwf	__Umul8_16@word_mpld
  9044     15F5  0873               	movf	??__Umul8_16+1,w
  9045     15F6  00F7               	movwf	__Umul8_16@word_mpld+1
  9046     15F7                     l2434:
  9047     15F7  1C78               	btfss	__Umul8_16@multiplier,0
  9048     15F8  2DFA               	goto	u3001
  9049     15F9  2DFB               	goto	u3000
  9050     15FA                     u3001:
  9051     15FA  2DFF               	goto	l695
  9052     15FB                     u3000:
  9053     15FB                     l2436:
  9054     15FB  0876               	movf	__Umul8_16@word_mpld,w
  9055     15FC  07F4               	addwf	__Umul8_16@product,f
  9056     15FD  0877               	movf	__Umul8_16@word_mpld+1,w
  9057     15FE  3DF5               	addwfc	__Umul8_16@product+1,f
  9058     15FF                     l695:
  9059     15FF  3001               	movlw	1
  9060     1600                     u3015:
  9061     1600  35F6               	lslf	__Umul8_16@word_mpld,f
  9062     1601  0DF7               	rlf	__Umul8_16@word_mpld+1,f
  9063     1602  0B89               	decfsz	9,f
  9064     1603  2E00               	goto	u3015
  9065     1604  1003               	clrc
  9066     1605  0CF8               	rrf	__Umul8_16@multiplier,f
  9067     1606                     l2438:
  9068     1606  0878               	movf	__Umul8_16@multiplier,w
  9069     1607  1D03               	btfss	3,2
  9070     1608  2E0A               	goto	u3021
  9071     1609  2E0B               	goto	u3020
  9072     160A                     u3021:
  9073     160A  2DF7               	goto	l2434
  9074     160B                     u3020:
  9075     160B                     l2440:
  9076     160B  0875               	movf	__Umul8_16@product+1,w
  9077     160C  00F1               	movwf	?__Umul8_16+1
  9078     160D  0874               	movf	__Umul8_16@product,w
  9079     160E  00F0               	movwf	?__Umul8_16
  9080     160F                     l697:
  9081     160F  0008               	return
  9082     1610                     __end_of__Umul8_16:
  9083                           
  9084                           	psect	text29
  9085     08CC                     __ptext29:	
  9086 ;; *************** function ___flge *****************
  9087 ;; Defined at:
  9088 ;;		line 4 in file "C:\Program Files\Microchip\xc8\v2.46\pic\sources\c99\common\flge.c"
  9089 ;; Parameters:    Size  Location     Type
  9090 ;;  ff1             4    0[COMMON] unsigned int 
  9091 ;;  ff2             4    4[COMMON] unsigned int 
  9092 ;; Auto vars:     Size  Location     Type
  9093 ;;		None
  9094 ;; Return value:  Size  Location     Type
  9095 ;;		None               void
  9096 ;; Registers used:
  9097 ;;		wreg, status,2, status,0
  9098 ;; Tracked objects:
  9099 ;;		On entry : 0/0
  9100 ;;		On exit  : 0/0
  9101 ;;		Unchanged: 0/0
  9102 ;; Data sizes:     COMMON   BANK0   BANK1   BANK2   BANK3   BANK4   BANK5   BANK6   BANK7   BANK8   BANK9  BANK10  BANK1
      +1  BANK12  BANK13  BANK14  BANK15  BANK16  BANK17  BANK18  BANK19  BANK20  BANK21  BANK22  BANK23  BANK24  BANK25
  9103 ;;      Params:         8       0       0       0       0       0       0       0       0       0       0       0       
      +0       0       0       0       0       0       0       0       0       0       0       0       0       0       0
  9104 ;;      Locals:         0       0       0       0       0       0       0       0       0       0       0       0       
      +0       0       0       0       0       0       0       0       0       0       0       0       0       0       0
  9105 ;;      Temps:          4       0       0       0       0       0       0       0       0       0       0       0       
      +0       0       0       0       0       0       0       0       0       0       0       0       0       0       0
  9106 ;;      Totals:        12       0       0       0       0       0       0       0       0       0       0       0       
      +0       0       0       0       0       0       0       0       0       0       0       0       0       0       0
  9107 ;;Total ram usage:       12 bytes
  9108 ;; Hardware stack levels used: 1
  9109 ;; Hardware stack levels required when called: 1
  9110 ;; This function calls:
  9111 ;;		Nothing
  9112 ;; This function is called by:
  9113 ;;		_ftoa
  9114 ;;		_calibrate
  9115 ;;		_main
  9116 ;; This function uses a non-reentrant model
  9117 ;;
  9118                           
  9119     08CC                     ___flge:	
  9120                           ;psect for function ___flge
  9121                           
  9122     08CC                     l2532:	
  9123                           ;incstack = 0
  9124                           ; Regs used in ___flge: [wreg+status,2+status,0]
  9125                           
  9126     08CC  3000               	movlw	0
  9127     08CD  0570               	andwf	___flge@ff1,w
  9128     08CE  00F8               	movwf	??___flge
  9129     08CF  3000               	movlw	0
  9130     08D0  0571               	andwf	___flge@ff1+1,w
  9131     08D1  00F9               	movwf	??___flge+1
  9132     08D2  3080               	movlw	128
  9133     08D3  0572               	andwf	___flge@ff1+2,w
  9134     08D4  00FA               	movwf	??___flge+2
  9135     08D5  307F               	movlw	127
  9136     08D6  0573               	andwf	___flge@ff1+3,w
  9137     08D7  00FB               	movwf	??___flge+3
  9138     08D8  087B               	movf	??___flge+3,w
  9139     08D9  047A               	iorwf	??___flge+2,w
  9140     08DA  0479               	iorwf	??___flge+1,w
  9141     08DB  0478               	iorwf	??___flge,w
  9142     08DC  1D03               	skipz
  9143     08DD  28DF               	goto	u3181
  9144     08DE  28E0               	goto	u3180
  9145     08DF                     u3181:
  9146     08DF  28E8               	goto	l457
  9147     08E0                     u3180:
  9148     08E0                     l2534:
  9149     08E0  3000               	movlw	0
  9150     08E1  00F3               	movwf	___flge@ff1+3
  9151     08E2  3000               	movlw	0
  9152     08E3  00F2               	movwf	___flge@ff1+2
  9153     08E4  3000               	movlw	0
  9154     08E5  00F1               	movwf	___flge@ff1+1
  9155     08E6  3000               	movlw	0
  9156     08E7  00F0               	movwf	___flge@ff1
  9157     08E8                     l457:
  9158     08E8  3000               	movlw	0
  9159     08E9  0574               	andwf	___flge@ff2,w
  9160     08EA  00F8               	movwf	??___flge
  9161     08EB  3000               	movlw	0
  9162     08EC  0575               	andwf	___flge@ff2+1,w
  9163     08ED  00F9               	movwf	??___flge+1
  9164     08EE  3080               	movlw	128
  9165     08EF  0576               	andwf	___flge@ff2+2,w
  9166     08F0  00FA               	movwf	??___flge+2
  9167     08F1  307F               	movlw	127
  9168     08F2  0577               	andwf	___flge@ff2+3,w
  9169     08F3  00FB               	movwf	??___flge+3
  9170     08F4  087B               	movf	??___flge+3,w
  9171     08F5  047A               	iorwf	??___flge+2,w
  9172     08F6  0479               	iorwf	??___flge+1,w
  9173     08F7  0478               	iorwf	??___flge,w
  9174     08F8  1D03               	skipz
  9175     08F9  28FB               	goto	u3191
  9176     08FA  28FC               	goto	u3190
  9177     08FB                     u3191:
  9178     08FB  2904               	goto	l2538
  9179     08FC                     u3190:
  9180     08FC                     l2536:
  9181     08FC  3000               	movlw	0
  9182     08FD  00F7               	movwf	___flge@ff2+3
  9183     08FE  3000               	movlw	0
  9184     08FF  00F6               	movwf	___flge@ff2+2
  9185     0900  3000               	movlw	0
  9186     0901  00F5               	movwf	___flge@ff2+1
  9187     0902  3000               	movlw	0
  9188     0903  00F4               	movwf	___flge@ff2
  9189     0904                     l2538:
  9190     0904  1FF3               	btfss	___flge@ff1+3,7
  9191     0905  2907               	goto	u3201
  9192     0906  2908               	goto	u3200
  9193     0907                     u3201:
  9194     0907  2920               	goto	l2542
  9195     0908                     u3200:
  9196     0908                     l2540:
  9197     0908  3000               	movlw	0
  9198     0909  00F8               	movwf	??___flge
  9199     090A  3000               	movlw	0
  9200     090B  00F9               	movwf	??___flge+1
  9201     090C  3000               	movlw	0
  9202     090D  00FA               	movwf	??___flge+2
  9203     090E  3080               	movlw	128
  9204     090F  00FB               	movwf	??___flge+3
  9205     0910  0870               	movf	___flge@ff1,w
  9206     0911  02F8               	subwf	??___flge,f
  9207     0912  0871               	movf	___flge@ff1+1,w
  9208     0913  3BF9               	subwfb	??___flge+1,f
  9209     0914  0872               	movf	___flge@ff1+2,w
  9210     0915  3BFA               	subwfb	??___flge+2,f
  9211     0916  0873               	movf	___flge@ff1+3,w
  9212     0917  3BFB               	subwfb	??___flge+3,f
  9213     0918  087B               	movf	??___flge+3,w
  9214     0919  00F3               	movwf	___flge@ff1+3
  9215     091A  087A               	movf	??___flge+2,w
  9216     091B  00F2               	movwf	___flge@ff1+2
  9217     091C  0879               	movf	??___flge+1,w
  9218     091D  00F1               	movwf	___flge@ff1+1
  9219     091E  0878               	movf	??___flge,w
  9220     091F  00F0               	movwf	___flge@ff1
  9221     0920                     l2542:
  9222     0920  1FF7               	btfss	___flge@ff2+3,7
  9223     0921  2923               	goto	u3211
  9224     0922  2924               	goto	u3210
  9225     0923                     u3211:
  9226     0923  293C               	goto	l460
  9227     0924                     u3210:
  9228     0924                     l2544:
  9229     0924  3000               	movlw	0
  9230     0925  00F8               	movwf	??___flge
  9231     0926  3000               	movlw	0
  9232     0927  00F9               	movwf	??___flge+1
  9233     0928  3000               	movlw	0
  9234     0929  00FA               	movwf	??___flge+2
  9235     092A  3080               	movlw	128
  9236     092B  00FB               	movwf	??___flge+3
  9237     092C  0874               	movf	___flge@ff2,w
  9238     092D  02F8               	subwf	??___flge,f
  9239     092E  0875               	movf	___flge@ff2+1,w
  9240     092F  3BF9               	subwfb	??___flge+1,f
  9241     0930  0876               	movf	___flge@ff2+2,w
  9242     0931  3BFA               	subwfb	??___flge+2,f
  9243     0932  0877               	movf	___flge@ff2+3,w
  9244     0933  3BFB               	subwfb	??___flge+3,f
  9245     0934  087B               	movf	??___flge+3,w
  9246     0935  00F7               	movwf	___flge@ff2+3
  9247     0936  087A               	movf	??___flge+2,w
  9248     0937  00F6               	movwf	___flge@ff2+2
  9249     0938  0879               	movf	??___flge+1,w
  9250     0939  00F5               	movwf	___flge@ff2+1
  9251     093A  0878               	movf	??___flge,w
  9252     093B  00F4               	movwf	___flge@ff2
  9253     093C                     l460:
  9254     093C  3080               	movlw	128
  9255     093D  06F3               	xorwf	___flge@ff1+3,f
  9256     093E  3080               	movlw	128
  9257     093F  06F7               	xorwf	___flge@ff2+3,f
  9258     0940  0877               	movf	___flge@ff2+3,w
  9259     0941  0273               	subwf	___flge@ff1+3,w
  9260     0942  1D03               	skipz
  9261     0943  294E               	goto	u3225
  9262     0944  0876               	movf	___flge@ff2+2,w
  9263     0945  0272               	subwf	___flge@ff1+2,w
  9264     0946  1D03               	skipz
  9265     0947  294E               	goto	u3225
  9266     0948  0875               	movf	___flge@ff2+1,w
  9267     0949  0271               	subwf	___flge@ff1+1,w
  9268     094A  1D03               	skipz
  9269     094B  294E               	goto	u3225
  9270     094C  0874               	movf	___flge@ff2,w
  9271     094D  0270               	subwf	___flge@ff1,w
  9272     094E                     u3225:
  9273     094E  1803               	skipnc
  9274     094F  2951               	goto	u3221
  9275     0950  2952               	goto	u3220
  9276     0951                     u3221:
  9277     0951  2954               	goto	l2548
  9278     0952                     u3220:
  9279     0952                     l2546:
  9280     0952  1003               	clrc
  9281     0953  2955               	goto	l465
  9282     0954                     l2548:
  9283     0954  1403               	setc
  9284     0955                     l465:
  9285     0955  0008               	return
  9286     0956                     __end_of___flge:
  9287                           
  9288                           	psect	text30
  9289     1574                     __ptext30:	
  9290 ;; *************** function _EUSART_Write_Text *****************
  9291 ;; Defined at:
  9292 ;;		line 127 in file "EUSART.c"
  9293 ;; Parameters:    Size  Location     Type
  9294 ;;  text            2    1[COMMON] PTR unsigned char 
  9295 ;;		 -> STR_12(26), STR_11(2), STR_10(19), STR_9(17), 
  9296 ;;		 -> STR_8(2), STR_7(19), STR_6(17), STR_5(55), 
  9297 ;;		 -> STR_4(2), STR_3(36), STR_2(29), EUSART_Write_Float@buffer(32), 
  9298 ;;		 -> EUSART_Write_Unsigned_Integer@buffer(20), 
  9299 ;; Auto vars:     Size  Location     Type
  9300 ;;  i               2    4[COMMON] int 
  9301 ;; Return value:  Size  Location     Type
  9302 ;;                  1    wreg      void 
  9303 ;; Registers used:
  9304 ;;		wreg, fsr0l, fsr0h, status,2, status,0, pclath, cstack
  9305 ;; Tracked objects:
  9306 ;;		On entry : 0/0
  9307 ;;		On exit  : 0/0
  9308 ;;		Unchanged: 0/0
  9309 ;; Data sizes:     COMMON   BANK0   BANK1   BANK2   BANK3   BANK4   BANK5   BANK6   BANK7   BANK8   BANK9  BANK10  BANK1
      +1  BANK12  BANK13  BANK14  BANK15  BANK16  BANK17  BANK18  BANK19  BANK20  BANK21  BANK22  BANK23  BANK24  BANK25
  9310 ;;      Params:         2       0       0       0       0       0       0       0       0       0       0       0       
      +0       0       0       0       0       0       0       0       0       0       0       0       0       0       0
  9311 ;;      Locals:         2       0       0       0       0       0       0       0       0       0       0       0       
      +0       0       0       0       0       0       0       0       0       0       0       0       0       0       0
  9312 ;;      Temps:          1       0       0       0       0       0       0       0       0       0       0       0       
      +0       0       0       0       0       0       0       0       0       0       0       0       0       0       0
  9313 ;;      Totals:         5       0       0       0       0       0       0       0       0       0       0       0       
      +0       0       0       0       0       0       0       0       0       0       0       0       0       0       0
  9314 ;;Total ram usage:        5 bytes
  9315 ;; Hardware stack levels used: 1
  9316 ;; Hardware stack levels required when called: 2
  9317 ;; This function calls:
  9318 ;;		_EUSART_Write
  9319 ;; This function is called by:
  9320 ;;		_EUSART_Write_Unsigned_Integer
  9321 ;;		_EUSART_Write_Float
  9322 ;;		_calibrate
  9323 ;;		_main
  9324 ;; This function uses a non-reentrant model
  9325 ;;
  9326                           
  9327     1574                     _EUSART_Write_Text:	
  9328                           ;psect for function _EUSART_Write_Text
  9329                           
  9330     1574                     l2454:	
  9331                           ;incstack = 0
  9332                           ; Regs used in _EUSART_Write_Text: [wreg-fsr0h+status,2+status,0+pclath+cstack]
  9333                           
  9334                           
  9335                           ;EUSART.c: 127: void EUSART_Write_Text(char *text);EUSART.c: 128: {;EUSART.c: 129:   int
      +                           i;;EUSART.c: 130:   for(i=0;text[i]!='\0';i++)
  9336     1574  01F4               	clrf	EUSART_Write_Text@i
  9337     1575  01F5               	clrf	EUSART_Write_Text@i+1
  9338     1576  2D85               	goto	l2460
  9339     1577                     l2456:
  9340                           
  9341                           ;EUSART.c: 131:    EUSART_Write(text[i]);
  9342     1577  0871               	movf	EUSART_Write_Text@text,w
  9343     1578  0774               	addwf	EUSART_Write_Text@i,w
  9344     1579  0084               	movwf	4
  9345     157A  0872               	movf	EUSART_Write_Text@text+1,w
  9346     157B  3D75               	addwfc	EUSART_Write_Text@i+1,w
  9347     157C  0085               	movwf	5
  9348     157D  0800               	movf	0,w	;code access
  9349     157E  3195  2511  3195   	fcall	_EUSART_Write
  9350     1581                     l2458:
  9351     1581  3001               	movlw	1
  9352     1582  07F4               	addwf	EUSART_Write_Text@i,f
  9353     1583  3000               	movlw	0
  9354     1584  3DF5               	addwfc	EUSART_Write_Text@i+1,f
  9355     1585                     l2460:
  9356     1585  0871               	movf	EUSART_Write_Text@text,w
  9357     1586  0774               	addwf	EUSART_Write_Text@i,w
  9358     1587  0084               	movwf	4
  9359     1588  0872               	movf	EUSART_Write_Text@text+1,w
  9360     1589  3D75               	addwfc	EUSART_Write_Text@i+1,w
  9361     158A  0085               	movwf	5
  9362     158B  0012               	moviw fsr0++
  9363     158C  1D03               	btfss	3,2
  9364     158D  2D8F               	goto	u3041
  9365     158E  2D90               	goto	u3040
  9366     158F                     u3041:
  9367     158F  2D77               	goto	l2456
  9368     1590                     u3040:
  9369     1590                     l52:
  9370     1590  0008               	return
  9371     1591                     __end_of_EUSART_Write_Text:
  9372                           
  9373                           	psect	text31
  9374     1511                     __ptext31:	
  9375 ;; *************** function _EUSART_Write *****************
  9376 ;; Defined at:
  9377 ;;		line 108 in file "EUSART.c"
  9378 ;; Parameters:    Size  Location     Type
  9379 ;;  txData          1    wreg     unsigned char 
  9380 ;; Auto vars:     Size  Location     Type
  9381 ;;  txData          1    0[COMMON] unsigned char 
  9382 ;; Return value:  Size  Location     Type
  9383 ;;                  1    wreg      void 
  9384 ;; Registers used:
  9385 ;;		wreg
  9386 ;; Tracked objects:
  9387 ;;		On entry : 0/0
  9388 ;;		On exit  : 0/0
  9389 ;;		Unchanged: 0/0
  9390 ;; Data sizes:     COMMON   BANK0   BANK1   BANK2   BANK3   BANK4   BANK5   BANK6   BANK7   BANK8   BANK9  BANK10  BANK1
      +1  BANK12  BANK13  BANK14  BANK15  BANK16  BANK17  BANK18  BANK19  BANK20  BANK21  BANK22  BANK23  BANK24  BANK25
  9391 ;;      Params:         0       0       0       0       0       0       0       0       0       0       0       0       
      +0       0       0       0       0       0       0       0       0       0       0       0       0       0       0
  9392 ;;      Locals:         1       0       0       0       0       0       0       0       0       0       0       0       
      +0       0       0       0       0       0       0       0       0       0       0       0       0       0       0
  9393 ;;      Temps:          0       0       0       0       0       0       0       0       0       0       0       0       
      +0       0       0       0       0       0       0       0       0       0       0       0       0       0       0
  9394 ;;      Totals:         1       0       0       0       0       0       0       0       0       0       0       0       
      +0       0       0       0       0       0       0       0       0       0       0       0       0       0       0
  9395 ;;Total ram usage:        1 bytes
  9396 ;; Hardware stack levels used: 1
  9397 ;; Hardware stack levels required when called: 1
  9398 ;; This function calls:
  9399 ;;		Nothing
  9400 ;; This function is called by:
  9401 ;;		_EUSART_Write_Text
  9402 ;;		_EUSART_Write_Integer
  9403 ;; This function uses a non-reentrant model
  9404 ;;
  9405                           
  9406     1511                     _EUSART_Write:	
  9407                           ;psect for function _EUSART_Write
  9408                           
  9409                           
  9410                           ;incstack = 0
  9411                           ; Regs used in _EUSART_Write: [wreg]
  9412                           ;EUSART_Write@txData stored from wreg
  9413     1511  00F0               	movwf	EUSART_Write@txData
  9414     1512                     l2136:
  9415     1512                     l43:	
  9416                           ;EUSART.c: 111:     {;EUSART.c: 112:     }
  9417                           
  9418                           
  9419                           ;EUSART.c: 110:     while(0 == PIR1bits.TXIF)
  9420     1512  0020               	movlb	0	; select bank0
  9421     1513  1E11               	btfss	17,4	;volatile
  9422     1514  2D16               	goto	u2331
  9423     1515  2D17               	goto	u2330
  9424     1516                     u2331:
  9425     1516  2D12               	goto	l43
  9426     1517                     u2330:
  9427     1517                     l2138:
  9428                           
  9429                           ;EUSART.c: 114:     TX1REG = txData;
  9430     1517  0870               	movf	EUSART_Write@txData,w
  9431     1518  0023               	movlb	3	; select bank3
  9432     1519  009A               	movwf	26	;volatile
  9433     151A                     l46:
  9434     151A  0008               	return
  9435     151B                     __end_of_EUSART_Write:
  9436                           
  9437                           	psect	intentry
  9438     0004                     __pintentry:	
  9439 ;; *************** function _isr *****************
  9440 ;; Defined at:
  9441 ;;		line 113 in file "main.c"
  9442 ;; Parameters:    Size  Location     Type
  9443 ;;		None
  9444 ;; Auto vars:     Size  Location     Type
  9445 ;;		None
  9446 ;; Return value:  Size  Location     Type
  9447 ;;                  1    wreg      void 
  9448 ;; Registers used:
  9449 ;;		wreg, status,2
  9450 ;; Tracked objects:
  9451 ;;		On entry : 0/0
  9452 ;;		On exit  : 0/0
  9453 ;;		Unchanged: 0/0
  9454 ;; Data sizes:     COMMON   BANK0   BANK1   BANK2   BANK3   BANK4   BANK5   BANK6   BANK7   BANK8   BANK9  BANK10  BANK1
      +1  BANK12  BANK13  BANK14  BANK15  BANK16  BANK17  BANK18  BANK19  BANK20  BANK21  BANK22  BANK23  BANK24  BANK25
  9455 ;;      Params:         0       0       0       0       0       0       0       0       0       0       0       0       
      +0       0       0       0       0       0       0       0       0       0       0       0       0       0       0
  9456 ;;      Locals:         0       0       0       0       0       0       0       0       0       0       0       0       
      +0       0       0       0       0       0       0       0       0       0       0       0       0       0       0
  9457 ;;      Temps:          0       0       0       0       0       0       0       0       0       0       0       0       
      +0       0       0       0       0       0       0       0       0       0       0       0       0       0       0
  9458 ;;      Totals:         0       0       0       0       0       0       0       0       0       0       0       0       
      +0       0       0       0       0       0       0       0       0       0       0       0       0       0       0
  9459 ;;Total ram usage:        0 bytes
  9460 ;; Hardware stack levels used: 1
  9461 ;; This function calls:
  9462 ;;		Nothing
  9463 ;; This function is called by:
  9464 ;;		Interrupt level 1
  9465 ;; This function uses a non-reentrant model
  9466 ;;
  9467                           
  9468     0004                     _isr:
  9469                           
  9470                           ;incstack = 0
  9471     0004  147E               	bsf	int$flags,0	;set compiler interrupt flag (level 1)
  9472                           
  9473                           ; Regs used in _isr: [wreg+status,2]
  9474     0005  3180               	pagesel	$
  9475     0006                     i1l3108:
  9476                           
  9477                           ;main.c: 114:     if (INTCONbits.TMR0IF) {
  9478     0006  1D0B               	btfss	11,2	;volatile
  9479     0007  2809               	goto	u410_21
  9480     0008  280A               	goto	u410_20
  9481     0009                     u410_21:
  9482     0009  2810               	goto	i1l3114
  9483     000A                     u410_20:
  9484     000A                     i1l3110:
  9485                           
  9486                           ;main.c: 116:         tmr0_overflows++;
  9487     000A  3001               	movlw	1
  9488     000B  0021               	movlb	1	; select bank1
  9489     000C  07E2               	addwf	_tmr0_overflows^(0+128),f	;volatile
  9490     000D  3000               	movlw	0
  9491     000E  3DE3               	addwfc	(_tmr0_overflows+1)^(0+128),f	;volatile
  9492     000F                     i1l3112:
  9493                           
  9494                           ;main.c: 117:         INTCONbits.TMR0IF = 0;
  9495     000F  110B               	bcf	11,2	;volatile
  9496     0010                     i1l3114:
  9497                           
  9498                           ;main.c: 120:     if (PIR1bits.TMR1IF) {
  9499     0010  0020               	movlb	0	; select bank0
  9500     0011  1C11               	btfss	17,0	;volatile
  9501     0012  2814               	goto	u411_21
  9502     0013  2815               	goto	u411_20
  9503     0014                     u411_21:
  9504     0014  2818               	goto	i1l143
  9505     0015                     u411_20:
  9506     0015                     i1l3116:
  9507                           
  9508                           ;main.c: 122:         PIR1bits.TMR1IF = 0;
  9509     0015  1011               	bcf	17,0	;volatile
  9510     0016                     i1l3118:
  9511                           
  9512                           ;main.c: 123:         TMR1 = 0;
  9513     0016  0196               	clrf	22	;volatile
  9514     0017  0197               	clrf	23	;volatile
  9515     0018                     i1l143:
  9516     0018  107E               	bcf	int$flags,0	;clear compiler interrupt flag (level 1)
  9517     0019  0009               	retfie
  9518     001A                     __end_of_isr:
  9519     007E                     btemp	set	126	;btemp
  9520     007E                     int$flags	set	126
  9521     007E                     wtemp0	set	126
  9522                           
  9523                           	psect	config
  9524                           
  9525                           ;Config register CONFIG1 @ 0x8007
  9526                           ;	Oscillator Selection Bits
  9527                           ;	FOSC = INTOSC, INTOSC oscillator: I/O function on CLKIN pin
  9528                           ;	Watchdog Timer Enable
  9529                           ;	WDTE = OFF, WDT disabled
  9530                           ;	Power-up Timer Enable
  9531                           ;	PWRTE = OFF, PWRT disabled
  9532                           ;	MCLR Pin Function Select
  9533                           ;	MCLRE = OFF, MCLR/VPP pin function is digital input if LVP bit is also 0.
  9534                           ;	Flash Program Memory Code Protection
  9535                           ;	CP = OFF, Program memory code protection is disabled
  9536                           ;	Brown-out Reset Enable
  9537                           ;	BOREN = OFF, Brown-out Reset disabled
  9538                           ;	Clock Out Enable
  9539                           ;	CLKOUTEN = OFF, CLKOUT function is disabled. I/O or oscillator function on the CLKOUT 
      +                          pin
  9540                           ;	Internal/External Switchover Mode
  9541                           ;	IESO = ON, Internal/External Switchover Mode is enabled
  9542                           ;	Fail-Safe Clock Monitor Enable
  9543                           ;	FCMEN = OFF, Fail-Safe Clock Monitor is disabled
  9544     8007                     	org	32775
  9545     8007  19A4               	dw	6564
  9546                           
  9547                           ;Config register CONFIG2 @ 0x8008
  9548                           ;	Flash Memory Self-Write Protection
  9549                           ;	WRT = OFF, Write protection off
  9550                           ;	Peripheral Pin Select one-way control
  9551                           ;	PPS1WAY = ON, The PPSLOCK bit cannot be cleared once it is set by software
  9552                           ;	Zero-cross detect disable
  9553                           ;	ZCDDIS = ON, ZCD disabled. ZCD can be enabled by setting the ZCDSEN bit of ZCDCON
  9554                           ;	Phase Lock Loop enable
  9555                           ;	PLLEN = OFF, 4x PLL is disabled
  9556                           ;	Stack Overflow/Underflow Reset Enable
  9557                           ;	STVREN = ON, Stack Overflow or Underflow will cause a Reset
  9558                           ;	Brown-out Reset Voltage Selection
  9559                           ;	BORV = LO, Brown-out Reset Voltage (Vbor), low trip point selected.
  9560                           ;	Low-Power Brown Out Reset
  9561                           ;	LPBOR = OFF, Low-Power BOR is disabled
  9562                           ;	In-Circuit Debugger Mode
  9563                           ;	DEBUG = 0x1, unprogrammed default
  9564                           ;	Low-Voltage Programming Enable
  9565                           ;	LVP = OFF, High-voltage on MCLR/VPP must be used for programming
  9566     8008                     	org	32776
  9567     8008  1EFF               	dw	7935

Data Sizes:
    Strings     205
    Constant    0
    Data        1
    BSS         39
    Persistent  32
    Stack       0

Auto Spaces:
    Space          Size  Autos    Used
    COMMON           14     14      14
    BANK0            80     73      78
    BANK1            80     66      69
    BANK2            80      0      32
    BANK3            80      0       0
    BANK4            80      0       0
    BANK5            80      0       0
    BANK6            80      0       0
    BANK7            80      0       0
    BANK8            80      0       0
    BANK9            80      0       0
    BANK10           80      0       0
    BANK11           80      0       0
    BANK12           80      0       0
    BANK13           80      0       0
    BANK14           80      0       0
    BANK15           80      0       0
    BANK16           80      0       0
    BANK17           80      0       0
    BANK18           80      0       0
    BANK19           80      0       0
    BANK20           80      0       0
    BANK21           80      0       0
    BANK22           80      0       0
    BANK23           80      0       0
    BANK24           80      0       0
    BANK25           32      0       0

Pointer List with Targets:

    EUSART_Write_Text@text	PTR unsigned char  size(2) Largest target is 55
		 -> EUSART_Write_Float@buffer(BANK1[32]), EUSART_Write_Unsigned_Integer@buffer(BANK0[20]), STR_10(CODE[19]), STR_11(CODE[2]), 
		 -> STR_12(CODE[26]), STR_2(CODE[29]), STR_3(CODE[36]), STR_4(CODE[2]), 
		 -> STR_5(CODE[55]), STR_6(CODE[17]), STR_7(CODE[19]), STR_8(CODE[2]), 
		 -> STR_9(CODE[17]), 

    f$.$buffer	PTR unsigned char  size(2) Largest target is 0

    f$.$source	PTR const unsigned char  size(2) Largest target is 0

    fputc@fp	PTR struct _IO_FILE size(1) Largest target is 11
		 -> sprintf@f(BANK0[11]), 

    fputc@fp$.$buffer	PTR unsigned char  size(2) Largest target is 0

    fputc@fp$.$source	PTR const unsigned char  size(2) Largest target is 0

    ftoa@buffer	PTR unsigned char  size(1) Largest target is 32
		 -> EUSART_Write_Float@buffer(BANK1[32]), 

    ftoa@ptr	PTR unsigned char  size(1) Largest target is 32
		 -> EUSART_Write_Float@buffer(BANK1[32]), EUSART_Write_Integer@buffer(BANK0[20]), 

    itoa@buf	PTR PTR unsigned char  size(1) Largest target is 1
		 -> EUSART_Write_Integer@ptr(COMMON[1]), ftoa@ptr(BANK0[1]), 

    S849$buffer	PTR unsigned char  size(2) Largest target is 0

    S849$source	PTR const unsigned char  size(2) Largest target is 0

    sprintf@ap	PTR void [1] size(1) Largest target is 2
		 -> ?_sprintf(BANK0[2]), 

    sprintf@fmt	PTR const unsigned char  size(2) Largest target is 4
		 -> STR_1(CODE[4]), 

    sprintf@s	PTR unsigned char  size(1) Largest target is 20
		 -> EUSART_Write_Unsigned_Integer@buffer(BANK0[20]), 

    vfpfcnvrt@ap	PTR PTR void  size(1) Largest target is 1
		 -> sprintf@ap(BANK0[1]), 

    vfpfcnvrt@cp	PTR unsigned char  size(2) Largest target is 4
		 -> STR_1(CODE[4]), 

    vfpfcnvrt@fmt	PTR PTR unsigned char  size(1) Largest target is 2
		 -> vfprintf@cfmt(BANK0[2]), 

    vfpfcnvrt@fp	PTR struct _IO_FILE size(1) Largest target is 11
		 -> sprintf@f(BANK0[11]), 

    vfprintf@ap	PTR PTR void  size(1) Largest target is 1
		 -> sprintf@ap(BANK0[1]), 

    vfprintf@cfmt	PTR unsigned char  size(2) Largest target is 4
		 -> STR_1(CODE[4]), 

    vfprintf@fmt	PTR const unsigned char  size(2) Largest target is 4
		 -> STR_1(CODE[4]), 

    vfprintf@fp	PTR struct _IO_FILE size(1) Largest target is 11
		 -> sprintf@f(BANK0[11]), 


Critical Paths under _main in COMMON

    _main->___xxtofl
    _initMain->_EUSART_Initialize
    _EUSART_Initialize->___aldiv
    _calibrate->___xxtofl
    ___fldiv->___xxtofl
    _vfpfcnvrt->___lldiv
    _ftoa->___xxtofl
    _itoa->___awdiv
    ___flsub->___xxtofl
    ___flmul->___xxtofl
    _EUSART_Write_Text->_EUSART_Write

Critical Paths under _isr in COMMON

    None.

Critical Paths under _main in BANK0

    _main->_calibrate
    _initMain->_EUSART_Initialize
    _EUSART_Initialize->___aldiv
    _calibrate->_EUSART_Write_Unsigned_Integer
    ___fldiv->___flmul
    _EUSART_Write_Unsigned_Integer->_sprintf
    _sprintf->_vfprintf
    _vfprintf->_vfpfcnvrt
    _EUSART_Write_Float->_ftoa
    _ftoa->___fltol
    ___fltol->___flmul
    ___flsub->___fladd

Critical Paths under _isr in BANK0

    None.

Critical Paths under _main in BANK1

    _main->_EUSART_Write_Float

Critical Paths under _isr in BANK1

    None.

Critical Paths under _main in BANK2

    None.

Critical Paths under _isr in BANK2

    None.

Critical Paths under _main in BANK3

    None.

Critical Paths under _isr in BANK3

    None.

Critical Paths under _main in BANK4

    None.

Critical Paths under _isr in BANK4

    None.

Critical Paths under _main in BANK5

    None.

Critical Paths under _isr in BANK5

    None.

Critical Paths under _main in BANK6

    None.

Critical Paths under _isr in BANK6

    None.

Critical Paths under _main in BANK7

    None.

Critical Paths under _isr in BANK7

    None.

Critical Paths under _main in BANK8

    None.

Critical Paths under _isr in BANK8

    None.

Critical Paths under _main in BANK9

    None.

Critical Paths under _isr in BANK9

    None.

Critical Paths under _main in BANK10

    None.

Critical Paths under _isr in BANK10

    None.

Critical Paths under _main in BANK11

    None.

Critical Paths under _isr in BANK11

    None.

Critical Paths under _main in BANK12

    None.

Critical Paths under _isr in BANK12

    None.

Critical Paths under _main in BANK13

    None.

Critical Paths under _isr in BANK13

    None.

Critical Paths under _main in BANK14

    None.

Critical Paths under _isr in BANK14

    None.

Critical Paths under _main in BANK15

    None.

Critical Paths under _isr in BANK15

    None.

Critical Paths under _main in BANK16

    None.

Critical Paths under _isr in BANK16

    None.

Critical Paths under _main in BANK17

    None.

Critical Paths under _isr in BANK17

    None.

Critical Paths under _main in BANK18

    None.

Critical Paths under _isr in BANK18

    None.

Critical Paths under _main in BANK19

    None.

Critical Paths under _isr in BANK19

    None.

Critical Paths under _main in BANK20

    None.

Critical Paths under _isr in BANK20

    None.

Critical Paths under _main in BANK21

    None.

Critical Paths under _isr in BANK21

    None.

Critical Paths under _main in BANK22

    None.

Critical Paths under _isr in BANK22

    None.

Critical Paths under _main in BANK23

    None.

Critical Paths under _isr in BANK23

    None.

Critical Paths under _main in BANK24

    None.

Critical Paths under _isr in BANK24

    None.

Critical Paths under _main in BANK25

    None.

Critical Paths under _isr in BANK25

    None.

Call Graph Tables:

 ---------------------------------------------------------------------------------
 (Depth) Function   	        Calls       Base Space   Used Autos Params    Refs
 ---------------------------------------------------------------------------------
 (0) _main                                                38    38      0   43457
                                             69 BANK0      4     4      0
                                             32 BANK1     34    34      0
                 _EUSART_Write_Float
                  _EUSART_Write_Text
      _EUSART_Write_Unsigned_Integer
            _ReadTimer0WithOverflows
                            ___fldiv
                             ___flge
                            ___flmul
                            ___flsub
                            ___fltol
                           ___xxtofl
                          _calibrate
                           _initMain
 ---------------------------------------------------------------------------------
 (1) _initMain                                             1     1      0     595
                                             11 COMMON     1     1      0
                  _EUSART_Initialize
                        _internal_32
 ---------------------------------------------------------------------------------
 (2) _internal_32                                          0     0      0       0
 ---------------------------------------------------------------------------------
 (2) _EUSART_Initialize                                   18    14      4     595
                                              9 COMMON     2     2      0
                                              6 BANK0     16    12      4
                            ___aldiv
 ---------------------------------------------------------------------------------
 (3) ___aldiv                                             15     7      8     452
                                              0 COMMON     9     1      8
                                              0 BANK0      6     6      0
 ---------------------------------------------------------------------------------
 (1) _calibrate                                           30    30      0   13483
                                             65 BANK0      4     4      0
                                              0 BANK1     26    26      0
                  _EUSART_Write_Text
      _EUSART_Write_Unsigned_Integer
            _ReadTimer0WithOverflows
                            ___fldiv
                             ___flge
                            ___flmul
                            ___fltol
                           ___xxtofl
 ---------------------------------------------------------------------------------
 (2) ___fldiv                                             26    18      8    1881
                                             26 BANK0     26    18      8
                            ___flmul (ARG)
                           ___xxtofl (ARG)
 ---------------------------------------------------------------------------------
 (2) _ReadTimer0WithOverflows                              8     6      2       0
                                              0 COMMON     8     6      2
 ---------------------------------------------------------------------------------
 (2) _EUSART_Write_Unsigned_Integer                       24    20      4    4147
                                             41 BANK0     24    20      4
                  _EUSART_Write_Text
                            ___fltol (ARG)
                            _sprintf
 ---------------------------------------------------------------------------------
 (3) _sprintf                                             22    16      6    2747
                                             21 BANK0     20    14      6
                           _vfprintf
 ---------------------------------------------------------------------------------
 (4) _vfprintf                                             7     4      3    2437
                                             14 BANK0      7     4      3
                          _vfpfcnvrt
 ---------------------------------------------------------------------------------
 (5) _vfpfcnvrt                                           15    13      2    2130
                                              0 BANK0     14    12      2
                            ___lldiv
                            ___llmod
                              _fputc
 ---------------------------------------------------------------------------------
 (6) _fputc                                                8     5      3     782
                                              0 COMMON     8     5      3
                              _putch
 ---------------------------------------------------------------------------------
 (7) _putch                                                1     1      0       0
 ---------------------------------------------------------------------------------
 (6) ___llmod                                             10     2      8     311
                                              0 COMMON    10     2      8
 ---------------------------------------------------------------------------------
 (6) ___lldiv                                             14     6      8     314
                                              0 COMMON    14     6      8
 ---------------------------------------------------------------------------------
 (1) _EUSART_Write_Float                                  38    32      6   13102
                                             51 BANK0      6     0      6
                                              0 BANK1     32    32      0
                  _EUSART_Write_Text
                               _ftoa
 ---------------------------------------------------------------------------------
 (2) _ftoa                                                15     9      6   11594
                                             36 BANK0     15     9      6
                             ___flge
                            ___flmul
                            ___flneg
                            ___flsub
                            ___fltol
                           ___xxtofl
                               _itoa
 ---------------------------------------------------------------------------------
 (3) _itoa                                                 9     7      2    2178
                                              9 COMMON     2     0      2
                                              0 BANK0      7     7      0
                            ___awdiv
                            ___awmod
                             ___wmul
 ---------------------------------------------------------------------------------
 (4) ___wmul                                               6     2      4     244
                                              0 COMMON     6     2      4
 ---------------------------------------------------------------------------------
 (4) ___awmod                                              7     3      4     448
                                              0 COMMON     7     3      4
 ---------------------------------------------------------------------------------
 (4) ___awdiv                                              9     5      4     908
                                              0 COMMON     9     5      4
 ---------------------------------------------------------------------------------
 (2) ___xxtofl                                            14    10      4     702
                                              0 COMMON    14    10      4
 ---------------------------------------------------------------------------------
 (2) ___fltol                                             10     6      4     609
                                             26 BANK0     10     6      4
                            ___flmul (ARG)
 ---------------------------------------------------------------------------------
 (1) ___flsub                                              8     0      8    2637
                                              8 BANK0      8     0      8
                            ___fladd
                           ___xxtofl (ARG)
 ---------------------------------------------------------------------------------
 (2) ___fladd                                             20    12      8    2136
                                              0 COMMON    12     4      8
                                              0 BANK0      8     8      0
 ---------------------------------------------------------------------------------
 (3) ___flneg                                              4     0      4     121
                                              0 COMMON     4     0      4
 ---------------------------------------------------------------------------------
 (2) ___flmul                                             26    18      8    3937
                                              0 BANK0     26    18      8
                          __Umul8_16
                           ___xxtofl (ARG)
 ---------------------------------------------------------------------------------
 (3) __Umul8_16                                            9     7      2     799
                                              0 COMMON     9     7      2
 ---------------------------------------------------------------------------------
 (2) ___flge                                              12     4      8     790
                                              0 COMMON    12     4      8
 ---------------------------------------------------------------------------------
 (3) _EUSART_Write_Text                                    5     3      2    1100
                                              1 COMMON     5     3      2
                       _EUSART_Write
 ---------------------------------------------------------------------------------
 (4) _EUSART_Write                                         1     1      0      22
                                              0 COMMON     1     1      0
 ---------------------------------------------------------------------------------
 Estimated maximum stack depth 7
 ---------------------------------------------------------------------------------
 (Depth) Function   	        Calls       Base Space   Used Autos Params    Refs
 ---------------------------------------------------------------------------------
 (8) _isr                                                  0     0      0       0
 ---------------------------------------------------------------------------------
 Estimated maximum stack depth 8
 ---------------------------------------------------------------------------------

 Call Graph Graphs:

 _main (ROOT)
   _EUSART_Write_Float
     _EUSART_Write_Text
       _EUSART_Write
     _ftoa
       ___flge
       ___flmul
         __Umul8_16
         ___xxtofl (ARG)
       ___flneg
       ___flsub
         ___fladd
         ___xxtofl (ARG)
       ___fltol
         ___flmul (ARG)
       ___xxtofl
       _itoa
         ___awdiv
         ___awmod
         ___wmul
   _EUSART_Write_Text
   _EUSART_Write_Unsigned_Integer
     _EUSART_Write_Text
     ___fltol (ARG)
     _sprintf (ARG)
       _vfprintf
         _vfpfcnvrt
           ___lldiv
           ___llmod
           _fputc
             _putch
   _ReadTimer0WithOverflows
   ___fldiv
     ___flmul (ARG)
     ___xxtofl (ARG)
   ___flge
   ___flmul
   ___flsub
   ___fltol
   ___xxtofl
   _calibrate
     _EUSART_Write_Text
     _EUSART_Write_Unsigned_Integer
     _ReadTimer0WithOverflows
     ___fldiv
     ___flge
     ___flmul
     ___fltol
     ___xxtofl
   _initMain
     _EUSART_Initialize
       ___aldiv
     _internal_32

 _isr (ROOT)

 Address spaces:
Name               Size   Autos  Total    Cost      Usage
BIGRAM             7F0      0       0       0        0.0%
NULL                 0      0       0       0        0.0%
CODE                 0      0       0       0        0.0%
BITCOMMON            E      0       0       1        0.0%
BITSFR0              0      0       0       1        0.0%
SFR0                 0      0       0       1        0.0%
COMMON               E      E       E       2      100.0%
BITSFR1              0      0       0       2        0.0%
SFR1                 0      0       0       2        0.0%
BITSFR2              0      0       0       3        0.0%
SFR2                 0      0       0       3        0.0%
STACK                0      0       0       3        0.0%
BITBANK0            50      0       0       4        0.0%
BITSFR3              0      0       0       4        0.0%
SFR3                 0      0       0       4        0.0%
BANK0               50     49      4E       5       97.5%
BITSFR4              0      0       0       5        0.0%
SFR4                 0      0       0       5        0.0%
BITBANK1            50      0       0       6        0.0%
BITSFR5              0      0       0       6        0.0%
SFR5                 0      0       0       6        0.0%
BANK1               50     42      45       7       86.2%
BITSFR6              0      0       0       7        0.0%
SFR6                 0      0       0       7        0.0%
BITBANK2            50      0       0       8        0.0%
BITSFR7              0      0       0       8        0.0%
SFR7                 0      0       0       8        0.0%
BANK2               50      0      20       9       40.0%
BITSFR8              0      0       0       9        0.0%
SFR8                 0      0       0       9        0.0%
BITBANK3            50      0       0      10        0.0%
BITSFR9              0      0       0      10        0.0%
SFR9                 0      0       0      10        0.0%
BANK3               50      0       0      11        0.0%
BITSFR10             0      0       0      11        0.0%
SFR10                0      0       0      11        0.0%
BITBANK4            50      0       0      12        0.0%
BITSFR11             0      0       0      12        0.0%
SFR11                0      0       0      12        0.0%
BANK4               50      0       0      13        0.0%
BITSFR12             0      0       0      13        0.0%
SFR12                0      0       0      13        0.0%
BITSFR13             0      0       0      14        0.0%
SFR13                0      0       0      14        0.0%
ABS                  0      0      C1      14        0.0%
BITBANK5            50      0       0      15        0.0%
BITSFR14             0      0       0      15        0.0%
SFR14                0      0       0      15        0.0%
BANK5               50      0       0      16        0.0%
BITSFR15             0      0       0      16        0.0%
SFR15                0      0       0      16        0.0%
BITBANK6            50      0       0      17        0.0%
BITSFR16             0      0       0      17        0.0%
SFR16                0      0       0      17        0.0%
BANK6               50      0       0      18        0.0%
BITSFR17             0      0       0      18        0.0%
SFR17                0      0       0      18        0.0%
BITBANK7            50      0       0      19        0.0%
BITSFR18             0      0       0      19        0.0%
SFR18                0      0       0      19        0.0%
BANK7               50      0       0      20        0.0%
BITSFR19             0      0       0      20        0.0%
SFR19                0      0       0      20        0.0%
BITBANK8            50      0       0      21        0.0%
BITSFR20             0      0       0      21        0.0%
SFR20                0      0       0      21        0.0%
BANK8               50      0       0      22        0.0%
BITSFR21             0      0       0      22        0.0%
SFR21                0      0       0      22        0.0%
BITBANK9            50      0       0      23        0.0%
BITSFR22             0      0       0      23        0.0%
SFR22                0      0       0      23        0.0%
BANK9               50      0       0      24        0.0%
BITSFR23             0      0       0      24        0.0%
SFR23                0      0       0      24        0.0%
BITBANK10           50      0       0      25        0.0%
BITSFR24             0      0       0      25        0.0%
SFR24                0      0       0      25        0.0%
BANK10              50      0       0      26        0.0%
BITSFR25             0      0       0      26        0.0%
SFR25                0      0       0      26        0.0%
BITBANK11           50      0       0      27        0.0%
BITSFR26             0      0       0      27        0.0%
SFR26                0      0       0      27        0.0%
BITSFR27             0      0       0      28        0.0%
SFR27                0      0       0      28        0.0%
DATA                 0      0      C1      28        0.0%
BANK11              50      0       0      29        0.0%
BITSFR28             0      0       0      29        0.0%
SFR28                0      0       0      29        0.0%
BITBANK12           50      0       0      30        0.0%
BITSFR29             0      0       0      30        0.0%
SFR29                0      0       0      30        0.0%
BANK12              50      0       0      31        0.0%
BITSFR30             0      0       0      31        0.0%
SFR30                0      0       0      31        0.0%
BITBANK13           50      0       0      32        0.0%
BITSFR31             0      0       0      32        0.0%
SFR31                0      0       0      32        0.0%
BANK13              50      0       0      33        0.0%
BITBANK14           50      0       0      34        0.0%
BANK14              50      0       0      35        0.0%
BITBANK15           50      0       0      36        0.0%
BANK15              50      0       0      37        0.0%
BITBANK16           50      0       0      38        0.0%
BANK16              50      0       0      39        0.0%
BITBANK17           50      0       0      40        0.0%
BANK17              50      0       0      41        0.0%
BITBANK18           50      0       0      42        0.0%
BANK18              50      0       0      43        0.0%
BITBANK19           50      0       0      44        0.0%
BANK19              50      0       0      45        0.0%
BITBANK20           50      0       0      46        0.0%
BANK20              50      0       0      47        0.0%
BITBANK21           50      0       0      48        0.0%
BANK21              50      0       0      49        0.0%
BITBANK22           50      0       0      50        0.0%
BANK22              50      0       0      51        0.0%
BITBANK23           50      0       0      52        0.0%
BANK23              50      0       0      53        0.0%
BITBANK24           50      0       0      54        0.0%
BANK24              50      0       0      55        0.0%
BITBANK25           20      0       0      56        0.0%
BANK25              20      0       0      57        0.0%


Microchip Technology PIC Macro Assembler V2.46 build 20240104201356 
Symbol Table                                                                                   Sat Dec 14 21:13:08 2024

                              ___fldiv@aexp 0053                                ___fldiv@bexp 0052  
                              ___fldiv@sign 004B                                          l43 1512  
                                        l27 16F9                                          l52 1590  
                                        l46 151A                                          l62 0A7E  
                                        l71 1557                                          l56 0A24  
                                        l81 153E                                          l78 0B80  
                              ___awdiv@sign 0076                         ___wmul@multiplicand 0072  
                       __Umul8_16@word_mpld 0076                                         l136 17A0  
                                       l146 07FC                                         l315 085A  
                                       l155 0FFF                                         l163 0089  
                                       l432 17FF                                         l344 0969  
                                       l601 0699                                         l281 15CC  
                                       l193 1510                                         l354 09E5  
                                       l611 06DD                                         l460 093C  
                                       l605 06BB                                         l445 174C  
                                       l509 1659                                         l622 0738  
                                       l614 0715                                         l623 073F  
                                       l279 15B8                                         l480 08B6  
                                       l720 0762                                         l465 0955  
                                       l457 08E8                                         l473 08CB  
                                       l626 15EC                                         l722 07E9  
                                       l483 08CB                                         l580 0589  
                                       l660 0E41                                         l652 0DCE  
                                       l636 0CF0                                         l469 1525  
                                       l733 07B5                                         l734 07C1  
                                       l726 079B                                         l742 15AD  
                                       l638 0E48                                         l807 16A9  
                                       l584 0607                                         l593 073F  
                                       l657 0E1A                                         l682 04B3  
                                       l586 05E5                                         l818 07FE  
                                       l658 0E34                                         l676 0533  
                                       l695 15FF                                         l688 0527  
                                       l697 160F                                         l795 1573  
                                       l788 0C9E                    ?_ReadTimer0WithOverflows 0070  
                                       _isr 0004                                ___awmod@sign 0076  
                                       wreg 0009                                ___flmul@aexp 0032  
                              ___flmul@bexp 0033                                ___flmul@sign 002D  
                              ___flmul@temp 0038                                ___flmul@prod 0034  
                              ___fltol@exp1 0043                                        l2020 0823  
                                      l2012 0801                                        l2030 084C  
                                      l2022 082A                                        l2014 0811  
                                      l2110 0C2B                                        l2102 0BF6  
                                      l2200 16FB                                        l2024 083C  
                                      l2016 0814                                        l2032 0852  
                                      l2040 161B                                        l2120 0C6C  
                                      l2112 0C48                                        l2104 0BFE  
                                      l3000 175B                                        l2210 170F  
                                      l2202 16FF                                        l2026 0844  
                                      l2018 081F                                        l2050 164B  
                                      l2042 1626                                        l2114 0C50  
                                      l2106 0C0C                                        l2130 0C86  
                                      l3010 176C                                        l3002 175D  
                                      l2300 05A8                                        l2220 1725  
                                      l2212 1715                                        l2204 1704  
                                      l2140 15AE                                        l2028 0845  
                                      l2044 162A                                        l2052 1651  
                                      l2036 1610                                        l2060 1664  
                                      l2116 0C56                                        l2108 0C0E  
                                      l2124 0C73                                        l3020 1775  
                                      l3012 176E                                        l3004 175E  
                                      l2310 05B2                                        l2302 05AA  
                                      l2230 1743                                        l2222 172F  
                                      l2214 1718                                        l2206 1706  
                                      l2150 15C8                                        l2142 15B0  
                                      l2046 163C                                        l2038 1618  
                                      l2062 1669                                        l2118 0C67  
                                      l2126 0C7C                                        l3030 177F  
                                      l3022 1777                                        l3014 1770  
                                      l3006 1763                                        l2136 1512  
                                      l2320 05E9                                        l2312 05B4  
                                      l2304 05AC                                        l2240 0539  
                                      l2160 17AB                                        l2232 1748  
                                      l2224 1733                                        l2216 171D  
                                      l2208 170A                                        l2144 15B4  
                                      l2048 1644                                        l2064 1673  
                                      l2056 165A                                        l2080 0BA7  
                                      l2072 0B83                                        l3040 178A  
                                      l3032 1781                                        l3024 1779  
                                      l3016 1771                                        l3008 1768  
                                      l3120 0036                                        l2138 1517  
                                      l2410 0711                                        l2402 06E2  
                                      l2330 05FD                                        l2322 05ED  
                                      l2306 05AE                                        l2314 05B6  
                                      l2250 0550                                        l2242 053D  
                                      l2170 17BC                                        l2162 17AD  
                                      l2154 17A1                                        l2226 1738  
                                      l2218 1721                                        l2146 15BD  
                                      l2066 1691                                        l2058 165F  
                                      l2082 0BAE                                        l2074 0B94  
                                      l3050 1792                                        l3042 178B  
                                      l3034 1783                                        l3026 177B  
                                      l3018 1773                                        l3130 0075  
                                      l3122 0039                                        l2420 072D  
                                      l2412 071A                                        l2404 06E7  
                                      l2340 0619                                        l2324 05EF  
                                      l2332 0601                                        l2316 05B7  
                                      l2308 05B0                                        l2260 0564  
                                      l2252 0551                                        l2244 053E  
                                      l2236 0534                                        l2180 17D2  
                                      l2172 17C2                                        l2164 17B1  
                                      l2156 17A2                                        l2228 173E  
                                      l2148 15C2                                        l2068 16A0  
                                      l2084 0BB5                                        l2092 0BBF  
                                      l2076 0B9C                                        l3060 0E5D  
                                      l2500 0978                                        l3052 1793  
                                      l3044 178C                                        l3036 1784  
                                      l3028 177D                                        l3140 00A2  
                                      l3132 0081                                        l3124 0042  
                                      l2430 15EE                                        l2422 0731  
                                      l2414 071F                                        l2406 06EF  
                                      l2350 062F                                        l2342 0621  
                                      l2334 060B                                        l2326 05F3  
                                      l2318 05CF                                        l2270 0571  
                                      l2262 0565                                        l2246 0543  
                                      l2254 0553                                        l2238 0537  
                                      l2182 17E1                                        l2174 17C5  
                                      l2190 17F1                                        l2166 17B6  
                                      l2158 17A6                                        l2086 0BBA  
                                      l2094 0BC7                                        l2078 0BA3  
                                      l3070 0E9D                                        l3062 0E65  
                                      l2510 099A                                        l2502 097C  
                                      l3054 1794                                        l3046 178E  
                                      l3038 1788                                        l3150 011A  
                                      l3142 00B4                                        l3134 0086  
                                      l3126 006E                                        l2440 160B  
                                      l2432 15F0                                        l2424 0733  
                                      l2416 0727                                        l2408 06F3  
                                      l2360 0659                                        l2352 0633  
                                      l2344 0625                                        l2336 0610  
                                      l2328 05F4                                        l2280 058F  
                                      l2272 0576                                        l2264 0567  
                                      l2256 055B                                        l2248 0548  
                                      l2192 17F6                                        l2184 17E5  
                                      l2176 17CA                                        l2168 17BA  
                                      l2096 0BD2                                        l2088 0BBD  
                                      l3080 0F09                                        l3072 0EA3  
                                      l3064 0E71                                        l3056 0E49  
                                      l2520 09C0                                        l2512 099E  
                                      l2504 0984                                        l3048 1790  
                                      l3160 027D                                        l3152 0131  
                                      l3144 00CE                                        l3136 008E  
                                      l3128 0070                                        l2434 15F7  
                                      l2610 0304                                        l2602 02F9  
                                      l2426 073A                                        l2418 072C  
                                      l2370 06A1                                        l2362 067D  
                                      l2354 0634                                        l2346 0629  
                                      l2290 059E                                        l2282 0593  
                                      l2274 057E                                        l2266 056B  
                                      l2258 055E                                        l2194 17FB  
                                      l2186 17E6                                        l2178 17CE  
                                      l2098 0BE5                                        l2450 1571  
                                      l3090 0FDE                                        l3082 0F35  
                                      l3074 0EA5                                        l3066 0E79  
                                      l3058 0E50                                        l2522 09C7  
                                      l2514 09A5                                        l2506 098C  
                                      l3170 02C9                                        l3162 0284  
                                      l3154 022B                                        l3146 00D4  
                                      l3138 0096                                        l2460 1585  
                                      l2540 0908                                        l2532 08CC  
                                      l2436 15FB                                        l2700 0497  
                                      l2620 0320                                        l2612 0309  
                                      l2604 02FD                                        l2428 073E  
                                      l2380 06BA                                        l2372 06A6  
                                      l2364 0683                                        l2356 063D  
                                      l2348 062D                                        l2292 05A0  
                                      l2284 0598                                        l2276 057F  
                                      l2268 056C                                        l2188 17EB  
                                      l2444 155A                                        l3092 0FF0  
                                      l3084 0F67                                        l3076 0EE9  
                                      l3068 0E83                                        l2516 09B7  
                                      l2508 098F                                        l2524 09CD  
                                      l3172 02E7                                        l3164 029B  
                                      l3156 0257                                        l3148 00D6  
                                      l2454 1574                                        l2542 0920  
                                      l2534 08E0                                        l2438 1606  
                                      l2710 04B8                                        l2702 0498  
                                      l2630 0331                                        l2622 0325  
                                      l2614 030E                                        l2606 02FF  
                                      l2382 06BF                                        l2390 06CB  
                                      l2366 0688                                        l2358 0642  
                                      l2294 05A2                                        l2286 059A  
                                      l2278 0581                                        l2198 16FA  
                                      l2470 0A03                                        l2462 09E8  
                                      l2446 155F                                        l3086 0FAD  
                                      l3078 0F00                                        l3094 0FF8  
                                      l2526 09D2                                        l2518 09BF  
                                      l3158 025E                                        l3166 02A3  
                                      l3174 02EF                                        l2456 1577  
                                      l2544 0924                                        l2536 08FC  
                                      l2712 04BD                                        l2720 04E5  
                                      l2704 049C                                        l2640 034D  
                                      l2632 0336                                        l2624 0327  
                                      l2616 0316                                        l2608 0303  
                                      l2552 151B                                        l2384 06C2  
                                      l2376 06AF                                        l2368 0691  
                                      l2392 06CF                                        l2296 05A4  
                                      l2288 059C                                        l2560 085B  
                                      l2472 0A36                                        l2464 09F0  
                                      l2448 1567                                        l2480 1593  
                                      l3088 0FD7                                        l2528 09DD  
                                      l2800 16F8                                        l3168 02AA  
                                      l2458 1581                                        l2546 0952  
                                      l2538 0904                                        l2730 0515  
                                      l2722 04F2                                        l2714 04C5  
                                      l2706 04B0                                        l2650 0373  
                                      l2642 0352                                        l2634 033E  
                                      l2626 032B                                        l2618 0318  
                                      l2554 1523                                        l2394 06D0  
                                      l2386 06C4                                        l2378 06B6  
                                      l2298 05A6                                        l2570 0880  
                                      l2562 0865                                        l2474 0A66  
                                      l2466 09F9                                        l2810 0A98  
                                      l2482 1597                                        l2548 0954  
                                      l2732 0520                                        l2724 04FC  
                                      l2716 04C9                                        l2660 03CA  
                                      l2652 038B                                        l2636 0340  
                                      l2628 032C                                        l2556 1525  
                                      l2396 06D4                                        l2388 06C9  
                                      l2572 0888                                        l2476 0A70  
                                      l2468 09FE                                        l2820 0AF1  
                                      l2812 0A9E                                        l2484 1599  
                                      l2804 153F                                        l2900 0D16  
                                      l2492 0956                                        l2734 0524  
                                      l2726 050A                                        l2718 04E1  
                                      l2670 03F5                                        l2662 03D1  
                                      l2654 0398                                        l2646 035B  
                                      l2638 0348                                        l2398 06DA  
                                      l2590 08AD                                        l2582 0896  
                                      l2574 088A                                        l2566 086E  
                                      l2750 076A                                        l2742 0741  
                                      l2478 0A77                                        l2830 0B08  
                                      l2822 0AF3                                        l2814 0AA2  
                                      l2486 159B                                        l2806 1550  
                                      l2910 0D3F                                        l2494 0958  
                                      l2736 0525                                        l2728 0513  
                                      l2680 043D                                        l2672 0407  
                                      l2664 03DC                                        l2656 03B0  
                                      l2648 0366                                        l2592 08BB  
                                      l2576 088E                                        l2584 08A6  
                                      l2568 087F                                        l2760 0788  
                                      l2744 0746                                        l2832 0B35  
                                      l2840 0B6D                                        l2824 0AFB  
                                      l2816 0AB6                                        l2808 0A81  
                                      l2488 15A5                                        l2920 0D60  
                                      l2912 0D47                                        l2904 0D1F  
                                      l2496 095C                                        l2738 052B  
                                      l2690 0483                                        l2682 0452  
                                      l2674 040E                                        l2666 03E3  
                                      l2658 03BD                                        l2594 08C0  
                                      l2770 07AF                                        l2762 078C  
                                      l2754 0773                                        l2746 074A  
                                      l2842 0B7B                                        l2834 0B3B  
                                      l2826 0B01                                        l2818 0AC7  
                                      l2930 0D83                                        l2922 0D61  
                                      l2914 0D49                                        l2906 0D2F  
                                      l2850 0C9F                                        l2498 096D  
                                      l2692 0487                                        l2684 0469  
                                      l2676 0420                                        l2668 03EE  
                                      l2596 15CD                                        l2780 07E0  
                                      l2772 07B9                                        l2764 0794  
                                      l2756 0776                                        l2748 075A  
                                      l2836 0B3F                                        l2828 0B05  
                                      l2940 0D9E                                        l2916 0D4E  
                                      l2924 0D68                                        l2932 0D87  
                                      l2908 0D37                                        l2860 0CAF  
                                      l2852 0CA3                                        l2844 1508  
                                      l2694 0488                                        l2686 0470  
                                      l2678 042B                                        l2598 15D0  
                                      l2782 07E1                                        l2774 07C3  
                                      l2766 07A2                                        l2758 0781  
                                      l2838 0B69                                        l2846 07EA  
                                      l2950 0DB2                                        l2942 0DA2  
                                      l2934 0D8D                                        l2926 0D7A  
                                      l2918 0D5C                                        l2870 0CC7  
                                      l2862 0CB4                                        l2854 0CA5  
                                      l2790 16F3                                        l2696 048F  
                                      l2688 047C                                        l2776 07D7  
                                      l2768 07AB                                        l2960 0DD3  
                                      l2952 0DB3                                        l2944 0DA3  
                                      l2936 0D95                                        l2928 0D7B  
                                      l2880 0CD8                                        l2872 0CCC  
                                      l2864 0CBC                                        l2856 0CA9  
                                      l2792 16F4                                        l2698 0493  
                                      l2778 07DC                                        l2962 0DD8  
                                      l2970 0E00                                        l2954 0DB7  
                                      l2946 0DAA                                        l2938 0D97  
                                      l2890 0CF8                                        l2882 0CDD  
                                      l2874 0CCE                                        l2866 0CBD  
                                      l2858 0CAA                                        l2794 16F5  
                                      l2786 16AA                                        l2980 0E37  
                                      l2972 0E0D                                        l2964 0DE0  
                                      l2956 0DCB                                        l2948 0DAE  
                                      l2892 0D04                                        l2884 0CE5  
                                      l2876 0CD2                                        l2868 0CBF  
                                      l2796 16F6                                        l2788 16F0  
                                      l2990 1526                                        l2982 0E3B  
                                      l2974 0E28                                        l2966 0DE4  
                                      l2894 0D08                                        l2886 0CE6  
                                      l2878 0CD3                                        l2798 16F7  
                                      l2992 1537                                        l2984 0E3D  
                                      l2976 0E2B                                        l2968 0DFC  
                                      l2888 0CE8                                        l2978 0E33  
                                      l2898 0D11                                        l2994 174D  
                                      l2996 1750                                        l2998 1758  
                                      ?_isr 0070                                        STR_1 18C9  
                                      STR_2 185B                                        STR_3 1837  
                                      STR_4 1876                                        STR_5 1800  
                                      STR_6 18B8                                        STR_7 1892  
                                      STR_8 1876                                        STR_9 18B8  
                                      _BRGH 0CF2                                        _CREN 0CEC  
                                      u2110 0811                                        u2111 0810  
                                      u3000 15FB                                        u2200 162A  
                                      u3001 15FA                                        u2201 1629  
                                      u2130 0823                                        u2210 163C  
                                      u2131 0822                                        u2211 163B  
                                      u3020 160B                                        u2300 0C50  
                                      u3100 098C                                        u3021 160A  
                                      u2125 0815                                        u2301 0C4F  
                                      u3101 098B                                        u2150 083C  
                                      u2230 1651                                        u2310 0C55  
                                      u3030 1571                                        u3015 1600  
                                      u2151 083B                                        u2231 1650  
                                      u2215 1638                                        u2311 0C54  
                                      u3031 1570                                        u3040 1590  
                                      u3200 0908                                        u2400 17C2  
                                      u2240 165F                                        u2320 0C72  
                                      u4000 0DD2                                        u3120 099E  
                                      u3041 158F                                        u3201 0907  
                                      u2401 17C1                                        u2145 0824  
                                      u2225 1645                                        u2241 165E  
                                      u2321 0C71                                        u4001 0DD1  
                                      u3121 099D                                        u2330 1517  
                                      u3210 0924                                        u3050 09F0  
                                      u2170 0852                                        u2250 1664  
                                      u4010 0DD8                                        u2331 1516  
                                      u3211 0923                                        u3051 09EF  
                                      u2171 0851                                        u2155 0838  
                                      u2251 1663                                        u4011 0DD7  
                                      u3115 0990                                        u3220 0952  
                                      u3300 08AC                                        u2420 17D2  
                                      u2500 1715                                        u2340 15B4  
                                      u3060 0A35                                        u2180 1618  
                                      u2260 1673                                        u4020 0DE4  
                                      u3140 09B7                                        u3221 0951  
                                      u3301 08AB                                        u2421 17D1  
                                      u2501 1714                                        u2341 15B3  
                                      u3061 0A34                                        u2165 0846  
                                      u2181 1617                                        u2261 1672  
                                      u4021 0DE3                                        u3141 09B6  
                                      u3230 1523                                        u3070 0A77  
                                      u2270 1691                                        u4030 0DF2  
                                      u3231 1522                                        u2415 17C6  
                                      u3071 0A76                                        u2271 1690  
                                      u3135 099F                                        u3400 034D  
                                      u2600 0564                                        u3320 08BB  
                                      u3240 0865                                        u2440 17E1  
                                      u2520 1725                                        u2280 0B94  
                                      u4040 0E0D                                        u3160 09CD  
                                      u3080 095C                                        u4120 0075  
                                      u3225 094E                                        u3401 034C  
                                      u2601 0563                                        u3321 08BA  
                                      u3241 0864                                        u2441 17E0  
                                      u2521 1724                                        u2281 0B93  
                                      u4041 0E0C                                        u3161 09CC  
                                      u3145 09B3                                        u3081 095B  
                                      u4121 0074                                        u3410 0352  
                                      u2610 056B                                        u3330 08C0  
                                      u3250 087B                                        u2530 172F  
                                      u2370 15C8                                        u2290 0BD1  
                                      u4050 0E28                                        u3170 09D2  
                                      u3090 096D                                        u4130 0086  
                                      u3411 0351                                        u2611 056A  
                                      u3331 08BF                                        u3315 08AE  
                                      u2435 17D3                                        u2531 172E  
                                      u2515 1719                                        u2371 15C7  
                                      u2355 15B9                                        u2195 161C  
                                      u2275 168D                                        u2291 0BD0  
                                      u4051 0E27                                        u4035 0DEE  
                                      u3171 09D1                                        u3155 09C1  
                                      u3091 096C                                        u4131 0085  
                                      u3180 08E0                                        u3500 0497  
                                      u3340 0303                                        u2700 05F3  
                                      u2620 0571                                        u3260 088E  
                                      u2460 17F1                                        u2380 17A6  
                                      u4060 0E3B                                        u4140 008E  
                                      u3181 08DF                                        u3501 0496  
                                      u3341 0302                                        u2701 05F2  
                                      u2621 0570                                        u3261 088D  
                                      u2461 17F0                                        u2445 17DD  
                                      u2381 17A5                                        u2365 15BE  
                                      u4061 0E3A                                        u4045 0E09  
                                      u4141 008D                                        u3190 08FC  
                                      u3510 049C                                        u3350 0309  
                                      u2630 0576                                        u3270 0895  
                                      u2470 17F6                                        u2390 17B1  
                                      u2550 173E                                        u4070 0E83  
                                      u4150 00B4                                        u3191 08FB  
                                      u3511 049B                                        u3351 0308  
                                      u2631 0575                                        u3271 0894  
                                      u3255 0877                                        u2471 17F5  
                                      u2455 17E7                                        u2391 17B0  
                                      u2551 173D                                        u2535 172B  
                                      u4055 0E24                                        u4071 0E82  
                                      u4207 1753                                        u4151 00B3  
                                      u3520 04B0                                        u3440 0448  
                                      u3360 030E                                        u2800 0688  
                                      u2720 0607                                        u2640 058F  
                                      u3600 0746                                        u2560 1743  
                                      u2480 16FF                                        u4080 0F00  
                                      u4160 0131                                        u3521 04AF  
                                      u3425 03CB                                        u3361 030D  
                                      u2801 0687                                        u2721 0606  
                                      u2641 058E                                        u3601 0745  
                                      u2561 1742                                        u2545 1734  
                                      u2481 16FE                                        u4081 0EFF  
                                      u4217 0E56                                        u4161 0130  
                                      u3530 04B7                                        u3450 045F  
                                      u3370 032B                                        u2810 06A1  
                                      u2730 060B                                        u2650 0593  
                                      u2570 053D                                        u3290 08A5  
                                      u3610 074A                                        u2490 170A  
                                      u4170 022B                                        u3531 04B6  
                                      u3435 03F6                                        u3371 032A  
                                      u2811 06A0                                        u2731 060A  
                                      u2715 05F7                                        u2651 0592  
                                      u2571 053C                                        u3291 08A4  
                                      u3611 0749                                        u2491 1709  
                                      u4075 0E7F                                        u4227 0E6B  
                                      u4171 022A                                        u4155 00B0  
                                      u3540 04BD                                        u3380 0331  
                                      u2900 06E1                                        u2820 06A6  
                                      u2740 0610                                        u2660 05CF  
                                      u2580 0543                                        u3700 07B9  
                                      u3620 076A                                        u3541 04BC  
                                      u3445 0444                                        u3381 0330  
                                      u2901 06E0                                        u2821 06A5  
                                      u2741 060F                                        u2661 05CE  
                                      u2581 0542                                        u3285 0897  
                                      u3701 07B8                                        u3621 0769  
                                      u3550 04C9                                        u3390 0336  
                                      u2910 06E7                                        u2750 0625  
                                      u2670 05D8                                        u2590 0548  
                                      u3710 07CD                                        u3551 04C8  
                                      u3455 045B                                        u3391 0335  
                                      u2911 06E6                                        u2751 0624  
                                      u2671 05D6                                        u2591 0547  
                                      u3560 04D7                                        u3480 0487  
                                      u2920 06F3                                        u2840 06BA  
                                      u2760 0629                                        u2680 05D9  
                                      u3720 07DC                                        u3640 0787  
                                      u3800 0CB4                                        u3481 0486  
                                      u3465 046A                                        u2921 06F2  
                                      u2841 06B9                                        u2761 0628  
                                      u2665 05CB                                        u3721 07DB  
                                      u3641 0786                                        u3801 0CB3  
                                      u3570 04F2                                        u2930 0702  
                                      u2850 06BF                                        u2770 0633  
                                      u2690 05E9                                        u3730 07E0  
                                      u3810 0CD2                                        u3571 04F1  
                                      u3475 047D                                        u2851 06BE  
                                      u2835 06B0                                        u2771 0632  
                                      u2691 05E8                                        u3731 07DF  
                                      u3715 07C9                                        u3635 077B  
                                      u3811 0CD1                                        u4187 007B  
                                      u3580 050A                                        u2940 0711  
                                      u2860 06C9                                        u3660 07A1  
                                      u3820 0CD8                                        u3740 16B8  
                                      u3581 0509                                        u3565 04D3  
                                      u2941 0710                                        u2861 06C8  
                                      u3661 07A0                                        u3821 0CD7  
                                      u4197 009C                                        u3590 0524  
                                      u2950 071A                                        u2870 06CF  
                                      u2790 0659                                        u3910 0D7A  
                                      u3830 0CDD                                        u3750 16CF  
                                      u3591 0523                                        u3575 04EE  
                                      u3495 0489                                        u2951 0719  
                                      u2935 06FE                                        u2871 06CE  
                                      u2791 0658                                        u3655 0795  
                                      u3911 0D79                                        u3831 0CDC  
                                      u2960 071F                                        u2880 06D4  
                                      u3680 07AF                                        u3760 0A98  
                                      u3920 0D8D                                        u3840 0CF8  
                                      u3585 0506                                        u2961 071E  
                                      u2881 06D3                                        u2793 0655  
                                      u2785 0637                                        u3681 07AE  
                                      u3761 0A97                                        u3921 0D8C  
                                      u3905 0D62                                        u3841 0CF7  
                                      u3745 16B4                                        u2970 072C  
                                      u2890 06DA                                        u3690 07B5  
                                      u3770 0B7B                                        u3930 0D95  
                                      u3850 0D16                                        u2971 072B  
                                      u2891 06D9                                        u3691 07B4  
                                      u3675 07A5                                        u3771 0B7A  
                                      u3931 0D94                                        u3915 0D76  
                                      u3851 0D15                                        u3755 16CB  
                                      u2980 0731                                        u3860 0D4E  
                                      u3780 0CA9                                        u2981 0730  
                                      u3861 0D4D                                        u3781 0CA8  
                                      u2990 073E                                        u3950 0DA2  
                                      u3790 0CAF                                        u2991 073D  
                                      u3775 0B77                                        u3951 0DA1  
                                      u3791 0CAE                                        u3945 0D98  
                                      u3970 0DB2                                        u3890 0D60  
                                      _SCS0 04C8                                        u3971 0DB1  
                                      u3891 0D5F                                        u3875 0D4F  
                                      _SCS1 04C9                                        u3980 0DB7  
                                      u3981 0DB6                                        u3965 0DA4  
                                      u3885 0D56                                        u3990 0DCB  
                                      u3991 0DCA                                        _TMR0 0015  
                                      _TMR1 0016                                        _SPEN 0CEF  
                                      _TXEN 0CF5                                        _SYNC 0CF4  
                                      _dbuf 0120                                        _main 0036  
                                      _ftoa 0A7F                                        _itoa 09E6  
                                      _prec 006B                                        fsr0h 0005  
                                      fsr1h 0007                                        indf0 0000  
                                      fsr0l 0004                                        indf1 0001  
                                      fsr1l 0006                                        btemp 007E  
                                      start 001A                             ___fldiv@new_exp 004C  
                                     ??_isr 0070                               ?_EUSART_Write 0070  
                             ___fltol@sign1 0042                             __end_of___aldiv 09E6  
                           __end_of___fladd 0740                                       ?_main 0070  
                                     ?_ftoa 0044                             __end_of___fldiv 0E49  
                                     ?_itoa 0079                             __end_of___awdiv 1800  
                           __end_of___flneg 1526                                       STR_10 18A5  
                                     STR_11 1876                                       STR_12 1878  
                                     _BRG16 0CFB                             __end_of___awmod 174D  
                           __end_of___flmul 0534                             __end_of___flsub 15ED  
                           __end_of___fltol 08CC                             __end_of___lldiv 085B  
                           ___awdiv@divisor 0070                                       _T1CON 0018  
                           __end_of___llmod 165A                                       _IRCF0 04CB  
                                     _IRCF1 04CC                                       _IRCF2 04CD  
                                     _IRCF3 04CE                                       i1l143 0018  
                           ___awdiv@counter 0075                                vfpfcnvrt@fmt 0020  
                                     _flags 006D                                       _fputc 165A  
                                     _width 0069                                       _putch 07FE  
                                     ftoa@i 004B                                       itoa@d 0079  
                                     status 0003                                       wtemp0 007E  
                           __end_of_sprintf 15AE                                ?_internal_32 0070  
                         _calibration_value 00E4                             __initialization 001C  
                          ftoa@integer_part 004D                                __end_of_main 02F9  
                              __end_of_ftoa 0B81                                __end_of_itoa 0A7F  
                            ??_EUSART_Write 0070             __end_of_ReadTimer0WithOverflows 07FD  
                                    ??_main 0065                                      ??_ftoa 004A  
                                    ??_itoa 007B                    main@precomputed_constant 00CC  
                        _EUSART_Write_Float 1526                                      ?_fputc 0070  
                          ___llmod@dividend 0074                            ___awdiv@dividend 0072  
                                    ?_putch 0070                                      _RC1REG 0199  
                                    i1l3110 000A                                      i1l3112 000F  
                                    i1l3114 0010                                      i1l3116 0015  
                                    i1l3108 0006                                      i1l3118 0016  
                             main@count_end 00D8                                      u410_20 000A  
                                    u410_21 0009                                      u411_20 0015  
                                    u411_21 0014                                      _SPBRGL 019B  
                                    _TX1REG 019A                               main@frequency 00DE  
                                    _SPLLEN 04CF                            __end_of___xxtofl 07EA  
                       ?_EUSART_Write_Float 0053                                vfprintf@cfmt 0033  
                                    ___flge 08CC                                   ??___aldiv 0078  
                                 ??___fladd 0020                                      ___wmul 15AE  
                                 ??___fldiv 0042                                   ??___awdiv 0074  
                                 ??___flneg 0074                                   ??___awmod 0074  
                                 ??___flmul 0028                                   ??___flsub 007E  
                                 ??___fltol 003E                                   ??___lldiv 0078  
                                 ??___llmod 0078                            __end_of_initMain 17A1  
                          ___awdiv@quotient 0077                             ___awmod@divisor 0070  
                           ___awmod@counter 0075                        ??_EUSART_Write_Float 007E  
                                    fputc@c 0070                                      putch@c 0070  
                          __end_of_vfprintf 1574                              _tmr0_overflows 00E2  
                                 ??_sprintf 003B                                  ___flge@ff1 0070  
                                ___flge@ff2 0074                                ___xxtofl@arg 007A  
                              ___xxtofl@exp 0079                                ___xxtofl@val 0070  
                   __end_of__initialization 0032                                  ___flneg@f1 0070  
                                ___fltol@f1 003A                    EUSART_Write_Float@buffer 00A0  
                            __pcstackCOMMON 0070               calibrate@precomputed_constant 00A4  
                              __pidataBANK1 07FD                               __end_of_fputc 16AA  
                             __end_of_putch 07FF                              _OPTION_REGbits 0095  
                              _T0CKIPPSbits 0E11                                     ??_fputc 0073  
                                   ??_putch 0070                                  __pbssBANK0 0069  
                                __pbssBANK1 00E2                                  __pbssBANK2 0120  
                      __end_of_EUSART_Write 151B                           __end_of__Umul8_16 1610  
                                __pmaintext 0036                                     ?___flge 0070  
                                   ?___wmul 0070                                  __pintentry 0004  
                                 ?___xxtofl 0070                                     _PPSLOCK 0E0F  
                         __end_of_calibrate 1000                                   ?_initMain 0070  
                                   ___aldiv 0956                                     ___fladd 0534  
                                   ___fldiv 0C9F                                     ___awdiv 17A1  
                                   ___flneg 151B                                     ___awmod 16FA  
                                   ___flmul 02F9                                     ___flsub 15CD  
                                   ___fltol 085B                                     ___lldiv 0801  
                                   ___llmod 1610                                   ?_vfprintf 002E  
                                   __ptext1 174D                                     __ptext2 1508  
                                   __ptext3 16AA                                     __ptext4 0956  
                                   __ptext5 0E49                                     __ptext6 0C9F  
                                   __ptext7 07EA                                     __ptext8 153F  
                                   __ptext9 1591                                  ??___xxtofl 0074  
                          ___awmod@dividend 0072                            ___aldiv@dividend 0074  
                                   _sprintf 1591                                     clrloop0 1503  
                      end_of_initialization 0032                                     ftoa@ptr 0052  
                                ??_initMain 007B                                     fputc@fp 0072  
                                   itoa@div 0025                                     itoa@buf 0024  
                                   itoa@num 0020                           _EUSART_Initialize 16AA  
                           ___lldiv@divisor 0070                             ___lldiv@counter 007D  
                        ?_EUSART_Initialize 0026                           __end_of_vfpfcnvrt 0C9F  
                          ___aldiv@quotient 0022                            vfpfcnvrt@convarg 0027  
           ??_EUSART_Write_Unsigned_Integer 007E                                  ??_vfprintf 0031  
                        EUSART_Initialize@x 0079                         ??_EUSART_Initialize 002A  
                                 _PORTCbits 000E                                 ___fladd@grs 007B  
                          main@inductance_h 00C0                               ___xxtofl@sign 0078  
                                 _TRISBbits 008D                                   _TRISCbits 008E  
                               ___fldiv@grs 004E                                 ___fldiv@rem 0047  
                                 _RXPPSbits 0E24                     _ReadTimer0WithOverflows 07EA  
                               ___flmul@grs 002E                   __end_of_EUSART_Initialize 16FA  
               EUSART_Write_Float@precision 0057                       calibrate@inductance_h 00A8  
                             ftoa@precision 0048                             main@capacitance 00C8  
                            __end_of___flge 0956                                 vfpfcnvrt@ap 0021  
                               vfpfcnvrt@cp 002B                                 vfpfcnvrt@fp 0026  
                            __end_of___wmul 15CD                                _EUSART_Write 1511  
                                ftoa@buffer 0051                         start_initialization 001C  
                      calibrate@capacitance 00A0                                 __end_of_isr 001A  
                           ___llmod@divisor 0070                           _EUSART_Write_Text 1574  
                           ___llmod@counter 0079                          ?_EUSART_Write_Text 0071  
                               vfprintf@fmt 002E                                    ??___flge 0078  
                                  ??___wmul 0074                                   __Umul8_16 15ED  
                               __pdataBANK1 00E4                         ??_EUSART_Write_Text 0073  
     __end_of_EUSART_Write_Unsigned_Integer 1558               _EUSART_Write_Unsigned_Integer 153F  
                                 ___fladd@a 0074                                   ___fladd@b 0070  
                                 ___fldiv@a 003A                                   ___fldiv@b 003E  
                                 ___flmul@a 0024                                   ___flmul@b 0020  
                                 ___flsub@a 0028                                   ___flsub@b 002C  
                                 ___latbits 0003                               __pcstackBANK0 0020  
                             __pcstackBANK1 00A0                     EUSART_Write_Float@value 0053  
                 ??_ReadTimer0WithOverflows 0072                   __end_of_EUSART_Write_Text 1591  
                                 _calibrate 0E49                               ??_internal_32 0070  
                                 _main$1142 00D0                                    ?___aldiv 0070  
                                  ?___fladd 0070                                    ?___fldiv 003A  
                                  ?___awdiv 0070                                    ?___flneg 0070  
                                  ?___awmod 0070                                    ?___flmul 0020  
                                  ?___flsub 0028                                    ?___fltol 003A  
                                  ?___lldiv 0070                                    ?___llmod 0070  
                                ?__Umul8_16 0070                   EUSART_Initialize@baudrate 0026  
                        calibrate@count_end 00B8                          calibrate@frequency 00B2  
                                  ?_sprintf 0035                             ___aldiv@divisor 0070  
                           ___aldiv@counter 0020                                  ?_calibrate 0070  
                            ___wmul@product 0074                                    _LATCbits 010E  
                                 clear_ram0 1502                             main@count_start 00D6  
                                  _PIE1bits 0091                                    _PIR1bits 0011  
       EUSART_Write_Unsigned_Integer@buffer 004D                         __end_of_internal_32 1511  
                      calibrate@count_start 00B6                                   _vfpfcnvrt 0B81  
                         ___wmul@multiplier 0070              ?_EUSART_Write_Unsigned_Integer 0049  
                                vfpfcnvrt@c 002D                                   ftoa@digit 004F  
                                 ftoa@value 0044                                  vfprintf@ap 0030  
                                vfprintf@fp 0032                                 ??__Umul8_16 0072  
                                ?_vfpfcnvrt 0020                                  _ANSELBbits 018D  
                                _ANSELCbits 018E                                  sprintf@fmt 0035  
                                  ___xxtofl 0740                                    __ptext10 1558  
                                  __ptext11 0B81                                    __ptext20 16FA  
                                  __ptext12 165A                                    __ptext21 17A1  
                                  __ptext13 07FE                                    __ptext30 1574  
                                  __ptext22 0740                                    __ptext14 1610  
                                  __ptext31 1511                                    __ptext23 085B  
                                  __ptext15 0801                                    __ptext24 15CD  
                                  __ptext16 1526                                    __ptext25 0534  
                                  __ptext17 0A7F                                    __ptext26 151B  
                                  __ptext18 09E6                                    __ptext27 02F9  
                                  __ptext19 15AE                                    __ptext28 15ED  
                                  __ptext29 08CC                                    _initMain 174D  
                               ??_calibrate 0061                              _calibrate$1141 00AC  
                               _internal_32 1508                                  _RB2PPSbits 0E9A  
                                _RC1STAbits 019D                                    int$flags 007E  
                                  _vfprintf 1558  EUSART_Write_Unsigned_Integer@value_to_send 0049  
                __end_of_EUSART_Write_Float 153F                                  _INTCONbits 000B  
                                  itoa@temp 0022                                    intlevel1 0000  
                                 sprintf@ap 003C                            ___lldiv@dividend 0074  
                               _PPSLOCKbits 0E0F                            main@total_counts 00D4  
                               ??_vfpfcnvrt 0022                               __pstringtext1 1800  
                             __pstringtext2 1837                               __pstringtext3 185B  
                             __pstringtext4 1878                               __pstringtext5 1892  
                             __pstringtext6 18A5                               __pstringtext7 18B8  
                             __pstringtext8 18C9                               __pstringtext9 0000  
                    __Umul8_16@multiplicand 0070                                    sprintf@f 003E  
                                  sprintf@s 003D                            ___lldiv@quotient 0079  
                     EUSART_Write_Text@text 0071                                ___aldiv@sign 0021  
                             ___fladd@signs 0078                       calibrate@total_counts 00B0  
                        EUSART_Write@txData 0070                                ___fladd@aexp 0079  
                              ___fladd@bexp 007A                        __Umul8_16@multiplier 0078  
                         main@inductance_mh 00C4                           main@inductance_uh 00DA  
                        EUSART_Write_Text@i 0074                           __Umul8_16@product 0074  
