

Microchip Technology PIC LITE Macro Assembler V1.41 build -162212810 
                                                                                               Tue Mar 28 18:26:05 2017

Microchip Technology Omniscient Code Generator v1.41 (Free mode) build 201701250102
     1                           	processor	16F1717
     2                           	opt	pw 120
     3                           	opt	lm
     4                           	psect	stringtext,global,class=STRCODE,delta=2
     5                           	psect	cinit,global,class=CODE,merge=1,delta=2
     6                           	psect	bssBANK0,global,class=BANK0,space=1,delta=1
     7                           	psect	clrtext,global,class=CODE,delta=2
     8                           	psect	cstackCOMMON,global,class=COMMON,space=1,delta=1
     9                           	psect	cstackBANK0,global,class=BANK0,space=1,delta=1
    10                           	psect	maintext,global,class=CODE,merge=1,split=1,delta=2
    11                           	psect	text1,local,class=CODE,merge=1,delta=2
    12                           	psect	text2,local,class=CODE,merge=1,delta=2
    13                           	psect	text3,local,class=CODE,merge=1,delta=2,group=1
    14                           	psect	text4,local,class=CODE,merge=1,delta=2,group=1
    15                           	psect	text5,local,class=CODE,merge=1,delta=2,group=1
    16                           	psect	text6,local,class=CODE,merge=1,delta=2,group=1
    17                           	psect	text7,local,class=CODE,merge=1,delta=2,group=1
    18                           	psect	text8,local,class=CODE,merge=1,delta=2,group=1
    19                           	psect	text9,local,class=CODE,merge=1,delta=2
    20                           	psect	text10,local,class=CODE,merge=1,delta=2,group=1
    21                           	psect	text11,local,class=CODE,merge=1,delta=2,group=1
    22                           	psect	text12,local,class=CODE,merge=1,delta=2,group=1
    23                           	psect	text13,local,class=CODE,merge=1,delta=2,group=1
    24                           	psect	text14,local,class=CODE,merge=1,delta=2
    25                           	psect	text15,local,class=CODE,merge=1,delta=2
    26                           	psect	text16,local,class=CODE,merge=1,delta=2
    27                           	psect	text17,local,class=CODE,merge=1,delta=2
    28                           	psect	text18,local,class=CODE,merge=1,delta=2
    29                           	psect	text19,local,class=CODE,merge=1,delta=2
    30                           	psect	text20,local,class=CODE,merge=1,delta=2,group=1
    31                           	psect	text21,local,class=CODE,merge=1,delta=2
    32                           	psect	text22,local,class=CODE,merge=1,delta=2
    33                           	psect	text23,local,class=CODE,merge=1,delta=2
    34                           	psect	text24,local,class=CODE,merge=1,delta=2
    35                           	dabs	1,0x7E,2
    36  0000                     
    37                           ; Version 1.41
    38                           ; Generated 25/01/2017 GMT
    39                           ; 
    40                           ; Copyright © 2017, Microchip Technology Inc. and its subsidiaries ("Microchip")
    41                           ; All rights reserved.
    42                           ; 
    43                           ; This software is developed by Microchip Technology Inc. and its subsidiaries ("Microch
      +                          ip").
    44                           ; 
    45                           ; Redistribution and use in source and binary forms, with or without modification, are
    46                           ; permitted provided that the following conditions are met:
    47                           ; 
    48                           ;     1. Redistributions of source code must retain the above copyright notice, this lis
      +                          t of
    49                           ;        conditions and the following disclaimer.
    50                           ; 
    51                           ;     2. Redistributions in binary form must reproduce the above copyright notice, this 
      +                          list
    52                           ;        of conditions and the following disclaimer in the documentation and/or other
    53                           ;        materials provided with the distribution.
    54                           ; 
    55                           ;     3. Microchip's name may not be used to endorse or promote products derived from th
      +                          is
    56                           ;        software without specific prior written permission.
    57                           ; 
    58                           ; THIS SOFTWARE IS PROVIDED BY MICROCHIP "AS IS" AND ANY EXPRESS OR IMPLIED WARRANTIES,
    59                           ; INCLUDING, BUT NOT LIMITED TO, THE IMPLIED WARRANTIES OF MERCHANTABILITY AND FITNESS F
      +                          OR
    60                           ; PURPOSE ARE DISCLAIMED.  IN NO EVENT SHALL MICROCHIP BE LIABLE FOR ANY DIRECT, INDIREC
      +                          T,
    61                           ; INCIDENTAL, SPECIAL, EXEMPLARY, OR CONSEQUENTIAL DAMAGES (INCLUDING BUT NOT LIMITED TO
    62                           ; PROCUREMENT OF SUBSTITUTE GOODS OR SERVICES; LOSS OF USE, DATA OR PROFITS; OR BUSINESS
    63                           ; INTERRUPTION) HOWSOEVER CAUSED AND ON ANY THEORY OF LIABILITY, WHETHER IN CONTRACT, ST
      +                          RICT
    64                           ; LIABILITY, OR TORT (INCLUDING NEGLIGENCE OR OTHERWISE) ARISING IN ANY WAY OUT OF THE U
      +                          SE OF
    65                           ; THIS SOFTWARE, EVEN IF ADVISED OF THE POSSIBILITY OF SUCH DAMAGE.
    66                           ; 
    67                           ; 
    68                           ; Code-generator required, PIC16F1717 Definitions
    69                           ; 
    70                           ; SFR Addresses
    71  0000                     	;# 
    72  0001                     	;# 
    73  0002                     	;# 
    74  0003                     	;# 
    75  0004                     	;# 
    76  0005                     	;# 
    77  0006                     	;# 
    78  0007                     	;# 
    79  0008                     	;# 
    80  0009                     	;# 
    81  000A                     	;# 
    82  000B                     	;# 
    83  000C                     	;# 
    84  000D                     	;# 
    85  000E                     	;# 
    86  000F                     	;# 
    87  0010                     	;# 
    88  0011                     	;# 
    89  0012                     	;# 
    90  0013                     	;# 
    91  0015                     	;# 
    92  0016                     	;# 
    93  0016                     	;# 
    94  0017                     	;# 
    95  0018                     	;# 
    96  0019                     	;# 
    97  001A                     	;# 
    98  001B                     	;# 
    99  001C                     	;# 
   100  008C                     	;# 
   101  008D                     	;# 
   102  008E                     	;# 
   103  008F                     	;# 
   104  0090                     	;# 
   105  0091                     	;# 
   106  0092                     	;# 
   107  0093                     	;# 
   108  0095                     	;# 
   109  0096                     	;# 
   110  0097                     	;# 
   111  0098                     	;# 
   112  0099                     	;# 
   113  009A                     	;# 
   114  009B                     	;# 
   115  009B                     	;# 
   116  009C                     	;# 
   117  009D                     	;# 
   118  009E                     	;# 
   119  009F                     	;# 
   120  010C                     	;# 
   121  010D                     	;# 
   122  010E                     	;# 
   123  010F                     	;# 
   124  0110                     	;# 
   125  0111                     	;# 
   126  0112                     	;# 
   127  0113                     	;# 
   128  0114                     	;# 
   129  0115                     	;# 
   130  0116                     	;# 
   131  0117                     	;# 
   132  0118                     	;# 
   133  0119                     	;# 
   134  011A                     	;# 
   135  011B                     	;# 
   136  011B                     	;# 
   137  011C                     	;# 
   138  018C                     	;# 
   139  018D                     	;# 
   140  018E                     	;# 
   141  018F                     	;# 
   142  0190                     	;# 
   143  0191                     	;# 
   144  0191                     	;# 
   145  0192                     	;# 
   146  0193                     	;# 
   147  0193                     	;# 
   148  0194                     	;# 
   149  0195                     	;# 
   150  0196                     	;# 
   151  0197                     	;# 
   152  0199                     	;# 
   153  0199                     	;# 
   154  0199                     	;# 
   155  019A                     	;# 
   156  019A                     	;# 
   157  019A                     	;# 
   158  019B                     	;# 
   159  019B                     	;# 
   160  019B                     	;# 
   161  019B                     	;# 
   162  019B                     	;# 
   163  019C                     	;# 
   164  019C                     	;# 
   165  019C                     	;# 
   166  019D                     	;# 
   167  019D                     	;# 
   168  019D                     	;# 
   169  019E                     	;# 
   170  019E                     	;# 
   171  019E                     	;# 
   172  019F                     	;# 
   173  019F                     	;# 
   174  019F                     	;# 
   175  019F                     	;# 
   176  019F                     	;# 
   177  020C                     	;# 
   178  020D                     	;# 
   179  020E                     	;# 
   180  020F                     	;# 
   181  0210                     	;# 
   182  0211                     	;# 
   183  0211                     	;# 
   184  0212                     	;# 
   185  0212                     	;# 
   186  0213                     	;# 
   187  0213                     	;# 
   188  0214                     	;# 
   189  0214                     	;# 
   190  0215                     	;# 
   191  0215                     	;# 
   192  0215                     	;# 
   193  0215                     	;# 
   194  0216                     	;# 
   195  0216                     	;# 
   196  0217                     	;# 
   197  0217                     	;# 
   198  028C                     	;# 
   199  028D                     	;# 
   200  028E                     	;# 
   201  028F                     	;# 
   202  0290                     	;# 
   203  0291                     	;# 
   204  0291                     	;# 
   205  0292                     	;# 
   206  0293                     	;# 
   207  0293                     	;# 
   208  0298                     	;# 
   209  0298                     	;# 
   210  0299                     	;# 
   211  029A                     	;# 
   212  029A                     	;# 
   213  029E                     	;# 
   214  030C                     	;# 
   215  030D                     	;# 
   216  030E                     	;# 
   217  030F                     	;# 
   218  0310                     	;# 
   219  038C                     	;# 
   220  038D                     	;# 
   221  038E                     	;# 
   222  038F                     	;# 
   223  0390                     	;# 
   224  0391                     	;# 
   225  0392                     	;# 
   226  0393                     	;# 
   227  0394                     	;# 
   228  0395                     	;# 
   229  0396                     	;# 
   230  0397                     	;# 
   231  0398                     	;# 
   232  0399                     	;# 
   233  039D                     	;# 
   234  039E                     	;# 
   235  039F                     	;# 
   236  0415                     	;# 
   237  0416                     	;# 
   238  0417                     	;# 
   239  041C                     	;# 
   240  041D                     	;# 
   241  041E                     	;# 
   242  0498                     	;# 
   243  0498                     	;# 
   244  0499                     	;# 
   245  049A                     	;# 
   246  049B                     	;# 
   247  049B                     	;# 
   248  049C                     	;# 
   249  049D                     	;# 
   250  049E                     	;# 
   251  049F                     	;# 
   252  0511                     	;# 
   253  0515                     	;# 
   254  0617                     	;# 
   255  0618                     	;# 
   256  0619                     	;# 
   257  0619                     	;# 
   258  061A                     	;# 
   259  061B                     	;# 
   260  061C                     	;# 
   261  061C                     	;# 
   262  0691                     	;# 
   263  0692                     	;# 
   264  0693                     	;# 
   265  0694                     	;# 
   266  0695                     	;# 
   267  0696                     	;# 
   268  0697                     	;# 
   269  0698                     	;# 
   270  0699                     	;# 
   271  069A                     	;# 
   272  069B                     	;# 
   273  069C                     	;# 
   274  069D                     	;# 
   275  069E                     	;# 
   276  069F                     	;# 
   277  0E0F                     	;# 
   278  0E10                     	;# 
   279  0E11                     	;# 
   280  0E12                     	;# 
   281  0E13                     	;# 
   282  0E14                     	;# 
   283  0E15                     	;# 
   284  0E17                     	;# 
   285  0E20                     	;# 
   286  0E21                     	;# 
   287  0E22                     	;# 
   288  0E24                     	;# 
   289  0E25                     	;# 
   290  0E28                     	;# 
   291  0E29                     	;# 
   292  0E2A                     	;# 
   293  0E2B                     	;# 
   294  0E90                     	;# 
   295  0E91                     	;# 
   296  0E92                     	;# 
   297  0E93                     	;# 
   298  0E94                     	;# 
   299  0E95                     	;# 
   300  0E96                     	;# 
   301  0E97                     	;# 
   302  0E98                     	;# 
   303  0E99                     	;# 
   304  0E9A                     	;# 
   305  0E9B                     	;# 
   306  0E9C                     	;# 
   307  0E9D                     	;# 
   308  0E9E                     	;# 
   309  0E9F                     	;# 
   310  0EA0                     	;# 
   311  0EA1                     	;# 
   312  0EA2                     	;# 
   313  0EA3                     	;# 
   314  0EA4                     	;# 
   315  0EA5                     	;# 
   316  0EA6                     	;# 
   317  0EA7                     	;# 
   318  0EA8                     	;# 
   319  0EA9                     	;# 
   320  0EAA                     	;# 
   321  0EAB                     	;# 
   322  0EAC                     	;# 
   323  0EAD                     	;# 
   324  0EAE                     	;# 
   325  0EAF                     	;# 
   326  0EB0                     	;# 
   327  0EB1                     	;# 
   328  0EB2                     	;# 
   329  0F0F                     	;# 
   330  0F10                     	;# 
   331  0F11                     	;# 
   332  0F12                     	;# 
   333  0F13                     	;# 
   334  0F14                     	;# 
   335  0F15                     	;# 
   336  0F16                     	;# 
   337  0F17                     	;# 
   338  0F18                     	;# 
   339  0F19                     	;# 
   340  0F1A                     	;# 
   341  0F1B                     	;# 
   342  0F1C                     	;# 
   343  0F1D                     	;# 
   344  0F1E                     	;# 
   345  0F1F                     	;# 
   346  0F20                     	;# 
   347  0F21                     	;# 
   348  0F22                     	;# 
   349  0F23                     	;# 
   350  0F24                     	;# 
   351  0F25                     	;# 
   352  0F26                     	;# 
   353  0F27                     	;# 
   354  0F28                     	;# 
   355  0F29                     	;# 
   356  0F2A                     	;# 
   357  0F2B                     	;# 
   358  0F2C                     	;# 
   359  0F2D                     	;# 
   360  0F2E                     	;# 
   361  0F2F                     	;# 
   362  0F30                     	;# 
   363  0F31                     	;# 
   364  0F32                     	;# 
   365  0F33                     	;# 
   366  0F34                     	;# 
   367  0F35                     	;# 
   368  0F36                     	;# 
   369  0F37                     	;# 
   370  0FE4                     	;# 
   371  0FE5                     	;# 
   372  0FE6                     	;# 
   373  0FE7                     	;# 
   374  0FE8                     	;# 
   375  0FE9                     	;# 
   376  0FEA                     	;# 
   377  0FEB                     	;# 
   378  0FED                     	;# 
   379  0FEE                     	;# 
   380  0FEF                     	;# 
   381  0000                     	;# 
   382  0001                     	;# 
   383  0002                     	;# 
   384  0003                     	;# 
   385  0004                     	;# 
   386  0005                     	;# 
   387  0006                     	;# 
   388  0007                     	;# 
   389  0008                     	;# 
   390  0009                     	;# 
   391  000A                     	;# 
   392  000B                     	;# 
   393  000C                     	;# 
   394  000D                     	;# 
   395  000E                     	;# 
   396  000F                     	;# 
   397  0010                     	;# 
   398  0011                     	;# 
   399  0012                     	;# 
   400  0013                     	;# 
   401  0015                     	;# 
   402  0016                     	;# 
   403  0016                     	;# 
   404  0017                     	;# 
   405  0018                     	;# 
   406  0019                     	;# 
   407  001A                     	;# 
   408  001B                     	;# 
   409  001C                     	;# 
   410  008C                     	;# 
   411  008D                     	;# 
   412  008E                     	;# 
   413  008F                     	;# 
   414  0090                     	;# 
   415  0091                     	;# 
   416  0092                     	;# 
   417  0093                     	;# 
   418  0095                     	;# 
   419  0096                     	;# 
   420  0097                     	;# 
   421  0098                     	;# 
   422  0099                     	;# 
   423  009A                     	;# 
   424  009B                     	;# 
   425  009B                     	;# 
   426  009C                     	;# 
   427  009D                     	;# 
   428  009E                     	;# 
   429  009F                     	;# 
   430  010C                     	;# 
   431  010D                     	;# 
   432  010E                     	;# 
   433  010F                     	;# 
   434  0110                     	;# 
   435  0111                     	;# 
   436  0112                     	;# 
   437  0113                     	;# 
   438  0114                     	;# 
   439  0115                     	;# 
   440  0116                     	;# 
   441  0117                     	;# 
   442  0118                     	;# 
   443  0119                     	;# 
   444  011A                     	;# 
   445  011B                     	;# 
   446  011B                     	;# 
   447  011C                     	;# 
   448  018C                     	;# 
   449  018D                     	;# 
   450  018E                     	;# 
   451  018F                     	;# 
   452  0190                     	;# 
   453  0191                     	;# 
   454  0191                     	;# 
   455  0192                     	;# 
   456  0193                     	;# 
   457  0193                     	;# 
   458  0194                     	;# 
   459  0195                     	;# 
   460  0196                     	;# 
   461  0197                     	;# 
   462  0199                     	;# 
   463  0199                     	;# 
   464  0199                     	;# 
   465  019A                     	;# 
   466  019A                     	;# 
   467  019A                     	;# 
   468  019B                     	;# 
   469  019B                     	;# 
   470  019B                     	;# 
   471  019B                     	;# 
   472  019B                     	;# 
   473  019C                     	;# 
   474  019C                     	;# 
   475  019C                     	;# 
   476  019D                     	;# 
   477  019D                     	;# 
   478  019D                     	;# 
   479  019E                     	;# 
   480  019E                     	;# 
   481  019E                     	;# 
   482  019F                     	;# 
   483  019F                     	;# 
   484  019F                     	;# 
   485  019F                     	;# 
   486  019F                     	;# 
   487  020C                     	;# 
   488  020D                     	;# 
   489  020E                     	;# 
   490  020F                     	;# 
   491  0210                     	;# 
   492  0211                     	;# 
   493  0211                     	;# 
   494  0212                     	;# 
   495  0212                     	;# 
   496  0213                     	;# 
   497  0213                     	;# 
   498  0214                     	;# 
   499  0214                     	;# 
   500  0215                     	;# 
   501  0215                     	;# 
   502  0215                     	;# 
   503  0215                     	;# 
   504  0216                     	;# 
   505  0216                     	;# 
   506  0217                     	;# 
   507  0217                     	;# 
   508  028C                     	;# 
   509  028D                     	;# 
   510  028E                     	;# 
   511  028F                     	;# 
   512  0290                     	;# 
   513  0291                     	;# 
   514  0291                     	;# 
   515  0292                     	;# 
   516  0293                     	;# 
   517  0293                     	;# 
   518  0298                     	;# 
   519  0298                     	;# 
   520  0299                     	;# 
   521  029A                     	;# 
   522  029A                     	;# 
   523  029E                     	;# 
   524  030C                     	;# 
   525  030D                     	;# 
   526  030E                     	;# 
   527  030F                     	;# 
   528  0310                     	;# 
   529  038C                     	;# 
   530  038D                     	;# 
   531  038E                     	;# 
   532  038F                     	;# 
   533  0390                     	;# 
   534  0391                     	;# 
   535  0392                     	;# 
   536  0393                     	;# 
   537  0394                     	;# 
   538  0395                     	;# 
   539  0396                     	;# 
   540  0397                     	;# 
   541  0398                     	;# 
   542  0399                     	;# 
   543  039D                     	;# 
   544  039E                     	;# 
   545  039F                     	;# 
   546  0415                     	;# 
   547  0416                     	;# 
   548  0417                     	;# 
   549  041C                     	;# 
   550  041D                     	;# 
   551  041E                     	;# 
   552  0498                     	;# 
   553  0498                     	;# 
   554  0499                     	;# 
   555  049A                     	;# 
   556  049B                     	;# 
   557  049B                     	;# 
   558  049C                     	;# 
   559  049D                     	;# 
   560  049E                     	;# 
   561  049F                     	;# 
   562  0511                     	;# 
   563  0515                     	;# 
   564  0617                     	;# 
   565  0618                     	;# 
   566  0619                     	;# 
   567  0619                     	;# 
   568  061A                     	;# 
   569  061B                     	;# 
   570  061C                     	;# 
   571  061C                     	;# 
   572  0691                     	;# 
   573  0692                     	;# 
   574  0693                     	;# 
   575  0694                     	;# 
   576  0695                     	;# 
   577  0696                     	;# 
   578  0697                     	;# 
   579  0698                     	;# 
   580  0699                     	;# 
   581  069A                     	;# 
   582  069B                     	;# 
   583  069C                     	;# 
   584  069D                     	;# 
   585  069E                     	;# 
   586  069F                     	;# 
   587  0E0F                     	;# 
   588  0E10                     	;# 
   589  0E11                     	;# 
   590  0E12                     	;# 
   591  0E13                     	;# 
   592  0E14                     	;# 
   593  0E15                     	;# 
   594  0E17                     	;# 
   595  0E20                     	;# 
   596  0E21                     	;# 
   597  0E22                     	;# 
   598  0E24                     	;# 
   599  0E25                     	;# 
   600  0E28                     	;# 
   601  0E29                     	;# 
   602  0E2A                     	;# 
   603  0E2B                     	;# 
   604  0E90                     	;# 
   605  0E91                     	;# 
   606  0E92                     	;# 
   607  0E93                     	;# 
   608  0E94                     	;# 
   609  0E95                     	;# 
   610  0E96                     	;# 
   611  0E97                     	;# 
   612  0E98                     	;# 
   613  0E99                     	;# 
   614  0E9A                     	;# 
   615  0E9B                     	;# 
   616  0E9C                     	;# 
   617  0E9D                     	;# 
   618  0E9E                     	;# 
   619  0E9F                     	;# 
   620  0EA0                     	;# 
   621  0EA1                     	;# 
   622  0EA2                     	;# 
   623  0EA3                     	;# 
   624  0EA4                     	;# 
   625  0EA5                     	;# 
   626  0EA6                     	;# 
   627  0EA7                     	;# 
   628  0EA8                     	;# 
   629  0EA9                     	;# 
   630  0EAA                     	;# 
   631  0EAB                     	;# 
   632  0EAC                     	;# 
   633  0EAD                     	;# 
   634  0EAE                     	;# 
   635  0EAF                     	;# 
   636  0EB0                     	;# 
   637  0EB1                     	;# 
   638  0EB2                     	;# 
   639  0F0F                     	;# 
   640  0F10                     	;# 
   641  0F11                     	;# 
   642  0F12                     	;# 
   643  0F13                     	;# 
   644  0F14                     	;# 
   645  0F15                     	;# 
   646  0F16                     	;# 
   647  0F17                     	;# 
   648  0F18                     	;# 
   649  0F19                     	;# 
   650  0F1A                     	;# 
   651  0F1B                     	;# 
   652  0F1C                     	;# 
   653  0F1D                     	;# 
   654  0F1E                     	;# 
   655  0F1F                     	;# 
   656  0F20                     	;# 
   657  0F21                     	;# 
   658  0F22                     	;# 
   659  0F23                     	;# 
   660  0F24                     	;# 
   661  0F25                     	;# 
   662  0F26                     	;# 
   663  0F27                     	;# 
   664  0F28                     	;# 
   665  0F29                     	;# 
   666  0F2A                     	;# 
   667  0F2B                     	;# 
   668  0F2C                     	;# 
   669  0F2D                     	;# 
   670  0F2E                     	;# 
   671  0F2F                     	;# 
   672  0F30                     	;# 
   673  0F31                     	;# 
   674  0F32                     	;# 
   675  0F33                     	;# 
   676  0F34                     	;# 
   677  0F35                     	;# 
   678  0F36                     	;# 
   679  0F37                     	;# 
   680  0FE4                     	;# 
   681  0FE5                     	;# 
   682  0FE6                     	;# 
   683  0FE7                     	;# 
   684  0FE8                     	;# 
   685  0FE9                     	;# 
   686  0FEA                     	;# 
   687  0FEB                     	;# 
   688  0FED                     	;# 
   689  0FEE                     	;# 
   690  0FEF                     	;# 
   691  0000                     	;# 
   692  0001                     	;# 
   693  0002                     	;# 
   694  0003                     	;# 
   695  0004                     	;# 
   696  0005                     	;# 
   697  0006                     	;# 
   698  0007                     	;# 
   699  0008                     	;# 
   700  0009                     	;# 
   701  000A                     	;# 
   702  000B                     	;# 
   703  000C                     	;# 
   704  000D                     	;# 
   705  000E                     	;# 
   706  000F                     	;# 
   707  0010                     	;# 
   708  0011                     	;# 
   709  0012                     	;# 
   710  0013                     	;# 
   711  0015                     	;# 
   712  0016                     	;# 
   713  0016                     	;# 
   714  0017                     	;# 
   715  0018                     	;# 
   716  0019                     	;# 
   717  001A                     	;# 
   718  001B                     	;# 
   719  001C                     	;# 
   720  008C                     	;# 
   721  008D                     	;# 
   722  008E                     	;# 
   723  008F                     	;# 
   724  0090                     	;# 
   725  0091                     	;# 
   726  0092                     	;# 
   727  0093                     	;# 
   728  0095                     	;# 
   729  0096                     	;# 
   730  0097                     	;# 
   731  0098                     	;# 
   732  0099                     	;# 
   733  009A                     	;# 
   734  009B                     	;# 
   735  009B                     	;# 
   736  009C                     	;# 
   737  009D                     	;# 
   738  009E                     	;# 
   739  009F                     	;# 
   740  010C                     	;# 
   741  010D                     	;# 
   742  010E                     	;# 
   743  010F                     	;# 
   744  0110                     	;# 
   745  0111                     	;# 
   746  0112                     	;# 
   747  0113                     	;# 
   748  0114                     	;# 
   749  0115                     	;# 
   750  0116                     	;# 
   751  0117                     	;# 
   752  0118                     	;# 
   753  0119                     	;# 
   754  011A                     	;# 
   755  011B                     	;# 
   756  011B                     	;# 
   757  011C                     	;# 
   758  018C                     	;# 
   759  018D                     	;# 
   760  018E                     	;# 
   761  018F                     	;# 
   762  0190                     	;# 
   763  0191                     	;# 
   764  0191                     	;# 
   765  0192                     	;# 
   766  0193                     	;# 
   767  0193                     	;# 
   768  0194                     	;# 
   769  0195                     	;# 
   770  0196                     	;# 
   771  0197                     	;# 
   772  0199                     	;# 
   773  0199                     	;# 
   774  0199                     	;# 
   775  019A                     	;# 
   776  019A                     	;# 
   777  019A                     	;# 
   778  019B                     	;# 
   779  019B                     	;# 
   780  019B                     	;# 
   781  019B                     	;# 
   782  019B                     	;# 
   783  019C                     	;# 
   784  019C                     	;# 
   785  019C                     	;# 
   786  019D                     	;# 
   787  019D                     	;# 
   788  019D                     	;# 
   789  019E                     	;# 
   790  019E                     	;# 
   791  019E                     	;# 
   792  019F                     	;# 
   793  019F                     	;# 
   794  019F                     	;# 
   795  019F                     	;# 
   796  019F                     	;# 
   797  020C                     	;# 
   798  020D                     	;# 
   799  020E                     	;# 
   800  020F                     	;# 
   801  0210                     	;# 
   802  0211                     	;# 
   803  0211                     	;# 
   804  0212                     	;# 
   805  0212                     	;# 
   806  0213                     	;# 
   807  0213                     	;# 
   808  0214                     	;# 
   809  0214                     	;# 
   810  0215                     	;# 
   811  0215                     	;# 
   812  0215                     	;# 
   813  0215                     	;# 
   814  0216                     	;# 
   815  0216                     	;# 
   816  0217                     	;# 
   817  0217                     	;# 
   818  028C                     	;# 
   819  028D                     	;# 
   820  028E                     	;# 
   821  028F                     	;# 
   822  0290                     	;# 
   823  0291                     	;# 
   824  0291                     	;# 
   825  0292                     	;# 
   826  0293                     	;# 
   827  0293                     	;# 
   828  0298                     	;# 
   829  0298                     	;# 
   830  0299                     	;# 
   831  029A                     	;# 
   832  029A                     	;# 
   833  029E                     	;# 
   834  030C                     	;# 
   835  030D                     	;# 
   836  030E                     	;# 
   837  030F                     	;# 
   838  0310                     	;# 
   839  038C                     	;# 
   840  038D                     	;# 
   841  038E                     	;# 
   842  038F                     	;# 
   843  0390                     	;# 
   844  0391                     	;# 
   845  0392                     	;# 
   846  0393                     	;# 
   847  0394                     	;# 
   848  0395                     	;# 
   849  0396                     	;# 
   850  0397                     	;# 
   851  0398                     	;# 
   852  0399                     	;# 
   853  039D                     	;# 
   854  039E                     	;# 
   855  039F                     	;# 
   856  0415                     	;# 
   857  0416                     	;# 
   858  0417                     	;# 
   859  041C                     	;# 
   860  041D                     	;# 
   861  041E                     	;# 
   862  0498                     	;# 
   863  0498                     	;# 
   864  0499                     	;# 
   865  049A                     	;# 
   866  049B                     	;# 
   867  049B                     	;# 
   868  049C                     	;# 
   869  049D                     	;# 
   870  049E                     	;# 
   871  049F                     	;# 
   872  0511                     	;# 
   873  0515                     	;# 
   874  0617                     	;# 
   875  0618                     	;# 
   876  0619                     	;# 
   877  0619                     	;# 
   878  061A                     	;# 
   879  061B                     	;# 
   880  061C                     	;# 
   881  061C                     	;# 
   882  0691                     	;# 
   883  0692                     	;# 
   884  0693                     	;# 
   885  0694                     	;# 
   886  0695                     	;# 
   887  0696                     	;# 
   888  0697                     	;# 
   889  0698                     	;# 
   890  0699                     	;# 
   891  069A                     	;# 
   892  069B                     	;# 
   893  069C                     	;# 
   894  069D                     	;# 
   895  069E                     	;# 
   896  069F                     	;# 
   897  0E0F                     	;# 
   898  0E10                     	;# 
   899  0E11                     	;# 
   900  0E12                     	;# 
   901  0E13                     	;# 
   902  0E14                     	;# 
   903  0E15                     	;# 
   904  0E17                     	;# 
   905  0E20                     	;# 
   906  0E21                     	;# 
   907  0E22                     	;# 
   908  0E24                     	;# 
   909  0E25                     	;# 
   910  0E28                     	;# 
   911  0E29                     	;# 
   912  0E2A                     	;# 
   913  0E2B                     	;# 
   914  0E90                     	;# 
   915  0E91                     	;# 
   916  0E92                     	;# 
   917  0E93                     	;# 
   918  0E94                     	;# 
   919  0E95                     	;# 
   920  0E96                     	;# 
   921  0E97                     	;# 
   922  0E98                     	;# 
   923  0E99                     	;# 
   924  0E9A                     	;# 
   925  0E9B                     	;# 
   926  0E9C                     	;# 
   927  0E9D                     	;# 
   928  0E9E                     	;# 
   929  0E9F                     	;# 
   930  0EA0                     	;# 
   931  0EA1                     	;# 
   932  0EA2                     	;# 
   933  0EA3                     	;# 
   934  0EA4                     	;# 
   935  0EA5                     	;# 
   936  0EA6                     	;# 
   937  0EA7                     	;# 
   938  0EA8                     	;# 
   939  0EA9                     	;# 
   940  0EAA                     	;# 
   941  0EAB                     	;# 
   942  0EAC                     	;# 
   943  0EAD                     	;# 
   944  0EAE                     	;# 
   945  0EAF                     	;# 
   946  0EB0                     	;# 
   947  0EB1                     	;# 
   948  0EB2                     	;# 
   949  0F0F                     	;# 
   950  0F10                     	;# 
   951  0F11                     	;# 
   952  0F12                     	;# 
   953  0F13                     	;# 
   954  0F14                     	;# 
   955  0F15                     	;# 
   956  0F16                     	;# 
   957  0F17                     	;# 
   958  0F18                     	;# 
   959  0F19                     	;# 
   960  0F1A                     	;# 
   961  0F1B                     	;# 
   962  0F1C                     	;# 
   963  0F1D                     	;# 
   964  0F1E                     	;# 
   965  0F1F                     	;# 
   966  0F20                     	;# 
   967  0F21                     	;# 
   968  0F22                     	;# 
   969  0F23                     	;# 
   970  0F24                     	;# 
   971  0F25                     	;# 
   972  0F26                     	;# 
   973  0F27                     	;# 
   974  0F28                     	;# 
   975  0F29                     	;# 
   976  0F2A                     	;# 
   977  0F2B                     	;# 
   978  0F2C                     	;# 
   979  0F2D                     	;# 
   980  0F2E                     	;# 
   981  0F2F                     	;# 
   982  0F30                     	;# 
   983  0F31                     	;# 
   984  0F32                     	;# 
   985  0F33                     	;# 
   986  0F34                     	;# 
   987  0F35                     	;# 
   988  0F36                     	;# 
   989  0F37                     	;# 
   990  0FE4                     	;# 
   991  0FE5                     	;# 
   992  0FE6                     	;# 
   993  0FE7                     	;# 
   994  0FE8                     	;# 
   995  0FE9                     	;# 
   996  0FEA                     	;# 
   997  0FEB                     	;# 
   998  0FED                     	;# 
   999  0FEE                     	;# 
  1000  0FEF                     	;# 
  1001  0000                     	;# 
  1002  0001                     	;# 
  1003  0002                     	;# 
  1004  0003                     	;# 
  1005  0004                     	;# 
  1006  0005                     	;# 
  1007  0006                     	;# 
  1008  0007                     	;# 
  1009  0008                     	;# 
  1010  0009                     	;# 
  1011  000A                     	;# 
  1012  000B                     	;# 
  1013  000C                     	;# 
  1014  000D                     	;# 
  1015  000E                     	;# 
  1016  000F                     	;# 
  1017  0010                     	;# 
  1018  0011                     	;# 
  1019  0012                     	;# 
  1020  0013                     	;# 
  1021  0015                     	;# 
  1022  0016                     	;# 
  1023  0016                     	;# 
  1024  0017                     	;# 
  1025  0018                     	;# 
  1026  0019                     	;# 
  1027  001A                     	;# 
  1028  001B                     	;# 
  1029  001C                     	;# 
  1030  008C                     	;# 
  1031  008D                     	;# 
  1032  008E                     	;# 
  1033  008F                     	;# 
  1034  0090                     	;# 
  1035  0091                     	;# 
  1036  0092                     	;# 
  1037  0093                     	;# 
  1038  0095                     	;# 
  1039  0096                     	;# 
  1040  0097                     	;# 
  1041  0098                     	;# 
  1042  0099                     	;# 
  1043  009A                     	;# 
  1044  009B                     	;# 
  1045  009B                     	;# 
  1046  009C                     	;# 
  1047  009D                     	;# 
  1048  009E                     	;# 
  1049  009F                     	;# 
  1050  010C                     	;# 
  1051  010D                     	;# 
  1052  010E                     	;# 
  1053  010F                     	;# 
  1054  0110                     	;# 
  1055  0111                     	;# 
  1056  0112                     	;# 
  1057  0113                     	;# 
  1058  0114                     	;# 
  1059  0115                     	;# 
  1060  0116                     	;# 
  1061  0117                     	;# 
  1062  0118                     	;# 
  1063  0119                     	;# 
  1064  011A                     	;# 
  1065  011B                     	;# 
  1066  011B                     	;# 
  1067  011C                     	;# 
  1068  018C                     	;# 
  1069  018D                     	;# 
  1070  018E                     	;# 
  1071  018F                     	;# 
  1072  0190                     	;# 
  1073  0191                     	;# 
  1074  0191                     	;# 
  1075  0192                     	;# 
  1076  0193                     	;# 
  1077  0193                     	;# 
  1078  0194                     	;# 
  1079  0195                     	;# 
  1080  0196                     	;# 
  1081  0197                     	;# 
  1082  0199                     	;# 
  1083  0199                     	;# 
  1084  0199                     	;# 
  1085  019A                     	;# 
  1086  019A                     	;# 
  1087  019A                     	;# 
  1088  019B                     	;# 
  1089  019B                     	;# 
  1090  019B                     	;# 
  1091  019B                     	;# 
  1092  019B                     	;# 
  1093  019C                     	;# 
  1094  019C                     	;# 
  1095  019C                     	;# 
  1096  019D                     	;# 
  1097  019D                     	;# 
  1098  019D                     	;# 
  1099  019E                     	;# 
  1100  019E                     	;# 
  1101  019E                     	;# 
  1102  019F                     	;# 
  1103  019F                     	;# 
  1104  019F                     	;# 
  1105  019F                     	;# 
  1106  019F                     	;# 
  1107  020C                     	;# 
  1108  020D                     	;# 
  1109  020E                     	;# 
  1110  020F                     	;# 
  1111  0210                     	;# 
  1112  0211                     	;# 
  1113  0211                     	;# 
  1114  0212                     	;# 
  1115  0212                     	;# 
  1116  0213                     	;# 
  1117  0213                     	;# 
  1118  0214                     	;# 
  1119  0214                     	;# 
  1120  0215                     	;# 
  1121  0215                     	;# 
  1122  0215                     	;# 
  1123  0215                     	;# 
  1124  0216                     	;# 
  1125  0216                     	;# 
  1126  0217                     	;# 
  1127  0217                     	;# 
  1128  028C                     	;# 
  1129  028D                     	;# 
  1130  028E                     	;# 
  1131  028F                     	;# 
  1132  0290                     	;# 
  1133  0291                     	;# 
  1134  0291                     	;# 
  1135  0292                     	;# 
  1136  0293                     	;# 
  1137  0293                     	;# 
  1138  0298                     	;# 
  1139  0298                     	;# 
  1140  0299                     	;# 
  1141  029A                     	;# 
  1142  029A                     	;# 
  1143  029E                     	;# 
  1144  030C                     	;# 
  1145  030D                     	;# 
  1146  030E                     	;# 
  1147  030F                     	;# 
  1148  0310                     	;# 
  1149  038C                     	;# 
  1150  038D                     	;# 
  1151  038E                     	;# 
  1152  038F                     	;# 
  1153  0390                     	;# 
  1154  0391                     	;# 
  1155  0392                     	;# 
  1156  0393                     	;# 
  1157  0394                     	;# 
  1158  0395                     	;# 
  1159  0396                     	;# 
  1160  0397                     	;# 
  1161  0398                     	;# 
  1162  0399                     	;# 
  1163  039D                     	;# 
  1164  039E                     	;# 
  1165  039F                     	;# 
  1166  0415                     	;# 
  1167  0416                     	;# 
  1168  0417                     	;# 
  1169  041C                     	;# 
  1170  041D                     	;# 
  1171  041E                     	;# 
  1172  0498                     	;# 
  1173  0498                     	;# 
  1174  0499                     	;# 
  1175  049A                     	;# 
  1176  049B                     	;# 
  1177  049B                     	;# 
  1178  049C                     	;# 
  1179  049D                     	;# 
  1180  049E                     	;# 
  1181  049F                     	;# 
  1182  0511                     	;# 
  1183  0515                     	;# 
  1184  0617                     	;# 
  1185  0618                     	;# 
  1186  0619                     	;# 
  1187  0619                     	;# 
  1188  061A                     	;# 
  1189  061B                     	;# 
  1190  061C                     	;# 
  1191  061C                     	;# 
  1192  0691                     	;# 
  1193  0692                     	;# 
  1194  0693                     	;# 
  1195  0694                     	;# 
  1196  0695                     	;# 
  1197  0696                     	;# 
  1198  0697                     	;# 
  1199  0698                     	;# 
  1200  0699                     	;# 
  1201  069A                     	;# 
  1202  069B                     	;# 
  1203  069C                     	;# 
  1204  069D                     	;# 
  1205  069E                     	;# 
  1206  069F                     	;# 
  1207  0E0F                     	;# 
  1208  0E10                     	;# 
  1209  0E11                     	;# 
  1210  0E12                     	;# 
  1211  0E13                     	;# 
  1212  0E14                     	;# 
  1213  0E15                     	;# 
  1214  0E17                     	;# 
  1215  0E20                     	;# 
  1216  0E21                     	;# 
  1217  0E22                     	;# 
  1218  0E24                     	;# 
  1219  0E25                     	;# 
  1220  0E28                     	;# 
  1221  0E29                     	;# 
  1222  0E2A                     	;# 
  1223  0E2B                     	;# 
  1224  0E90                     	;# 
  1225  0E91                     	;# 
  1226  0E92                     	;# 
  1227  0E93                     	;# 
  1228  0E94                     	;# 
  1229  0E95                     	;# 
  1230  0E96                     	;# 
  1231  0E97                     	;# 
  1232  0E98                     	;# 
  1233  0E99                     	;# 
  1234  0E9A                     	;# 
  1235  0E9B                     	;# 
  1236  0E9C                     	;# 
  1237  0E9D                     	;# 
  1238  0E9E                     	;# 
  1239  0E9F                     	;# 
  1240  0EA0                     	;# 
  1241  0EA1                     	;# 
  1242  0EA2                     	;# 
  1243  0EA3                     	;# 
  1244  0EA4                     	;# 
  1245  0EA5                     	;# 
  1246  0EA6                     	;# 
  1247  0EA7                     	;# 
  1248  0EA8                     	;# 
  1249  0EA9                     	;# 
  1250  0EAA                     	;# 
  1251  0EAB                     	;# 
  1252  0EAC                     	;# 
  1253  0EAD                     	;# 
  1254  0EAE                     	;# 
  1255  0EAF                     	;# 
  1256  0EB0                     	;# 
  1257  0EB1                     	;# 
  1258  0EB2                     	;# 
  1259  0F0F                     	;# 
  1260  0F10                     	;# 
  1261  0F11                     	;# 
  1262  0F12                     	;# 
  1263  0F13                     	;# 
  1264  0F14                     	;# 
  1265  0F15                     	;# 
  1266  0F16                     	;# 
  1267  0F17                     	;# 
  1268  0F18                     	;# 
  1269  0F19                     	;# 
  1270  0F1A                     	;# 
  1271  0F1B                     	;# 
  1272  0F1C                     	;# 
  1273  0F1D                     	;# 
  1274  0F1E                     	;# 
  1275  0F1F                     	;# 
  1276  0F20                     	;# 
  1277  0F21                     	;# 
  1278  0F22                     	;# 
  1279  0F23                     	;# 
  1280  0F24                     	;# 
  1281  0F25                     	;# 
  1282  0F26                     	;# 
  1283  0F27                     	;# 
  1284  0F28                     	;# 
  1285  0F29                     	;# 
  1286  0F2A                     	;# 
  1287  0F2B                     	;# 
  1288  0F2C                     	;# 
  1289  0F2D                     	;# 
  1290  0F2E                     	;# 
  1291  0F2F                     	;# 
  1292  0F30                     	;# 
  1293  0F31                     	;# 
  1294  0F32                     	;# 
  1295  0F33                     	;# 
  1296  0F34                     	;# 
  1297  0F35                     	;# 
  1298  0F36                     	;# 
  1299  0F37                     	;# 
  1300  0FE4                     	;# 
  1301  0FE5                     	;# 
  1302  0FE6                     	;# 
  1303  0FE7                     	;# 
  1304  0FE8                     	;# 
  1305  0FE9                     	;# 
  1306  0FEA                     	;# 
  1307  0FEB                     	;# 
  1308  0FED                     	;# 
  1309  0FEE                     	;# 
  1310  0FEF                     	;# 
  1311                           
  1312                           	psect	stringtext
  1313  0800                     __pstringtext:	
  1314  0800                     _dpowers:	
  1315  0800  3401               	retlw	1
  1316  0801  3400               	retlw	0
  1317  0802  3400               	retlw	0
  1318  0803  3400               	retlw	0
  1319  0804  340A               	retlw	10
  1320  0805  3400               	retlw	0
  1321  0806  3400               	retlw	0
  1322  0807  3400               	retlw	0
  1323  0808  3464               	retlw	100
  1324  0809  3400               	retlw	0
  1325  080A  3400               	retlw	0
  1326  080B  3400               	retlw	0
  1327  080C  34E8               	retlw	232
  1328  080D  3403               	retlw	3
  1329  080E  3400               	retlw	0
  1330  080F  3400               	retlw	0
  1331  0810  3410               	retlw	16
  1332  0811  3427               	retlw	39
  1333  0812  3400               	retlw	0
  1334  0813  3400               	retlw	0
  1335  0814  34A0               	retlw	160
  1336  0815  3486               	retlw	134
  1337  0816  3401               	retlw	1
  1338  0817  3400               	retlw	0
  1339  0818  3440               	retlw	64
  1340  0819  3442               	retlw	66
  1341  081A  340F               	retlw	15
  1342  081B  3400               	retlw	0
  1343  081C  3480               	retlw	128
  1344  081D  3496               	retlw	150
  1345  081E  3498               	retlw	152
  1346  081F  3400               	retlw	0
  1347  0820  3400               	retlw	0
  1348  0821  34E1               	retlw	225
  1349  0822  34F5               	retlw	245
  1350  0823  3405               	retlw	5
  1351  0824  3400               	retlw	0
  1352  0825  34CA               	retlw	202
  1353  0826  349A               	retlw	154
  1354  0827  343B               	retlw	59
  1355  0828                     __end_of_dpowers:	
  1356  0828                     _OledFont:	
  1357  0828  3400               	retlw	0
  1358  0829  3400               	retlw	0
  1359  082A  3400               	retlw	0
  1360  082B  3400               	retlw	0
  1361  082C  3400               	retlw	0
  1362  082D  3400               	retlw	0
  1363  082E  3400               	retlw	0
  1364  082F  3400               	retlw	0
  1365  0830  3400               	retlw	0
  1366  0831  3400               	retlw	0
  1367  0832  345F               	retlw	95
  1368  0833  3400               	retlw	0
  1369  0834  3400               	retlw	0
  1370  0835  3400               	retlw	0
  1371  0836  3400               	retlw	0
  1372  0837  3400               	retlw	0
  1373  0838  3400               	retlw	0
  1374  0839  3400               	retlw	0
  1375  083A  3407               	retlw	7
  1376  083B  3400               	retlw	0
  1377  083C  3407               	retlw	7
  1378  083D  3400               	retlw	0
  1379  083E  3400               	retlw	0
  1380  083F  3400               	retlw	0
  1381  0840  3400               	retlw	0
  1382  0841  3414               	retlw	20
  1383  0842  347F               	retlw	127
  1384  0843  3414               	retlw	20
  1385  0844  347F               	retlw	127
  1386  0845  3414               	retlw	20
  1387  0846  3400               	retlw	0
  1388  0847  3400               	retlw	0
  1389  0848  3400               	retlw	0
  1390  0849  3424               	retlw	36
  1391  084A  342A               	retlw	42
  1392  084B  347F               	retlw	127
  1393  084C  342A               	retlw	42
  1394  084D  3412               	retlw	18
  1395  084E  3400               	retlw	0
  1396  084F  3400               	retlw	0
  1397  0850  3400               	retlw	0
  1398  0851  3423               	retlw	35
  1399  0852  3413               	retlw	19
  1400  0853  3408               	retlw	8
  1401  0854  3464               	retlw	100
  1402  0855  3462               	retlw	98
  1403  0856  3400               	retlw	0
  1404  0857  3400               	retlw	0
  1405  0858  3400               	retlw	0
  1406  0859  3436               	retlw	54
  1407  085A  3449               	retlw	73
  1408  085B  3455               	retlw	85
  1409  085C  3422               	retlw	34
  1410  085D  3450               	retlw	80
  1411  085E  3400               	retlw	0
  1412  085F  3400               	retlw	0
  1413  0860  3400               	retlw	0
  1414  0861  3400               	retlw	0
  1415  0862  3405               	retlw	5
  1416  0863  3403               	retlw	3
  1417  0864  3400               	retlw	0
  1418  0865  3400               	retlw	0
  1419  0866  3400               	retlw	0
  1420  0867  3400               	retlw	0
  1421  0868  3400               	retlw	0
  1422  0869  341C               	retlw	28
  1423  086A  3422               	retlw	34
  1424  086B  3441               	retlw	65
  1425  086C  3400               	retlw	0
  1426  086D  3400               	retlw	0
  1427  086E  3400               	retlw	0
  1428  086F  3400               	retlw	0
  1429  0870  3400               	retlw	0
  1430  0871  3441               	retlw	65
  1431  0872  3422               	retlw	34
  1432  0873  341C               	retlw	28
  1433  0874  3400               	retlw	0
  1434  0875  3400               	retlw	0
  1435  0876  3400               	retlw	0
  1436  0877  3400               	retlw	0
  1437  0878  3400               	retlw	0
  1438  0879  3408               	retlw	8
  1439  087A  342A               	retlw	42
  1440  087B  341C               	retlw	28
  1441  087C  342A               	retlw	42
  1442  087D  3408               	retlw	8
  1443  087E  3400               	retlw	0
  1444  087F  3400               	retlw	0
  1445  0880  3400               	retlw	0
  1446  0881  3408               	retlw	8
  1447  0882  3408               	retlw	8
  1448  0883  343E               	retlw	62
  1449  0884  3408               	retlw	8
  1450  0885  3408               	retlw	8
  1451  0886  3400               	retlw	0
  1452  0887  3400               	retlw	0
  1453  0888  3400               	retlw	0
  1454  0889  34A0               	retlw	160
  1455  088A  3460               	retlw	96
  1456  088B  3400               	retlw	0
  1457  088C  3400               	retlw	0
  1458  088D  3400               	retlw	0
  1459  088E  3400               	retlw	0
  1460  088F  3400               	retlw	0
  1461  0890  3400               	retlw	0
  1462  0891  3408               	retlw	8
  1463  0892  3408               	retlw	8
  1464  0893  3408               	retlw	8
  1465  0894  3408               	retlw	8
  1466  0895  3408               	retlw	8
  1467  0896  3400               	retlw	0
  1468  0897  3400               	retlw	0
  1469  0898  3400               	retlw	0
  1470  0899  3460               	retlw	96
  1471  089A  3460               	retlw	96
  1472  089B  3400               	retlw	0
  1473  089C  3400               	retlw	0
  1474  089D  3400               	retlw	0
  1475  089E  3400               	retlw	0
  1476  089F  3400               	retlw	0
  1477  08A0  3400               	retlw	0
  1478  08A1  3420               	retlw	32
  1479  08A2  3410               	retlw	16
  1480  08A3  3408               	retlw	8
  1481  08A4  3404               	retlw	4
  1482  08A5  3402               	retlw	2
  1483  08A6  3400               	retlw	0
  1484  08A7  3400               	retlw	0
  1485  08A8  3400               	retlw	0
  1486  08A9  343E               	retlw	62
  1487  08AA  3451               	retlw	81
  1488  08AB  3449               	retlw	73
  1489  08AC  3445               	retlw	69
  1490  08AD  343E               	retlw	62
  1491  08AE  3400               	retlw	0
  1492  08AF  3400               	retlw	0
  1493  08B0  3400               	retlw	0
  1494  08B1  3400               	retlw	0
  1495  08B2  3442               	retlw	66
  1496  08B3  347F               	retlw	127
  1497  08B4  3440               	retlw	64
  1498  08B5  3400               	retlw	0
  1499  08B6  3400               	retlw	0
  1500  08B7  3400               	retlw	0
  1501  08B8  3400               	retlw	0
  1502  08B9  3462               	retlw	98
  1503  08BA  3451               	retlw	81
  1504  08BB  3449               	retlw	73
  1505  08BC  3449               	retlw	73
  1506  08BD  3446               	retlw	70
  1507  08BE  3400               	retlw	0
  1508  08BF  3400               	retlw	0
  1509  08C0  3400               	retlw	0
  1510  08C1  3422               	retlw	34
  1511  08C2  3441               	retlw	65
  1512  08C3  3449               	retlw	73
  1513  08C4  3449               	retlw	73
  1514  08C5  3436               	retlw	54
  1515  08C6  3400               	retlw	0
  1516  08C7  3400               	retlw	0
  1517  08C8  3400               	retlw	0
  1518  08C9  3418               	retlw	24
  1519  08CA  3414               	retlw	20
  1520  08CB  3412               	retlw	18
  1521  08CC  347F               	retlw	127
  1522  08CD  3410               	retlw	16
  1523  08CE  3400               	retlw	0
  1524  08CF  3400               	retlw	0
  1525  08D0  3400               	retlw	0
  1526  08D1  3427               	retlw	39
  1527  08D2  3445               	retlw	69
  1528  08D3  3445               	retlw	69
  1529  08D4  3445               	retlw	69
  1530  08D5  3439               	retlw	57
  1531  08D6  3400               	retlw	0
  1532  08D7  3400               	retlw	0
  1533  08D8  3400               	retlw	0
  1534  08D9  343C               	retlw	60
  1535  08DA  344A               	retlw	74
  1536  08DB  3449               	retlw	73
  1537  08DC  3449               	retlw	73
  1538  08DD  3430               	retlw	48
  1539  08DE  3400               	retlw	0
  1540  08DF  3400               	retlw	0
  1541  08E0  3400               	retlw	0
  1542  08E1  3401               	retlw	1
  1543  08E2  3471               	retlw	113
  1544  08E3  3409               	retlw	9
  1545  08E4  3405               	retlw	5
  1546  08E5  3403               	retlw	3
  1547  08E6  3400               	retlw	0
  1548  08E7  3400               	retlw	0
  1549  08E8  3400               	retlw	0
  1550  08E9  3436               	retlw	54
  1551  08EA  3449               	retlw	73
  1552  08EB  3449               	retlw	73
  1553  08EC  3449               	retlw	73
  1554  08ED  3436               	retlw	54
  1555  08EE  3400               	retlw	0
  1556  08EF  3400               	retlw	0
  1557  08F0  3400               	retlw	0
  1558  08F1  3406               	retlw	6
  1559  08F2  3449               	retlw	73
  1560  08F3  3449               	retlw	73
  1561  08F4  3429               	retlw	41
  1562  08F5  341E               	retlw	30
  1563  08F6  3400               	retlw	0
  1564  08F7  3400               	retlw	0
  1565  08F8  3400               	retlw	0
  1566  08F9  3400               	retlw	0
  1567  08FA  3436               	retlw	54
  1568  08FB  3436               	retlw	54
  1569  08FC  3400               	retlw	0
  1570  08FD  3400               	retlw	0
  1571  08FE  3400               	retlw	0
  1572  08FF  3400               	retlw	0
  1573  0900  3400               	retlw	0
  1574  0901  3400               	retlw	0
  1575  0902  34AC               	retlw	172
  1576  0903  346C               	retlw	108
  1577  0904  3400               	retlw	0
  1578  0905  3400               	retlw	0
  1579  0906  3400               	retlw	0
  1580  0907  3400               	retlw	0
  1581  0908  3400               	retlw	0
  1582  0909  3408               	retlw	8
  1583  090A  3414               	retlw	20
  1584  090B  3422               	retlw	34
  1585  090C  3441               	retlw	65
  1586  090D  3400               	retlw	0
  1587  090E  3400               	retlw	0
  1588  090F  3400               	retlw	0
  1589  0910  3400               	retlw	0
  1590  0911  3414               	retlw	20
  1591  0912  3414               	retlw	20
  1592  0913  3414               	retlw	20
  1593  0914  3414               	retlw	20
  1594  0915  3414               	retlw	20
  1595  0916  3400               	retlw	0
  1596  0917  3400               	retlw	0
  1597  0918  3400               	retlw	0
  1598  0919  3441               	retlw	65
  1599  091A  3422               	retlw	34
  1600  091B  3414               	retlw	20
  1601  091C  3408               	retlw	8
  1602  091D  3400               	retlw	0
  1603  091E  3400               	retlw	0
  1604  091F  3400               	retlw	0
  1605  0920  3400               	retlw	0
  1606  0921  3402               	retlw	2
  1607  0922  3401               	retlw	1
  1608  0923  3451               	retlw	81
  1609  0924  3409               	retlw	9
  1610  0925  3406               	retlw	6
  1611  0926  3400               	retlw	0
  1612  0927  3400               	retlw	0
  1613  0928  3400               	retlw	0
  1614  0929  3432               	retlw	50
  1615  092A  3449               	retlw	73
  1616  092B  3479               	retlw	121
  1617  092C  3441               	retlw	65
  1618  092D  343E               	retlw	62
  1619  092E  3400               	retlw	0
  1620  092F  3400               	retlw	0
  1621  0930  3400               	retlw	0
  1622  0931  347E               	retlw	126
  1623  0932  3409               	retlw	9
  1624  0933  3409               	retlw	9
  1625  0934  3409               	retlw	9
  1626  0935  347E               	retlw	126
  1627  0936  3400               	retlw	0
  1628  0937  3400               	retlw	0
  1629  0938  3400               	retlw	0
  1630  0939  347F               	retlw	127
  1631  093A  3449               	retlw	73
  1632  093B  3449               	retlw	73
  1633  093C  3449               	retlw	73
  1634  093D  3436               	retlw	54
  1635  093E  3400               	retlw	0
  1636  093F  3400               	retlw	0
  1637  0940  3400               	retlw	0
  1638  0941  343E               	retlw	62
  1639  0942  3441               	retlw	65
  1640  0943  3441               	retlw	65
  1641  0944  3441               	retlw	65
  1642  0945  3422               	retlw	34
  1643  0946  3400               	retlw	0
  1644  0947  3400               	retlw	0
  1645  0948  3400               	retlw	0
  1646  0949  347F               	retlw	127
  1647  094A  3441               	retlw	65
  1648  094B  3441               	retlw	65
  1649  094C  3422               	retlw	34
  1650  094D  341C               	retlw	28
  1651  094E  3400               	retlw	0
  1652  094F  3400               	retlw	0
  1653  0950  3400               	retlw	0
  1654  0951  347F               	retlw	127
  1655  0952  3449               	retlw	73
  1656  0953  3449               	retlw	73
  1657  0954  3449               	retlw	73
  1658  0955  3441               	retlw	65
  1659  0956  3400               	retlw	0
  1660  0957  3400               	retlw	0
  1661  0958  3400               	retlw	0
  1662  0959  347F               	retlw	127
  1663  095A  3409               	retlw	9
  1664  095B  3409               	retlw	9
  1665  095C  3409               	retlw	9
  1666  095D  3401               	retlw	1
  1667  095E  3400               	retlw	0
  1668  095F  3400               	retlw	0
  1669  0960  3400               	retlw	0
  1670  0961  343E               	retlw	62
  1671  0962  3441               	retlw	65
  1672  0963  3441               	retlw	65
  1673  0964  3451               	retlw	81
  1674  0965  3472               	retlw	114
  1675  0966  3400               	retlw	0
  1676  0967  3400               	retlw	0
  1677  0968  3400               	retlw	0
  1678  0969  347F               	retlw	127
  1679  096A  3408               	retlw	8
  1680  096B  3408               	retlw	8
  1681  096C  3408               	retlw	8
  1682  096D  347F               	retlw	127
  1683  096E  3400               	retlw	0
  1684  096F  3400               	retlw	0
  1685  0970  3400               	retlw	0
  1686  0971  3441               	retlw	65
  1687  0972  347F               	retlw	127
  1688  0973  3441               	retlw	65
  1689  0974  3400               	retlw	0
  1690  0975  3400               	retlw	0
  1691  0976  3400               	retlw	0
  1692  0977  3400               	retlw	0
  1693  0978  3400               	retlw	0
  1694  0979  3420               	retlw	32
  1695  097A  3440               	retlw	64
  1696  097B  3441               	retlw	65
  1697  097C  343F               	retlw	63
  1698  097D  3401               	retlw	1
  1699  097E  3400               	retlw	0
  1700  097F  3400               	retlw	0
  1701  0980  3400               	retlw	0
  1702  0981  347F               	retlw	127
  1703  0982  3408               	retlw	8
  1704  0983  3414               	retlw	20
  1705  0984  3422               	retlw	34
  1706  0985  3441               	retlw	65
  1707  0986  3400               	retlw	0
  1708  0987  3400               	retlw	0
  1709  0988  3400               	retlw	0
  1710  0989  347F               	retlw	127
  1711  098A  3440               	retlw	64
  1712  098B  3440               	retlw	64
  1713  098C  3440               	retlw	64
  1714  098D  3440               	retlw	64
  1715  098E  3400               	retlw	0
  1716  098F  3400               	retlw	0
  1717  0990  3400               	retlw	0
  1718  0991  347F               	retlw	127
  1719  0992  3402               	retlw	2
  1720  0993  340C               	retlw	12
  1721  0994  3402               	retlw	2
  1722  0995  347F               	retlw	127
  1723  0996  3400               	retlw	0
  1724  0997  3400               	retlw	0
  1725  0998  3400               	retlw	0
  1726  0999  347F               	retlw	127
  1727  099A  3404               	retlw	4
  1728  099B  3408               	retlw	8
  1729  099C  3410               	retlw	16
  1730  099D  347F               	retlw	127
  1731  099E  3400               	retlw	0
  1732  099F  3400               	retlw	0
  1733  09A0  3400               	retlw	0
  1734  09A1  343E               	retlw	62
  1735  09A2  3441               	retlw	65
  1736  09A3  3441               	retlw	65
  1737  09A4  3441               	retlw	65
  1738  09A5  343E               	retlw	62
  1739  09A6  3400               	retlw	0
  1740  09A7  3400               	retlw	0
  1741  09A8  3400               	retlw	0
  1742  09A9  347F               	retlw	127
  1743  09AA  3409               	retlw	9
  1744  09AB  3409               	retlw	9
  1745  09AC  3409               	retlw	9
  1746  09AD  3406               	retlw	6
  1747  09AE  3400               	retlw	0
  1748  09AF  3400               	retlw	0
  1749  09B0  3400               	retlw	0
  1750  09B1  343E               	retlw	62
  1751  09B2  3441               	retlw	65
  1752  09B3  3451               	retlw	81
  1753  09B4  3421               	retlw	33
  1754  09B5  345E               	retlw	94
  1755  09B6  3400               	retlw	0
  1756  09B7  3400               	retlw	0
  1757  09B8  3400               	retlw	0
  1758  09B9  347F               	retlw	127
  1759  09BA  3409               	retlw	9
  1760  09BB  3419               	retlw	25
  1761  09BC  3429               	retlw	41
  1762  09BD  3446               	retlw	70
  1763  09BE  3400               	retlw	0
  1764  09BF  3400               	retlw	0
  1765  09C0  3400               	retlw	0
  1766  09C1  3426               	retlw	38
  1767  09C2  3449               	retlw	73
  1768  09C3  3449               	retlw	73
  1769  09C4  3449               	retlw	73
  1770  09C5  3432               	retlw	50
  1771  09C6  3400               	retlw	0
  1772  09C7  3400               	retlw	0
  1773  09C8  3400               	retlw	0
  1774  09C9  3401               	retlw	1
  1775  09CA  3401               	retlw	1
  1776  09CB  347F               	retlw	127
  1777  09CC  3401               	retlw	1
  1778  09CD  3401               	retlw	1
  1779  09CE  3400               	retlw	0
  1780  09CF  3400               	retlw	0
  1781  09D0  3400               	retlw	0
  1782  09D1  343F               	retlw	63
  1783  09D2  3440               	retlw	64
  1784  09D3  3440               	retlw	64
  1785  09D4  3440               	retlw	64
  1786  09D5  343F               	retlw	63
  1787  09D6  3400               	retlw	0
  1788  09D7  3400               	retlw	0
  1789  09D8  3400               	retlw	0
  1790  09D9  341F               	retlw	31
  1791  09DA  3420               	retlw	32
  1792  09DB  3440               	retlw	64
  1793  09DC  3420               	retlw	32
  1794  09DD  341F               	retlw	31
  1795  09DE  3400               	retlw	0
  1796  09DF  3400               	retlw	0
  1797  09E0  3400               	retlw	0
  1798  09E1  343F               	retlw	63
  1799  09E2  3440               	retlw	64
  1800  09E3  3438               	retlw	56
  1801  09E4  3440               	retlw	64
  1802  09E5  343F               	retlw	63
  1803  09E6  3400               	retlw	0
  1804  09E7  3400               	retlw	0
  1805  09E8  3400               	retlw	0
  1806  09E9  3463               	retlw	99
  1807  09EA  3414               	retlw	20
  1808  09EB  3408               	retlw	8
  1809  09EC  3414               	retlw	20
  1810  09ED  3463               	retlw	99
  1811  09EE  3400               	retlw	0
  1812  09EF  3400               	retlw	0
  1813  09F0  3400               	retlw	0
  1814  09F1  3403               	retlw	3
  1815  09F2  3404               	retlw	4
  1816  09F3  3478               	retlw	120
  1817  09F4  3404               	retlw	4
  1818  09F5  3403               	retlw	3
  1819  09F6  3400               	retlw	0
  1820  09F7  3400               	retlw	0
  1821  09F8  3400               	retlw	0
  1822  09F9  3461               	retlw	97
  1823  09FA  3451               	retlw	81
  1824  09FB  3449               	retlw	73
  1825  09FC  3445               	retlw	69
  1826  09FD  3443               	retlw	67
  1827  09FE  3400               	retlw	0
  1828  09FF  3400               	retlw	0
  1829  0A00  3400               	retlw	0
  1830  0A01  347F               	retlw	127
  1831  0A02  3441               	retlw	65
  1832  0A03  3441               	retlw	65
  1833  0A04  3400               	retlw	0
  1834  0A05  3400               	retlw	0
  1835  0A06  3400               	retlw	0
  1836  0A07  3400               	retlw	0
  1837  0A08  3400               	retlw	0
  1838  0A09  3402               	retlw	2
  1839  0A0A  3404               	retlw	4
  1840  0A0B  3408               	retlw	8
  1841  0A0C  3410               	retlw	16
  1842  0A0D  3420               	retlw	32
  1843  0A0E  3400               	retlw	0
  1844  0A0F  3400               	retlw	0
  1845  0A10  3400               	retlw	0
  1846  0A11  3441               	retlw	65
  1847  0A12  3441               	retlw	65
  1848  0A13  347F               	retlw	127
  1849  0A14  3400               	retlw	0
  1850  0A15  3400               	retlw	0
  1851  0A16  3400               	retlw	0
  1852  0A17  3400               	retlw	0
  1853  0A18  3400               	retlw	0
  1854  0A19  3404               	retlw	4
  1855  0A1A  3402               	retlw	2
  1856  0A1B  3401               	retlw	1
  1857  0A1C  3402               	retlw	2
  1858  0A1D  3404               	retlw	4
  1859  0A1E  3400               	retlw	0
  1860  0A1F  3400               	retlw	0
  1861  0A20  3400               	retlw	0
  1862  0A21  3480               	retlw	128
  1863  0A22  3480               	retlw	128
  1864  0A23  3480               	retlw	128
  1865  0A24  3480               	retlw	128
  1866  0A25  3480               	retlw	128
  1867  0A26  3400               	retlw	0
  1868  0A27  3400               	retlw	0
  1869  0A28  3400               	retlw	0
  1870  0A29  3401               	retlw	1
  1871  0A2A  3402               	retlw	2
  1872  0A2B  3404               	retlw	4
  1873  0A2C  3400               	retlw	0
  1874  0A2D  3400               	retlw	0
  1875  0A2E  3400               	retlw	0
  1876  0A2F  3400               	retlw	0
  1877  0A30  3400               	retlw	0
  1878  0A31  3420               	retlw	32
  1879  0A32  3454               	retlw	84
  1880  0A33  3454               	retlw	84
  1881  0A34  3454               	retlw	84
  1882  0A35  3478               	retlw	120
  1883  0A36  3400               	retlw	0
  1884  0A37  3400               	retlw	0
  1885  0A38  3400               	retlw	0
  1886  0A39  347F               	retlw	127
  1887  0A3A  3448               	retlw	72
  1888  0A3B  3444               	retlw	68
  1889  0A3C  3444               	retlw	68
  1890  0A3D  3438               	retlw	56
  1891  0A3E  3400               	retlw	0
  1892  0A3F  3400               	retlw	0
  1893  0A40  3400               	retlw	0
  1894  0A41  3438               	retlw	56
  1895  0A42  3444               	retlw	68
  1896  0A43  3444               	retlw	68
  1897  0A44  3428               	retlw	40
  1898  0A45  3400               	retlw	0
  1899  0A46  3400               	retlw	0
  1900  0A47  3400               	retlw	0
  1901  0A48  3400               	retlw	0
  1902  0A49  3438               	retlw	56
  1903  0A4A  3444               	retlw	68
  1904  0A4B  3444               	retlw	68
  1905  0A4C  3448               	retlw	72
  1906  0A4D  347F               	retlw	127
  1907  0A4E  3400               	retlw	0
  1908  0A4F  3400               	retlw	0
  1909  0A50  3400               	retlw	0
  1910  0A51  3438               	retlw	56
  1911  0A52  3454               	retlw	84
  1912  0A53  3454               	retlw	84
  1913  0A54  3454               	retlw	84
  1914  0A55  3418               	retlw	24
  1915  0A56  3400               	retlw	0
  1916  0A57  3400               	retlw	0
  1917  0A58  3400               	retlw	0
  1918  0A59  3408               	retlw	8
  1919  0A5A  347E               	retlw	126
  1920  0A5B  3409               	retlw	9
  1921  0A5C  3402               	retlw	2
  1922  0A5D  3400               	retlw	0
  1923  0A5E  3400               	retlw	0
  1924  0A5F  3400               	retlw	0
  1925  0A60  3400               	retlw	0
  1926  0A61  3418               	retlw	24
  1927  0A62  34A4               	retlw	164
  1928  0A63  34A4               	retlw	164
  1929  0A64  34A4               	retlw	164
  1930  0A65  347C               	retlw	124
  1931  0A66  3400               	retlw	0
  1932  0A67  3400               	retlw	0
  1933  0A68  3400               	retlw	0
  1934  0A69  347F               	retlw	127
  1935  0A6A  3408               	retlw	8
  1936  0A6B  3404               	retlw	4
  1937  0A6C  3404               	retlw	4
  1938  0A6D  3478               	retlw	120
  1939  0A6E  3400               	retlw	0
  1940  0A6F  3400               	retlw	0
  1941  0A70  3400               	retlw	0
  1942  0A71  3400               	retlw	0
  1943  0A72  347D               	retlw	125
  1944  0A73  3400               	retlw	0
  1945  0A74  3400               	retlw	0
  1946  0A75  3400               	retlw	0
  1947  0A76  3400               	retlw	0
  1948  0A77  3400               	retlw	0
  1949  0A78  3400               	retlw	0
  1950  0A79  3480               	retlw	128
  1951  0A7A  3484               	retlw	132
  1952  0A7B  347D               	retlw	125
  1953  0A7C  3400               	retlw	0
  1954  0A7D  3400               	retlw	0
  1955  0A7E  3400               	retlw	0
  1956  0A7F  3400               	retlw	0
  1957  0A80  3400               	retlw	0
  1958  0A81  347F               	retlw	127
  1959  0A82  3410               	retlw	16
  1960  0A83  3428               	retlw	40
  1961  0A84  3444               	retlw	68
  1962  0A85  3400               	retlw	0
  1963  0A86  3400               	retlw	0
  1964  0A87  3400               	retlw	0
  1965  0A88  3400               	retlw	0
  1966  0A89  3441               	retlw	65
  1967  0A8A  347F               	retlw	127
  1968  0A8B  3440               	retlw	64
  1969  0A8C  3400               	retlw	0
  1970  0A8D  3400               	retlw	0
  1971  0A8E  3400               	retlw	0
  1972  0A8F  3400               	retlw	0
  1973  0A90  3400               	retlw	0
  1974  0A91  347C               	retlw	124
  1975  0A92  3404               	retlw	4
  1976  0A93  3418               	retlw	24
  1977  0A94  3404               	retlw	4
  1978  0A95  3478               	retlw	120
  1979  0A96  3400               	retlw	0
  1980  0A97  3400               	retlw	0
  1981  0A98  3400               	retlw	0
  1982  0A99  347C               	retlw	124
  1983  0A9A  3408               	retlw	8
  1984  0A9B  3404               	retlw	4
  1985  0A9C  347C               	retlw	124
  1986  0A9D  3400               	retlw	0
  1987  0A9E  3400               	retlw	0
  1988  0A9F  3400               	retlw	0
  1989  0AA0  3400               	retlw	0
  1990  0AA1  3438               	retlw	56
  1991  0AA2  3444               	retlw	68
  1992  0AA3  3444               	retlw	68
  1993  0AA4  3438               	retlw	56
  1994  0AA5  3400               	retlw	0
  1995  0AA6  3400               	retlw	0
  1996  0AA7  3400               	retlw	0
  1997  0AA8  3400               	retlw	0
  1998  0AA9  34FC               	retlw	252
  1999  0AAA  3424               	retlw	36
  2000  0AAB  3424               	retlw	36
  2001  0AAC  3418               	retlw	24
  2002  0AAD  3400               	retlw	0
  2003  0AAE  3400               	retlw	0
  2004  0AAF  3400               	retlw	0
  2005  0AB0  3400               	retlw	0
  2006  0AB1  3418               	retlw	24
  2007  0AB2  3424               	retlw	36
  2008  0AB3  3424               	retlw	36
  2009  0AB4  34FC               	retlw	252
  2010  0AB5  3400               	retlw	0
  2011  0AB6  3400               	retlw	0
  2012  0AB7  3400               	retlw	0
  2013  0AB8  3400               	retlw	0
  2014  0AB9  3400               	retlw	0
  2015  0ABA  347C               	retlw	124
  2016  0ABB  3408               	retlw	8
  2017  0ABC  3404               	retlw	4
  2018  0ABD  3400               	retlw	0
  2019  0ABE  3400               	retlw	0
  2020  0ABF  3400               	retlw	0
  2021  0AC0  3400               	retlw	0
  2022  0AC1  3448               	retlw	72
  2023  0AC2  3454               	retlw	84
  2024  0AC3  3454               	retlw	84
  2025  0AC4  3424               	retlw	36
  2026  0AC5  3400               	retlw	0
  2027  0AC6  3400               	retlw	0
  2028  0AC7  3400               	retlw	0
  2029  0AC8  3400               	retlw	0
  2030  0AC9  3404               	retlw	4
  2031  0ACA  347F               	retlw	127
  2032  0ACB  3444               	retlw	68
  2033  0ACC  3400               	retlw	0
  2034  0ACD  3400               	retlw	0
  2035  0ACE  3400               	retlw	0
  2036  0ACF  3400               	retlw	0
  2037  0AD0  3400               	retlw	0
  2038  0AD1  343C               	retlw	60
  2039  0AD2  3440               	retlw	64
  2040  0AD3  3440               	retlw	64
  2041  0AD4  347C               	retlw	124
  2042  0AD5  3400               	retlw	0
  2043  0AD6  3400               	retlw	0
  2044  0AD7  3400               	retlw	0
  2045  0AD8  3400               	retlw	0
  2046  0AD9  341C               	retlw	28
  2047  0ADA  3420               	retlw	32
  2048  0ADB  3440               	retlw	64
  2049  0ADC  3420               	retlw	32
  2050  0ADD  341C               	retlw	28
  2051  0ADE  3400               	retlw	0
  2052  0ADF  3400               	retlw	0
  2053  0AE0  3400               	retlw	0
  2054  0AE1  343C               	retlw	60
  2055  0AE2  3440               	retlw	64
  2056  0AE3  3430               	retlw	48
  2057  0AE4  3440               	retlw	64
  2058  0AE5  343C               	retlw	60
  2059  0AE6  3400               	retlw	0
  2060  0AE7  3400               	retlw	0
  2061  0AE8  3400               	retlw	0
  2062  0AE9  3444               	retlw	68
  2063  0AEA  3428               	retlw	40
  2064  0AEB  3410               	retlw	16
  2065  0AEC  3428               	retlw	40
  2066  0AED  3444               	retlw	68
  2067  0AEE  3400               	retlw	0
  2068  0AEF  3400               	retlw	0
  2069  0AF0  3400               	retlw	0
  2070  0AF1  341C               	retlw	28
  2071  0AF2  34A0               	retlw	160
  2072  0AF3  34A0               	retlw	160
  2073  0AF4  347C               	retlw	124
  2074  0AF5  3400               	retlw	0
  2075  0AF6  3400               	retlw	0
  2076  0AF7  3400               	retlw	0
  2077  0AF8  3400               	retlw	0
  2078  0AF9  3444               	retlw	68
  2079  0AFA  3464               	retlw	100
  2080  0AFB  3454               	retlw	84
  2081  0AFC  344C               	retlw	76
  2082  0AFD  3444               	retlw	68
  2083  0AFE  3400               	retlw	0
  2084  0AFF  3400               	retlw	0
  2085  0B00  3400               	retlw	0
  2086  0B01  3408               	retlw	8
  2087  0B02  3436               	retlw	54
  2088  0B03  3441               	retlw	65
  2089  0B04  3400               	retlw	0
  2090  0B05  3400               	retlw	0
  2091  0B06  3400               	retlw	0
  2092  0B07  3400               	retlw	0
  2093  0B08  3400               	retlw	0
  2094  0B09  3400               	retlw	0
  2095  0B0A  347F               	retlw	127
  2096  0B0B  3400               	retlw	0
  2097  0B0C  3400               	retlw	0
  2098  0B0D  3400               	retlw	0
  2099  0B0E  3400               	retlw	0
  2100  0B0F  3400               	retlw	0
  2101  0B10  3400               	retlw	0
  2102  0B11  3441               	retlw	65
  2103  0B12  3436               	retlw	54
  2104  0B13  3408               	retlw	8
  2105  0B14  3400               	retlw	0
  2106  0B15  3400               	retlw	0
  2107  0B16  3400               	retlw	0
  2108  0B17  3400               	retlw	0
  2109  0B18  3400               	retlw	0
  2110  0B19  3402               	retlw	2
  2111  0B1A  3401               	retlw	1
  2112  0B1B  3401               	retlw	1
  2113  0B1C  3402               	retlw	2
  2114  0B1D  3401               	retlw	1
  2115  0B1E  3400               	retlw	0
  2116  0B1F  3400               	retlw	0
  2117  0B20  3400               	retlw	0
  2118  0B21  3402               	retlw	2
  2119  0B22  3405               	retlw	5
  2120  0B23  3405               	retlw	5
  2121  0B24  3402               	retlw	2
  2122  0B25  3400               	retlw	0
  2123  0B26  3400               	retlw	0
  2124  0B27  3400               	retlw	0
  2125  0B28                     __end_of_OledFont:	
  2126  0011                     _PIR1bits	set	17
  2127  009C                     _ADRESH	set	156
  2128  009B                     _ADRESL	set	155
  2129  009D                     _ADCON0bits	set	157
  2130  009E                     _ADCON1bits	set	158
  2131  008E                     _TRISCbits	set	142
  2132  04CF                     _SPLLEN	set	1231
  2133  04CE                     _IRCF3	set	1230
  2134  04CD                     _IRCF2	set	1229
  2135  04CC                     _IRCF1	set	1228
  2136  04CB                     _IRCF0	set	1227
  2137  04C9                     _SCS1	set	1225
  2138  04C8                     _SCS0	set	1224
  2139  0190                     _ANSELEbits	set	400
  2140  018E                     _ANSELCbits	set	398
  2141  0216                     _SSPCON2bits	set	534
  2142  0211                     _SSPBUF	set	529
  2143  0212                     _SSPADD	set	530
  2144  0215                     _SSPCONbits	set	533
  2145  0E20                     _SSPCLKPPSbits	set	3616
  2146  0E21                     _SSPDATPPSbits	set	3617
  2147  0E0F                     _PPSLOCKbits	set	3599
  2148  0E0F                     _PPSLOCK	set	3599
  2149  0EA5                     _RC5PPSbits	set	3749
  2150  0EA4                     _RC4PPSbits	set	3748
  2151  0B28                     STR_4:	
  2152  0B28  3425               	retlw	37	;'%'
  2153  0B29  346C               	retlw	108	;'l'
  2154  0B2A  3475               	retlw	117	;'u'
  2155  0B2B  342E               	retlw	46	;'.'
  2156  0B2C  3425               	retlw	37	;'%'
  2157  0B2D  3436               	retlw	54	;'6'
  2158  0B2E  342E               	retlw	46	;'.'
  2159  0B2F  3436               	retlw	54	;'6'
  2160  0B30  346C               	retlw	108	;'l'
  2161  0B31  3475               	retlw	117	;'u'
  2162  0B32  3400               	retlw	0
  2163  0B33                     STR_1:	
  2164  0B33  3454               	retlw	84	;'T'
  2165  0B34  3465               	retlw	101	;'e'
  2166  0B35  346D               	retlw	109	;'m'
  2167  0B36  3470               	retlw	112	;'p'
  2168  0B37  343A               	retlw	58	;':'
  2169  0B38  3420               	retlw	32	;' '
  2170  0B39  3400               	retlw	0
  2171  0B3A                     STR_2:	
  2172  0B3A  3420               	retlw	32	;' '
  2173  0B3B  3420               	retlw	32	;' '
  2174  0B3C  3420               	retlw	32	;' '
  2175  0B3D  3420               	retlw	32	;' '
  2176  0B3E  3420               	retlw	32	;' '
  2177  0B3F  3400               	retlw	0
  2178  0B3A                     
  2179                           ; #config settings
  2180  0000                     
  2181                           	psect	cinit
  2182  07F6                     start_initialization:	
  2183  07F6                     __initialization:	
  2184                           
  2185                           ; Clear objects allocated to BANK0
  2186  07F6  3058               	movlw	low __pbssBANK0
  2187  07F7  0084               	movwf	4
  2188  07F8  3000               	movlw	high __pbssBANK0
  2189  07F9  0085               	movwf	5
  2190  07FA  3011               	movlw	17
  2191  07FB  3180  2080         	fcall	clear_ram0
  2192  07FD                     end_of_initialization:	
  2193                           ;End of C runtime variable initialization code
  2194                           
  2195  07FD                     __end_of__initialization:	
  2196  07FD  0020               	movlb	0
  2197  07FE  3186  2E31         	ljmp	_main	;jump to C main() function
  2198                           
  2199                           	psect	bssBANK0
  2200  0058                     __pbssBANK0:	
  2201  0058                     ftoa@buf:	
  2202  0058                     	ds	17
  2203                           
  2204                           	psect	clrtext
  2205  0080                     clear_ram0:	
  2206                           ;	Called with FSR0 containing the base address, and
  2207                           ;	WREG with the size to clear
  2208                           
  2209  0080  0064               	clrwdt	;clear the watchdog before getting into this loop
  2210  0081                     clrloop0:	
  2211  0081  0180               	clrf	0	;clear RAM location pointed to by FSR
  2212  0082  3101               	addfsr 0,1
  2213  0083  0B89               	decfsz	9,f	;Have we reached the end of clearing yet?
  2214  0084  2881               	goto	clrloop0	;have we reached the end yet?
  2215  0085  3400               	retlw	0	;all done for this memory range, return
  2216                           
  2217                           	psect	cstackCOMMON
  2218  0070                     __pcstackCOMMON:	
  2219  0070                     ?_OLED_Init:	
  2220  0070                     ?_OLED_Clear:	
  2221                           ; 1 bytes @ 0x0
  2222                           
  2223  0070                     ?_OLED_Write_Integer:	
  2224                           ; 1 bytes @ 0x0
  2225                           
  2226  0070                     ?_memmove:	
  2227                           ; 1 bytes @ 0x0
  2228                           
  2229  0070                     ?_internal_16:	
  2230                           ; 1 bytes @ 0x0
  2231                           
  2232  0070                     ??_internal_16:	
  2233                           ; 1 bytes @ 0x0
  2234                           
  2235  0070                     ?_I2C_Init:	
  2236                           ; 1 bytes @ 0x0
  2237                           
  2238  0070                     ??_I2C_Init:	
  2239                           ; 1 bytes @ 0x0
  2240                           
  2241  0070                     ?_Send_I2C_Data:	
  2242                           ; 1 bytes @ 0x0
  2243                           
  2244  0070                     ?_Send_I2C_StartBit:	
  2245                           ; 1 bytes @ 0x0
  2246                           
  2247  0070                     ??_Send_I2C_StartBit:	
  2248                           ; 1 bytes @ 0x0
  2249                           
  2250  0070                     ?_Send_I2C_StopBit:	
  2251                           ; 1 bytes @ 0x0
  2252                           
  2253  0070                     ??_Send_I2C_StopBit:	
  2254                           ; 1 bytes @ 0x0
  2255                           
  2256  0070                     ?_initMain:	
  2257                           ; 1 bytes @ 0x0
  2258                           
  2259  0070                     ??_initMain:	
  2260                           ; 1 bytes @ 0x0
  2261                           
  2262  0070                     ?_main:	
  2263                           ; 1 bytes @ 0x0
  2264                           
  2265  0070                     ?_OLED_Command:	
  2266                           ; 1 bytes @ 0x0
  2267                           
  2268  0070                     ?_OLED_PutChar:	
  2269                           ; 1 bytes @ 0x0
  2270                           
  2271  0070                     ?___lwdiv:	
  2272                           ; 1 bytes @ 0x0
  2273                           
  2274  0070                     ?___lwmod:	
  2275                           ; 2 bytes @ 0x0
  2276                           
  2277  0070                     ?___ftpack:	
  2278                           ; 2 bytes @ 0x0
  2279                           
  2280  0070                     ?___fttol:	
  2281                           ; 3 bytes @ 0x0
  2282                           
  2283  0070                     Send_I2C_Data@databyte:	
  2284                           ; 4 bytes @ 0x0
  2285                           
  2286  0070                     ___lwdiv@divisor:	
  2287                           ; 2 bytes @ 0x0
  2288                           
  2289  0070                     ___lwmod@divisor:	
  2290                           ; 2 bytes @ 0x0
  2291                           
  2292  0070                     memmove@s1:	
  2293                           ; 2 bytes @ 0x0
  2294                           
  2295  0070                     ___ftpack@arg:	
  2296                           ; 2 bytes @ 0x0
  2297                           
  2298  0070                     ___fttol@f1:	
  2299                           ; 3 bytes @ 0x0
  2300                           
  2301                           
  2302                           ; 3 bytes @ 0x0
  2303  0070                     	ds	2
  2304  0072                     ??_Send_I2C_Data:	
  2305  0072                     ??_OLED_Command:	
  2306                           ; 1 bytes @ 0x2
  2307                           
  2308  0072                     ___lwdiv@dividend:	
  2309                           ; 1 bytes @ 0x2
  2310                           
  2311  0072                     ___lwmod@dividend:	
  2312                           ; 2 bytes @ 0x2
  2313                           
  2314  0072                     memmove@n:	
  2315                           ; 2 bytes @ 0x2
  2316                           
  2317                           
  2318                           ; 2 bytes @ 0x2
  2319  0072                     	ds	1
  2320  0073                     ___ftpack@exp:	
  2321                           
  2322                           ; 1 bytes @ 0x3
  2323  0073                     	ds	1
  2324  0074                     ??_memmove:	
  2325  0074                     ??___fttol:	
  2326                           ; 1 bytes @ 0x4
  2327                           
  2328  0074                     ??___lwdiv:	
  2329                           ; 1 bytes @ 0x4
  2330                           
  2331  0074                     ??___lwmod:	
  2332                           ; 1 bytes @ 0x4
  2333                           
  2334  0074                     OLED_Command@temp:	
  2335                           ; 1 bytes @ 0x4
  2336                           
  2337  0074                     ___ftpack@sign:	
  2338                           ; 1 bytes @ 0x4
  2339                           
  2340                           
  2341                           ; 1 bytes @ 0x4
  2342  0074                     	ds	1
  2343  0075                     ??_OLED_Init:	
  2344  0075                     ?_OLED_YX:	
  2345                           ; 1 bytes @ 0x5
  2346                           
  2347  0075                     ??___ftpack:	
  2348                           ; 1 bytes @ 0x5
  2349                           
  2350  0075                     OLED_YX@Column:	
  2351                           ; 1 bytes @ 0x5
  2352                           
  2353  0075                     ___lwmod@counter:	
  2354                           ; 1 bytes @ 0x5
  2355                           
  2356  0075                     ___lwdiv@quotient:	
  2357                           ; 1 bytes @ 0x5
  2358                           
  2359                           
  2360                           ; 2 bytes @ 0x5
  2361  0075                     	ds	1
  2362  0076                     ??_OLED_YX:	
  2363                           
  2364                           ; 1 bytes @ 0x6
  2365  0076                     	ds	1
  2366  0077                     ___lwdiv@counter:	
  2367                           
  2368                           ; 1 bytes @ 0x7
  2369  0077                     	ds	1
  2370  0078                     ?_utoa:	
  2371  0078                     ?___awtoft:	
  2372                           ; 1 bytes @ 0x8
  2373                           
  2374  0078                     ?___ftadd:	
  2375                           ; 3 bytes @ 0x8
  2376                           
  2377  0078                     ___fttol@sign1:	
  2378                           ; 3 bytes @ 0x8
  2379                           
  2380  0078                     memmove@d1:	
  2381                           ; 1 bytes @ 0x8
  2382                           
  2383  0078                     ___awtoft@c:	
  2384                           ; 1 bytes @ 0x8
  2385                           
  2386  0078                     utoa@val:	
  2387                           ; 2 bytes @ 0x8
  2388                           
  2389  0078                     ___ftadd@f1:	
  2390                           ; 2 bytes @ 0x8
  2391                           
  2392                           
  2393                           ; 3 bytes @ 0x8
  2394  0078                     	ds	1
  2395  0079                     OLED_YX@Row:	
  2396  0079                     memmove@s:	
  2397                           ; 1 bytes @ 0x9
  2398                           
  2399  0079                     ___fttol@lval:	
  2400                           ; 2 bytes @ 0x9
  2401                           
  2402                           
  2403                           ; 4 bytes @ 0x9
  2404  0079                     	ds	1
  2405  007A                     utoa@base:	
  2406                           
  2407                           ; 2 bytes @ 0xA
  2408  007A                     	ds	1
  2409  007B                     ??___awtoft:	
  2410  007B                     memmove@d:	
  2411                           ; 1 bytes @ 0xB
  2412                           
  2413  007B                     ___ftadd@f2:	
  2414                           ; 1 bytes @ 0xB
  2415                           
  2416                           
  2417                           ; 3 bytes @ 0xB
  2418  007B                     	ds	1
  2419  007C                     ??_OLED_Clear:	
  2420  007C                     ?_OLED_Write_String:	
  2421                           ; 1 bytes @ 0xC
  2422                           
  2423  007C                     ??_utoa:	
  2424                           ; 1 bytes @ 0xC
  2425                           
  2426  007C                     OLED_Write_String@s:	
  2427                           ; 1 bytes @ 0xC
  2428                           
  2429                           
  2430                           ; 2 bytes @ 0xC
  2431  007C                     	ds	1
  2432  007D                     ??_itoa:	
  2433  007D                     ___awtoft@sign:	
  2434                           ; 1 bytes @ 0xD
  2435                           
  2436  007D                     ___fttol@exp1:	
  2437                           ; 1 bytes @ 0xD
  2438                           
  2439                           
  2440                           ; 1 bytes @ 0xD
  2441  007D                     	ds	1
  2442                           
  2443                           	psect	cstackBANK0
  2444  0020                     __pcstackBANK0:	
  2445  0020                     ??_OLED_PutChar:	
  2446  0020                     ??___ftadd:	
  2447                           ; 1 bytes @ 0x0
  2448                           
  2449  0020                     utoa@v:	
  2450                           ; 1 bytes @ 0x0
  2451                           
  2452                           
  2453                           ; 2 bytes @ 0x0
  2454  0020                     	ds	2
  2455  0022                     utoa@c:	
  2456                           
  2457                           ; 1 bytes @ 0x2
  2458  0022                     	ds	1
  2459  0023                     utoa@buf:	
  2460                           
  2461                           ; 1 bytes @ 0x3
  2462  0023                     	ds	1
  2463  0024                     ?_itoa:	
  2464  0024                     ___ftadd@sign:	
  2465                           ; 1 bytes @ 0x4
  2466                           
  2467  0024                     itoa@val:	
  2468                           ; 1 bytes @ 0x4
  2469                           
  2470                           
  2471                           ; 2 bytes @ 0x4
  2472  0024                     	ds	1
  2473  0025                     ___ftadd@exp2:	
  2474                           
  2475                           ; 1 bytes @ 0x5
  2476  0025                     	ds	1
  2477  0026                     ___ftadd@exp1:	
  2478  0026                     itoa@base:	
  2479                           ; 1 bytes @ 0x6
  2480                           
  2481  0026                     OLED_PutChar@bytes:	
  2482                           ; 2 bytes @ 0x6
  2483                           
  2484                           
  2485                           ; 9 bytes @ 0x6
  2486  0026                     	ds	1
  2487  0027                     ?___ftmul:	
  2488  0027                     ___ftmul@f1:	
  2489                           ; 3 bytes @ 0x7
  2490                           
  2491                           
  2492                           ; 3 bytes @ 0x7
  2493  0027                     	ds	1
  2494  0028                     itoa@cp:	
  2495                           
  2496                           ; 1 bytes @ 0x8
  2497  0028                     	ds	1
  2498  0029                     itoa@buf:	
  2499                           
  2500                           ; 1 bytes @ 0x9
  2501  0029                     	ds	1
  2502  002A                     ___ftmul@f2:	
  2503                           
  2504                           ; 3 bytes @ 0xA
  2505  002A                     	ds	3
  2506  002D                     ??___ftmul:	
  2507                           
  2508                           ; 1 bytes @ 0xD
  2509  002D                     	ds	2
  2510  002F                     OLED_PutChar@base:	
  2511                           
  2512                           ; 2 bytes @ 0xF
  2513  002F                     	ds	2
  2514  0031                     ___ftmul@exp:	
  2515  0031                     OLED_PutChar@i:	
  2516                           ; 1 bytes @ 0x11
  2517                           
  2518                           
  2519                           ; 2 bytes @ 0x11
  2520  0031                     	ds	1
  2521  0032                     ___ftmul@f3_as_product:	
  2522                           
  2523                           ; 3 bytes @ 0x12
  2524  0032                     	ds	1
  2525  0033                     OLED_PutChar@ch:	
  2526                           
  2527                           ; 1 bytes @ 0x13
  2528  0033                     	ds	1
  2529  0034                     ??_OLED_Write_String:	
  2530  0034                     OLED_Clear@row:	
  2531                           ; 1 bytes @ 0x14
  2532                           
  2533                           
  2534                           ; 2 bytes @ 0x14
  2535  0034                     	ds	1
  2536  0035                     ??_OLED_Write_Integer:	
  2537  0035                     ___ftmul@cntr:	
  2538                           ; 1 bytes @ 0x15
  2539                           
  2540                           
  2541                           ; 1 bytes @ 0x15
  2542  0035                     	ds	1
  2543  0036                     ___ftmul@sign:	
  2544  0036                     OLED_Clear@col:	
  2545                           ; 1 bytes @ 0x16
  2546                           
  2547                           
  2548                           ; 2 bytes @ 0x16
  2549  0036                     	ds	1
  2550  0037                     ?___ftdiv:	
  2551  0037                     ___ftdiv@f2:	
  2552                           ; 3 bytes @ 0x17
  2553                           
  2554                           
  2555                           ; 3 bytes @ 0x17
  2556  0037                     	ds	1
  2557  0038                     OLED_Write_Integer@i:	
  2558                           
  2559                           ; 1 bytes @ 0x18
  2560  0038                     	ds	1
  2561  0039                     OLED_Write_Integer@buff11:	
  2562                           
  2563                           ; 1 bytes @ 0x19
  2564  0039                     	ds	1
  2565  003A                     OLED_Write_Integer@status:	
  2566  003A                     ___ftdiv@f1:	
  2567                           ; 2 bytes @ 0x1A
  2568                           
  2569                           
  2570                           ; 3 bytes @ 0x1A
  2571  003A                     	ds	3
  2572  003D                     ??___ftdiv:	
  2573                           
  2574                           ; 1 bytes @ 0x1D
  2575  003D                     	ds	4
  2576  0041                     ___ftdiv@cntr:	
  2577                           
  2578                           ; 1 bytes @ 0x21
  2579  0041                     	ds	1
  2580  0042                     ___ftdiv@f3:	
  2581                           
  2582                           ; 3 bytes @ 0x22
  2583  0042                     	ds	3
  2584  0045                     ___ftdiv@exp:	
  2585                           
  2586                           ; 1 bytes @ 0x25
  2587  0045                     	ds	1
  2588  0046                     ___ftdiv@sign:	
  2589                           
  2590                           ; 1 bytes @ 0x26
  2591  0046                     	ds	1
  2592  0047                     ??_main:	
  2593                           
  2594                           ; 1 bytes @ 0x27
  2595  0047                     	ds	5
  2596  004C                     main@result:	
  2597                           
  2598                           ; 3 bytes @ 0x2C
  2599  004C                     	ds	3
  2600  004F                     main@conversion10:	
  2601                           
  2602                           ; 3 bytes @ 0x2F
  2603  004F                     	ds	3
  2604  0052                     main@farenheit:	
  2605                           
  2606                           ; 3 bytes @ 0x32
  2607  0052                     	ds	3
  2608  0055                     main@celsius:	
  2609                           
  2610                           ; 3 bytes @ 0x35
  2611  0055                     	ds	3
  2612                           
  2613                           	psect	maintext
  2614  0631                     __pmaintext:	
  2615 ;;
  2616 ;;Main: autosize = 0, tempsize = 5, incstack = 0, save=0
  2617 ;;
  2618 ;; *************** function _main *****************
  2619 ;; Defined at:
  2620 ;;		line 105 in file "Main.c"
  2621 ;; Parameters:    Size  Location     Type
  2622 ;;		None
  2623 ;; Auto vars:     Size  Location     Type
  2624 ;;  celsius         3   53[BANK0 ] float 
  2625 ;;  farenheit       3   50[BANK0 ] float 
  2626 ;;  conversion10    3   47[BANK0 ] float 
  2627 ;;  result          3   44[BANK0 ] float 
  2628 ;; Return value:  Size  Location     Type
  2629 ;;                  1    wreg      void 
  2630 ;; Registers used:
  2631 ;;		wreg, fsr0l, fsr0h, fsr1l, fsr1h, status,2, status,0, pclath, cstack
  2632 ;; Tracked objects:
  2633 ;;		On entry : B1F/0
  2634 ;;		On exit  : 0/0
  2635 ;;		Unchanged: 0/0
  2636 ;; Data sizes:     COMMON   BANK0   BANK1   BANK2   BANK3   BANK4   BANK5   BANK6   BANK7   BANK8   BANK9  BANK10  BANK1
      +1  BANK12
  2637 ;;      Params:         0       0       0       0       0       0       0       0       0       0       0       0       
      +0       0
  2638 ;;      Locals:         0      12       0       0       0       0       0       0       0       0       0       0       
      +0       0
  2639 ;;      Temps:          0       5       0       0       0       0       0       0       0       0       0       0       
      +0       0
  2640 ;;      Totals:         0      17       0       0       0       0       0       0       0       0       0       0       
      +0       0
  2641 ;;Total ram usage:       17 bytes
  2642 ;; Hardware stack levels required when called:    4
  2643 ;; This function calls:
  2644 ;;		_I2C_Init
  2645 ;;		_OLED_Clear
  2646 ;;		_OLED_Init
  2647 ;;		_OLED_Write_Integer
  2648 ;;		_OLED_Write_String
  2649 ;;		_OLED_YX
  2650 ;;		___awtoft
  2651 ;;		___ftadd
  2652 ;;		___ftdiv
  2653 ;;		___ftmul
  2654 ;;		___fttol
  2655 ;;		_initMain
  2656 ;; This function is called by:
  2657 ;;		Startup code after reset
  2658 ;; This function uses a non-reentrant model
  2659 ;;
  2660                           
  2661                           
  2662                           ;psect for function _main
  2663  0631                     _main:	
  2664                           
  2665                           ;Main.c: 106: initMain();
  2666                           
  2667                           ;incstack = 0
  2668                           ; Regs used in _main: [wreg-fsr1h+status,2+status,0+pclath+cstack]
  2669  0631  3182  220B  3186   	fcall	_initMain
  2670                           
  2671                           ;Main.c: 109: I2C_Init();
  2672  0634  3180  20A8  3186   	fcall	_I2C_Init
  2673                           
  2674                           ;Main.c: 112: OLED_Init();
  2675  0637  3182  22A7  3186   	fcall	_OLED_Init
  2676                           
  2677                           ;Main.c: 115: OLED_Clear();
  2678  063A  3181  21A7  3186   	fcall	_OLED_Clear
  2679  063D                     l1748:	
  2680                           ;Main.c: 118: float result;
  2681                           ;Main.c: 121: float conversion10;
  2682                           ;Main.c: 122: float farenheit;
  2683                           ;Main.c: 123: float celsius;
  2684                           ;Main.c: 125: while(1){
  2685                           
  2686                           
  2687                           ;Main.c: 128: ADCON0bits.ADON = 1;
  2688  063D  0021               	movlb	1	; select bank1
  2689  063E  141D               	bsf	29,0	;volatile
  2690                           
  2691                           ;Main.c: 131: _delay((unsigned long)((10)*(16000000/4000000.0)));
  2692  063F  300D               	movlw	13
  2693  0640                     u2117:	
  2694  0640  0B89               	decfsz	9,f
  2695  0641  2E40               	goto	u2117
  2696  0642  0000               	nop
  2697                           
  2698                           ;Main.c: 132: ADCON0bits.GO = 1;
  2699  0643  0021               	movlb	1	; select bank1
  2700  0644  149D               	bsf	29,1	;volatile
  2701  0645                     l141:	
  2702                           ;Main.c: 133: while (ADCON0bits.GO_nDONE);
  2703                           
  2704  0645  189D               	btfsc	29,1	;volatile
  2705  0646  2E45               	goto	l141
  2706                           
  2707                           ;Main.c: 136: result = ((ADRESH<<8)+ADRESL);
  2708  0647  081B               	movf	27,w	;volatile
  2709  0648  0020               	movlb	0	; select bank0
  2710  0649  00C7               	movwf	??_main
  2711  064A  01C8               	clrf	??_main+1
  2712  064B  0021               	movlb	1	; select bank1
  2713  064C  081C               	movf	28,w	;volatile
  2714  064D  0020               	movlb	0	; select bank0
  2715  064E  00C9               	movwf	??_main+2
  2716  064F  01CA               	clrf	??_main+3
  2717  0650  0849               	movf	??_main+2,w
  2718  0651  00CA               	movwf	??_main+3
  2719  0652  01C9               	clrf	??_main+2
  2720  0653  0847               	movf	??_main,w
  2721  0654  0749               	addwf	??_main+2,w
  2722  0655  00F8               	movwf	___awtoft@c
  2723  0656  0848               	movf	??_main+1,w
  2724  0657  3D4A               	addwfc	??_main+3,w
  2725  0658  00F9               	movwf	___awtoft@c+1
  2726  0659  3180  20EA  3186   	fcall	___awtoft
  2727  065C  0878               	movf	?___awtoft,w
  2728  065D  0020               	movlb	0	; select bank0
  2729  065E  00CC               	movwf	main@result
  2730  065F  0879               	movf	?___awtoft+1,w
  2731  0660  00CD               	movwf	main@result+1
  2732  0661  087A               	movf	?___awtoft+2,w
  2733  0662  00CE               	movwf	main@result+2
  2734                           
  2735                           ;Main.c: 139: conversion10 = (result * 5000)/1024 ;
  2736  0663  3000               	movlw	0
  2737  0664  00B7               	movwf	___ftdiv@f2
  2738  0665  3080               	movlw	128
  2739  0666  00B8               	movwf	___ftdiv@f2+1
  2740  0667  3044               	movlw	68
  2741  0668  00B9               	movwf	___ftdiv@f2+2
  2742  0669  3040               	movlw	64
  2743  066A  00A7               	movwf	___ftmul@f1
  2744  066B  309C               	movlw	156
  2745  066C  00A8               	movwf	___ftmul@f1+1
  2746  066D  3045               	movlw	69
  2747  066E  00A9               	movwf	___ftmul@f1+2
  2748  066F  084C               	movf	main@result,w
  2749  0670  00AA               	movwf	___ftmul@f2
  2750  0671  084D               	movf	main@result+1,w
  2751  0672  00AB               	movwf	___ftmul@f2+1
  2752  0673  084E               	movf	main@result+2,w
  2753  0674  00AC               	movwf	___ftmul@f2+2
  2754  0675  3185  257D  3186   	fcall	___ftmul
  2755  0678  0020               	movlb	0	; select bank0
  2756  0679  0827               	movf	?___ftmul,w
  2757  067A  00BA               	movwf	___ftdiv@f1
  2758  067B  0828               	movf	?___ftmul+1,w
  2759  067C  00BB               	movwf	___ftdiv@f1+1
  2760  067D  0829               	movf	?___ftmul+2,w
  2761  067E  00BC               	movwf	___ftdiv@f1+2
  2762  067F  3184  24D4  3186   	fcall	___ftdiv
  2763  0682  0020               	movlb	0	; select bank0
  2764  0683  0837               	movf	?___ftdiv,w
  2765  0684  00CF               	movwf	main@conversion10
  2766  0685  0838               	movf	?___ftdiv+1,w
  2767  0686  00D0               	movwf	main@conversion10+1
  2768  0687  0839               	movf	?___ftdiv+2,w
  2769  0688  00D1               	movwf	main@conversion10+2
  2770                           
  2771                           ;Main.c: 142: farenheit = conversion10 / 10;
  2772  0689  3000               	movlw	0
  2773  068A  00B7               	movwf	___ftdiv@f2
  2774  068B  3020               	movlw	32
  2775  068C  00B8               	movwf	___ftdiv@f2+1
  2776  068D  3041               	movlw	65
  2777  068E  00B9               	movwf	___ftdiv@f2+2
  2778  068F  084F               	movf	main@conversion10,w
  2779  0690  00BA               	movwf	___ftdiv@f1
  2780  0691  0850               	movf	main@conversion10+1,w
  2781  0692  00BB               	movwf	___ftdiv@f1+1
  2782  0693  0851               	movf	main@conversion10+2,w
  2783  0694  00BC               	movwf	___ftdiv@f1+2
  2784  0695  3184  24D4  3186   	fcall	___ftdiv
  2785  0698  0020               	movlb	0	; select bank0
  2786  0699  0837               	movf	?___ftdiv,w
  2787  069A  00D2               	movwf	main@farenheit
  2788  069B  0838               	movf	?___ftdiv+1,w
  2789  069C  00D3               	movwf	main@farenheit+1
  2790  069D  0839               	movf	?___ftdiv+2,w
  2791  069E  00D4               	movwf	main@farenheit+2
  2792                           
  2793                           ;Main.c: 145: celsius = (farenheit - 32) * 5/9;
  2794  069F  3000               	movlw	0
  2795  06A0  00B7               	movwf	___ftdiv@f2
  2796  06A1  3010               	movlw	16
  2797  06A2  00B8               	movwf	___ftdiv@f2+1
  2798  06A3  3041               	movlw	65
  2799  06A4  00B9               	movwf	___ftdiv@f2+2
  2800  06A5  3000               	movlw	0
  2801  06A6  00A7               	movwf	___ftmul@f1
  2802  06A7  30A0               	movlw	160
  2803  06A8  00A8               	movwf	___ftmul@f1+1
  2804  06A9  3040               	movlw	64
  2805  06AA  00A9               	movwf	___ftmul@f1+2
  2806  06AB  3000               	movlw	0
  2807  06AC  00F8               	movwf	___ftadd@f1
  2808  06AD  3000               	movlw	0
  2809  06AE  00F9               	movwf	___ftadd@f1+1
  2810  06AF  30C2               	movlw	194
  2811  06B0  00FA               	movwf	___ftadd@f1+2
  2812  06B1  0852               	movf	main@farenheit,w
  2813  06B2  00FB               	movwf	___ftadd@f2
  2814  06B3  0853               	movf	main@farenheit+1,w
  2815  06B4  00FC               	movwf	___ftadd@f2+1
  2816  06B5  0854               	movf	main@farenheit+2,w
  2817  06B6  00FD               	movwf	___ftadd@f2+2
  2818  06B7  3187  2701  3186   	fcall	___ftadd
  2819  06BA  0878               	movf	?___ftadd,w
  2820  06BB  0020               	movlb	0	; select bank0
  2821  06BC  00AA               	movwf	___ftmul@f2
  2822  06BD  0879               	movf	?___ftadd+1,w
  2823  06BE  00AB               	movwf	___ftmul@f2+1
  2824  06BF  087A               	movf	?___ftadd+2,w
  2825  06C0  00AC               	movwf	___ftmul@f2+2
  2826  06C1  3185  257D  3186   	fcall	___ftmul
  2827  06C4  0020               	movlb	0	; select bank0
  2828  06C5  0827               	movf	?___ftmul,w
  2829  06C6  00BA               	movwf	___ftdiv@f1
  2830  06C7  0828               	movf	?___ftmul+1,w
  2831  06C8  00BB               	movwf	___ftdiv@f1+1
  2832  06C9  0829               	movf	?___ftmul+2,w
  2833  06CA  00BC               	movwf	___ftdiv@f1+2
  2834  06CB  3184  24D4  3186   	fcall	___ftdiv
  2835  06CE  0020               	movlb	0	; select bank0
  2836  06CF  0837               	movf	?___ftdiv,w
  2837  06D0  00D5               	movwf	main@celsius
  2838  06D1  0838               	movf	?___ftdiv+1,w
  2839  06D2  00D6               	movwf	main@celsius+1
  2840  06D3  0839               	movf	?___ftdiv+2,w
  2841  06D4  00D7               	movwf	main@celsius+2
  2842                           
  2843                           ;Main.c: 148: OLED_YX(0, 0);
  2844  06D5  01F5               	clrf	OLED_YX@Column
  2845  06D6  3000               	movlw	0
  2846  06D7  3181  2153  3186   	fcall	_OLED_YX
  2847                           
  2848                           ;Main.c: 149: OLED_Write_String("Temp: ");
  2849  06DA  3033               	movlw	low (STR_1| (0+32768))
  2850  06DB  00FC               	movwf	OLED_Write_String@s
  2851  06DC  308B               	movlw	high (STR_1| (0+32768))
  2852  06DD  00FD               	movwf	OLED_Write_String@s+1
  2853  06DE  3180  20B8  3186   	fcall	_OLED_Write_String
  2854                           
  2855                           ;Main.c: 151: OLED_YX(1, 0);
  2856  06E1  01F5               	clrf	OLED_YX@Column
  2857  06E2  3001               	movlw	1
  2858  06E3  3181  2153  3186   	fcall	_OLED_YX
  2859                           
  2860                           ;Main.c: 152: OLED_Write_Integer((int)celsius);
  2861  06E6  0020               	movlb	0	; select bank0
  2862  06E7  0855               	movf	main@celsius,w
  2863  06E8  00F0               	movwf	___fttol@f1
  2864  06E9  0856               	movf	main@celsius+1,w
  2865  06EA  00F1               	movwf	___fttol@f1+1
  2866  06EB  0857               	movf	main@celsius+2,w
  2867  06EC  00F2               	movwf	___fttol@f1+2
  2868  06ED  3184  244E  3186   	fcall	___fttol
  2869  06F0  0870               	movf	?___fttol,w
  2870  06F1  3181  210A  3186   	fcall	_OLED_Write_Integer
  2871                           
  2872                           ;Main.c: 155: _delay((unsigned long)((2000)*(16000000/4000.0)));
  2873  06F4  3029               	movlw	41
  2874  06F5  0020               	movlb	0	; select bank0
  2875  06F6  00C8               	movwf	??_main+1
  2876  06F7  3096               	movlw	150
  2877  06F8  00C7               	movwf	??_main
  2878  06F9  307F               	movlw	127
  2879  06FA                     u2127:	
  2880  06FA  0B89               	decfsz	9,f
  2881  06FB  2EFA               	goto	u2127
  2882  06FC  0BC7               	decfsz	??_main,f
  2883  06FD  2EFA               	goto	u2127
  2884  06FE  0BC8               	decfsz	??_main+1,f
  2885  06FF  2EFA               	goto	u2127
  2886  0700  2E3D               	goto	l1748
  2887  0701                     __end_of_main:	
  2888                           ;Main.c: 157: }
  2889                           ;Main.c: 159: return;
  2890                           
  2891                           
  2892                           	psect	text1
  2893  020B                     __ptext1:	
  2894 ;; *************** function _initMain *****************
  2895 ;; Defined at:
  2896 ;;		line 40 in file "Main.c"
  2897 ;; Parameters:    Size  Location     Type
  2898 ;;		None
  2899 ;; Auto vars:     Size  Location     Type
  2900 ;;		None
  2901 ;; Return value:  Size  Location     Type
  2902 ;;                  1    wreg      void 
  2903 ;; Registers used:
  2904 ;;		wreg, status,2, status,0, pclath, cstack
  2905 ;; Tracked objects:
  2906 ;;		On entry : 0/0
  2907 ;;		On exit  : 0/0
  2908 ;;		Unchanged: 0/0
  2909 ;; Data sizes:     COMMON   BANK0   BANK1   BANK2   BANK3   BANK4   BANK5   BANK6   BANK7   BANK8   BANK9  BANK10  BANK1
      +1  BANK12
  2910 ;;      Params:         0       0       0       0       0       0       0       0       0       0       0       0       
      +0       0
  2911 ;;      Locals:         0       0       0       0       0       0       0       0       0       0       0       0       
      +0       0
  2912 ;;      Temps:          0       0       0       0       0       0       0       0       0       0       0       0       
      +0       0
  2913 ;;      Totals:         0       0       0       0       0       0       0       0       0       0       0       0       
      +0       0
  2914 ;;Total ram usage:        0 bytes
  2915 ;; Hardware stack levels used:    1
  2916 ;; Hardware stack levels required when called:    1
  2917 ;; This function calls:
  2918 ;;		_internal_16
  2919 ;; This function is called by:
  2920 ;;		_main
  2921 ;; This function uses a non-reentrant model
  2922 ;;
  2923                           
  2924                           
  2925                           ;psect for function _initMain
  2926  020B                     _initMain:	
  2927                           
  2928                           ;Main.c: 42: internal_16();
  2929                           
  2930                           ;incstack = 0
  2931                           ; Regs used in _initMain: [wreg+status,2+status,0+pclath+cstack]
  2932  020B  3180  209F  3182   	fcall	_internal_16
  2933                           
  2934                           ;Main.c: 50: ANSELCbits.ANSC4 = 0;
  2935  020E  0023               	movlb	3	; select bank3
  2936  020F  120E               	bcf	14,4	;volatile
  2937                           
  2938                           ;Main.c: 51: ANSELCbits.ANSC5 = 0;
  2939  0210  128E               	bcf	14,5	;volatile
  2940                           
  2941                           ;Main.c: 53: TRISCbits.TRISC4 = 1;
  2942  0211  0021               	movlb	1	; select bank1
  2943  0212  160E               	bsf	14,4	;volatile
  2944                           
  2945                           ;Main.c: 54: TRISCbits.TRISC5 = 1;
  2946  0213  168E               	bsf	14,5	;volatile
  2947                           
  2948                           ;Main.c: 56: PPSLOCK = 0x55;
  2949  0214  3055               	movlw	85
  2950  0215  003C               	movlb	28	; select bank28
  2951  0216  008F               	movwf	15	;volatile
  2952                           
  2953                           ;Main.c: 57: PPSLOCK = 0xAA;
  2954  0217  30AA               	movlw	170
  2955  0218  008F               	movwf	15	;volatile
  2956                           
  2957                           ;Main.c: 58: PPSLOCKbits.PPSLOCKED = 0x00;
  2958  0219  100F               	bcf	15,0	;volatile
  2959                           
  2960                           ;Main.c: 60: RC4PPSbits.RC4PPS = 0x0011;
  2961  021A  003D               	movlb	29	; select bank29
  2962  021B  0824               	movf	36,w	;volatile
  2963  021C  39E0               	andlw	-32
  2964  021D  3811               	iorlw	17
  2965  021E  00A4               	movwf	36	;volatile
  2966                           
  2967                           ;Main.c: 61: SSPDATPPSbits.SSPDATPPS = 0x0014;
  2968  021F  003C               	movlb	28	; select bank28
  2969  0220  0821               	movf	33,w	;volatile
  2970  0221  39E0               	andlw	-32
  2971  0222  3814               	iorlw	20
  2972  0223  00A1               	movwf	33	;volatile
  2973                           
  2974                           ;Main.c: 62: SSPCLKPPSbits.SSPCLKPPS = 0x0015;
  2975  0224  0820               	movf	32,w	;volatile
  2976  0225  39E0               	andlw	-32
  2977  0226  3815               	iorlw	21
  2978  0227  00A0               	movwf	32	;volatile
  2979                           
  2980                           ;Main.c: 63: RC5PPSbits.RC5PPS = 0x0010;
  2981  0228  003D               	movlb	29	; select bank29
  2982  0229  0825               	movf	37,w	;volatile
  2983  022A  39E0               	andlw	-32
  2984  022B  3810               	iorlw	16
  2985  022C  00A5               	movwf	37	;volatile
  2986                           
  2987                           ;Main.c: 65: PPSLOCK = 0x55;
  2988  022D  3055               	movlw	85
  2989  022E  003C               	movlb	28	; select bank28
  2990  022F  008F               	movwf	15	;volatile
  2991                           
  2992                           ;Main.c: 66: PPSLOCK = 0xAA;
  2993  0230  30AA               	movlw	170
  2994  0231  008F               	movwf	15	;volatile
  2995                           
  2996                           ;Main.c: 67: PPSLOCKbits.PPSLOCKED = 0x01;
  2997  0232  140F               	bsf	15,0	;volatile
  2998                           
  2999                           ;Main.c: 74: ADCON1bits.ADCS = 0b010;
  3000  0233  0021               	movlb	1	; select bank1
  3001  0234  081E               	movf	30,w	;volatile
  3002  0235  398F               	andlw	-113
  3003  0236  3820               	iorlw	32
  3004  0237  009E               	movwf	30	;volatile
  3005                           
  3006                           ;Main.c: 77: ADCON1bits.ADFM = 1;
  3007  0238  179E               	bsf	30,7	;volatile
  3008                           
  3009                           ;Main.c: 80: ADCON1bits.ADNREF = 0;
  3010  0239  111E               	bcf	30,2	;volatile
  3011                           
  3012                           ;Main.c: 83: ADCON1bits.ADPREF = 0b00;
  3013  023A  30FC               	movlw	-4
  3014  023B  059E               	andwf	30,f	;volatile
  3015                           
  3016                           ;Main.c: 86: ADCON0bits.CHS = 0x05;
  3017  023C  081D               	movf	29,w	;volatile
  3018  023D  3983               	andlw	-125
  3019  023E  3814               	iorlw	20
  3020  023F  009D               	movwf	29	;volatile
  3021                           
  3022                           ;Main.c: 89: ADRESL = 0;
  3023  0240  019B               	clrf	27	;volatile
  3024                           
  3025                           ;Main.c: 90: ADRESH = 0;
  3026  0241  019C               	clrf	28	;volatile
  3027                           
  3028                           ;Main.c: 92: ANSELEbits.ANSE0 = 1;
  3029  0242  0023               	movlb	3	; select bank3
  3030  0243  1410               	bsf	16,0	;volatile
  3031  0244  0008               	return
  3032  0245                     __end_of_initMain:	
  3033                           
  3034                           	psect	text2
  3035  009F                     __ptext2:	
  3036 ;; *************** function _internal_16 *****************
  3037 ;; Defined at:
  3038 ;;		line 56 in file "16F1717_Internal.c"
  3039 ;; Parameters:    Size  Location     Type
  3040 ;;		None
  3041 ;; Auto vars:     Size  Location     Type
  3042 ;;		None
  3043 ;; Return value:  Size  Location     Type
  3044 ;;                  1    wreg      void 
  3045 ;; Registers used:
  3046 ;;		None
  3047 ;; Tracked objects:
  3048 ;;		On entry : 0/0
  3049 ;;		On exit  : 0/0
  3050 ;;		Unchanged: 0/0
  3051 ;; Data sizes:     COMMON   BANK0   BANK1   BANK2   BANK3   BANK4   BANK5   BANK6   BANK7   BANK8   BANK9  BANK10  BANK1
      +1  BANK12
  3052 ;;      Params:         0       0       0       0       0       0       0       0       0       0       0       0       
      +0       0
  3053 ;;      Locals:         0       0       0       0       0       0       0       0       0       0       0       0       
      +0       0
  3054 ;;      Temps:          0       0       0       0       0       0       0       0       0       0       0       0       
      +0       0
  3055 ;;      Totals:         0       0       0       0       0       0       0       0       0       0       0       0       
      +0       0
  3056 ;;Total ram usage:        0 bytes
  3057 ;; Hardware stack levels used:    1
  3058 ;; This function calls:
  3059 ;;		Nothing
  3060 ;; This function is called by:
  3061 ;;		_initMain
  3062 ;; This function uses a non-reentrant model
  3063 ;;
  3064                           
  3065                           
  3066                           ;psect for function _internal_16
  3067  009F                     _internal_16:	
  3068                           
  3069                           ;16F1717_Internal.c: 58: SCS0 = 0;
  3070                           
  3071                           ;incstack = 0
  3072                           ; Regs used in _internal_16: []
  3073  009F  0021               	movlb	1	; select bank1
  3074  00A0  1019               	bcf	25,0	;volatile
  3075                           
  3076                           ;16F1717_Internal.c: 59: SCS1 = 0;
  3077  00A1  1099               	bcf	25,1	;volatile
  3078                           
  3079                           ;16F1717_Internal.c: 62: IRCF0 = 1;
  3080  00A2  1599               	bsf	25,3	;volatile
  3081                           
  3082                           ;16F1717_Internal.c: 63: IRCF1 = 1;
  3083  00A3  1619               	bsf	25,4	;volatile
  3084                           
  3085                           ;16F1717_Internal.c: 64: IRCF2 = 1;
  3086  00A4  1699               	bsf	25,5	;volatile
  3087                           
  3088                           ;16F1717_Internal.c: 65: IRCF3 = 1;
  3089  00A5  1719               	bsf	25,6	;volatile
  3090                           
  3091                           ;16F1717_Internal.c: 68: SPLLEN = 0;
  3092  00A6  1399               	bcf	25,7	;volatile
  3093  00A7  0008               	return
  3094  00A8                     __end_of_internal_16:	
  3095                           
  3096                           	psect	text3
  3097  044E                     __ptext3:	
  3098 ;; *************** function ___fttol *****************
  3099 ;; Defined at:
  3100 ;;		line 44 in file "C:\Program Files (x86)\Microchip\xc8\v1.41\sources\common\fttol.c"
  3101 ;; Parameters:    Size  Location     Type
  3102 ;;  f1              3    0[COMMON] float 
  3103 ;; Auto vars:     Size  Location     Type
  3104 ;;  lval            4    9[COMMON] unsigned long 
  3105 ;;  exp1            1   13[COMMON] unsigned char 
  3106 ;;  sign1           1    8[COMMON] unsigned char 
  3107 ;; Return value:  Size  Location     Type
  3108 ;;                  4    0[COMMON] long 
  3109 ;; Registers used:
  3110 ;;		wreg, status,2, status,0
  3111 ;; Tracked objects:
  3112 ;;		On entry : 0/0
  3113 ;;		On exit  : 0/0
  3114 ;;		Unchanged: 0/0
  3115 ;; Data sizes:     COMMON   BANK0   BANK1   BANK2   BANK3   BANK4   BANK5   BANK6   BANK7   BANK8   BANK9  BANK10  BANK1
      +1  BANK12
  3116 ;;      Params:         4       0       0       0       0       0       0       0       0       0       0       0       
      +0       0
  3117 ;;      Locals:         6       0       0       0       0       0       0       0       0       0       0       0       
      +0       0
  3118 ;;      Temps:          4       0       0       0       0       0       0       0       0       0       0       0       
      +0       0
  3119 ;;      Totals:        14       0       0       0       0       0       0       0       0       0       0       0       
      +0       0
  3120 ;;Total ram usage:       14 bytes
  3121 ;; Hardware stack levels used:    1
  3122 ;; This function calls:
  3123 ;;		Nothing
  3124 ;; This function is called by:
  3125 ;;		_main
  3126 ;; This function uses a non-reentrant model
  3127 ;;
  3128                           
  3129                           
  3130                           ;psect for function ___fttol
  3131  044E                     ___fttol:	
  3132                           
  3133                           ;incstack = 0
  3134                           ; Regs used in ___fttol: [wreg+status,2+status,0]
  3135  044E  0870               	movf	___fttol@f1,w
  3136  044F  00F4               	movwf	??___fttol
  3137  0450  0871               	movf	___fttol@f1+1,w
  3138  0451  00F5               	movwf	??___fttol+1
  3139  0452  0872               	movf	___fttol@f1+2,w
  3140  0453  00F6               	movwf	??___fttol+2
  3141  0454  1003               	clrc
  3142  0455  0D75               	rlf	??___fttol+1,w
  3143  0456  0D76               	rlf	??___fttol+2,w
  3144  0457  00F7               	movwf	??___fttol+3
  3145  0458  0877               	movf	??___fttol+3,w
  3146  0459  00FD               	movwf	___fttol@exp1
  3147  045A  087D               	movf	___fttol@exp1,w
  3148  045B  1D03               	btfss	3,2
  3149  045C  2C66               	goto	l1708
  3150  045D  3000               	movlw	0
  3151  045E  00F3               	movwf	?___fttol+3
  3152  045F  3000               	movlw	0
  3153  0460  00F2               	movwf	?___fttol+2
  3154  0461  3000               	movlw	0
  3155  0462  00F1               	movwf	?___fttol+1
  3156  0463  3000               	movlw	0
  3157  0464  00F0               	movwf	?___fttol
  3158  0465  0008               	return
  3159  0466                     l1708:	
  3160  0466  0870               	movf	___fttol@f1,w
  3161  0467  00F4               	movwf	??___fttol
  3162  0468  0871               	movf	___fttol@f1+1,w
  3163  0469  00F5               	movwf	??___fttol+1
  3164  046A  0872               	movf	___fttol@f1+2,w
  3165  046B  00F6               	movwf	??___fttol+2
  3166  046C  3017               	movlw	23
  3167  046D                     u2015:	
  3168  046D  36F6               	lsrf	??___fttol+2,f
  3169  046E  0CF5               	rrf	??___fttol+1,f
  3170  046F  0CF4               	rrf	??___fttol,f
  3171  0470  0B89               	decfsz	9,f
  3172  0471  2C6D               	goto	u2015
  3173  0472  0874               	movf	??___fttol,w
  3174  0473  00F7               	movwf	??___fttol+3
  3175  0474  0877               	movf	??___fttol+3,w
  3176  0475  00F8               	movwf	___fttol@sign1
  3177  0476  17F1               	bsf	___fttol@f1+1,7
  3178  0477  30FF               	movlw	255
  3179  0478  05F0               	andwf	___fttol@f1,f
  3180  0479  30FF               	movlw	255
  3181  047A  05F1               	andwf	___fttol@f1+1,f
  3182  047B  3000               	movlw	0
  3183  047C  05F2               	andwf	___fttol@f1+2,f
  3184  047D  0870               	movf	___fttol@f1,w
  3185  047E  00F9               	movwf	___fttol@lval
  3186  047F  0871               	movf	___fttol@f1+1,w
  3187  0480  00FA               	movwf	___fttol@lval+1
  3188  0481  0872               	movf	___fttol@f1+2,w
  3189  0482  00FB               	movwf	___fttol@lval+2
  3190  0483  01FC               	clrf	___fttol@lval+3
  3191  0484  308E               	movlw	142
  3192  0485  02FD               	subwf	___fttol@exp1,f
  3193  0486  1FFD               	btfss	___fttol@exp1,7
  3194  0487  2CA4               	goto	l1728
  3195  0488  087D               	movf	___fttol@exp1,w
  3196  0489  3A80               	xorlw	128
  3197  048A  3E8F               	addlw	143
  3198  048B  1803               	skipnc
  3199  048C  2C96               	goto	l1726
  3200  048D  3000               	movlw	0
  3201  048E  00F3               	movwf	?___fttol+3
  3202  048F  3000               	movlw	0
  3203  0490  00F2               	movwf	?___fttol+2
  3204  0491  3000               	movlw	0
  3205  0492  00F1               	movwf	?___fttol+1
  3206  0493  3000               	movlw	0
  3207  0494  00F0               	movwf	?___fttol
  3208  0495  0008               	return
  3209  0496                     l1726:	
  3210  0496  3001               	movlw	1
  3211  0497                     u2045:	
  3212  0497  36FC               	lsrf	___fttol@lval+3,f
  3213  0498  0CFB               	rrf	___fttol@lval+2,f
  3214  0499  0CFA               	rrf	___fttol@lval+1,f
  3215  049A  0CF9               	rrf	___fttol@lval,f
  3216  049B  0B89               	decfsz	9,f
  3217  049C  2C97               	goto	u2045
  3218  049D  3001               	movlw	1
  3219  049E  00F4               	movwf	??___fttol
  3220  049F  0874               	movf	??___fttol,w
  3221  04A0  07FD               	addwf	___fttol@exp1,f
  3222  04A1  1903               	btfsc	3,2
  3223  04A2  2CBD               	goto	l1736
  3224  04A3  2C96               	goto	l1726
  3225  04A4                     l1728:	
  3226  04A4  3018               	movlw	24
  3227  04A5  027D               	subwf	___fttol@exp1,w
  3228  04A6  1C03               	skipc
  3229  04A7  2CBA               	goto	l511
  3230  04A8  3000               	movlw	0
  3231  04A9  00F3               	movwf	?___fttol+3
  3232  04AA  3000               	movlw	0
  3233  04AB  00F2               	movwf	?___fttol+2
  3234  04AC  3000               	movlw	0
  3235  04AD  00F1               	movwf	?___fttol+1
  3236  04AE  3000               	movlw	0
  3237  04AF  00F0               	movwf	?___fttol
  3238  04B0  0008               	return
  3239  04B1                     l1734:	
  3240  04B1  3001               	movlw	1
  3241  04B2                     u2075:	
  3242  04B2  35F9               	lslf	___fttol@lval,f
  3243  04B3  0DFA               	rlf	___fttol@lval+1,f
  3244  04B4  0DFB               	rlf	___fttol@lval+2,f
  3245  04B5  0DFC               	rlf	___fttol@lval+3,f
  3246  04B6  0B89               	decfsz	9,f
  3247  04B7  2CB2               	goto	u2075
  3248  04B8  3001               	movlw	1
  3249  04B9  02FD               	subwf	___fttol@exp1,f
  3250  04BA                     l511:	
  3251  04BA  087D               	movf	___fttol@exp1,w
  3252  04BB  1D03               	btfss	3,2
  3253  04BC  2CB1               	goto	l1734
  3254  04BD                     l1736:	
  3255  04BD  0878               	movf	___fttol@sign1,w
  3256  04BE  1903               	btfsc	3,2
  3257  04BF  2CCB               	goto	l1740
  3258  04C0  09F9               	comf	___fttol@lval,f
  3259  04C1  09FA               	comf	___fttol@lval+1,f
  3260  04C2  09FB               	comf	___fttol@lval+2,f
  3261  04C3  09FC               	comf	___fttol@lval+3,f
  3262  04C4  0AF9               	incf	___fttol@lval,f
  3263  04C5  1903               	skipnz
  3264  04C6  0AFA               	incf	___fttol@lval+1,f
  3265  04C7  1903               	skipnz
  3266  04C8  0AFB               	incf	___fttol@lval+2,f
  3267  04C9  1903               	skipnz
  3268  04CA  0AFC               	incf	___fttol@lval+3,f
  3269  04CB                     l1740:	
  3270  04CB  087C               	movf	___fttol@lval+3,w
  3271  04CC  00F3               	movwf	?___fttol+3
  3272  04CD  087B               	movf	___fttol@lval+2,w
  3273  04CE  00F2               	movwf	?___fttol+2
  3274  04CF  087A               	movf	___fttol@lval+1,w
  3275  04D0  00F1               	movwf	?___fttol+1
  3276  04D1  0879               	movf	___fttol@lval,w
  3277  04D2  00F0               	movwf	?___fttol
  3278  04D3  0008               	return
  3279  04D4                     __end_of___fttol:	
  3280                           
  3281                           	psect	text4
  3282  057D                     __ptext4:	
  3283 ;; *************** function ___ftmul *****************
  3284 ;; Defined at:
  3285 ;;		line 62 in file "C:\Program Files (x86)\Microchip\xc8\v1.41\sources\common\ftmul.c"
  3286 ;; Parameters:    Size  Location     Type
  3287 ;;  f1              3    7[BANK0 ] float 
  3288 ;;  f2              3   10[BANK0 ] float 
  3289 ;; Auto vars:     Size  Location     Type
  3290 ;;  f3_as_produc    3   18[BANK0 ] unsigned um
  3291 ;;  sign            1   22[BANK0 ] unsigned char 
  3292 ;;  cntr            1   21[BANK0 ] unsigned char 
  3293 ;;  exp             1   17[BANK0 ] unsigned char 
  3294 ;; Return value:  Size  Location     Type
  3295 ;;                  3    7[BANK0 ] float 
  3296 ;; Registers used:
  3297 ;;		wreg, status,2, status,0, pclath, cstack
  3298 ;; Tracked objects:
  3299 ;;		On entry : 0/0
  3300 ;;		On exit  : 0/0
  3301 ;;		Unchanged: 0/0
  3302 ;; Data sizes:     COMMON   BANK0   BANK1   BANK2   BANK3   BANK4   BANK5   BANK6   BANK7   BANK8   BANK9  BANK10  BANK1
      +1  BANK12
  3303 ;;      Params:         0       6       0       0       0       0       0       0       0       0       0       0       
      +0       0
  3304 ;;      Locals:         0       6       0       0       0       0       0       0       0       0       0       0       
      +0       0
  3305 ;;      Temps:          0       4       0       0       0       0       0       0       0       0       0       0       
      +0       0
  3306 ;;      Totals:         0      16       0       0       0       0       0       0       0       0       0       0       
      +0       0
  3307 ;;Total ram usage:       16 bytes
  3308 ;; Hardware stack levels used:    1
  3309 ;; Hardware stack levels required when called:    1
  3310 ;; This function calls:
  3311 ;;		___ftpack
  3312 ;; This function is called by:
  3313 ;;		_main
  3314 ;; This function uses a non-reentrant model
  3315 ;;
  3316                           
  3317                           
  3318                           ;psect for function ___ftmul
  3319  057D                     ___ftmul:	
  3320                           
  3321                           ;incstack = 0
  3322                           ; Regs used in ___ftmul: [wreg+status,2+status,0+pclath+cstack]
  3323  057D  0020               	movlb	0	; select bank0
  3324  057E  0827               	movf	___ftmul@f1,w
  3325  057F  00AD               	movwf	??___ftmul
  3326  0580  0828               	movf	___ftmul@f1+1,w
  3327  0581  00AE               	movwf	??___ftmul+1
  3328  0582  0829               	movf	___ftmul@f1+2,w
  3329  0583  00AF               	movwf	??___ftmul+2
  3330  0584  1003               	clrc
  3331  0585  0D2E               	rlf	??___ftmul+1,w
  3332  0586  0D2F               	rlf	??___ftmul+2,w
  3333  0587  00B0               	movwf	??___ftmul+3
  3334  0588  0830               	movf	??___ftmul+3,w
  3335  0589  00B1               	movwf	___ftmul@exp
  3336  058A  0831               	movf	___ftmul@exp,w
  3337  058B  1D03               	btfss	3,2
  3338  058C  2D94               	goto	l1658
  3339  058D  3000               	movlw	0
  3340  058E  00A7               	movwf	?___ftmul
  3341  058F  3000               	movlw	0
  3342  0590  00A8               	movwf	?___ftmul+1
  3343  0591  3000               	movlw	0
  3344  0592  00A9               	movwf	?___ftmul+2
  3345  0593  0008               	return
  3346  0594                     l1658:	
  3347  0594  082A               	movf	___ftmul@f2,w
  3348  0595  00AD               	movwf	??___ftmul
  3349  0596  082B               	movf	___ftmul@f2+1,w
  3350  0597  00AE               	movwf	??___ftmul+1
  3351  0598  082C               	movf	___ftmul@f2+2,w
  3352  0599  00AF               	movwf	??___ftmul+2
  3353  059A  1003               	clrc
  3354  059B  0D2E               	rlf	??___ftmul+1,w
  3355  059C  0D2F               	rlf	??___ftmul+2,w
  3356  059D  00B0               	movwf	??___ftmul+3
  3357  059E  0830               	movf	??___ftmul+3,w
  3358  059F  00B6               	movwf	___ftmul@sign
  3359  05A0  0836               	movf	___ftmul@sign,w
  3360  05A1  1D03               	btfss	3,2
  3361  05A2  2DAA               	goto	l1664
  3362  05A3  3000               	movlw	0
  3363  05A4  00A7               	movwf	?___ftmul
  3364  05A5  3000               	movlw	0
  3365  05A6  00A8               	movwf	?___ftmul+1
  3366  05A7  3000               	movlw	0
  3367  05A8  00A9               	movwf	?___ftmul+2
  3368  05A9  0008               	return
  3369  05AA                     l1664:	
  3370  05AA  0836               	movf	___ftmul@sign,w
  3371  05AB  3E7B               	addlw	123
  3372  05AC  00AD               	movwf	??___ftmul
  3373  05AD  082D               	movf	??___ftmul,w
  3374  05AE  07B1               	addwf	___ftmul@exp,f
  3375  05AF  0827               	movf	___ftmul@f1,w
  3376  05B0  00AD               	movwf	??___ftmul
  3377  05B1  0828               	movf	___ftmul@f1+1,w
  3378  05B2  00AE               	movwf	??___ftmul+1
  3379  05B3  0829               	movf	___ftmul@f1+2,w
  3380  05B4  00AF               	movwf	??___ftmul+2
  3381  05B5  3010               	movlw	16
  3382  05B6                     u1905:	
  3383  05B6  36AF               	lsrf	??___ftmul+2,f
  3384  05B7  0CAE               	rrf	??___ftmul+1,f
  3385  05B8  0CAD               	rrf	??___ftmul,f
  3386  05B9  0B89               	decfsz	9,f
  3387  05BA  2DB6               	goto	u1905
  3388  05BB  082D               	movf	??___ftmul,w
  3389  05BC  00B0               	movwf	??___ftmul+3
  3390  05BD  0830               	movf	??___ftmul+3,w
  3391  05BE  00B6               	movwf	___ftmul@sign
  3392  05BF  082A               	movf	___ftmul@f2,w
  3393  05C0  00AD               	movwf	??___ftmul
  3394  05C1  082B               	movf	___ftmul@f2+1,w
  3395  05C2  00AE               	movwf	??___ftmul+1
  3396  05C3  082C               	movf	___ftmul@f2+2,w
  3397  05C4  00AF               	movwf	??___ftmul+2
  3398  05C5  3010               	movlw	16
  3399  05C6                     u1915:	
  3400  05C6  36AF               	lsrf	??___ftmul+2,f
  3401  05C7  0CAE               	rrf	??___ftmul+1,f
  3402  05C8  0CAD               	rrf	??___ftmul,f
  3403  05C9  0B89               	decfsz	9,f
  3404  05CA  2DC6               	goto	u1915
  3405  05CB  082D               	movf	??___ftmul,w
  3406  05CC  00B0               	movwf	??___ftmul+3
  3407  05CD  0830               	movf	??___ftmul+3,w
  3408  05CE  06B6               	xorwf	___ftmul@sign,f
  3409  05CF  3080               	movlw	128
  3410  05D0  00AD               	movwf	??___ftmul
  3411  05D1  082D               	movf	??___ftmul,w
  3412  05D2  05B6               	andwf	___ftmul@sign,f
  3413  05D3  17A8               	bsf	___ftmul@f1+1,7
  3414  05D4  17AB               	bsf	___ftmul@f2+1,7
  3415  05D5  30FF               	movlw	255
  3416  05D6  05AA               	andwf	___ftmul@f2,f
  3417  05D7  30FF               	movlw	255
  3418  05D8  05AB               	andwf	___ftmul@f2+1,f
  3419  05D9  3000               	movlw	0
  3420  05DA  05AC               	andwf	___ftmul@f2+2,f
  3421  05DB  3000               	movlw	0
  3422  05DC  00B2               	movwf	___ftmul@f3_as_product
  3423  05DD  3000               	movlw	0
  3424  05DE  00B3               	movwf	___ftmul@f3_as_product+1
  3425  05DF  3000               	movlw	0
  3426  05E0  00B4               	movwf	___ftmul@f3_as_product+2
  3427  05E1  3007               	movlw	7
  3428  05E2  00AD               	movwf	??___ftmul
  3429  05E3  082D               	movf	??___ftmul,w
  3430  05E4  00B5               	movwf	___ftmul@cntr
  3431  05E5                     l1676:	
  3432  05E5  1C27               	btfss	___ftmul@f1,0
  3433  05E6  2DED               	goto	l1680
  3434  05E7  082A               	movf	___ftmul@f2,w
  3435  05E8  07B2               	addwf	___ftmul@f3_as_product,f
  3436  05E9  082B               	movf	___ftmul@f2+1,w
  3437  05EA  3DB3               	addwfc	___ftmul@f3_as_product+1,f
  3438  05EB  082C               	movf	___ftmul@f2+2,w
  3439  05EC  3DB4               	addwfc	___ftmul@f3_as_product+2,f
  3440  05ED                     l1680:	
  3441  05ED  3001               	movlw	1
  3442  05EE                     u1935:	
  3443  05EE  36A9               	lsrf	___ftmul@f1+2,f
  3444  05EF  0CA8               	rrf	___ftmul@f1+1,f
  3445  05F0  0CA7               	rrf	___ftmul@f1,f
  3446  05F1  0B89               	decfsz	9,f
  3447  05F2  2DEE               	goto	u1935
  3448  05F3  3001               	movlw	1
  3449  05F4                     u1945:	
  3450  05F4  35AA               	lslf	___ftmul@f2,f
  3451  05F5  0DAB               	rlf	___ftmul@f2+1,f
  3452  05F6  0DAC               	rlf	___ftmul@f2+2,f
  3453  05F7  0B89               	decfsz	9,f
  3454  05F8  2DF4               	goto	u1945
  3455  05F9  3001               	movlw	1
  3456  05FA  02B5               	subwf	___ftmul@cntr,f
  3457  05FB  1D03               	btfss	3,2
  3458  05FC  2DE5               	goto	l1676
  3459  05FD  3009               	movlw	9
  3460  05FE  00AD               	movwf	??___ftmul
  3461  05FF  082D               	movf	??___ftmul,w
  3462  0600  00B5               	movwf	___ftmul@cntr
  3463  0601                     l1688:	
  3464  0601  1C27               	btfss	___ftmul@f1,0
  3465  0602  2E09               	goto	l1692
  3466  0603  082A               	movf	___ftmul@f2,w
  3467  0604  07B2               	addwf	___ftmul@f3_as_product,f
  3468  0605  082B               	movf	___ftmul@f2+1,w
  3469  0606  3DB3               	addwfc	___ftmul@f3_as_product+1,f
  3470  0607  082C               	movf	___ftmul@f2+2,w
  3471  0608  3DB4               	addwfc	___ftmul@f3_as_product+2,f
  3472  0609                     l1692:	
  3473  0609  3001               	movlw	1
  3474  060A                     u1975:	
  3475  060A  36A9               	lsrf	___ftmul@f1+2,f
  3476  060B  0CA8               	rrf	___ftmul@f1+1,f
  3477  060C  0CA7               	rrf	___ftmul@f1,f
  3478  060D  0B89               	decfsz	9,f
  3479  060E  2E0A               	goto	u1975
  3480  060F  3001               	movlw	1
  3481  0610                     u1985:	
  3482  0610  36B4               	lsrf	___ftmul@f3_as_product+2,f
  3483  0611  0CB3               	rrf	___ftmul@f3_as_product+1,f
  3484  0612  0CB2               	rrf	___ftmul@f3_as_product,f
  3485  0613  0B89               	decfsz	9,f
  3486  0614  2E10               	goto	u1985
  3487  0615  3001               	movlw	1
  3488  0616  02B5               	subwf	___ftmul@cntr,f
  3489  0617  1D03               	btfss	3,2
  3490  0618  2E01               	goto	l1688
  3491  0619  0832               	movf	___ftmul@f3_as_product,w
  3492  061A  00F0               	movwf	___ftpack@arg
  3493  061B  0833               	movf	___ftmul@f3_as_product+1,w
  3494  061C  00F1               	movwf	___ftpack@arg+1
  3495  061D  0834               	movf	___ftmul@f3_as_product+2,w
  3496  061E  00F2               	movwf	___ftpack@arg+2
  3497  061F  0831               	movf	___ftmul@exp,w
  3498  0620  00AD               	movwf	??___ftmul
  3499  0621  082D               	movf	??___ftmul,w
  3500  0622  00F3               	movwf	___ftpack@exp
  3501  0623  0836               	movf	___ftmul@sign,w
  3502  0624  00AE               	movwf	??___ftmul+1
  3503  0625  082E               	movf	??___ftmul+1,w
  3504  0626  00F4               	movwf	___ftpack@sign
  3505  0627  3183  230B         	fcall	___ftpack
  3506  0629  0870               	movf	?___ftpack,w
  3507  062A  0020               	movlb	0	; select bank0
  3508  062B  00A7               	movwf	?___ftmul
  3509  062C  0871               	movf	?___ftpack+1,w
  3510  062D  00A8               	movwf	?___ftmul+1
  3511  062E  0872               	movf	?___ftpack+2,w
  3512  062F  00A9               	movwf	?___ftmul+2
  3513  0630  0008               	return
  3514  0631                     __end_of___ftmul:	
  3515                           
  3516                           	psect	text5
  3517  04D4                     __ptext5:	
  3518 ;; *************** function ___ftdiv *****************
  3519 ;; Defined at:
  3520 ;;		line 56 in file "C:\Program Files (x86)\Microchip\xc8\v1.41\sources\common\ftdiv.c"
  3521 ;; Parameters:    Size  Location     Type
  3522 ;;  f2              3   23[BANK0 ] float 
  3523 ;;  f1              3   26[BANK0 ] float 
  3524 ;; Auto vars:     Size  Location     Type
  3525 ;;  f3              3   34[BANK0 ] float 
  3526 ;;  sign            1   38[BANK0 ] unsigned char 
  3527 ;;  exp             1   37[BANK0 ] unsigned char 
  3528 ;;  cntr            1   33[BANK0 ] unsigned char 
  3529 ;; Return value:  Size  Location     Type
  3530 ;;                  3   23[BANK0 ] float 
  3531 ;; Registers used:
  3532 ;;		wreg, status,2, status,0, pclath, cstack
  3533 ;; Tracked objects:
  3534 ;;		On entry : 0/0
  3535 ;;		On exit  : 0/0
  3536 ;;		Unchanged: 0/0
  3537 ;; Data sizes:     COMMON   BANK0   BANK1   BANK2   BANK3   BANK4   BANK5   BANK6   BANK7   BANK8   BANK9  BANK10  BANK1
      +1  BANK12
  3538 ;;      Params:         0       6       0       0       0       0       0       0       0       0       0       0       
      +0       0
  3539 ;;      Locals:         0       6       0       0       0       0       0       0       0       0       0       0       
      +0       0
  3540 ;;      Temps:          0       4       0       0       0       0       0       0       0       0       0       0       
      +0       0
  3541 ;;      Totals:         0      16       0       0       0       0       0       0       0       0       0       0       
      +0       0
  3542 ;;Total ram usage:       16 bytes
  3543 ;; Hardware stack levels used:    1
  3544 ;; Hardware stack levels required when called:    1
  3545 ;; This function calls:
  3546 ;;		___ftpack
  3547 ;; This function is called by:
  3548 ;;		_main
  3549 ;; This function uses a non-reentrant model
  3550 ;;
  3551                           
  3552                           
  3553                           ;psect for function ___ftdiv
  3554  04D4                     ___ftdiv:	
  3555                           
  3556                           ;incstack = 0
  3557                           ; Regs used in ___ftdiv: [wreg+status,2+status,0+pclath+cstack]
  3558  04D4  0020               	movlb	0	; select bank0
  3559  04D5  083A               	movf	___ftdiv@f1,w
  3560  04D6  00BD               	movwf	??___ftdiv
  3561  04D7  083B               	movf	___ftdiv@f1+1,w
  3562  04D8  00BE               	movwf	??___ftdiv+1
  3563  04D9  083C               	movf	___ftdiv@f1+2,w
  3564  04DA  00BF               	movwf	??___ftdiv+2
  3565  04DB  1003               	clrc
  3566  04DC  0D3E               	rlf	??___ftdiv+1,w
  3567  04DD  0D3F               	rlf	??___ftdiv+2,w
  3568  04DE  00C0               	movwf	??___ftdiv+3
  3569  04DF  0840               	movf	??___ftdiv+3,w
  3570  04E0  00C5               	movwf	___ftdiv@exp
  3571  04E1  0845               	movf	___ftdiv@exp,w
  3572  04E2  1D03               	btfss	3,2
  3573  04E3  2CEB               	goto	l1616
  3574  04E4  3000               	movlw	0
  3575  04E5  00B7               	movwf	?___ftdiv
  3576  04E6  3000               	movlw	0
  3577  04E7  00B8               	movwf	?___ftdiv+1
  3578  04E8  3000               	movlw	0
  3579  04E9  00B9               	movwf	?___ftdiv+2
  3580  04EA  0008               	return
  3581  04EB                     l1616:	
  3582  04EB  0837               	movf	___ftdiv@f2,w
  3583  04EC  00BD               	movwf	??___ftdiv
  3584  04ED  0838               	movf	___ftdiv@f2+1,w
  3585  04EE  00BE               	movwf	??___ftdiv+1
  3586  04EF  0839               	movf	___ftdiv@f2+2,w
  3587  04F0  00BF               	movwf	??___ftdiv+2
  3588  04F1  1003               	clrc
  3589  04F2  0D3E               	rlf	??___ftdiv+1,w
  3590  04F3  0D3F               	rlf	??___ftdiv+2,w
  3591  04F4  00C0               	movwf	??___ftdiv+3
  3592  04F5  0840               	movf	??___ftdiv+3,w
  3593  04F6  00C6               	movwf	___ftdiv@sign
  3594  04F7  0846               	movf	___ftdiv@sign,w
  3595  04F8  1D03               	btfss	3,2
  3596  04F9  2D01               	goto	l1622
  3597  04FA  3000               	movlw	0
  3598  04FB  00B7               	movwf	?___ftdiv
  3599  04FC  3000               	movlw	0
  3600  04FD  00B8               	movwf	?___ftdiv+1
  3601  04FE  3000               	movlw	0
  3602  04FF  00B9               	movwf	?___ftdiv+2
  3603  0500  0008               	return
  3604  0501                     l1622:	
  3605  0501  3000               	movlw	0
  3606  0502  00C2               	movwf	___ftdiv@f3
  3607  0503  3000               	movlw	0
  3608  0504  00C3               	movwf	___ftdiv@f3+1
  3609  0505  3000               	movlw	0
  3610  0506  00C4               	movwf	___ftdiv@f3+2
  3611  0507  3089               	movlw	137
  3612  0508  0746               	addwf	___ftdiv@sign,w
  3613  0509  00BD               	movwf	??___ftdiv
  3614  050A  083D               	movf	??___ftdiv,w
  3615  050B  02C5               	subwf	___ftdiv@exp,f
  3616  050C  083A               	movf	___ftdiv@f1,w
  3617  050D  00BD               	movwf	??___ftdiv
  3618  050E  083B               	movf	___ftdiv@f1+1,w
  3619  050F  00BE               	movwf	??___ftdiv+1
  3620  0510  083C               	movf	___ftdiv@f1+2,w
  3621  0511  00BF               	movwf	??___ftdiv+2
  3622  0512  3010               	movlw	16
  3623  0513                     u1825:	
  3624  0513  36BF               	lsrf	??___ftdiv+2,f
  3625  0514  0CBE               	rrf	??___ftdiv+1,f
  3626  0515  0CBD               	rrf	??___ftdiv,f
  3627  0516  0B89               	decfsz	9,f
  3628  0517  2D13               	goto	u1825
  3629  0518  083D               	movf	??___ftdiv,w
  3630  0519  00C0               	movwf	??___ftdiv+3
  3631  051A  0840               	movf	??___ftdiv+3,w
  3632  051B  00C6               	movwf	___ftdiv@sign
  3633  051C  0837               	movf	___ftdiv@f2,w
  3634  051D  00BD               	movwf	??___ftdiv
  3635  051E  0838               	movf	___ftdiv@f2+1,w
  3636  051F  00BE               	movwf	??___ftdiv+1
  3637  0520  0839               	movf	___ftdiv@f2+2,w
  3638  0521  00BF               	movwf	??___ftdiv+2
  3639  0522  3010               	movlw	16
  3640  0523                     u1835:	
  3641  0523  36BF               	lsrf	??___ftdiv+2,f
  3642  0524  0CBE               	rrf	??___ftdiv+1,f
  3643  0525  0CBD               	rrf	??___ftdiv,f
  3644  0526  0B89               	decfsz	9,f
  3645  0527  2D23               	goto	u1835
  3646  0528  083D               	movf	??___ftdiv,w
  3647  0529  00C0               	movwf	??___ftdiv+3
  3648  052A  0840               	movf	??___ftdiv+3,w
  3649  052B  06C6               	xorwf	___ftdiv@sign,f
  3650  052C  3080               	movlw	128
  3651  052D  00BD               	movwf	??___ftdiv
  3652  052E  083D               	movf	??___ftdiv,w
  3653  052F  05C6               	andwf	___ftdiv@sign,f
  3654  0530  17BB               	bsf	___ftdiv@f1+1,7
  3655  0531  30FF               	movlw	255
  3656  0532  05BA               	andwf	___ftdiv@f1,f
  3657  0533  30FF               	movlw	255
  3658  0534  05BB               	andwf	___ftdiv@f1+1,f
  3659  0535  3000               	movlw	0
  3660  0536  05BC               	andwf	___ftdiv@f1+2,f
  3661  0537  17B8               	bsf	___ftdiv@f2+1,7
  3662  0538  30FF               	movlw	255
  3663  0539  05B7               	andwf	___ftdiv@f2,f
  3664  053A  30FF               	movlw	255
  3665  053B  05B8               	andwf	___ftdiv@f2+1,f
  3666  053C  3000               	movlw	0
  3667  053D  05B9               	andwf	___ftdiv@f2+2,f
  3668  053E  3018               	movlw	24
  3669  053F  00BD               	movwf	??___ftdiv
  3670  0540  083D               	movf	??___ftdiv,w
  3671  0541  00C1               	movwf	___ftdiv@cntr
  3672  0542                     l1636:	
  3673  0542  3001               	movlw	1
  3674  0543                     u1845:	
  3675  0543  35C2               	lslf	___ftdiv@f3,f
  3676  0544  0DC3               	rlf	___ftdiv@f3+1,f
  3677  0545  0DC4               	rlf	___ftdiv@f3+2,f
  3678  0546  0B89               	decfsz	9,f
  3679  0547  2D43               	goto	u1845
  3680  0548  0839               	movf	___ftdiv@f2+2,w
  3681  0549  023C               	subwf	___ftdiv@f1+2,w
  3682  054A  1D03               	skipz
  3683  054B  2D52               	goto	u1855
  3684  054C  0838               	movf	___ftdiv@f2+1,w
  3685  054D  023B               	subwf	___ftdiv@f1+1,w
  3686  054E  1D03               	skipz
  3687  054F  2D52               	goto	u1855
  3688  0550  0837               	movf	___ftdiv@f2,w
  3689  0551  023A               	subwf	___ftdiv@f1,w
  3690  0552                     u1855:	
  3691  0552  1C03               	skipc
  3692  0553  2D5B               	goto	l1644
  3693  0554  0837               	movf	___ftdiv@f2,w
  3694  0555  02BA               	subwf	___ftdiv@f1,f
  3695  0556  0838               	movf	___ftdiv@f2+1,w
  3696  0557  3BBB               	subwfb	___ftdiv@f1+1,f
  3697  0558  0839               	movf	___ftdiv@f2+2,w
  3698  0559  3BBC               	subwfb	___ftdiv@f1+2,f
  3699  055A  1442               	bsf	___ftdiv@f3,0
  3700  055B                     l1644:	
  3701  055B  3001               	movlw	1
  3702  055C                     u1865:	
  3703  055C  35BA               	lslf	___ftdiv@f1,f
  3704  055D  0DBB               	rlf	___ftdiv@f1+1,f
  3705  055E  0DBC               	rlf	___ftdiv@f1+2,f
  3706  055F  0B89               	decfsz	9,f
  3707  0560  2D5C               	goto	u1865
  3708  0561  3001               	movlw	1
  3709  0562  02C1               	subwf	___ftdiv@cntr,f
  3710  0563  1D03               	btfss	3,2
  3711  0564  2D42               	goto	l1636
  3712  0565  0842               	movf	___ftdiv@f3,w
  3713  0566  00F0               	movwf	___ftpack@arg
  3714  0567  0843               	movf	___ftdiv@f3+1,w
  3715  0568  00F1               	movwf	___ftpack@arg+1
  3716  0569  0844               	movf	___ftdiv@f3+2,w
  3717  056A  00F2               	movwf	___ftpack@arg+2
  3718  056B  0845               	movf	___ftdiv@exp,w
  3719  056C  00BD               	movwf	??___ftdiv
  3720  056D  083D               	movf	??___ftdiv,w
  3721  056E  00F3               	movwf	___ftpack@exp
  3722  056F  0846               	movf	___ftdiv@sign,w
  3723  0570  00BE               	movwf	??___ftdiv+1
  3724  0571  083E               	movf	??___ftdiv+1,w
  3725  0572  00F4               	movwf	___ftpack@sign
  3726  0573  3183  230B         	fcall	___ftpack
  3727  0575  0870               	movf	?___ftpack,w
  3728  0576  0020               	movlb	0	; select bank0
  3729  0577  00B7               	movwf	?___ftdiv
  3730  0578  0871               	movf	?___ftpack+1,w
  3731  0579  00B8               	movwf	?___ftdiv+1
  3732  057A  0872               	movf	?___ftpack+2,w
  3733  057B  00B9               	movwf	?___ftdiv+2
  3734  057C  0008               	return
  3735  057D                     __end_of___ftdiv:	
  3736                           
  3737                           	psect	text6
  3738  0701                     __ptext6:	
  3739 ;; *************** function ___ftadd *****************
  3740 ;; Defined at:
  3741 ;;		line 86 in file "C:\Program Files (x86)\Microchip\xc8\v1.41\sources\common\ftadd.c"
  3742 ;; Parameters:    Size  Location     Type
  3743 ;;  f1              3    8[COMMON] float 
  3744 ;;  f2              3   11[COMMON] float 
  3745 ;; Auto vars:     Size  Location     Type
  3746 ;;  exp1            1    6[BANK0 ] unsigned char 
  3747 ;;  exp2            1    5[BANK0 ] unsigned char 
  3748 ;;  sign            1    4[BANK0 ] unsigned char 
  3749 ;; Return value:  Size  Location     Type
  3750 ;;                  3    8[COMMON] float 
  3751 ;; Registers used:
  3752 ;;		wreg, status,2, status,0, pclath, cstack
  3753 ;; Tracked objects:
  3754 ;;		On entry : 0/0
  3755 ;;		On exit  : 0/0
  3756 ;;		Unchanged: 0/0
  3757 ;; Data sizes:     COMMON   BANK0   BANK1   BANK2   BANK3   BANK4   BANK5   BANK6   BANK7   BANK8   BANK9  BANK10  BANK1
      +1  BANK12
  3758 ;;      Params:         6       0       0       0       0       0       0       0       0       0       0       0       
      +0       0
  3759 ;;      Locals:         0       3       0       0       0       0       0       0       0       0       0       0       
      +0       0
  3760 ;;      Temps:          0       4       0       0       0       0       0       0       0       0       0       0       
      +0       0
  3761 ;;      Totals:         6       7       0       0       0       0       0       0       0       0       0       0       
      +0       0
  3762 ;;Total ram usage:       13 bytes
  3763 ;; Hardware stack levels used:    1
  3764 ;; Hardware stack levels required when called:    1
  3765 ;; This function calls:
  3766 ;;		___ftpack
  3767 ;; This function is called by:
  3768 ;;		_main
  3769 ;; This function uses a non-reentrant model
  3770 ;;
  3771                           
  3772                           
  3773                           ;psect for function ___ftadd
  3774  0701                     ___ftadd:	
  3775                           
  3776                           ;incstack = 0
  3777                           ; Regs used in ___ftadd: [wreg+status,2+status,0+pclath+cstack]
  3778  0701  0878               	movf	___ftadd@f1,w
  3779  0702  0020               	movlb	0	; select bank0
  3780  0703  00A0               	movwf	??___ftadd
  3781  0704  0879               	movf	___ftadd@f1+1,w
  3782  0705  00A1               	movwf	??___ftadd+1
  3783  0706  087A               	movf	___ftadd@f1+2,w
  3784  0707  00A2               	movwf	??___ftadd+2
  3785  0708  1003               	clrc
  3786  0709  0D21               	rlf	??___ftadd+1,w
  3787  070A  0D22               	rlf	??___ftadd+2,w
  3788  070B  00A3               	movwf	??___ftadd+3
  3789  070C  0823               	movf	??___ftadd+3,w
  3790  070D  00A6               	movwf	___ftadd@exp1
  3791  070E  087B               	movf	___ftadd@f2,w
  3792  070F  00A0               	movwf	??___ftadd
  3793  0710  087C               	movf	___ftadd@f2+1,w
  3794  0711  00A1               	movwf	??___ftadd+1
  3795  0712  087D               	movf	___ftadd@f2+2,w
  3796  0713  00A2               	movwf	??___ftadd+2
  3797  0714  1003               	clrc
  3798  0715  0D21               	rlf	??___ftadd+1,w
  3799  0716  0D22               	rlf	??___ftadd+2,w
  3800  0717  00A3               	movwf	??___ftadd+3
  3801  0718  0823               	movf	??___ftadd+3,w
  3802  0719  00A5               	movwf	___ftadd@exp2
  3803  071A  0826               	movf	___ftadd@exp1,w
  3804  071B  1903               	btfsc	3,2
  3805  071C  2F29               	goto	l1546
  3806  071D  0825               	movf	___ftadd@exp2,w
  3807  071E  0226               	subwf	___ftadd@exp1,w
  3808  071F  1803               	skipnc
  3809  0720  2F30               	goto	l1550
  3810  0721  0326               	decf	___ftadd@exp1,w
  3811  0722  3AFF               	xorlw	255
  3812  0723  0725               	addwf	___ftadd@exp2,w
  3813  0724  00A0               	movwf	??___ftadd
  3814  0725  3019               	movlw	25
  3815  0726  0220               	subwf	??___ftadd,w
  3816  0727  1C03               	skipc
  3817  0728  2F30               	goto	l1550
  3818  0729                     l1546:	
  3819  0729  087B               	movf	___ftadd@f2,w
  3820  072A  00F8               	movwf	?___ftadd
  3821  072B  087C               	movf	___ftadd@f2+1,w
  3822  072C  00F9               	movwf	?___ftadd+1
  3823  072D  087D               	movf	___ftadd@f2+2,w
  3824  072E  00FA               	movwf	?___ftadd+2
  3825  072F  0008               	return
  3826  0730                     l1550:	
  3827  0730  0825               	movf	___ftadd@exp2,w
  3828  0731  1903               	btfsc	3,2
  3829  0732  0008               	return
  3830  0733  0826               	movf	___ftadd@exp1,w
  3831  0734  0225               	subwf	___ftadd@exp2,w
  3832  0735  1803               	skipnc
  3833  0736  2F3F               	goto	l1556
  3834  0737  0325               	decf	___ftadd@exp2,w
  3835  0738  3AFF               	xorlw	255
  3836  0739  0726               	addwf	___ftadd@exp1,w
  3837  073A  00A0               	movwf	??___ftadd
  3838  073B  3019               	movlw	25
  3839  073C  0220               	subwf	??___ftadd,w
  3840  073D  1803               	btfsc	3,0
  3841  073E  0008               	return
  3842  073F                     l1556:	
  3843  073F  3006               	movlw	6
  3844  0740  00A0               	movwf	??___ftadd
  3845  0741  0820               	movf	??___ftadd,w
  3846  0742  00A4               	movwf	___ftadd@sign
  3847  0743  1BFA               	btfsc	___ftadd@f1+2,7
  3848  0744  17A4               	bsf	___ftadd@sign,7
  3849  0745  1BFD               	btfsc	___ftadd@f2+2,7
  3850  0746  1724               	bsf	___ftadd@sign,6
  3851  0747  17F9               	bsf	___ftadd@f1+1,7
  3852  0748  30FF               	movlw	255
  3853  0749  05F8               	andwf	___ftadd@f1,f
  3854  074A  30FF               	movlw	255
  3855  074B  05F9               	andwf	___ftadd@f1+1,f
  3856  074C  3000               	movlw	0
  3857  074D  05FA               	andwf	___ftadd@f1+2,f
  3858  074E  17FC               	bsf	___ftadd@f2+1,7
  3859  074F  30FF               	movlw	255
  3860  0750  05FB               	andwf	___ftadd@f2,f
  3861  0751  30FF               	movlw	255
  3862  0752  05FC               	andwf	___ftadd@f2+1,f
  3863  0753  3000               	movlw	0
  3864  0754  05FD               	andwf	___ftadd@f2+2,f
  3865  0755  0825               	movf	___ftadd@exp2,w
  3866  0756  0226               	subwf	___ftadd@exp1,w
  3867  0757  1803               	skipnc
  3868  0758  2F7B               	goto	l1578
  3869  0759                     l1568:	
  3870  0759  3001               	movlw	1
  3871  075A                     u1665:	
  3872  075A  35FB               	lslf	___ftadd@f2,f
  3873  075B  0DFC               	rlf	___ftadd@f2+1,f
  3874  075C  0DFD               	rlf	___ftadd@f2+2,f
  3875  075D  0B89               	decfsz	9,f
  3876  075E  2F5A               	goto	u1665
  3877  075F  3001               	movlw	1
  3878  0760  02A5               	subwf	___ftadd@exp2,f
  3879  0761  0825               	movf	___ftadd@exp2,w
  3880  0762  0626               	xorwf	___ftadd@exp1,w
  3881  0763  1903               	skipnz
  3882  0764  2F76               	goto	l1576
  3883  0765  3001               	movlw	1
  3884  0766  02A4               	subwf	___ftadd@sign,f
  3885  0767  0824               	movf	___ftadd@sign,w
  3886  0768  3907               	andlw	7
  3887  0769  1903               	btfsc	3,2
  3888  076A  2F76               	goto	l1576
  3889  076B  2F59               	goto	l1568
  3890  076C                     l1574:	
  3891  076C  3001               	movlw	1
  3892  076D                     u1695:	
  3893  076D  36FA               	lsrf	___ftadd@f1+2,f
  3894  076E  0CF9               	rrf	___ftadd@f1+1,f
  3895  076F  0CF8               	rrf	___ftadd@f1,f
  3896  0770  0B89               	decfsz	9,f
  3897  0771  2F6D               	goto	u1695
  3898  0772  3001               	movlw	1
  3899  0773  00A0               	movwf	??___ftadd
  3900  0774  0820               	movf	??___ftadd,w
  3901  0775  07A6               	addwf	___ftadd@exp1,f
  3902  0776                     l1576:	
  3903  0776  0826               	movf	___ftadd@exp1,w
  3904  0777  0625               	xorwf	___ftadd@exp2,w
  3905  0778  1903               	btfsc	3,2
  3906  0779  2FA0               	goto	l443
  3907  077A  2F6C               	goto	l1574
  3908  077B                     l1578:	
  3909  077B  0826               	movf	___ftadd@exp1,w
  3910  077C  0225               	subwf	___ftadd@exp2,w
  3911  077D  1803               	skipnc
  3912  077E  2FA0               	goto	l443
  3913  077F                     l1580:	
  3914  077F  3001               	movlw	1
  3915  0780                     u1725:	
  3916  0780  35F8               	lslf	___ftadd@f1,f
  3917  0781  0DF9               	rlf	___ftadd@f1+1,f
  3918  0782  0DFA               	rlf	___ftadd@f1+2,f
  3919  0783  0B89               	decfsz	9,f
  3920  0784  2F80               	goto	u1725
  3921  0785  3001               	movlw	1
  3922  0786  02A6               	subwf	___ftadd@exp1,f
  3923  0787  0825               	movf	___ftadd@exp2,w
  3924  0788  0626               	xorwf	___ftadd@exp1,w
  3925  0789  1903               	skipnz
  3926  078A  2F9C               	goto	l1588
  3927  078B  3001               	movlw	1
  3928  078C  02A4               	subwf	___ftadd@sign,f
  3929  078D  0824               	movf	___ftadd@sign,w
  3930  078E  3907               	andlw	7
  3931  078F  1903               	btfsc	3,2
  3932  0790  2F9C               	goto	l1588
  3933  0791  2F7F               	goto	l1580
  3934  0792                     l1586:	
  3935  0792  3001               	movlw	1
  3936  0793                     u1755:	
  3937  0793  36FD               	lsrf	___ftadd@f2+2,f
  3938  0794  0CFC               	rrf	___ftadd@f2+1,f
  3939  0795  0CFB               	rrf	___ftadd@f2,f
  3940  0796  0B89               	decfsz	9,f
  3941  0797  2F93               	goto	u1755
  3942  0798  3001               	movlw	1
  3943  0799  00A0               	movwf	??___ftadd
  3944  079A  0820               	movf	??___ftadd,w
  3945  079B  07A5               	addwf	___ftadd@exp2,f
  3946  079C                     l1588:	
  3947  079C  0826               	movf	___ftadd@exp1,w
  3948  079D  0625               	xorwf	___ftadd@exp2,w
  3949  079E  1D03               	skipz
  3950  079F  2F92               	goto	l1586
  3951  07A0                     l443:	
  3952  07A0  1FA4               	btfss	___ftadd@sign,7
  3953  07A1  2FB2               	goto	l1592
  3954  07A2  30FF               	movlw	255
  3955  07A3  06F8               	xorwf	___ftadd@f1,f
  3956  07A4  30FF               	movlw	255
  3957  07A5  06F9               	xorwf	___ftadd@f1+1,f
  3958  07A6  30FF               	movlw	255
  3959  07A7  06FA               	xorwf	___ftadd@f1+2,f
  3960  07A8  3001               	movlw	1
  3961  07A9  07F8               	addwf	___ftadd@f1,f
  3962  07AA  3000               	movlw	0
  3963  07AB  1803               	skipnc
  3964  07AC  3001               	movlw	1
  3965  07AD  07F9               	addwf	___ftadd@f1+1,f
  3966  07AE  3000               	movlw	0
  3967  07AF  1803               	skipnc
  3968  07B0  3001               	movlw	1
  3969  07B1  07FA               	addwf	___ftadd@f1+2,f
  3970  07B2                     l1592:	
  3971  07B2  1F24               	btfss	___ftadd@sign,6
  3972  07B3  2FC4               	goto	l1596
  3973  07B4  30FF               	movlw	255
  3974  07B5  06FB               	xorwf	___ftadd@f2,f
  3975  07B6  30FF               	movlw	255
  3976  07B7  06FC               	xorwf	___ftadd@f2+1,f
  3977  07B8  30FF               	movlw	255
  3978  07B9  06FD               	xorwf	___ftadd@f2+2,f
  3979  07BA  3001               	movlw	1
  3980  07BB  07FB               	addwf	___ftadd@f2,f
  3981  07BC  3000               	movlw	0
  3982  07BD  1803               	skipnc
  3983  07BE  3001               	movlw	1
  3984  07BF  07FC               	addwf	___ftadd@f2+1,f
  3985  07C0  3000               	movlw	0
  3986  07C1  1803               	skipnc
  3987  07C2  3001               	movlw	1
  3988  07C3  07FD               	addwf	___ftadd@f2+2,f
  3989  07C4                     l1596:	
  3990  07C4  01A4               	clrf	___ftadd@sign
  3991  07C5  0878               	movf	___ftadd@f1,w
  3992  07C6  07FB               	addwf	___ftadd@f2,f
  3993  07C7  0879               	movf	___ftadd@f1+1,w
  3994  07C8  3DFC               	addwfc	___ftadd@f2+1,f
  3995  07C9  087A               	movf	___ftadd@f1+2,w
  3996  07CA  3DFD               	addwfc	___ftadd@f2+2,f
  3997  07CB  1FFD               	btfss	___ftadd@f2+2,7
  3998  07CC  2FDF               	goto	l1606
  3999  07CD  30FF               	movlw	255
  4000  07CE  06FB               	xorwf	___ftadd@f2,f
  4001  07CF  30FF               	movlw	255
  4002  07D0  06FC               	xorwf	___ftadd@f2+1,f
  4003  07D1  30FF               	movlw	255
  4004  07D2  06FD               	xorwf	___ftadd@f2+2,f
  4005  07D3  3001               	movlw	1
  4006  07D4  07FB               	addwf	___ftadd@f2,f
  4007  07D5  3000               	movlw	0
  4008  07D6  1803               	skipnc
  4009  07D7  3001               	movlw	1
  4010  07D8  07FC               	addwf	___ftadd@f2+1,f
  4011  07D9  3000               	movlw	0
  4012  07DA  1803               	skipnc
  4013  07DB  3001               	movlw	1
  4014  07DC  07FD               	addwf	___ftadd@f2+2,f
  4015  07DD  01A4               	clrf	___ftadd@sign
  4016  07DE  0AA4               	incf	___ftadd@sign,f
  4017  07DF                     l1606:	
  4018  07DF  087B               	movf	___ftadd@f2,w
  4019  07E0  00F0               	movwf	___ftpack@arg
  4020  07E1  087C               	movf	___ftadd@f2+1,w
  4021  07E2  00F1               	movwf	___ftpack@arg+1
  4022  07E3  087D               	movf	___ftadd@f2+2,w
  4023  07E4  00F2               	movwf	___ftpack@arg+2
  4024  07E5  0826               	movf	___ftadd@exp1,w
  4025  07E6  00A0               	movwf	??___ftadd
  4026  07E7  0820               	movf	??___ftadd,w
  4027  07E8  00F3               	movwf	___ftpack@exp
  4028  07E9  0824               	movf	___ftadd@sign,w
  4029  07EA  00A1               	movwf	??___ftadd+1
  4030  07EB  0821               	movf	??___ftadd+1,w
  4031  07EC  00F4               	movwf	___ftpack@sign
  4032  07ED  3183  230B         	fcall	___ftpack
  4033  07EF  0870               	movf	?___ftpack,w
  4034  07F0  00F8               	movwf	?___ftadd
  4035  07F1  0871               	movf	?___ftpack+1,w
  4036  07F2  00F9               	movwf	?___ftadd+1
  4037  07F3  0872               	movf	?___ftpack+2,w
  4038  07F4  00FA               	movwf	?___ftadd+2
  4039  07F5  0008               	return
  4040  07F6                     __end_of___ftadd:	
  4041                           
  4042                           	psect	text7
  4043  00EA                     __ptext7:	
  4044 ;; *************** function ___awtoft *****************
  4045 ;; Defined at:
  4046 ;;		line 32 in file "C:\Program Files (x86)\Microchip\xc8\v1.41\sources\common\awtoft.c"
  4047 ;; Parameters:    Size  Location     Type
  4048 ;;  c               2    8[COMMON] int 
  4049 ;; Auto vars:     Size  Location     Type
  4050 ;;  sign            1   13[COMMON] unsigned char 
  4051 ;; Return value:  Size  Location     Type
  4052 ;;                  3    8[COMMON] float 
  4053 ;; Registers used:
  4054 ;;		wreg, status,2, status,0, pclath, cstack
  4055 ;; Tracked objects:
  4056 ;;		On entry : 0/0
  4057 ;;		On exit  : 0/0
  4058 ;;		Unchanged: 0/0
  4059 ;; Data sizes:     COMMON   BANK0   BANK1   BANK2   BANK3   BANK4   BANK5   BANK6   BANK7   BANK8   BANK9  BANK10  BANK1
      +1  BANK12
  4060 ;;      Params:         3       0       0       0       0       0       0       0       0       0       0       0       
      +0       0
  4061 ;;      Locals:         1       0       0       0       0       0       0       0       0       0       0       0       
      +0       0
  4062 ;;      Temps:          2       0       0       0       0       0       0       0       0       0       0       0       
      +0       0
  4063 ;;      Totals:         6       0       0       0       0       0       0       0       0       0       0       0       
      +0       0
  4064 ;;Total ram usage:        6 bytes
  4065 ;; Hardware stack levels used:    1
  4066 ;; Hardware stack levels required when called:    1
  4067 ;; This function calls:
  4068 ;;		___ftpack
  4069 ;; This function is called by:
  4070 ;;		_main
  4071 ;; This function uses a non-reentrant model
  4072 ;;
  4073                           
  4074                           
  4075                           ;psect for function ___awtoft
  4076  00EA                     ___awtoft:	
  4077                           
  4078                           ;incstack = 0
  4079                           ; Regs used in ___awtoft: [wreg+status,2+status,0+pclath+cstack]
  4080  00EA  01FD               	clrf	___awtoft@sign
  4081  00EB  1FF9               	btfss	___awtoft@c+1,7
  4082  00EC  28F4               	goto	l1536
  4083  00ED  09F8               	comf	___awtoft@c,f
  4084  00EE  09F9               	comf	___awtoft@c+1,f
  4085  00EF  0AF8               	incf	___awtoft@c,f
  4086  00F0  1903               	skipnz
  4087  00F1  0AF9               	incf	___awtoft@c+1,f
  4088  00F2  01FD               	clrf	___awtoft@sign
  4089  00F3  0AFD               	incf	___awtoft@sign,f
  4090  00F4                     l1536:	
  4091  00F4  0878               	movf	___awtoft@c,w
  4092  00F5  00F0               	movwf	___ftpack@arg
  4093  00F6  0879               	movf	___awtoft@c+1,w
  4094  00F7  00F1               	movwf	___ftpack@arg+1
  4095  00F8  01F2               	clrf	___ftpack@arg+2
  4096  00F9  308E               	movlw	142
  4097  00FA  00FB               	movwf	??___awtoft
  4098  00FB  087B               	movf	??___awtoft,w
  4099  00FC  00F3               	movwf	___ftpack@exp
  4100  00FD  087D               	movf	___awtoft@sign,w
  4101  00FE  00FC               	movwf	??___awtoft+1
  4102  00FF  087C               	movf	??___awtoft+1,w
  4103  0100  00F4               	movwf	___ftpack@sign
  4104  0101  3183  230B         	fcall	___ftpack
  4105  0103  0870               	movf	?___ftpack,w
  4106  0104  00F8               	movwf	?___awtoft
  4107  0105  0871               	movf	?___ftpack+1,w
  4108  0106  00F9               	movwf	?___awtoft+1
  4109  0107  0872               	movf	?___ftpack+2,w
  4110  0108  00FA               	movwf	?___awtoft+2
  4111  0109  0008               	return
  4112  010A                     __end_of___awtoft:	
  4113                           
  4114                           	psect	text8
  4115  030B                     __ptext8:	
  4116 ;; *************** function ___ftpack *****************
  4117 ;; Defined at:
  4118 ;;		line 62 in file "C:\Program Files (x86)\Microchip\xc8\v1.41\sources\common\float.c"
  4119 ;; Parameters:    Size  Location     Type
  4120 ;;  arg             3    0[COMMON] unsigned um
  4121 ;;  exp             1    3[COMMON] unsigned char 
  4122 ;;  sign            1    4[COMMON] unsigned char 
  4123 ;; Auto vars:     Size  Location     Type
  4124 ;;		None
  4125 ;; Return value:  Size  Location     Type
  4126 ;;                  3    0[COMMON] float 
  4127 ;; Registers used:
  4128 ;;		wreg, status,2, status,0
  4129 ;; Tracked objects:
  4130 ;;		On entry : 0/0
  4131 ;;		On exit  : 0/0
  4132 ;;		Unchanged: 0/0
  4133 ;; Data sizes:     COMMON   BANK0   BANK1   BANK2   BANK3   BANK4   BANK5   BANK6   BANK7   BANK8   BANK9  BANK10  BANK1
      +1  BANK12
  4134 ;;      Params:         5       0       0       0       0       0       0       0       0       0       0       0       
      +0       0
  4135 ;;      Locals:         0       0       0       0       0       0       0       0       0       0       0       0       
      +0       0
  4136 ;;      Temps:          3       0       0       0       0       0       0       0       0       0       0       0       
      +0       0
  4137 ;;      Totals:         8       0       0       0       0       0       0       0       0       0       0       0       
      +0       0
  4138 ;;Total ram usage:        8 bytes
  4139 ;; Hardware stack levels used:    1
  4140 ;; This function calls:
  4141 ;;		Nothing
  4142 ;; This function is called by:
  4143 ;;		___awtoft
  4144 ;;		___ftadd
  4145 ;;		___ftdiv
  4146 ;;		___ftmul
  4147 ;; This function uses a non-reentrant model
  4148 ;;
  4149                           
  4150                           
  4151                           ;psect for function ___ftpack
  4152  030B                     ___ftpack:	
  4153                           
  4154                           ;incstack = 0
  4155                           ; Regs used in ___ftpack: [wreg+status,2+status,0]
  4156  030B  0873               	movf	___ftpack@exp,w
  4157  030C  1903               	btfsc	3,2
  4158  030D  2B13               	goto	l1416
  4159  030E  0872               	movf	___ftpack@arg+2,w
  4160  030F  0471               	iorwf	___ftpack@arg+1,w
  4161  0310  0470               	iorwf	___ftpack@arg,w
  4162  0311  1D03               	skipz
  4163  0312  2B24               	goto	l1422
  4164  0313                     l1416:	
  4165  0313  3000               	movlw	0
  4166  0314  00F0               	movwf	?___ftpack
  4167  0315  3000               	movlw	0
  4168  0316  00F1               	movwf	?___ftpack+1
  4169  0317  3000               	movlw	0
  4170  0318  00F2               	movwf	?___ftpack+2
  4171  0319  0008               	return
  4172  031A                     l1420:	
  4173  031A  3001               	movlw	1
  4174  031B  00F5               	movwf	??___ftpack
  4175  031C  0875               	movf	??___ftpack,w
  4176  031D  07F3               	addwf	___ftpack@exp,f
  4177  031E  3001               	movlw	1
  4178  031F                     u1425:	
  4179  031F  36F2               	lsrf	___ftpack@arg+2,f
  4180  0320  0CF1               	rrf	___ftpack@arg+1,f
  4181  0321  0CF0               	rrf	___ftpack@arg,f
  4182  0322  0B89               	decfsz	9,f
  4183  0323  2B1F               	goto	u1425
  4184  0324                     l1422:	
  4185  0324  30FE               	movlw	254
  4186  0325  0572               	andwf	___ftpack@arg+2,w
  4187  0326  1903               	btfsc	3,2
  4188  0327  2B3D               	goto	l412
  4189  0328  2B1A               	goto	l1420
  4190  0329                     l1424:	
  4191  0329  3001               	movlw	1
  4192  032A  00F5               	movwf	??___ftpack
  4193  032B  0875               	movf	??___ftpack,w
  4194  032C  07F3               	addwf	___ftpack@exp,f
  4195  032D  3001               	movlw	1
  4196  032E  07F0               	addwf	___ftpack@arg,f
  4197  032F  3000               	movlw	0
  4198  0330  1803               	skipnc
  4199  0331  3001               	movlw	1
  4200  0332  07F1               	addwf	___ftpack@arg+1,f
  4201  0333  3000               	movlw	0
  4202  0334  1803               	skipnc
  4203  0335  3001               	movlw	1
  4204  0336  07F2               	addwf	___ftpack@arg+2,f
  4205  0337  3001               	movlw	1
  4206  0338                     u1445:	
  4207  0338  36F2               	lsrf	___ftpack@arg+2,f
  4208  0339  0CF1               	rrf	___ftpack@arg+1,f
  4209  033A  0CF0               	rrf	___ftpack@arg,f
  4210  033B  0B89               	decfsz	9,f
  4211  033C  2B38               	goto	u1445
  4212  033D                     l412:	
  4213  033D  30FF               	movlw	255
  4214  033E  0572               	andwf	___ftpack@arg+2,w
  4215  033F  1903               	btfsc	3,2
  4216  0340  2B4A               	goto	l1432
  4217  0341  2B29               	goto	l1424
  4218  0342                     l1430:	
  4219  0342  3001               	movlw	1
  4220  0343  02F3               	subwf	___ftpack@exp,f
  4221  0344  3001               	movlw	1
  4222  0345                     u1465:	
  4223  0345  35F0               	lslf	___ftpack@arg,f
  4224  0346  0DF1               	rlf	___ftpack@arg+1,f
  4225  0347  0DF2               	rlf	___ftpack@arg+2,f
  4226  0348  0B89               	decfsz	9,f
  4227  0349  2B45               	goto	u1465
  4228  034A                     l1432:	
  4229  034A  1BF1               	btfsc	___ftpack@arg+1,7
  4230  034B  2B50               	goto	l419
  4231  034C  3002               	movlw	2
  4232  034D  0273               	subwf	___ftpack@exp,w
  4233  034E  1803               	skipnc
  4234  034F  2B42               	goto	l1430
  4235  0350                     l419:	
  4236  0350  1873               	btfsc	___ftpack@exp,0
  4237  0351  2B58               	goto	l420
  4238  0352  30FF               	movlw	255
  4239  0353  05F0               	andwf	___ftpack@arg,f
  4240  0354  307F               	movlw	127
  4241  0355  05F1               	andwf	___ftpack@arg+1,f
  4242  0356  30FF               	movlw	255
  4243  0357  05F2               	andwf	___ftpack@arg+2,f
  4244  0358                     l420:	
  4245  0358  1003               	clrc
  4246  0359  0CF3               	rrf	___ftpack@exp,f
  4247  035A  0873               	movf	___ftpack@exp,w
  4248  035B  00F5               	movwf	??___ftpack
  4249  035C  01F6               	clrf	??___ftpack+1
  4250  035D  01F7               	clrf	??___ftpack+2
  4251  035E  3010               	movlw	16
  4252  035F                     u1505:	
  4253  035F  35F5               	lslf	??___ftpack,f
  4254  0360  0DF6               	rlf	??___ftpack+1,f
  4255  0361  0DF7               	rlf	??___ftpack+2,f
  4256  0362  0B89               	decfsz	9,f
  4257  0363  2B5F               	goto	u1505
  4258  0364  0875               	movf	??___ftpack,w
  4259  0365  04F0               	iorwf	___ftpack@arg,f
  4260  0366  0876               	movf	??___ftpack+1,w
  4261  0367  04F1               	iorwf	___ftpack@arg+1,f
  4262  0368  0877               	movf	??___ftpack+2,w
  4263  0369  04F2               	iorwf	___ftpack@arg+2,f
  4264  036A  0874               	movf	___ftpack@sign,w
  4265  036B  1903               	btfsc	3,2
  4266  036C  0008               	return
  4267  036D  17F2               	bsf	___ftpack@arg+2,7
  4268  036E  0008               	return
  4269  036F                     __end_of___ftpack:	
  4270                           
  4271                           	psect	text9
  4272  010A                     __ptext9:	
  4273 ;; *************** function _OLED_Write_Integer *****************
  4274 ;; Defined at:
  4275 ;;		line 299 in file "oled.c"
  4276 ;; Parameters:    Size  Location     Type
  4277 ;;  i               1    wreg     unsigned char 
  4278 ;; Auto vars:     Size  Location     Type
  4279 ;;  i               1   24[BANK0 ] unsigned char 
  4280 ;;  status          2   26[BANK0 ] int 
  4281 ;;  buff11          1   25[BANK0 ] PTR unsigned char 
  4282 ;;		 -> OLED_Write_Integer@status(2), 
  4283 ;; Return value:  Size  Location     Type
  4284 ;;                  1    wreg      void 
  4285 ;; Registers used:
  4286 ;;		wreg, fsr0l, fsr0h, fsr1l, fsr1h, status,2, status,0, pclath, cstack
  4287 ;; Tracked objects:
  4288 ;;		On entry : 0/0
  4289 ;;		On exit  : 0/0
  4290 ;;		Unchanged: 0/0
  4291 ;; Data sizes:     COMMON   BANK0   BANK1   BANK2   BANK3   BANK4   BANK5   BANK6   BANK7   BANK8   BANK9  BANK10  BANK1
      +1  BANK12
  4292 ;;      Params:         0       0       0       0       0       0       0       0       0       0       0       0       
      +0       0
  4293 ;;      Locals:         0       4       0       0       0       0       0       0       0       0       0       0       
      +0       0
  4294 ;;      Temps:          0       3       0       0       0       0       0       0       0       0       0       0       
      +0       0
  4295 ;;      Totals:         0       7       0       0       0       0       0       0       0       0       0       0       
      +0       0
  4296 ;;Total ram usage:        7 bytes
  4297 ;; Hardware stack levels used:    1
  4298 ;; Hardware stack levels required when called:    3
  4299 ;; This function calls:
  4300 ;;		_OLED_Write_String
  4301 ;;		_itoa
  4302 ;; This function is called by:
  4303 ;;		_main
  4304 ;; This function uses a non-reentrant model
  4305 ;;
  4306                           
  4307                           
  4308                           ;psect for function _OLED_Write_Integer
  4309  010A                     _OLED_Write_Integer:	
  4310                           
  4311                           ;incstack = 0
  4312                           ; Regs used in _OLED_Write_Integer: [wreg-fsr1h+status,2+status,0+pclath+cstack]
  4313                           ;OLED_Write_Integer@i stored from wreg
  4314  010A  0020               	movlb	0	; select bank0
  4315  010B  00B8               	movwf	OLED_Write_Integer@i
  4316                           
  4317                           ;oled.c: 301: char* buff11;
  4318                           ;oled.c: 302: int status;
  4319                           ;oled.c: 304: buff11 = itoa(&status, i, 10);
  4320  010C  0838               	movf	OLED_Write_Integer@i,w
  4321  010D  00B5               	movwf	??_OLED_Write_Integer
  4322  010E  01B6               	clrf	??_OLED_Write_Integer+1
  4323  010F  0835               	movf	??_OLED_Write_Integer,w
  4324  0110  00A4               	movwf	itoa@val
  4325  0111  0836               	movf	??_OLED_Write_Integer+1,w
  4326  0112  00A5               	movwf	itoa@val+1
  4327  0113  300A               	movlw	10
  4328  0114  00A6               	movwf	itoa@base
  4329  0115  3000               	movlw	0
  4330  0116  00A7               	movwf	itoa@base+1
  4331  0117  303A               	movlw	(low (OLED_Write_Integer@status| 0))& (0+255)
  4332  0118  3181  212D  3181   	fcall	_itoa
  4333  011B  0020               	movlb	0	; select bank0
  4334  011C  00B7               	movwf	??_OLED_Write_Integer+2
  4335  011D  0837               	movf	??_OLED_Write_Integer+2,w
  4336  011E  00B9               	movwf	OLED_Write_Integer@buff11
  4337                           
  4338                           ;oled.c: 307: OLED_Write_String(buff11);
  4339  011F  0839               	movf	OLED_Write_Integer@buff11,w
  4340  0120  00FC               	movwf	OLED_Write_String@s
  4341  0121  3000               	movlw	0
  4342  0122  00FD               	movwf	OLED_Write_String@s+1
  4343  0123  3180  20B8  3181   	fcall	_OLED_Write_String
  4344                           
  4345                           ;oled.c: 308: OLED_Write_String( "     " );
  4346  0126  303A               	movlw	low (STR_2| (0+32768))
  4347  0127  00FC               	movwf	OLED_Write_String@s
  4348  0128  308B               	movlw	high (STR_2| (0+32768))
  4349  0129  00FD               	movwf	OLED_Write_String@s+1
  4350  012A  3180  20B8         	fcall	_OLED_Write_String
  4351  012C  0008               	return
  4352  012D                     __end_of_OLED_Write_Integer:	
  4353                           
  4354                           	psect	text10
  4355  012D                     __ptext10:	
  4356 ;; *************** function _itoa *****************
  4357 ;; Defined at:
  4358 ;;		line 4 in file "C:\Program Files (x86)\Microchip\xc8\v1.41\sources\common\itoa.c"
  4359 ;; Parameters:    Size  Location     Type
  4360 ;;  buf             1    wreg     PTR unsigned char 
  4361 ;;		 -> OLED_Write_Integer@status(2), 
  4362 ;;  val             2    4[BANK0 ] int 
  4363 ;;  base            2    6[BANK0 ] int 
  4364 ;; Auto vars:     Size  Location     Type
  4365 ;;  buf             1    9[BANK0 ] PTR unsigned char 
  4366 ;;		 -> OLED_Write_Integer@status(2), 
  4367 ;;  cp              1    8[BANK0 ] PTR unsigned char 
  4368 ;;		 -> OLED_Write_Integer@status(2), 
  4369 ;; Return value:  Size  Location     Type
  4370 ;;                  1    wreg      PTR unsigned char 
  4371 ;; Registers used:
  4372 ;;		wreg, fsr1l, fsr1h, status,2, status,0, pclath, cstack
  4373 ;; Tracked objects:
  4374 ;;		On entry : 0/0
  4375 ;;		On exit  : 0/0
  4376 ;;		Unchanged: 0/0
  4377 ;; Data sizes:     COMMON   BANK0   BANK1   BANK2   BANK3   BANK4   BANK5   BANK6   BANK7   BANK8   BANK9  BANK10  BANK1
      +1  BANK12
  4378 ;;      Params:         0       4       0       0       0       0       0       0       0       0       0       0       
      +0       0
  4379 ;;      Locals:         0       2       0       0       0       0       0       0       0       0       0       0       
      +0       0
  4380 ;;      Temps:          1       0       0       0       0       0       0       0       0       0       0       0       
      +0       0
  4381 ;;      Totals:         1       6       0       0       0       0       0       0       0       0       0       0       
      +0       0
  4382 ;;Total ram usage:        7 bytes
  4383 ;; Hardware stack levels used:    1
  4384 ;; Hardware stack levels required when called:    2
  4385 ;; This function calls:
  4386 ;;		_utoa
  4387 ;; This function is called by:
  4388 ;;		_OLED_Write_Integer
  4389 ;; This function uses a non-reentrant model
  4390 ;;
  4391                           
  4392                           
  4393                           ;psect for function _itoa
  4394  012D                     _itoa:	
  4395                           
  4396                           ;incstack = 0
  4397                           ; Regs used in _itoa: [wreg+fsr1l+fsr1h+status,2+status,0+pclath+cstack]
  4398                           ;itoa@buf stored from wreg
  4399  012D  0020               	movlb	0	; select bank0
  4400  012E  00A9               	movwf	itoa@buf
  4401  012F  0829               	movf	itoa@buf,w
  4402  0130  00FD               	movwf	??_itoa
  4403  0131  087D               	movf	??_itoa,w
  4404  0132  00A8               	movwf	itoa@cp
  4405  0133  1FA5               	btfss	itoa@val+1,7
  4406  0134  2945               	goto	l1406
  4407  0135  302D               	movlw	45
  4408  0136  00FD               	movwf	??_itoa
  4409  0137  0829               	movf	itoa@buf,w
  4410  0138  0086               	movwf	6
  4411  0139  0187               	clrf	7
  4412  013A  087D               	movf	??_itoa,w
  4413  013B  0081               	movwf	1
  4414  013C  3001               	movlw	1
  4415  013D  00FD               	movwf	??_itoa
  4416  013E  087D               	movf	??_itoa,w
  4417  013F  07A9               	addwf	itoa@buf,f
  4418  0140  09A4               	comf	itoa@val,f
  4419  0141  09A5               	comf	itoa@val+1,f
  4420  0142  0AA4               	incf	itoa@val,f
  4421  0143  1903               	skipnz
  4422  0144  0AA5               	incf	itoa@val+1,f
  4423  0145                     l1406:	
  4424  0145  0825               	movf	itoa@val+1,w
  4425  0146  00F9               	movwf	utoa@val+1
  4426  0147  0824               	movf	itoa@val,w
  4427  0148  00F8               	movwf	utoa@val
  4428  0149  0827               	movf	itoa@base+1,w
  4429  014A  00FB               	movwf	utoa@base+1
  4430  014B  0826               	movf	itoa@base,w
  4431  014C  00FA               	movwf	utoa@base
  4432  014D  0829               	movf	itoa@buf,w
  4433  014E  3182  2245         	fcall	_utoa
  4434  0150  0020               	movlb	0	; select bank0
  4435  0151  0828               	movf	itoa@cp,w
  4436  0152  0008               	return
  4437  0153                     __end_of_itoa:	
  4438                           
  4439                           	psect	text11
  4440  0245                     __ptext11:	
  4441 ;; *************** function _utoa *****************
  4442 ;; Defined at:
  4443 ;;		line 17 in file "C:\Program Files (x86)\Microchip\xc8\v1.41\sources\common\itoa.c"
  4444 ;; Parameters:    Size  Location     Type
  4445 ;;  buf             1    wreg     PTR unsigned char 
  4446 ;;		 -> OLED_Write_Integer@status(2), 
  4447 ;;  val             2    8[COMMON] unsigned int 
  4448 ;;  base            2   10[COMMON] int 
  4449 ;; Auto vars:     Size  Location     Type
  4450 ;;  buf             1    3[BANK0 ] PTR unsigned char 
  4451 ;;		 -> OLED_Write_Integer@status(2), 
  4452 ;;  v               2    0[BANK0 ] unsigned int 
  4453 ;;  c               1    2[BANK0 ] unsigned char 
  4454 ;; Return value:  Size  Location     Type
  4455 ;;                  1    wreg      PTR unsigned char 
  4456 ;; Registers used:
  4457 ;;		wreg, fsr1l, fsr1h, status,2, status,0, pclath, cstack
  4458 ;; Tracked objects:
  4459 ;;		On entry : 0/0
  4460 ;;		On exit  : 0/0
  4461 ;;		Unchanged: 0/0
  4462 ;; Data sizes:     COMMON   BANK0   BANK1   BANK2   BANK3   BANK4   BANK5   BANK6   BANK7   BANK8   BANK9  BANK10  BANK1
      +1  BANK12
  4463 ;;      Params:         4       0       0       0       0       0       0       0       0       0       0       0       
      +0       0
  4464 ;;      Locals:         0       4       0       0       0       0       0       0       0       0       0       0       
      +0       0
  4465 ;;      Temps:          1       0       0       0       0       0       0       0       0       0       0       0       
      +0       0
  4466 ;;      Totals:         5       4       0       0       0       0       0       0       0       0       0       0       
      +0       0
  4467 ;;Total ram usage:        9 bytes
  4468 ;; Hardware stack levels used:    1
  4469 ;; Hardware stack levels required when called:    1
  4470 ;; This function calls:
  4471 ;;		___lwdiv
  4472 ;;		___lwmod
  4473 ;; This function is called by:
  4474 ;;		_itoa
  4475 ;; This function uses a non-reentrant model
  4476 ;;
  4477                           
  4478                           
  4479                           ;psect for function _utoa
  4480  0245                     _utoa:	
  4481                           
  4482                           ;incstack = 0
  4483                           ; Regs used in _utoa: [wreg+fsr1l+fsr1h+status,2+status,0+pclath+cstack]
  4484                           ;utoa@buf stored from wreg
  4485  0245  0020               	movlb	0	; select bank0
  4486  0246  00A3               	movwf	utoa@buf
  4487  0247  0879               	movf	utoa@val+1,w
  4488  0248  00A1               	movwf	utoa@v+1
  4489  0249  0878               	movf	utoa@val,w
  4490  024A  00A0               	movwf	utoa@v
  4491  024B                     l1356:	
  4492  024B  087B               	movf	utoa@base+1,w
  4493  024C  00F1               	movwf	___lwdiv@divisor+1
  4494  024D  087A               	movf	utoa@base,w
  4495  024E  00F0               	movwf	___lwdiv@divisor
  4496  024F  0821               	movf	utoa@v+1,w
  4497  0250  00F3               	movwf	___lwdiv@dividend+1
  4498  0251  0820               	movf	utoa@v,w
  4499  0252  00F2               	movwf	___lwdiv@dividend
  4500  0253  3181  21D7  3182   	fcall	___lwdiv
  4501  0256  0871               	movf	?___lwdiv+1,w
  4502  0257  0020               	movlb	0	; select bank0
  4503  0258  00A1               	movwf	utoa@v+1
  4504  0259  0870               	movf	?___lwdiv,w
  4505  025A  00A0               	movwf	utoa@v
  4506  025B  3001               	movlw	1
  4507  025C  00FC               	movwf	??_utoa
  4508  025D  087C               	movf	??_utoa,w
  4509  025E  07A3               	addwf	utoa@buf,f
  4510  025F  0820               	movf	utoa@v,w
  4511  0260  0421               	iorwf	utoa@v+1,w
  4512  0261  1D03               	btfss	3,2
  4513  0262  2A4B               	goto	l1356
  4514  0263  0823               	movf	utoa@buf,w
  4515  0264  0086               	movwf	6
  4516  0265  0187               	clrf	7
  4517  0266  0181               	clrf	1
  4518  0267  3001               	movlw	1
  4519  0268  02A3               	subwf	utoa@buf,f
  4520  0269                     l1366:	
  4521  0269  087B               	movf	utoa@base+1,w
  4522  026A  00F1               	movwf	___lwmod@divisor+1
  4523  026B  087A               	movf	utoa@base,w
  4524  026C  00F0               	movwf	___lwmod@divisor
  4525  026D  0879               	movf	utoa@val+1,w
  4526  026E  00F3               	movwf	___lwmod@dividend+1
  4527  026F  0878               	movf	utoa@val,w
  4528  0270  00F2               	movwf	___lwmod@dividend
  4529  0271  3181  217B  3182   	fcall	___lwmod
  4530  0274  0870               	movf	?___lwmod,w
  4531  0275  00FC               	movwf	??_utoa
  4532  0276  087C               	movf	??_utoa,w
  4533  0277  0020               	movlb	0	; select bank0
  4534  0278  00A2               	movwf	utoa@c
  4535  0279  087B               	movf	utoa@base+1,w
  4536  027A  00F1               	movwf	___lwdiv@divisor+1
  4537  027B  087A               	movf	utoa@base,w
  4538  027C  00F0               	movwf	___lwdiv@divisor
  4539  027D  0879               	movf	utoa@val+1,w
  4540  027E  00F3               	movwf	___lwdiv@dividend+1
  4541  027F  0878               	movf	utoa@val,w
  4542  0280  00F2               	movwf	___lwdiv@dividend
  4543  0281  3181  21D7  3182   	fcall	___lwdiv
  4544  0284  0871               	movf	?___lwdiv+1,w
  4545  0285  00F9               	movwf	utoa@val+1
  4546  0286  0870               	movf	?___lwdiv,w
  4547  0287  00F8               	movwf	utoa@val
  4548  0288  300A               	movlw	10
  4549  0289  0020               	movlb	0	; select bank0
  4550  028A  0222               	subwf	utoa@c,w
  4551  028B  1C03               	skipc
  4552  028C  2A91               	goto	l531
  4553  028D  3007               	movlw	7
  4554  028E  00FC               	movwf	??_utoa
  4555  028F  087C               	movf	??_utoa,w
  4556  0290  07A2               	addwf	utoa@c,f
  4557  0291                     l531:	
  4558  0291  3030               	movlw	48
  4559  0292  00FC               	movwf	??_utoa
  4560  0293  087C               	movf	??_utoa,w
  4561  0294  07A2               	addwf	utoa@c,f
  4562  0295  0822               	movf	utoa@c,w
  4563  0296  00FC               	movwf	??_utoa
  4564  0297  0823               	movf	utoa@buf,w
  4565  0298  0086               	movwf	6
  4566  0299  0187               	clrf	7
  4567  029A  087C               	movf	??_utoa,w
  4568  029B  0081               	movwf	1
  4569  029C  3001               	movlw	1
  4570  029D  02A3               	subwf	utoa@buf,f
  4571  029E  0878               	movf	utoa@val,w
  4572  029F  0479               	iorwf	utoa@val+1,w
  4573  02A0  1D03               	btfss	3,2
  4574  02A1  2A69               	goto	l1366
  4575                           
  4576                           ;	Return value of _utoa is never used
  4577  02A2  3001               	movlw	1
  4578  02A3  00FC               	movwf	??_utoa
  4579  02A4  087C               	movf	??_utoa,w
  4580  02A5  07A3               	addwf	utoa@buf,f
  4581  02A6  0008               	return
  4582  02A7                     __end_of_utoa:	
  4583                           
  4584                           	psect	text12
  4585  017B                     __ptext12:	
  4586 ;; *************** function ___lwmod *****************
  4587 ;; Defined at:
  4588 ;;		line 6 in file "C:\Program Files (x86)\Microchip\xc8\v1.41\sources\common\lwmod.c"
  4589 ;; Parameters:    Size  Location     Type
  4590 ;;  divisor         2    0[COMMON] unsigned int 
  4591 ;;  dividend        2    2[COMMON] unsigned int 
  4592 ;; Auto vars:     Size  Location     Type
  4593 ;;  counter         1    5[COMMON] unsigned char 
  4594 ;; Return value:  Size  Location     Type
  4595 ;;                  2    0[COMMON] unsigned int 
  4596 ;; Registers used:
  4597 ;;		wreg, status,2, status,0
  4598 ;; Tracked objects:
  4599 ;;		On entry : 0/0
  4600 ;;		On exit  : 0/0
  4601 ;;		Unchanged: 0/0
  4602 ;; Data sizes:     COMMON   BANK0   BANK1   BANK2   BANK3   BANK4   BANK5   BANK6   BANK7   BANK8   BANK9  BANK10  BANK1
      +1  BANK12
  4603 ;;      Params:         4       0       0       0       0       0       0       0       0       0       0       0       
      +0       0
  4604 ;;      Locals:         1       0       0       0       0       0       0       0       0       0       0       0       
      +0       0
  4605 ;;      Temps:          1       0       0       0       0       0       0       0       0       0       0       0       
      +0       0
  4606 ;;      Totals:         6       0       0       0       0       0       0       0       0       0       0       0       
      +0       0
  4607 ;;Total ram usage:        6 bytes
  4608 ;; Hardware stack levels used:    1
  4609 ;; This function calls:
  4610 ;;		Nothing
  4611 ;; This function is called by:
  4612 ;;		_utoa
  4613 ;; This function uses a non-reentrant model
  4614 ;;
  4615                           
  4616                           
  4617                           ;psect for function ___lwmod
  4618  017B                     ___lwmod:	
  4619                           
  4620                           ;incstack = 0
  4621                           ; Regs used in ___lwmod: [wreg+status,2+status,0]
  4622  017B  0870               	movf	___lwmod@divisor,w
  4623  017C  0471               	iorwf	___lwmod@divisor+1,w
  4624  017D  1903               	btfsc	3,2
  4625  017E  29A2               	goto	l1308
  4626  017F  01F5               	clrf	___lwmod@counter
  4627  0180  0AF5               	incf	___lwmod@counter,f
  4628  0181                     l1298:	
  4629  0181  1BF1               	btfsc	___lwmod@divisor+1,7
  4630  0182  298D               	goto	l1300
  4631  0183  3001               	movlw	1
  4632  0184                     u1245:	
  4633  0184  35F0               	lslf	___lwmod@divisor,f
  4634  0185  0DF1               	rlf	___lwmod@divisor+1,f
  4635  0186  0B89               	decfsz	9,f
  4636  0187  2984               	goto	u1245
  4637  0188  3001               	movlw	1
  4638  0189  00F4               	movwf	??___lwmod
  4639  018A  0874               	movf	??___lwmod,w
  4640  018B  07F5               	addwf	___lwmod@counter,f
  4641  018C  2981               	goto	l1298
  4642  018D                     l1300:	
  4643  018D  0871               	movf	___lwmod@divisor+1,w
  4644  018E  0273               	subwf	___lwmod@dividend+1,w
  4645  018F  1D03               	skipz
  4646  0190  2993               	goto	u1265
  4647  0191  0870               	movf	___lwmod@divisor,w
  4648  0192  0272               	subwf	___lwmod@dividend,w
  4649  0193                     u1265:	
  4650  0193  1C03               	skipc
  4651  0194  2999               	goto	l1304
  4652  0195  0870               	movf	___lwmod@divisor,w
  4653  0196  02F2               	subwf	___lwmod@dividend,f
  4654  0197  0871               	movf	___lwmod@divisor+1,w
  4655  0198  3BF3               	subwfb	___lwmod@dividend+1,f
  4656  0199                     l1304:	
  4657  0199  3001               	movlw	1
  4658  019A                     u1275:	
  4659  019A  36F1               	lsrf	___lwmod@divisor+1,f
  4660  019B  0CF0               	rrf	___lwmod@divisor,f
  4661  019C  0B89               	decfsz	9,f
  4662  019D  299A               	goto	u1275
  4663  019E  3001               	movlw	1
  4664  019F  02F5               	subwf	___lwmod@counter,f
  4665  01A0  1D03               	btfss	3,2
  4666  01A1  298D               	goto	l1300
  4667  01A2                     l1308:	
  4668  01A2  0873               	movf	___lwmod@dividend+1,w
  4669  01A3  00F1               	movwf	?___lwmod+1
  4670  01A4  0872               	movf	___lwmod@dividend,w
  4671  01A5  00F0               	movwf	?___lwmod
  4672  01A6  0008               	return
  4673  01A7                     __end_of___lwmod:	
  4674                           
  4675                           	psect	text13
  4676  01D7                     __ptext13:	
  4677 ;; *************** function ___lwdiv *****************
  4678 ;; Defined at:
  4679 ;;		line 6 in file "C:\Program Files (x86)\Microchip\xc8\v1.41\sources\common\lwdiv.c"
  4680 ;; Parameters:    Size  Location     Type
  4681 ;;  divisor         2    0[COMMON] unsigned int 
  4682 ;;  dividend        2    2[COMMON] unsigned int 
  4683 ;; Auto vars:     Size  Location     Type
  4684 ;;  quotient        2    5[COMMON] unsigned int 
  4685 ;;  counter         1    7[COMMON] unsigned char 
  4686 ;; Return value:  Size  Location     Type
  4687 ;;                  2    0[COMMON] unsigned int 
  4688 ;; Registers used:
  4689 ;;		wreg, status,2, status,0
  4690 ;; Tracked objects:
  4691 ;;		On entry : 0/0
  4692 ;;		On exit  : 0/0
  4693 ;;		Unchanged: 0/0
  4694 ;; Data sizes:     COMMON   BANK0   BANK1   BANK2   BANK3   BANK4   BANK5   BANK6   BANK7   BANK8   BANK9  BANK10  BANK1
      +1  BANK12
  4695 ;;      Params:         4       0       0       0       0       0       0       0       0       0       0       0       
      +0       0
  4696 ;;      Locals:         3       0       0       0       0       0       0       0       0       0       0       0       
      +0       0
  4697 ;;      Temps:          1       0       0       0       0       0       0       0       0       0       0       0       
      +0       0
  4698 ;;      Totals:         8       0       0       0       0       0       0       0       0       0       0       0       
      +0       0
  4699 ;;Total ram usage:        8 bytes
  4700 ;; Hardware stack levels used:    1
  4701 ;; This function calls:
  4702 ;;		Nothing
  4703 ;; This function is called by:
  4704 ;;		_utoa
  4705 ;; This function uses a non-reentrant model
  4706 ;;
  4707                           
  4708                           
  4709                           ;psect for function ___lwdiv
  4710  01D7                     ___lwdiv:	
  4711                           
  4712                           ;incstack = 0
  4713                           ; Regs used in ___lwdiv: [wreg+status,2+status,0]
  4714  01D7  01F5               	clrf	___lwdiv@quotient
  4715  01D8  01F6               	clrf	___lwdiv@quotient+1
  4716  01D9  0870               	movf	___lwdiv@divisor,w
  4717  01DA  0471               	iorwf	___lwdiv@divisor+1,w
  4718  01DB  1903               	btfsc	3,2
  4719  01DC  2A06               	goto	l1286
  4720  01DD  01F7               	clrf	___lwdiv@counter
  4721  01DE  0AF7               	incf	___lwdiv@counter,f
  4722  01DF                     l1274:	
  4723  01DF  1BF1               	btfsc	___lwdiv@divisor+1,7
  4724  01E0  29EB               	goto	l1276
  4725  01E1  3001               	movlw	1
  4726  01E2                     u1175:	
  4727  01E2  35F0               	lslf	___lwdiv@divisor,f
  4728  01E3  0DF1               	rlf	___lwdiv@divisor+1,f
  4729  01E4  0B89               	decfsz	9,f
  4730  01E5  29E2               	goto	u1175
  4731  01E6  3001               	movlw	1
  4732  01E7  00F4               	movwf	??___lwdiv
  4733  01E8  0874               	movf	??___lwdiv,w
  4734  01E9  07F7               	addwf	___lwdiv@counter,f
  4735  01EA  29DF               	goto	l1274
  4736  01EB                     l1276:	
  4737  01EB  3001               	movlw	1
  4738  01EC                     u1195:	
  4739  01EC  35F5               	lslf	___lwdiv@quotient,f
  4740  01ED  0DF6               	rlf	___lwdiv@quotient+1,f
  4741  01EE  0B89               	decfsz	9,f
  4742  01EF  29EC               	goto	u1195
  4743  01F0  0871               	movf	___lwdiv@divisor+1,w
  4744  01F1  0273               	subwf	___lwdiv@dividend+1,w
  4745  01F2  1D03               	skipz
  4746  01F3  29F6               	goto	u1205
  4747  01F4  0870               	movf	___lwdiv@divisor,w
  4748  01F5  0272               	subwf	___lwdiv@dividend,w
  4749  01F6                     u1205:	
  4750  01F6  1C03               	skipc
  4751  01F7  29FD               	goto	l1282
  4752  01F8  0870               	movf	___lwdiv@divisor,w
  4753  01F9  02F2               	subwf	___lwdiv@dividend,f
  4754  01FA  0871               	movf	___lwdiv@divisor+1,w
  4755  01FB  3BF3               	subwfb	___lwdiv@dividend+1,f
  4756  01FC  1475               	bsf	___lwdiv@quotient,0
  4757  01FD                     l1282:	
  4758  01FD  3001               	movlw	1
  4759  01FE                     u1215:	
  4760  01FE  36F1               	lsrf	___lwdiv@divisor+1,f
  4761  01FF  0CF0               	rrf	___lwdiv@divisor,f
  4762  0200  0B89               	decfsz	9,f
  4763  0201  29FE               	goto	u1215
  4764  0202  3001               	movlw	1
  4765  0203  02F7               	subwf	___lwdiv@counter,f
  4766  0204  1D03               	btfss	3,2
  4767  0205  29EB               	goto	l1276
  4768  0206                     l1286:	
  4769  0206  0876               	movf	___lwdiv@quotient+1,w
  4770  0207  00F1               	movwf	?___lwdiv+1
  4771  0208  0875               	movf	___lwdiv@quotient,w
  4772  0209  00F0               	movwf	?___lwdiv
  4773  020A  0008               	return
  4774  020B                     __end_of___lwdiv:	
  4775                           
  4776                           	psect	text14
  4777  00B8                     __ptext14:	
  4778 ;; *************** function _OLED_Write_String *****************
  4779 ;; Defined at:
  4780 ;;		line 284 in file "oled.c"
  4781 ;; Parameters:    Size  Location     Type
  4782 ;;  s               2   12[COMMON] PTR unsigned char 
  4783 ;;		 -> ftoa@buf(17), STR_3(6), STR_2(6), OLED_Write_Integer@status(2), 
  4784 ;;		 -> STR_1(7), 
  4785 ;; Auto vars:     Size  Location     Type
  4786 ;;		None
  4787 ;; Return value:  Size  Location     Type
  4788 ;;                  1    wreg      void 
  4789 ;; Registers used:
  4790 ;;		wreg, fsr0l, fsr0h, fsr1l, fsr1h, status,2, status,0, pclath, cstack
  4791 ;; Tracked objects:
  4792 ;;		On entry : 0/0
  4793 ;;		On exit  : 0/0
  4794 ;;		Unchanged: 0/0
  4795 ;; Data sizes:     COMMON   BANK0   BANK1   BANK2   BANK3   BANK4   BANK5   BANK6   BANK7   BANK8   BANK9  BANK10  BANK1
      +1  BANK12
  4796 ;;      Params:         2       0       0       0       0       0       0       0       0       0       0       0       
      +0       0
  4797 ;;      Locals:         0       0       0       0       0       0       0       0       0       0       0       0       
      +0       0
  4798 ;;      Temps:          0       1       0       0       0       0       0       0       0       0       0       0       
      +0       0
  4799 ;;      Totals:         2       1       0       0       0       0       0       0       0       0       0       0       
      +0       0
  4800 ;;Total ram usage:        3 bytes
  4801 ;; Hardware stack levels used:    1
  4802 ;; Hardware stack levels required when called:    2
  4803 ;; This function calls:
  4804 ;;		_OLED_PutChar
  4805 ;; This function is called by:
  4806 ;;		_main
  4807 ;;		_OLED_Write_Integer
  4808 ;;		_OLED_Write_Float
  4809 ;; This function uses a non-reentrant model
  4810 ;;
  4811                           
  4812                           
  4813                           ;psect for function _OLED_Write_String
  4814  00B8                     _OLED_Write_String:	
  4815  00B8                     l1394:	
  4816                           ;oled.c: 286: while (*s) OLED_PutChar( *s++);
  4817                           
  4818                           ;incstack = 0
  4819                           ; Regs used in _OLED_Write_String: [wreg-fsr1h+status,2+status,0+pclath+cstack]
  4820                           
  4821  00B8  087C               	movf	OLED_Write_String@s,w
  4822  00B9  0084               	movwf	4
  4823  00BA  087D               	movf	OLED_Write_String@s+1,w
  4824  00BB  0085               	movwf	5
  4825  00BC  0012               	moviw fsr0++
  4826  00BD  1903               	btfsc	3,2
  4827  00BE  0008               	return
  4828  00BF  087C               	movf	OLED_Write_String@s,w
  4829  00C0  0084               	movwf	4
  4830  00C1  087D               	movf	OLED_Write_String@s+1,w
  4831  00C2  0085               	movwf	5
  4832  00C3  0800               	movf	0,w	;code access
  4833  00C4  3183  23D4  3180   	fcall	_OLED_PutChar
  4834  00C7  3001               	movlw	1
  4835  00C8  07FC               	addwf	OLED_Write_String@s,f
  4836  00C9  3000               	movlw	0
  4837  00CA  3DFD               	addwfc	OLED_Write_String@s+1,f
  4838  00CB  28B8               	goto	l1394
  4839  00CC                     __end_of_OLED_Write_String:	
  4840                           
  4841                           	psect	text15
  4842  02A7                     __ptext15:	
  4843 ;; *************** function _OLED_Init *****************
  4844 ;; Defined at:
  4845 ;;		line 174 in file "oled.c"
  4846 ;; Parameters:    Size  Location     Type
  4847 ;;		None
  4848 ;; Auto vars:     Size  Location     Type
  4849 ;;		None
  4850 ;; Return value:  Size  Location     Type
  4851 ;;                  1    wreg      void 
  4852 ;; Registers used:
  4853 ;;		wreg, status,2, status,0, pclath, cstack
  4854 ;; Tracked objects:
  4855 ;;		On entry : 0/0
  4856 ;;		On exit  : 0/0
  4857 ;;		Unchanged: 0/0
  4858 ;; Data sizes:     COMMON   BANK0   BANK1   BANK2   BANK3   BANK4   BANK5   BANK6   BANK7   BANK8   BANK9  BANK10  BANK1
      +1  BANK12
  4859 ;;      Params:         0       0       0       0       0       0       0       0       0       0       0       0       
      +0       0
  4860 ;;      Locals:         0       0       0       0       0       0       0       0       0       0       0       0       
      +0       0
  4861 ;;      Temps:          0       0       0       0       0       0       0       0       0       0       0       0       
      +0       0
  4862 ;;      Totals:         0       0       0       0       0       0       0       0       0       0       0       0       
      +0       0
  4863 ;;Total ram usage:        0 bytes
  4864 ;; Hardware stack levels used:    1
  4865 ;; Hardware stack levels required when called:    2
  4866 ;; This function calls:
  4867 ;;		_OLED_Command
  4868 ;; This function is called by:
  4869 ;;		_main
  4870 ;; This function uses a non-reentrant model
  4871 ;;
  4872                           
  4873                           
  4874                           ;psect for function _OLED_Init
  4875  02A7                     _OLED_Init:	
  4876                           
  4877                           ;oled.c: 176: OLED_Command(0xAE);
  4878                           
  4879                           ;incstack = 0
  4880                           ; Regs used in _OLED_Init: [wreg+status,2+status,0+pclath+cstack]
  4881  02A7  30AE               	movlw	174
  4882  02A8  3180  20CC  3182   	fcall	_OLED_Command
  4883                           
  4884                           ;oled.c: 177: OLED_Command(0xD5);
  4885  02AB  30D5               	movlw	213
  4886  02AC  3180  20CC  3182   	fcall	_OLED_Command
  4887                           
  4888                           ;oled.c: 178: OLED_Command(0x80);
  4889  02AF  3080               	movlw	128
  4890  02B0  3180  20CC  3182   	fcall	_OLED_Command
  4891                           
  4892                           ;oled.c: 179: OLED_Command(0xA8);
  4893  02B3  30A8               	movlw	168
  4894  02B4  3180  20CC  3182   	fcall	_OLED_Command
  4895                           
  4896                           ;oled.c: 180: OLED_Command(0x1F);
  4897  02B7  301F               	movlw	31
  4898  02B8  3180  20CC  3182   	fcall	_OLED_Command
  4899                           
  4900                           ;oled.c: 181: OLED_Command(0xD3);
  4901  02BB  30D3               	movlw	211
  4902  02BC  3180  20CC  3182   	fcall	_OLED_Command
  4903                           
  4904                           ;oled.c: 182: OLED_Command(0x0);
  4905  02BF  3000               	movlw	0
  4906  02C0  3180  20CC  3182   	fcall	_OLED_Command
  4907                           
  4908                           ;oled.c: 183: OLED_Command(0x40 | 0x0);
  4909  02C3  3040               	movlw	64
  4910  02C4  3180  20CC  3182   	fcall	_OLED_Command
  4911                           
  4912                           ;oled.c: 184: OLED_Command(0x8D);
  4913  02C7  308D               	movlw	141
  4914  02C8  3180  20CC  3182   	fcall	_OLED_Command
  4915                           
  4916                           ;oled.c: 185: OLED_Command(0xAF);
  4917  02CB  30AF               	movlw	175
  4918  02CC  3180  20CC  3182   	fcall	_OLED_Command
  4919                           
  4920                           ;oled.c: 186: OLED_Command(0x20);
  4921  02CF  3020               	movlw	32
  4922  02D0  3180  20CC  3182   	fcall	_OLED_Command
  4923                           
  4924                           ;oled.c: 187: OLED_Command(0x00);
  4925  02D3  3000               	movlw	0
  4926  02D4  3180  20CC  3182   	fcall	_OLED_Command
  4927                           
  4928                           ;oled.c: 188: OLED_Command(0xA0 | 0x1);
  4929  02D7  30A1               	movlw	161
  4930  02D8  3180  20CC  3182   	fcall	_OLED_Command
  4931                           
  4932                           ;oled.c: 189: OLED_Command(0xC8);
  4933  02DB  30C8               	movlw	200
  4934  02DC  3180  20CC  3182   	fcall	_OLED_Command
  4935                           
  4936                           ;oled.c: 190: OLED_Command(0xDA);
  4937  02DF  30DA               	movlw	218
  4938  02E0  3180  20CC  3182   	fcall	_OLED_Command
  4939                           
  4940                           ;oled.c: 191: OLED_Command(0x02);
  4941  02E3  3002               	movlw	2
  4942  02E4  3180  20CC  3182   	fcall	_OLED_Command
  4943                           
  4944                           ;oled.c: 192: OLED_Command(0x81);
  4945  02E7  3081               	movlw	129
  4946  02E8  3180  20CC  3182   	fcall	_OLED_Command
  4947                           
  4948                           ;oled.c: 193: OLED_Command(0x8F);
  4949  02EB  308F               	movlw	143
  4950  02EC  3180  20CC  3182   	fcall	_OLED_Command
  4951                           
  4952                           ;oled.c: 194: OLED_Command(0xD9);
  4953  02EF  30D9               	movlw	217
  4954  02F0  3180  20CC  3182   	fcall	_OLED_Command
  4955                           
  4956                           ;oled.c: 195: OLED_Command(0xF1);
  4957  02F3  30F1               	movlw	241
  4958  02F4  3180  20CC  3182   	fcall	_OLED_Command
  4959                           
  4960                           ;oled.c: 196: OLED_Command(0xDB);
  4961  02F7  30DB               	movlw	219
  4962  02F8  3180  20CC  3182   	fcall	_OLED_Command
  4963                           
  4964                           ;oled.c: 197: OLED_Command(0x40);
  4965  02FB  3040               	movlw	64
  4966  02FC  3180  20CC  3182   	fcall	_OLED_Command
  4967                           
  4968                           ;oled.c: 198: OLED_Command(0xA4);
  4969  02FF  30A4               	movlw	164
  4970  0300  3180  20CC  3182   	fcall	_OLED_Command
  4971                           
  4972                           ;oled.c: 199: OLED_Command(0xA6);
  4973  0303  30A6               	movlw	166
  4974  0304  3180  20CC  3182   	fcall	_OLED_Command
  4975                           
  4976                           ;oled.c: 200: OLED_Command(0xAF);
  4977  0307  30AF               	movlw	175
  4978  0308  3180  20CC         	fcall	_OLED_Command
  4979  030A  0008               	return
  4980  030B                     __end_of_OLED_Init:	
  4981                           
  4982                           	psect	text16
  4983  01A7                     __ptext16:	
  4984 ;; *************** function _OLED_Clear *****************
  4985 ;; Defined at:
  4986 ;;		line 264 in file "oled.c"
  4987 ;; Parameters:    Size  Location     Type
  4988 ;;		None
  4989 ;; Auto vars:     Size  Location     Type
  4990 ;;  col             2   22[BANK0 ] unsigned int 
  4991 ;;  row             2   20[BANK0 ] unsigned int 
  4992 ;; Return value:  Size  Location     Type
  4993 ;;                  1    wreg      void 
  4994 ;; Registers used:
  4995 ;;		wreg, fsr0l, fsr0h, fsr1l, fsr1h, status,2, status,0, pclath, cstack
  4996 ;; Tracked objects:
  4997 ;;		On entry : 0/0
  4998 ;;		On exit  : 0/0
  4999 ;;		Unchanged: 0/0
  5000 ;; Data sizes:     COMMON   BANK0   BANK1   BANK2   BANK3   BANK4   BANK5   BANK6   BANK7   BANK8   BANK9  BANK10  BANK1
      +1  BANK12
  5001 ;;      Params:         0       0       0       0       0       0       0       0       0       0       0       0       
      +0       0
  5002 ;;      Locals:         0       4       0       0       0       0       0       0       0       0       0       0       
      +0       0
  5003 ;;      Temps:          1       0       0       0       0       0       0       0       0       0       0       0       
      +0       0
  5004 ;;      Totals:         1       4       0       0       0       0       0       0       0       0       0       0       
      +0       0
  5005 ;;Total ram usage:        5 bytes
  5006 ;; Hardware stack levels used:    1
  5007 ;; Hardware stack levels required when called:    3
  5008 ;; This function calls:
  5009 ;;		_OLED_PutChar
  5010 ;;		_OLED_YX
  5011 ;; This function is called by:
  5012 ;;		_main
  5013 ;; This function uses a non-reentrant model
  5014 ;;
  5015                           
  5016                           
  5017                           ;psect for function _OLED_Clear
  5018  01A7                     _OLED_Clear:	
  5019                           
  5020                           ;oled.c: 266: for ( uint16_t row = 0; row < 8; row++ ) {
  5021                           
  5022                           ;incstack = 0
  5023                           ; Regs used in _OLED_Clear: [wreg-fsr1h+status,2+status,0+pclath+cstack]
  5024  01A7  0020               	movlb	0	; select bank0
  5025  01A8  01B4               	clrf	OLED_Clear@row
  5026  01A9  01B5               	clrf	OLED_Clear@row+1
  5027  01AA                     L1:	
  5028  01AA  3000               	movlw	0
  5029  01AB  0235               	subwf	OLED_Clear@row+1,w
  5030  01AC  3008               	movlw	8
  5031  01AD  1903               	skipnz
  5032  01AE  0234               	subwf	OLED_Clear@row,w
  5033  01AF  1803               	btfsc	3,0
  5034  01B0  0008               	return
  5035                           
  5036                           ;oled.c: 267: for ( uint16_t col = 0; col < 16; col++ ) {
  5037  01B1  01B6               	clrf	OLED_Clear@col
  5038  01B2  01B7               	clrf	OLED_Clear@col+1
  5039  01B3  3000               	movlw	0
  5040  01B4  0237               	subwf	OLED_Clear@col+1,w
  5041  01B5  3010               	movlw	16
  5042  01B6  1903               	skipnz
  5043  01B7  0236               	subwf	OLED_Clear@col,w
  5044  01B8  1803               	btfsc	3,0
  5045  01B9  29D2               	goto	l1520
  5046  01BA                     l1512:	
  5047                           
  5048                           ;oled.c: 268: OLED_YX( row, col );
  5049  01BA  0836               	movf	OLED_Clear@col,w
  5050  01BB  00FC               	movwf	??_OLED_Clear
  5051  01BC  087C               	movf	??_OLED_Clear,w
  5052  01BD  00F5               	movwf	OLED_YX@Column
  5053  01BE  0834               	movf	OLED_Clear@row,w
  5054  01BF  3181  2153  3181   	fcall	_OLED_YX
  5055                           
  5056                           ;oled.c: 269: OLED_PutChar(' ');
  5057  01C2  3020               	movlw	32
  5058  01C3  3183  23D4  3181   	fcall	_OLED_PutChar
  5059  01C6  3001               	movlw	1
  5060  01C7  0020               	movlb	0	; select bank0
  5061  01C8  07B6               	addwf	OLED_Clear@col,f
  5062  01C9  3000               	movlw	0
  5063  01CA  3DB7               	addwfc	OLED_Clear@col+1,f
  5064  01CB  3000               	movlw	0
  5065  01CC  0237               	subwf	OLED_Clear@col+1,w
  5066  01CD  3010               	movlw	16
  5067  01CE  1903               	skipnz
  5068  01CF  0236               	subwf	OLED_Clear@col,w
  5069  01D0  1C03               	skipc
  5070  01D1  29BA               	goto	l1512
  5071  01D2                     l1520:	
  5072  01D2  3001               	movlw	1
  5073  01D3  07B4               	addwf	OLED_Clear@row,f
  5074  01D4  3000               	movlw	0
  5075  01D5  3DB5               	addwfc	OLED_Clear@row+1,f
  5076  01D6  29AA               	goto	L1
  5077  01D7                     __end_of_OLED_Clear:	
  5078                           
  5079                           	psect	text17
  5080  0153                     __ptext17:	
  5081 ;; *************** function _OLED_YX *****************
  5082 ;; Defined at:
  5083 ;;		line 213 in file "oled.c"
  5084 ;; Parameters:    Size  Location     Type
  5085 ;;  Row             1    wreg     unsigned char 
  5086 ;;  Column          1    5[COMMON] unsigned char 
  5087 ;; Auto vars:     Size  Location     Type
  5088 ;;  Row             1    9[COMMON] unsigned char 
  5089 ;; Return value:  Size  Location     Type
  5090 ;;                  1    wreg      void 
  5091 ;; Registers used:
  5092 ;;		wreg, status,2, status,0, pclath, cstack
  5093 ;; Tracked objects:
  5094 ;;		On entry : 0/0
  5095 ;;		On exit  : 0/0
  5096 ;;		Unchanged: 0/0
  5097 ;; Data sizes:     COMMON   BANK0   BANK1   BANK2   BANK3   BANK4   BANK5   BANK6   BANK7   BANK8   BANK9  BANK10  BANK1
      +1  BANK12
  5098 ;;      Params:         1       0       0       0       0       0       0       0       0       0       0       0       
      +0       0
  5099 ;;      Locals:         1       0       0       0       0       0       0       0       0       0       0       0       
      +0       0
  5100 ;;      Temps:          3       0       0       0       0       0       0       0       0       0       0       0       
      +0       0
  5101 ;;      Totals:         5       0       0       0       0       0       0       0       0       0       0       0       
      +0       0
  5102 ;;Total ram usage:        5 bytes
  5103 ;; Hardware stack levels used:    1
  5104 ;; Hardware stack levels required when called:    2
  5105 ;; This function calls:
  5106 ;;		_OLED_Command
  5107 ;; This function is called by:
  5108 ;;		_main
  5109 ;;		_OLED_Clear
  5110 ;; This function uses a non-reentrant model
  5111 ;;
  5112                           
  5113                           
  5114                           ;psect for function _OLED_YX
  5115  0153                     _OLED_YX:	
  5116                           
  5117                           ;incstack = 0
  5118                           ; Regs used in _OLED_YX: [wreg+status,2+status,0+pclath+cstack]
  5119                           ;OLED_YX@Row stored from wreg
  5120  0153  00F9               	movwf	OLED_YX@Row
  5121                           
  5122                           ;oled.c: 215: OLED_Command( 0xB0 + Row);
  5123  0154  0879               	movf	OLED_YX@Row,w
  5124  0155  3EB0               	addlw	176
  5125  0156  3180  20CC  3181   	fcall	_OLED_Command
  5126                           
  5127                           ;oled.c: 216: OLED_Command( 0x00 + (8*Column & 0x0F) );
  5128  0159  0875               	movf	OLED_YX@Column,w
  5129  015A  00F6               	movwf	??_OLED_YX
  5130  015B  3002               	movlw	2
  5131  015C                     u1365:	
  5132  015C  35F6               	lslf	??_OLED_YX,f
  5133  015D  3EFF               	addlw	-1
  5134  015E  1D03               	skipz
  5135  015F  295C               	goto	u1365
  5136  0160  3576               	lslf	??_OLED_YX,w
  5137  0161  390F               	andlw	15
  5138  0162  3180  20CC  3181   	fcall	_OLED_Command
  5139                           
  5140                           ;oled.c: 217: OLED_Command( 0x10 + ((8*Column>>4)&0x0F) );
  5141  0165  0875               	movf	OLED_YX@Column,w
  5142  0166  00F6               	movwf	??_OLED_YX
  5143  0167  01F7               	clrf	??_OLED_YX+1
  5144  0168  35F6               	lslf	??_OLED_YX,f
  5145  0169  0DF7               	rlf	??_OLED_YX+1,f
  5146  016A  35F6               	lslf	??_OLED_YX,f
  5147  016B  0DF7               	rlf	??_OLED_YX+1,f
  5148  016C  35F6               	lslf	??_OLED_YX,f
  5149  016D  0DF7               	rlf	??_OLED_YX+1,f
  5150  016E  3004               	movlw	4
  5151  016F  00F8               	movwf	??_OLED_YX+2
  5152  0170                     u1375:	
  5153  0170  0D77               	rlf	??_OLED_YX+1,w
  5154  0171  0CF7               	rrf	??_OLED_YX+1,f
  5155  0172  0CF6               	rrf	??_OLED_YX,f
  5156  0173  0BF8               	decfsz	??_OLED_YX+2,f
  5157  0174  2970               	goto	u1375
  5158  0175  0876               	movf	??_OLED_YX,w
  5159  0176  390F               	andlw	15
  5160  0177  3E10               	addlw	16
  5161  0178  3180  20CC         	fcall	_OLED_Command
  5162  017A  0008               	return
  5163  017B                     __end_of_OLED_YX:	
  5164                           
  5165                           	psect	text18
  5166  00CC                     __ptext18:	
  5167 ;; *************** function _OLED_Command *****************
  5168 ;; Defined at:
  5169 ;;		line 138 in file "oled.c"
  5170 ;; Parameters:    Size  Location     Type
  5171 ;;  temp            1    wreg     unsigned char 
  5172 ;; Auto vars:     Size  Location     Type
  5173 ;;  temp            1    4[COMMON] unsigned char 
  5174 ;; Return value:  Size  Location     Type
  5175 ;;                  1    wreg      void 
  5176 ;; Registers used:
  5177 ;;		wreg, status,2, status,0, pclath, cstack
  5178 ;; Tracked objects:
  5179 ;;		On entry : 0/0
  5180 ;;		On exit  : 0/0
  5181 ;;		Unchanged: 0/0
  5182 ;; Data sizes:     COMMON   BANK0   BANK1   BANK2   BANK3   BANK4   BANK5   BANK6   BANK7   BANK8   BANK9  BANK10  BANK1
      +1  BANK12
  5183 ;;      Params:         0       0       0       0       0       0       0       0       0       0       0       0       
      +0       0
  5184 ;;      Locals:         1       0       0       0       0       0       0       0       0       0       0       0       
      +0       0
  5185 ;;      Temps:          2       0       0       0       0       0       0       0       0       0       0       0       
      +0       0
  5186 ;;      Totals:         3       0       0       0       0       0       0       0       0       0       0       0       
      +0       0
  5187 ;;Total ram usage:        3 bytes
  5188 ;; Hardware stack levels used:    1
  5189 ;; Hardware stack levels required when called:    1
  5190 ;; This function calls:
  5191 ;;		_Send_I2C_Data
  5192 ;;		_Send_I2C_StartBit
  5193 ;;		_Send_I2C_StopBit
  5194 ;; This function is called by:
  5195 ;;		_OLED_Init
  5196 ;;		_OLED_YX
  5197 ;; This function uses a non-reentrant model
  5198 ;;
  5199                           
  5200                           
  5201                           ;psect for function _OLED_Command
  5202  00CC                     _OLED_Command:	
  5203                           
  5204                           ;incstack = 0
  5205                           ; Regs used in _OLED_Command: [wreg+status,2+status,0+pclath+cstack]
  5206                           ;OLED_Command@temp stored from wreg
  5207  00CC  00F4               	movwf	OLED_Command@temp
  5208                           
  5209                           ;oled.c: 140: Send_I2C_StartBit();
  5210  00CD  3180  2086  3180   	fcall	_Send_I2C_StartBit
  5211                           
  5212                           ;oled.c: 141: Send_I2C_Data(0x3C << 1);
  5213  00D0  3078               	movlw	120
  5214  00D1  00F0               	movwf	Send_I2C_Data@databyte
  5215  00D2  3000               	movlw	0
  5216  00D3  00F1               	movwf	Send_I2C_Data@databyte+1
  5217  00D4  3180  2096  3180   	fcall	_Send_I2C_Data
  5218                           
  5219                           ;oled.c: 142: Send_I2C_Data(0x00);
  5220  00D7  3000               	movlw	0
  5221  00D8  00F0               	movwf	Send_I2C_Data@databyte
  5222  00D9  00F1               	movwf	Send_I2C_Data@databyte+1
  5223  00DA  3180  2096  3180   	fcall	_Send_I2C_Data
  5224                           
  5225                           ;oled.c: 143: Send_I2C_Data(temp);
  5226  00DD  0874               	movf	OLED_Command@temp,w
  5227  00DE  00F2               	movwf	??_OLED_Command
  5228  00DF  01F3               	clrf	??_OLED_Command+1
  5229  00E0  0872               	movf	??_OLED_Command,w
  5230  00E1  00F0               	movwf	Send_I2C_Data@databyte
  5231  00E2  0873               	movf	??_OLED_Command+1,w
  5232  00E3  00F1               	movwf	Send_I2C_Data@databyte+1
  5233  00E4  3180  2096  3180   	fcall	_Send_I2C_Data
  5234                           
  5235                           ;oled.c: 144: Send_I2C_StopBit();
  5236  00E7  3180  208E         	fcall	_Send_I2C_StopBit
  5237  00E9  0008               	return
  5238  00EA                     __end_of_OLED_Command:	
  5239                           
  5240                           	psect	text19
  5241  03D4                     __ptext19:	
  5242 ;; *************** function _OLED_PutChar *****************
  5243 ;; Defined at:
  5244 ;;		line 229 in file "oled.c"
  5245 ;; Parameters:    Size  Location     Type
  5246 ;;  ch              1    wreg     unsigned char 
  5247 ;; Auto vars:     Size  Location     Type
  5248 ;;  ch              1   19[BANK0 ] unsigned char 
  5249 ;;  bytes           9    6[BANK0 ] unsigned char [9]
  5250 ;;  i               2   17[BANK0 ] int 
  5251 ;;  base            2   15[BANK0 ] PTR const unsigned char 
  5252 ;;		 -> OledFont(768), 
  5253 ;; Return value:  Size  Location     Type
  5254 ;;                  1    wreg      void 
  5255 ;; Registers used:
  5256 ;;		wreg, fsr0l, fsr0h, fsr1l, fsr1h, status,2, status,0, pclath, cstack
  5257 ;; Tracked objects:
  5258 ;;		On entry : 0/0
  5259 ;;		On exit  : 0/0
  5260 ;;		Unchanged: 0/0
  5261 ;; Data sizes:     COMMON   BANK0   BANK1   BANK2   BANK3   BANK4   BANK5   BANK6   BANK7   BANK8   BANK9  BANK10  BANK1
      +1  BANK12
  5262 ;;      Params:         0       0       0       0       0       0       0       0       0       0       0       0       
      +0       0
  5263 ;;      Locals:         0      14       0       0       0       0       0       0       0       0       0       0       
      +0       0
  5264 ;;      Temps:          0       6       0       0       0       0       0       0       0       0       0       0       
      +0       0
  5265 ;;      Totals:         0      20       0       0       0       0       0       0       0       0       0       0       
      +0       0
  5266 ;;Total ram usage:       20 bytes
  5267 ;; Hardware stack levels used:    1
  5268 ;; Hardware stack levels required when called:    1
  5269 ;; This function calls:
  5270 ;;		_Send_I2C_Data
  5271 ;;		_Send_I2C_StartBit
  5272 ;;		_Send_I2C_StopBit
  5273 ;;		_memmove
  5274 ;; This function is called by:
  5275 ;;		_OLED_Clear
  5276 ;;		_OLED_Write_String
  5277 ;; This function uses a non-reentrant model
  5278 ;;
  5279                           
  5280                           
  5281                           ;psect for function _OLED_PutChar
  5282  03D4                     _OLED_PutChar:	
  5283                           
  5284                           ;incstack = 0
  5285                           ; Regs used in _OLED_PutChar: [wreg-fsr1h+status,2+status,0+pclath+cstack]
  5286                           ;OLED_PutChar@ch stored from wreg
  5287  03D4  0020               	movlb	0	; select bank0
  5288  03D5  00B3               	movwf	OLED_PutChar@ch
  5289                           
  5290                           ;oled.c: 231: if ( ( ch < 32 ) || ( ch > 127 ) ){
  5291  03D6  3020               	movlw	32
  5292  03D7  0233               	subwf	OLED_PutChar@ch,w
  5293  03D8  1C03               	skipc
  5294  03D9  2BDE               	goto	l1326
  5295  03DA  3080               	movlw	128
  5296  03DB  0233               	subwf	OLED_PutChar@ch,w
  5297  03DC  1C03               	skipc
  5298  03DD  2BE2               	goto	l1328
  5299  03DE                     l1326:	
  5300                           
  5301                           ;oled.c: 232: ch = ' ';
  5302  03DE  3020               	movlw	32
  5303  03DF  00A0               	movwf	??_OLED_PutChar
  5304  03E0  0820               	movf	??_OLED_PutChar,w
  5305  03E1  00B3               	movwf	OLED_PutChar@ch
  5306  03E2                     l1328:	
  5307                           
  5308                           ;oled.c: 233: }
  5309                           ;oled.c: 235: const uint8_t *base = &OledFont[ch - 32][0];
  5310  03E2  0833               	movf	OLED_PutChar@ch,w
  5311  03E3  00A0               	movwf	??_OLED_PutChar
  5312  03E4  01A1               	clrf	??_OLED_PutChar+1
  5313  03E5  35A0               	lslf	??_OLED_PutChar,f
  5314  03E6  0DA1               	rlf	??_OLED_PutChar+1,f
  5315  03E7  35A0               	lslf	??_OLED_PutChar,f
  5316  03E8  0DA1               	rlf	??_OLED_PutChar+1,f
  5317  03E9  35A0               	lslf	??_OLED_PutChar,f
  5318  03EA  0DA1               	rlf	??_OLED_PutChar+1,f
  5319  03EB  0820               	movf	??_OLED_PutChar,w
  5320  03EC  3E00               	addlw	0
  5321  03ED  00A2               	movwf	??_OLED_PutChar+2
  5322  03EE  30FF               	movlw	255
  5323  03EF  3D21               	addwfc	??_OLED_PutChar+1,w
  5324  03F0  00A3               	movwf	??_OLED_PutChar+3
  5325  03F1  3028               	movlw	low (_OledFont| (0+32768))
  5326  03F2  00A4               	movwf	??_OLED_PutChar+4
  5327  03F3  3088               	movlw	high (_OledFont| (0+32768))
  5328  03F4  00A5               	movwf	??_OLED_PutChar+5
  5329  03F5  0822               	movf	??_OLED_PutChar+2,w
  5330  03F6  0724               	addwf	??_OLED_PutChar+4,w
  5331  03F7  00AF               	movwf	OLED_PutChar@base
  5332  03F8  0823               	movf	??_OLED_PutChar+3,w
  5333  03F9  3D25               	addwfc	??_OLED_PutChar+5,w
  5334  03FA  00B0               	movwf	OLED_PutChar@base+1
  5335                           
  5336                           ;oled.c: 237: uint8_t bytes[9];
  5337                           ;oled.c: 238: bytes[0] = 0x40;
  5338  03FB  3040               	movlw	64
  5339  03FC  00A0               	movwf	??_OLED_PutChar
  5340  03FD  0820               	movf	??_OLED_PutChar,w
  5341  03FE  00A6               	movwf	OLED_PutChar@bytes
  5342                           
  5343                           ;oled.c: 239: memmove( bytes + 1, base, 8 );
  5344  03FF  0830               	movf	OLED_PutChar@base+1,w
  5345  0400  00F1               	movwf	memmove@s1+1
  5346  0401  082F               	movf	OLED_PutChar@base,w
  5347  0402  00F0               	movwf	memmove@s1
  5348  0403  3008               	movlw	8
  5349  0404  00F2               	movwf	memmove@n
  5350  0405  3000               	movlw	0
  5351  0406  00F3               	movwf	memmove@n+1
  5352  0407  3027               	movlw	(low ((OLED_PutChar@bytes| 0+1)))& (0+255)
  5353  0408  3183  236F  3183   	fcall	_memmove
  5354                           
  5355                           ;oled.c: 241: Send_I2C_StartBit();
  5356  040B  3180  2086  3183   	fcall	_Send_I2C_StartBit
  5357                           
  5358                           ;oled.c: 242: Send_I2C_Data(0x3C << 1);
  5359  040E  3078               	movlw	120
  5360  040F  00F0               	movwf	Send_I2C_Data@databyte
  5361  0410  3000               	movlw	0
  5362  0411  00F1               	movwf	Send_I2C_Data@databyte+1
  5363  0412  3180  2096  3183   	fcall	_Send_I2C_Data
  5364                           
  5365                           ;oled.c: 243: Send_I2C_Data(0x40);
  5366  0415  3040               	movlw	64
  5367  0416  00F0               	movwf	Send_I2C_Data@databyte
  5368  0417  3000               	movlw	0
  5369  0418  00F1               	movwf	Send_I2C_Data@databyte+1
  5370  0419  3180  2096  3183   	fcall	_Send_I2C_Data
  5371                           
  5372                           ;oled.c: 245: int i;
  5373                           ;oled.c: 247: for (i = 1; i <= 8; i++){
  5374  041C  3001               	movlw	1
  5375  041D  0020               	movlb	0	; select bank0
  5376  041E  00B1               	movwf	OLED_PutChar@i
  5377  041F  3000               	movlw	0
  5378  0420  00B2               	movwf	OLED_PutChar@i+1
  5379  0421  0832               	movf	OLED_PutChar@i+1,w
  5380  0422  3A80               	xorlw	128
  5381  0423  00A0               	movwf	??_OLED_PutChar
  5382  0424  3080               	movlw	128
  5383  0425  0220               	subwf	??_OLED_PutChar,w
  5384  0426  1D03               	skipz
  5385  0427  2C2A               	goto	u1315
  5386  0428  3009               	movlw	9
  5387  0429  0231               	subwf	OLED_PutChar@i,w
  5388  042A                     u1315:	
  5389  042A  1803               	btfsc	3,0
  5390  042B  2C4B               	goto	l1352
  5391  042C                     l1346:	
  5392                           
  5393                           ;oled.c: 248: Send_I2C_Data(bytes[i]);
  5394  042C  0020               	movlb	0	; select bank0
  5395  042D  0831               	movf	OLED_PutChar@i,w
  5396  042E  3E26               	addlw	(low (OLED_PutChar@bytes| 0))& (0+255)
  5397  042F  0086               	movwf	6
  5398  0430  0187               	clrf	7
  5399  0431  0801               	movf	1,w
  5400  0432  00A0               	movwf	??_OLED_PutChar
  5401  0433  01A1               	clrf	??_OLED_PutChar+1
  5402  0434  0820               	movf	??_OLED_PutChar,w
  5403  0435  00F0               	movwf	Send_I2C_Data@databyte
  5404  0436  0821               	movf	??_OLED_PutChar+1,w
  5405  0437  00F1               	movwf	Send_I2C_Data@databyte+1
  5406  0438  3180  2096  3183   	fcall	_Send_I2C_Data
  5407  043B  3001               	movlw	1
  5408  043C  0020               	movlb	0	; select bank0
  5409  043D  07B1               	addwf	OLED_PutChar@i,f
  5410  043E  3000               	movlw	0
  5411  043F  3DB2               	addwfc	OLED_PutChar@i+1,f
  5412  0440  0832               	movf	OLED_PutChar@i+1,w
  5413  0441  3A80               	xorlw	128
  5414  0442  00A0               	movwf	??_OLED_PutChar
  5415  0443  3080               	movlw	128
  5416  0444  0220               	subwf	??_OLED_PutChar,w
  5417  0445  1D03               	skipz
  5418  0446  2C49               	goto	u1325
  5419  0447  3009               	movlw	9
  5420  0448  0231               	subwf	OLED_PutChar@i,w
  5421  0449                     u1325:	
  5422  0449  1C03               	skipc
  5423  044A  2C2C               	goto	l1346
  5424  044B                     l1352:	
  5425                           
  5426                           ;oled.c: 249: }
  5427                           ;oled.c: 251: Send_I2C_StopBit();
  5428  044B  3180  208E         	fcall	_Send_I2C_StopBit
  5429  044D  0008               	return
  5430  044E                     __end_of_OLED_PutChar:	
  5431                           
  5432                           	psect	text20
  5433  036F                     __ptext20:	
  5434 ;; *************** function _memmove *****************
  5435 ;; Defined at:
  5436 ;;		line 8 in file "C:\Program Files (x86)\Microchip\xc8\v1.41\sources\common\memmove.c"
  5437 ;; Parameters:    Size  Location     Type
  5438 ;;  d1              1    wreg     PTR void 
  5439 ;;		 -> OLED_PutChar@bytes(9), 
  5440 ;;  s1              2    0[COMMON] PTR const void 
  5441 ;;		 -> OledFont(768), 
  5442 ;;  n               2    2[COMMON] unsigned int 
  5443 ;; Auto vars:     Size  Location     Type
  5444 ;;  d1              1    8[COMMON] PTR void 
  5445 ;;		 -> OLED_PutChar@bytes(9), 
  5446 ;;  s               2    9[COMMON] PTR const unsigned char 
  5447 ;;		 -> OledFont(768), 
  5448 ;;  d               1   11[COMMON] PTR unsigned char 
  5449 ;;		 -> OLED_PutChar@bytes(9), 
  5450 ;; Return value:  Size  Location     Type
  5451 ;;                  1    wreg      PTR void 
  5452 ;; Registers used:
  5453 ;;		wreg, fsr0l, fsr0h, fsr1l, fsr1h, status,2, status,0, pclath
  5454 ;; Tracked objects:
  5455 ;;		On entry : 0/0
  5456 ;;		On exit  : 0/0
  5457 ;;		Unchanged: 0/0
  5458 ;; Data sizes:     COMMON   BANK0   BANK1   BANK2   BANK3   BANK4   BANK5   BANK6   BANK7   BANK8   BANK9  BANK10  BANK1
      +1  BANK12
  5459 ;;      Params:         4       0       0       0       0       0       0       0       0       0       0       0       
      +0       0
  5460 ;;      Locals:         4       0       0       0       0       0       0       0       0       0       0       0       
      +0       0
  5461 ;;      Temps:          4       0       0       0       0       0       0       0       0       0       0       0       
      +0       0
  5462 ;;      Totals:        12       0       0       0       0       0       0       0       0       0       0       0       
      +0       0
  5463 ;;Total ram usage:       12 bytes
  5464 ;; Hardware stack levels used:    1
  5465 ;; This function calls:
  5466 ;;		Nothing
  5467 ;; This function is called by:
  5468 ;;		_OLED_PutChar
  5469 ;; This function uses a non-reentrant model
  5470 ;;
  5471                           
  5472                           
  5473                           ;psect for function _memmove
  5474  036F                     _memmove:	
  5475                           
  5476                           ;incstack = 0
  5477                           ; Regs used in _memmove: [wreg-fsr1h+status,2+status,0+pclath]
  5478                           ;memmove@d1 stored from wreg
  5479  036F  00F8               	movwf	memmove@d1
  5480  0370  0871               	movf	memmove@s1+1,w
  5481  0371  00FA               	movwf	memmove@s+1
  5482  0372  0870               	movf	memmove@s1,w
  5483  0373  00F9               	movwf	memmove@s
  5484  0374  0878               	movf	memmove@d1,w
  5485  0375  00F4               	movwf	??_memmove
  5486  0376  0874               	movf	??_memmove,w
  5487  0377  00FB               	movwf	memmove@d
  5488  0378  087B               	movf	memmove@d,w
  5489  0379  00F4               	movwf	??_memmove
  5490  037A  3000               	movlw	0
  5491  037B  00F5               	movwf	??_memmove+1
  5492  037C  0875               	movf	??_memmove+1,w
  5493  037D  027A               	subwf	memmove@s+1,w
  5494  037E  1D03               	skipz
  5495  037F  2B82               	goto	u1115
  5496  0380  0874               	movf	??_memmove,w
  5497  0381  0279               	subwf	memmove@s,w
  5498  0382                     u1115:	
  5499  0382  1803               	skipnc
  5500  0383  2BB8               	goto	l1254
  5501  0384  0872               	movf	memmove@n,w
  5502  0385  0779               	addwf	memmove@s,w
  5503  0386  00F4               	movwf	??_memmove
  5504  0387  0873               	movf	memmove@n+1,w
  5505  0388  3D7A               	addwfc	memmove@s+1,w
  5506  0389  00F5               	movwf	??_memmove+1
  5507  038A  087B               	movf	memmove@d,w
  5508  038B  00F6               	movwf	??_memmove+2
  5509  038C  3000               	movlw	0
  5510  038D  00F7               	movwf	??_memmove+3
  5511  038E  0875               	movf	??_memmove+1,w
  5512  038F  0277               	subwf	??_memmove+3,w
  5513  0390  1D03               	skipz
  5514  0391  2B94               	goto	u1125
  5515  0392  0874               	movf	??_memmove,w
  5516  0393  0276               	subwf	??_memmove+2,w
  5517  0394                     u1125:	
  5518  0394  1803               	skipnc
  5519  0395  2BB8               	goto	l1254
  5520  0396  0872               	movf	memmove@n,w
  5521  0397  07F9               	addwf	memmove@s,f
  5522  0398  0873               	movf	memmove@n+1,w
  5523  0399  3DFA               	addwfc	memmove@s+1,f
  5524  039A  0872               	movf	memmove@n,w
  5525  039B  00F4               	movwf	??_memmove
  5526  039C  0874               	movf	??_memmove,w
  5527  039D  07FB               	addwf	memmove@d,f
  5528  039E                     l1250:	
  5529  039E  3001               	movlw	1
  5530  039F  02F9               	subwf	memmove@s,f
  5531  03A0  3000               	movlw	0
  5532  03A1  3BFA               	subwfb	memmove@s+1,f
  5533  03A2  0879               	movf	memmove@s,w
  5534  03A3  0084               	movwf	4
  5535  03A4  087A               	movf	memmove@s+1,w
  5536  03A5  0085               	movwf	5
  5537  03A6  0800               	movf	0,w	;code access
  5538  03A7  00F4               	movwf	??_memmove
  5539  03A8  3001               	movlw	1
  5540  03A9  02FB               	subwf	memmove@d,f
  5541  03AA  087B               	movf	memmove@d,w
  5542  03AB  0086               	movwf	6
  5543  03AC  0187               	clrf	7
  5544  03AD  0874               	movf	??_memmove,w
  5545  03AE  0081               	movwf	1
  5546  03AF  3001               	movlw	1
  5547  03B0  02F2               	subwf	memmove@n,f
  5548  03B1  3000               	movlw	0
  5549  03B2  3BF3               	subwfb	memmove@n+1,f
  5550  03B3  0872               	movf	memmove@n,w
  5551  03B4  0473               	iorwf	memmove@n+1,w
  5552  03B5  1903               	btfsc	3,2
  5553  03B6  0008               	return
  5554  03B7  2B9E               	goto	l1250
  5555  03B8                     l1254:	
  5556  03B8  0872               	movf	memmove@n,w
  5557  03B9  0473               	iorwf	memmove@n+1,w
  5558  03BA  1903               	btfsc	3,2
  5559  03BB  0008               	return
  5560  03BC  0879               	movf	memmove@s,w
  5561  03BD  0084               	movwf	4
  5562  03BE  087A               	movf	memmove@s+1,w
  5563  03BF  0085               	movwf	5
  5564  03C0  0800               	movf	0,w	;code access
  5565  03C1  00F4               	movwf	??_memmove
  5566  03C2  087B               	movf	memmove@d,w
  5567  03C3  0086               	movwf	6
  5568  03C4  0187               	clrf	7
  5569  03C5  0874               	movf	??_memmove,w
  5570  03C6  0081               	movwf	1
  5571  03C7  3001               	movlw	1
  5572  03C8  07F9               	addwf	memmove@s,f
  5573  03C9  3000               	movlw	0
  5574  03CA  3DFA               	addwfc	memmove@s+1,f
  5575  03CB  3001               	movlw	1
  5576  03CC  00F4               	movwf	??_memmove
  5577  03CD  0874               	movf	??_memmove,w
  5578  03CE  07FB               	addwf	memmove@d,f
  5579  03CF  3001               	movlw	1
  5580  03D0  02F2               	subwf	memmove@n,f
  5581  03D1  3000               	movlw	0
  5582  03D2  3BF3               	subwfb	memmove@n+1,f
  5583  03D3  2BB8               	goto	l1254
  5584  03D4                     __end_of_memmove:	
  5585                           ;	Return value of _memmove is never used
  5586                           
  5587                           
  5588                           	psect	text21
  5589  008E                     __ptext21:	
  5590 ;; *************** function _Send_I2C_StopBit *****************
  5591 ;; Defined at:
  5592 ;;		line 106 in file "I2C.c"
  5593 ;; Parameters:    Size  Location     Type
  5594 ;;		None
  5595 ;; Auto vars:     Size  Location     Type
  5596 ;;		None
  5597 ;; Return value:  Size  Location     Type
  5598 ;;                  1    wreg      void 
  5599 ;; Registers used:
  5600 ;;		None
  5601 ;; Tracked objects:
  5602 ;;		On entry : 0/0
  5603 ;;		On exit  : 0/0
  5604 ;;		Unchanged: 0/0
  5605 ;; Data sizes:     COMMON   BANK0   BANK1   BANK2   BANK3   BANK4   BANK5   BANK6   BANK7   BANK8   BANK9  BANK10  BANK1
      +1  BANK12
  5606 ;;      Params:         0       0       0       0       0       0       0       0       0       0       0       0       
      +0       0
  5607 ;;      Locals:         0       0       0       0       0       0       0       0       0       0       0       0       
      +0       0
  5608 ;;      Temps:          0       0       0       0       0       0       0       0       0       0       0       0       
      +0       0
  5609 ;;      Totals:         0       0       0       0       0       0       0       0       0       0       0       0       
      +0       0
  5610 ;;Total ram usage:        0 bytes
  5611 ;; Hardware stack levels used:    1
  5612 ;; This function calls:
  5613 ;;		Nothing
  5614 ;; This function is called by:
  5615 ;;		_OLED_Command
  5616 ;;		_OLED_PutChar
  5617 ;;		_OLED_Data
  5618 ;; This function uses a non-reentrant model
  5619 ;;
  5620                           
  5621                           
  5622                           ;psect for function _Send_I2C_StopBit
  5623  008E                     _Send_I2C_StopBit:	
  5624                           
  5625                           ;I2C.c: 108: PIR1bits.SSP1IF=0;
  5626                           
  5627                           ;incstack = 0
  5628                           ; Regs used in _Send_I2C_StopBit: []
  5629  008E  0020               	movlb	0	; select bank0
  5630  008F  1191               	bcf	17,3	;volatile
  5631                           
  5632                           ;I2C.c: 109: SSPCON2bits.PEN=1;
  5633  0090  0024               	movlb	4	; select bank4
  5634  0091  1516               	bsf	22,2	;volatile
  5635  0092                     l77:	
  5636                           ;I2C.c: 110: while(!PIR1bits.SSP1IF);
  5637                           
  5638  0092  0020               	movlb	0	; select bank0
  5639  0093  1991               	btfsc	17,3	;volatile
  5640  0094  0008               	return
  5641  0095  2892               	goto	l77
  5642  0096                     __end_of_Send_I2C_StopBit:	
  5643                           
  5644                           	psect	text22
  5645  0086                     __ptext22:	
  5646 ;; *************** function _Send_I2C_StartBit *****************
  5647 ;; Defined at:
  5648 ;;		line 96 in file "I2C.c"
  5649 ;; Parameters:    Size  Location     Type
  5650 ;;		None
  5651 ;; Auto vars:     Size  Location     Type
  5652 ;;		None
  5653 ;; Return value:  Size  Location     Type
  5654 ;;                  1    wreg      void 
  5655 ;; Registers used:
  5656 ;;		None
  5657 ;; Tracked objects:
  5658 ;;		On entry : 0/0
  5659 ;;		On exit  : 0/0
  5660 ;;		Unchanged: 0/0
  5661 ;; Data sizes:     COMMON   BANK0   BANK1   BANK2   BANK3   BANK4   BANK5   BANK6   BANK7   BANK8   BANK9  BANK10  BANK1
      +1  BANK12
  5662 ;;      Params:         0       0       0       0       0       0       0       0       0       0       0       0       
      +0       0
  5663 ;;      Locals:         0       0       0       0       0       0       0       0       0       0       0       0       
      +0       0
  5664 ;;      Temps:          0       0       0       0       0       0       0       0       0       0       0       0       
      +0       0
  5665 ;;      Totals:         0       0       0       0       0       0       0       0       0       0       0       0       
      +0       0
  5666 ;;Total ram usage:        0 bytes
  5667 ;; Hardware stack levels used:    1
  5668 ;; This function calls:
  5669 ;;		Nothing
  5670 ;; This function is called by:
  5671 ;;		_OLED_Command
  5672 ;;		_OLED_PutChar
  5673 ;;		_OLED_Data
  5674 ;; This function uses a non-reentrant model
  5675 ;;
  5676                           
  5677                           
  5678                           ;psect for function _Send_I2C_StartBit
  5679  0086                     _Send_I2C_StartBit:	
  5680                           
  5681                           ;I2C.c: 98: PIR1bits.SSP1IF=0;
  5682                           
  5683                           ;incstack = 0
  5684                           ; Regs used in _Send_I2C_StartBit: []
  5685  0086  0020               	movlb	0	; select bank0
  5686  0087  1191               	bcf	17,3	;volatile
  5687                           
  5688                           ;I2C.c: 99: SSPCON2bits.SEN=1;
  5689  0088  0024               	movlb	4	; select bank4
  5690  0089  1416               	bsf	22,0	;volatile
  5691  008A                     l71:	
  5692                           ;I2C.c: 100: while(!PIR1bits.SSP1IF);
  5693                           
  5694  008A  0020               	movlb	0	; select bank0
  5695  008B  1991               	btfsc	17,3	;volatile
  5696  008C  0008               	return
  5697  008D  288A               	goto	l71
  5698  008E                     __end_of_Send_I2C_StartBit:	
  5699                           
  5700                           	psect	text23
  5701  0096                     __ptext23:	
  5702 ;; *************** function _Send_I2C_Data *****************
  5703 ;; Defined at:
  5704 ;;		line 48 in file "I2C.c"
  5705 ;; Parameters:    Size  Location     Type
  5706 ;;  databyte        2    0[COMMON] unsigned int 
  5707 ;; Auto vars:     Size  Location     Type
  5708 ;;		None
  5709 ;; Return value:  Size  Location     Type
  5710 ;;                  1    wreg      void 
  5711 ;; Registers used:
  5712 ;;		wreg
  5713 ;; Tracked objects:
  5714 ;;		On entry : 0/0
  5715 ;;		On exit  : 0/0
  5716 ;;		Unchanged: 0/0
  5717 ;; Data sizes:     COMMON   BANK0   BANK1   BANK2   BANK3   BANK4   BANK5   BANK6   BANK7   BANK8   BANK9  BANK10  BANK1
      +1  BANK12
  5718 ;;      Params:         2       0       0       0       0       0       0       0       0       0       0       0       
      +0       0
  5719 ;;      Locals:         0       0       0       0       0       0       0       0       0       0       0       0       
      +0       0
  5720 ;;      Temps:          0       0       0       0       0       0       0       0       0       0       0       0       
      +0       0
  5721 ;;      Totals:         2       0       0       0       0       0       0       0       0       0       0       0       
      +0       0
  5722 ;;Total ram usage:        2 bytes
  5723 ;; Hardware stack levels used:    1
  5724 ;; This function calls:
  5725 ;;		Nothing
  5726 ;; This function is called by:
  5727 ;;		_OLED_Command
  5728 ;;		_OLED_PutChar
  5729 ;;		_OLED_Data
  5730 ;; This function uses a non-reentrant model
  5731 ;;
  5732                           
  5733                           
  5734                           ;psect for function _Send_I2C_Data
  5735  0096                     _Send_I2C_Data:	
  5736                           
  5737                           ;I2C.c: 50: PIR1bits.SSP1IF=0;
  5738                           
  5739                           ;incstack = 0
  5740                           ; Regs used in _Send_I2C_Data: [wreg]
  5741  0096  0020               	movlb	0	; select bank0
  5742  0097  1191               	bcf	17,3	;volatile
  5743                           
  5744                           ;I2C.c: 51: SSPBUF = databyte;
  5745  0098  0870               	movf	Send_I2C_Data@databyte,w
  5746  0099  0024               	movlb	4	; select bank4
  5747  009A  0091               	movwf	17	;volatile
  5748  009B                     l53:	
  5749                           ;I2C.c: 52: while(!PIR1bits.SSP1IF);
  5750                           
  5751  009B  0020               	movlb	0	; select bank0
  5752  009C  1991               	btfsc	17,3	;volatile
  5753  009D  0008               	return
  5754  009E  289B               	goto	l53
  5755  009F                     __end_of_Send_I2C_Data:	
  5756                           
  5757                           	psect	text24
  5758  00A8                     __ptext24:	
  5759 ;; *************** function _I2C_Init *****************
  5760 ;; Defined at:
  5761 ;;		line 19 in file "I2C.c"
  5762 ;; Parameters:    Size  Location     Type
  5763 ;;		None
  5764 ;; Auto vars:     Size  Location     Type
  5765 ;;		None
  5766 ;; Return value:  Size  Location     Type
  5767 ;;                  1    wreg      void 
  5768 ;; Registers used:
  5769 ;;		wreg, status,2, status,0
  5770 ;; Tracked objects:
  5771 ;;		On entry : 0/0
  5772 ;;		On exit  : 0/0
  5773 ;;		Unchanged: 0/0
  5774 ;; Data sizes:     COMMON   BANK0   BANK1   BANK2   BANK3   BANK4   BANK5   BANK6   BANK7   BANK8   BANK9  BANK10  BANK1
      +1  BANK12
  5775 ;;      Params:         0       0       0       0       0       0       0       0       0       0       0       0       
      +0       0
  5776 ;;      Locals:         0       0       0       0       0       0       0       0       0       0       0       0       
      +0       0
  5777 ;;      Temps:          1       0       0       0       0       0       0       0       0       0       0       0       
      +0       0
  5778 ;;      Totals:         1       0       0       0       0       0       0       0       0       0       0       0       
      +0       0
  5779 ;;Total ram usage:        1 bytes
  5780 ;; Hardware stack levels used:    1
  5781 ;; This function calls:
  5782 ;;		Nothing
  5783 ;; This function is called by:
  5784 ;;		_main
  5785 ;; This function uses a non-reentrant model
  5786 ;;
  5787                           
  5788                           
  5789                           ;psect for function _I2C_Init
  5790  00A8                     _I2C_Init:	
  5791                           
  5792                           ;I2C.c: 25: SSPCONbits.SSPM=0x08;
  5793                           
  5794                           ;incstack = 0
  5795                           ; Regs used in _I2C_Init: [wreg+status,2+status,0]
  5796  00A8  0024               	movlb	4	; select bank4
  5797  00A9  0815               	movf	21,w	;volatile
  5798  00AA  39F0               	andlw	-16
  5799  00AB  3808               	iorlw	8
  5800  00AC  0095               	movwf	21	;volatile
  5801                           
  5802                           ;I2C.c: 26: SSPCONbits.SSPEN=1;
  5803  00AD  1695               	bsf	21,5	;volatile
  5804                           
  5805                           ;I2C.c: 38: SSPADD = 39;
  5806  00AE  3027               	movlw	39
  5807  00AF  0092               	movwf	18	;volatile
  5808                           
  5809                           ;I2C.c: 42: _delay((unsigned long)((10)*(16000000/4000.0)));
  5810  00B0  3034               	movlw	52
  5811  00B1  00F0               	movwf	??_I2C_Init
  5812  00B2  30F2               	movlw	242
  5813  00B3                     u2137:	
  5814  00B3  0B89               	decfsz	9,f
  5815  00B4  28B3               	goto	u2137
  5816  00B5  0BF0               	decfsz	??_I2C_Init,f
  5817  00B6  28B3               	goto	u2137
  5818  00B7  0008               	return
  5819  00B8                     __end_of_I2C_Init:	
  5820  007E                     btemp	set	126	;btemp
  5821  007E                     wtemp0	set	126


Data Sizes:
    Strings     24
    Constant    808
    Data        0
    BSS         17
    Persistent  0
    Stack       0

Auto Spaces:
    Space          Size  Autos    Used
    COMMON           14     14      14
    BANK0            80     56      73
    BANK1            80      0       0
    BANK2            80      0       0
    BANK3            80      0       0
    BANK4            80      0       0
    BANK5            80      0       0
    BANK6            80      0       0
    BANK7            80      0       0
    BANK8            80      0       0
    BANK9            80      0       0
    BANK10           80      0       0
    BANK11           80      0       0
    BANK12           48      0       0

Pointer List with Targets:

    memmove@d1	PTR void  size(1) Largest target is 9
		 -> OLED_PutChar@bytes(BANK0[9]), 

    memmove@d	PTR unsigned char  size(1) Largest target is 9
		 -> OLED_PutChar@bytes(BANK0[9]), 

    memmove@s1	PTR const void  size(2) Largest target is 768
		 -> OledFont(CODE[768]), 

    memmove@s	PTR const unsigned char  size(2) Largest target is 768
		 -> OledFont(CODE[768]), 

    utoa@buf	PTR unsigned char  size(1) Largest target is 2
		 -> OLED_Write_Integer@status(BANK0[2]), 

    sp__utoa	PTR unsigned char  size(1) Largest target is 2
		 -> OLED_Write_Integer@status(BANK0[2]), 

    itoa@buf	PTR unsigned char  size(1) Largest target is 2
		 -> OLED_Write_Integer@status(BANK0[2]), 

    itoa@cp	PTR unsigned char  size(1) Largest target is 2
		 -> OLED_Write_Integer@status(BANK0[2]), 

    sp__ftoa	PTR unsigned char  size(1) Largest target is 17
		 -> ftoa@buf(BANK0[17]), 

    sp__itoa	PTR unsigned char  size(1) Largest target is 2
		 -> OLED_Write_Integer@status(BANK0[2]), 

    OLED_Write_Integer@buff11	PTR unsigned char  size(1) Largest target is 2
		 -> OLED_Write_Integer@status(BANK0[2]), 

    OLED_Write_String@s	PTR unsigned char  size(2) Largest target is 17
		 -> ftoa@buf(BANK0[17]), STR_3(CODE[6]), STR_2(CODE[6]), OLED_Write_Integer@status(BANK0[2]), 
		 -> STR_1(CODE[7]), 

    sp__memmove	PTR void  size(1) Largest target is 9
		 -> OLED_PutChar@bytes(BANK0[9]), 

    OLED_PutChar@base	PTR const unsigned char  size(2) Largest target is 768
		 -> OledFont(CODE[768]), 


Critical Paths under _main in COMMON

    _main->_OLED_Write_String
    _main->___awtoft
    _main->___ftadd
    _main->___fttol
    ___ftmul->___ftadd
    ___ftdiv->___ftadd
    ___ftadd->___ftpack
    ___awtoft->___ftpack
    _OLED_Write_Integer->_OLED_Write_String
    _OLED_Write_Integer->_itoa
    _itoa->_utoa
    _utoa->___lwdiv
    _OLED_Init->_OLED_Command
    _OLED_YX->_OLED_Command
    _OLED_Command->_Send_I2C_Data
    _OLED_PutChar->_memmove

Critical Paths under _main in BANK0

    _main->___ftdiv
    ___ftmul->___ftadd
    ___ftdiv->___ftmul
    _OLED_Write_Integer->_OLED_Write_String
    _itoa->_utoa
    _OLED_Write_String->_OLED_PutChar
    _OLED_Clear->_OLED_PutChar

Critical Paths under _main in BANK1

    None.

Critical Paths under _main in BANK2

    None.

Critical Paths under _main in BANK3

    None.

Critical Paths under _main in BANK4

    None.

Critical Paths under _main in BANK5

    None.

Critical Paths under _main in BANK6

    None.

Critical Paths under _main in BANK7

    None.

Critical Paths under _main in BANK8

    None.

Critical Paths under _main in BANK9

    None.

Critical Paths under _main in BANK10

    None.

Critical Paths under _main in BANK11

    None.

Critical Paths under _main in BANK12

    None.

Call Graph Tables:

 ---------------------------------------------------------------------------------
 (Depth) Function   	        Calls       Base Space   Used Autos Params    Refs
 ---------------------------------------------------------------------------------
 (0) _main                                                17    17      0   17533
                                             39 BANK0     17    17      0
                           _I2C_Init
                         _OLED_Clear
                          _OLED_Init
                 _OLED_Write_Integer
                  _OLED_Write_String
                            _OLED_YX
                           ___awtoft
                            ___ftadd
                            ___ftdiv
                            ___ftmul
                            ___fttol
                           _initMain
 ---------------------------------------------------------------------------------
 (1) _initMain                                             0     0      0       0
                        _internal_16
 ---------------------------------------------------------------------------------
 (2) _internal_16                                          0     0      0       0
 ---------------------------------------------------------------------------------
 (1) ___fttol                                             14    10      4     385
                                              0 COMMON    14    10      4
 ---------------------------------------------------------------------------------
 (1) ___ftmul                                             16    10      6    2325
                                              7 BANK0     16    10      6
                            ___ftadd (ARG)
                           ___ftpack
 ---------------------------------------------------------------------------------
 (1) ___ftdiv                                             16    10      6    2305
                                             23 BANK0     16    10      6
                            ___ftadd (ARG)
                            ___ftmul (ARG)
                           ___ftpack
 ---------------------------------------------------------------------------------
 (1) ___ftadd                                             13     7      6    2733
                                              8 COMMON     6     0      6
                                              0 BANK0      7     7      0
                           ___ftpack
 ---------------------------------------------------------------------------------
 (1) ___awtoft                                             6     3      3    1851
                                              8 COMMON     6     3      3
                           ___ftpack
 ---------------------------------------------------------------------------------
 (2) ___ftpack                                             8     3      5    1707
                                              0 COMMON     8     3      5
 ---------------------------------------------------------------------------------
 (1) _OLED_Write_Integer                                   7     7      0    2975
                                             21 BANK0      7     7      0
                  _OLED_Write_String
                               _itoa
 ---------------------------------------------------------------------------------
 (2) _itoa                                                 7     3      4    1386
                                             13 COMMON     1     1      0
                                              4 BANK0      6     2      4
                               _utoa
 ---------------------------------------------------------------------------------
 (3) _utoa                                                 9     5      4    1074
                                              8 COMMON     5     1      4
                                              0 BANK0      4     4      0
                            ___lwdiv
                            ___lwmod
 ---------------------------------------------------------------------------------
 (4) ___lwmod                                              6     2      4     265
                                              0 COMMON     6     2      4
 ---------------------------------------------------------------------------------
 (4) ___lwdiv                                              8     4      4     374
                                              0 COMMON     8     4      4
 ---------------------------------------------------------------------------------
 (1) _OLED_Write_String                                    3     1      2    1514
                                             12 COMMON     2     0      2
                                             20 BANK0      1     1      0
                       _OLED_PutChar
 ---------------------------------------------------------------------------------
 (1) _OLED_Init                                            0     0      0     521
                       _OLED_Command
 ---------------------------------------------------------------------------------
 (1) _OLED_Clear                                           5     5      0    2086
                                             12 COMMON     1     1      0
                                             20 BANK0      4     4      0
                       _OLED_PutChar
                            _OLED_YX
 ---------------------------------------------------------------------------------
 (1) _OLED_YX                                              5     4      1     746
                                              5 COMMON     5     4      1
                       _OLED_Command
 ---------------------------------------------------------------------------------
 (2) _OLED_Command                                         3     3      0     521
                                              2 COMMON     3     3      0
                      _Send_I2C_Data
                  _Send_I2C_StartBit
                   _Send_I2C_StopBit
 ---------------------------------------------------------------------------------
 (2) _OLED_PutChar                                        20    20      0    1204
                                              0 BANK0     20    20      0
                      _Send_I2C_Data
                  _Send_I2C_StartBit
                   _Send_I2C_StopBit
                            _memmove
 ---------------------------------------------------------------------------------
 (3) _memmove                                             12     8      4     497
                                              0 COMMON    12     8      4
 ---------------------------------------------------------------------------------
 (3) _Send_I2C_StopBit                                     0     0      0       0
 ---------------------------------------------------------------------------------
 (3) _Send_I2C_StartBit                                    0     0      0       0
 ---------------------------------------------------------------------------------
 (3) _Send_I2C_Data                                        2     0      2     499
                                              0 COMMON     2     0      2
 ---------------------------------------------------------------------------------
 (1) _I2C_Init                                             1     1      0       0
                                              0 COMMON     1     1      0
 ---------------------------------------------------------------------------------
 Estimated maximum stack depth 4
 ---------------------------------------------------------------------------------

 Call Graph Graphs:

 _main (ROOT)
   _I2C_Init
   _OLED_Clear
     _OLED_PutChar
       _Send_I2C_Data
       _Send_I2C_StartBit
       _Send_I2C_StopBit
       _memmove
     _OLED_YX
       _OLED_Command
         _Send_I2C_Data
         _Send_I2C_StartBit
         _Send_I2C_StopBit
   _OLED_Init
     _OLED_Command
       _Send_I2C_Data
       _Send_I2C_StartBit
       _Send_I2C_StopBit
   _OLED_Write_Integer
     _OLED_Write_String
       _OLED_PutChar
         _Send_I2C_Data
         _Send_I2C_StartBit
         _Send_I2C_StopBit
         _memmove
     _itoa
       _utoa
         ___lwdiv
         ___lwmod
   _OLED_Write_String
     _OLED_PutChar
       _Send_I2C_Data
       _Send_I2C_StartBit
       _Send_I2C_StopBit
       _memmove
   _OLED_YX
     _OLED_Command
       _Send_I2C_Data
       _Send_I2C_StartBit
       _Send_I2C_StopBit
   ___awtoft
     ___ftpack
   ___ftadd
     ___ftpack
   ___ftdiv
     ___ftadd (ARG)
       ___ftpack
     ___ftmul (ARG)
       ___ftadd (ARG)
         ___ftpack
       ___ftpack (ARG)
     ___ftpack (ARG)
   ___ftmul
     ___ftadd (ARG)
       ___ftpack
     ___ftpack (ARG)
   ___fttol
   _initMain
     _internal_16

 Address spaces:
Name               Size   Autos  Total    Cost      Usage
BIGRAM             3F0      0       0       0        0.0%
NULL                 0      0       0       0        0.0%
CODE                 0      0       0       0        0.0%
BITCOMMON            E      0       0       1        0.0%
BITSFR0              0      0       0       1        0.0%
SFR0                 0      0       0       1        0.0%
COMMON               E      E       E       2      100.0%
BITSFR1              0      0       0       2        0.0%
SFR1                 0      0       0       2        0.0%
BITSFR2              0      0       0       3        0.0%
SFR2                 0      0       0       3        0.0%
STACK                0      0       0       3        0.0%
BITBANK0            50      0       0       4        0.0%
BITSFR3              0      0       0       4        0.0%
SFR3                 0      0       0       4        0.0%
BANK0               50     38      49       5       91.3%
BITSFR4              0      0       0       5        0.0%
SFR4                 0      0       0       5        0.0%
BITBANK1            50      0       0       6        0.0%
BITSFR5              0      0       0       6        0.0%
SFR5                 0      0       0       6        0.0%
BANK1               50      0       0       7        0.0%
BITSFR6              0      0       0       7        0.0%
SFR6                 0      0       0       7        0.0%
BITBANK2            50      0       0       8        0.0%
BITSFR7              0      0       0       8        0.0%
SFR7                 0      0       0       8        0.0%
BANK2               50      0       0       9        0.0%
BITSFR8              0      0       0       9        0.0%
SFR8                 0      0       0       9        0.0%
BITBANK3            50      0       0      10        0.0%
BITSFR9              0      0       0      10        0.0%
SFR9                 0      0       0      10        0.0%
BANK3               50      0       0      11        0.0%
BITSFR10             0      0       0      11        0.0%
SFR10                0      0       0      11        0.0%
BITBANK4            50      0       0      12        0.0%
BITSFR11             0      0       0      12        0.0%
SFR11                0      0       0      12        0.0%
BANK4               50      0       0      13        0.0%
BITSFR12             0      0       0      13        0.0%
SFR12                0      0       0      13        0.0%
BITBANK5            50      0       0      14        0.0%
BITSFR13             0      0       0      14        0.0%
SFR13                0      0       0      14        0.0%
BANK5               50      0       0      15        0.0%
BITSFR14             0      0       0      15        0.0%
SFR14                0      0       0      15        0.0%
BITBANK6            50      0       0      16        0.0%
BITSFR15             0      0       0      16        0.0%
SFR15                0      0       0      16        0.0%
BANK6               50      0       0      17        0.0%
BITSFR16             0      0       0      17        0.0%
SFR16                0      0       0      17        0.0%
BITBANK7            50      0       0      18        0.0%
BITSFR17             0      0       0      18        0.0%
SFR17                0      0       0      18        0.0%
BANK7               50      0       0      19        0.0%
BITSFR18             0      0       0      19        0.0%
SFR18                0      0       0      19        0.0%
BITSFR19             0      0       0      20        0.0%
SFR19                0      0       0      20        0.0%
ABS                  0      0      57      20        0.0%
BITBANK8            50      0       0      21        0.0%
BITSFR20             0      0       0      21        0.0%
SFR20                0      0       0      21        0.0%
BANK8               50      0       0      22        0.0%
BITSFR21             0      0       0      22        0.0%
SFR21                0      0       0      22        0.0%
BITBANK9            50      0       0      23        0.0%
BITSFR22             0      0       0      23        0.0%
SFR22                0      0       0      23        0.0%
BANK9               50      0       0      24        0.0%
BITSFR23             0      0       0      24        0.0%
SFR23                0      0       0      24        0.0%
BITBANK10           50      0       0      25        0.0%
BITSFR24             0      0       0      25        0.0%
SFR24                0      0       0      25        0.0%
BANK10              50      0       0      26        0.0%
BITSFR25             0      0       0      26        0.0%
SFR25                0      0       0      26        0.0%
BITBANK11           50      0       0      27        0.0%
BITSFR26             0      0       0      27        0.0%
SFR26                0      0       0      27        0.0%
BANK11              50      0       0      28        0.0%
BITSFR27             0      0       0      28        0.0%
SFR27                0      0       0      28        0.0%
BITBANK12           30      0       0      29        0.0%
BITSFR28             0      0       0      29        0.0%
SFR28                0      0       0      29        0.0%
BANK12              30      0       0      30        0.0%
BITSFR29             0      0       0      30        0.0%
SFR29                0      0       0      30        0.0%
BITSFR30             0      0       0      31        0.0%
SFR30                0      0       0      31        0.0%
DATA                 0      0      57      31        0.0%
BITSFR31             0      0       0      32        0.0%
SFR31                0      0       0      32        0.0%


Microchip Technology PIC Macro Assembler V1.41 build -162212810 
Symbol Table                                                                                   Tue Mar 28 18:26:05 2017

                __CFG_CP$OFF 0000                           l53 009B                           l71 008A  
                         l77 0092                 ___ftadd@exp1 0026                 ___ftadd@exp2 0025  
         OLED_Write_String@s 007C                 ___ftadd@sign 0024                          l141 0645  
                        l420 0358                          l412 033D                          l511 04BA  
                        l531 0291                          l419 0350                          l443 07A0  
               __CFG_BORV$LO 0000                          wreg 0009                 __CFG_IESO$ON 0000  
           OLED_Command@temp 0074                  main@celsius 0055                 __CFG_LVP$OFF 0000  
               ___ftdiv@cntr 0041                 ___ftdiv@sign 0046                         l1300 018D  
                       l1304 0199                         l1250 039E                         l1308 01A2  
                       l1420 031A                         l1254 03B8                         l1326 03DE  
                       l1406 0145                         l1430 0342                         l1422 0324  
                       l1352 044B                         l1328 03E2                         l1520 01D2  
                       l1512 01BA                         l1432 034A                         l1424 0329  
                       l1416 0313                         l1346 042C                         l1282 01FD  
                       l1274 01DF                         l1276 01EB                         l1356 024B  
                       l1286 0206                         l1366 0269                         l1606 07DF  
                       l1550 0730                         l1622 0501                         l1536 00F4  
                       l1616 04EB                         l1394 00B8                         l1298 0181  
                       l1546 0729                         l1580 077F                         l1556 073F  
                       l1644 055B                         l1636 0542                         l1740 04CB  
                       l1708 0466                         l1574 076C                         l1734 04B1  
                       l1726 0496                         l1592 07B2                         l1576 0776  
                       l1568 0759                         l1680 05ED                         l1664 05AA  
                       l1736 04BD                         l1728 04A4                         l1586 0792  
                       l1578 077B                         l1658 0594                         l1596 07C4  
                       l1588 079C                         l1692 0609                         l1676 05E5  
                       l1748 063D                         l1688 0601                         STR_1 0B33  
                       STR_2 0B3A                         STR_4 0B28              __end_of_OLED_YX 017B  
                       u1115 0382                         u1125 0394                         u1205 01F6  
                       u1215 01FE                         u2015 046D                  ?_OLED_Clear 0070  
                       u1315 042A                         u1325 0449                         u1245 0184  
                       u2045 0497                         u2117 0640                         u1175 01E2  
                       u2127 06FA                         u2137 00B3                         u1265 0193  
                       u1505 035F                         u1425 031F                         u1195 01EC  
                       u1275 019A                         u2075 04B2                         u1365 015C  
                       u1445 0338                         u1375 0170                         u1465 0345  
                       u1725 0780                         u1665 075A                         u1825 0513  
                       u1905 05B6                         u1755 0793                         u1835 0523  
                       u1915 05C6                         u1845 0543                         u1695 076D  
                       u1855 0552                         u1935 05EE                         u1865 055C  
                       u1945 05F4                         u1975 060A                         u1985 0610  
                       _SCS0 04C8                         _SCS1 04C9                 __CFG_WRT$OFF 0000  
                       _main 0631                 ___ftpack@arg 0070                         _itoa 012D  
               ___ftpack@exp 0073             __end_of_I2C_Init 00B8                         fsr0h 0005  
                       fsr1h 0007                         indf0 0000                         fsr0l 0004  
                       indf1 0001                         fsr1l 0006                         btemp 007E  
                       _utoa 0245                         start 0002                 ___ftmul@cntr 0035  
               ___ftmul@sign 0036                 ___fttol@exp1 007D           __size_of_OLED_Init 0064  
               ___fttol@lval 0079                        ?_main 0070                        ?_itoa 0024  
            __end_of___ftadd 07F6                __CFG_WDTE$OFF 0000              __end_of___ftdiv 057D  
                      ?_utoa 0078              __end_of___ftmul 0631              __end_of___fttol 04D4  
                      _IRCF0 04CB                        _IRCF1 04CC                        _IRCF2 04CD  
                      _IRCF3 04CE              __end_of___lwdiv 020B              __end_of___lwmod 01A7  
             __CFG_FCMEN$OFF 0000                ___awtoft@sign 007D              __end_of_dpowers 0828  
            __end_of_memmove 03D4                ___ftpack@sign 0074               __CFG_BOREN$OFF 0000  
                      utoa@c 0022                        utoa@v 0020                        status 0003  
                      wtemp0 007E   __size_of_Send_I2C_StartBit 0008                 ?_internal_16 0070  
             __CFG_MCLRE$OFF 0000              __initialization 07F6                 __end_of_main 0701  
               __end_of_itoa 0153                 __end_of_utoa 02A7               __CFG_LPBOR$OFF 0000  
           __end_of_OledFont 0B28          __size_of_OLED_Clear 0030                       ??_main 0047  
              ___fttol@sign1 0078                       ??_itoa 007D                main@farenheit 0052  
                     ??_utoa 007C               __CFG_PLLEN$OFF 0000                    ??_OLED_YX 0076  
                     _ADRESH 009C                       _ADRESL 009B           _OLED_Write_Integer 010A  
             __CFG_ZCDDIS$ON 0000             __end_of___awtoft 010A             __end_of___ftpack 036F  
          __end_of_OLED_Init 030B                ?_OLED_Command 0070                       _SPLLEN 04CF  
                     _SSPADD 0212                       _SSPBUF 0211          ?_OLED_Write_Integer 0070  
             __CFG_PWRTE$OFF 0000                ?_OLED_PutChar 0070       __size_of_Send_I2C_Data 0009  
                  ??___ftadd 0020               __CFG_STVREN$ON 0000                    ??___ftdiv 003D  
                  ??___ftmul 002D                    ??___fttol 0074                    ??___lwdiv 0074  
                  ??___lwmod 0074             __end_of_initMain 0245        ___ftmul@f3_as_product 0032  
       ??_OLED_Write_Integer 0035                       itoa@cp 0028                    ?_I2C_Init 0070  
                  ??_memmove 0074        Send_I2C_Data@databyte 0070               ??_OLED_Command 0072  
    __end_of__initialization 07FD                   ___ftadd@f1 0078                   ___ftadd@f2 007B  
                 ___ftdiv@f1 003A                   ___ftdiv@f2 0037                   ___ftdiv@f3 0042  
             ??_OLED_PutChar 0020                   ___awtoft@c 0078                   ___ftmul@f1 0027  
                 ___ftmul@f2 002A    __size_of_Send_I2C_StopBit 0008                   ___fttol@f1 0070  
             __pcstackCOMMON 0070                   ??_I2C_Init 0070                _Send_I2C_Data 0096  
               ??_OLED_Clear 007C                   __pbssBANK0 0058                   __pmaintext 0631  
       __size_of_internal_16 0009              __CFG_PPS1WAY$ON 0000                    ?___awtoft 0078  
                  ?___ftpack 0070           __end_of_OLED_Clear 01D7                      _OLED_YX 0153  
             ?_Send_I2C_Data 0070                      _PPSLOCK 0E0F                    ?_initMain 0070  
                    ___ftadd 0701                      ___ftdiv 04D4             main@conversion10 004F  
                    ___ftmul 057D                      ___fttol 044E                      ___lwdiv 01D7  
                    ___lwmod 017B                   ??___awtoft 007B                   ??___ftpack 0075  
       __end_of_OLED_Command 00EA                      __ptext1 020B                      __ptext2 009F  
                    __ptext3 044E                      __ptext4 057D                      __ptext5 04D4  
                    __ptext6 0701                      __ptext7 00EA                      __ptext8 030B  
                    __ptext9 010A                      _dpowers 0800                      _memmove 036F  
       __end_of_OLED_PutChar 044E                      clrloop0 0081         end_of_initialization 07FD  
                    ftoa@buf 0058                   ??_initMain 0070                      itoa@buf 0029  
                    itoa@val 0024                    _OLED_Init 02A7             OLED_PutChar@base 002F  
           _Send_I2C_StopBit 008E                 __pstringtext 0800                      utoa@buf 0023  
                    utoa@val 0078              ??_Send_I2C_Data 0072             __CFG_FOSC$INTOSC 0000  
                  _TRISCbits 008E            __size_of_I2C_Init 0010                  ___ftdiv@exp 0045  
                 ?_OLED_Init 0070                   main@result 004C                  ___ftmul@exp 0031  
   OLED_Write_Integer@buff11 0039     OLED_Write_Integer@status 003A  __size_of_OLED_Write_Integer 0023  
        start_initialization 07F6            _OLED_Write_String 00B8           ?_OLED_Write_String 007C  
      __size_of_OLED_Command 001E                   OLED_YX@Row 0079        __size_of_OLED_PutChar 007A  
        ??_OLED_Write_String 0034            __size_of___awtoft 0020            __size_of___ftpack 0064  
                  ___latbits 0002                     ?_OLED_YX 0075                __pcstackBANK0 0020  
               _OLED_Command 00CC    __end_of_OLED_Write_String 00CC                ??_internal_16 0070  
                ??_OLED_Init 0075            __size_of_initMain 003A             ___lwdiv@dividend 0072  
               _OLED_PutChar 03D4                     ?___ftadd 0078                     ?___ftdiv 0037  
                   ?___ftmul 0027                     ?___fttol 0070                     ?___lwdiv 0070  
                   ?___lwmod 0070                     _I2C_Init 00A8                     ?_memmove 0070  
   __end_of_Send_I2C_StopBit 0096             ___lwdiv@quotient 0075                    clear_ram0 0080  
                   _PIR1bits 0011          __end_of_internal_16 00A8                   _ADCON0bits 009D  
                 _ADCON1bits 009E             __size_of_OLED_YX 0028   __size_of_OLED_Write_String 0014  
                   _OledFont 0828                    memmove@d1 0078                    memmove@s1 0070  
           __size_of___ftadd 00F5             __size_of___ftdiv 00A9             __size_of___ftmul 00B4  
           __size_of___fttol 0086             __size_of___lwdiv 0034             __size_of___lwmod 002C  
                   ___awtoft 00EA                     ___ftpack 030B                   _ANSELCbits 018E  
                 _ANSELEbits 0190             __size_of_memmove 0065              ___lwdiv@divisor 0070  
      __end_of_Send_I2C_Data 009F              ___lwdiv@counter 0077                     __ptext10 012D  
                   __ptext11 0245                     __ptext20 036F                     __ptext12 017B  
                   __ptext21 008E                     __ptext13 01D7                     __ptext22 0086  
                   __ptext14 00B8                     __ptext23 0096                     __ptext15 02A7  
                   __ptext24 00A8                     __ptext16 01A7                     __ptext17 0153  
                   __ptext18 00CC                     __ptext19 03D4                     _initMain 020B  
              __size_of_main 00D0                _SSPDATPPSbits 0E21                __size_of_itoa 0026  
              __size_of_utoa 0062                OLED_Clear@col 0036                  _internal_16 009F  
              OLED_Clear@row 0034                OLED_YX@Column 0075               OLED_PutChar@ch 0033  
                 _RC4PPSbits 0EA4                _SSPCLKPPSbits 0E20                   _RC5PPSbits 0EA5  
 __end_of_OLED_Write_Integer 012D                     itoa@base 0026                     memmove@d 007B  
                   memmove@n 0072                     memmove@s 0079                   _OLED_Clear 01A7  
           ___lwmod@dividend 0072            __CFG_CLKOUTEN$OFF 0000                  _PPSLOCKbits 0E0F  
          _Send_I2C_StartBit 0086            OLED_PutChar@bytes 0026                OLED_PutChar@i 0031  
         ?_Send_I2C_StartBit 0070                     utoa@base 007A          ??_Send_I2C_StartBit 0070  
            ___lwmod@divisor 0070              ___lwmod@counter 0075                  _SSPCON2bits 0216  
          ?_Send_I2C_StopBit 0070           ??_Send_I2C_StopBit 0070          OLED_Write_Integer@i 0038  
  __end_of_Send_I2C_StartBit 008E                   _SSPCONbits 0215  
