Microchip MPLAB XC8 Compiler V2.45

Linker command line:

-W-3 \
  --edf=C:\Program Files\Microchip\xc8\v2.45\pic\dat\20230818022343_en.msgs \
  -cn -h+dist/default/debug\45_ESP8266.X.debug.sym \
  --cmf=dist/default/debug\45_ESP8266.X.debug.cmf -z -Q16F1719 \
  -oC:\Users\armst\AppData\Local\Temp\xcAssh0.\driver_tmp_3.o \
  --defsym=__MPLAB_BUILD=1 --fixupoverflow=error \
  -Mdist/default/debug/45_ESP8266.X.debug.map \
  --md=C:\Users\armst\AppData\Local\Temp\xcAssh0.\driver_tmp_0.dat -E1 \
  -ver=XC8 Compiler --acfsm=1493 -ACODE=00h-07FFhx8 -ASTRCODE=00h-03FFFh \
  -ASTRING=00h-0FFhx64 -ACONST=00h-0FFhx64 -AENTRY=00h-0FFhx64 \
  -ACOMMON=070h-07Fh -ABANK0=020h-06Fh -ABANK1=0A0h-0EFh \
  -ABANK2=0120h-016Fh -ABANK3=01A0h-01EFh -ABANK4=0220h-026Fh \
  -ABANK5=02A0h-02EFh -ABANK6=0320h-036Fh -ABANK7=03A0h-03EFh \
  -ABANK8=0420h-046Fh -ABANK9=04A0h-04EFh -ABANK10=0520h-056Fh \
  -ABANK11=05A0h-05EFh -ABANK12=0620h-066Fh -ABANK13=06A0h-06EFh \
  -ABANK14=0720h-076Fh -ABANK15=07A0h-07EFh -ABANK16=0820h-086Fh \
  -ABANK17=08A0h-08EFh -ABANK18=0920h-096Fh -ABANK19=09A0h-09EFh \
  -ABANK20=0A20h-0A6Fh -ABANK21=0AA0h-0AEFh -ABANK22=0B20h-0B6Fh \
  -ABANK23=0BA0h-0BEFh -ABANK24=0C20h-0C6Fh -ABANK25=0CA0h-0CBFh \
  -ABIGRAM=02000h-027EFh \
  -ARAM=020h-06Fh,0A0h-0EFh,0120h-016Fh,01A0h-01EFh,0220h-026Fh,02A0h-02EFh,0320h-036Fh,03A0h-03EFh,0420h-046Fh,04A0h-04EFh,0520h-056Fh,05A0h-05EFh,0620h-066Fh,06A0h-06EFh,0720h-076Fh,07A0h-07EFh,0820h-086Fh,08A0h-08EFh,0920h-096Fh,09A0h-09EFh,0A20h-0A6Fh,0AA0h-0AEFh,0B20h-0B6Fh,0BA0h-0BEFh,0C20h-0C6Fh,0CA0h-0CBFh \
  -AABS1=020h-07Fh,0A0h-0EFh,0120h-016Fh,01A0h-01EFh,0220h-026Fh,02A0h-02EFh,0320h-036Fh,03A0h-03EFh,0420h-046Fh,04A0h-04EFh,0520h-056Fh,05A0h-05EFh,0620h-066Fh,06A0h-06EFh,0720h-076Fh,07A0h-07EFh,0820h-086Fh,08A0h-08EFh,0920h-096Fh,09A0h-09EFh,0A20h-0A6Fh,0AA0h-0AEFh,0B20h-0B6Fh,0BA0h-0BEFh,0C20h-0C6Fh,0CA0h-0CBFh \
  -ASFR0=00h-01Fh -ASFR1=080h-09Fh -ASFR2=0100h-011Fh -ASFR3=0180h-019Fh \
  -ASFR4=0200h-021Fh -ASFR5=0280h-029Fh -ASFR6=0300h-031Fh \
  -ASFR7=0380h-039Fh -ASFR8=0400h-041Fh -ASFR9=0480h-049Fh \
  -ASFR10=0500h-051Fh -ASFR11=0580h-059Fh -ASFR12=0600h-061Fh \
  -ASFR13=0680h-069Fh -ASFR14=0700h-071Fh -ASFR15=0780h-079Fh \
  -ASFR16=0800h-081Fh -ASFR17=0880h-089Fh -ASFR18=0900h-091Fh \
  -ASFR19=0980h-099Fh -ASFR20=0A00h-0A1Fh -ASFR21=0A80h-0A9Fh \
  -ASFR22=0B00h-0B1Fh -ASFR23=0B80h-0B9Fh -ASFR24=0C00h-0C1Fh \
  -ASFR25=0C80h-0C9Fh -ASFR26=0D00h-0D6Fh -ASFR27=0D80h-0DEFh \
  -ASFR28=0E00h-0E6Fh -ASFR29=0E80h-0EEFh -ASFR30=0F00h-0F6Fh \
  -ASFR31=0F80h-0FEFh -ACONFIG=08007h-08008h -DCONFIG=2 \
  -AIDLOC=08000h-08003h -DIDLOC=2 -DCODE=2 -DSTRCODE=2 -DSTRING=2 -DCONST=2 \
  -DENTRY=2 -preset_vec=00h,intentry=04h,init,end_init -ppowerup=CODE \
  -pcinit=CODE -pfunctab=ENTRY -k \
  C:\Users\armst\AppData\Local\Temp\xcAssh0.\driver_tmp_12.o \
  dist/default/debug\45_ESP8266.X.debug.o 

Object code version is 3.11

Machine type is 16F1719



                Name                               Link     Load   Length Selector   Space Scale
C:\Users\armst\AppData\Local\Temp\xcAssh0.\driver_tmp_12.o
                end_init                             11       11        2        8       0
                reset_vec                             0        0        3        0       0
                config                             8007     8007        2        0       4
dist/default/debug\45_ESP8266.X.debug.o
                cinit                                13       13        C        8       0
                intentry                              4        4        D        8       0
                config                             8007     8007        2        0       4
                text47                             1254     1254       10     24A8       0
                text46                             12BC     12BC       1E     2578       0
                text45                             1202     1202        A     2404       0
                text44                             129F     129F       1D     253E       0
                text43                             123E     123E        B     247C       0
                text42                             120C     120C        A     2418       0
                text41                             1216     1216        A     242C       0
                text40                             1573     1573       6B     2AE6       0
                text39                             1649     1649       6C     2C92       0
                text38                             12DA     12DA       1F     25B4       0
                text37                             139F     139F       29     273E       0
                text36                             13C8     13C8       2B     2790       0
                text35                              7E9      7E9       17      6CE       0
                text34                              998      998       AF     1330       0
                text32                              85D      85D       90     10BA       0
                text31                              809      809       54     1012       0
                text30                             1274     1274       12     24E8       0
                text29                             1249     1249        B     2492       0
                text28                             1220     1220        A     2440       0
                text27                             122A     122A        A     2454       0
                text26                             1358     1358       23     26B0       0
                text25                             150E     150E       65     2A1C       0
                text24                             16B5     16B5       6C     2D6A       0
                text23                             1721     1721       6E     2E42       0
                text22                             1286     1286       19     250C       0
                text21                             14AE     14AE       60     295C       0
                text20                             1318     1318       20     2630       0
                text19                              A47      A47       BD     148E       0
                text18                             147A     147A       34     28F4       0
                text17                              5E1      5E1      208      6CE       0
                text16                              E56      E56      1AA     1CAC       0
                text15                             137B     137B       24     26F6       0
                text14                              367      367      27A      6CE       0
                text13                              8ED      8ED       AB     11DA       0
                text12                              BC5      BC5       F7     178A       0
                text11                             178F     178F       71     2F1E       0
                text10                              800      800        9      6CE       0
                text9                              15DE     15DE       6B     2BBC       0
                text8                              1264     1264       10     24C8       0
                text7                              1338     1338       20     2670       0
                text6                              1234     1234        A     2468       0
                text5                              12F9     12F9       1F     25F2       0
                text4                              13F3     13F3       2C     27E6       0
                text3                              141F     141F       2D     283E       0
                text2                               B04      B04       C1     1608       0
                text1                              144C     144C       2E     2898       0
                maintext                            CBC      CBC      19A     1978       0
                cstackBANK0                          20       20       38       20       1
                cstackCOMMON                         70       70        E       70       1
                cstackBANK1                          A0       A0       4B       A0       1
                clrtext                            11FC     11FC        6     23F8       0
                bssBANK2                            120      120       32      120       1
                stringtext13                       189C     189C        5     3000       0
                stringtext12                       1896     1896        6     3000       0
                stringtext11                       188B     188B        B     3000       0
                stringtext10                       187E     187E        D     3000       0
                stringtext9                        1871     1871        D     3000       0
                stringtext8                        1864     1864        D     3000       0
                stringtext7                        1856     1856        E     3000       0
                stringtext6                        1847     1847        F     3000       0
                stringtext5                        1837     1837       10     3000       0
                stringtext4                        1826     1826       11     3000       0
                stringtext3                        1814     1814       12     3000       0
                stringtext2                        1800     1800       14     3000       0
                stringtext1                          1F       1F      348       3E       0

TOTAL           Name                               Link     Load   Length     Space
        CLASS   CODE           
                end_init                             11       11        2         0
                cinit                                13       13        C         0
                intentry                              4        4        D         0
                reset_vec                             0        0        3         0
                text47                             1254     1254       10         0
                text46                             12BC     12BC       1E         0
                text45                             1202     1202        A         0
                text44                             129F     129F       1D         0
                text43                             123E     123E        B         0
                text42                             120C     120C        A         0
                text41                             1216     1216        A         0
                text40                             1573     1573       6B         0
                text39                             1649     1649       6C         0
                text38                             12DA     12DA       1F         0
                text37                             139F     139F       29         0
                text36                             13C8     13C8       2B         0
                text35                              7E9      7E9       17         0
                text34                              998      998       AF         0
                text32                              85D      85D       90         0
                text31                              809      809       54         0
                text30                             1274     1274       12         0
                text29                             1249     1249        B         0
                text28                             1220     1220        A         0
                text27                             122A     122A        A         0
                text26                             1358     1358       23         0
                text25                             150E     150E       65         0
                text24                             16B5     16B5       6C         0
                text23                             1721     1721       6E         0
                text22                             1286     1286       19         0
                text21                             14AE     14AE       60         0
                text20                             1318     1318       20         0
                text19                              A47      A47       BD         0
                text18                             147A     147A       34         0
                text17                              5E1      5E1      208         0
                text16                              E56      E56      1AA         0
                text15                             137B     137B       24         0
                text14                              367      367      27A         0
                text13                              8ED      8ED       AB         0
                text12                              BC5      BC5       F7         0
                text11                             178F     178F       71         0
                text10                              800      800        9         0
                text9                              15DE     15DE       6B         0
                text8                              1264     1264       10         0
                text7                              1338     1338       20         0
                text6                              1234     1234        A         0
                text5                              12F9     12F9       1F         0
                text4                              13F3     13F3       2C         0
                text3                              141F     141F       2D         0
                text2                               B04      B04       C1         0
                text1                              144C     144C       2E         0
                maintext                            CBC      CBC      19A         0
                clrtext                            11FC     11FC        6         0

        CLASS   STRCODE        
                stringtext13                       189C     189C        5         0
                stringtext12                       1896     1896        6         0
                stringtext11                       188B     188B        B         0
                stringtext10                       187E     187E        D         0
                stringtext9                        1871     1871        D         0
                stringtext8                        1864     1864        D         0
                stringtext7                        1856     1856        E         0
                stringtext6                        1847     1847        F         0
                stringtext5                        1837     1837       10         0
                stringtext4                        1826     1826       11         0
                stringtext3                        1814     1814       12         0
                stringtext2                        1800     1800       14         0
                stringtext1                          1F       1F      348         0

        CLASS   STRING         

        CLASS   CONST          

        CLASS   ENTRY          

        CLASS   COMMON         
                cstackCOMMON                         70       70        E         1

        CLASS   BANK0          
                cstackBANK0                          20       20       38         1

        CLASS   BANK1          
                cstackBANK1                          A0       A0       4B         1

        CLASS   BANK2          
                bssBANK2                            120      120       32         1

        CLASS   BANK3          

        CLASS   BANK4          

        CLASS   BANK5          

        CLASS   BANK6          

        CLASS   BANK7          

        CLASS   BANK8          

        CLASS   BANK9          

        CLASS   BANK10         

        CLASS   BANK11         

        CLASS   BANK12         

        CLASS   BANK13         

        CLASS   BANK14         

        CLASS   BANK15         

        CLASS   BANK16         

        CLASS   BANK17         

        CLASS   BANK18         

        CLASS   BANK19         

        CLASS   BANK20         

        CLASS   BANK21         

        CLASS   BANK22         

        CLASS   BANK23         

        CLASS   BANK24         

        CLASS   BANK25         

        CLASS   BIGRAM         

        CLASS   RAM            

        CLASS   ABS1           
                abs_s1                               7E       7E        2         1

        CLASS   SFR0           

        CLASS   SFR1           

        CLASS   SFR2           

        CLASS   SFR3           

        CLASS   SFR4           

        CLASS   SFR5           

        CLASS   SFR6           

        CLASS   SFR7           

        CLASS   SFR8           

        CLASS   SFR9           

        CLASS   SFR10          

        CLASS   SFR11          

        CLASS   SFR12          

        CLASS   SFR13          

        CLASS   SFR14          

        CLASS   SFR15          

        CLASS   SFR16          

        CLASS   SFR17          

        CLASS   SFR18          

        CLASS   SFR19          

        CLASS   SFR20          

        CLASS   SFR21          

        CLASS   SFR22          

        CLASS   SFR23          

        CLASS   SFR24          

        CLASS   SFR25          

        CLASS   SFR26          

        CLASS   SFR27          

        CLASS   SFR28          

        CLASS   SFR29          

        CLASS   SFR30          

        CLASS   SFR31          

        CLASS   CONFIG         
                config                             8007     8007        2         4

        CLASS   IDLOC          

        CLASS   BANK31         

        CLASS   BANK30         

        CLASS   BANK29         

        CLASS   BANK28         

        CLASS   BANK27         

        CLASS   BANK26         

        CLASS   HEAP           

        CLASS   STACK          

        CLASS   EEDATA         



SEGMENTS        Name                           Load    Length   Top    Selector   Space  Class     Delta

                reset_vec                      000000  000003  000003         0       0  CODE        2
                intentry                       000004  00001B  00001F         8       0  CODE        2
                cstackBANK0                    000020  000038  000058        20       1  BANK0       1
                stringtext1                    00001F  000348  000367        3E       0  STRCODE     2
                cstackCOMMON                   000070  00000E  00007E        70       1  COMMON      1
                cstackBANK1                    0000A0  00004B  0000EB        A0       1  BANK1       1
                bssBANK2                       000120  000032  000152       120       1  BANK2       1
                text14                         000367  0004A2  000809       6CE       0  CODE        2
                text31                         000809  000054  00085D      1012       0  CODE        2
                text32                         00085D  000090  0008ED      10BA       0  CODE        2
                text13                         0008ED  0000AB  000998      11DA       0  CODE        2
                text34                         000998  0000AF  000A47      1330       0  CODE        2
                text19                         000A47  0000BD  000B04      148E       0  CODE        2
                text2                          000B04  0000C1  000BC5      1608       0  CODE        2
                text12                         000BC5  0000F7  000CBC      178A       0  CODE        2
                maintext                       000CBC  00019A  000E56      1978       0  CODE        2
                text16                         000E56  0001AA  001000      1CAC       0  CODE        2
                clrtext                        0011FC  000006  001202      23F8       0  CODE        2
                text45                         001202  00000A  00120C      2404       0  CODE        2
                text42                         00120C  00000A  001216      2418       0  CODE        2
                text41                         001216  00000A  001220      242C       0  CODE        2
                text28                         001220  00000A  00122A      2440       0  CODE        2
                text27                         00122A  00000A  001234      2454       0  CODE        2
                text6                          001234  00000A  00123E      2468       0  CODE        2
                text43                         00123E  00000B  001249      247C       0  CODE        2
                text29                         001249  00000B  001254      2492       0  CODE        2
                text47                         001254  000010  001264      24A8       0  CODE        2
                text8                          001264  000010  001274      24C8       0  CODE        2
                text30                         001274  000012  001286      24E8       0  CODE        2
                text22                         001286  000019  00129F      250C       0  CODE        2
                text44                         00129F  00001D  0012BC      253E       0  CODE        2
                text46                         0012BC  00001E  0012DA      2578       0  CODE        2
                text38                         0012DA  00001F  0012F9      25B4       0  CODE        2
                text5                          0012F9  00001F  001318      25F2       0  CODE        2
                text20                         001318  000020  001338      2630       0  CODE        2
                text7                          001338  000020  001358      2670       0  CODE        2
                text26                         001358  000023  00137B      26B0       0  CODE        2
                text15                         00137B  000024  00139F      26F6       0  CODE        2
                text37                         00139F  000029  0013C8      273E       0  CODE        2
                text36                         0013C8  00002B  0013F3      2790       0  CODE        2
                text4                          0013F3  00002C  00141F      27E6       0  CODE        2
                text3                          00141F  00002D  00144C      283E       0  CODE        2
                text1                          00144C  00002E  00147A      2898       0  CODE        2
                text18                         00147A  000034  0014AE      28F4       0  CODE        2
                text21                         0014AE  000060  00150E      295C       0  CODE        2
                text25                         00150E  000065  001573      2A1C       0  CODE        2
                text40                         001573  00006B  0015DE      2AE6       0  CODE        2
                text9                          0015DE  00006B  001649      2BBC       0  CODE        2
                text39                         001649  00006C  0016B5      2C92       0  CODE        2
                text24                         0016B5  00006C  001721      2D6A       0  CODE        2
                text23                         001721  00006E  00178F      2E42       0  CODE        2
                text11                         00178F  000071  001800      2F1E       0  CODE        2
                stringtext2                    001800  0000A1  0018A1      3000       0  STRCODE     2


UNUSED ADDRESS RANGES

        Name                Unused          Largest block    Delta
        BANK0            00058-0006F              18           1
        BANK1            000EB-000EF               5           1
        BANK10           00520-0056F              50           1
        BANK11           005A0-005EF              50           1
        BANK12           00620-0066F              50           1
        BANK13           006A0-006EF              50           1
        BANK14           00720-0076F              50           1
        BANK15           007A0-007EF              50           1
        BANK16           00820-0086F              50           1
        BANK17           008A0-008EF              50           1
        BANK18           00920-0096F              50           1
        BANK19           009A0-009EF              50           1
        BANK2            00152-0016F              1E           1
        BANK20           00A20-00A6F              50           1
        BANK21           00AA0-00AEF              50           1
        BANK22           00B20-00B6F              50           1
        BANK23           00BA0-00BEF              50           1
        BANK24           00C20-00C6F              50           1
        BANK25           00CA0-00CBF              20           1
        BANK3            001A0-001EF              50           1
        BANK4            00220-0026F              50           1
        BANK5            002A0-002EF              50           1
        BANK6            00320-0036F              50           1
        BANK7            003A0-003EF              50           1
        BANK8            00420-0046F              50           1
        BANK9            004A0-004EF              50           1
        BIGRAM           02000-027EF             7F0           1
        CODE             00003-00003               1           2
                         01000-011FB             1FC
                         018A1-03FFF             800
        CONST            00003-00003               1           2
                         01000-011FB             100
                         018A1-03FFF             100
        ENTRY            00003-00003               1           2
                         01000-011FB             100
                         018A1-03FFF             100
        IDLOC            08000-08003               4           2
        RAM              00058-0006F              18           1
                         000EB-000EF               5
                         00152-0016F              1E
                         001A0-001EF              50
                         00220-0026F              50
                         002A0-002EF              50
                         00320-0036F              50
                         003A0-003EF              50
                         00420-0046F              50
                         004A0-004EF              50
                         00520-0056F              50
                         005A0-005EF              50
                         00620-0066F              50
                         006A0-006EF              50
                         00720-0076F              50
                         007A0-007EF              50
                         00820-0086F              50
                         008A0-008EF              50
                         00920-0096F              50
                         009A0-009EF              50
                         00A20-00A6F              50
                         00AA0-00AEF              50
                         00B20-00B6F              50
                         00BA0-00BEF              50
                         00C20-00C6F              50
                         00CA0-00CBF              20
        SFR0             00000-0001F              20           1
        SFR1             00080-0009F              20           1
        SFR10            00500-0051F              20           1
        SFR11            00580-0059F              20           1
        SFR12            00600-0061F              20           1
        SFR13            00680-0069F              20           1
        SFR14            00700-0071F              20           1
        SFR15            00780-0079F              20           1
        SFR16            00800-0081F              20           1
        SFR17            00880-0089F              20           1
        SFR18            00900-0091F              20           1
        SFR19            00980-0099F              20           1
        SFR2             00100-0011F              20           1
        SFR20            00A00-00A1F              20           1
        SFR21            00A80-00A9F              20           1
        SFR22            00B00-00B1F              20           1
        SFR23            00B80-00B9F              20           1
        SFR24            00C00-00C1F              20           1
        SFR25            00C80-00C9F              20           1
        SFR26            00D00-00D6F              70           1
        SFR27            00D80-00DEF              70           1
        SFR28            00E00-00E6F              70           1
        SFR29            00E80-00EEF              70           1
        SFR3             00180-0019F              20           1
        SFR30            00F00-00F6F              70           1
        SFR31            00F80-00FEF              70           1
        SFR4             00200-0021F              20           1
        SFR5             00280-0029F              20           1
        SFR6             00300-0031F              20           1
        SFR7             00380-0039F              20           1
        SFR8             00400-0041F              20           1
        SFR9             00480-0049F              20           1
        STRCODE          00003-00003               1           2
                         01000-011FB             1FC
                         018A1-03FFF            275F
        STRING           00003-00003               1           2
                         01000-011FB             100
                         018A1-03FFF             100

                                  Symbol Table

?_Read_Temperature            cstackBANK0  00054
?__Umul8_16                   cstackBANK0  00038
?___aldiv                     cstackBANK0  00038
?___awdiv                     cstackBANK0  00038
?___fladd                     cstackBANK0  00038
?___fldiv                     cstackBANK1  000B2
?___flmul                     cstackBANK0  0004C
?___fltol                     cstackBANK0  00038
?___wmul                      cstackBANK0  00038
?___xxtofl                    cstackBANK0  00038
?_c_itoa                      cstackBANK0  00042
EUSART_Initialize@baudrate    cstackBANK0  00047
EUSART_Initialize@x           cstackBANK1  000A0
EUSART_Read_Text@Output       cstackBANK0  0003D
EUSART_Read_Text@i_648        cstackBANK0  0003B
EUSART_Read_Text@length       cstackBANK0  00038
EUSART_Write@txData           cstackBANK0  00038
EUSART_Write_Text@i           cstackBANK0  0003C
EUSART_Write_Text@text        cstackBANK0  00039
OLED_Clear@col                cstackBANK1  000A2
OLED_Clear@row                cstackBANK1  000A0
OLED_Command@temp             cstackBANK0  0003C
OLED_PutChar@base             cstackBANK0  00051
OLED_PutChar@bytes            cstackBANK0  00048
OLED_PutChar@ch               cstackBANK0  00055
OLED_PutChar@i                cstackBANK0  00053
OLED_Write_Integer@buff11     cstackBANK1  000A5
OLED_Write_Integer@i          cstackBANK1  000A7
OLED_Write_Integer@status     cstackBANK1  000A3
OLED_Write_String@s           cstackBANK0  00056
OLED_YX@Column                cstackBANK0  0003D
OLED_YX@Row                   cstackBANK0  00041
Read_Temperature@celsius      cstackBANK1  000D9
Read_Temperature@conversion10 cstackBANK1  000D1
Read_Temperature@farenheit    cstackBANK1  000D5
Read_Temperature@result       cstackBANK1  000DD
Send_I2C_Data@databyte        cstackBANK0  00038
_ADCON0bits                   (abs)        0009D
_ADCON1bits                   (abs)        0009E
_ADRESH                       (abs)        0009C
_ADRESL                       (abs)        0009B
_ANSELBbits                   (abs)        0018D
_ANSELCbits                   (abs)        0018E
_ANSELDbits                   (abs)        0018F
_ANSELEbits                   (abs)        00190
_BRG16                        (abs)        00CFB
_BRGH                         (abs)        00CF2
_CREN                         (abs)        00CEC
_EUSART_Initialize            text31       00809
_EUSART_Read                  text8        01264
_EUSART_Read_Text             text7        01338
_EUSART_Write                 text6        01234
_EUSART_Write_Text            text5        012F9
_I2C_Init                     text30       01274
_INTCONbits                   (abs)        0000B
_INTPPSbits                   (abs)        00E10
_IRCF0                        (abs)        004CB
_IRCF1                        (abs)        004CC
_IRCF2                        (abs)        004CD
_IRCF3                        (abs)        004CE
_OLED_Clear                   text3        0141F
_OLED_Command                 text26       01358
_OLED_Init                    text25       0150E
_OLED_PutChar                 text23       01721
_OLED_Write_Integer           text18       0147A
_OLED_Write_String            text22       01286
_OLED_YX                      text4        013F3
_OPTION_REGbits               (abs)        00095
_OledFont                     stringtext1  0001F
_PIR1bits                     (abs)        00011
_PPSLOCK                      (abs)        00E0F
_PPSLOCKbits                  (abs)        00E0F
_RB2PPSbits                   (abs)        00E9A
_RC1REG                       (abs)        00199
_RC1STAbits                   (abs)        0019D
_RC4PPSbits                   (abs)        00EA4
_RC5PPSbits                   (abs)        00EA5
_RXPPSbits                    (abs)        00E24
_Read_Temperature             text12       00BC5
_SCS0                         (abs)        004C8
_SCS1                         (abs)        004C9
_SPBRGL                       (abs)        0019B
_SPEN                         (abs)        00CEF
_SPLLEN                       (abs)        004CF
_SSPADD                       (abs)        00212
_SSPBUF                       (abs)        00211
_SSPCLKPPSbits                (abs)        00E20
_SSPCON2bits                  (abs)        00216
_SSPCONbits                   (abs)        00215
_SSPDATPPSbits                (abs)        00E21
_SYNC                         (abs)        00CF4
_Send_I2C_Data                text29       01249
_Send_I2C_StartBit            text28       01220
_Send_I2C_StopBit             text27       0122A
_TRISBbits                    (abs)        0008D
_TRISCbits                    (abs)        0008E
_TRISDbits                    (abs)        0008F
_TX1REG                       (abs)        0019A
_TXEN                         (abs)        00CF5
_WDTCONbits                   (abs)        00097
__H__absolute__               __absolute__ 00000
__Habs1                       abs1         00000
__Hbank0                      bank0        00000
__Hbank1                      bank1        00000
__Hbank10                     bank10       00000
__Hbank11                     bank11       00000
__Hbank12                     bank12       00000
__Hbank13                     bank13       00000
__Hbank14                     bank14       00000
__Hbank15                     bank15       00000
__Hbank16                     bank16       00000
__Hbank17                     bank17       00000
__Hbank18                     bank18       00000
__Hbank19                     bank19       00000
__Hbank2                      bank2        00000
__Hbank20                     bank20       00000
__Hbank21                     bank21       00000
__Hbank22                     bank22       00000
__Hbank23                     bank23       00000
__Hbank24                     bank24       00000
__Hbank25                     bank25       00000
__Hbank26                     bank26       00000
__Hbank27                     bank27       00000
__Hbank28                     bank28       00000
__Hbank29                     bank29       00000
__Hbank3                      bank3        00000
__Hbank30                     bank30       00000
__Hbank31                     bank31       00000
__Hbank4                      bank4        00000
__Hbank5                      bank5        00000
__Hbank6                      bank6        00000
__Hbank7                      bank7        00000
__Hbank8                      bank8        00000
__Hbank9                      bank9        00000
__Hbigram                     bigram       00000
__HbssBANK2                   bssBANK2     00000
__Hcinit                      cinit        0001F
__Hclrtext                    clrtext      00000
__Hcode                       code         00000
__Hcommon                     common       00000
__Hconfig                     config       08009
__HcstackBANK0                cstackBANK0  00000
__HcstackBANK1                cstackBANK1  00000
__HcstackCOMMON               cstackCOMMON 00000
__Heeprom_data                eeprom_data  00000
__Hend_init                   end_init     00013
__Hfunctab                    functab      00000
__Hheap                       heap         00000
__Hinit                       init         00011
__Hintentry                   intentry     00011
__Hmaintext                   maintext     00000
__Hpowerup                    powerup      00000
__Hram                        ram          00000
__Hreset_vec                  reset_vec    00003
__Hsfr0                       sfr0         00000
__Hsfr1                       sfr1         00000
__Hsfr10                      sfr10        00000
__Hsfr11                      sfr11        00000
__Hsfr12                      sfr12        00000
__Hsfr13                      sfr13        00000
__Hsfr14                      sfr14        00000
__Hsfr15                      sfr15        00000
__Hsfr16                      sfr16        00000
__Hsfr17                      sfr17        00000
__Hsfr18                      sfr18        00000
__Hsfr19                      sfr19        00000
__Hsfr2                       sfr2         00000
__Hsfr20                      sfr20        00000
__Hsfr21                      sfr21        00000
__Hsfr22                      sfr22        00000
__Hsfr23                      sfr23        00000
__Hsfr24                      sfr24        00000
__Hsfr25                      sfr25        00000
__Hsfr26                      sfr26        00000
__Hsfr27                      sfr27        00000
__Hsfr28                      sfr28        00000
__Hsfr29                      sfr29        00000
__Hsfr3                       sfr3         00000
__Hsfr30                      sfr30        00000
__Hsfr31                      sfr31        00000
__Hsfr4                       sfr4         00000
__Hsfr5                       sfr5         00000
__Hsfr6                       sfr6         00000
__Hsfr7                       sfr7         00000
__Hsfr8                       sfr8         00000
__Hsfr9                       sfr9         00000
__Hspace_0                    (abs)        018A1
__Hspace_1                    (abs)        00152
__Hspace_2                    (abs)        00000
__Hspace_3                    (abs)        00000
__Hspace_4                    (abs)        10010
__Hstack                      stack        00000
__Hstrings                    strings      00000
__Hstringtext1                stringtext1  00000
__Hstringtext10               stringtext10 00000
__Hstringtext11               stringtext11 00000
__Hstringtext12               stringtext12 00000
__Hstringtext13               stringtext13 00000
__Hstringtext14               stringtext14 00000
__Hstringtext2                stringtext2  00000
__Hstringtext3                stringtext3  00000
__Hstringtext4                stringtext4  00000
__Hstringtext5                stringtext5  00000
__Hstringtext6                stringtext6  00000
__Hstringtext7                stringtext7  00000
__Hstringtext8                stringtext8  00000
__Hstringtext9                stringtext9  00000
__Htext                       text         00000
__L__absolute__               __absolute__ 00000
__Labs1                       abs1         00000
__Lbank0                      bank0        00000
__Lbank1                      bank1        00000
__Lbank10                     bank10       00000
__Lbank11                     bank11       00000
__Lbank12                     bank12       00000
__Lbank13                     bank13       00000
__Lbank14                     bank14       00000
__Lbank15                     bank15       00000
__Lbank16                     bank16       00000
__Lbank17                     bank17       00000
__Lbank18                     bank18       00000
__Lbank19                     bank19       00000
__Lbank2                      bank2        00000
__Lbank20                     bank20       00000
__Lbank21                     bank21       00000
__Lbank22                     bank22       00000
__Lbank23                     bank23       00000
__Lbank24                     bank24       00000
__Lbank25                     bank25       00000
__Lbank26                     bank26       00000
__Lbank27                     bank27       00000
__Lbank28                     bank28       00000
__Lbank29                     bank29       00000
__Lbank3                      bank3        00000
__Lbank30                     bank30       00000
__Lbank31                     bank31       00000
__Lbank4                      bank4        00000
__Lbank5                      bank5        00000
__Lbank6                      bank6        00000
__Lbank7                      bank7        00000
__Lbank8                      bank8        00000
__Lbank9                      bank9        00000
__Lbigram                     bigram       00000
__LbssBANK2                   bssBANK2     00000
__Lcinit                      cinit        00013
__Lclrtext                    clrtext      00000
__Lcode                       code         00000
__Lcommon                     common       00000
__Lconfig                     config       00000
__LcstackBANK0                cstackBANK0  00000
__LcstackBANK1                cstackBANK1  00000
__LcstackCOMMON               cstackCOMMON 00000
__Leeprom_data                eeprom_data  00000
__Lend_init                   end_init     00011
__Lfunctab                    functab      00000
__Lheap                       heap         00000
__Linit                       init         00011
__Lintentry                   intentry     00004
__Lmaintext                   maintext     00000
__Lpowerup                    powerup      00000
__Lram                        ram          00000
__Lreset_vec                  reset_vec    00000
__Lsfr0                       sfr0         00000
__Lsfr1                       sfr1         00000
__Lsfr10                      sfr10        00000
__Lsfr11                      sfr11        00000
__Lsfr12                      sfr12        00000
__Lsfr13                      sfr13        00000
__Lsfr14                      sfr14        00000
__Lsfr15                      sfr15        00000
__Lsfr16                      sfr16        00000
__Lsfr17                      sfr17        00000
__Lsfr18                      sfr18        00000
__Lsfr19                      sfr19        00000
__Lsfr2                       sfr2         00000
__Lsfr20                      sfr20        00000
__Lsfr21                      sfr21        00000
__Lsfr22                      sfr22        00000
__Lsfr23                      sfr23        00000
__Lsfr24                      sfr24        00000
__Lsfr25                      sfr25        00000
__Lsfr26                      sfr26        00000
__Lsfr27                      sfr27        00000
__Lsfr28                      sfr28        00000
__Lsfr29                      sfr29        00000
__Lsfr3                       sfr3         00000
__Lsfr30                      sfr30        00000
__Lsfr31                      sfr31        00000
__Lsfr4                       sfr4         00000
__Lsfr5                       sfr5         00000
__Lsfr6                       sfr6         00000
__Lsfr7                       sfr7         00000
__Lsfr8                       sfr8         00000
__Lsfr9                       sfr9         00000
__Lspace_0                    (abs)        00000
__Lspace_1                    (abs)        00000
__Lspace_2                    (abs)        00000
__Lspace_3                    (abs)        00000
__Lspace_4                    (abs)        00000
__Lstack                      stack        00000
__Lstrings                    strings      00000
__Lstringtext1                stringtext1  00000
__Lstringtext10               stringtext10 00000
__Lstringtext11               stringtext11 00000
__Lstringtext12               stringtext12 00000
__Lstringtext13               stringtext13 00000
__Lstringtext14               stringtext14 00000
__Lstringtext2                stringtext2  00000
__Lstringtext3                stringtext3  00000
__Lstringtext4                stringtext4  00000
__Lstringtext5                stringtext5  00000
__Lstringtext6                stringtext6  00000
__Lstringtext7                stringtext7  00000
__Lstringtext8                stringtext8  00000
__Lstringtext9                stringtext9  00000
__Ltext                       text         00000
__S0                          (abs)        018A1
__S1                          (abs)        00152
__Umul8_16                    text15       0137B
__Umul8_16@multiplicand       cstackBANK0  00038
__Umul8_16@multiplier         cstackBANK0  00040
__Umul8_16@product            cstackBANK0  0003C
__Umul8_16@word_mpld          cstackBANK0  0003E
___aldiv                      text32       0085D
___aldiv@counter              cstackBANK0  00041
___aldiv@dividend             cstackBANK0  0003C
___aldiv@divisor              cstackBANK0  00038
___aldiv@quotient             cstackBANK0  00043
___aldiv@sign                 cstackBANK0  00042
___awdiv                      text21       014AE
___awdiv@counter              cstackBANK0  0003D
___awdiv@dividend             cstackBANK0  0003A
___awdiv@divisor              cstackBANK0  00038
___awdiv@quotient             cstackBANK0  0003F
___awdiv@sign                 cstackBANK0  0003E
___fladd                      text17       005E1
___fladd@a                    cstackBANK0  0003C
___fladd@aexp                 cstackBANK0  00049
___fladd@b                    cstackBANK0  00038
___fladd@bexp                 cstackBANK0  0004A
___fladd@grs                  cstackBANK0  0004B
___fladd@signs                cstackBANK0  00048
___fldiv                      text16       00E56
___fldiv@a                    cstackBANK1  000B2
___fldiv@aexp                 cstackBANK1  000CB
___fldiv@b                    cstackBANK1  000B6
___fldiv@bexp                 cstackBANK1  000CA
___fldiv@grs                  cstackBANK1  000C6
___fldiv@new_exp              cstackBANK1  000C4
___fldiv@rem                  cstackBANK1  000BF
___fldiv@sign                 cstackBANK1  000C3
___flmul                      text14       00367
___flmul@a                    cstackBANK0  00050
___flmul@aexp                 cstackBANK1  000AA
___flmul@b                    cstackBANK0  0004C
___flmul@bexp                 cstackBANK1  000AB
___flmul@grs                  cstackBANK1  000A6
___flmul@prod                 cstackBANK1  000AC
___flmul@sign                 cstackBANK1  000A5
___flmul@temp                 cstackBANK1  000B0
___fltol                      text11       0178F
___fltol@exp1                 cstackBANK0  00041
___fltol@f1                   cstackBANK0  00038
___fltol@sign1                cstackBANK0  00040
___heap_hi                    (abs)        00000
___heap_lo                    (abs)        00000
___int_sp                     stack        00000
___int_stack_hi               stack        00000
___int_stack_lo               stack        00000
___latbits                    (abs)        00003
___sp                         stack        00000
___stack_hi                   stack        00000
___stack_lo                   stack        00000
___stackhi                    (abs)        00000
___stacklo                    (abs)        00000
___wmul                       text20       01318
___wmul@multiplicand          cstackBANK0  0003A
___wmul@multiplier            cstackBANK0  00038
___wmul@product               cstackBANK0  0003C
___xxtofl                     text13       008ED
___xxtofl@arg                 cstackBANK0  00042
___xxtofl@exp                 cstackBANK0  00041
___xxtofl@sign                cstackBANK0  00040
___xxtofl@val                 cstackBANK0  00038
__end_of_EUSART_Initialize    text31       0085D
__end_of_EUSART_Read          text8        01274
__end_of_EUSART_Read_Text     text7        01358
__end_of_EUSART_Write         text6        0123E
__end_of_EUSART_Write_Text    text5        01318
__end_of_I2C_Init             text30       01286
__end_of_OLED_Clear           text3        0144C
__end_of_OLED_Command         text26       0137B
__end_of_OLED_Init            text25       01573
__end_of_OLED_PutChar         text23       0178F
__end_of_OLED_Write_Integer   text18       014AE
__end_of_OLED_Write_String    text22       0129F
__end_of_OLED_YX              text4        0141F
__end_of_OledFont             stringtext1  0031F
__end_of_Read_Temperature     text12       00CBC
__end_of_Send_I2C_Data        text29       01254
__end_of_Send_I2C_StartBit    text28       0122A
__end_of_Send_I2C_StopBit     text27       01234
__end_of__Umul8_16            text15       0139F
__end_of___aldiv              text32       008ED
__end_of___awdiv              text21       0150E
__end_of___fladd              text17       007E9
__end_of___fldiv              text16       01000
__end_of___flmul              text14       005E1
__end_of___fltol              text11       01800
__end_of___wmul               text20       01338
__end_of___xxtofl             text13       00998
__end_of__initialization      cinit        0001B
__end_of_c_itoa               text19       00B04
__end_of_initMain             text9        01649
__end_of_internal_16          text10       00809
__end_of_isr                  intentry     00011
__end_of_main                 maintext     00E56
__end_of_memmove              text24       01721
__end_of_server_Initialize    text2        00BC5
__end_of_strcat               text1        0147A
__end_ofi1_EUSART_Read        text47       01264
__end_ofi1_EUSART_Read_Text   text46       012DA
__end_ofi1_EUSART_Write       text45       0120C
__end_ofi1_EUSART_Write_Text  text44       012BC
__end_ofi1_OLED_Clear         text36       013F3
__end_ofi1_OLED_Command       text38       012F9
__end_ofi1_OLED_PutChar       text39       016B5
__end_ofi1_OLED_Write_String  text35       00800
__end_ofi1_OLED_YX            text37       013C8
__end_ofi1_Send_I2C_Data      text43       01249
__end_ofi1_Send_I2C_StartBit  text42       01216
__end_ofi1_Send_I2C_StopBit   text41       01220
__end_ofi1_memmove            text40       015DE
__end_ofi1_server_Initialize  text34       00A47
__initialization              cinit        00013
__pbssBANK2                   bssBANK2     00120
__pcstackBANK0                cstackBANK0  00020
__pcstackBANK1                cstackBANK1  000A0
__pcstackCOMMON               cstackCOMMON 00070
__pintentry                   intentry     00004
__pmaintext                   maintext     00CBC
__pstringtext1                stringtext1  0001F
__pstringtext10               stringtext10 0187E
__pstringtext11               stringtext11 0188B
__pstringtext12               stringtext12 01896
__pstringtext13               stringtext13 0189C
__pstringtext14               stringtext14 00000
__pstringtext2                stringtext2  01800
__pstringtext3                stringtext3  01814
__pstringtext4                stringtext4  01826
__pstringtext5                stringtext5  01837
__pstringtext6                stringtext6  01847
__pstringtext7                stringtext7  01856
__pstringtext8                stringtext8  01864
__pstringtext9                stringtext9  01871
__ptext1                      text1        0144C
__ptext10                     text10       00800
__ptext11                     text11       0178F
__ptext12                     text12       00BC5
__ptext13                     text13       008ED
__ptext14                     text14       00367
__ptext15                     text15       0137B
__ptext16                     text16       00E56
__ptext17                     text17       005E1
__ptext18                     text18       0147A
__ptext19                     text19       00A47
__ptext2                      text2        00B04
__ptext20                     text20       01318
__ptext21                     text21       014AE
__ptext22                     text22       01286
__ptext23                     text23       01721
__ptext24                     text24       016B5
__ptext25                     text25       0150E
__ptext26                     text26       01358
__ptext27                     text27       0122A
__ptext28                     text28       01220
__ptext29                     text29       01249
__ptext3                      text3        0141F
__ptext30                     text30       01274
__ptext31                     text31       00809
__ptext32                     text32       0085D
__ptext34                     text34       00998
__ptext35                     text35       007E9
__ptext36                     text36       013C8
__ptext37                     text37       0139F
__ptext38                     text38       012DA
__ptext39                     text39       01649
__ptext4                      text4        013F3
__ptext40                     text40       01573
__ptext41                     text41       01216
__ptext42                     text42       0120C
__ptext43                     text43       0123E
__ptext44                     text44       0129F
__ptext45                     text45       01202
__ptext46                     text46       012BC
__ptext47                     text47       01254
__ptext5                      text5        012F9
__ptext6                      text6        01234
__ptext7                      text7        01338
__ptext8                      text8        01264
__ptext9                      text9        015DE
_buf                          bssBANK2     00120
_c_itoa                       text19       00A47
_initMain                     text9        015DE
_internal_16                  text10       00800
_isr                          intentry     00004
_main                         maintext     00CBC
_memmove                      text24       016B5
_server_Initialize            text2        00B04
_strcat                       text1        0144C
btemp                         (abs)        0007E
c_itoa@base                   cstackBANK0  00046
c_itoa@ptr                    cstackBANK0  00052
c_itoa@ptr1                   cstackBANK0  00050
c_itoa@result                 cstackBANK0  00044
c_itoa@tmp_char               cstackBANK0  0004F
c_itoa@tmp_value              cstackBANK0  0004D
c_itoa@value                  cstackBANK0  00042
clear_ram0                    clrtext      011FC
end_of_initialization         cinit        0001B
i1EUSART_Read_Text@Output     cstackCOMMON 00073
i1EUSART_Read_Text@i_648      cstackCOMMON 00074
i1EUSART_Read_Text@length     cstackCOMMON 00070
i1EUSART_Write@txData         cstackCOMMON 00070
i1EUSART_Write_Text@i         cstackCOMMON 00074
i1EUSART_Write_Text@text      cstackCOMMON 00071
i1OLED_Clear@col              cstackBANK0  00034
i1OLED_Clear@row              cstackBANK0  00032
i1OLED_Command@temp           cstackCOMMON 00074
i1OLED_PutChar@base           cstackBANK0  0002D
i1OLED_PutChar@bytes          cstackBANK0  00024
i1OLED_PutChar@ch             cstackBANK0  00031
i1OLED_PutChar@i              cstackBANK0  0002F
i1OLED_Write_String@s         cstackCOMMON 0007C
i1OLED_YX@Column              cstackCOMMON 00075
i1OLED_YX@Row                 cstackCOMMON 00079
i1Send_I2C_Data@databyte      cstackCOMMON 00070
i1_EUSART_Read                text47       01254
i1_EUSART_Read_Text           text46       012BC
i1_EUSART_Write               text45       01202
i1_EUSART_Write_Text          text44       0129F
i1_OLED_Clear                 text36       013C8
i1_OLED_Command               text38       012DA
i1_OLED_PutChar               text39       01649
i1_OLED_Write_String          text35       007E9
i1_OLED_YX                    text37       0139F
i1_Send_I2C_Data              text43       0123E
i1_Send_I2C_StartBit          text42       0120C
i1_Send_I2C_StopBit           text41       01216
i1_memmove                    text40       01573
i1_server_Initialize          text34       00998
i1memmove@c                   cstackCOMMON 00077
i1memmove@d                   cstackCOMMON 0007A
i1memmove@d1                  cstackCOMMON 00076
i1memmove@n                   cstackCOMMON 00072
i1memmove@s                   cstackCOMMON 00078
i1memmove@s1                  cstackCOMMON 00070
int$flags                     (abs)        0007E
intlevel0                     functab      00000
intlevel1                     functab      00000
intlevel2                     functab      00000
intlevel3                     functab      00000
intlevel4                     functab      00000
intlevel5                     functab      00000
main@buff11                   cstackBANK1  000E9
main@status                   cstackBANK1  000E3
main@temp                     cstackBANK1  000E5
memmove@c                     cstackBANK0  0003F
memmove@d                     cstackBANK0  00042
memmove@d1                    cstackBANK0  0003E
memmove@n                     cstackBANK0  0003A
memmove@s                     cstackBANK0  00040
memmove@s1                    cstackBANK0  00038
reset_vec                     reset_vec    00000
start                         init         00011
start_initialization          cinit        00013
strcat@dest                   cstackBANK0  00038
strcat@i                      cstackBANK0  0003C
strcat@src                    cstackBANK0  0003A
wtemp0                        (abs)        0007E


MODULE INFORMATION

Module		Function		Class		Link	Load	Size
C:\Program Files\Microchip\xc8\v2.45\pic\sources\c99\common\aldiv.c
		___aldiv       		CODE           	085D	0000	144

C:\Program Files\Microchip\xc8\v2.45\pic\sources\c99\common\aldiv.c estimated size: 144

C:\Program Files\Microchip\xc8\v2.45\pic\sources\c99\common\Umul16.c
		___wmul        		CODE           	1318	0000	32

C:\Program Files\Microchip\xc8\v2.45\pic\sources\c99\common\Umul16.c estimated size: 32

EUSART.c
		_EUSART_Read   		CODE           	1264	0000	16
		_EUSART_Write  		CODE           	1234	0000	10
		_EUSART_Read_Text		CODE           	1338	0000	32
		_EUSART_Initialize		CODE           	0809	0000	84
		_EUSART_Write_Text		CODE           	12F9	0000	31

EUSART.c estimated size: 173

I2C.c
		_Send_I2C_Data 		CODE           	1249	0000	11
		_Send_I2C_StopBit		CODE           	122A	0000	10
		_Send_I2C_StartBit		CODE           	1220	0000	10
		_I2C_Init      		CODE           	1274	0000	18

I2C.c estimated size: 49

C:\Program Files\Microchip\xc8\v2.45\pic\sources\c99\common\sprcmul.c
		___flmul       		CODE           	0367	0000	634

C:\Program Files\Microchip\xc8\v2.45\pic\sources\c99\common\sprcmul.c estimated size: 634

C:\Program Files\Microchip\xc8\v2.45\pic\sources\c99\common\sprcdiv.c
		___fldiv       		CODE           	0E56	0000	426

C:\Program Files\Microchip\xc8\v2.45\pic\sources\c99\common\sprcdiv.c estimated size: 426

C:\Program Files\Microchip\xc8\v2.45\pic\sources\c99\common\strcat.c
		_strcat        		CODE           	144C	0000	46

C:\Program Files\Microchip\xc8\v2.45\pic\sources\c99\common\strcat.c estimated size: 46

shared
		_OledFont      		STRCODE        	001F	0000	768
		i1_EUSART_Read 		CODE           	1254	0000	16
		i1_Send_I2C_Data		CODE           	123E	0000	11
		i1_Send_I2C_StopBit		CODE           	1216	0000	10
		i1_server_Initialize		CODE           	0998	0000	175
		i1_OLED_YX     		CODE           	139F	0000	41
		i1_EUSART_Write		CODE           	1202	0000	10
		i1_OLED_Clear  		CODE           	13C8	0000	43
		i1_OLED_Write_String		CODE           	07E9	0000	23
		__initialization		CODE           	0013	0000	8
		i1_OLED_Command		CODE           	12DA	0000	31
		i1_OLED_PutChar		CODE           	1649	0000	108
		i1_EUSART_Write_Text		CODE           	129F	0000	29
		i1_memmove     		CODE           	1573	0000	107
		i1_Send_I2C_StartBit		CODE           	120C	0000	10
		i1_EUSART_Read_Text		CODE           	12BC	0000	30

shared estimated size: 1420

C:\Program Files\Microchip\xc8\v2.45\pic\sources\c99\common\xxtofl.c
		___xxtofl      		CODE           	08ED	0000	171

C:\Program Files\Microchip\xc8\v2.45\pic\sources\c99\common\xxtofl.c estimated size: 171

PIC16F1719_Internal.c
		_internal_16   		CODE           	0800	0000	9

PIC16F1719_Internal.c estimated size: 9

C:\Program Files\Microchip\xc8\v2.45\pic\sources\c99\common\memmove.c
		_memmove       		CODE           	16B5	0000	108

C:\Program Files\Microchip\xc8\v2.45\pic\sources\c99\common\memmove.c estimated size: 108

C:\Program Files\Microchip\xc8\v2.45\pic\sources\c99\common\Umul8_16.c
		__Umul8_16     		CODE           	137B	0000	36

C:\Program Files\Microchip\xc8\v2.45\pic\sources\c99\common\Umul8_16.c estimated size: 36

oled.c
		_OLED_Clear    		CODE           	141F	0000	45
		_c_itoa        		CODE           	0A47	0000	189
		_OLED_Command  		CODE           	1358	0000	35
		_OLED_Write_String		CODE           	1286	0000	25
		_OLED_Init     		CODE           	150E	0000	101
		_OLED_Write_Integer		CODE           	147A	0000	52
		_OLED_PutChar  		CODE           	1721	0000	110
		_OLED_YX       		CODE           	13F3	0000	44

oled.c estimated size: 601

C:\Program Files\Microchip\xc8\v2.45\pic\sources\c99\common\sprcadd.c
		___fladd       		CODE           	05E1	0000	520

C:\Program Files\Microchip\xc8\v2.45\pic\sources\c99\common\sprcadd.c estimated size: 520

main.c
		_main          		CODE           	0CBC	0000	410
		_isr           		CODE           	0004	0000	13
		_Read_Temperature		CODE           	0BC5	0000	247
		_server_Initialize		CODE           	0B04	0000	193
		_initMain      		CODE           	15DE	0000	107

main.c estimated size: 970

C:\Program Files\Microchip\xc8\v2.45\pic\sources\c99\common\awdiv.c
		___awdiv       		CODE           	14AE	0000	96

C:\Program Files\Microchip\xc8\v2.45\pic\sources\c99\common\awdiv.c estimated size: 96

C:\Program Files\Microchip\xc8\v2.45\pic\sources\c99\common\fltol.c
		___fltol       		CODE           	178F	0000	113

C:\Program Files\Microchip\xc8\v2.45\pic\sources\c99\common\fltol.c estimated size: 113

