

Microchip MPLAB XC8 Assembler V2.45 build 20230818022343 
                                                                                               Sat Mar 30 11:21:11 2024

Microchip MPLAB XC8 C Compiler v2.45 (Free license) build 20230818022343 Og1 
     1                           	processor	16F1719
     2                           	pagewidth 120
     3                           	opt	flic
     4                           	psect	stringtext1,global,class=STRCODE,delta=2,noexec
     5                           	psect	stringtext2,global,class=STRCODE,delta=2,noexec
     6                           	psect	stringtext3,global,class=STRCODE,delta=2,noexec
     7                           	psect	stringtext4,global,class=STRCODE,delta=2,noexec
     8                           	psect	stringtext5,global,class=STRCODE,delta=2,noexec
     9                           	psect	stringtext6,global,class=STRCODE,delta=2,noexec
    10                           	psect	cinit,global,class=CODE,merge=1,delta=2
    11                           	psect	bssBANK1,global,class=BANK1,space=1,delta=1,noexec
    12                           	psect	clrtext,global,class=CODE,delta=2
    13                           	psect	cstackBANK1,global,class=BANK1,space=1,delta=1,noexec
    14                           	psect	cstackCOMMON,global,class=COMMON,space=1,delta=1,noexec
    15                           	psect	cstackBANK0,global,class=BANK0,space=1,delta=1,noexec
    16                           	psect	maintext,global,class=CODE,merge=1,split=1,delta=2
    17                           	psect	text1,local,class=CODE,merge=1,delta=2,group=2
    18                           	psect	text2,local,class=CODE,merge=1,delta=2
    19                           	psect	text3,local,class=CODE,merge=1,delta=2
    20                           	psect	text4,local,class=CODE,merge=1,delta=2
    21                           	psect	text5,local,class=CODE,merge=1,delta=2
    22                           	psect	text6,local,class=CODE,merge=1,delta=2
    23                           	psect	text7,local,class=CODE,merge=1,delta=2
    24                           	psect	text8,local,class=CODE,merge=1,delta=2,group=1
    25                           	psect	text9,local,class=CODE,merge=1,delta=2,group=1
    26                           	psect	text10,local,class=CODE,merge=1,delta=2,group=1
    27                           	psect	text11,local,class=CODE,merge=1,delta=2,group=1
    28                           	psect	text12,local,class=CODE,merge=1,delta=2,group=1
    29                           	psect	text13,local,class=CODE,merge=1,delta=2
    30                           	psect	text14,local,class=CODE,merge=1,delta=2
    31                           	psect	text15,local,class=CODE,merge=1,delta=2
    32                           	psect	text16,local,class=CODE,merge=1,delta=2,group=1
    33                           	psect	intentry,global,class=CODE,delta=2
    34                           	psect	text18,local,class=CODE,merge=1,delta=2
    35                           	psect	text19,local,class=CODE,merge=1,delta=2
    36                           	psect	text20,local,class=CODE,merge=1,delta=2
    37                           	psect	config,global,abs,ovrld,class=CONFIG,space=4,delta=2,noexec
    38                           	dabs	1,0x7E,2
    39     0000                     
    40                           ; Generated 06/07/2023 GMT
    41                           ; 
    42                           ; Copyright © 2023, Microchip Technology Inc. and its subsidiaries ("Microchip")
    43                           ; All rights reserved.
    44                           ; 
    45                           ; This software is developed by Microchip Technology Inc. and its subsidiaries ("Microch
      +                          ip").
    46                           ; 
    47                           ; Redistribution and use in source and binary forms, with or without modification, are
    48                           ; permitted provided that the following conditions are met:
    49                           ; 
    50                           ;     1. Redistributions of source code must retain the above copyright notice, this lis
      +                          t of
    51                           ;        conditions and the following disclaimer.
    52                           ; 
    53                           ;     2. Redistributions in binary form must reproduce the above copyright notice, this 
      +                          list
    54                           ;        of conditions and the following disclaimer in the documentation and/or other
    55                           ;        materials provided with the distribution. Publication is not required when
    56                           ;        this file is used in an embedded application.
    57                           ; 
    58                           ;     3. Microchip's name may not be used to endorse or promote products derived from th
      +                          is
    59                           ;        software without specific prior written permission.
    60                           ; 
    61                           ; THIS SOFTWARE IS PROVIDED BY MICROCHIP "AS IS" AND ANY EXPRESS OR IMPLIED WARRANTIES,
    62                           ; INCLUDING, BUT NOT LIMITED TO, THE IMPLIED WARRANTIES OF MERCHANTABILITY AND FITNESS F
      +                          OR
    63                           ; PURPOSE ARE DISCLAIMED.  IN NO EVENT SHALL MICROCHIP BE LIABLE FOR ANY DIRECT, INDIREC
      +                          T,
    64                           ; INCIDENTAL, SPECIAL, EXEMPLARY, OR CONSEQUENTIAL DAMAGES (INCLUDING BUT NOT LIMITED TO
    65                           ; PROCUREMENT OF SUBSTITUTE GOODS OR SERVICES; LOSS OF USE, DATA OR PROFITS; OR BUSINESS
    66                           ; INTERRUPTION) HOWSOEVER CAUSED AND ON ANY THEORY OF LIABILITY, WHETHER IN CONTRACT, ST
      +                          RICT
    67                           ; LIABILITY, OR TORT (INCLUDING NEGLIGENCE OR OTHERWISE) ARISING IN ANY WAY OUT OF THE U
      +                          SE OF
    68                           ; THIS SOFTWARE, EVEN IF ADVISED OF THE POSSIBILITY OF SUCH DAMAGE.
    69                           ; 
    70                           ; 
    71                           ; Code-generator required, PIC16F1719 Definitions
    72                           ; 
    73                           ; SFR Addresses
    74     0000                     	;# 
    75     0001                     	;# 
    76     0002                     	;# 
    77     0003                     	;# 
    78     0004                     	;# 
    79     0005                     	;# 
    80     0006                     	;# 
    81     0007                     	;# 
    82     0008                     	;# 
    83     0009                     	;# 
    84     000A                     	;# 
    85     000B                     	;# 
    86     000C                     	;# 
    87     000D                     	;# 
    88     000E                     	;# 
    89     000F                     	;# 
    90     0010                     	;# 
    91     0011                     	;# 
    92     0012                     	;# 
    93     0013                     	;# 
    94     0015                     	;# 
    95     0016                     	;# 
    96     0016                     	;# 
    97     0017                     	;# 
    98     0018                     	;# 
    99     0019                     	;# 
   100     001A                     	;# 
   101     001B                     	;# 
   102     001C                     	;# 
   103     008C                     	;# 
   104     008D                     	;# 
   105     008E                     	;# 
   106     008F                     	;# 
   107     0090                     	;# 
   108     0091                     	;# 
   109     0092                     	;# 
   110     0093                     	;# 
   111     0095                     	;# 
   112     0096                     	;# 
   113     0097                     	;# 
   114     0098                     	;# 
   115     0099                     	;# 
   116     009A                     	;# 
   117     009B                     	;# 
   118     009B                     	;# 
   119     009C                     	;# 
   120     009D                     	;# 
   121     009E                     	;# 
   122     009F                     	;# 
   123     010C                     	;# 
   124     010D                     	;# 
   125     010E                     	;# 
   126     010F                     	;# 
   127     0110                     	;# 
   128     0111                     	;# 
   129     0112                     	;# 
   130     0113                     	;# 
   131     0114                     	;# 
   132     0115                     	;# 
   133     0116                     	;# 
   134     0117                     	;# 
   135     0118                     	;# 
   136     0119                     	;# 
   137     011A                     	;# 
   138     011B                     	;# 
   139     011B                     	;# 
   140     011C                     	;# 
   141     018C                     	;# 
   142     018D                     	;# 
   143     018E                     	;# 
   144     018F                     	;# 
   145     0190                     	;# 
   146     0191                     	;# 
   147     0191                     	;# 
   148     0192                     	;# 
   149     0193                     	;# 
   150     0193                     	;# 
   151     0194                     	;# 
   152     0195                     	;# 
   153     0196                     	;# 
   154     0197                     	;# 
   155     0199                     	;# 
   156     0199                     	;# 
   157     0199                     	;# 
   158     019A                     	;# 
   159     019A                     	;# 
   160     019A                     	;# 
   161     019B                     	;# 
   162     019B                     	;# 
   163     019B                     	;# 
   164     019B                     	;# 
   165     019B                     	;# 
   166     019C                     	;# 
   167     019C                     	;# 
   168     019C                     	;# 
   169     019D                     	;# 
   170     019D                     	;# 
   171     019D                     	;# 
   172     019E                     	;# 
   173     019E                     	;# 
   174     019E                     	;# 
   175     019F                     	;# 
   176     019F                     	;# 
   177     019F                     	;# 
   178     019F                     	;# 
   179     019F                     	;# 
   180     020C                     	;# 
   181     020D                     	;# 
   182     020E                     	;# 
   183     020F                     	;# 
   184     0210                     	;# 
   185     0211                     	;# 
   186     0211                     	;# 
   187     0212                     	;# 
   188     0212                     	;# 
   189     0213                     	;# 
   190     0213                     	;# 
   191     0214                     	;# 
   192     0214                     	;# 
   193     0215                     	;# 
   194     0215                     	;# 
   195     0215                     	;# 
   196     0215                     	;# 
   197     0216                     	;# 
   198     0216                     	;# 
   199     0217                     	;# 
   200     0217                     	;# 
   201     028C                     	;# 
   202     028D                     	;# 
   203     028E                     	;# 
   204     028F                     	;# 
   205     0290                     	;# 
   206     0291                     	;# 
   207     0291                     	;# 
   208     0292                     	;# 
   209     0293                     	;# 
   210     0293                     	;# 
   211     0298                     	;# 
   212     0298                     	;# 
   213     0299                     	;# 
   214     029A                     	;# 
   215     029A                     	;# 
   216     029E                     	;# 
   217     030C                     	;# 
   218     030D                     	;# 
   219     030E                     	;# 
   220     030F                     	;# 
   221     0310                     	;# 
   222     038C                     	;# 
   223     038D                     	;# 
   224     038E                     	;# 
   225     038F                     	;# 
   226     0390                     	;# 
   227     0391                     	;# 
   228     0392                     	;# 
   229     0393                     	;# 
   230     0394                     	;# 
   231     0395                     	;# 
   232     0396                     	;# 
   233     0397                     	;# 
   234     0398                     	;# 
   235     0399                     	;# 
   236     039D                     	;# 
   237     039E                     	;# 
   238     039F                     	;# 
   239     0415                     	;# 
   240     0416                     	;# 
   241     0417                     	;# 
   242     041C                     	;# 
   243     041D                     	;# 
   244     041E                     	;# 
   245     0498                     	;# 
   246     0498                     	;# 
   247     0499                     	;# 
   248     049A                     	;# 
   249     049B                     	;# 
   250     049B                     	;# 
   251     049C                     	;# 
   252     049D                     	;# 
   253     049E                     	;# 
   254     049F                     	;# 
   255     0511                     	;# 
   256     0515                     	;# 
   257     0617                     	;# 
   258     0618                     	;# 
   259     0619                     	;# 
   260     0619                     	;# 
   261     061A                     	;# 
   262     061B                     	;# 
   263     061C                     	;# 
   264     061C                     	;# 
   265     0691                     	;# 
   266     0692                     	;# 
   267     0693                     	;# 
   268     0694                     	;# 
   269     0695                     	;# 
   270     0696                     	;# 
   271     0697                     	;# 
   272     0698                     	;# 
   273     0699                     	;# 
   274     069A                     	;# 
   275     069B                     	;# 
   276     069C                     	;# 
   277     069D                     	;# 
   278     069E                     	;# 
   279     069F                     	;# 
   280     0E0F                     	;# 
   281     0E10                     	;# 
   282     0E11                     	;# 
   283     0E12                     	;# 
   284     0E13                     	;# 
   285     0E14                     	;# 
   286     0E15                     	;# 
   287     0E17                     	;# 
   288     0E20                     	;# 
   289     0E21                     	;# 
   290     0E22                     	;# 
   291     0E24                     	;# 
   292     0E25                     	;# 
   293     0E28                     	;# 
   294     0E29                     	;# 
   295     0E2A                     	;# 
   296     0E2B                     	;# 
   297     0E90                     	;# 
   298     0E91                     	;# 
   299     0E92                     	;# 
   300     0E93                     	;# 
   301     0E94                     	;# 
   302     0E95                     	;# 
   303     0E96                     	;# 
   304     0E97                     	;# 
   305     0E98                     	;# 
   306     0E99                     	;# 
   307     0E9A                     	;# 
   308     0E9B                     	;# 
   309     0E9C                     	;# 
   310     0E9D                     	;# 
   311     0E9E                     	;# 
   312     0E9F                     	;# 
   313     0EA0                     	;# 
   314     0EA1                     	;# 
   315     0EA2                     	;# 
   316     0EA3                     	;# 
   317     0EA4                     	;# 
   318     0EA5                     	;# 
   319     0EA6                     	;# 
   320     0EA7                     	;# 
   321     0EA8                     	;# 
   322     0EA9                     	;# 
   323     0EAA                     	;# 
   324     0EAB                     	;# 
   325     0EAC                     	;# 
   326     0EAD                     	;# 
   327     0EAE                     	;# 
   328     0EAF                     	;# 
   329     0EB0                     	;# 
   330     0EB1                     	;# 
   331     0EB2                     	;# 
   332     0F0F                     	;# 
   333     0F10                     	;# 
   334     0F11                     	;# 
   335     0F12                     	;# 
   336     0F13                     	;# 
   337     0F14                     	;# 
   338     0F15                     	;# 
   339     0F16                     	;# 
   340     0F17                     	;# 
   341     0F18                     	;# 
   342     0F19                     	;# 
   343     0F1A                     	;# 
   344     0F1B                     	;# 
   345     0F1C                     	;# 
   346     0F1D                     	;# 
   347     0F1E                     	;# 
   348     0F1F                     	;# 
   349     0F20                     	;# 
   350     0F21                     	;# 
   351     0F22                     	;# 
   352     0F23                     	;# 
   353     0F24                     	;# 
   354     0F25                     	;# 
   355     0F26                     	;# 
   356     0F27                     	;# 
   357     0F28                     	;# 
   358     0F29                     	;# 
   359     0F2A                     	;# 
   360     0F2B                     	;# 
   361     0F2C                     	;# 
   362     0F2D                     	;# 
   363     0F2E                     	;# 
   364     0F2F                     	;# 
   365     0F30                     	;# 
   366     0F31                     	;# 
   367     0F32                     	;# 
   368     0F33                     	;# 
   369     0F34                     	;# 
   370     0F35                     	;# 
   371     0F36                     	;# 
   372     0F37                     	;# 
   373     0FE4                     	;# 
   374     0FE5                     	;# 
   375     0FE6                     	;# 
   376     0FE7                     	;# 
   377     0FE8                     	;# 
   378     0FE9                     	;# 
   379     0FEA                     	;# 
   380     0FEB                     	;# 
   381     0FED                     	;# 
   382     0FEE                     	;# 
   383     0FEF                     	;# 
   384     0000                     	;# 
   385     0001                     	;# 
   386     0002                     	;# 
   387     0003                     	;# 
   388     0004                     	;# 
   389     0005                     	;# 
   390     0006                     	;# 
   391     0007                     	;# 
   392     0008                     	;# 
   393     0009                     	;# 
   394     000A                     	;# 
   395     000B                     	;# 
   396     000C                     	;# 
   397     000D                     	;# 
   398     000E                     	;# 
   399     000F                     	;# 
   400     0010                     	;# 
   401     0011                     	;# 
   402     0012                     	;# 
   403     0013                     	;# 
   404     0015                     	;# 
   405     0016                     	;# 
   406     0016                     	;# 
   407     0017                     	;# 
   408     0018                     	;# 
   409     0019                     	;# 
   410     001A                     	;# 
   411     001B                     	;# 
   412     001C                     	;# 
   413     008C                     	;# 
   414     008D                     	;# 
   415     008E                     	;# 
   416     008F                     	;# 
   417     0090                     	;# 
   418     0091                     	;# 
   419     0092                     	;# 
   420     0093                     	;# 
   421     0095                     	;# 
   422     0096                     	;# 
   423     0097                     	;# 
   424     0098                     	;# 
   425     0099                     	;# 
   426     009A                     	;# 
   427     009B                     	;# 
   428     009B                     	;# 
   429     009C                     	;# 
   430     009D                     	;# 
   431     009E                     	;# 
   432     009F                     	;# 
   433     010C                     	;# 
   434     010D                     	;# 
   435     010E                     	;# 
   436     010F                     	;# 
   437     0110                     	;# 
   438     0111                     	;# 
   439     0112                     	;# 
   440     0113                     	;# 
   441     0114                     	;# 
   442     0115                     	;# 
   443     0116                     	;# 
   444     0117                     	;# 
   445     0118                     	;# 
   446     0119                     	;# 
   447     011A                     	;# 
   448     011B                     	;# 
   449     011B                     	;# 
   450     011C                     	;# 
   451     018C                     	;# 
   452     018D                     	;# 
   453     018E                     	;# 
   454     018F                     	;# 
   455     0190                     	;# 
   456     0191                     	;# 
   457     0191                     	;# 
   458     0192                     	;# 
   459     0193                     	;# 
   460     0193                     	;# 
   461     0194                     	;# 
   462     0195                     	;# 
   463     0196                     	;# 
   464     0197                     	;# 
   465     0199                     	;# 
   466     0199                     	;# 
   467     0199                     	;# 
   468     019A                     	;# 
   469     019A                     	;# 
   470     019A                     	;# 
   471     019B                     	;# 
   472     019B                     	;# 
   473     019B                     	;# 
   474     019B                     	;# 
   475     019B                     	;# 
   476     019C                     	;# 
   477     019C                     	;# 
   478     019C                     	;# 
   479     019D                     	;# 
   480     019D                     	;# 
   481     019D                     	;# 
   482     019E                     	;# 
   483     019E                     	;# 
   484     019E                     	;# 
   485     019F                     	;# 
   486     019F                     	;# 
   487     019F                     	;# 
   488     019F                     	;# 
   489     019F                     	;# 
   490     020C                     	;# 
   491     020D                     	;# 
   492     020E                     	;# 
   493     020F                     	;# 
   494     0210                     	;# 
   495     0211                     	;# 
   496     0211                     	;# 
   497     0212                     	;# 
   498     0212                     	;# 
   499     0213                     	;# 
   500     0213                     	;# 
   501     0214                     	;# 
   502     0214                     	;# 
   503     0215                     	;# 
   504     0215                     	;# 
   505     0215                     	;# 
   506     0215                     	;# 
   507     0216                     	;# 
   508     0216                     	;# 
   509     0217                     	;# 
   510     0217                     	;# 
   511     028C                     	;# 
   512     028D                     	;# 
   513     028E                     	;# 
   514     028F                     	;# 
   515     0290                     	;# 
   516     0291                     	;# 
   517     0291                     	;# 
   518     0292                     	;# 
   519     0293                     	;# 
   520     0293                     	;# 
   521     0298                     	;# 
   522     0298                     	;# 
   523     0299                     	;# 
   524     029A                     	;# 
   525     029A                     	;# 
   526     029E                     	;# 
   527     030C                     	;# 
   528     030D                     	;# 
   529     030E                     	;# 
   530     030F                     	;# 
   531     0310                     	;# 
   532     038C                     	;# 
   533     038D                     	;# 
   534     038E                     	;# 
   535     038F                     	;# 
   536     0390                     	;# 
   537     0391                     	;# 
   538     0392                     	;# 
   539     0393                     	;# 
   540     0394                     	;# 
   541     0395                     	;# 
   542     0396                     	;# 
   543     0397                     	;# 
   544     0398                     	;# 
   545     0399                     	;# 
   546     039D                     	;# 
   547     039E                     	;# 
   548     039F                     	;# 
   549     0415                     	;# 
   550     0416                     	;# 
   551     0417                     	;# 
   552     041C                     	;# 
   553     041D                     	;# 
   554     041E                     	;# 
   555     0498                     	;# 
   556     0498                     	;# 
   557     0499                     	;# 
   558     049A                     	;# 
   559     049B                     	;# 
   560     049B                     	;# 
   561     049C                     	;# 
   562     049D                     	;# 
   563     049E                     	;# 
   564     049F                     	;# 
   565     0511                     	;# 
   566     0515                     	;# 
   567     0617                     	;# 
   568     0618                     	;# 
   569     0619                     	;# 
   570     0619                     	;# 
   571     061A                     	;# 
   572     061B                     	;# 
   573     061C                     	;# 
   574     061C                     	;# 
   575     0691                     	;# 
   576     0692                     	;# 
   577     0693                     	;# 
   578     0694                     	;# 
   579     0695                     	;# 
   580     0696                     	;# 
   581     0697                     	;# 
   582     0698                     	;# 
   583     0699                     	;# 
   584     069A                     	;# 
   585     069B                     	;# 
   586     069C                     	;# 
   587     069D                     	;# 
   588     069E                     	;# 
   589     069F                     	;# 
   590     0E0F                     	;# 
   591     0E10                     	;# 
   592     0E11                     	;# 
   593     0E12                     	;# 
   594     0E13                     	;# 
   595     0E14                     	;# 
   596     0E15                     	;# 
   597     0E17                     	;# 
   598     0E20                     	;# 
   599     0E21                     	;# 
   600     0E22                     	;# 
   601     0E24                     	;# 
   602     0E25                     	;# 
   603     0E28                     	;# 
   604     0E29                     	;# 
   605     0E2A                     	;# 
   606     0E2B                     	;# 
   607     0E90                     	;# 
   608     0E91                     	;# 
   609     0E92                     	;# 
   610     0E93                     	;# 
   611     0E94                     	;# 
   612     0E95                     	;# 
   613     0E96                     	;# 
   614     0E97                     	;# 
   615     0E98                     	;# 
   616     0E99                     	;# 
   617     0E9A                     	;# 
   618     0E9B                     	;# 
   619     0E9C                     	;# 
   620     0E9D                     	;# 
   621     0E9E                     	;# 
   622     0E9F                     	;# 
   623     0EA0                     	;# 
   624     0EA1                     	;# 
   625     0EA2                     	;# 
   626     0EA3                     	;# 
   627     0EA4                     	;# 
   628     0EA5                     	;# 
   629     0EA6                     	;# 
   630     0EA7                     	;# 
   631     0EA8                     	;# 
   632     0EA9                     	;# 
   633     0EAA                     	;# 
   634     0EAB                     	;# 
   635     0EAC                     	;# 
   636     0EAD                     	;# 
   637     0EAE                     	;# 
   638     0EAF                     	;# 
   639     0EB0                     	;# 
   640     0EB1                     	;# 
   641     0EB2                     	;# 
   642     0F0F                     	;# 
   643     0F10                     	;# 
   644     0F11                     	;# 
   645     0F12                     	;# 
   646     0F13                     	;# 
   647     0F14                     	;# 
   648     0F15                     	;# 
   649     0F16                     	;# 
   650     0F17                     	;# 
   651     0F18                     	;# 
   652     0F19                     	;# 
   653     0F1A                     	;# 
   654     0F1B                     	;# 
   655     0F1C                     	;# 
   656     0F1D                     	;# 
   657     0F1E                     	;# 
   658     0F1F                     	;# 
   659     0F20                     	;# 
   660     0F21                     	;# 
   661     0F22                     	;# 
   662     0F23                     	;# 
   663     0F24                     	;# 
   664     0F25                     	;# 
   665     0F26                     	;# 
   666     0F27                     	;# 
   667     0F28                     	;# 
   668     0F29                     	;# 
   669     0F2A                     	;# 
   670     0F2B                     	;# 
   671     0F2C                     	;# 
   672     0F2D                     	;# 
   673     0F2E                     	;# 
   674     0F2F                     	;# 
   675     0F30                     	;# 
   676     0F31                     	;# 
   677     0F32                     	;# 
   678     0F33                     	;# 
   679     0F34                     	;# 
   680     0F35                     	;# 
   681     0F36                     	;# 
   682     0F37                     	;# 
   683     0FE4                     	;# 
   684     0FE5                     	;# 
   685     0FE6                     	;# 
   686     0FE7                     	;# 
   687     0FE8                     	;# 
   688     0FE9                     	;# 
   689     0FEA                     	;# 
   690     0FEB                     	;# 
   691     0FED                     	;# 
   692     0FEE                     	;# 
   693     0FEF                     	;# 
   694     0000                     	;# 
   695     0001                     	;# 
   696     0002                     	;# 
   697     0003                     	;# 
   698     0004                     	;# 
   699     0005                     	;# 
   700     0006                     	;# 
   701     0007                     	;# 
   702     0008                     	;# 
   703     0009                     	;# 
   704     000A                     	;# 
   705     000B                     	;# 
   706     000C                     	;# 
   707     000D                     	;# 
   708     000E                     	;# 
   709     000F                     	;# 
   710     0010                     	;# 
   711     0011                     	;# 
   712     0012                     	;# 
   713     0013                     	;# 
   714     0015                     	;# 
   715     0016                     	;# 
   716     0016                     	;# 
   717     0017                     	;# 
   718     0018                     	;# 
   719     0019                     	;# 
   720     001A                     	;# 
   721     001B                     	;# 
   722     001C                     	;# 
   723     008C                     	;# 
   724     008D                     	;# 
   725     008E                     	;# 
   726     008F                     	;# 
   727     0090                     	;# 
   728     0091                     	;# 
   729     0092                     	;# 
   730     0093                     	;# 
   731     0095                     	;# 
   732     0096                     	;# 
   733     0097                     	;# 
   734     0098                     	;# 
   735     0099                     	;# 
   736     009A                     	;# 
   737     009B                     	;# 
   738     009B                     	;# 
   739     009C                     	;# 
   740     009D                     	;# 
   741     009E                     	;# 
   742     009F                     	;# 
   743     010C                     	;# 
   744     010D                     	;# 
   745     010E                     	;# 
   746     010F                     	;# 
   747     0110                     	;# 
   748     0111                     	;# 
   749     0112                     	;# 
   750     0113                     	;# 
   751     0114                     	;# 
   752     0115                     	;# 
   753     0116                     	;# 
   754     0117                     	;# 
   755     0118                     	;# 
   756     0119                     	;# 
   757     011A                     	;# 
   758     011B                     	;# 
   759     011B                     	;# 
   760     011C                     	;# 
   761     018C                     	;# 
   762     018D                     	;# 
   763     018E                     	;# 
   764     018F                     	;# 
   765     0190                     	;# 
   766     0191                     	;# 
   767     0191                     	;# 
   768     0192                     	;# 
   769     0193                     	;# 
   770     0193                     	;# 
   771     0194                     	;# 
   772     0195                     	;# 
   773     0196                     	;# 
   774     0197                     	;# 
   775     0199                     	;# 
   776     0199                     	;# 
   777     0199                     	;# 
   778     019A                     	;# 
   779     019A                     	;# 
   780     019A                     	;# 
   781     019B                     	;# 
   782     019B                     	;# 
   783     019B                     	;# 
   784     019B                     	;# 
   785     019B                     	;# 
   786     019C                     	;# 
   787     019C                     	;# 
   788     019C                     	;# 
   789     019D                     	;# 
   790     019D                     	;# 
   791     019D                     	;# 
   792     019E                     	;# 
   793     019E                     	;# 
   794     019E                     	;# 
   795     019F                     	;# 
   796     019F                     	;# 
   797     019F                     	;# 
   798     019F                     	;# 
   799     019F                     	;# 
   800     020C                     	;# 
   801     020D                     	;# 
   802     020E                     	;# 
   803     020F                     	;# 
   804     0210                     	;# 
   805     0211                     	;# 
   806     0211                     	;# 
   807     0212                     	;# 
   808     0212                     	;# 
   809     0213                     	;# 
   810     0213                     	;# 
   811     0214                     	;# 
   812     0214                     	;# 
   813     0215                     	;# 
   814     0215                     	;# 
   815     0215                     	;# 
   816     0215                     	;# 
   817     0216                     	;# 
   818     0216                     	;# 
   819     0217                     	;# 
   820     0217                     	;# 
   821     028C                     	;# 
   822     028D                     	;# 
   823     028E                     	;# 
   824     028F                     	;# 
   825     0290                     	;# 
   826     0291                     	;# 
   827     0291                     	;# 
   828     0292                     	;# 
   829     0293                     	;# 
   830     0293                     	;# 
   831     0298                     	;# 
   832     0298                     	;# 
   833     0299                     	;# 
   834     029A                     	;# 
   835     029A                     	;# 
   836     029E                     	;# 
   837     030C                     	;# 
   838     030D                     	;# 
   839     030E                     	;# 
   840     030F                     	;# 
   841     0310                     	;# 
   842     038C                     	;# 
   843     038D                     	;# 
   844     038E                     	;# 
   845     038F                     	;# 
   846     0390                     	;# 
   847     0391                     	;# 
   848     0392                     	;# 
   849     0393                     	;# 
   850     0394                     	;# 
   851     0395                     	;# 
   852     0396                     	;# 
   853     0397                     	;# 
   854     0398                     	;# 
   855     0399                     	;# 
   856     039D                     	;# 
   857     039E                     	;# 
   858     039F                     	;# 
   859     0415                     	;# 
   860     0416                     	;# 
   861     0417                     	;# 
   862     041C                     	;# 
   863     041D                     	;# 
   864     041E                     	;# 
   865     0498                     	;# 
   866     0498                     	;# 
   867     0499                     	;# 
   868     049A                     	;# 
   869     049B                     	;# 
   870     049B                     	;# 
   871     049C                     	;# 
   872     049D                     	;# 
   873     049E                     	;# 
   874     049F                     	;# 
   875     0511                     	;# 
   876     0515                     	;# 
   877     0617                     	;# 
   878     0618                     	;# 
   879     0619                     	;# 
   880     0619                     	;# 
   881     061A                     	;# 
   882     061B                     	;# 
   883     061C                     	;# 
   884     061C                     	;# 
   885     0691                     	;# 
   886     0692                     	;# 
   887     0693                     	;# 
   888     0694                     	;# 
   889     0695                     	;# 
   890     0696                     	;# 
   891     0697                     	;# 
   892     0698                     	;# 
   893     0699                     	;# 
   894     069A                     	;# 
   895     069B                     	;# 
   896     069C                     	;# 
   897     069D                     	;# 
   898     069E                     	;# 
   899     069F                     	;# 
   900     0E0F                     	;# 
   901     0E10                     	;# 
   902     0E11                     	;# 
   903     0E12                     	;# 
   904     0E13                     	;# 
   905     0E14                     	;# 
   906     0E15                     	;# 
   907     0E17                     	;# 
   908     0E20                     	;# 
   909     0E21                     	;# 
   910     0E22                     	;# 
   911     0E24                     	;# 
   912     0E25                     	;# 
   913     0E28                     	;# 
   914     0E29                     	;# 
   915     0E2A                     	;# 
   916     0E2B                     	;# 
   917     0E90                     	;# 
   918     0E91                     	;# 
   919     0E92                     	;# 
   920     0E93                     	;# 
   921     0E94                     	;# 
   922     0E95                     	;# 
   923     0E96                     	;# 
   924     0E97                     	;# 
   925     0E98                     	;# 
   926     0E99                     	;# 
   927     0E9A                     	;# 
   928     0E9B                     	;# 
   929     0E9C                     	;# 
   930     0E9D                     	;# 
   931     0E9E                     	;# 
   932     0E9F                     	;# 
   933     0EA0                     	;# 
   934     0EA1                     	;# 
   935     0EA2                     	;# 
   936     0EA3                     	;# 
   937     0EA4                     	;# 
   938     0EA5                     	;# 
   939     0EA6                     	;# 
   940     0EA7                     	;# 
   941     0EA8                     	;# 
   942     0EA9                     	;# 
   943     0EAA                     	;# 
   944     0EAB                     	;# 
   945     0EAC                     	;# 
   946     0EAD                     	;# 
   947     0EAE                     	;# 
   948     0EAF                     	;# 
   949     0EB0                     	;# 
   950     0EB1                     	;# 
   951     0EB2                     	;# 
   952     0F0F                     	;# 
   953     0F10                     	;# 
   954     0F11                     	;# 
   955     0F12                     	;# 
   956     0F13                     	;# 
   957     0F14                     	;# 
   958     0F15                     	;# 
   959     0F16                     	;# 
   960     0F17                     	;# 
   961     0F18                     	;# 
   962     0F19                     	;# 
   963     0F1A                     	;# 
   964     0F1B                     	;# 
   965     0F1C                     	;# 
   966     0F1D                     	;# 
   967     0F1E                     	;# 
   968     0F1F                     	;# 
   969     0F20                     	;# 
   970     0F21                     	;# 
   971     0F22                     	;# 
   972     0F23                     	;# 
   973     0F24                     	;# 
   974     0F25                     	;# 
   975     0F26                     	;# 
   976     0F27                     	;# 
   977     0F28                     	;# 
   978     0F29                     	;# 
   979     0F2A                     	;# 
   980     0F2B                     	;# 
   981     0F2C                     	;# 
   982     0F2D                     	;# 
   983     0F2E                     	;# 
   984     0F2F                     	;# 
   985     0F30                     	;# 
   986     0F31                     	;# 
   987     0F32                     	;# 
   988     0F33                     	;# 
   989     0F34                     	;# 
   990     0F35                     	;# 
   991     0F36                     	;# 
   992     0F37                     	;# 
   993     0FE4                     	;# 
   994     0FE5                     	;# 
   995     0FE6                     	;# 
   996     0FE7                     	;# 
   997     0FE8                     	;# 
   998     0FE9                     	;# 
   999     0FEA                     	;# 
  1000     0FEB                     	;# 
  1001     0FED                     	;# 
  1002     0FEE                     	;# 
  1003     0FEF                     	;# 
  1004     0011                     _PIR1bits	set	17
  1005     000B                     _INTCONbits	set	11
  1006     009B                     _ADRESL	set	155
  1007     009C                     _ADRESH	set	156
  1008     009D                     _ADCON0bits	set	157
  1009     0095                     _OPTION_REGbits	set	149
  1010     008F                     _TRISDbits	set	143
  1011     0097                     _WDTCONbits	set	151
  1012     008D                     _TRISBbits	set	141
  1013     008E                     _TRISCbits	set	142
  1014     04CF                     _SPLLEN	set	1231
  1015     04CE                     _IRCF3	set	1230
  1016     04CD                     _IRCF2	set	1229
  1017     04CC                     _IRCF1	set	1228
  1018     04CB                     _IRCF0	set	1227
  1019     04C9                     _SCS1	set	1225
  1020     04C8                     _SCS0	set	1224
  1021     019A                     _TX1REG	set	410
  1022     0199                     _RC1REG	set	409
  1023     019B                     _SPBRGL	set	411
  1024     019D                     _RC1STAbits	set	413
  1025     018F                     _ANSELDbits	set	399
  1026     018D                     _ANSELBbits	set	397
  1027     018E                     _ANSELCbits	set	398
  1028     0CF5                     _TXEN	set	3317
  1029     0CEC                     _CREN	set	3308
  1030     0CEF                     _SPEN	set	3311
  1031     0CF4                     _SYNC	set	3316
  1032     0CFB                     _BRG16	set	3323
  1033     0CF2                     _BRGH	set	3314
  1034     0E10                     _INTPPSbits	set	3600
  1035     0E24                     _RXPPSbits	set	3620
  1036     0E0F                     _PPSLOCKbits	set	3599
  1037     0E0F                     _PPSLOCK	set	3599
  1038     0E9A                     _RB2PPSbits	set	3738
  1039                           
  1040                           	psect	stringtext1
  1041     1000                     __pstringtext1:
  1042     1000                     STR_6:
  1043     1000  3441               	retlw	65	;'A'
  1044     1001  3454               	retlw	84	;'T'
  1045     1002  342B               	retlw	43	;'+'
  1046     1003  3443               	retlw	67	;'C'
  1047     1004  3449               	retlw	73	;'I'
  1048     1005  3450               	retlw	80	;'P'
  1049     1006  3453               	retlw	83	;'S'
  1050     1007  3445               	retlw	69	;'E'
  1051     1008  3452               	retlw	82	;'R'
  1052     1009  3456               	retlw	86	;'V'
  1053     100A  3445               	retlw	69	;'E'
  1054     100B  3452               	retlw	82	;'R'
  1055     100C  343D               	retlw	61	;'='
  1056     100D  3431               	retlw	49	;'1'
  1057     100E  342C               	retlw	44	;','
  1058     100F  3438               	retlw	56	;'8'
  1059     1010  3430               	retlw	48	;'0'
  1060     1011  340D               	retlw	13
  1061     1012  340A               	retlw	10
  1062     1013  3400               	retlw	0
  1063                           
  1064                           	psect	stringtext2
  1065     1014                     __pstringtext2:
  1066     1014                     STR_2:
  1067     1014  3441               	retlw	65	;'A'
  1068     1015  3454               	retlw	84	;'T'
  1069     1016  342B               	retlw	43	;'+'
  1070     1017  3443               	retlw	67	;'C'
  1071     1018  3449               	retlw	73	;'I'
  1072     1019  3450               	retlw	80	;'P'
  1073     101A  3453               	retlw	83	;'S'
  1074     101B  3445               	retlw	69	;'E'
  1075     101C  344E               	retlw	78	;'N'
  1076     101D  3444               	retlw	68	;'D'
  1077     101E  343D               	retlw	61	;'='
  1078     101F  3430               	retlw	48	;'0'
  1079     1020  342C               	retlw	44	;','
  1080     1021  3432               	retlw	50	;'2'
  1081     1022  340D               	retlw	13
  1082     1023  340A               	retlw	10
  1083     1024  3400               	retlw	0
  1084                           
  1085                           	psect	stringtext3
  1086     1025                     __pstringtext3:
  1087     1025                     STR_3:
  1088     1025  3441               	retlw	65	;'A'
  1089     1026  3454               	retlw	84	;'T'
  1090     1027  342B               	retlw	43	;'+'
  1091     1028  3443               	retlw	67	;'C'
  1092     1029  3449               	retlw	73	;'I'
  1093     102A  3450               	retlw	80	;'P'
  1094     102B  3443               	retlw	67	;'C'
  1095     102C  344C               	retlw	76	;'L'
  1096     102D  344F               	retlw	79	;'O'
  1097     102E  3453               	retlw	83	;'S'
  1098     102F  3445               	retlw	69	;'E'
  1099     1030  343D               	retlw	61	;'='
  1100     1031  3430               	retlw	48	;'0'
  1101     1032  340D               	retlw	13
  1102     1033  340A               	retlw	10
  1103     1034  3400               	retlw	0
  1104                           
  1105                           	psect	stringtext4
  1106     1035                     __pstringtext4:
  1107     1035                     STR_5:
  1108     1035  3441               	retlw	65	;'A'
  1109     1036  3454               	retlw	84	;'T'
  1110     1037  342B               	retlw	43	;'+'
  1111     1038  3443               	retlw	67	;'C'
  1112     1039  3449               	retlw	73	;'I'
  1113     103A  3450               	retlw	80	;'P'
  1114     103B  344D               	retlw	77	;'M'
  1115     103C  3455               	retlw	85	;'U'
  1116     103D  3458               	retlw	88	;'X'
  1117     103E  343D               	retlw	61	;'='
  1118     103F  3430               	retlw	48	;'0'
  1119     1040  340D               	retlw	13
  1120     1041  340A               	retlw	10
  1121     1042  3400               	retlw	0
  1122                           
  1123                           	psect	stringtext5
  1124     1043                     __pstringtext5:
  1125     1043                     STR_4:
  1126     1043  3441               	retlw	65	;'A'
  1127     1044  3454               	retlw	84	;'T'
  1128     1045  340D               	retlw	13
  1129     1046  340A               	retlw	10
  1130     1047  3400               	retlw	0
  1131                           
  1132                           	psect	stringtext6
  1133     0000                     __pstringtext6:
  1134     1011                     
  1135                           	psect	cinit
  1136     0013                     start_initialization:	
  1137                           ; #config settings
  1138                           
  1139     0013                     __initialization:
  1140                           
  1141                           ; Clear objects allocated to BANK1
  1142     0013  30A0               	movlw	low __pbssBANK1
  1143     0014  0084               	movwf	4
  1144     0015  3000               	movlw	high __pbssBANK1
  1145     0016  0085               	movwf	5
  1146     0017  3032               	movlw	50
  1147     0018  318D  2584  3180   	fcall	clear_ram0
  1148     001B                     end_of_initialization:	
  1149                           ;End of C runtime variable initialization code
  1150                           
  1151     001B                     __end_of__initialization:
  1152     001B  107E               	bcf	int$flags,0	;clear compiler interrupt flag (level 1)
  1153     001C  0020               	movlb	0
  1154     001D  318F  2F00         	ljmp	_main	;jump to C main() function
  1155                           
  1156                           	psect	bssBANK1
  1157     00A0                     __pbssBANK1:
  1158     00A0                     _buf:
  1159     00A0                     	ds	50
  1160                           
  1161                           	psect	clrtext
  1162     0D84                     clear_ram0:	
  1163                           ;	Called with FSR0 containing the base address, and
  1164                           ;	WREG with the size to clear
  1165                           
  1166     0D84  0064               	clrwdt	;clear the watchdog before getting into this loop
  1167     0D85                     clrloop0:
  1168     0D85  0180               	clrf	0	;clear RAM location pointed to by FSR
  1169     0D86  3101               	addfsr 0,1
  1170     0D87  0B89               	decfsz	9,f	;Have we reached the end of clearing yet?
  1171     0D88  2D85               	goto	clrloop0	;have we reached the end yet?
  1172     0D89  3400               	retlw	0	;all done for this memory range, return
  1173                           
  1174                           	psect	cstackBANK1
  1175     00D2                     __pcstackBANK1:
  1176     00D2                     ??_Read_Temperature:
  1177                           
  1178                           ; 1 bytes @ 0x0
  1179     00D2                     	ds	5
  1180     00D7                     Read_Temperature@conversion10:
  1181                           
  1182                           ; 4 bytes @ 0x5
  1183     00D7                     	ds	4
  1184     00DB                     Read_Temperature@farenheit:
  1185                           
  1186                           ; 4 bytes @ 0x9
  1187     00DB                     	ds	4
  1188     00DF                     Read_Temperature@celsius:
  1189                           
  1190                           ; 4 bytes @ 0xD
  1191     00DF                     	ds	4
  1192     00E3                     Read_Temperature@result:
  1193                           
  1194                           ; 4 bytes @ 0x11
  1195     00E3                     	ds	4
  1196                           
  1197                           	psect	cstackCOMMON
  1198     0070                     __pcstackCOMMON:
  1199     0070                     ?_server_Initialize:
  1200     0070                     ?_internal_16:	
  1201                           ; 1 bytes @ 0x0
  1202                           
  1203     0070                     ?_initMain:	
  1204                           ; 1 bytes @ 0x0
  1205                           
  1206     0070                     ?_main:	
  1207                           ; 1 bytes @ 0x0
  1208                           
  1209     0070                     ?_isr:	
  1210                           ; 1 bytes @ 0x0
  1211                           
  1212     0070                     ?_EUSART_Read:	
  1213                           ; 1 bytes @ 0x0
  1214                           
  1215     0070                     ?_EUSART_Write:	
  1216                           ; 1 bytes @ 0x0
  1217                           
  1218     0070                     ?i1_server_Initialize:	
  1219                           ; 1 bytes @ 0x0
  1220                           
  1221     0070                     ?i1_EUSART_Write:	
  1222                           ; 1 bytes @ 0x0
  1223                           
  1224     0070                     ??i1_EUSART_Write:	
  1225                           ; 1 bytes @ 0x0
  1226                           
  1227     0070                     i1EUSART_Write@txData:	
  1228                           ; 1 bytes @ 0x0
  1229                           
  1230                           
  1231                           ; 1 bytes @ 0x0
  1232     0070                     	ds	1
  1233     0071                     ?i1_EUSART_Write_Text:
  1234     0071                     i1EUSART_Write_Text@text:	
  1235                           ; 1 bytes @ 0x1
  1236                           
  1237                           
  1238                           ; 2 bytes @ 0x1
  1239     0071                     	ds	2
  1240     0073                     ??i1_EUSART_Write_Text:
  1241                           
  1242                           ; 1 bytes @ 0x3
  1243     0073                     	ds	1
  1244     0074                     i1EUSART_Write_Text@i:
  1245                           
  1246                           ; 2 bytes @ 0x4
  1247     0074                     	ds	2
  1248     0076                     ??_strcat:
  1249     0076                     ?_EUSART_Read_Text:	
  1250                           ; 1 bytes @ 0x6
  1251                           
  1252     0076                     ??_internal_16:	
  1253                           ; 1 bytes @ 0x6
  1254                           
  1255     0076                     ??_initMain:	
  1256                           ; 1 bytes @ 0x6
  1257                           
  1258     0076                     ??_isr:	
  1259                           ; 1 bytes @ 0x6
  1260                           
  1261     0076                     ??_EUSART_Read:	
  1262                           ; 1 bytes @ 0x6
  1263                           
  1264     0076                     ??_EUSART_Write:	
  1265                           ; 1 bytes @ 0x6
  1266                           
  1267     0076                     ??___aldiv:	
  1268                           ; 1 bytes @ 0x6
  1269                           
  1270     0076                     ??i1_server_Initialize:	
  1271                           ; 1 bytes @ 0x6
  1272                           
  1273     0076                     ?__Umul8_16:	
  1274                           ; 1 bytes @ 0x6
  1275                           
  1276     0076                     EUSART_Write@txData:	
  1277                           ; 2 bytes @ 0x6
  1278                           
  1279     0076                     __Umul8_16@multiplicand:	
  1280                           ; 1 bytes @ 0x6
  1281                           
  1282     0076                     EUSART_Read_Text@length:	
  1283                           ; 1 bytes @ 0x6
  1284                           
  1285     0076                     strcat@i:	
  1286                           ; 2 bytes @ 0x6
  1287                           
  1288                           
  1289                           ; 2 bytes @ 0x6
  1290     0076                     	ds	1
  1291     0077                     ??_EUSART_Write_Text:
  1292                           
  1293                           ; 1 bytes @ 0x7
  1294     0077                     	ds	1
  1295     0078                     ??_server_Initialize:
  1296                           
  1297                           	psect	cstackBANK0
  1298     0020                     __pcstackBANK0:	
  1299                           ; 1 bytes @ 0x8
  1300                           
  1301     0020                     ??_EUSART_Read_Text:
  1302     0020                     ?_EUSART_Write_Text:	
  1303                           ; 1 bytes @ 0x0
  1304                           
  1305     0020                     ??__Umul8_16:	
  1306                           ; 1 bytes @ 0x0
  1307                           
  1308     0020                     ?_strcat:	
  1309                           ; 1 bytes @ 0x0
  1310                           
  1311     0020                     ?___aldiv:	
  1312                           ; 2 bytes @ 0x0
  1313                           
  1314     0020                     ?___fladd:	
  1315                           ; 4 bytes @ 0x0
  1316                           
  1317     0020                     ?___xxtofl:	
  1318                           ; 4 bytes @ 0x0
  1319                           
  1320     0020                     EUSART_Write_Text@text:	
  1321                           ; 4 bytes @ 0x0
  1322                           
  1323     0020                     strcat@dest:	
  1324                           ; 2 bytes @ 0x0
  1325                           
  1326     0020                     ___aldiv@divisor:	
  1327                           ; 2 bytes @ 0x0
  1328                           
  1329     0020                     ___fladd@b:	
  1330                           ; 4 bytes @ 0x0
  1331                           
  1332     0020                     ___xxtofl@val:	
  1333                           ; 4 bytes @ 0x0
  1334                           
  1335                           
  1336                           ; 4 bytes @ 0x0
  1337     0020                     	ds	1
  1338     0021                     EUSART_Read_Text@Output:
  1339                           
  1340                           ; 1 bytes @ 0x1
  1341     0021                     	ds	1
  1342     0022                     EUSART_Read_Text@i_534:
  1343     0022                     EUSART_Write_Text@i:	
  1344                           ; 2 bytes @ 0x2
  1345                           
  1346     0022                     __Umul8_16@product:	
  1347                           ; 2 bytes @ 0x2
  1348                           
  1349     0022                     strcat@src:	
  1350                           ; 2 bytes @ 0x2
  1351                           
  1352                           
  1353                           ; 2 bytes @ 0x2
  1354     0022                     	ds	2
  1355     0024                     ??___xxtofl:
  1356     0024                     __Umul8_16@word_mpld:	
  1357                           ; 1 bytes @ 0x4
  1358                           
  1359     0024                     ___aldiv@dividend:	
  1360                           ; 2 bytes @ 0x4
  1361                           
  1362     0024                     ___fladd@a:	
  1363                           ; 4 bytes @ 0x4
  1364                           
  1365                           
  1366                           ; 4 bytes @ 0x4
  1367     0024                     	ds	2
  1368     0026                     __Umul8_16@multiplier:
  1369                           
  1370                           ; 1 bytes @ 0x6
  1371     0026                     	ds	2
  1372     0028                     ??___fladd:
  1373     0028                     ___aldiv@counter:	
  1374                           ; 1 bytes @ 0x8
  1375                           
  1376     0028                     ___xxtofl@sign:	
  1377                           ; 1 bytes @ 0x8
  1378                           
  1379                           
  1380                           ; 1 bytes @ 0x8
  1381     0028                     	ds	1
  1382     0029                     ___aldiv@sign:
  1383     0029                     ___xxtofl@exp:	
  1384                           ; 1 bytes @ 0x9
  1385                           
  1386                           
  1387                           ; 1 bytes @ 0x9
  1388     0029                     	ds	1
  1389     002A                     ___aldiv@quotient:
  1390     002A                     ___xxtofl@arg:	
  1391                           ; 4 bytes @ 0xA
  1392                           
  1393                           
  1394                           ; 4 bytes @ 0xA
  1395     002A                     	ds	4
  1396     002E                     ?_EUSART_Initialize:
  1397     002E                     EUSART_Initialize@baudrate:	
  1398                           ; 1 bytes @ 0xE
  1399                           
  1400                           
  1401                           ; 4 bytes @ 0xE
  1402     002E                     	ds	2
  1403     0030                     ___fladd@signs:
  1404                           
  1405                           ; 1 bytes @ 0x10
  1406     0030                     	ds	1
  1407     0031                     ___fladd@aexp:
  1408                           
  1409                           ; 1 bytes @ 0x11
  1410     0031                     	ds	1
  1411     0032                     ??_EUSART_Initialize:
  1412     0032                     ___fladd@bexp:	
  1413                           ; 1 bytes @ 0x12
  1414                           
  1415                           
  1416                           ; 1 bytes @ 0x12
  1417     0032                     	ds	1
  1418     0033                     ___fladd@grs:
  1419                           
  1420                           ; 1 bytes @ 0x13
  1421     0033                     	ds	1
  1422     0034                     ?___flmul:
  1423     0034                     ___flmul@b:	
  1424                           ; 4 bytes @ 0x14
  1425                           
  1426                           
  1427                           ; 4 bytes @ 0x14
  1428     0034                     	ds	4
  1429     0038                     ___flmul@a:
  1430                           
  1431                           ; 4 bytes @ 0x18
  1432     0038                     	ds	4
  1433     003C                     ??___flmul:
  1434                           
  1435                           ; 1 bytes @ 0x1C
  1436     003C                     	ds	2
  1437     003E                     EUSART_Initialize@x:
  1438                           
  1439                           ; 2 bytes @ 0x1E
  1440     003E                     	ds	3
  1441     0041                     ___flmul@sign:
  1442                           
  1443                           ; 1 bytes @ 0x21
  1444     0041                     	ds	1
  1445     0042                     ___flmul@grs:
  1446                           
  1447                           ; 4 bytes @ 0x22
  1448     0042                     	ds	4
  1449     0046                     ___flmul@aexp:
  1450                           
  1451                           ; 1 bytes @ 0x26
  1452     0046                     	ds	1
  1453     0047                     ___flmul@bexp:
  1454                           
  1455                           ; 1 bytes @ 0x27
  1456     0047                     	ds	1
  1457     0048                     ___flmul@prod:
  1458                           
  1459                           ; 4 bytes @ 0x28
  1460     0048                     	ds	4
  1461     004C                     ___flmul@temp:
  1462                           
  1463                           ; 2 bytes @ 0x2C
  1464     004C                     	ds	2
  1465     004E                     ?___fldiv:
  1466     004E                     ___fldiv@a:	
  1467                           ; 4 bytes @ 0x2E
  1468                           
  1469                           
  1470                           ; 4 bytes @ 0x2E
  1471     004E                     	ds	4
  1472     0052                     ___fldiv@b:
  1473                           
  1474                           ; 4 bytes @ 0x32
  1475     0052                     	ds	4
  1476     0056                     ??___fldiv:
  1477                           
  1478                           ; 1 bytes @ 0x36
  1479     0056                     	ds	5
  1480     005B                     ___fldiv@rem:
  1481                           
  1482                           ; 4 bytes @ 0x3B
  1483     005B                     	ds	4
  1484     005F                     ___fldiv@sign:
  1485                           
  1486                           ; 1 bytes @ 0x3F
  1487     005F                     	ds	1
  1488     0060                     ___fldiv@new_exp:
  1489                           
  1490                           ; 2 bytes @ 0x40
  1491     0060                     	ds	2
  1492     0062                     ___fldiv@grs:
  1493                           
  1494                           ; 4 bytes @ 0x42
  1495     0062                     	ds	4
  1496     0066                     ___fldiv@bexp:
  1497                           
  1498                           ; 1 bytes @ 0x46
  1499     0066                     	ds	1
  1500     0067                     ___fldiv@aexp:
  1501                           
  1502                           ; 1 bytes @ 0x47
  1503     0067                     	ds	1
  1504     0068                     ?_Read_Temperature:
  1505                           
  1506                           ; 4 bytes @ 0x48
  1507     0068                     	ds	4
  1508     006C                     ??_main:
  1509                           
  1510                           ; 1 bytes @ 0x4C
  1511     006C                     	ds	2
  1512                           
  1513                           	psect	maintext
  1514     0F00                     __pmaintext:	
  1515 ;;
  1516 ;;Main: autosize = 0, tempsize = 2, incstack = 0, save=0
  1517 ;;
  1518 ;; *************** function _main *****************
  1519 ;; Defined at:
  1520 ;;		line 160 in file "main.c"
  1521 ;; Parameters:    Size  Location     Type
  1522 ;;		None
  1523 ;; Auto vars:     Size  Location     Type
  1524 ;;  buff11          2    0        PTR unsigned char 
  1525 ;;		 -> RAM(4096), 
  1526 ;;  status          2    0        int 
  1527 ;;  temp            4    0        float 
  1528 ;; Return value:  Size  Location     Type
  1529 ;;                  1    wreg      void 
  1530 ;; Registers used:
  1531 ;;		wreg, fsr0l, fsr0h, fsr1l, fsr1h, status,2, status,0, pclath, cstack
  1532 ;; Tracked objects:
  1533 ;;		On entry : B1F/0
  1534 ;;		On exit  : 0/0
  1535 ;;		Unchanged: 0/0
  1536 ;; Data sizes:     COMMON   BANK0   BANK1   BANK2   BANK3   BANK4   BANK5   BANK6   BANK7   BANK8   BANK9  BANK10  BANK1
      +1  BANK12  BANK13  BANK14  BANK15  BANK16  BANK17  BANK18  BANK19  BANK20  BANK21  BANK22  BANK23  BANK24  BANK25
  1537 ;;      Params:         0       0       0       0       0       0       0       0       0       0       0       0       
      +0       0       0       0       0       0       0       0       0       0       0       0       0       0       0
  1538 ;;      Locals:         0       0       0       0       0       0       0       0       0       0       0       0       
      +0       0       0       0       0       0       0       0       0       0       0       0       0       0       0
  1539 ;;      Temps:          0       2       0       0       0       0       0       0       0       0       0       0       
      +0       0       0       0       0       0       0       0       0       0       0       0       0       0       0
  1540 ;;      Totals:         0       2       0       0       0       0       0       0       0       0       0       0       
      +0       0       0       0       0       0       0       0       0       0       0       0       0       0       0
  1541 ;;Total ram usage:        2 bytes
  1542 ;; Hardware stack levels required when called: 7
  1543 ;; This function calls:
  1544 ;;		_EUSART_Initialize
  1545 ;;		_EUSART_Read_Text
  1546 ;;		_EUSART_Write_Text
  1547 ;;		_Read_Temperature
  1548 ;;		_initMain
  1549 ;;		_server_Initialize
  1550 ;;		_strcat
  1551 ;; This function is called by:
  1552 ;;		Startup code after reset
  1553 ;; This function uses a non-reentrant model
  1554 ;;
  1555                           
  1556     0F00                     _main:	
  1557                           ;psect for function _main
  1558                           
  1559     0F00                     l2255:	
  1560                           ;incstack = 0
  1561                           ; Regs used in _main: [wreg-fsr1h+status,2+status,0+pclath+cstack]
  1562                           
  1563                           
  1564                           ;main.c: 161:     initMain();
  1565     0F00  318E  2667  318F   	fcall	_initMain
  1566     0F03  0064               	clrwdt	;# 
  1567                           
  1568                           ;main.c: 166:     EUSART_Initialize(9600);
  1569     0F04  3000               	movlw	0
  1570     0F05  0020               	movlb	0	; select bank0
  1571     0F06  00B1               	movwf	EUSART_Initialize@baudrate+3
  1572     0F07  3000               	movlw	0
  1573     0F08  00B0               	movwf	EUSART_Initialize@baudrate+2
  1574     0F09  3025               	movlw	37
  1575     0F0A  00AF               	movwf	EUSART_Initialize@baudrate+1
  1576     0F0B  3080               	movlw	128
  1577     0F0C  00AE               	movwf	EUSART_Initialize@baudrate
  1578     0F0D  318E  26AF  318F   	fcall	_EUSART_Initialize
  1579     0F10                     l2257:
  1580                           
  1581                           ;main.c: 169:     _delay((unsigned long)((2000)*(32000000/4000.0)));
  1582     0F10  3052               	movlw	82
  1583     0F11  0020               	movlb	0	; select bank0
  1584     0F12  00ED               	movwf	??_main+1
  1585     0F13  302B               	movlw	43
  1586     0F14  00EC               	movwf	??_main
  1587     0F15  3000               	movlw	0
  1588     0F16                     u2807:
  1589     0F16  0B89               	decfsz	9,f
  1590     0F17  2F16               	goto	u2807
  1591     0F18  0BEC               	decfsz	??_main,f
  1592     0F19  2F16               	goto	u2807
  1593     0F1A  0BED               	decfsz	??_main+1,f
  1594     0F1B  2F16               	goto	u2807
  1595     0F1C  0000               	nop
  1596     0F1D  0064               	clrwdt	;# 
  1597     0F1E                     l2259:
  1598                           
  1599                           ;main.c: 174:     server_Initialize();
  1600     0F1E  318E  2621  318F   	fcall	_server_Initialize
  1601     0F21                     l2261:
  1602     0F21  3186  260C  318F   	fcall	_Read_Temperature
  1603     0F24                     l2263:
  1604     0F24                     l2265:
  1605                           
  1606                           ;main.c: 197:          strcat(buff11, "\r\n");
  1607     0F24  300A               	movlw	10
  1608     0F25  0020               	movlb	0	; select bank0
  1609     0F26  00A0               	movwf	strcat@dest
  1610     0F27  3000               	movlw	0
  1611     0F28  00A1               	movwf	strcat@dest+1
  1612     0F29  3011               	movlw	low ((STR_6+17)| (0+32768))
  1613     0F2A  00A2               	movwf	strcat@src
  1614     0F2B  3090               	movlw	high ((STR_6+17)| (0+32768))
  1615     0F2C  00A3               	movwf	strcat@src+1
  1616     0F2D  3187  27BE  318F   	fcall	_strcat
  1617     0F30                     l2267:
  1618                           
  1619                           ;main.c: 202:          EUSART_Read_Text(buf, 20);
  1620     0F30  3014               	movlw	20
  1621     0F31  00F6               	movwf	EUSART_Read_Text@length
  1622     0F32  3000               	movlw	0
  1623     0F33  00F7               	movwf	EUSART_Read_Text@length+1
  1624     0F34  30A0               	movlw	(low (_buf| 0))& (0+255)
  1625     0F35  318D  25E3  318F   	fcall	_EUSART_Read_Text
  1626     0F38                     l2269:
  1627                           
  1628                           ;main.c: 210:          EUSART_Write_Text("AT+CIPSEND=0,2\r\n");
  1629     0F38  3014               	movlw	low (STR_2| (0+32768))
  1630     0F39  0020               	movlb	0	; select bank0
  1631     0F3A  00A0               	movwf	EUSART_Write_Text@text
  1632     0F3B  3090               	movlw	high (STR_2| (0+32768))
  1633     0F3C  00A1               	movwf	EUSART_Write_Text@text+1
  1634     0F3D  318E  2602  318F   	fcall	_EUSART_Write_Text
  1635     0F40                     l2271:
  1636                           
  1637                           ;main.c: 211:         _delay((unsigned long)((5000)*(32000000/4000.0)));
  1638     0F40  30CB               	movlw	203
  1639     0F41  0020               	movlb	0	; select bank0
  1640     0F42  00ED               	movwf	??_main+1
  1641     0F43  30EC               	movlw	236
  1642     0F44  00EC               	movwf	??_main
  1643     0F45  3084               	movlw	132
  1644     0F46                     u2817:
  1645     0F46  0B89               	decfsz	9,f
  1646     0F47  2F46               	goto	u2817
  1647     0F48  0BEC               	decfsz	??_main,f
  1648     0F49  2F46               	goto	u2817
  1649     0F4A  0BED               	decfsz	??_main+1,f
  1650     0F4B  2F46               	goto	u2817
  1651     0F4C  0000               	nop
  1652     0F4D                     l2273:
  1653                           
  1654                           ;main.c: 213:          EUSART_Write_Text(buff11);
  1655     0F4D  300A               	movlw	10
  1656     0F4E  0020               	movlb	0	; select bank0
  1657     0F4F  00A0               	movwf	EUSART_Write_Text@text
  1658     0F50  3000               	movlw	0
  1659     0F51  00A1               	movwf	EUSART_Write_Text@text+1
  1660     0F52  318E  2602  318F   	fcall	_EUSART_Write_Text
  1661     0F55                     l2275:
  1662                           
  1663                           ;main.c: 219:          EUSART_Write_Text("AT+CIPCLOSE=0\r\n");
  1664     0F55  3025               	movlw	low (STR_3| (0+32768))
  1665     0F56  0020               	movlb	0	; select bank0
  1666     0F57  00A0               	movwf	EUSART_Write_Text@text
  1667     0F58  3090               	movlw	high (STR_3| (0+32768))
  1668     0F59  00A1               	movwf	EUSART_Write_Text@text+1
  1669     0F5A  318E  2602  318F   	fcall	_EUSART_Write_Text
  1670     0F5D                     l2277:
  1671                           
  1672                           ;main.c: 220:          _delay((unsigned long)((1000)*(32000000/4000.0)));
  1673     0F5D  3029               	movlw	41
  1674     0F5E  0020               	movlb	0	; select bank0
  1675     0F5F  00ED               	movwf	??_main+1
  1676     0F60  3096               	movlw	150
  1677     0F61  00EC               	movwf	??_main
  1678     0F62  307F               	movlw	127
  1679     0F63                     u2827:
  1680     0F63  0B89               	decfsz	9,f
  1681     0F64  2F63               	goto	u2827
  1682     0F65  0BEC               	decfsz	??_main,f
  1683     0F66  2F63               	goto	u2827
  1684     0F67  0BED               	decfsz	??_main+1,f
  1685     0F68  2F63               	goto	u2827
  1686     0F69                     l2279:
  1687                           
  1688                           ;main.c: 223:          RC1STAbits.SPEN = 0;
  1689     0F69  0023               	movlb	3	; select bank3
  1690     0F6A  139D               	bcf	29,7	;volatile
  1691     0F6B                     l2281:
  1692                           
  1693                           ;main.c: 224:          RC1STAbits.SPEN = 1;
  1694     0F6B  179D               	bsf	29,7	;volatile
  1695     0F6C  0064               	clrwdt	;# 
  1696     0F6D  2F21               	goto	l2261
  1697     0F6E  3180  2811         	ljmp	start
  1698     0F70                     __end_of_main:
  1699                           
  1700                           	psect	text1
  1701     07BE                     __ptext1:	
  1702 ;; *************** function _strcat *****************
  1703 ;; Defined at:
  1704 ;;		line 3 in file "C:\Program Files\Microchip\xc8\v2.45\pic\sources\c99\common\strcat.c"
  1705 ;; Parameters:    Size  Location     Type
  1706 ;;  dest            2    0[BANK0 ] PTR unsigned char 
  1707 ;;		 -> RAM(4096), 
  1708 ;;  src             2    2[BANK0 ] PTR const unsigned char 
  1709 ;;		 -> STR_1(3), 
  1710 ;; Auto vars:     Size  Location     Type
  1711 ;;  i               2    6[COMMON] unsigned int 
  1712 ;; Return value:  Size  Location     Type
  1713 ;;                  2    0[BANK0 ] PTR unsigned char 
  1714 ;; Registers used:
  1715 ;;		wreg, fsr0l, fsr0h, fsr1l, fsr1h, status,2, status,0, pclath
  1716 ;; Tracked objects:
  1717 ;;		On entry : 0/0
  1718 ;;		On exit  : 0/0
  1719 ;;		Unchanged: 0/0
  1720 ;; Data sizes:     COMMON   BANK0   BANK1   BANK2   BANK3   BANK4   BANK5   BANK6   BANK7   BANK8   BANK9  BANK10  BANK1
      +1  BANK12  BANK13  BANK14  BANK15  BANK16  BANK17  BANK18  BANK19  BANK20  BANK21  BANK22  BANK23  BANK24  BANK25
  1721 ;;      Params:         0       4       0       0       0       0       0       0       0       0       0       0       
      +0       0       0       0       0       0       0       0       0       0       0       0       0       0       0
  1722 ;;      Locals:         2       0       0       0       0       0       0       0       0       0       0       0       
      +0       0       0       0       0       0       0       0       0       0       0       0       0       0       0
  1723 ;;      Temps:          0       0       0       0       0       0       0       0       0       0       0       0       
      +0       0       0       0       0       0       0       0       0       0       0       0       0       0       0
  1724 ;;      Totals:         2       4       0       0       0       0       0       0       0       0       0       0       
      +0       0       0       0       0       0       0       0       0       0       0       0       0       0       0
  1725 ;;Total ram usage:        6 bytes
  1726 ;; Hardware stack levels used: 1
  1727 ;; Hardware stack levels required when called: 4
  1728 ;; This function calls:
  1729 ;;		Nothing
  1730 ;; This function is called by:
  1731 ;;		_main
  1732 ;; This function uses a non-reentrant model
  1733 ;;
  1734                           
  1735     07BE                     _strcat:	
  1736                           ;psect for function _strcat
  1737                           
  1738     07BE                     l2231:	
  1739                           ;incstack = 0
  1740                           ; Regs used in _strcat: [wreg-fsr1h+status,2+status,0+pclath]
  1741                           
  1742     07BE  01F6               	clrf	strcat@i
  1743     07BF  01F7               	clrf	strcat@i+1
  1744     07C0  2FC5               	goto	l2235
  1745     07C1                     l2233:
  1746     07C1  3001               	movlw	1
  1747     07C2  07F6               	addwf	strcat@i,f
  1748     07C3  3000               	movlw	0
  1749     07C4  3DF7               	addwfc	strcat@i+1,f
  1750     07C5                     l2235:
  1751     07C5  0876               	movf	strcat@i,w
  1752     07C6  0020               	movlb	0	; select bank0
  1753     07C7  0720               	addwf	strcat@dest,w
  1754     07C8  0086               	movwf	6
  1755     07C9  0877               	movf	strcat@i+1,w
  1756     07CA  3D21               	addwfc	strcat@dest+1,w
  1757     07CB  0087               	movwf	7
  1758     07CC  0801               	movf	1,w
  1759     07CD  1D03               	btfss	3,2
  1760     07CE  2FD0               	goto	u2761
  1761     07CF  2FD1               	goto	u2760
  1762     07D0                     u2761:
  1763     07D0  2FC1               	goto	l2233
  1764     07D1                     u2760:
  1765     07D1  2FDA               	goto	l2239
  1766     07D2                     l2237:
  1767     07D2  3001               	movlw	1
  1768     07D3  07F6               	addwf	strcat@i,f
  1769     07D4  3000               	movlw	0
  1770     07D5  3DF7               	addwfc	strcat@i+1,f
  1771     07D6  3001               	movlw	1
  1772     07D7  07A2               	addwf	strcat@src,f
  1773     07D8  3000               	movlw	0
  1774     07D9  3DA3               	addwfc	strcat@src+1,f
  1775     07DA                     l2239:
  1776     07DA  0876               	movf	strcat@i,w
  1777     07DB  0720               	addwf	strcat@dest,w
  1778     07DC  0086               	movwf	6
  1779     07DD  0877               	movf	strcat@i+1,w
  1780     07DE  3D21               	addwfc	strcat@dest+1,w
  1781     07DF  0087               	movwf	7
  1782     07E0  0822               	movf	strcat@src,w
  1783     07E1  0084               	movwf	4
  1784     07E2  0823               	movf	strcat@src+1,w
  1785     07E3  0085               	movwf	5
  1786     07E4  0800               	movf	0,w	;code access
  1787     07E5  3FC0               	movwi [0]fsr1
  1788     07E6  0889               	movf	9,f
  1789     07E7  1D03               	btfss	3,2
  1790     07E8  2FEA               	goto	u2771
  1791     07E9  2FEB               	goto	u2770
  1792     07EA                     u2771:
  1793     07EA  2FD2               	goto	l2237
  1794     07EB                     u2770:
  1795     07EB                     l713:
  1796     07EB  0008               	return
  1797     07EC                     __end_of_strcat:
  1798                           
  1799                           	psect	text2
  1800     0E21                     __ptext2:	
  1801 ;; *************** function _server_Initialize *****************
  1802 ;; Defined at:
  1803 ;;		line 299 in file "main.c"
  1804 ;; Parameters:    Size  Location     Type
  1805 ;;		None
  1806 ;; Auto vars:     Size  Location     Type
  1807 ;;		None
  1808 ;; Return value:  Size  Location     Type
  1809 ;;                  1    wreg      void 
  1810 ;; Registers used:
  1811 ;;		wreg, fsr0l, fsr0h, status,2, status,0, pclath, cstack
  1812 ;; Tracked objects:
  1813 ;;		On entry : 0/0
  1814 ;;		On exit  : 0/0
  1815 ;;		Unchanged: 0/0
  1816 ;; Data sizes:     COMMON   BANK0   BANK1   BANK2   BANK3   BANK4   BANK5   BANK6   BANK7   BANK8   BANK9  BANK10  BANK1
      +1  BANK12  BANK13  BANK14  BANK15  BANK16  BANK17  BANK18  BANK19  BANK20  BANK21  BANK22  BANK23  BANK24  BANK25
  1817 ;;      Params:         0       0       0       0       0       0       0       0       0       0       0       0       
      +0       0       0       0       0       0       0       0       0       0       0       0       0       0       0
  1818 ;;      Locals:         0       0       0       0       0       0       0       0       0       0       0       0       
      +0       0       0       0       0       0       0       0       0       0       0       0       0       0       0
  1819 ;;      Temps:          0       0       0       0       0       0       0       0       0       0       0       0       
      +0       0       0       0       0       0       0       0       0       0       0       0       0       0       0
  1820 ;;      Totals:         0       0       0       0       0       0       0       0       0       0       0       0       
      +0       0       0       0       0       0       0       0       0       0       0       0       0       0       0
  1821 ;;Total ram usage:        0 bytes
  1822 ;; Hardware stack levels used: 1
  1823 ;; Hardware stack levels required when called: 6
  1824 ;; This function calls:
  1825 ;;		_EUSART_Write_Text
  1826 ;; This function is called by:
  1827 ;;		_main
  1828 ;; This function uses a non-reentrant model
  1829 ;;
  1830                           
  1831     0E21                     _server_Initialize:	
  1832                           ;psect for function _server_Initialize
  1833                           
  1834     0E21                     l2213:	
  1835                           ;incstack = 0
  1836                           ; Regs used in _server_Initialize: [wreg-fsr0h+status,2+status,0+pclath+cstack]
  1837                           
  1838     0E21  0064               	clrwdt	;# 
  1839     0E22                     l2215:
  1840                           
  1841                           ;main.c: 307:          EUSART_Write_Text("AT\r\n");
  1842     0E22  3043               	movlw	low (STR_4| (0+32768))
  1843     0E23  0020               	movlb	0	; select bank0
  1844     0E24  00A0               	movwf	EUSART_Write_Text@text
  1845     0E25  3090               	movlw	high (STR_4| (0+32768))
  1846     0E26  00A1               	movwf	EUSART_Write_Text@text+1
  1847     0E27  318E  2602  318E   	fcall	_EUSART_Write_Text
  1848     0E2A  0064               	clrwdt	;# 
  1849                           
  1850                           ;main.c: 318:          EUSART_Write_Text("AT+CIPMUX=0\r\n");
  1851     0E2B  3035               	movlw	low (STR_5| (0+32768))
  1852     0E2C  0020               	movlb	0	; select bank0
  1853     0E2D  00A0               	movwf	EUSART_Write_Text@text
  1854     0E2E  3090               	movlw	high (STR_5| (0+32768))
  1855     0E2F  00A1               	movwf	EUSART_Write_Text@text+1
  1856     0E30  318E  2602  318E   	fcall	_EUSART_Write_Text
  1857     0E33  0064               	clrwdt	;# 
  1858                           
  1859                           ;main.c: 325:         EUSART_Write_Text("AT+CIPSERVER=1,80\r\n");
  1860     0E34  3000               	movlw	low (STR_6| (0+32768))
  1861     0E35  0020               	movlb	0	; select bank0
  1862     0E36  00A0               	movwf	EUSART_Write_Text@text
  1863     0E37  3090               	movlw	high (STR_6| (0+32768))
  1864     0E38  00A1               	movwf	EUSART_Write_Text@text+1
  1865     0E39  318E  2602  318E   	fcall	_EUSART_Write_Text
  1866     0E3C  0064               	clrwdt	;# 
  1867     0E3D                     l2217:
  1868                           
  1869                           ;main.c: 331:         WDTCONbits.WDTPS = 0b10001;
  1870     0E3D  0021               	movlb	1	; select bank1
  1871     0E3E  0817               	movf	23,w	;volatile
  1872     0E3F  39C1               	andlw	-63
  1873     0E40  3822               	iorlw	34
  1874     0E41  0097               	movwf	23	;volatile
  1875     0E42                     l114:
  1876     0E42  0008               	return
  1877     0E43                     __end_of_server_Initialize:
  1878                           
  1879                           	psect	text3
  1880     0E02                     __ptext3:	
  1881 ;; *************** function _EUSART_Write_Text *****************
  1882 ;; Defined at:
  1883 ;;		line 127 in file "EUSART.c"
  1884 ;; Parameters:    Size  Location     Type
  1885 ;;  text            2    0[BANK0 ] PTR unsigned char 
  1886 ;;		 -> STR_6(20), STR_5(14), STR_4(5), STR_3(16), 
  1887 ;;		 -> STR_2(17), RAM(4096), 
  1888 ;; Auto vars:     Size  Location     Type
  1889 ;;  i               2    2[BANK0 ] int 
  1890 ;; Return value:  Size  Location     Type
  1891 ;;                  1    wreg      void 
  1892 ;; Registers used:
  1893 ;;		wreg, fsr0l, fsr0h, status,2, status,0, pclath, cstack
  1894 ;; Tracked objects:
  1895 ;;		On entry : 0/0
  1896 ;;		On exit  : 0/0
  1897 ;;		Unchanged: 0/0
  1898 ;; Data sizes:     COMMON   BANK0   BANK1   BANK2   BANK3   BANK4   BANK5   BANK6   BANK7   BANK8   BANK9  BANK10  BANK1
      +1  BANK12  BANK13  BANK14  BANK15  BANK16  BANK17  BANK18  BANK19  BANK20  BANK21  BANK22  BANK23  BANK24  BANK25
  1899 ;;      Params:         0       2       0       0       0       0       0       0       0       0       0       0       
      +0       0       0       0       0       0       0       0       0       0       0       0       0       0       0
  1900 ;;      Locals:         0       2       0       0       0       0       0       0       0       0       0       0       
      +0       0       0       0       0       0       0       0       0       0       0       0       0       0       0
  1901 ;;      Temps:          1       0       0       0       0       0       0       0       0       0       0       0       
      +0       0       0       0       0       0       0       0       0       0       0       0       0       0       0
  1902 ;;      Totals:         1       4       0       0       0       0       0       0       0       0       0       0       
      +0       0       0       0       0       0       0       0       0       0       0       0       0       0       0
  1903 ;;Total ram usage:        5 bytes
  1904 ;; Hardware stack levels used: 1
  1905 ;; Hardware stack levels required when called: 5
  1906 ;; This function calls:
  1907 ;;		_EUSART_Write
  1908 ;; This function is called by:
  1909 ;;		_main
  1910 ;;		_server_Initialize
  1911 ;; This function uses a non-reentrant model
  1912 ;;
  1913                           
  1914     0E02                     _EUSART_Write_Text:	
  1915                           ;psect for function _EUSART_Write_Text
  1916                           
  1917     0E02                     l1547:	
  1918                           ;incstack = 0
  1919                           ; Regs used in _EUSART_Write_Text: [wreg-fsr0h+status,2+status,0+pclath+cstack]
  1920                           
  1921                           
  1922                           ;EUSART.c: 127: void EUSART_Write_Text(char *text);EUSART.c: 128: {;EUSART.c: 129:   int
      +                           i;;EUSART.c: 130:   for(i=0;text[i]!='\0';i++)
  1923     0E02  0020               	movlb	0	; select bank0
  1924     0E03  01A2               	clrf	EUSART_Write_Text@i
  1925     0E04  01A3               	clrf	EUSART_Write_Text@i+1
  1926     0E05  2E15               	goto	l1553
  1927     0E06                     l1549:
  1928                           
  1929                           ;EUSART.c: 131:    EUSART_Write(text[i]);
  1930     0E06  0820               	movf	EUSART_Write_Text@text,w
  1931     0E07  0722               	addwf	EUSART_Write_Text@i,w
  1932     0E08  0084               	movwf	4
  1933     0E09  0821               	movf	EUSART_Write_Text@text+1,w
  1934     0E0A  3D23               	addwfc	EUSART_Write_Text@i+1,w
  1935     0E0B  0085               	movwf	5
  1936     0E0C  0800               	movf	0,w	;code access
  1937     0E0D  318D  259D  318E   	fcall	_EUSART_Write
  1938     0E10                     l1551:
  1939     0E10  3001               	movlw	1
  1940     0E11  0020               	movlb	0	; select bank0
  1941     0E12  07A2               	addwf	EUSART_Write_Text@i,f
  1942     0E13  3000               	movlw	0
  1943     0E14  3DA3               	addwfc	EUSART_Write_Text@i+1,f
  1944     0E15                     l1553:
  1945     0E15  0820               	movf	EUSART_Write_Text@text,w
  1946     0E16  0722               	addwf	EUSART_Write_Text@i,w
  1947     0E17  0084               	movwf	4
  1948     0E18  0821               	movf	EUSART_Write_Text@text+1,w
  1949     0E19  3D23               	addwfc	EUSART_Write_Text@i+1,w
  1950     0E1A  0085               	movwf	5
  1951     0E1B  0012               	moviw fsr0++
  1952     0E1C  1D03               	btfss	3,2
  1953     0E1D  2E1F               	goto	u1471
  1954     0E1E  2E20               	goto	u1470
  1955     0E1F                     u1471:
  1956     0E1F  2E06               	goto	l1549
  1957     0E20                     u1470:
  1958     0E20                     l164:
  1959     0E20  0008               	return
  1960     0E21                     __end_of_EUSART_Write_Text:
  1961                           
  1962                           	psect	text4
  1963     0D9D                     __ptext4:	
  1964 ;; *************** function _EUSART_Write *****************
  1965 ;; Defined at:
  1966 ;;		line 108 in file "EUSART.c"
  1967 ;; Parameters:    Size  Location     Type
  1968 ;;  txData          1    wreg     unsigned char 
  1969 ;; Auto vars:     Size  Location     Type
  1970 ;;  txData          1    6[COMMON] unsigned char 
  1971 ;; Return value:  Size  Location     Type
  1972 ;;                  1    wreg      void 
  1973 ;; Registers used:
  1974 ;;		wreg
  1975 ;; Tracked objects:
  1976 ;;		On entry : 0/0
  1977 ;;		On exit  : 0/0
  1978 ;;		Unchanged: 0/0
  1979 ;; Data sizes:     COMMON   BANK0   BANK1   BANK2   BANK3   BANK4   BANK5   BANK6   BANK7   BANK8   BANK9  BANK10  BANK1
      +1  BANK12  BANK13  BANK14  BANK15  BANK16  BANK17  BANK18  BANK19  BANK20  BANK21  BANK22  BANK23  BANK24  BANK25
  1980 ;;      Params:         0       0       0       0       0       0       0       0       0       0       0       0       
      +0       0       0       0       0       0       0       0       0       0       0       0       0       0       0
  1981 ;;      Locals:         1       0       0       0       0       0       0       0       0       0       0       0       
      +0       0       0       0       0       0       0       0       0       0       0       0       0       0       0
  1982 ;;      Temps:          0       0       0       0       0       0       0       0       0       0       0       0       
      +0       0       0       0       0       0       0       0       0       0       0       0       0       0       0
  1983 ;;      Totals:         1       0       0       0       0       0       0       0       0       0       0       0       
      +0       0       0       0       0       0       0       0       0       0       0       0       0       0       0
  1984 ;;Total ram usage:        1 bytes
  1985 ;; Hardware stack levels used: 1
  1986 ;; Hardware stack levels required when called: 4
  1987 ;; This function calls:
  1988 ;;		Nothing
  1989 ;; This function is called by:
  1990 ;;		_EUSART_Write_Text
  1991 ;;		_EUSART_Write_Integer
  1992 ;; This function uses a non-reentrant model
  1993 ;;
  1994                           
  1995     0D9D                     _EUSART_Write:	
  1996                           ;psect for function _EUSART_Write
  1997                           
  1998                           
  1999                           ;incstack = 0
  2000                           ; Regs used in _EUSART_Write: [wreg]
  2001                           ;EUSART_Write@txData stored from wreg
  2002     0D9D  00F6               	movwf	EUSART_Write@txData
  2003     0D9E                     l1523:
  2004     0D9E                     l155:	
  2005                           ;EUSART.c: 111:     {;EUSART.c: 112:     }
  2006                           
  2007                           
  2008                           ;EUSART.c: 110:     while(0 == PIR1bits.TXIF)
  2009     0D9E  0020               	movlb	0	; select bank0
  2010     0D9F  1E11               	btfss	17,4	;volatile
  2011     0DA0  2DA2               	goto	u1421
  2012     0DA1  2DA3               	goto	u1420
  2013     0DA2                     u1421:
  2014     0DA2  2D9E               	goto	l155
  2015     0DA3                     u1420:
  2016     0DA3                     l1525:
  2017                           
  2018                           ;EUSART.c: 114:     TX1REG = txData;
  2019     0DA3  0876               	movf	EUSART_Write@txData,w
  2020     0DA4  0023               	movlb	3	; select bank3
  2021     0DA5  009A               	movwf	26	;volatile
  2022     0DA6                     l158:
  2023     0DA6  0008               	return
  2024     0DA7                     __end_of_EUSART_Write:
  2025                           
  2026                           	psect	text5
  2027     0E67                     __ptext5:	
  2028 ;; *************** function _initMain *****************
  2029 ;; Defined at:
  2030 ;;		line 63 in file "main.c"
  2031 ;; Parameters:    Size  Location     Type
  2032 ;;		None
  2033 ;; Auto vars:     Size  Location     Type
  2034 ;;		None
  2035 ;; Return value:  Size  Location     Type
  2036 ;;                  1    wreg      void 
  2037 ;; Registers used:
  2038 ;;		wreg, status,2, status,0, pclath, cstack
  2039 ;; Tracked objects:
  2040 ;;		On entry : 0/0
  2041 ;;		On exit  : 0/0
  2042 ;;		Unchanged: 0/0
  2043 ;; Data sizes:     COMMON   BANK0   BANK1   BANK2   BANK3   BANK4   BANK5   BANK6   BANK7   BANK8   BANK9  BANK10  BANK1
      +1  BANK12  BANK13  BANK14  BANK15  BANK16  BANK17  BANK18  BANK19  BANK20  BANK21  BANK22  BANK23  BANK24  BANK25
  2044 ;;      Params:         0       0       0       0       0       0       0       0       0       0       0       0       
      +0       0       0       0       0       0       0       0       0       0       0       0       0       0       0
  2045 ;;      Locals:         0       0       0       0       0       0       0       0       0       0       0       0       
      +0       0       0       0       0       0       0       0       0       0       0       0       0       0       0
  2046 ;;      Temps:          0       0       0       0       0       0       0       0       0       0       0       0       
      +0       0       0       0       0       0       0       0       0       0       0       0       0       0       0
  2047 ;;      Totals:         0       0       0       0       0       0       0       0       0       0       0       0       
      +0       0       0       0       0       0       0       0       0       0       0       0       0       0       0
  2048 ;;Total ram usage:        0 bytes
  2049 ;; Hardware stack levels used: 1
  2050 ;; Hardware stack levels required when called: 5
  2051 ;; This function calls:
  2052 ;;		_internal_16
  2053 ;; This function is called by:
  2054 ;;		_main
  2055 ;; This function uses a non-reentrant model
  2056 ;;
  2057                           
  2058     0E67                     _initMain:	
  2059                           ;psect for function _initMain
  2060                           
  2061     0E67                     l2129:	
  2062                           ;incstack = 0
  2063                           ; Regs used in _initMain: [wreg+status,2+status,0+pclath+cstack]
  2064                           
  2065                           
  2066                           ;main.c: 65:     internal_16();
  2067     0E67  318D  258A  318E   	fcall	_internal_16
  2068     0E6A                     l2131:
  2069                           
  2070                           ;main.c: 72:      ANSELCbits.ANSC4 = 0;
  2071     0E6A  0023               	movlb	3	; select bank3
  2072     0E6B  120E               	bcf	14,4	;volatile
  2073     0E6C                     l2133:
  2074                           
  2075                           ;main.c: 73:      ANSELCbits.ANSC5 = 0;
  2076     0E6C  128E               	bcf	14,5	;volatile
  2077     0E6D                     l2135:
  2078                           
  2079                           ;main.c: 75:      TRISCbits.TRISC4 = 1;
  2080     0E6D  0021               	movlb	1	; select bank1
  2081     0E6E  160E               	bsf	14,4	;volatile
  2082     0E6F                     l2137:
  2083                           
  2084                           ;main.c: 76:      TRISCbits.TRISC5 = 1;
  2085     0E6F  168E               	bsf	14,5	;volatile
  2086     0E70                     l2139:
  2087                           
  2088                           ;main.c: 78:      PPSLOCK = 0x55;
  2089     0E70  3055               	movlw	85
  2090     0E71  003C               	movlb	28	; select bank28
  2091     0E72  008F               	movwf	15	;volsfr
  2092     0E73                     l2141:
  2093                           
  2094                           ;main.c: 79:      PPSLOCK = 0xAA;
  2095     0E73  30AA               	movlw	170
  2096     0E74  008F               	movwf	15	;volsfr
  2097     0E75                     l2143:
  2098                           
  2099                           ;main.c: 80:      PPSLOCKbits.PPSLOCKED = 0x00;
  2100     0E75  100F               	bcf	15,0	;volsfr
  2101     0E76                     l2145:
  2102                           
  2103                           ;main.c: 83:      RB2PPSbits.RB2PPS = 0x14;
  2104     0E76  003D               	movlb	29	; select bank29
  2105     0E77  081A               	movf	26,w	;volatile
  2106     0E78  39E0               	andlw	-32
  2107     0E79  3814               	iorlw	20
  2108     0E7A  009A               	movwf	26	;volatile
  2109     0E7B                     l2147:
  2110                           
  2111                           ;main.c: 84:      RXPPSbits.RXPPS = 0x0B;
  2112     0E7B  003C               	movlb	28	; select bank28
  2113     0E7C  0824               	movf	36,w	;volatile
  2114     0E7D  39E0               	andlw	-32
  2115     0E7E  380B               	iorlw	11
  2116     0E7F  00A4               	movwf	36	;volatile
  2117     0E80                     l2149:
  2118                           
  2119                           ;main.c: 86:      PPSLOCK = 0x55;
  2120     0E80  3055               	movlw	85
  2121     0E81  008F               	movwf	15	;volsfr
  2122     0E82                     l2151:
  2123                           
  2124                           ;main.c: 87:      PPSLOCK = 0xAA;
  2125     0E82  30AA               	movlw	170
  2126     0E83  008F               	movwf	15	;volsfr
  2127     0E84                     l2153:
  2128                           
  2129                           ;main.c: 88:      PPSLOCKbits.PPSLOCKED = 0x01;
  2130     0E84  140F               	bsf	15,0	;volsfr
  2131     0E85                     l2155:
  2132                           
  2133                           ;main.c: 96:     TRISBbits.TRISB3 = 1;
  2134     0E85  0021               	movlb	1	; select bank1
  2135     0E86  158D               	bsf	13,3	;volatile
  2136     0E87                     l2157:
  2137                           
  2138                           ;main.c: 97:     ANSELBbits.ANSB3 = 0;
  2139     0E87  0023               	movlb	3	; select bank3
  2140     0E88  118D               	bcf	13,3	;volatile
  2141     0E89                     l2159:
  2142                           
  2143                           ;main.c: 99:     TRISBbits.TRISB2 = 0;
  2144     0E89  0021               	movlb	1	; select bank1
  2145     0E8A  110D               	bcf	13,2	;volatile
  2146     0E8B                     l2161:
  2147                           
  2148                           ;main.c: 100:     ANSELBbits.ANSB2 = 0;
  2149     0E8B  0023               	movlb	3	; select bank3
  2150     0E8C  110D               	bcf	13,2	;volatile
  2151     0E8D                     l2163:
  2152                           
  2153                           ;main.c: 107:     WDTCONbits.WDTPS = 0b01100;
  2154     0E8D  0021               	movlb	1	; select bank1
  2155     0E8E  0817               	movf	23,w	;volatile
  2156     0E8F  39C1               	andlw	-63
  2157     0E90  3818               	iorlw	24
  2158     0E91  0097               	movwf	23	;volatile
  2159     0E92                     l2165:
  2160                           
  2161                           ;main.c: 109:     TRISDbits.TRISD1 = 1;
  2162     0E92  148F               	bsf	15,1	;volatile
  2163     0E93                     l2167:
  2164                           
  2165                           ;main.c: 110:     ANSELDbits.ANSD1 = 1;
  2166     0E93  0023               	movlb	3	; select bank3
  2167     0E94  148F               	bsf	15,1	;volatile
  2168     0E95                     l2169:
  2169                           
  2170                           ;main.c: 114:     TRISBbits.TRISB0 = 1;
  2171     0E95  0021               	movlb	1	; select bank1
  2172     0E96  140D               	bsf	13,0	;volatile
  2173     0E97                     l2171:
  2174                           
  2175                           ;main.c: 117:     ANSELBbits.ANSB0 = 0;
  2176     0E97  0023               	movlb	3	; select bank3
  2177     0E98  100D               	bcf	13,0	;volatile
  2178     0E99                     l2173:
  2179                           
  2180                           ;main.c: 125:     PPSLOCK = 0x55;
  2181     0E99  3055               	movlw	85
  2182     0E9A  003C               	movlb	28	; select bank28
  2183     0E9B  008F               	movwf	15	;volsfr
  2184     0E9C                     l2175:
  2185                           
  2186                           ;main.c: 126:     PPSLOCK = 0xAA;
  2187     0E9C  30AA               	movlw	170
  2188     0E9D  008F               	movwf	15	;volsfr
  2189     0E9E                     l2177:
  2190                           
  2191                           ;main.c: 127:     PPSLOCK = 0x00;
  2192     0E9E  018F               	clrf	15	;volsfr
  2193     0E9F                     l2179:
  2194                           
  2195                           ;main.c: 130:     INTPPSbits.INTPPS = 0b01000;
  2196     0E9F  0810               	movf	16,w	;volatile
  2197     0EA0  39E0               	andlw	-32
  2198     0EA1  3808               	iorlw	8
  2199     0EA2  0090               	movwf	16	;volatile
  2200     0EA3                     l2181:
  2201                           
  2202                           ;main.c: 133:     PPSLOCK = 0x55;
  2203     0EA3  3055               	movlw	85
  2204     0EA4  008F               	movwf	15	;volsfr
  2205     0EA5                     l2183:
  2206                           
  2207                           ;main.c: 134:     PPSLOCK = 0xAA;
  2208     0EA5  30AA               	movlw	170
  2209     0EA6  008F               	movwf	15	;volsfr
  2210     0EA7                     l2185:
  2211                           
  2212                           ;main.c: 135:     PPSLOCK = 0x01;
  2213     0EA7  3001               	movlw	1
  2214     0EA8  008F               	movwf	15	;volsfr
  2215     0EA9                     l2187:
  2216                           
  2217                           ;main.c: 138:     OPTION_REGbits.INTEDG = 0;
  2218     0EA9  0021               	movlb	1	; select bank1
  2219     0EAA  1315               	bcf	21,6	;volatile
  2220     0EAB                     l2189:
  2221                           
  2222                           ;main.c: 141:     INTCONbits.INTF = 0;
  2223     0EAB  108B               	bcf	11,1	;volatile
  2224     0EAC                     l2191:
  2225                           
  2226                           ;main.c: 144:     INTCONbits.INTE = 1;
  2227     0EAC  160B               	bsf	11,4	;volatile
  2228     0EAD                     l2193:
  2229                           
  2230                           ;main.c: 147:     (INTCONbits.GIE = 1);
  2231     0EAD  178B               	bsf	11,7	;volatile
  2232     0EAE                     l92:
  2233     0EAE  0008               	return
  2234     0EAF                     __end_of_initMain:
  2235                           
  2236                           	psect	text6
  2237     0D8A                     __ptext6:	
  2238 ;; *************** function _internal_16 *****************
  2239 ;; Defined at:
  2240 ;;		line 57 in file "PIC16F1719_Internal.c"
  2241 ;; Parameters:    Size  Location     Type
  2242 ;;		None
  2243 ;; Auto vars:     Size  Location     Type
  2244 ;;		None
  2245 ;; Return value:  Size  Location     Type
  2246 ;;                  1    wreg      void 
  2247 ;; Registers used:
  2248 ;;		None
  2249 ;; Tracked objects:
  2250 ;;		On entry : 0/0
  2251 ;;		On exit  : 0/0
  2252 ;;		Unchanged: 0/0
  2253 ;; Data sizes:     COMMON   BANK0   BANK1   BANK2   BANK3   BANK4   BANK5   BANK6   BANK7   BANK8   BANK9  BANK10  BANK1
      +1  BANK12  BANK13  BANK14  BANK15  BANK16  BANK17  BANK18  BANK19  BANK20  BANK21  BANK22  BANK23  BANK24  BANK25
  2254 ;;      Params:         0       0       0       0       0       0       0       0       0       0       0       0       
      +0       0       0       0       0       0       0       0       0       0       0       0       0       0       0
  2255 ;;      Locals:         0       0       0       0       0       0       0       0       0       0       0       0       
      +0       0       0       0       0       0       0       0       0       0       0       0       0       0       0
  2256 ;;      Temps:          0       0       0       0       0       0       0       0       0       0       0       0       
      +0       0       0       0       0       0       0       0       0       0       0       0       0       0       0
  2257 ;;      Totals:         0       0       0       0       0       0       0       0       0       0       0       0       
      +0       0       0       0       0       0       0       0       0       0       0       0       0       0       0
  2258 ;;Total ram usage:        0 bytes
  2259 ;; Hardware stack levels used: 1
  2260 ;; Hardware stack levels required when called: 4
  2261 ;; This function calls:
  2262 ;;		Nothing
  2263 ;; This function is called by:
  2264 ;;		_initMain
  2265 ;; This function uses a non-reentrant model
  2266 ;;
  2267                           
  2268     0D8A                     _internal_16:	
  2269                           ;psect for function _internal_16
  2270                           
  2271     0D8A                     l1545:	
  2272                           ;incstack = 0
  2273                           ; Regs used in _internal_16: []
  2274                           
  2275                           
  2276                           ;PIC16F1719_Internal.c: 59:     SCS0 = 0;
  2277     0D8A  0021               	movlb	1	; select bank1
  2278     0D8B  1019               	bcf	25,0	;volatile
  2279                           
  2280                           ;PIC16F1719_Internal.c: 60:     SCS1 = 0;
  2281     0D8C  1099               	bcf	25,1	;volatile
  2282                           
  2283                           ;PIC16F1719_Internal.c: 63:     IRCF0 = 1;
  2284     0D8D  1599               	bsf	25,3	;volatile
  2285                           
  2286                           ;PIC16F1719_Internal.c: 64:     IRCF1 = 1;
  2287     0D8E  1619               	bsf	25,4	;volatile
  2288                           
  2289                           ;PIC16F1719_Internal.c: 65:     IRCF2 = 1;
  2290     0D8F  1699               	bsf	25,5	;volatile
  2291                           
  2292                           ;PIC16F1719_Internal.c: 66:     IRCF3 = 1;
  2293     0D90  1719               	bsf	25,6	;volatile
  2294                           
  2295                           ;PIC16F1719_Internal.c: 69:     SPLLEN = 0;
  2296     0D91  1399               	bcf	25,7	;volatile
  2297     0D92                     l20:
  2298     0D92  0008               	return
  2299     0D93                     __end_of_internal_16:
  2300                           
  2301                           	psect	text7
  2302     060C                     __ptext7:	
  2303 ;; *************** function _Read_Temperature *****************
  2304 ;; Defined at:
  2305 ;;		line 260 in file "main.c"
  2306 ;; Parameters:    Size  Location     Type
  2307 ;;		None
  2308 ;; Auto vars:     Size  Location     Type
  2309 ;;  result          4   17[BANK1 ] float 
  2310 ;;  celsius         4   13[BANK1 ] float 
  2311 ;;  farenheit       4    9[BANK1 ] float 
  2312 ;;  conversion10    4    5[BANK1 ] float 
  2313 ;; Return value:  Size  Location     Type
  2314 ;;                  4   72[BANK0 ] float 
  2315 ;; Registers used:
  2316 ;;		wreg, status,2, status,0, pclath, cstack
  2317 ;; Tracked objects:
  2318 ;;		On entry : 0/0
  2319 ;;		On exit  : 0/0
  2320 ;;		Unchanged: 0/0
  2321 ;; Data sizes:     COMMON   BANK0   BANK1   BANK2   BANK3   BANK4   BANK5   BANK6   BANK7   BANK8   BANK9  BANK10  BANK1
      +1  BANK12  BANK13  BANK14  BANK15  BANK16  BANK17  BANK18  BANK19  BANK20  BANK21  BANK22  BANK23  BANK24  BANK25
  2322 ;;      Params:         0       4       0       0       0       0       0       0       0       0       0       0       
      +0       0       0       0       0       0       0       0       0       0       0       0       0       0       0
  2323 ;;      Locals:         0       0      16       0       0       0       0       0       0       0       0       0       
      +0       0       0       0       0       0       0       0       0       0       0       0       0       0       0
  2324 ;;      Temps:          0       0       5       0       0       0       0       0       0       0       0       0       
      +0       0       0       0       0       0       0       0       0       0       0       0       0       0       0
  2325 ;;      Totals:         0       4      21       0       0       0       0       0       0       0       0       0       
      +0       0       0       0       0       0       0       0       0       0       0       0       0       0       0
  2326 ;;Total ram usage:       25 bytes
  2327 ;; Hardware stack levels used: 1
  2328 ;; Hardware stack levels required when called: 6
  2329 ;; This function calls:
  2330 ;;		___fladd
  2331 ;;		___fldiv
  2332 ;;		___flmul
  2333 ;;		___xxtofl
  2334 ;; This function is called by:
  2335 ;;		_main
  2336 ;; This function uses a non-reentrant model
  2337 ;;
  2338                           
  2339     060C                     _Read_Temperature:	
  2340                           ;psect for function _Read_Temperature
  2341                           
  2342     060C                     l2219:	
  2343                           ;incstack = 0
  2344                           ; Regs used in _Read_Temperature: [wreg+status,2+status,0+pclath+cstack]
  2345                           
  2346                           
  2347                           ;main.c: 262:      float conversion10;;main.c: 263:      float farenheit;;main.c: 264:  
      +                              float celsius;;main.c: 265:      float result;;main.c: 268:       ADCON0bits.ADON = 
      +                          1;
  2348     060C  0021               	movlb	1	; select bank1
  2349     060D  141D               	bsf	29,0	;volatile
  2350     060E                     l2221:
  2351                           
  2352                           ;main.c: 271:       _delay((unsigned long)((10)*(32000000/4000000.0)));
  2353     060E  301A               	movlw	26
  2354     060F                     u2837:
  2355     060F  0B89               	decfsz	9,f
  2356     0610  2E0F               	goto	u2837
  2357     0611  3200               	nop2
  2358     0612                     l2223:
  2359                           
  2360                           ;main.c: 272:       ADCON0bits.GO = 1;
  2361     0612  0021               	movlb	1	; select bank1
  2362     0613  149D               	bsf	29,1	;volatile
  2363     0614                     l108:	
  2364                           ;main.c: 273:       while (ADCON0bits.GO_nDONE);
  2365                           
  2366     0614  189D               	btfsc	29,1	;volatile
  2367     0615  2E17               	goto	u2751
  2368     0616  2E18               	goto	u2750
  2369     0617                     u2751:
  2370     0617  2E14               	goto	l108
  2371     0618                     u2750:
  2372     0618                     l2225:
  2373                           
  2374                           ;main.c: 276:       result = ((ADRESH<<8)+ADRESL);
  2375     0618  081B               	movf	27,w	;volatile
  2376     0619  00D2               	movwf	??_Read_Temperature^(0+128)
  2377     061A  01D3               	clrf	(??_Read_Temperature^(0+128)+1)
  2378     061B  081C               	movf	28,w	;volatile
  2379     061C  00D4               	movwf	(??_Read_Temperature+2)^(0+128)
  2380     061D  01D5               	clrf	((??_Read_Temperature+2)^(0+128)+1)
  2381     061E  0854               	movf	(??_Read_Temperature+2)^(0+128),w
  2382     061F  00D5               	movwf	((??_Read_Temperature+2)^(0+128)+1)
  2383     0620  01D4               	clrf	(??_Read_Temperature+2)^(0+128)
  2384     0621  0852               	movf	??_Read_Temperature^(0+128),w
  2385     0622  0754               	addwf	(??_Read_Temperature+2)^(0+128),w
  2386     0623  0020               	movlb	0	; select bank0
  2387     0624  00A0               	movwf	___xxtofl@val
  2388     0625  0021               	movlb	1	; select bank1
  2389     0626  0853               	movf	(??_Read_Temperature+1)^(0+128),w
  2390     0627  3D55               	addwfc	(??_Read_Temperature+3)^(0+128),w
  2391     0628  0020               	movlb	0	; select bank0
  2392     0629  00A1               	movwf	___xxtofl@val+1
  2393     062A  01A2               	clrf	___xxtofl@val+2
  2394     062B  1BA1               	btfsc	___xxtofl@val+1,7
  2395     062C  03A2               	decf	___xxtofl@val+2,f
  2396     062D  0822               	movf	___xxtofl@val+2,w
  2397     062E  00A3               	movwf	___xxtofl@val+3
  2398     062F  3001               	movlw	1
  2399     0630  3187  2713  3186   	fcall	___xxtofl
  2400     0633  0020               	movlb	0	; select bank0
  2401     0634  0823               	movf	?___xxtofl+3,w
  2402     0635  0021               	movlb	1	; select bank1
  2403     0636  00E6               	movwf	(Read_Temperature@result+3)^(0+128)
  2404     0637  0020               	movlb	0	; select bank0
  2405     0638  0822               	movf	?___xxtofl+2,w
  2406     0639  0021               	movlb	1	; select bank1
  2407     063A  00E5               	movwf	(Read_Temperature@result+2)^(0+128)
  2408     063B  0020               	movlb	0	; select bank0
  2409     063C  0821               	movf	?___xxtofl+1,w
  2410     063D  0021               	movlb	1	; select bank1
  2411     063E  00E4               	movwf	(Read_Temperature@result+1)^(0+128)
  2412     063F  0020               	movlb	0	; select bank0
  2413     0640  0820               	movf	?___xxtofl,w
  2414     0641  0021               	movlb	1	; select bank1
  2415     0642  00E3               	movwf	Read_Temperature@result^(0+128)
  2416                           
  2417                           ;main.c: 279:       conversion10 = (result * 5000)/1024 ;
  2418     0643  3044               	movlw	68
  2419     0644  0020               	movlb	0	; select bank0
  2420     0645  00D1               	movwf	___fldiv@a+3
  2421     0646  3080               	movlw	128
  2422     0647  00D0               	movwf	___fldiv@a+2
  2423     0648  3000               	movlw	0
  2424     0649  00CF               	movwf	___fldiv@a+1
  2425     064A  3000               	movlw	0
  2426     064B  00CE               	movwf	___fldiv@a
  2427     064C  3045               	movlw	69
  2428     064D  00B7               	movwf	___flmul@b+3
  2429     064E  309C               	movlw	156
  2430     064F  00B6               	movwf	___flmul@b+2
  2431     0650  3040               	movlw	64
  2432     0651  00B5               	movwf	___flmul@b+1
  2433     0652  3000               	movlw	0
  2434     0653  00B4               	movwf	___flmul@b
  2435     0654  0021               	movlb	1	; select bank1
  2436     0655  0866               	movf	(Read_Temperature@result+3)^(0+128),w
  2437     0656  0020               	movlb	0	; select bank0
  2438     0657  00BB               	movwf	___flmul@a+3
  2439     0658  0021               	movlb	1	; select bank1
  2440     0659  0865               	movf	(Read_Temperature@result+2)^(0+128),w
  2441     065A  0020               	movlb	0	; select bank0
  2442     065B  00BA               	movwf	___flmul@a+2
  2443     065C  0021               	movlb	1	; select bank1
  2444     065D  0864               	movf	(Read_Temperature@result+1)^(0+128),w
  2445     065E  0020               	movlb	0	; select bank0
  2446     065F  00B9               	movwf	___flmul@a+1
  2447     0660  0021               	movlb	1	; select bank1
  2448     0661  0863               	movf	Read_Temperature@result^(0+128),w
  2449     0662  0020               	movlb	0	; select bank0
  2450     0663  00B8               	movwf	___flmul@a
  2451     0664  3180  201F  3186   	fcall	___flmul
  2452     0667  0020               	movlb	0	; select bank0
  2453     0668  0837               	movf	?___flmul+3,w
  2454     0669  00D5               	movwf	___fldiv@b+3
  2455     066A  0836               	movf	?___flmul+2,w
  2456     066B  00D4               	movwf	___fldiv@b+2
  2457     066C  0835               	movf	?___flmul+1,w
  2458     066D  00D3               	movwf	___fldiv@b+1
  2459     066E  0834               	movf	?___flmul,w
  2460     066F  00D2               	movwf	___fldiv@b
  2461     0670  3184  2462  3186   	fcall	___fldiv
  2462     0673  0020               	movlb	0	; select bank0
  2463     0674  0851               	movf	?___fldiv+3,w
  2464     0675  0021               	movlb	1	; select bank1
  2465     0676  00DA               	movwf	(Read_Temperature@conversion10+3)^(0+128)
  2466     0677  0020               	movlb	0	; select bank0
  2467     0678  0850               	movf	?___fldiv+2,w
  2468     0679  0021               	movlb	1	; select bank1
  2469     067A  00D9               	movwf	(Read_Temperature@conversion10+2)^(0+128)
  2470     067B  0020               	movlb	0	; select bank0
  2471     067C  084F               	movf	?___fldiv+1,w
  2472     067D  0021               	movlb	1	; select bank1
  2473     067E  00D8               	movwf	(Read_Temperature@conversion10+1)^(0+128)
  2474     067F  0020               	movlb	0	; select bank0
  2475     0680  084E               	movf	?___fldiv,w
  2476     0681  0021               	movlb	1	; select bank1
  2477     0682  00D7               	movwf	Read_Temperature@conversion10^(0+128)
  2478                           
  2479                           ;main.c: 282:       farenheit = conversion10 / 10;
  2480     0683  3041               	movlw	65
  2481     0684  0020               	movlb	0	; select bank0
  2482     0685  00D1               	movwf	___fldiv@a+3
  2483     0686  3020               	movlw	32
  2484     0687  00D0               	movwf	___fldiv@a+2
  2485     0688  3000               	movlw	0
  2486     0689  00CF               	movwf	___fldiv@a+1
  2487     068A  3000               	movlw	0
  2488     068B  00CE               	movwf	___fldiv@a
  2489     068C  0021               	movlb	1	; select bank1
  2490     068D  085A               	movf	(Read_Temperature@conversion10+3)^(0+128),w
  2491     068E  0020               	movlb	0	; select bank0
  2492     068F  00D5               	movwf	___fldiv@b+3
  2493     0690  0021               	movlb	1	; select bank1
  2494     0691  0859               	movf	(Read_Temperature@conversion10+2)^(0+128),w
  2495     0692  0020               	movlb	0	; select bank0
  2496     0693  00D4               	movwf	___fldiv@b+2
  2497     0694  0021               	movlb	1	; select bank1
  2498     0695  0858               	movf	(Read_Temperature@conversion10+1)^(0+128),w
  2499     0696  0020               	movlb	0	; select bank0
  2500     0697  00D3               	movwf	___fldiv@b+1
  2501     0698  0021               	movlb	1	; select bank1
  2502     0699  0857               	movf	Read_Temperature@conversion10^(0+128),w
  2503     069A  0020               	movlb	0	; select bank0
  2504     069B  00D2               	movwf	___fldiv@b
  2505     069C  3184  2462  3186   	fcall	___fldiv
  2506     069F  0020               	movlb	0	; select bank0
  2507     06A0  0851               	movf	?___fldiv+3,w
  2508     06A1  0021               	movlb	1	; select bank1
  2509     06A2  00DE               	movwf	(Read_Temperature@farenheit+3)^(0+128)
  2510     06A3  0020               	movlb	0	; select bank0
  2511     06A4  0850               	movf	?___fldiv+2,w
  2512     06A5  0021               	movlb	1	; select bank1
  2513     06A6  00DD               	movwf	(Read_Temperature@farenheit+2)^(0+128)
  2514     06A7  0020               	movlb	0	; select bank0
  2515     06A8  084F               	movf	?___fldiv+1,w
  2516     06A9  0021               	movlb	1	; select bank1
  2517     06AA  00DC               	movwf	(Read_Temperature@farenheit+1)^(0+128)
  2518     06AB  0020               	movlb	0	; select bank0
  2519     06AC  084E               	movf	?___fldiv,w
  2520     06AD  0021               	movlb	1	; select bank1
  2521     06AE  00DB               	movwf	Read_Temperature@farenheit^(0+128)
  2522                           
  2523                           ;main.c: 285:       celsius = (farenheit - 32) * 5/9;
  2524     06AF  3041               	movlw	65
  2525     06B0  0020               	movlb	0	; select bank0
  2526     06B1  00D1               	movwf	___fldiv@a+3
  2527     06B2  3010               	movlw	16
  2528     06B3  00D0               	movwf	___fldiv@a+2
  2529     06B4  3000               	movlw	0
  2530     06B5  00CF               	movwf	___fldiv@a+1
  2531     06B6  3000               	movlw	0
  2532     06B7  00CE               	movwf	___fldiv@a
  2533     06B8  3040               	movlw	64
  2534     06B9  00B7               	movwf	___flmul@b+3
  2535     06BA  30A0               	movlw	160
  2536     06BB  00B6               	movwf	___flmul@b+2
  2537     06BC  3000               	movlw	0
  2538     06BD  00B5               	movwf	___flmul@b+1
  2539     06BE  3000               	movlw	0
  2540     06BF  00B4               	movwf	___flmul@b
  2541     06C0  30C2               	movlw	194
  2542     06C1  00A3               	movwf	___fladd@b+3
  2543     06C2  3000               	movlw	0
  2544     06C3  00A2               	movwf	___fladd@b+2
  2545     06C4  3000               	movlw	0
  2546     06C5  00A1               	movwf	___fladd@b+1
  2547     06C6  3000               	movlw	0
  2548     06C7  00A0               	movwf	___fladd@b
  2549     06C8  0021               	movlb	1	; select bank1
  2550     06C9  085E               	movf	(Read_Temperature@farenheit+3)^(0+128),w
  2551     06CA  0020               	movlb	0	; select bank0
  2552     06CB  00A7               	movwf	___fladd@a+3
  2553     06CC  0021               	movlb	1	; select bank1
  2554     06CD  085D               	movf	(Read_Temperature@farenheit+2)^(0+128),w
  2555     06CE  0020               	movlb	0	; select bank0
  2556     06CF  00A6               	movwf	___fladd@a+2
  2557     06D0  0021               	movlb	1	; select bank1
  2558     06D1  085C               	movf	(Read_Temperature@farenheit+1)^(0+128),w
  2559     06D2  0020               	movlb	0	; select bank0
  2560     06D3  00A5               	movwf	___fladd@a+1
  2561     06D4  0021               	movlb	1	; select bank1
  2562     06D5  085B               	movf	Read_Temperature@farenheit^(0+128),w
  2563     06D6  0020               	movlb	0	; select bank0
  2564     06D7  00A4               	movwf	___fladd@a
  2565     06D8  3182  225A  3186   	fcall	___fladd
  2566     06DB  0020               	movlb	0	; select bank0
  2567     06DC  0823               	movf	?___fladd+3,w
  2568     06DD  00BB               	movwf	___flmul@a+3
  2569     06DE  0822               	movf	?___fladd+2,w
  2570     06DF  00BA               	movwf	___flmul@a+2
  2571     06E0  0821               	movf	?___fladd+1,w
  2572     06E1  00B9               	movwf	___flmul@a+1
  2573     06E2  0820               	movf	?___fladd,w
  2574     06E3  00B8               	movwf	___flmul@a
  2575     06E4  3180  201F  3186   	fcall	___flmul
  2576     06E7  0020               	movlb	0	; select bank0
  2577     06E8  0837               	movf	?___flmul+3,w
  2578     06E9  00D5               	movwf	___fldiv@b+3
  2579     06EA  0836               	movf	?___flmul+2,w
  2580     06EB  00D4               	movwf	___fldiv@b+2
  2581     06EC  0835               	movf	?___flmul+1,w
  2582     06ED  00D3               	movwf	___fldiv@b+1
  2583     06EE  0834               	movf	?___flmul,w
  2584     06EF  00D2               	movwf	___fldiv@b
  2585     06F0  3184  2462  3186   	fcall	___fldiv
  2586     06F3  0020               	movlb	0	; select bank0
  2587     06F4  0851               	movf	?___fldiv+3,w
  2588     06F5  0021               	movlb	1	; select bank1
  2589     06F6  00E2               	movwf	(Read_Temperature@celsius+3)^(0+128)
  2590     06F7  0020               	movlb	0	; select bank0
  2591     06F8  0850               	movf	?___fldiv+2,w
  2592     06F9  0021               	movlb	1	; select bank1
  2593     06FA  00E1               	movwf	(Read_Temperature@celsius+2)^(0+128)
  2594     06FB  0020               	movlb	0	; select bank0
  2595     06FC  084F               	movf	?___fldiv+1,w
  2596     06FD  0021               	movlb	1	; select bank1
  2597     06FE  00E0               	movwf	(Read_Temperature@celsius+1)^(0+128)
  2598     06FF  0020               	movlb	0	; select bank0
  2599     0700  084E               	movf	?___fldiv,w
  2600     0701  0021               	movlb	1	; select bank1
  2601     0702  00DF               	movwf	Read_Temperature@celsius^(0+128)
  2602     0703                     l2227:
  2603                           
  2604                           ;main.c: 287:       return celsius;
  2605     0703  0862               	movf	(Read_Temperature@celsius+3)^(0+128),w
  2606     0704  0020               	movlb	0	; select bank0
  2607     0705  00EB               	movwf	?_Read_Temperature+3
  2608     0706  0021               	movlb	1	; select bank1
  2609     0707  0861               	movf	(Read_Temperature@celsius+2)^(0+128),w
  2610     0708  0020               	movlb	0	; select bank0
  2611     0709  00EA               	movwf	?_Read_Temperature+2
  2612     070A  0021               	movlb	1	; select bank1
  2613     070B  0860               	movf	(Read_Temperature@celsius+1)^(0+128),w
  2614     070C  0020               	movlb	0	; select bank0
  2615     070D  00E9               	movwf	?_Read_Temperature+1
  2616     070E  0021               	movlb	1	; select bank1
  2617     070F  085F               	movf	Read_Temperature@celsius^(0+128),w
  2618     0710  0020               	movlb	0	; select bank0
  2619     0711  00E8               	movwf	?_Read_Temperature
  2620     0712                     l111:
  2621     0712  0008               	return
  2622     0713                     __end_of_Read_Temperature:
  2623                           
  2624                           	psect	text8
  2625     0713                     __ptext8:	
  2626 ;; *************** function ___xxtofl *****************
  2627 ;; Defined at:
  2628 ;;		line 10 in file "C:\Program Files\Microchip\xc8\v2.45\pic\sources\c99\common\xxtofl.c"
  2629 ;; Parameters:    Size  Location     Type
  2630 ;;  sign            1    wreg     unsigned char 
  2631 ;;  val             4    0[BANK0 ] long 
  2632 ;; Auto vars:     Size  Location     Type
  2633 ;;  sign            1    8[BANK0 ] unsigned char 
  2634 ;;  arg             4   10[BANK0 ] unsigned long 
  2635 ;;  exp             1    9[BANK0 ] unsigned char 
  2636 ;; Return value:  Size  Location     Type
  2637 ;;                  4    0[BANK0 ] unsigned char 
  2638 ;; Registers used:
  2639 ;;		wreg, status,2, status,0
  2640 ;; Tracked objects:
  2641 ;;		On entry : 0/0
  2642 ;;		On exit  : 0/0
  2643 ;;		Unchanged: 0/0
  2644 ;; Data sizes:     COMMON   BANK0   BANK1   BANK2   BANK3   BANK4   BANK5   BANK6   BANK7   BANK8   BANK9  BANK10  BANK1
      +1  BANK12  BANK13  BANK14  BANK15  BANK16  BANK17  BANK18  BANK19  BANK20  BANK21  BANK22  BANK23  BANK24  BANK25
  2645 ;;      Params:         0       4       0       0       0       0       0       0       0       0       0       0       
      +0       0       0       0       0       0       0       0       0       0       0       0       0       0       0
  2646 ;;      Locals:         0       6       0       0       0       0       0       0       0       0       0       0       
      +0       0       0       0       0       0       0       0       0       0       0       0       0       0       0
  2647 ;;      Temps:          0       4       0       0       0       0       0       0       0       0       0       0       
      +0       0       0       0       0       0       0       0       0       0       0       0       0       0       0
  2648 ;;      Totals:         0      14       0       0       0       0       0       0       0       0       0       0       
      +0       0       0       0       0       0       0       0       0       0       0       0       0       0       0
  2649 ;;Total ram usage:       14 bytes
  2650 ;; Hardware stack levels used: 1
  2651 ;; Hardware stack levels required when called: 4
  2652 ;; This function calls:
  2653 ;;		Nothing
  2654 ;; This function is called by:
  2655 ;;		_Read_Temperature
  2656 ;; This function uses a non-reentrant model
  2657 ;;
  2658                           
  2659     0713                     ___xxtofl:	
  2660                           ;psect for function ___xxtofl
  2661                           
  2662                           
  2663                           ;incstack = 0
  2664                           ; Regs used in ___xxtofl: [wreg+status,2+status,0]
  2665                           ;___xxtofl@sign stored from wreg
  2666     0713  0020               	movlb	0	; select bank0
  2667     0714  00A8               	movwf	___xxtofl@sign
  2668     0715                     l2077:
  2669     0715  0828               	movf	___xxtofl@sign,w
  2670     0716  1903               	btfsc	3,2
  2671     0717  2F19               	goto	u2581
  2672     0718  2F1A               	goto	u2580
  2673     0719                     u2581:
  2674     0719  2F2E               	goto	l2083
  2675     071A                     u2580:
  2676     071A                     l2079:
  2677     071A  1FA3               	btfss	___xxtofl@val+3,7
  2678     071B  2F1D               	goto	u2591
  2679     071C  2F1E               	goto	u2590
  2680     071D                     u2591:
  2681     071D  2F2E               	goto	l2083
  2682     071E                     u2590:
  2683     071E                     l2081:
  2684     071E  0920               	comf	___xxtofl@val,w
  2685     071F  00AA               	movwf	___xxtofl@arg
  2686     0720  0921               	comf	___xxtofl@val+1,w
  2687     0721  00AB               	movwf	___xxtofl@arg+1
  2688     0722  0922               	comf	___xxtofl@val+2,w
  2689     0723  00AC               	movwf	___xxtofl@arg+2
  2690     0724  0923               	comf	___xxtofl@val+3,w
  2691     0725  00AD               	movwf	___xxtofl@arg+3
  2692     0726  0AAA               	incf	___xxtofl@arg,f
  2693     0727  1903               	skipnz
  2694     0728  0AAB               	incf	___xxtofl@arg+1,f
  2695     0729  1903               	skipnz
  2696     072A  0AAC               	incf	___xxtofl@arg+2,f
  2697     072B  1903               	skipnz
  2698     072C  0AAD               	incf	___xxtofl@arg+3,f
  2699     072D  2F36               	goto	l689
  2700     072E                     l2083:
  2701     072E  0823               	movf	___xxtofl@val+3,w
  2702     072F  00AD               	movwf	___xxtofl@arg+3
  2703     0730  0822               	movf	___xxtofl@val+2,w
  2704     0731  00AC               	movwf	___xxtofl@arg+2
  2705     0732  0821               	movf	___xxtofl@val+1,w
  2706     0733  00AB               	movwf	___xxtofl@arg+1
  2707     0734  0820               	movf	___xxtofl@val,w
  2708     0735  00AA               	movwf	___xxtofl@arg
  2709     0736                     l689:
  2710     0736  0823               	movf	___xxtofl@val+3,w
  2711     0737  0422               	iorwf	___xxtofl@val+2,w
  2712     0738  0421               	iorwf	___xxtofl@val+1,w
  2713     0739  0420               	iorwf	___xxtofl@val,w
  2714     073A  1D03               	skipz
  2715     073B  2F3D               	goto	u2601
  2716     073C  2F3E               	goto	u2600
  2717     073D                     u2601:
  2718     073D  2F47               	goto	l2089
  2719     073E                     u2600:
  2720     073E                     l2085:
  2721     073E  3000               	movlw	0
  2722     073F  00A3               	movwf	?___xxtofl+3
  2723     0740  3000               	movlw	0
  2724     0741  00A2               	movwf	?___xxtofl+2
  2725     0742  3000               	movlw	0
  2726     0743  00A1               	movwf	?___xxtofl+1
  2727     0744  3000               	movlw	0
  2728     0745  00A0               	movwf	?___xxtofl
  2729     0746  2FBD               	goto	l691
  2730     0747                     l2089:
  2731     0747  3096               	movlw	150
  2732     0748  00A9               	movwf	___xxtofl@exp
  2733     0749  2F55               	goto	l2093
  2734     074A                     l2091:
  2735     074A  3001               	movlw	1
  2736     074B  00A4               	movwf	??___xxtofl
  2737     074C  0824               	movf	??___xxtofl,w
  2738     074D  07A9               	addwf	___xxtofl@exp,f
  2739     074E  3001               	movlw	1
  2740     074F                     u2615:
  2741     074F  36AD               	lsrf	___xxtofl@arg+3,f
  2742     0750  0CAC               	rrf	___xxtofl@arg+2,f
  2743     0751  0CAB               	rrf	___xxtofl@arg+1,f
  2744     0752  0CAA               	rrf	___xxtofl@arg,f
  2745     0753  0B89               	decfsz	9,f
  2746     0754  2F4F               	goto	u2615
  2747     0755                     l2093:
  2748     0755  30FE               	movlw	254
  2749     0756  052D               	andwf	___xxtofl@arg+3,w
  2750     0757  1D03               	btfss	3,2
  2751     0758  2F5A               	goto	u2621
  2752     0759  2F5B               	goto	u2620
  2753     075A                     u2621:
  2754     075A  2F4A               	goto	l2091
  2755     075B                     u2620:
  2756     075B  2F6F               	goto	l695
  2757     075C                     l2095:
  2758     075C  3001               	movlw	1
  2759     075D  00A4               	movwf	??___xxtofl
  2760     075E  0824               	movf	??___xxtofl,w
  2761     075F  07A9               	addwf	___xxtofl@exp,f
  2762     0760                     l2097:
  2763     0760  3001               	movlw	1
  2764     0761  07AA               	addwf	___xxtofl@arg,f
  2765     0762  3000               	movlw	0
  2766     0763  3DAB               	addwfc	___xxtofl@arg+1,f
  2767     0764  3000               	movlw	0
  2768     0765  3DAC               	addwfc	___xxtofl@arg+2,f
  2769     0766  3000               	movlw	0
  2770     0767  3DAD               	addwfc	___xxtofl@arg+3,f
  2771     0768                     l2099:
  2772     0768  3001               	movlw	1
  2773     0769                     u2635:
  2774     0769  36AD               	lsrf	___xxtofl@arg+3,f
  2775     076A  0CAC               	rrf	___xxtofl@arg+2,f
  2776     076B  0CAB               	rrf	___xxtofl@arg+1,f
  2777     076C  0CAA               	rrf	___xxtofl@arg,f
  2778     076D  0B89               	decfsz	9,f
  2779     076E  2F69               	goto	u2635
  2780     076F                     l695:
  2781     076F  30FF               	movlw	255
  2782     0770  052D               	andwf	___xxtofl@arg+3,w
  2783     0771  1D03               	btfss	3,2
  2784     0772  2F74               	goto	u2641
  2785     0773  2F75               	goto	u2640
  2786     0774                     u2641:
  2787     0774  2F5C               	goto	l2095
  2788     0775                     u2640:
  2789     0775  2F7F               	goto	l2103
  2790     0776                     l2101:
  2791     0776  3001               	movlw	1
  2792     0777  02A9               	subwf	___xxtofl@exp,f
  2793     0778  3001               	movlw	1
  2794     0779                     u2655:
  2795     0779  35AA               	lslf	___xxtofl@arg,f
  2796     077A  0DAB               	rlf	___xxtofl@arg+1,f
  2797     077B  0DAC               	rlf	___xxtofl@arg+2,f
  2798     077C  0DAD               	rlf	___xxtofl@arg+3,f
  2799     077D  0B89               	decfsz	9,f
  2800     077E  2F79               	goto	u2655
  2801     077F                     l2103:
  2802     077F  1BAC               	btfsc	___xxtofl@arg+2,7
  2803     0780  2F82               	goto	u2661
  2804     0781  2F83               	goto	u2660
  2805     0782                     u2661:
  2806     0782  2F89               	goto	l702
  2807     0783                     u2660:
  2808     0783                     l2105:
  2809     0783  3002               	movlw	2
  2810     0784  0229               	subwf	___xxtofl@exp,w
  2811     0785  1803               	skipnc
  2812     0786  2F88               	goto	u2671
  2813     0787  2F89               	goto	u2670
  2814     0788                     u2671:
  2815     0788  2F76               	goto	l2101
  2816     0789                     u2670:
  2817     0789                     l702:
  2818     0789  1829               	btfsc	___xxtofl@exp,0
  2819     078A  2F8C               	goto	u2681
  2820     078B  2F8D               	goto	u2680
  2821     078C                     u2681:
  2822     078C  2F95               	goto	l703
  2823     078D                     u2680:
  2824     078D                     l2107:
  2825     078D  30FF               	movlw	255
  2826     078E  05AA               	andwf	___xxtofl@arg,f
  2827     078F  30FF               	movlw	255
  2828     0790  05AB               	andwf	___xxtofl@arg+1,f
  2829     0791  307F               	movlw	127
  2830     0792  05AC               	andwf	___xxtofl@arg+2,f
  2831     0793  30FF               	movlw	255
  2832     0794  05AD               	andwf	___xxtofl@arg+3,f
  2833     0795                     l703:
  2834     0795  1003               	clrc
  2835     0796  0CA9               	rrf	___xxtofl@exp,f
  2836     0797                     l2109:
  2837     0797  0829               	movf	___xxtofl@exp,w
  2838     0798  00A4               	movwf	??___xxtofl
  2839     0799  01A5               	clrf	??___xxtofl+1
  2840     079A  01A6               	clrf	??___xxtofl+2
  2841     079B  01A7               	clrf	??___xxtofl+3
  2842     079C  3018               	movlw	24
  2843     079D                     u2695:
  2844     079D  35A4               	lslf	??___xxtofl,f
  2845     079E  0DA5               	rlf	??___xxtofl+1,f
  2846     079F  0DA6               	rlf	??___xxtofl+2,f
  2847     07A0  0DA7               	rlf	??___xxtofl+3,f
  2848     07A1                     u2690:
  2849     07A1  0B89               	decfsz	9,f
  2850     07A2  2F9D               	goto	u2695
  2851     07A3  0824               	movf	??___xxtofl,w
  2852     07A4  04AA               	iorwf	___xxtofl@arg,f
  2853     07A5  0825               	movf	??___xxtofl+1,w
  2854     07A6  04AB               	iorwf	___xxtofl@arg+1,f
  2855     07A7  0826               	movf	??___xxtofl+2,w
  2856     07A8  04AC               	iorwf	___xxtofl@arg+2,f
  2857     07A9  0827               	movf	??___xxtofl+3,w
  2858     07AA  04AD               	iorwf	___xxtofl@arg+3,f
  2859     07AB                     l2111:
  2860     07AB  0828               	movf	___xxtofl@sign,w
  2861     07AC  1903               	btfsc	3,2
  2862     07AD  2FAF               	goto	u2701
  2863     07AE  2FB0               	goto	u2700
  2864     07AF                     u2701:
  2865     07AF  2FB5               	goto	l2117
  2866     07B0                     u2700:
  2867     07B0                     l2113:
  2868     07B0  1FA3               	btfss	___xxtofl@val+3,7
  2869     07B1  2FB3               	goto	u2711
  2870     07B2  2FB4               	goto	u2710
  2871     07B3                     u2711:
  2872     07B3  2FB5               	goto	l2117
  2873     07B4                     u2710:
  2874     07B4                     l2115:
  2875     07B4  17AD               	bsf	___xxtofl@arg+3,7
  2876     07B5                     l2117:
  2877     07B5  082D               	movf	___xxtofl@arg+3,w
  2878     07B6  00A3               	movwf	?___xxtofl+3
  2879     07B7  082C               	movf	___xxtofl@arg+2,w
  2880     07B8  00A2               	movwf	?___xxtofl+2
  2881     07B9  082B               	movf	___xxtofl@arg+1,w
  2882     07BA  00A1               	movwf	?___xxtofl+1
  2883     07BB  082A               	movf	___xxtofl@arg,w
  2884     07BC  00A0               	movwf	?___xxtofl
  2885     07BD                     l691:
  2886     07BD  0008               	return
  2887     07BE                     __end_of___xxtofl:
  2888                           
  2889                           	psect	text9
  2890     001F                     __ptext9:	
  2891 ;; *************** function ___flmul *****************
  2892 ;; Defined at:
  2893 ;;		line 8 in file "C:\Program Files\Microchip\xc8\v2.45\pic\sources\c99\common\sprcmul.c"
  2894 ;; Parameters:    Size  Location     Type
  2895 ;;  b               4   20[BANK0 ] unsigned char 
  2896 ;;  a               4   24[BANK0 ] unsigned char 
  2897 ;; Auto vars:     Size  Location     Type
  2898 ;;  prod            4   40[BANK0 ] struct .
  2899 ;;  grs             4   34[BANK0 ] unsigned long 
  2900 ;;  temp            2   44[BANK0 ] struct .
  2901 ;;  bexp            1   39[BANK0 ] unsigned char 
  2902 ;;  aexp            1   38[BANK0 ] unsigned char 
  2903 ;;  sign            1   33[BANK0 ] unsigned char 
  2904 ;; Return value:  Size  Location     Type
  2905 ;;                  4   20[BANK0 ] unsigned char 
  2906 ;; Registers used:
  2907 ;;		wreg, status,2, status,0, pclath, cstack
  2908 ;; Tracked objects:
  2909 ;;		On entry : 0/0
  2910 ;;		On exit  : 0/0
  2911 ;;		Unchanged: 0/0
  2912 ;; Data sizes:     COMMON   BANK0   BANK1   BANK2   BANK3   BANK4   BANK5   BANK6   BANK7   BANK8   BANK9  BANK10  BANK1
      +1  BANK12  BANK13  BANK14  BANK15  BANK16  BANK17  BANK18  BANK19  BANK20  BANK21  BANK22  BANK23  BANK24  BANK25
  2913 ;;      Params:         0       8       0       0       0       0       0       0       0       0       0       0       
      +0       0       0       0       0       0       0       0       0       0       0       0       0       0       0
  2914 ;;      Locals:         0      13       0       0       0       0       0       0       0       0       0       0       
      +0       0       0       0       0       0       0       0       0       0       0       0       0       0       0
  2915 ;;      Temps:          0       5       0       0       0       0       0       0       0       0       0       0       
      +0       0       0       0       0       0       0       0       0       0       0       0       0       0       0
  2916 ;;      Totals:         0      26       0       0       0       0       0       0       0       0       0       0       
      +0       0       0       0       0       0       0       0       0       0       0       0       0       0       0
  2917 ;;Total ram usage:       26 bytes
  2918 ;; Hardware stack levels used: 1
  2919 ;; Hardware stack levels required when called: 5
  2920 ;; This function calls:
  2921 ;;		__Umul8_16
  2922 ;; This function is called by:
  2923 ;;		_Read_Temperature
  2924 ;; This function uses a non-reentrant model
  2925 ;;
  2926                           
  2927     001F                     ___flmul:	
  2928                           ;psect for function ___flmul
  2929                           
  2930     001F                     l1937:	
  2931                           ;incstack = 0
  2932                           ; Regs used in ___flmul: [wreg+status,2+status,0+pclath+cstack]
  2933                           
  2934     001F  0020               	movlb	0	; select bank0
  2935     0020  0837               	movf	___flmul@b+3,w
  2936     0021  3980               	andlw	128
  2937     0022  00C1               	movwf	___flmul@sign
  2938     0023                     l1939:
  2939     0023  3537               	lslf	___flmul@b+3,w
  2940     0024  00C7               	movwf	___flmul@bexp
  2941     0025                     l1941:
  2942     0025  1FB6               	btfss	___flmul@b+2,7
  2943     0026  2828               	goto	u2321
  2944     0027  2829               	goto	u2320
  2945     0028                     u2321:
  2946     0028  282A               	goto	l1945
  2947     0029                     u2320:
  2948     0029                     l1943:
  2949     0029  1447               	bsf	___flmul@bexp,0
  2950     002A                     l1945:
  2951     002A  0847               	movf	___flmul@bexp,w
  2952     002B  1903               	btfsc	3,2
  2953     002C  282E               	goto	u2331
  2954     002D  282F               	goto	u2330
  2955     002E                     u2331:
  2956     002E  283E               	goto	l1953
  2957     002F                     u2330:
  2958     002F                     l1947:
  2959     002F  0A47               	incf	___flmul@bexp,w
  2960     0030  1D03               	btfss	3,2
  2961     0031  2833               	goto	u2341
  2962     0032  2834               	goto	u2340
  2963     0033                     u2341:
  2964     0033  283C               	goto	l1951
  2965     0034                     u2340:
  2966     0034                     l1949:
  2967     0034  3000               	movlw	0
  2968     0035  00B7               	movwf	___flmul@b+3
  2969     0036  3000               	movlw	0
  2970     0037  00B6               	movwf	___flmul@b+2
  2971     0038  3000               	movlw	0
  2972     0039  00B5               	movwf	___flmul@b+1
  2973     003A  3000               	movlw	0
  2974     003B  00B4               	movwf	___flmul@b
  2975     003C                     l1951:
  2976     003C  17B6               	bsf	___flmul@b+2,7
  2977     003D  2846               	goto	l1955
  2978     003E                     l1953:
  2979     003E  3000               	movlw	0
  2980     003F  00B7               	movwf	___flmul@b+3
  2981     0040  3000               	movlw	0
  2982     0041  00B6               	movwf	___flmul@b+2
  2983     0042  3000               	movlw	0
  2984     0043  00B5               	movwf	___flmul@b+1
  2985     0044  3000               	movlw	0
  2986     0045  00B4               	movwf	___flmul@b
  2987     0046                     l1955:
  2988     0046  083B               	movf	___flmul@a+3,w
  2989     0047  3980               	andlw	128
  2990     0048  00BC               	movwf	??___flmul
  2991     0049  083C               	movf	??___flmul,w
  2992     004A  06C1               	xorwf	___flmul@sign,f
  2993     004B                     l1957:
  2994     004B  353B               	lslf	___flmul@a+3,w
  2995     004C  00C6               	movwf	___flmul@aexp
  2996     004D                     l1959:
  2997     004D  1FBA               	btfss	___flmul@a+2,7
  2998     004E  2850               	goto	u2351
  2999     004F  2851               	goto	u2350
  3000     0050                     u2351:
  3001     0050  2852               	goto	l1963
  3002     0051                     u2350:
  3003     0051                     l1961:
  3004     0051  1446               	bsf	___flmul@aexp,0
  3005     0052                     l1963:
  3006     0052  0846               	movf	___flmul@aexp,w
  3007     0053  1903               	btfsc	3,2
  3008     0054  2856               	goto	u2361
  3009     0055  2857               	goto	u2360
  3010     0056                     u2361:
  3011     0056  2866               	goto	l1971
  3012     0057                     u2360:
  3013     0057                     l1965:
  3014     0057  0A46               	incf	___flmul@aexp,w
  3015     0058  1D03               	btfss	3,2
  3016     0059  285B               	goto	u2371
  3017     005A  285C               	goto	u2370
  3018     005B                     u2371:
  3019     005B  2864               	goto	l1969
  3020     005C                     u2370:
  3021     005C                     l1967:
  3022     005C  3000               	movlw	0
  3023     005D  00BB               	movwf	___flmul@a+3
  3024     005E  3000               	movlw	0
  3025     005F  00BA               	movwf	___flmul@a+2
  3026     0060  3000               	movlw	0
  3027     0061  00B9               	movwf	___flmul@a+1
  3028     0062  3000               	movlw	0
  3029     0063  00B8               	movwf	___flmul@a
  3030     0064                     l1969:
  3031     0064  17BA               	bsf	___flmul@a+2,7
  3032     0065  286E               	goto	l1973
  3033     0066                     l1971:
  3034     0066  3000               	movlw	0
  3035     0067  00BB               	movwf	___flmul@a+3
  3036     0068  3000               	movlw	0
  3037     0069  00BA               	movwf	___flmul@a+2
  3038     006A  3000               	movlw	0
  3039     006B  00B9               	movwf	___flmul@a+1
  3040     006C  3000               	movlw	0
  3041     006D  00B8               	movwf	___flmul@a
  3042     006E                     l1973:
  3043     006E  0846               	movf	___flmul@aexp,w
  3044     006F  1903               	btfsc	3,2
  3045     0070  2872               	goto	u2381
  3046     0071  2873               	goto	u2380
  3047     0072                     u2381:
  3048     0072  2878               	goto	l1977
  3049     0073                     u2380:
  3050     0073                     l1975:
  3051     0073  0847               	movf	___flmul@bexp,w
  3052     0074  1D03               	btfss	3,2
  3053     0075  2877               	goto	u2391
  3054     0076  2878               	goto	u2390
  3055     0077                     u2391:
  3056     0077  2881               	goto	l1981
  3057     0078                     u2390:
  3058     0078                     l1977:
  3059     0078  3000               	movlw	0
  3060     0079  00B7               	movwf	?___flmul+3
  3061     007A  3000               	movlw	0
  3062     007B  00B6               	movwf	?___flmul+2
  3063     007C  3000               	movlw	0
  3064     007D  00B5               	movwf	?___flmul+1
  3065     007E  3000               	movlw	0
  3066     007F  00B4               	movwf	?___flmul
  3067     0080  2A59               	goto	l645
  3068     0081                     l1981:
  3069     0081  0834               	movf	___flmul@b,w
  3070     0082  00F6               	movwf	__Umul8_16@multiplicand
  3071     0083  083A               	movf	___flmul@a+2,w
  3072     0084  318E  2643  3180   	fcall	__Umul8_16
  3073     0087  0877               	movf	?__Umul8_16+1,w
  3074     0088  0020               	movlb	0	; select bank0
  3075     0089  00CD               	movwf	___flmul@temp+1
  3076     008A  0876               	movf	?__Umul8_16,w
  3077     008B  00CC               	movwf	___flmul@temp
  3078     008C                     l1983:
  3079     008C  084C               	movf	___flmul@temp,w
  3080     008D  00BC               	movwf	??___flmul
  3081     008E  01BD               	clrf	??___flmul+1
  3082     008F  01BE               	clrf	??___flmul+2
  3083     0090  01BF               	clrf	??___flmul+3
  3084     0091  083F               	movf	??___flmul+3,w
  3085     0092  00C5               	movwf	___flmul@grs+3
  3086     0093  083E               	movf	??___flmul+2,w
  3087     0094  00C4               	movwf	___flmul@grs+2
  3088     0095  083D               	movf	??___flmul+1,w
  3089     0096  00C3               	movwf	___flmul@grs+1
  3090     0097  083C               	movf	??___flmul,w
  3091     0098  00C2               	movwf	___flmul@grs
  3092     0099                     l1985:
  3093     0099  084D               	movf	___flmul@temp+1,w
  3094     009A  00BC               	movwf	??___flmul
  3095     009B  01BD               	clrf	??___flmul+1
  3096     009C  01BE               	clrf	??___flmul+2
  3097     009D  01BF               	clrf	??___flmul+3
  3098     009E  083F               	movf	??___flmul+3,w
  3099     009F  00CB               	movwf	___flmul@prod+3
  3100     00A0  083E               	movf	??___flmul+2,w
  3101     00A1  00CA               	movwf	___flmul@prod+2
  3102     00A2  083D               	movf	??___flmul+1,w
  3103     00A3  00C9               	movwf	___flmul@prod+1
  3104     00A4  083C               	movf	??___flmul,w
  3105     00A5  00C8               	movwf	___flmul@prod
  3106     00A6  0835               	movf	___flmul@b+1,w
  3107     00A7  00F6               	movwf	__Umul8_16@multiplicand
  3108     00A8  0839               	movf	___flmul@a+1,w
  3109     00A9  318E  2643  3180   	fcall	__Umul8_16
  3110     00AC  0877               	movf	?__Umul8_16+1,w
  3111     00AD  0020               	movlb	0	; select bank0
  3112     00AE  00CD               	movwf	___flmul@temp+1
  3113     00AF  0876               	movf	?__Umul8_16,w
  3114     00B0  00CC               	movwf	___flmul@temp
  3115     00B1                     l1987:
  3116     00B1  084C               	movf	___flmul@temp,w
  3117     00B2  00BC               	movwf	??___flmul
  3118     00B3  01BD               	clrf	??___flmul+1
  3119     00B4  01BE               	clrf	??___flmul+2
  3120     00B5  01BF               	clrf	??___flmul+3
  3121     00B6  083C               	movf	??___flmul,w
  3122     00B7  07C2               	addwf	___flmul@grs,f
  3123     00B8  083D               	movf	??___flmul+1,w
  3124     00B9  3DC3               	addwfc	___flmul@grs+1,f
  3125     00BA  083E               	movf	??___flmul+2,w
  3126     00BB  3DC4               	addwfc	___flmul@grs+2,f
  3127     00BC  083F               	movf	??___flmul+3,w
  3128     00BD  3DC5               	addwfc	___flmul@grs+3,f
  3129     00BE                     l1989:
  3130     00BE  084D               	movf	___flmul@temp+1,w
  3131     00BF  00BC               	movwf	??___flmul
  3132     00C0  01BD               	clrf	??___flmul+1
  3133     00C1  01BE               	clrf	??___flmul+2
  3134     00C2  01BF               	clrf	??___flmul+3
  3135     00C3  083C               	movf	??___flmul,w
  3136     00C4  07C8               	addwf	___flmul@prod,f
  3137     00C5  083D               	movf	??___flmul+1,w
  3138     00C6  3DC9               	addwfc	___flmul@prod+1,f
  3139     00C7  083E               	movf	??___flmul+2,w
  3140     00C8  3DCA               	addwfc	___flmul@prod+2,f
  3141     00C9  083F               	movf	??___flmul+3,w
  3142     00CA  3DCB               	addwfc	___flmul@prod+3,f
  3143     00CB  0836               	movf	___flmul@b+2,w
  3144     00CC  00F6               	movwf	__Umul8_16@multiplicand
  3145     00CD  0838               	movf	___flmul@a,w
  3146     00CE  318E  2643  3180   	fcall	__Umul8_16
  3147     00D1  0877               	movf	?__Umul8_16+1,w
  3148     00D2  0020               	movlb	0	; select bank0
  3149     00D3  00CD               	movwf	___flmul@temp+1
  3150     00D4  0876               	movf	?__Umul8_16,w
  3151     00D5  00CC               	movwf	___flmul@temp
  3152     00D6                     l1991:
  3153     00D6  084C               	movf	___flmul@temp,w
  3154     00D7  00BC               	movwf	??___flmul
  3155     00D8  01BD               	clrf	??___flmul+1
  3156     00D9  01BE               	clrf	??___flmul+2
  3157     00DA  01BF               	clrf	??___flmul+3
  3158     00DB  083C               	movf	??___flmul,w
  3159     00DC  07C2               	addwf	___flmul@grs,f
  3160     00DD  083D               	movf	??___flmul+1,w
  3161     00DE  3DC3               	addwfc	___flmul@grs+1,f
  3162     00DF  083E               	movf	??___flmul+2,w
  3163     00E0  3DC4               	addwfc	___flmul@grs+2,f
  3164     00E1  083F               	movf	??___flmul+3,w
  3165     00E2  3DC5               	addwfc	___flmul@grs+3,f
  3166     00E3                     l1993:
  3167     00E3  084D               	movf	___flmul@temp+1,w
  3168     00E4  00BC               	movwf	??___flmul
  3169     00E5  01BD               	clrf	??___flmul+1
  3170     00E6  01BE               	clrf	??___flmul+2
  3171     00E7  01BF               	clrf	??___flmul+3
  3172     00E8  083C               	movf	??___flmul,w
  3173     00E9  07C8               	addwf	___flmul@prod,f
  3174     00EA  083D               	movf	??___flmul+1,w
  3175     00EB  3DC9               	addwfc	___flmul@prod+1,f
  3176     00EC  083E               	movf	??___flmul+2,w
  3177     00ED  3DCA               	addwfc	___flmul@prod+2,f
  3178     00EE  083F               	movf	??___flmul+3,w
  3179     00EF  3DCB               	addwfc	___flmul@prod+3,f
  3180     00F0                     l1995:
  3181     00F0  3008               	movlw	8
  3182     00F1                     u2405:
  3183     00F1  35C2               	lslf	___flmul@grs,f
  3184     00F2  0DC3               	rlf	___flmul@grs+1,f
  3185     00F3  0DC4               	rlf	___flmul@grs+2,f
  3186     00F4  0DC5               	rlf	___flmul@grs+3,f
  3187     00F5  0B89               	decfsz	9,f
  3188     00F6  28F1               	goto	u2405
  3189     00F7                     l1997:
  3190     00F7  0835               	movf	___flmul@b+1,w
  3191     00F8  00F6               	movwf	__Umul8_16@multiplicand
  3192     00F9  0838               	movf	___flmul@a,w
  3193     00FA  318E  2643  3180   	fcall	__Umul8_16
  3194     00FD  0877               	movf	?__Umul8_16+1,w
  3195     00FE  0020               	movlb	0	; select bank0
  3196     00FF  00CD               	movwf	___flmul@temp+1
  3197     0100  0876               	movf	?__Umul8_16,w
  3198     0101  00CC               	movwf	___flmul@temp
  3199     0102                     l1999:
  3200     0102  084C               	movf	___flmul@temp,w
  3201     0103  07C2               	addwf	___flmul@grs,f
  3202     0104  084D               	movf	___flmul@temp+1,w
  3203     0105  3DC3               	addwfc	___flmul@grs+1,f
  3204     0106  3000               	movlw	0
  3205     0107  3DC4               	addwfc	___flmul@grs+2,f
  3206     0108  3DC5               	addwfc	___flmul@grs+3,f
  3207     0109                     l2001:
  3208     0109  0834               	movf	___flmul@b,w
  3209     010A  00F6               	movwf	__Umul8_16@multiplicand
  3210     010B  0839               	movf	___flmul@a+1,w
  3211     010C  318E  2643  3180   	fcall	__Umul8_16
  3212     010F  0877               	movf	?__Umul8_16+1,w
  3213     0110  0020               	movlb	0	; select bank0
  3214     0111  00CD               	movwf	___flmul@temp+1
  3215     0112  0876               	movf	?__Umul8_16,w
  3216     0113  00CC               	movwf	___flmul@temp
  3217     0114                     l2003:
  3218     0114  084C               	movf	___flmul@temp,w
  3219     0115  07C2               	addwf	___flmul@grs,f
  3220     0116  084D               	movf	___flmul@temp+1,w
  3221     0117  3DC3               	addwfc	___flmul@grs+1,f
  3222     0118  3000               	movlw	0
  3223     0119  3DC4               	addwfc	___flmul@grs+2,f
  3224     011A  3DC5               	addwfc	___flmul@grs+3,f
  3225     011B                     l2005:
  3226     011B  3008               	movlw	8
  3227     011C                     u2415:
  3228     011C  35C2               	lslf	___flmul@grs,f
  3229     011D  0DC3               	rlf	___flmul@grs+1,f
  3230     011E  0DC4               	rlf	___flmul@grs+2,f
  3231     011F  0DC5               	rlf	___flmul@grs+3,f
  3232     0120  0B89               	decfsz	9,f
  3233     0121  291C               	goto	u2415
  3234     0122  0834               	movf	___flmul@b,w
  3235     0123  00F6               	movwf	__Umul8_16@multiplicand
  3236     0124  0838               	movf	___flmul@a,w
  3237     0125  318E  2643  3180   	fcall	__Umul8_16
  3238     0128  0877               	movf	?__Umul8_16+1,w
  3239     0129  0020               	movlb	0	; select bank0
  3240     012A  00CD               	movwf	___flmul@temp+1
  3241     012B  0876               	movf	?__Umul8_16,w
  3242     012C  00CC               	movwf	___flmul@temp
  3243     012D                     l2007:
  3244     012D  084C               	movf	___flmul@temp,w
  3245     012E  07C2               	addwf	___flmul@grs,f
  3246     012F  084D               	movf	___flmul@temp+1,w
  3247     0130  3DC3               	addwfc	___flmul@grs+1,f
  3248     0131  3000               	movlw	0
  3249     0132  3DC4               	addwfc	___flmul@grs+2,f
  3250     0133  3DC5               	addwfc	___flmul@grs+3,f
  3251     0134                     l2009:
  3252     0134  0835               	movf	___flmul@b+1,w
  3253     0135  00F6               	movwf	__Umul8_16@multiplicand
  3254     0136  083A               	movf	___flmul@a+2,w
  3255     0137  318E  2643  3180   	fcall	__Umul8_16
  3256     013A  0877               	movf	?__Umul8_16+1,w
  3257     013B  0020               	movlb	0	; select bank0
  3258     013C  00CD               	movwf	___flmul@temp+1
  3259     013D  0876               	movf	?__Umul8_16,w
  3260     013E  00CC               	movwf	___flmul@temp
  3261     013F  084C               	movf	___flmul@temp,w
  3262     0140  07C8               	addwf	___flmul@prod,f
  3263     0141  084D               	movf	___flmul@temp+1,w
  3264     0142  3DC9               	addwfc	___flmul@prod+1,f
  3265     0143  3000               	movlw	0
  3266     0144  3DCA               	addwfc	___flmul@prod+2,f
  3267     0145  3DCB               	addwfc	___flmul@prod+3,f
  3268     0146                     l2011:
  3269     0146  0836               	movf	___flmul@b+2,w
  3270     0147  00F6               	movwf	__Umul8_16@multiplicand
  3271     0148  0839               	movf	___flmul@a+1,w
  3272     0149  318E  2643  3180   	fcall	__Umul8_16
  3273     014C  0877               	movf	?__Umul8_16+1,w
  3274     014D  0020               	movlb	0	; select bank0
  3275     014E  00CD               	movwf	___flmul@temp+1
  3276     014F  0876               	movf	?__Umul8_16,w
  3277     0150  00CC               	movwf	___flmul@temp
  3278     0151                     l2013:
  3279     0151  084C               	movf	___flmul@temp,w
  3280     0152  07C8               	addwf	___flmul@prod,f
  3281     0153  084D               	movf	___flmul@temp+1,w
  3282     0154  3DC9               	addwfc	___flmul@prod+1,f
  3283     0155  3000               	movlw	0
  3284     0156  3DCA               	addwfc	___flmul@prod+2,f
  3285     0157  3DCB               	addwfc	___flmul@prod+3,f
  3286     0158  0836               	movf	___flmul@b+2,w
  3287     0159  00F6               	movwf	__Umul8_16@multiplicand
  3288     015A  083A               	movf	___flmul@a+2,w
  3289     015B  318E  2643  3180   	fcall	__Umul8_16
  3290     015E  0877               	movf	?__Umul8_16+1,w
  3291     015F  0020               	movlb	0	; select bank0
  3292     0160  00CD               	movwf	___flmul@temp+1
  3293     0161  0876               	movf	?__Umul8_16,w
  3294     0162  00CC               	movwf	___flmul@temp
  3295     0163                     l2015:
  3296     0163  084C               	movf	___flmul@temp,w
  3297     0164  00BC               	movwf	??___flmul
  3298     0165  084D               	movf	___flmul@temp+1,w
  3299     0166  00BD               	movwf	??___flmul+1
  3300     0167  01BE               	clrf	??___flmul+2
  3301     0168  01BF               	clrf	??___flmul+3
  3302     0169  3008               	movlw	8
  3303     016A                     u2425:
  3304     016A  35BC               	lslf	??___flmul,f
  3305     016B  0DBD               	rlf	??___flmul+1,f
  3306     016C  0DBE               	rlf	??___flmul+2,f
  3307     016D  0DBF               	rlf	??___flmul+3,f
  3308     016E                     u2420:
  3309     016E  0B89               	decfsz	9,f
  3310     016F  296A               	goto	u2425
  3311     0170  083C               	movf	??___flmul,w
  3312     0171  07C8               	addwf	___flmul@prod,f
  3313     0172  083D               	movf	??___flmul+1,w
  3314     0173  3DC9               	addwfc	___flmul@prod+1,f
  3315     0174  083E               	movf	??___flmul+2,w
  3316     0175  3DCA               	addwfc	___flmul@prod+2,f
  3317     0176  083F               	movf	??___flmul+3,w
  3318     0177  3DCB               	addwfc	___flmul@prod+3,f
  3319     0178                     l2017:
  3320     0178  0842               	movf	___flmul@grs,w
  3321     0179  00BC               	movwf	??___flmul
  3322     017A  0843               	movf	___flmul@grs+1,w
  3323     017B  00BD               	movwf	??___flmul+1
  3324     017C  0844               	movf	___flmul@grs+2,w
  3325     017D  00BE               	movwf	??___flmul+2
  3326     017E  0845               	movf	___flmul@grs+3,w
  3327     017F  00BF               	movwf	??___flmul+3
  3328     0180  3018               	movlw	24
  3329     0181                     u2435:
  3330     0181  36BF               	lsrf	??___flmul+3,f
  3331     0182  0CBE               	rrf	??___flmul+2,f
  3332     0183  0CBD               	rrf	??___flmul+1,f
  3333     0184  0CBC               	rrf	??___flmul,f
  3334     0185                     u2430:
  3335     0185  0B89               	decfsz	9,f
  3336     0186  2981               	goto	u2435
  3337     0187  083C               	movf	??___flmul,w
  3338     0188  07C8               	addwf	___flmul@prod,f
  3339     0189  083D               	movf	??___flmul+1,w
  3340     018A  3DC9               	addwfc	___flmul@prod+1,f
  3341     018B  083E               	movf	??___flmul+2,w
  3342     018C  3DCA               	addwfc	___flmul@prod+2,f
  3343     018D  083F               	movf	??___flmul+3,w
  3344     018E  3DCB               	addwfc	___flmul@prod+3,f
  3345     018F                     l2019:
  3346     018F  3008               	movlw	8
  3347     0190                     u2445:
  3348     0190  35C2               	lslf	___flmul@grs,f
  3349     0191  0DC3               	rlf	___flmul@grs+1,f
  3350     0192  0DC4               	rlf	___flmul@grs+2,f
  3351     0193  0DC5               	rlf	___flmul@grs+3,f
  3352     0194  0B89               	decfsz	9,f
  3353     0195  2990               	goto	u2445
  3354     0196                     l2021:
  3355     0196  0847               	movf	___flmul@bexp,w
  3356     0197  0746               	addwf	___flmul@aexp,w
  3357     0198  00BC               	movwf	??___flmul
  3358     0199  01BD               	clrf	??___flmul+1
  3359     019A  0DBD               	rlf	??___flmul+1,f
  3360     019B  083C               	movf	??___flmul,w
  3361     019C  3E82               	addlw	130
  3362     019D  00CC               	movwf	___flmul@temp
  3363     019E  30FF               	movlw	255
  3364     019F  3D3D               	addwfc	??___flmul+1,w
  3365     01A0  00CD               	movwf	___flmul@temp+1
  3366     01A1  29B9               	goto	l2033
  3367     01A2                     l2023:
  3368     01A2  3001               	movlw	1
  3369     01A3                     u2455:
  3370     01A3  35C8               	lslf	___flmul@prod,f
  3371     01A4  0DC9               	rlf	___flmul@prod+1,f
  3372     01A5  0DCA               	rlf	___flmul@prod+2,f
  3373     01A6  0DCB               	rlf	___flmul@prod+3,f
  3374     01A7  0B89               	decfsz	9,f
  3375     01A8  29A3               	goto	u2455
  3376     01A9                     l2025:
  3377     01A9  1FC5               	btfss	___flmul@grs+3,7
  3378     01AA  29AC               	goto	u2461
  3379     01AB  29AD               	goto	u2460
  3380     01AC                     u2461:
  3381     01AC  29AE               	goto	l2029
  3382     01AD                     u2460:
  3383     01AD                     l2027:
  3384     01AD  1448               	bsf	___flmul@prod,0
  3385     01AE                     l2029:
  3386     01AE  3001               	movlw	1
  3387     01AF                     u2475:
  3388     01AF  35C2               	lslf	___flmul@grs,f
  3389     01B0  0DC3               	rlf	___flmul@grs+1,f
  3390     01B1  0DC4               	rlf	___flmul@grs+2,f
  3391     01B2  0DC5               	rlf	___flmul@grs+3,f
  3392     01B3  0B89               	decfsz	9,f
  3393     01B4  29AF               	goto	u2475
  3394     01B5                     l2031:
  3395     01B5  30FF               	movlw	255
  3396     01B6  07CC               	addwf	___flmul@temp,f
  3397     01B7  30FF               	movlw	255
  3398     01B8  3DCD               	addwfc	___flmul@temp+1,f
  3399     01B9                     l2033:
  3400     01B9  1FCA               	btfss	___flmul@prod+2,7
  3401     01BA  29BC               	goto	u2481
  3402     01BB  29BD               	goto	u2480
  3403     01BC                     u2481:
  3404     01BC  29A2               	goto	l2023
  3405     01BD                     u2480:
  3406     01BD                     l2035:
  3407     01BD  01C6               	clrf	___flmul@aexp
  3408     01BE                     l2037:
  3409     01BE  1FC5               	btfss	___flmul@grs+3,7
  3410     01BF  29C1               	goto	u2491
  3411     01C0  29C2               	goto	u2490
  3412     01C1                     u2491:
  3413     01C1  29DE               	goto	l2045
  3414     01C2                     u2490:
  3415     01C2                     l2039:
  3416     01C2  30FF               	movlw	255
  3417     01C3  0542               	andwf	___flmul@grs,w
  3418     01C4  00BC               	movwf	??___flmul
  3419     01C5  30FF               	movlw	255
  3420     01C6  0543               	andwf	___flmul@grs+1,w
  3421     01C7  00BD               	movwf	??___flmul+1
  3422     01C8  30FF               	movlw	255
  3423     01C9  0544               	andwf	___flmul@grs+2,w
  3424     01CA  00BE               	movwf	??___flmul+2
  3425     01CB  307F               	movlw	127
  3426     01CC  0545               	andwf	___flmul@grs+3,w
  3427     01CD  00BF               	movwf	??___flmul+3
  3428     01CE  083F               	movf	??___flmul+3,w
  3429     01CF  043E               	iorwf	??___flmul+2,w
  3430     01D0  043D               	iorwf	??___flmul+1,w
  3431     01D1  043C               	iorwf	??___flmul,w
  3432     01D2  1903               	skipnz
  3433     01D3  29D5               	goto	u2501
  3434     01D4  29D6               	goto	u2500
  3435     01D5                     u2501:
  3436     01D5  29D9               	goto	l651
  3437     01D6                     u2500:
  3438     01D6                     l2041:
  3439     01D6  01C6               	clrf	___flmul@aexp
  3440     01D7  0AC6               	incf	___flmul@aexp,f
  3441     01D8  29DE               	goto	l2045
  3442     01D9                     l651:
  3443     01D9  1C48               	btfss	___flmul@prod,0
  3444     01DA  29DC               	goto	u2511
  3445     01DB  29DD               	goto	u2510
  3446     01DC                     u2511:
  3447     01DC  29DE               	goto	l2045
  3448     01DD                     u2510:
  3449     01DD  29D6               	goto	l2041
  3450     01DE                     l2045:
  3451     01DE  0846               	movf	___flmul@aexp,w
  3452     01DF  1903               	btfsc	3,2
  3453     01E0  29E2               	goto	u2521
  3454     01E1  29E3               	goto	u2520
  3455     01E2                     u2521:
  3456     01E2  2A0B               	goto	l2055
  3457     01E3                     u2520:
  3458     01E3                     l2047:
  3459     01E3  3001               	movlw	1
  3460     01E4  07C8               	addwf	___flmul@prod,f
  3461     01E5  3000               	movlw	0
  3462     01E6  3DC9               	addwfc	___flmul@prod+1,f
  3463     01E7  3000               	movlw	0
  3464     01E8  3DCA               	addwfc	___flmul@prod+2,f
  3465     01E9  3000               	movlw	0
  3466     01EA  3DCB               	addwfc	___flmul@prod+3,f
  3467     01EB                     l2049:
  3468     01EB  1C4B               	btfss	___flmul@prod+3,0
  3469     01EC  29EE               	goto	u2531
  3470     01ED  29EF               	goto	u2530
  3471     01EE                     u2531:
  3472     01EE  2A0B               	goto	l2055
  3473     01EF                     u2530:
  3474     01EF                     l2051:
  3475     01EF  0848               	movf	___flmul@prod,w
  3476     01F0  00BC               	movwf	??___flmul
  3477     01F1  0849               	movf	___flmul@prod+1,w
  3478     01F2  00BD               	movwf	??___flmul+1
  3479     01F3  084A               	movf	___flmul@prod+2,w
  3480     01F4  00BE               	movwf	??___flmul+2
  3481     01F5  084B               	movf	___flmul@prod+3,w
  3482     01F6  00BF               	movwf	??___flmul+3
  3483     01F7  3001               	movlw	1
  3484     01F8  00C0               	movwf	??___flmul+4
  3485     01F9                     u2545:
  3486     01F9  37BF               	asrf	??___flmul+3,f
  3487     01FA  0CBE               	rrf	??___flmul+2,f
  3488     01FB  0CBD               	rrf	??___flmul+1,f
  3489     01FC  0CBC               	rrf	??___flmul,f
  3490     01FD                     u2540:
  3491     01FD  0BC0               	decfsz	??___flmul+4,f
  3492     01FE  29F9               	goto	u2545
  3493     01FF  083F               	movf	??___flmul+3,w
  3494     0200  00CB               	movwf	___flmul@prod+3
  3495     0201  083E               	movf	??___flmul+2,w
  3496     0202  00CA               	movwf	___flmul@prod+2
  3497     0203  083D               	movf	??___flmul+1,w
  3498     0204  00C9               	movwf	___flmul@prod+1
  3499     0205  083C               	movf	??___flmul,w
  3500     0206  00C8               	movwf	___flmul@prod
  3501     0207                     l2053:
  3502     0207  3001               	movlw	1
  3503     0208  07CC               	addwf	___flmul@temp,f
  3504     0209  3000               	movlw	0
  3505     020A  3DCD               	addwfc	___flmul@temp+1,f
  3506     020B                     l2055:
  3507     020B  084D               	movf	___flmul@temp+1,w
  3508     020C  3A80               	xorlw	128
  3509     020D  00BC               	movwf	??___flmul
  3510     020E  3080               	movlw	128
  3511     020F  023C               	subwf	??___flmul,w
  3512     0210  1D03               	skipz
  3513     0211  2A14               	goto	u2555
  3514     0212  30FF               	movlw	255
  3515     0213  024C               	subwf	___flmul@temp,w
  3516     0214                     u2555:
  3517     0214  1C03               	skipc
  3518     0215  2A17               	goto	u2551
  3519     0216  2A18               	goto	u2550
  3520     0217                     u2551:
  3521     0217  2A22               	goto	l2059
  3522     0218                     u2550:
  3523     0218                     l2057:
  3524     0218  307F               	movlw	127
  3525     0219  0020               	movlb	0	; select bank0
  3526     021A  00CB               	movwf	___flmul@prod+3
  3527     021B  3080               	movlw	128
  3528     021C  00CA               	movwf	___flmul@prod+2
  3529     021D  3000               	movlw	0
  3530     021E  00C9               	movwf	___flmul@prod+1
  3531     021F  3000               	movlw	0
  3532     0220  00C8               	movwf	___flmul@prod
  3533     0221  2A4D               	goto	l657
  3534     0222                     l2059:
  3535     0222  0020               	movlb	0	; select bank0
  3536     0223  084D               	movf	___flmul@temp+1,w
  3537     0224  3A80               	xorlw	128
  3538     0225  00BC               	movwf	??___flmul
  3539     0226  3080               	movlw	128
  3540     0227  023C               	subwf	??___flmul,w
  3541     0228  1D03               	skipz
  3542     0229  2A2C               	goto	u2565
  3543     022A  3001               	movlw	1
  3544     022B  024C               	subwf	___flmul@temp,w
  3545     022C                     u2565:
  3546     022C  1803               	skipnc
  3547     022D  2A2F               	goto	u2561
  3548     022E  2A30               	goto	u2560
  3549     022F                     u2561:
  3550     022F  2A3B               	goto	l2065
  3551     0230                     u2560:
  3552     0230                     l2061:
  3553     0230  3000               	movlw	0
  3554     0231  0020               	movlb	0	; select bank0
  3555     0232  00CB               	movwf	___flmul@prod+3
  3556     0233  3000               	movlw	0
  3557     0234  00CA               	movwf	___flmul@prod+2
  3558     0235  3000               	movlw	0
  3559     0236  00C9               	movwf	___flmul@prod+1
  3560     0237  3000               	movlw	0
  3561     0238  00C8               	movwf	___flmul@prod
  3562     0239                     l2063:
  3563     0239  01C1               	clrf	___flmul@sign
  3564     023A  2A4D               	goto	l657
  3565     023B                     l2065:
  3566     023B  0020               	movlb	0	; select bank0
  3567     023C  084C               	movf	___flmul@temp,w
  3568     023D  00C7               	movwf	___flmul@bexp
  3569     023E  30FF               	movlw	255
  3570     023F  05C8               	andwf	___flmul@prod,f
  3571     0240  30FF               	movlw	255
  3572     0241  05C9               	andwf	___flmul@prod+1,f
  3573     0242  307F               	movlw	127
  3574     0243  05CA               	andwf	___flmul@prod+2,f
  3575     0244  3000               	movlw	0
  3576     0245  05CB               	andwf	___flmul@prod+3,f
  3577     0246                     l2067:
  3578     0246  1C47               	btfss	___flmul@bexp,0
  3579     0247  2A49               	goto	u2571
  3580     0248  2A4A               	goto	u2570
  3581     0249                     u2571:
  3582     0249  2A4B               	goto	l2071
  3583     024A                     u2570:
  3584     024A                     l2069:
  3585     024A  17CA               	bsf	___flmul@prod+2,7
  3586     024B                     l2071:
  3587     024B  3647               	lsrf	___flmul@bexp,w
  3588     024C  00CB               	movwf	___flmul@prod+3
  3589     024D                     l657:
  3590     024D  0841               	movf	___flmul@sign,w
  3591     024E  00BC               	movwf	??___flmul
  3592     024F  083C               	movf	??___flmul,w
  3593     0250  04CB               	iorwf	___flmul@prod+3,f
  3594     0251                     l2073:
  3595     0251  084B               	movf	___flmul@prod+3,w
  3596     0252  00B7               	movwf	?___flmul+3
  3597     0253  084A               	movf	___flmul@prod+2,w
  3598     0254  00B6               	movwf	?___flmul+2
  3599     0255  0849               	movf	___flmul@prod+1,w
  3600     0256  00B5               	movwf	?___flmul+1
  3601     0257  0848               	movf	___flmul@prod,w
  3602     0258  00B4               	movwf	?___flmul
  3603     0259                     l645:
  3604     0259  0008               	return
  3605     025A                     __end_of___flmul:
  3606                           
  3607                           	psect	text10
  3608     0E43                     __ptext10:	
  3609 ;; *************** function __Umul8_16 *****************
  3610 ;; Defined at:
  3611 ;;		line 4 in file "C:\Program Files\Microchip\xc8\v2.45\pic\sources\c99\common\Umul8_16.c"
  3612 ;; Parameters:    Size  Location     Type
  3613 ;;  multiplier      1    wreg     unsigned char 
  3614 ;;  multiplicand    1    6[COMMON] unsigned char 
  3615 ;; Auto vars:     Size  Location     Type
  3616 ;;  multiplier      1    6[BANK0 ] unsigned char 
  3617 ;;  word_mpld       2    4[BANK0 ] unsigned short 
  3618 ;;  product         2    2[BANK0 ] unsigned short 
  3619 ;; Return value:  Size  Location     Type
  3620 ;;                  2    6[COMMON] unsigned int 
  3621 ;; Registers used:
  3622 ;;		wreg, status,2, status,0
  3623 ;; Tracked objects:
  3624 ;;		On entry : 0/0
  3625 ;;		On exit  : 0/0
  3626 ;;		Unchanged: 0/0
  3627 ;; Data sizes:     COMMON   BANK0   BANK1   BANK2   BANK3   BANK4   BANK5   BANK6   BANK7   BANK8   BANK9  BANK10  BANK1
      +1  BANK12  BANK13  BANK14  BANK15  BANK16  BANK17  BANK18  BANK19  BANK20  BANK21  BANK22  BANK23  BANK24  BANK25
  3628 ;;      Params:         2       0       0       0       0       0       0       0       0       0       0       0       
      +0       0       0       0       0       0       0       0       0       0       0       0       0       0       0
  3629 ;;      Locals:         0       5       0       0       0       0       0       0       0       0       0       0       
      +0       0       0       0       0       0       0       0       0       0       0       0       0       0       0
  3630 ;;      Temps:          0       2       0       0       0       0       0       0       0       0       0       0       
      +0       0       0       0       0       0       0       0       0       0       0       0       0       0       0
  3631 ;;      Totals:         2       7       0       0       0       0       0       0       0       0       0       0       
      +0       0       0       0       0       0       0       0       0       0       0       0       0       0       0
  3632 ;;Total ram usage:        9 bytes
  3633 ;; Hardware stack levels used: 1
  3634 ;; Hardware stack levels required when called: 4
  3635 ;; This function calls:
  3636 ;;		Nothing
  3637 ;; This function is called by:
  3638 ;;		___flmul
  3639 ;; This function uses a non-reentrant model
  3640 ;;
  3641                           
  3642     0E43                     __Umul8_16:	
  3643                           ;psect for function __Umul8_16
  3644                           
  3645                           
  3646                           ;incstack = 0
  3647                           ; Regs used in __Umul8_16: [wreg+status,2+status,0]
  3648                           ;__Umul8_16@multiplier stored from wreg
  3649     0E43  0020               	movlb	0	; select bank0
  3650     0E44  00A6               	movwf	__Umul8_16@multiplier
  3651     0E45                     l1527:
  3652     0E45  01A2               	clrf	__Umul8_16@product
  3653     0E46  01A3               	clrf	__Umul8_16@product+1
  3654     0E47                     l1529:
  3655     0E47  0876               	movf	__Umul8_16@multiplicand,w
  3656     0E48  00A0               	movwf	??__Umul8_16
  3657     0E49  01A1               	clrf	??__Umul8_16+1
  3658     0E4A  0820               	movf	??__Umul8_16,w
  3659     0E4B  00A4               	movwf	__Umul8_16@word_mpld
  3660     0E4C  0821               	movf	??__Umul8_16+1,w
  3661     0E4D  00A5               	movwf	__Umul8_16@word_mpld+1
  3662     0E4E                     l1531:
  3663     0E4E  1C26               	btfss	__Umul8_16@multiplier,0
  3664     0E4F  2E51               	goto	u1431
  3665     0E50  2E52               	goto	u1430
  3666     0E51                     u1431:
  3667     0E51  2E56               	goto	l664
  3668     0E52                     u1430:
  3669     0E52                     l1533:
  3670     0E52  0824               	movf	__Umul8_16@word_mpld,w
  3671     0E53  07A2               	addwf	__Umul8_16@product,f
  3672     0E54  0825               	movf	__Umul8_16@word_mpld+1,w
  3673     0E55  3DA3               	addwfc	__Umul8_16@product+1,f
  3674     0E56                     l664:
  3675     0E56  3001               	movlw	1
  3676     0E57                     u1445:
  3677     0E57  35A4               	lslf	__Umul8_16@word_mpld,f
  3678     0E58  0DA5               	rlf	__Umul8_16@word_mpld+1,f
  3679     0E59  0B89               	decfsz	9,f
  3680     0E5A  2E57               	goto	u1445
  3681     0E5B  1003               	clrc
  3682     0E5C  0CA6               	rrf	__Umul8_16@multiplier,f
  3683     0E5D                     l1535:
  3684     0E5D  0826               	movf	__Umul8_16@multiplier,w
  3685     0E5E  1D03               	btfss	3,2
  3686     0E5F  2E61               	goto	u1451
  3687     0E60  2E62               	goto	u1450
  3688     0E61                     u1451:
  3689     0E61  2E4E               	goto	l1531
  3690     0E62                     u1450:
  3691     0E62                     l1537:
  3692     0E62  0823               	movf	__Umul8_16@product+1,w
  3693     0E63  00F7               	movwf	?__Umul8_16+1
  3694     0E64  0822               	movf	__Umul8_16@product,w
  3695     0E65  00F6               	movwf	?__Umul8_16
  3696     0E66                     l666:
  3697     0E66  0008               	return
  3698     0E67                     __end_of__Umul8_16:
  3699                           
  3700                           	psect	text11
  3701     0462                     __ptext11:	
  3702 ;; *************** function ___fldiv *****************
  3703 ;; Defined at:
  3704 ;;		line 8 in file "C:\Program Files\Microchip\xc8\v2.45\pic\sources\c99\common\sprcdiv.c"
  3705 ;; Parameters:    Size  Location     Type
  3706 ;;  a               4   46[BANK0 ] unsigned int 
  3707 ;;  b               4   50[BANK0 ] unsigned int 
  3708 ;; Auto vars:     Size  Location     Type
  3709 ;;  grs             4   66[BANK0 ] unsigned long 
  3710 ;;  rem             4   59[BANK0 ] unsigned long 
  3711 ;;  new_exp         2   64[BANK0 ] short 
  3712 ;;  aexp            1   71[BANK0 ] unsigned char 
  3713 ;;  bexp            1   70[BANK0 ] unsigned char 
  3714 ;;  sign            1   63[BANK0 ] unsigned char 
  3715 ;; Return value:  Size  Location     Type
  3716 ;;                  4   46[BANK0 ] unsigned char 
  3717 ;; Registers used:
  3718 ;;		wreg, status,2, status,0
  3719 ;; Tracked objects:
  3720 ;;		On entry : 0/0
  3721 ;;		On exit  : 0/0
  3722 ;;		Unchanged: 0/0
  3723 ;; Data sizes:     COMMON   BANK0   BANK1   BANK2   BANK3   BANK4   BANK5   BANK6   BANK7   BANK8   BANK9  BANK10  BANK1
      +1  BANK12  BANK13  BANK14  BANK15  BANK16  BANK17  BANK18  BANK19  BANK20  BANK21  BANK22  BANK23  BANK24  BANK25
  3724 ;;      Params:         0       8       0       0       0       0       0       0       0       0       0       0       
      +0       0       0       0       0       0       0       0       0       0       0       0       0       0       0
  3725 ;;      Locals:         0      13       0       0       0       0       0       0       0       0       0       0       
      +0       0       0       0       0       0       0       0       0       0       0       0       0       0       0
  3726 ;;      Temps:          0       5       0       0       0       0       0       0       0       0       0       0       
      +0       0       0       0       0       0       0       0       0       0       0       0       0       0       0
  3727 ;;      Totals:         0      26       0       0       0       0       0       0       0       0       0       0       
      +0       0       0       0       0       0       0       0       0       0       0       0       0       0       0
  3728 ;;Total ram usage:       26 bytes
  3729 ;; Hardware stack levels used: 1
  3730 ;; Hardware stack levels required when called: 4
  3731 ;; This function calls:
  3732 ;;		Nothing
  3733 ;; This function is called by:
  3734 ;;		_Read_Temperature
  3735 ;; This function uses a non-reentrant model
  3736 ;;
  3737                           
  3738     0462                     ___fldiv:	
  3739                           ;psect for function ___fldiv
  3740                           
  3741     0462                     l1797:	
  3742                           ;incstack = 0
  3743                           ; Regs used in ___fldiv: [wreg+status,2+status,0]
  3744                           
  3745     0462  0020               	movlb	0	; select bank0
  3746     0463  0855               	movf	___fldiv@b+3,w
  3747     0464  3980               	andlw	128
  3748     0465  00DF               	movwf	___fldiv@sign
  3749     0466                     l1799:
  3750     0466  3555               	lslf	___fldiv@b+3,w
  3751     0467  00E6               	movwf	___fldiv@bexp
  3752     0468                     l1801:
  3753     0468  1FD4               	btfss	___fldiv@b+2,7
  3754     0469  2C6B               	goto	u2031
  3755     046A  2C6C               	goto	u2030
  3756     046B                     u2031:
  3757     046B  2C6D               	goto	l1805
  3758     046C                     u2030:
  3759     046C                     l1803:
  3760     046C  1466               	bsf	___fldiv@bexp,0
  3761     046D                     l1805:
  3762     046D  0866               	movf	___fldiv@bexp,w
  3763     046E  1903               	btfsc	3,2
  3764     046F  2C71               	goto	u2041
  3765     0470  2C72               	goto	u2040
  3766     0471                     u2041:
  3767     0471  2C82               	goto	l1815
  3768     0472                     u2040:
  3769     0472                     l1807:
  3770     0472  0A66               	incf	___fldiv@bexp,w
  3771     0473  1D03               	btfss	3,2
  3772     0474  2C76               	goto	u2051
  3773     0475  2C77               	goto	u2050
  3774     0476                     u2051:
  3775     0476  2C7F               	goto	l1811
  3776     0477                     u2050:
  3777     0477                     l1809:
  3778     0477  3000               	movlw	0
  3779     0478  00D5               	movwf	___fldiv@b+3
  3780     0479  3000               	movlw	0
  3781     047A  00D4               	movwf	___fldiv@b+2
  3782     047B  3000               	movlw	0
  3783     047C  00D3               	movwf	___fldiv@b+1
  3784     047D  3000               	movlw	0
  3785     047E  00D2               	movwf	___fldiv@b
  3786     047F                     l1811:
  3787     047F  17D4               	bsf	___fldiv@b+2,7
  3788     0480                     l1813:
  3789     0480  01D5               	clrf	___fldiv@b+3
  3790     0481  2C8A               	goto	l1817
  3791     0482                     l1815:
  3792     0482  3000               	movlw	0
  3793     0483  00D5               	movwf	___fldiv@b+3
  3794     0484  3000               	movlw	0
  3795     0485  00D4               	movwf	___fldiv@b+2
  3796     0486  3000               	movlw	0
  3797     0487  00D3               	movwf	___fldiv@b+1
  3798     0488  3000               	movlw	0
  3799     0489  00D2               	movwf	___fldiv@b
  3800     048A                     l1817:
  3801     048A  0851               	movf	___fldiv@a+3,w
  3802     048B  3980               	andlw	128
  3803     048C  00D6               	movwf	??___fldiv
  3804     048D  0856               	movf	??___fldiv,w
  3805     048E  06DF               	xorwf	___fldiv@sign,f
  3806     048F                     l1819:
  3807     048F  3551               	lslf	___fldiv@a+3,w
  3808     0490  00E7               	movwf	___fldiv@aexp
  3809     0491                     l1821:
  3810     0491  1FD0               	btfss	___fldiv@a+2,7
  3811     0492  2C94               	goto	u2061
  3812     0493  2C95               	goto	u2060
  3813     0494                     u2061:
  3814     0494  2C96               	goto	l1825
  3815     0495                     u2060:
  3816     0495                     l1823:
  3817     0495  1467               	bsf	___fldiv@aexp,0
  3818     0496                     l1825:
  3819     0496  0867               	movf	___fldiv@aexp,w
  3820     0497  1903               	btfsc	3,2
  3821     0498  2C9A               	goto	u2071
  3822     0499  2C9B               	goto	u2070
  3823     049A                     u2071:
  3824     049A  2CAB               	goto	l1835
  3825     049B                     u2070:
  3826     049B                     l1827:
  3827     049B  0A67               	incf	___fldiv@aexp,w
  3828     049C  1D03               	btfss	3,2
  3829     049D  2C9F               	goto	u2081
  3830     049E  2CA0               	goto	u2080
  3831     049F                     u2081:
  3832     049F  2CA8               	goto	l1831
  3833     04A0                     u2080:
  3834     04A0                     l1829:
  3835     04A0  3000               	movlw	0
  3836     04A1  00D1               	movwf	___fldiv@a+3
  3837     04A2  3000               	movlw	0
  3838     04A3  00D0               	movwf	___fldiv@a+2
  3839     04A4  3000               	movlw	0
  3840     04A5  00CF               	movwf	___fldiv@a+1
  3841     04A6  3000               	movlw	0
  3842     04A7  00CE               	movwf	___fldiv@a
  3843     04A8                     l1831:
  3844     04A8  17D0               	bsf	___fldiv@a+2,7
  3845     04A9                     l1833:
  3846     04A9  01D1               	clrf	___fldiv@a+3
  3847     04AA  2CB3               	goto	l605
  3848     04AB                     l1835:
  3849     04AB  3000               	movlw	0
  3850     04AC  00D1               	movwf	___fldiv@a+3
  3851     04AD  3000               	movlw	0
  3852     04AE  00D0               	movwf	___fldiv@a+2
  3853     04AF  3000               	movlw	0
  3854     04B0  00CF               	movwf	___fldiv@a+1
  3855     04B1  3000               	movlw	0
  3856     04B2  00CE               	movwf	___fldiv@a
  3857     04B3                     l605:
  3858     04B3  0851               	movf	___fldiv@a+3,w
  3859     04B4  0450               	iorwf	___fldiv@a+2,w
  3860     04B5  044F               	iorwf	___fldiv@a+1,w
  3861     04B6  044E               	iorwf	___fldiv@a,w
  3862     04B7  1D03               	skipz
  3863     04B8  2CBA               	goto	u2091
  3864     04B9  2CBB               	goto	u2090
  3865     04BA                     u2091:
  3866     04BA  2CD4               	goto	l1845
  3867     04BB                     u2090:
  3868     04BB                     l1837:
  3869     04BB  3000               	movlw	0
  3870     04BC  00D5               	movwf	___fldiv@b+3
  3871     04BD  3000               	movlw	0
  3872     04BE  00D4               	movwf	___fldiv@b+2
  3873     04BF  3000               	movlw	0
  3874     04C0  00D3               	movwf	___fldiv@b+1
  3875     04C1  3000               	movlw	0
  3876     04C2  00D2               	movwf	___fldiv@b
  3877     04C3  3080               	movlw	128
  3878     04C4  04D4               	iorwf	___fldiv@b+2,f
  3879     04C5  307F               	movlw	127
  3880     04C6  04D5               	iorwf	___fldiv@b+3,f
  3881     04C7                     l1839:
  3882     04C7  085F               	movf	___fldiv@sign,w
  3883     04C8  00D6               	movwf	??___fldiv
  3884     04C9  0856               	movf	??___fldiv,w
  3885     04CA  04D5               	iorwf	___fldiv@b+3,f
  3886     04CB                     l1841:
  3887     04CB  0855               	movf	___fldiv@b+3,w
  3888     04CC  00D1               	movwf	?___fldiv+3
  3889     04CD  0854               	movf	___fldiv@b+2,w
  3890     04CE  00D0               	movwf	?___fldiv+2
  3891     04CF  0853               	movf	___fldiv@b+1,w
  3892     04D0  00CF               	movwf	?___fldiv+1
  3893     04D1  0852               	movf	___fldiv@b,w
  3894     04D2  00CE               	movwf	?___fldiv
  3895     04D3  2E0B               	goto	l607
  3896     04D4                     l1845:
  3897     04D4  0866               	movf	___fldiv@bexp,w
  3898     04D5  1D03               	btfss	3,2
  3899     04D6  2CD8               	goto	u2101
  3900     04D7  2CD9               	goto	u2100
  3901     04D8                     u2101:
  3902     04D8  2CE2               	goto	l1851
  3903     04D9                     u2100:
  3904     04D9                     l1847:
  3905     04D9  3000               	movlw	0
  3906     04DA  00D1               	movwf	?___fldiv+3
  3907     04DB  3000               	movlw	0
  3908     04DC  00D0               	movwf	?___fldiv+2
  3909     04DD  3000               	movlw	0
  3910     04DE  00CF               	movwf	?___fldiv+1
  3911     04DF  3000               	movlw	0
  3912     04E0  00CE               	movwf	?___fldiv
  3913     04E1  2E0B               	goto	l607
  3914     04E2                     l1851:
  3915     04E2  0866               	movf	___fldiv@bexp,w
  3916     04E3  00D6               	movwf	??___fldiv
  3917     04E4  01D7               	clrf	??___fldiv+1
  3918     04E5  0857               	movf	??___fldiv+1,w
  3919     04E6  00D9               	movwf	??___fldiv+3
  3920     04E7  0867               	movf	___fldiv@aexp,w
  3921     04E8  0256               	subwf	??___fldiv,w
  3922     04E9  00D8               	movwf	??___fldiv+2
  3923     04EA  1C03               	skipc
  3924     04EB  03D9               	decf	??___fldiv+3,f
  3925     04EC  0858               	movf	??___fldiv+2,w
  3926     04ED  3E7F               	addlw	127
  3927     04EE  00E0               	movwf	___fldiv@new_exp
  3928     04EF  3000               	movlw	0
  3929     04F0  3D59               	addwfc	??___fldiv+3,w
  3930     04F1  00E1               	movwf	___fldiv@new_exp+1
  3931     04F2                     l1853:
  3932     04F2  0855               	movf	___fldiv@b+3,w
  3933     04F3  00DE               	movwf	___fldiv@rem+3
  3934     04F4  0854               	movf	___fldiv@b+2,w
  3935     04F5  00DD               	movwf	___fldiv@rem+2
  3936     04F6  0853               	movf	___fldiv@b+1,w
  3937     04F7  00DC               	movwf	___fldiv@rem+1
  3938     04F8  0852               	movf	___fldiv@b,w
  3939     04F9  00DB               	movwf	___fldiv@rem
  3940     04FA                     l1855:
  3941     04FA  3000               	movlw	0
  3942     04FB  00D5               	movwf	___fldiv@b+3
  3943     04FC  3000               	movlw	0
  3944     04FD  00D4               	movwf	___fldiv@b+2
  3945     04FE  3000               	movlw	0
  3946     04FF  00D3               	movwf	___fldiv@b+1
  3947     0500  3000               	movlw	0
  3948     0501  00D2               	movwf	___fldiv@b
  3949     0502                     l1857:
  3950     0502  3000               	movlw	0
  3951     0503  00E5               	movwf	___fldiv@grs+3
  3952     0504  3000               	movlw	0
  3953     0505  00E4               	movwf	___fldiv@grs+2
  3954     0506  3000               	movlw	0
  3955     0507  00E3               	movwf	___fldiv@grs+1
  3956     0508  3000               	movlw	0
  3957     0509  00E2               	movwf	___fldiv@grs
  3958     050A                     l1859:
  3959     050A  01E7               	clrf	___fldiv@aexp
  3960     050B  2D4A               	goto	l1879
  3961     050C                     l1861:
  3962     050C  0867               	movf	___fldiv@aexp,w
  3963     050D  1903               	btfsc	3,2
  3964     050E  2D10               	goto	u2111
  3965     050F  2D11               	goto	u2110
  3966     0510                     u2111:
  3967     0510  2D2B               	goto	l1871
  3968     0511                     u2110:
  3969     0511                     l1863:
  3970     0511  3001               	movlw	1
  3971     0512                     u2125:
  3972     0512  35DB               	lslf	___fldiv@rem,f
  3973     0513  0DDC               	rlf	___fldiv@rem+1,f
  3974     0514  0DDD               	rlf	___fldiv@rem+2,f
  3975     0515  0DDE               	rlf	___fldiv@rem+3,f
  3976     0516  0B89               	decfsz	9,f
  3977     0517  2D12               	goto	u2125
  3978     0518  3001               	movlw	1
  3979     0519                     u2135:
  3980     0519  35D2               	lslf	___fldiv@b,f
  3981     051A  0DD3               	rlf	___fldiv@b+1,f
  3982     051B  0DD4               	rlf	___fldiv@b+2,f
  3983     051C  0DD5               	rlf	___fldiv@b+3,f
  3984     051D  0B89               	decfsz	9,f
  3985     051E  2D19               	goto	u2135
  3986     051F                     l1865:
  3987     051F  1FE5               	btfss	___fldiv@grs+3,7
  3988     0520  2D22               	goto	u2141
  3989     0521  2D23               	goto	u2140
  3990     0522                     u2141:
  3991     0522  2D24               	goto	l1869
  3992     0523                     u2140:
  3993     0523                     l1867:
  3994     0523  1452               	bsf	___fldiv@b,0
  3995     0524                     l1869:
  3996     0524  3001               	movlw	1
  3997     0525                     u2155:
  3998     0525  35E2               	lslf	___fldiv@grs,f
  3999     0526  0DE3               	rlf	___fldiv@grs+1,f
  4000     0527  0DE4               	rlf	___fldiv@grs+2,f
  4001     0528  0DE5               	rlf	___fldiv@grs+3,f
  4002     0529  0B89               	decfsz	9,f
  4003     052A  2D25               	goto	u2155
  4004     052B                     l1871:
  4005     052B  0851               	movf	___fldiv@a+3,w
  4006     052C  025E               	subwf	___fldiv@rem+3,w
  4007     052D  1D03               	skipz
  4008     052E  2D39               	goto	u2165
  4009     052F  0850               	movf	___fldiv@a+2,w
  4010     0530  025D               	subwf	___fldiv@rem+2,w
  4011     0531  1D03               	skipz
  4012     0532  2D39               	goto	u2165
  4013     0533  084F               	movf	___fldiv@a+1,w
  4014     0534  025C               	subwf	___fldiv@rem+1,w
  4015     0535  1D03               	skipz
  4016     0536  2D39               	goto	u2165
  4017     0537  084E               	movf	___fldiv@a,w
  4018     0538  025B               	subwf	___fldiv@rem,w
  4019     0539                     u2165:
  4020     0539  1C03               	skipc
  4021     053A  2D3C               	goto	u2161
  4022     053B  2D3D               	goto	u2160
  4023     053C                     u2161:
  4024     053C  2D46               	goto	l1877
  4025     053D                     u2160:
  4026     053D                     l1873:
  4027     053D  1765               	bsf	___fldiv@grs+3,6
  4028     053E                     l1875:
  4029     053E  084E               	movf	___fldiv@a,w
  4030     053F  02DB               	subwf	___fldiv@rem,f
  4031     0540  084F               	movf	___fldiv@a+1,w
  4032     0541  3BDC               	subwfb	___fldiv@rem+1,f
  4033     0542  0850               	movf	___fldiv@a+2,w
  4034     0543  3BDD               	subwfb	___fldiv@rem+2,f
  4035     0544  0851               	movf	___fldiv@a+3,w
  4036     0545  3BDE               	subwfb	___fldiv@rem+3,f
  4037     0546                     l1877:
  4038     0546  3001               	movlw	1
  4039     0547  00D6               	movwf	??___fldiv
  4040     0548  0856               	movf	??___fldiv,w
  4041     0549  07E7               	addwf	___fldiv@aexp,f
  4042     054A                     l1879:
  4043     054A  301A               	movlw	26
  4044     054B  0267               	subwf	___fldiv@aexp,w
  4045     054C  1C03               	skipc
  4046     054D  2D4F               	goto	u2171
  4047     054E  2D50               	goto	u2170
  4048     054F                     u2171:
  4049     054F  2D0C               	goto	l1861
  4050     0550                     u2170:
  4051     0550                     l1881:
  4052     0550  085E               	movf	___fldiv@rem+3,w
  4053     0551  045D               	iorwf	___fldiv@rem+2,w
  4054     0552  045C               	iorwf	___fldiv@rem+1,w
  4055     0553  045B               	iorwf	___fldiv@rem,w
  4056     0554  1903               	skipnz
  4057     0555  2D57               	goto	u2181
  4058     0556  2D58               	goto	u2180
  4059     0557                     u2181:
  4060     0557  2D71               	goto	l1895
  4061     0558                     u2180:
  4062     0558                     l1883:
  4063     0558  1462               	bsf	___fldiv@grs,0
  4064     0559  2D71               	goto	l1895
  4065     055A                     l1885:
  4066     055A  3001               	movlw	1
  4067     055B                     u2195:
  4068     055B  35D2               	lslf	___fldiv@b,f
  4069     055C  0DD3               	rlf	___fldiv@b+1,f
  4070     055D  0DD4               	rlf	___fldiv@b+2,f
  4071     055E  0DD5               	rlf	___fldiv@b+3,f
  4072     055F  0B89               	decfsz	9,f
  4073     0560  2D5B               	goto	u2195
  4074     0561                     l1887:
  4075     0561  1FE5               	btfss	___fldiv@grs+3,7
  4076     0562  2D64               	goto	u2201
  4077     0563  2D65               	goto	u2200
  4078     0564                     u2201:
  4079     0564  2D66               	goto	l1891
  4080     0565                     u2200:
  4081     0565                     l1889:
  4082     0565  1452               	bsf	___fldiv@b,0
  4083     0566                     l1891:
  4084     0566  3001               	movlw	1
  4085     0567                     u2215:
  4086     0567  35E2               	lslf	___fldiv@grs,f
  4087     0568  0DE3               	rlf	___fldiv@grs+1,f
  4088     0569  0DE4               	rlf	___fldiv@grs+2,f
  4089     056A  0DE5               	rlf	___fldiv@grs+3,f
  4090     056B  0B89               	decfsz	9,f
  4091     056C  2D67               	goto	u2215
  4092     056D                     l1893:
  4093     056D  30FF               	movlw	255
  4094     056E  07E0               	addwf	___fldiv@new_exp,f
  4095     056F  30FF               	movlw	255
  4096     0570  3DE1               	addwfc	___fldiv@new_exp+1,f
  4097     0571                     l1895:
  4098     0571  1FD4               	btfss	___fldiv@b+2,7
  4099     0572  2D74               	goto	u2221
  4100     0573  2D75               	goto	u2220
  4101     0574                     u2221:
  4102     0574  2D5A               	goto	l1885
  4103     0575                     u2220:
  4104     0575                     l1897:
  4105     0575  01E7               	clrf	___fldiv@aexp
  4106     0576                     l1899:
  4107     0576  1FE5               	btfss	___fldiv@grs+3,7
  4108     0577  2D79               	goto	u2231
  4109     0578  2D7A               	goto	u2230
  4110     0579                     u2231:
  4111     0579  2D96               	goto	l1907
  4112     057A                     u2230:
  4113     057A                     l1901:
  4114     057A  30FF               	movlw	255
  4115     057B  0562               	andwf	___fldiv@grs,w
  4116     057C  00D6               	movwf	??___fldiv
  4117     057D  30FF               	movlw	255
  4118     057E  0563               	andwf	___fldiv@grs+1,w
  4119     057F  00D7               	movwf	??___fldiv+1
  4120     0580  30FF               	movlw	255
  4121     0581  0564               	andwf	___fldiv@grs+2,w
  4122     0582  00D8               	movwf	??___fldiv+2
  4123     0583  307F               	movlw	127
  4124     0584  0565               	andwf	___fldiv@grs+3,w
  4125     0585  00D9               	movwf	??___fldiv+3
  4126     0586  0859               	movf	??___fldiv+3,w
  4127     0587  0458               	iorwf	??___fldiv+2,w
  4128     0588  0457               	iorwf	??___fldiv+1,w
  4129     0589  0456               	iorwf	??___fldiv,w
  4130     058A  1903               	skipnz
  4131     058B  2D8D               	goto	u2241
  4132     058C  2D8E               	goto	u2240
  4133     058D                     u2241:
  4134     058D  2D91               	goto	l621
  4135     058E                     u2240:
  4136     058E                     l1903:
  4137     058E  01E7               	clrf	___fldiv@aexp
  4138     058F  0AE7               	incf	___fldiv@aexp,f
  4139     0590  2D96               	goto	l1907
  4140     0591                     l621:
  4141     0591  1C52               	btfss	___fldiv@b,0
  4142     0592  2D94               	goto	u2251
  4143     0593  2D95               	goto	u2250
  4144     0594                     u2251:
  4145     0594  2D96               	goto	l1907
  4146     0595                     u2250:
  4147     0595  2D8E               	goto	l1903
  4148     0596                     l1907:
  4149     0596  0867               	movf	___fldiv@aexp,w
  4150     0597  1903               	btfsc	3,2
  4151     0598  2D9A               	goto	u2261
  4152     0599  2D9B               	goto	u2260
  4153     059A                     u2261:
  4154     059A  2DC3               	goto	l1917
  4155     059B                     u2260:
  4156     059B                     l1909:
  4157     059B  3001               	movlw	1
  4158     059C  07D2               	addwf	___fldiv@b,f
  4159     059D  3000               	movlw	0
  4160     059E  3DD3               	addwfc	___fldiv@b+1,f
  4161     059F  3000               	movlw	0
  4162     05A0  3DD4               	addwfc	___fldiv@b+2,f
  4163     05A1  3000               	movlw	0
  4164     05A2  3DD5               	addwfc	___fldiv@b+3,f
  4165     05A3                     l1911:
  4166     05A3  1C55               	btfss	___fldiv@b+3,0
  4167     05A4  2DA6               	goto	u2271
  4168     05A5  2DA7               	goto	u2270
  4169     05A6                     u2271:
  4170     05A6  2DC3               	goto	l1917
  4171     05A7                     u2270:
  4172     05A7                     l1913:
  4173     05A7  0852               	movf	___fldiv@b,w
  4174     05A8  00D6               	movwf	??___fldiv
  4175     05A9  0853               	movf	___fldiv@b+1,w
  4176     05AA  00D7               	movwf	??___fldiv+1
  4177     05AB  0854               	movf	___fldiv@b+2,w
  4178     05AC  00D8               	movwf	??___fldiv+2
  4179     05AD  0855               	movf	___fldiv@b+3,w
  4180     05AE  00D9               	movwf	??___fldiv+3
  4181     05AF  3001               	movlw	1
  4182     05B0  00DA               	movwf	??___fldiv+4
  4183     05B1                     u2285:
  4184     05B1  37D9               	asrf	??___fldiv+3,f
  4185     05B2  0CD8               	rrf	??___fldiv+2,f
  4186     05B3  0CD7               	rrf	??___fldiv+1,f
  4187     05B4  0CD6               	rrf	??___fldiv,f
  4188     05B5                     u2280:
  4189     05B5  0BDA               	decfsz	??___fldiv+4,f
  4190     05B6  2DB1               	goto	u2285
  4191     05B7  0859               	movf	??___fldiv+3,w
  4192     05B8  00D5               	movwf	___fldiv@b+3
  4193     05B9  0858               	movf	??___fldiv+2,w
  4194     05BA  00D4               	movwf	___fldiv@b+2
  4195     05BB  0857               	movf	??___fldiv+1,w
  4196     05BC  00D3               	movwf	___fldiv@b+1
  4197     05BD  0856               	movf	??___fldiv,w
  4198     05BE  00D2               	movwf	___fldiv@b
  4199     05BF                     l1915:
  4200     05BF  3001               	movlw	1
  4201     05C0  07E0               	addwf	___fldiv@new_exp,f
  4202     05C1  3000               	movlw	0
  4203     05C2  3DE1               	addwfc	___fldiv@new_exp+1,f
  4204     05C3                     l1917:
  4205     05C3  0861               	movf	___fldiv@new_exp+1,w
  4206     05C4  3A80               	xorlw	128
  4207     05C5  00D6               	movwf	??___fldiv
  4208     05C6  3080               	movlw	128
  4209     05C7  0256               	subwf	??___fldiv,w
  4210     05C8  1D03               	skipz
  4211     05C9  2DCC               	goto	u2295
  4212     05CA  30FF               	movlw	255
  4213     05CB  0260               	subwf	___fldiv@new_exp,w
  4214     05CC                     u2295:
  4215     05CC  1C03               	skipc
  4216     05CD  2DCF               	goto	u2291
  4217     05CE  2DD0               	goto	u2290
  4218     05CF                     u2291:
  4219     05CF  2DDD               	goto	l626
  4220     05D0                     u2290:
  4221     05D0                     l1919:
  4222     05D0  30FF               	movlw	255
  4223     05D1  0020               	movlb	0	; select bank0
  4224     05D2  00E0               	movwf	___fldiv@new_exp
  4225     05D3  3000               	movlw	0
  4226     05D4  00E1               	movwf	___fldiv@new_exp+1
  4227     05D5  3000               	movlw	0
  4228     05D6  00D5               	movwf	___fldiv@b+3
  4229     05D7  3000               	movlw	0
  4230     05D8  00D4               	movwf	___fldiv@b+2
  4231     05D9  3000               	movlw	0
  4232     05DA  00D3               	movwf	___fldiv@b+1
  4233     05DB  3000               	movlw	0
  4234     05DC  00D2               	movwf	___fldiv@b
  4235     05DD                     l626:
  4236     05DD  0020               	movlb	0	; select bank0
  4237     05DE  0861               	movf	___fldiv@new_exp+1,w
  4238     05DF  3A80               	xorlw	128
  4239     05E0  00D6               	movwf	??___fldiv
  4240     05E1  3080               	movlw	128
  4241     05E2  0256               	subwf	??___fldiv,w
  4242     05E3  1D03               	skipz
  4243     05E4  2DE7               	goto	u2305
  4244     05E5  3001               	movlw	1
  4245     05E6  0260               	subwf	___fldiv@new_exp,w
  4246     05E7                     u2305:
  4247     05E7  1803               	skipnc
  4248     05E8  2DEA               	goto	u2301
  4249     05E9  2DEB               	goto	u2300
  4250     05EA                     u2301:
  4251     05EA  2DF7               	goto	l627
  4252     05EB                     u2300:
  4253     05EB                     l1921:
  4254     05EB  0020               	movlb	0	; select bank0
  4255     05EC  01E0               	clrf	___fldiv@new_exp
  4256     05ED  01E1               	clrf	___fldiv@new_exp+1
  4257     05EE                     l1923:
  4258     05EE  3000               	movlw	0
  4259     05EF  00D5               	movwf	___fldiv@b+3
  4260     05F0  3000               	movlw	0
  4261     05F1  00D4               	movwf	___fldiv@b+2
  4262     05F2  3000               	movlw	0
  4263     05F3  00D3               	movwf	___fldiv@b+1
  4264     05F4  3000               	movlw	0
  4265     05F5  00D2               	movwf	___fldiv@b
  4266     05F6                     l1925:
  4267     05F6  01DF               	clrf	___fldiv@sign
  4268     05F7                     l627:
  4269     05F7  0020               	movlb	0	; select bank0
  4270     05F8  0860               	movf	___fldiv@new_exp,w
  4271     05F9  00E6               	movwf	___fldiv@bexp
  4272     05FA                     l1927:
  4273     05FA  1C66               	btfss	___fldiv@bexp,0
  4274     05FB  2DFD               	goto	u2311
  4275     05FC  2DFE               	goto	u2310
  4276     05FD                     u2311:
  4277     05FD  2E00               	goto	l1931
  4278     05FE                     u2310:
  4279     05FE                     l1929:
  4280     05FE  17D4               	bsf	___fldiv@b+2,7
  4281     05FF  2E04               	goto	l629
  4282     0600                     l1931:
  4283     0600  307F               	movlw	127
  4284     0601  00D6               	movwf	??___fldiv
  4285     0602  0856               	movf	??___fldiv,w
  4286     0603  05D4               	andwf	___fldiv@b+2,f
  4287     0604                     l629:
  4288     0604  3666               	lsrf	___fldiv@bexp,w
  4289     0605  00D5               	movwf	___fldiv@b+3
  4290     0606  085F               	movf	___fldiv@sign,w
  4291     0607  00D6               	movwf	??___fldiv
  4292     0608  0856               	movf	??___fldiv,w
  4293     0609  04D5               	iorwf	___fldiv@b+3,f
  4294     060A  2CCB               	goto	l1841
  4295     060B                     l607:
  4296     060B  0008               	return
  4297     060C                     __end_of___fldiv:
  4298                           
  4299                           	psect	text12
  4300     025A                     __ptext12:	
  4301 ;; *************** function ___fladd *****************
  4302 ;; Defined at:
  4303 ;;		line 10 in file "C:\Program Files\Microchip\xc8\v2.45\pic\sources\c99\common\sprcadd.c"
  4304 ;; Parameters:    Size  Location     Type
  4305 ;;  b               4    0[BANK0 ] unsigned char 
  4306 ;;  a               4    4[BANK0 ] unsigned char 
  4307 ;; Auto vars:     Size  Location     Type
  4308 ;;  grs             1   19[BANK0 ] unsigned char 
  4309 ;;  bexp            1   18[BANK0 ] unsigned char 
  4310 ;;  aexp            1   17[BANK0 ] unsigned char 
  4311 ;;  signs           1   16[BANK0 ] unsigned char 
  4312 ;; Return value:  Size  Location     Type
  4313 ;;                  4    0[BANK0 ] unsigned char 
  4314 ;; Registers used:
  4315 ;;		wreg, status,2, status,0
  4316 ;; Tracked objects:
  4317 ;;		On entry : 0/0
  4318 ;;		On exit  : 0/0
  4319 ;;		Unchanged: 0/0
  4320 ;; Data sizes:     COMMON   BANK0   BANK1   BANK2   BANK3   BANK4   BANK5   BANK6   BANK7   BANK8   BANK9  BANK10  BANK1
      +1  BANK12  BANK13  BANK14  BANK15  BANK16  BANK17  BANK18  BANK19  BANK20  BANK21  BANK22  BANK23  BANK24  BANK25
  4321 ;;      Params:         0       8       0       0       0       0       0       0       0       0       0       0       
      +0       0       0       0       0       0       0       0       0       0       0       0       0       0       0
  4322 ;;      Locals:         0       4       0       0       0       0       0       0       0       0       0       0       
      +0       0       0       0       0       0       0       0       0       0       0       0       0       0       0
  4323 ;;      Temps:          0       8       0       0       0       0       0       0       0       0       0       0       
      +0       0       0       0       0       0       0       0       0       0       0       0       0       0       0
  4324 ;;      Totals:         0      20       0       0       0       0       0       0       0       0       0       0       
      +0       0       0       0       0       0       0       0       0       0       0       0       0       0       0
  4325 ;;Total ram usage:       20 bytes
  4326 ;; Hardware stack levels used: 1
  4327 ;; Hardware stack levels required when called: 4
  4328 ;; This function calls:
  4329 ;;		Nothing
  4330 ;; This function is called by:
  4331 ;;		_Read_Temperature
  4332 ;; This function uses a non-reentrant model
  4333 ;;
  4334                           
  4335     025A                     ___fladd:	
  4336                           ;psect for function ___fladd
  4337                           
  4338     025A                     l1603:	
  4339                           ;incstack = 0
  4340                           ; Regs used in ___fladd: [wreg+status,2+status,0]
  4341                           
  4342     025A  0020               	movlb	0	; select bank0
  4343     025B  0823               	movf	___fladd@b+3,w
  4344     025C  3980               	andlw	128
  4345     025D  00B0               	movwf	___fladd@signs
  4346     025E                     l1605:
  4347     025E  3523               	lslf	___fladd@b+3,w
  4348     025F  00B2               	movwf	___fladd@bexp
  4349     0260                     l1607:
  4350     0260  1FA2               	btfss	___fladd@b+2,7
  4351     0261  2A63               	goto	u1601
  4352     0262  2A64               	goto	u1600
  4353     0263                     u1601:
  4354     0263  2A65               	goto	l1611
  4355     0264                     u1600:
  4356     0264                     l1609:
  4357     0264  1432               	bsf	___fladd@bexp,0
  4358     0265                     l1611:
  4359     0265  0832               	movf	___fladd@bexp,w
  4360     0266  1903               	btfsc	3,2
  4361     0267  2A69               	goto	u1611
  4362     0268  2A6A               	goto	u1610
  4363     0269                     u1611:
  4364     0269  2A7A               	goto	l1621
  4365     026A                     u1610:
  4366     026A                     l1613:
  4367     026A  0A32               	incf	___fladd@bexp,w
  4368     026B  1D03               	btfss	3,2
  4369     026C  2A6E               	goto	u1621
  4370     026D  2A6F               	goto	u1620
  4371     026E                     u1621:
  4372     026E  2A77               	goto	l1617
  4373     026F                     u1620:
  4374     026F                     l1615:
  4375     026F  3000               	movlw	0
  4376     0270  00A3               	movwf	___fladd@b+3
  4377     0271  3000               	movlw	0
  4378     0272  00A2               	movwf	___fladd@b+2
  4379     0273  3000               	movlw	0
  4380     0274  00A1               	movwf	___fladd@b+1
  4381     0275  3000               	movlw	0
  4382     0276  00A0               	movwf	___fladd@b
  4383     0277                     l1617:
  4384     0277  17A2               	bsf	___fladd@b+2,7
  4385     0278                     l1619:
  4386     0278  01A3               	clrf	___fladd@b+3
  4387     0279  2A82               	goto	l1623
  4388     027A                     l1621:
  4389     027A  3000               	movlw	0
  4390     027B  00A3               	movwf	___fladd@b+3
  4391     027C  3000               	movlw	0
  4392     027D  00A2               	movwf	___fladd@b+2
  4393     027E  3000               	movlw	0
  4394     027F  00A1               	movwf	___fladd@b+1
  4395     0280  3000               	movlw	0
  4396     0281  00A0               	movwf	___fladd@b
  4397     0282                     l1623:
  4398     0282  0827               	movf	___fladd@a+3,w
  4399     0283  3980               	andlw	128
  4400     0284  00B1               	movwf	___fladd@aexp
  4401     0285                     l1625:
  4402     0285  0831               	movf	___fladd@aexp,w
  4403     0286  0630               	xorwf	___fladd@signs,w
  4404     0287  1903               	skipnz
  4405     0288  2A8A               	goto	u1631
  4406     0289  2A8B               	goto	u1630
  4407     028A                     u1631:
  4408     028A  2A8C               	goto	l1629
  4409     028B                     u1630:
  4410     028B                     l1627:
  4411     028B  1730               	bsf	___fladd@signs,6
  4412     028C                     l1629:
  4413     028C  3527               	lslf	___fladd@a+3,w
  4414     028D  00B1               	movwf	___fladd@aexp
  4415     028E                     l1631:
  4416     028E  1FA6               	btfss	___fladd@a+2,7
  4417     028F  2A91               	goto	u1641
  4418     0290  2A92               	goto	u1640
  4419     0291                     u1641:
  4420     0291  2A93               	goto	l1635
  4421     0292                     u1640:
  4422     0292                     l1633:
  4423     0292  1431               	bsf	___fladd@aexp,0
  4424     0293                     l1635:
  4425     0293  0831               	movf	___fladd@aexp,w
  4426     0294  1903               	btfsc	3,2
  4427     0295  2A97               	goto	u1651
  4428     0296  2A98               	goto	u1650
  4429     0297                     u1651:
  4430     0297  2AA8               	goto	l1645
  4431     0298                     u1650:
  4432     0298                     l1637:
  4433     0298  0A31               	incf	___fladd@aexp,w
  4434     0299  1D03               	btfss	3,2
  4435     029A  2A9C               	goto	u1661
  4436     029B  2A9D               	goto	u1660
  4437     029C                     u1661:
  4438     029C  2AA5               	goto	l1641
  4439     029D                     u1660:
  4440     029D                     l1639:
  4441     029D  3000               	movlw	0
  4442     029E  00A7               	movwf	___fladd@a+3
  4443     029F  3000               	movlw	0
  4444     02A0  00A6               	movwf	___fladd@a+2
  4445     02A1  3000               	movlw	0
  4446     02A2  00A5               	movwf	___fladd@a+1
  4447     02A3  3000               	movlw	0
  4448     02A4  00A4               	movwf	___fladd@a
  4449     02A5                     l1641:
  4450     02A5  17A6               	bsf	___fladd@a+2,7
  4451     02A6                     l1643:
  4452     02A6  01A7               	clrf	___fladd@a+3
  4453     02A7  2AB0               	goto	l549
  4454     02A8                     l1645:
  4455     02A8  3000               	movlw	0
  4456     02A9  00A7               	movwf	___fladd@a+3
  4457     02AA  3000               	movlw	0
  4458     02AB  00A6               	movwf	___fladd@a+2
  4459     02AC  3000               	movlw	0
  4460     02AD  00A5               	movwf	___fladd@a+1
  4461     02AE  3000               	movlw	0
  4462     02AF  00A4               	movwf	___fladd@a
  4463     02B0                     l549:
  4464     02B0  0832               	movf	___fladd@bexp,w
  4465     02B1  0231               	subwf	___fladd@aexp,w
  4466     02B2  1803               	skipnc
  4467     02B3  2AB5               	goto	u1671
  4468     02B4  2AB6               	goto	u1670
  4469     02B5                     u1671:
  4470     02B5  2ADC               	goto	l1681
  4471     02B6                     u1670:
  4472     02B6                     l1647:
  4473     02B6  1F30               	btfss	___fladd@signs,6
  4474     02B7  2AB9               	goto	u1681
  4475     02B8  2ABA               	goto	u1680
  4476     02B9                     u1681:
  4477     02B9  2ABE               	goto	l1651
  4478     02BA                     u1680:
  4479     02BA                     l1649:
  4480     02BA  3080               	movlw	128
  4481     02BB  00A8               	movwf	??___fladd
  4482     02BC  0828               	movf	??___fladd,w
  4483     02BD  06B0               	xorwf	___fladd@signs,f
  4484     02BE                     l1651:
  4485     02BE  0832               	movf	___fladd@bexp,w
  4486     02BF  00B3               	movwf	___fladd@grs
  4487     02C0                     l1653:
  4488     02C0  0831               	movf	___fladd@aexp,w
  4489     02C1  00B2               	movwf	___fladd@bexp
  4490     02C2                     l1655:
  4491     02C2  0833               	movf	___fladd@grs,w
  4492     02C3  00B1               	movwf	___fladd@aexp
  4493     02C4                     l1657:
  4494     02C4  0820               	movf	___fladd@b,w
  4495     02C5  00B3               	movwf	___fladd@grs
  4496     02C6                     l1659:
  4497     02C6  0824               	movf	___fladd@a,w
  4498     02C7  00A0               	movwf	___fladd@b
  4499     02C8                     l1661:
  4500     02C8  0833               	movf	___fladd@grs,w
  4501     02C9  00A4               	movwf	___fladd@a
  4502     02CA                     l1663:
  4503     02CA  0821               	movf	___fladd@b+1,w
  4504     02CB  00B3               	movwf	___fladd@grs
  4505     02CC                     l1665:
  4506     02CC  0825               	movf	___fladd@a+1,w
  4507     02CD  00A1               	movwf	___fladd@b+1
  4508     02CE                     l1667:
  4509     02CE  0833               	movf	___fladd@grs,w
  4510     02CF  00A5               	movwf	___fladd@a+1
  4511     02D0                     l1669:
  4512     02D0  0822               	movf	___fladd@b+2,w
  4513     02D1  00B3               	movwf	___fladd@grs
  4514     02D2                     l1671:
  4515     02D2  0826               	movf	___fladd@a+2,w
  4516     02D3  00A2               	movwf	___fladd@b+2
  4517     02D4                     l1673:
  4518     02D4  0833               	movf	___fladd@grs,w
  4519     02D5  00A6               	movwf	___fladd@a+2
  4520     02D6                     l1675:
  4521     02D6  0823               	movf	___fladd@b+3,w
  4522     02D7  00B3               	movwf	___fladd@grs
  4523     02D8                     l1677:
  4524     02D8  0827               	movf	___fladd@a+3,w
  4525     02D9  00A3               	movwf	___fladd@b+3
  4526     02DA                     l1679:
  4527     02DA  0833               	movf	___fladd@grs,w
  4528     02DB  00A7               	movwf	___fladd@a+3
  4529     02DC                     l1681:
  4530     02DC  01B3               	clrf	___fladd@grs
  4531     02DD                     l1683:
  4532     02DD  0831               	movf	___fladd@aexp,w
  4533     02DE  00A8               	movwf	??___fladd
  4534     02DF  01A9               	clrf	??___fladd+1
  4535     02E0  0829               	movf	??___fladd+1,w
  4536     02E1  00AB               	movwf	??___fladd+3
  4537     02E2  0832               	movf	___fladd@bexp,w
  4538     02E3  0228               	subwf	??___fladd,w
  4539     02E4  00AA               	movwf	??___fladd+2
  4540     02E5  1C03               	skipc
  4541     02E6  03AB               	decf	??___fladd+3,f
  4542     02E7  082B               	movf	??___fladd+3,w
  4543     02E8  3A80               	xorlw	128
  4544     02E9  00AC               	movwf	??___fladd+4
  4545     02EA  3080               	movlw	128
  4546     02EB  022C               	subwf	??___fladd+4,w
  4547     02EC  1D03               	skipz
  4548     02ED  2AF0               	goto	u1695
  4549     02EE  301A               	movlw	26
  4550     02EF  022A               	subwf	??___fladd+2,w
  4551     02F0                     u1695:
  4552     02F0  1C03               	skipc
  4553     02F1  2AF3               	goto	u1691
  4554     02F2  2AF4               	goto	u1690
  4555     02F3                     u1691:
  4556     02F3  2B26               	goto	l1699
  4557     02F4                     u1690:
  4558     02F4                     l1685:
  4559     02F4  0020               	movlb	0	; select bank0
  4560     02F5  0823               	movf	___fladd@b+3,w
  4561     02F6  0422               	iorwf	___fladd@b+2,w
  4562     02F7  0421               	iorwf	___fladd@b+1,w
  4563     02F8  0420               	iorwf	___fladd@b,w
  4564     02F9  1D03               	skipz
  4565     02FA  2AFC               	goto	u1701
  4566     02FB  2AFE               	goto	u1700
  4567     02FC                     u1701:
  4568     02FC  3001               	movlw	1
  4569     02FD  2AFF               	goto	u1710
  4570     02FE                     u1700:
  4571     02FE  3000               	movlw	0
  4572     02FF                     u1710:
  4573     02FF  00B3               	movwf	___fladd@grs
  4574     0300  3000               	movlw	0
  4575     0301  00A3               	movwf	___fladd@b+3
  4576     0302  3000               	movlw	0
  4577     0303  00A2               	movwf	___fladd@b+2
  4578     0304  3000               	movlw	0
  4579     0305  00A1               	movwf	___fladd@b+1
  4580     0306  3000               	movlw	0
  4581     0307  00A0               	movwf	___fladd@b
  4582     0308  0831               	movf	___fladd@aexp,w
  4583     0309  00B2               	movwf	___fladd@bexp
  4584     030A  2B2D               	goto	l553
  4585     030B                     l555:
  4586     030B  1C33               	btfss	___fladd@grs,0
  4587     030C  2B0E               	goto	u1721
  4588     030D  2B0F               	goto	u1720
  4589     030E                     u1721:
  4590     030E  2B13               	goto	l1689
  4591     030F                     u1720:
  4592     030F                     l1687:
  4593     030F  3633               	lsrf	___fladd@grs,w
  4594     0310  3801               	iorlw	1
  4595     0311  00B3               	movwf	___fladd@grs
  4596     0312  2B15               	goto	l1691
  4597     0313                     l1689:
  4598     0313  1003               	clrc
  4599     0314  0CB3               	rrf	___fladd@grs,f
  4600     0315                     l1691:
  4601     0315  1C20               	btfss	___fladd@b,0
  4602     0316  2B18               	goto	u1731
  4603     0317  2B19               	goto	u1730
  4604     0318                     u1731:
  4605     0318  2B1A               	goto	l1695
  4606     0319                     u1730:
  4607     0319                     l1693:
  4608     0319  17B3               	bsf	___fladd@grs,7
  4609     031A                     l1695:
  4610     031A  3001               	movlw	1
  4611     031B  00A8               	movwf	??___fladd
  4612     031C                     u1745:
  4613     031C  37A3               	asrf	___fladd@b+3,f
  4614     031D  0CA2               	rrf	___fladd@b+2,f
  4615     031E  0CA1               	rrf	___fladd@b+1,f
  4616     031F  0CA0               	rrf	___fladd@b,f
  4617     0320  0BA8               	decfsz	??___fladd& (0+127),f
  4618     0321  2B1C               	goto	u1745
  4619     0322                     l1697:
  4620     0322  3001               	movlw	1
  4621     0323  00A8               	movwf	??___fladd
  4622     0324  0828               	movf	??___fladd,w
  4623     0325  07B2               	addwf	___fladd@bexp,f
  4624     0326                     l1699:
  4625     0326  0020               	movlb	0	; select bank0
  4626     0327  0831               	movf	___fladd@aexp,w
  4627     0328  0232               	subwf	___fladd@bexp,w
  4628     0329  1C03               	skipc
  4629     032A  2B2C               	goto	u1751
  4630     032B  2B2D               	goto	u1750
  4631     032C                     u1751:
  4632     032C  2B0B               	goto	l555
  4633     032D                     u1750:
  4634     032D                     l553:
  4635     032D  1B30               	btfsc	___fladd@signs,6
  4636     032E  2B30               	goto	u1761
  4637     032F  2B31               	goto	u1760
  4638     0330                     u1761:
  4639     0330  2B67               	goto	l1725
  4640     0331                     u1760:
  4641     0331                     l1701:
  4642     0331  0832               	movf	___fladd@bexp,w
  4643     0332  1D03               	btfss	3,2
  4644     0333  2B35               	goto	u1771
  4645     0334  2B36               	goto	u1770
  4646     0335                     u1771:
  4647     0335  2B3F               	goto	l1707
  4648     0336                     u1770:
  4649     0336                     l1703:
  4650     0336  3000               	movlw	0
  4651     0337  00A3               	movwf	?___fladd+3
  4652     0338  3000               	movlw	0
  4653     0339  00A2               	movwf	?___fladd+2
  4654     033A  3000               	movlw	0
  4655     033B  00A1               	movwf	?___fladd+1
  4656     033C  3000               	movlw	0
  4657     033D  00A0               	movwf	?___fladd
  4658     033E  2C61               	goto	l562
  4659     033F                     l1707:
  4660     033F  0824               	movf	___fladd@a,w
  4661     0340  07A0               	addwf	___fladd@b,f
  4662     0341  0825               	movf	___fladd@a+1,w
  4663     0342  3DA1               	addwfc	___fladd@b+1,f
  4664     0343  0826               	movf	___fladd@a+2,w
  4665     0344  3DA2               	addwfc	___fladd@b+2,f
  4666     0345  0827               	movf	___fladd@a+3,w
  4667     0346  3DA3               	addwfc	___fladd@b+3,f
  4668     0347                     l1709:
  4669     0347  1C23               	btfss	___fladd@b+3,0
  4670     0348  2B4A               	goto	u1781
  4671     0349  2B4B               	goto	u1780
  4672     034A                     u1781:
  4673     034A  2BF3               	goto	l1759
  4674     034B                     u1780:
  4675     034B                     l1711:
  4676     034B  1C33               	btfss	___fladd@grs,0
  4677     034C  2B4E               	goto	u1791
  4678     034D  2B4F               	goto	u1790
  4679     034E                     u1791:
  4680     034E  2B53               	goto	l1715
  4681     034F                     u1790:
  4682     034F                     l1713:
  4683     034F  3633               	lsrf	___fladd@grs,w
  4684     0350  3801               	iorlw	1
  4685     0351  00B3               	movwf	___fladd@grs
  4686     0352  2B55               	goto	l1717
  4687     0353                     l1715:
  4688     0353  1003               	clrc
  4689     0354  0CB3               	rrf	___fladd@grs,f
  4690     0355                     l1717:
  4691     0355  1C20               	btfss	___fladd@b,0
  4692     0356  2B58               	goto	u1801
  4693     0357  2B59               	goto	u1800
  4694     0358                     u1801:
  4695     0358  2B5A               	goto	l1721
  4696     0359                     u1800:
  4697     0359                     l1719:
  4698     0359  17B3               	bsf	___fladd@grs,7
  4699     035A                     l1721:
  4700     035A  3001               	movlw	1
  4701     035B  00A8               	movwf	??___fladd
  4702     035C                     u1815:
  4703     035C  37A3               	asrf	___fladd@b+3,f
  4704     035D  0CA2               	rrf	___fladd@b+2,f
  4705     035E  0CA1               	rrf	___fladd@b+1,f
  4706     035F  0CA0               	rrf	___fladd@b,f
  4707     0360  0BA8               	decfsz	??___fladd& (0+127),f
  4708     0361  2B5C               	goto	u1815
  4709     0362                     l1723:
  4710     0362  3001               	movlw	1
  4711     0363  00A8               	movwf	??___fladd
  4712     0364  0828               	movf	??___fladd,w
  4713     0365  07B2               	addwf	___fladd@bexp,f
  4714     0366  2BF3               	goto	l1759
  4715     0367                     l1725:
  4716     0367  0823               	movf	___fladd@b+3,w
  4717     0368  3A80               	xorlw	128
  4718     0369  00A8               	movwf	??___fladd
  4719     036A  0827               	movf	___fladd@a+3,w
  4720     036B  3A80               	xorlw	128
  4721     036C  0228               	subwf	??___fladd,w
  4722     036D  1D03               	skipz
  4723     036E  2B79               	goto	u1823
  4724     036F  0826               	movf	___fladd@a+2,w
  4725     0370  0222               	subwf	___fladd@b+2,w
  4726     0371  1D03               	skipz
  4727     0372  2B79               	goto	u1823
  4728     0373  0825               	movf	___fladd@a+1,w
  4729     0374  0221               	subwf	___fladd@b+1,w
  4730     0375  1D03               	skipz
  4731     0376  2B79               	goto	u1823
  4732     0377  0824               	movf	___fladd@a,w
  4733     0378  0220               	subwf	___fladd@b,w
  4734     0379                     u1823:
  4735     0379  1803               	skipnc
  4736     037A  2B7C               	goto	u1821
  4737     037B  2B7D               	goto	u1820
  4738     037C                     u1821:
  4739     037C  2BB5               	goto	l1735
  4740     037D                     u1820:
  4741     037D                     l1727:
  4742     037D  30FF               	movlw	255
  4743     037E  00A8               	movwf	??___fladd
  4744     037F  30FF               	movlw	255
  4745     0380  00A9               	movwf	??___fladd+1
  4746     0381  30FF               	movlw	255
  4747     0382  00AA               	movwf	??___fladd+2
  4748     0383  30FF               	movlw	255
  4749     0384  00AB               	movwf	??___fladd+3
  4750     0385  0820               	movf	___fladd@b,w
  4751     0386  0224               	subwf	___fladd@a,w
  4752     0387  00AC               	movwf	??___fladd+4
  4753     0388  0821               	movf	___fladd@b+1,w
  4754     0389  3B25               	subwfb	___fladd@a+1,w
  4755     038A  00AD               	movwf	??___fladd+5
  4756     038B  0822               	movf	___fladd@b+2,w
  4757     038C  3B26               	subwfb	___fladd@a+2,w
  4758     038D  00AE               	movwf	??___fladd+6
  4759     038E  0823               	movf	___fladd@b+3,w
  4760     038F  3B27               	subwfb	___fladd@a+3,w
  4761     0390  00AF               	movwf	??___fladd+7
  4762     0391  082C               	movf	??___fladd+4,w
  4763     0392  07A8               	addwf	??___fladd,f
  4764     0393  082D               	movf	??___fladd+5,w
  4765     0394  3DA9               	addwfc	??___fladd+1,f
  4766     0395  082E               	movf	??___fladd+6,w
  4767     0396  3DAA               	addwfc	??___fladd+2,f
  4768     0397  082F               	movf	??___fladd+7,w
  4769     0398  3DAB               	addwfc	??___fladd+3,f
  4770     0399  082B               	movf	??___fladd+3,w
  4771     039A  00A3               	movwf	___fladd@b+3
  4772     039B  082A               	movf	??___fladd+2,w
  4773     039C  00A2               	movwf	___fladd@b+2
  4774     039D  0829               	movf	??___fladd+1,w
  4775     039E  00A1               	movwf	___fladd@b+1
  4776     039F  0828               	movf	??___fladd,w
  4777     03A0  00A0               	movwf	___fladd@b
  4778     03A1                     l1729:
  4779     03A1  3080               	movlw	128
  4780     03A2  00A8               	movwf	??___fladd
  4781     03A3  0828               	movf	??___fladd,w
  4782     03A4  06B0               	xorwf	___fladd@signs,f
  4783     03A5  09B3               	comf	___fladd@grs,f
  4784     03A6  0AB3               	incf	___fladd@grs,f
  4785     03A7                     l1731:
  4786     03A7  0833               	movf	___fladd@grs,w
  4787     03A8  1D03               	btfss	3,2
  4788     03A9  2BAB               	goto	u1831
  4789     03AA  2BAC               	goto	u1830
  4790     03AB                     u1831:
  4791     03AB  2BBD               	goto	l570
  4792     03AC                     u1830:
  4793     03AC                     l1733:
  4794     03AC  3001               	movlw	1
  4795     03AD  07A0               	addwf	___fladd@b,f
  4796     03AE  3000               	movlw	0
  4797     03AF  3DA1               	addwfc	___fladd@b+1,f
  4798     03B0  3000               	movlw	0
  4799     03B1  3DA2               	addwfc	___fladd@b+2,f
  4800     03B2  3000               	movlw	0
  4801     03B3  3DA3               	addwfc	___fladd@b+3,f
  4802     03B4  2BBD               	goto	l570
  4803     03B5                     l1735:
  4804     03B5  0824               	movf	___fladd@a,w
  4805     03B6  02A0               	subwf	___fladd@b,f
  4806     03B7  0825               	movf	___fladd@a+1,w
  4807     03B8  3BA1               	subwfb	___fladd@b+1,f
  4808     03B9  0826               	movf	___fladd@a+2,w
  4809     03BA  3BA2               	subwfb	___fladd@b+2,f
  4810     03BB  0827               	movf	___fladd@a+3,w
  4811     03BC  3BA3               	subwfb	___fladd@b+3,f
  4812     03BD                     l570:
  4813     03BD  0823               	movf	___fladd@b+3,w
  4814     03BE  0422               	iorwf	___fladd@b+2,w
  4815     03BF  0421               	iorwf	___fladd@b+1,w
  4816     03C0  0420               	iorwf	___fladd@b,w
  4817     03C1  1D03               	skipz
  4818     03C2  2BC4               	goto	u1841
  4819     03C3  2BC5               	goto	u1840
  4820     03C4                     u1841:
  4821     03C4  2BEF               	goto	l1757
  4822     03C5                     u1840:
  4823     03C5                     l1737:
  4824     03C5  0833               	movf	___fladd@grs,w
  4825     03C6  1D03               	btfss	3,2
  4826     03C7  2BC9               	goto	u1851
  4827     03C8  2BCA               	goto	u1850
  4828     03C9                     u1851:
  4829     03C9  2BEF               	goto	l1757
  4830     03CA                     u1850:
  4831     03CA                     l1739:
  4832     03CA  3000               	movlw	0
  4833     03CB  00A3               	movwf	?___fladd+3
  4834     03CC  3000               	movlw	0
  4835     03CD  00A2               	movwf	?___fladd+2
  4836     03CE  3000               	movlw	0
  4837     03CF  00A1               	movwf	?___fladd+1
  4838     03D0  3000               	movlw	0
  4839     03D1  00A0               	movwf	?___fladd
  4840     03D2  2C61               	goto	l562
  4841     03D3                     l1743:
  4842     03D3  3001               	movlw	1
  4843     03D4                     u1865:
  4844     03D4  35A0               	lslf	___fladd@b,f
  4845     03D5  0DA1               	rlf	___fladd@b+1,f
  4846     03D6  0DA2               	rlf	___fladd@b+2,f
  4847     03D7  0DA3               	rlf	___fladd@b+3,f
  4848     03D8  0B89               	decfsz	9,f
  4849     03D9  2BD4               	goto	u1865
  4850     03DA                     l1745:
  4851     03DA  1FB3               	btfss	___fladd@grs,7
  4852     03DB  2BDD               	goto	u1871
  4853     03DC  2BDE               	goto	u1870
  4854     03DD                     u1871:
  4855     03DD  2BDF               	goto	l574
  4856     03DE                     u1870:
  4857     03DE                     l1747:
  4858     03DE  1420               	bsf	___fladd@b,0
  4859     03DF                     l574:
  4860     03DF  1C33               	btfss	___fladd@grs,0
  4861     03E0  2BE2               	goto	u1881
  4862     03E1  2BE3               	goto	u1880
  4863     03E2                     u1881:
  4864     03E2  2BE6               	goto	l1751
  4865     03E3                     u1880:
  4866     03E3                     l1749:
  4867     03E3  1403               	setc
  4868     03E4  0DB3               	rlf	___fladd@grs,f
  4869     03E5  2BE8               	goto	l1753
  4870     03E6                     l1751:
  4871     03E6  1003               	clrc
  4872     03E7  0DB3               	rlf	___fladd@grs,f
  4873     03E8                     l1753:
  4874     03E8  0832               	movf	___fladd@bexp,w
  4875     03E9  1903               	btfsc	3,2
  4876     03EA  2BEC               	goto	u1891
  4877     03EB  2BED               	goto	u1890
  4878     03EC                     u1891:
  4879     03EC  2BEF               	goto	l1757
  4880     03ED                     u1890:
  4881     03ED                     l1755:
  4882     03ED  3001               	movlw	1
  4883     03EE  02B2               	subwf	___fladd@bexp,f
  4884     03EF                     l1757:
  4885     03EF  1FA2               	btfss	___fladd@b+2,7
  4886     03F0  2BF2               	goto	u1901
  4887     03F1  2BF3               	goto	u1900
  4888     03F2                     u1901:
  4889     03F2  2BD3               	goto	l1743
  4890     03F3                     u1900:
  4891     03F3                     l1759:
  4892     03F3  01B1               	clrf	___fladd@aexp
  4893     03F4                     l1761:
  4894     03F4  1FB3               	btfss	___fladd@grs,7
  4895     03F5  2BF7               	goto	u1911
  4896     03F6  2BF8               	goto	u1910
  4897     03F7                     u1911:
  4898     03F7  2C06               	goto	l1769
  4899     03F8                     u1910:
  4900     03F8                     l1763:
  4901     03F8  0833               	movf	___fladd@grs,w
  4902     03F9  397F               	andlw	127
  4903     03FA  1903               	btfsc	3,2
  4904     03FB  2BFD               	goto	u1921
  4905     03FC  2BFE               	goto	u1920
  4906     03FD                     u1921:
  4907     03FD  2C01               	goto	l580
  4908     03FE                     u1920:
  4909     03FE                     l1765:
  4910     03FE  01B1               	clrf	___fladd@aexp
  4911     03FF  0AB1               	incf	___fladd@aexp,f
  4912     0400  2C06               	goto	l1769
  4913     0401                     l580:
  4914     0401  1C20               	btfss	___fladd@b,0
  4915     0402  2C04               	goto	u1931
  4916     0403  2C05               	goto	u1930
  4917     0404                     u1931:
  4918     0404  2C06               	goto	l1769
  4919     0405                     u1930:
  4920     0405  2BFE               	goto	l1765
  4921     0406                     l1769:
  4922     0406  0831               	movf	___fladd@aexp,w
  4923     0407  1903               	btfsc	3,2
  4924     0408  2C0A               	goto	u1941
  4925     0409  2C0B               	goto	u1940
  4926     040A                     u1941:
  4927     040A  2C38               	goto	l583
  4928     040B                     u1940:
  4929     040B                     l1771:
  4930     040B  3001               	movlw	1
  4931     040C  07A0               	addwf	___fladd@b,f
  4932     040D  3000               	movlw	0
  4933     040E  3DA1               	addwfc	___fladd@b+1,f
  4934     040F  3000               	movlw	0
  4935     0410  3DA2               	addwfc	___fladd@b+2,f
  4936     0411  3000               	movlw	0
  4937     0412  3DA3               	addwfc	___fladd@b+3,f
  4938     0413                     l1773:
  4939     0413  1C23               	btfss	___fladd@b+3,0
  4940     0414  2C16               	goto	u1951
  4941     0415  2C17               	goto	u1950
  4942     0416                     u1951:
  4943     0416  2C38               	goto	l583
  4944     0417                     u1950:
  4945     0417                     l1775:
  4946     0417  0820               	movf	___fladd@b,w
  4947     0418  00A8               	movwf	??___fladd
  4948     0419  0821               	movf	___fladd@b+1,w
  4949     041A  00A9               	movwf	??___fladd+1
  4950     041B  0822               	movf	___fladd@b+2,w
  4951     041C  00AA               	movwf	??___fladd+2
  4952     041D  0823               	movf	___fladd@b+3,w
  4953     041E  00AB               	movwf	??___fladd+3
  4954     041F  3001               	movlw	1
  4955     0420  00AC               	movwf	??___fladd+4
  4956     0421                     u1965:
  4957     0421  37AB               	asrf	??___fladd+3,f
  4958     0422  0CAA               	rrf	??___fladd+2,f
  4959     0423  0CA9               	rrf	??___fladd+1,f
  4960     0424  0CA8               	rrf	??___fladd,f
  4961     0425                     u1960:
  4962     0425  0BAC               	decfsz	??___fladd+4,f
  4963     0426  2C21               	goto	u1965
  4964     0427  082B               	movf	??___fladd+3,w
  4965     0428  00A3               	movwf	___fladd@b+3
  4966     0429  082A               	movf	??___fladd+2,w
  4967     042A  00A2               	movwf	___fladd@b+2
  4968     042B  0829               	movf	??___fladd+1,w
  4969     042C  00A1               	movwf	___fladd@b+1
  4970     042D  0828               	movf	??___fladd,w
  4971     042E  00A0               	movwf	___fladd@b
  4972     042F  0A32               	incf	___fladd@bexp,w
  4973     0430  1903               	btfsc	3,2
  4974     0431  2C33               	goto	u1971
  4975     0432  2C34               	goto	u1970
  4976     0433                     u1971:
  4977     0433  2C38               	goto	l583
  4978     0434                     u1970:
  4979     0434                     l1777:
  4980     0434  3001               	movlw	1
  4981     0435  00A8               	movwf	??___fladd
  4982     0436  0828               	movf	??___fladd,w
  4983     0437  07B2               	addwf	___fladd@bexp,f
  4984     0438                     l583:
  4985     0438  0A32               	incf	___fladd@bexp,w
  4986     0439  1903               	btfsc	3,2
  4987     043A  2C3C               	goto	u1981
  4988     043B  2C3D               	goto	u1980
  4989     043C                     u1981:
  4990     043C  2C42               	goto	l1781
  4991     043D                     u1980:
  4992     043D                     l1779:
  4993     043D  0832               	movf	___fladd@bexp,w
  4994     043E  1D03               	btfss	3,2
  4995     043F  2C41               	goto	u1991
  4996     0440  2C42               	goto	u1990
  4997     0441                     u1991:
  4998     0441  2C50               	goto	l1787
  4999     0442                     u1990:
  5000     0442                     l1781:
  5001     0442  3000               	movlw	0
  5002     0443  00A3               	movwf	___fladd@b+3
  5003     0444  3000               	movlw	0
  5004     0445  00A2               	movwf	___fladd@b+2
  5005     0446  3000               	movlw	0
  5006     0447  00A1               	movwf	___fladd@b+1
  5007     0448  3000               	movlw	0
  5008     0449  00A0               	movwf	___fladd@b
  5009     044A                     l1783:
  5010     044A  0832               	movf	___fladd@bexp,w
  5011     044B  1D03               	btfss	3,2
  5012     044C  2C4E               	goto	u2001
  5013     044D  2C4F               	goto	u2000
  5014     044E                     u2001:
  5015     044E  2C50               	goto	l1787
  5016     044F                     u2000:
  5017     044F                     l1785:
  5018     044F  01B0               	clrf	___fladd@signs
  5019     0450                     l1787:
  5020     0450  1C32               	btfss	___fladd@bexp,0
  5021     0451  2C53               	goto	u2011
  5022     0452  2C54               	goto	u2010
  5023     0453                     u2011:
  5024     0453  2C56               	goto	l1791
  5025     0454                     u2010:
  5026     0454                     l1789:
  5027     0454  17A2               	bsf	___fladd@b+2,7
  5028     0455  2C5A               	goto	l591
  5029     0456                     l1791:
  5030     0456  307F               	movlw	127
  5031     0457  00A8               	movwf	??___fladd
  5032     0458  0828               	movf	??___fladd,w
  5033     0459  05A2               	andwf	___fladd@b+2,f
  5034     045A                     l591:
  5035     045A  3632               	lsrf	___fladd@bexp,w
  5036     045B  00A3               	movwf	___fladd@b+3
  5037     045C                     l1793:
  5038     045C  1FB0               	btfss	___fladd@signs,7
  5039     045D  2C5F               	goto	u2021
  5040     045E  2C60               	goto	u2020
  5041     045F                     u2021:
  5042     045F  2C61               	goto	l592
  5043     0460                     u2020:
  5044     0460                     l1795:
  5045     0460  17A3               	bsf	___fladd@b+3,7
  5046     0461                     l592:
  5047     0461                     l562:
  5048     0461  0008               	return
  5049     0462                     __end_of___fladd:
  5050                           
  5051                           	psect	text13
  5052     0DE3                     __ptext13:	
  5053 ;; *************** function _EUSART_Read_Text *****************
  5054 ;; Defined at:
  5055 ;;		line 90 in file "EUSART.c"
  5056 ;; Parameters:    Size  Location     Type
  5057 ;;  Output          1    wreg     PTR unsigned char 
  5058 ;;		 -> buf(50), 
  5059 ;;  length          2    6[COMMON] unsigned int 
  5060 ;; Auto vars:     Size  Location     Type
  5061 ;;  Output          1    1[BANK0 ] PTR unsigned char 
  5062 ;;		 -> buf(50), 
  5063 ;;  i               2    2[BANK0 ] int 
  5064 ;;  i               2    0        int 
  5065 ;; Return value:  Size  Location     Type
  5066 ;;                  1    wreg      void 
  5067 ;; Registers used:
  5068 ;;		wreg, fsr1l, fsr1h, status,2, status,0, pclath, cstack
  5069 ;; Tracked objects:
  5070 ;;		On entry : 0/0
  5071 ;;		On exit  : 0/0
  5072 ;;		Unchanged: 0/0
  5073 ;; Data sizes:     COMMON   BANK0   BANK1   BANK2   BANK3   BANK4   BANK5   BANK6   BANK7   BANK8   BANK9  BANK10  BANK1
      +1  BANK12  BANK13  BANK14  BANK15  BANK16  BANK17  BANK18  BANK19  BANK20  BANK21  BANK22  BANK23  BANK24  BANK25
  5074 ;;      Params:         2       0       0       0       0       0       0       0       0       0       0       0       
      +0       0       0       0       0       0       0       0       0       0       0       0       0       0       0
  5075 ;;      Locals:         0       3       0       0       0       0       0       0       0       0       0       0       
      +0       0       0       0       0       0       0       0       0       0       0       0       0       0       0
  5076 ;;      Temps:          0       1       0       0       0       0       0       0       0       0       0       0       
      +0       0       0       0       0       0       0       0       0       0       0       0       0       0       0
  5077 ;;      Totals:         2       4       0       0       0       0       0       0       0       0       0       0       
      +0       0       0       0       0       0       0       0       0       0       0       0       0       0       0
  5078 ;;Total ram usage:        6 bytes
  5079 ;; Hardware stack levels used: 1
  5080 ;; Hardware stack levels required when called: 5
  5081 ;; This function calls:
  5082 ;;		_EUSART_Read
  5083 ;; This function is called by:
  5084 ;;		_main
  5085 ;; This function uses a non-reentrant model
  5086 ;;
  5087                           
  5088     0DE3                     _EUSART_Read_Text:	
  5089                           ;psect for function _EUSART_Read_Text
  5090                           
  5091                           
  5092                           ;incstack = 0
  5093                           ; Regs used in _EUSART_Read_Text: [wreg+fsr1l+fsr1h+status,2+status,0+pclath+cstack]
  5094                           ;EUSART_Read_Text@Output stored from wreg
  5095     0DE3  0020               	movlb	0	; select bank0
  5096     0DE4  00A1               	movwf	EUSART_Read_Text@Output
  5097     0DE5                     l2241:
  5098                           
  5099                           ;EUSART.c: 90: void EUSART_Read_Text(char *Output, unsigned int length);EUSART.c: 91: {;
      +                          EUSART.c: 92:  int i;;EUSART.c: 93:  for(int i=0;i<length;i++)
  5100     0DE5  01A2               	clrf	EUSART_Read_Text@i_534
  5101     0DE6  01A3               	clrf	EUSART_Read_Text@i_534+1
  5102     0DE7  2DF7               	goto	l2247
  5103     0DE8                     l2243:
  5104                           
  5105                           ;EUSART.c: 94:   Output[i] = EUSART_Read();
  5106     0DE8  0822               	movf	EUSART_Read_Text@i_534,w
  5107     0DE9  0721               	addwf	EUSART_Read_Text@Output,w
  5108     0DEA  00A0               	movwf	??_EUSART_Read_Text
  5109     0DEB  0820               	movf	??_EUSART_Read_Text,w
  5110     0DEC  0086               	movwf	6
  5111     0DED  0187               	clrf	7
  5112     0DEE  3187  27EC  318D   	fcall	_EUSART_Read
  5113     0DF1  0081               	movwf	1
  5114     0DF2                     l2245:
  5115     0DF2  3001               	movlw	1
  5116     0DF3  0020               	movlb	0	; select bank0
  5117     0DF4  07A2               	addwf	EUSART_Read_Text@i_534,f
  5118     0DF5  3000               	movlw	0
  5119     0DF6  3DA3               	addwfc	EUSART_Read_Text@i_534+1,f
  5120     0DF7                     l2247:
  5121     0DF7  0877               	movf	EUSART_Read_Text@length+1,w
  5122     0DF8  0223               	subwf	EUSART_Read_Text@i_534+1,w
  5123     0DF9  1D03               	skipz
  5124     0DFA  2DFD               	goto	u2785
  5125     0DFB  0876               	movf	EUSART_Read_Text@length,w
  5126     0DFC  0222               	subwf	EUSART_Read_Text@i_534,w
  5127     0DFD                     u2785:
  5128     0DFD  1C03               	skipc
  5129     0DFE  2E00               	goto	u2781
  5130     0DFF  2E01               	goto	u2780
  5131     0E00                     u2781:
  5132     0E00  2DE8               	goto	l2243
  5133     0E01                     u2780:
  5134     0E01                     l152:
  5135     0E01  0008               	return
  5136     0E02                     __end_of_EUSART_Read_Text:
  5137                           
  5138                           	psect	text14
  5139     07EC                     __ptext14:	
  5140 ;; *************** function _EUSART_Read *****************
  5141 ;; Defined at:
  5142 ;;		line 62 in file "EUSART.c"
  5143 ;; Parameters:    Size  Location     Type
  5144 ;;		None
  5145 ;; Auto vars:     Size  Location     Type
  5146 ;;		None
  5147 ;; Return value:  Size  Location     Type
  5148 ;;                  1    wreg      unsigned char 
  5149 ;; Registers used:
  5150 ;;		wreg
  5151 ;; Tracked objects:
  5152 ;;		On entry : 0/0
  5153 ;;		On exit  : 0/0
  5154 ;;		Unchanged: 0/0
  5155 ;; Data sizes:     COMMON   BANK0   BANK1   BANK2   BANK3   BANK4   BANK5   BANK6   BANK7   BANK8   BANK9  BANK10  BANK1
      +1  BANK12  BANK13  BANK14  BANK15  BANK16  BANK17  BANK18  BANK19  BANK20  BANK21  BANK22  BANK23  BANK24  BANK25
  5156 ;;      Params:         0       0       0       0       0       0       0       0       0       0       0       0       
      +0       0       0       0       0       0       0       0       0       0       0       0       0       0       0
  5157 ;;      Locals:         0       0       0       0       0       0       0       0       0       0       0       0       
      +0       0       0       0       0       0       0       0       0       0       0       0       0       0       0
  5158 ;;      Temps:          0       0       0       0       0       0       0       0       0       0       0       0       
      +0       0       0       0       0       0       0       0       0       0       0       0       0       0       0
  5159 ;;      Totals:         0       0       0       0       0       0       0       0       0       0       0       0       
      +0       0       0       0       0       0       0       0       0       0       0       0       0       0       0
  5160 ;;Total ram usage:        0 bytes
  5161 ;; Hardware stack levels used: 1
  5162 ;; Hardware stack levels required when called: 4
  5163 ;; This function calls:
  5164 ;;		Nothing
  5165 ;; This function is called by:
  5166 ;;		_EUSART_Read_Text
  5167 ;; This function uses a non-reentrant model
  5168 ;;
  5169                           
  5170     07EC                     _EUSART_Read:	
  5171                           ;psect for function _EUSART_Read
  5172                           
  5173     07EC                     l1555:	
  5174                           ;incstack = 0
  5175                           ; Regs used in _EUSART_Read: [wreg]
  5176                           
  5177                           
  5178                           ;EUSART.c: 65:    RC1STAbits.SREN = 1;
  5179     07EC  0023               	movlb	3	; select bank3
  5180     07ED  169D               	bsf	29,5	;volatile
  5181     07EE                     l142:	
  5182                           ;EUSART.c: 67:     {;EUSART.c: 68:     }
  5183                           
  5184                           
  5185                           ;EUSART.c: 66:     while(!PIR1bits.RCIF)
  5186     07EE  0020               	movlb	0	; select bank0
  5187     07EF  1E91               	btfss	17,5	;volatile
  5188     07F0  2FF2               	goto	u1481
  5189     07F1  2FF3               	goto	u1480
  5190     07F2                     u1481:
  5191     07F2  2FEE               	goto	l142
  5192     07F3                     u1480:
  5193     07F3                     l144:
  5194                           
  5195                           ;EUSART.c: 70:     if(1 == RC1STAbits.OERR)
  5196     07F3  0023               	movlb	3	; select bank3
  5197     07F4  1C9D               	btfss	29,1	;volatile
  5198     07F5  2FF7               	goto	u1491
  5199     07F6  2FF8               	goto	u1490
  5200     07F7                     u1491:
  5201     07F7  2FFA               	goto	l1559
  5202     07F8                     u1490:
  5203     07F8                     l1557:
  5204                           
  5205                           ;EUSART.c: 71:     {;EUSART.c: 74:         RC1STAbits.SPEN = 0;
  5206     07F8  139D               	bcf	29,7	;volatile
  5207                           
  5208                           ;EUSART.c: 75:         RC1STAbits.SPEN = 1;
  5209     07F9  179D               	bsf	29,7	;volatile
  5210     07FA                     l1559:
  5211                           
  5212                           ;EUSART.c: 78:     return RC1REG;
  5213     07FA  0819               	movf	25,w	;volatile
  5214     07FB                     l146:
  5215     07FB  0008               	return
  5216     07FC                     __end_of_EUSART_Read:
  5217                           
  5218                           	psect	text15
  5219     0EAF                     __ptext15:	
  5220 ;; *************** function _EUSART_Initialize *****************
  5221 ;; Defined at:
  5222 ;;		line 36 in file "EUSART.c"
  5223 ;; Parameters:    Size  Location     Type
  5224 ;;  baudrate        4   14[BANK0 ] const long 
  5225 ;; Auto vars:     Size  Location     Type
  5226 ;;  x               2   30[BANK0 ] unsigned int 
  5227 ;; Return value:  Size  Location     Type
  5228 ;;                  1    wreg      unsigned char 
  5229 ;; Registers used:
  5230 ;;		wreg, status,2, status,0, pclath, cstack
  5231 ;; Tracked objects:
  5232 ;;		On entry : 0/0
  5233 ;;		On exit  : 0/0
  5234 ;;		Unchanged: 0/0
  5235 ;; Data sizes:     COMMON   BANK0   BANK1   BANK2   BANK3   BANK4   BANK5   BANK6   BANK7   BANK8   BANK9  BANK10  BANK1
      +1  BANK12  BANK13  BANK14  BANK15  BANK16  BANK17  BANK18  BANK19  BANK20  BANK21  BANK22  BANK23  BANK24  BANK25
  5236 ;;      Params:         0       4       0       0       0       0       0       0       0       0       0       0       
      +0       0       0       0       0       0       0       0       0       0       0       0       0       0       0
  5237 ;;      Locals:         0       2       0       0       0       0       0       0       0       0       0       0       
      +0       0       0       0       0       0       0       0       0       0       0       0       0       0       0
  5238 ;;      Temps:          0      12       0       0       0       0       0       0       0       0       0       0       
      +0       0       0       0       0       0       0       0       0       0       0       0       0       0       0
  5239 ;;      Totals:         0      18       0       0       0       0       0       0       0       0       0       0       
      +0       0       0       0       0       0       0       0       0       0       0       0       0       0       0
  5240 ;;Total ram usage:       18 bytes
  5241 ;; Hardware stack levels used: 1
  5242 ;; Hardware stack levels required when called: 5
  5243 ;; This function calls:
  5244 ;;		___aldiv
  5245 ;; This function is called by:
  5246 ;;		_main
  5247 ;; This function uses a non-reentrant model
  5248 ;;
  5249                           
  5250     0EAF                     _EUSART_Initialize:	
  5251                           ;psect for function _EUSART_Initialize
  5252                           
  5253     0EAF                     l2195:	
  5254                           ;incstack = 0
  5255                           ; Regs used in _EUSART_Initialize: [wreg+status,2+status,0+pclath+cstack]
  5256                           
  5257                           
  5258                           ;EUSART.c: 36: char EUSART_Initialize(const long int baudrate);EUSART.c: 37: {;EUSART.c:
      +                           38:     unsigned int x;;EUSART.c: 39:  x = (32000000 - baudrate*64)/(baudrate*64);
  5259     0EAF  0020               	movlb	0	; select bank0
  5260     0EB0  082E               	movf	EUSART_Initialize@baudrate,w
  5261     0EB1  00B2               	movwf	??_EUSART_Initialize
  5262     0EB2  082F               	movf	EUSART_Initialize@baudrate+1,w
  5263     0EB3  00B3               	movwf	??_EUSART_Initialize+1
  5264     0EB4  0830               	movf	EUSART_Initialize@baudrate+2,w
  5265     0EB5  00B4               	movwf	??_EUSART_Initialize+2
  5266     0EB6  0831               	movf	EUSART_Initialize@baudrate+3,w
  5267     0EB7  00B5               	movwf	??_EUSART_Initialize+3
  5268     0EB8  3006               	movlw	6
  5269     0EB9                     u2735:
  5270     0EB9  35B2               	lslf	??_EUSART_Initialize,f
  5271     0EBA  0DB3               	rlf	??_EUSART_Initialize+1,f
  5272     0EBB  0DB4               	rlf	??_EUSART_Initialize+2,f
  5273     0EBC  0DB5               	rlf	??_EUSART_Initialize+3,f
  5274     0EBD                     u2730:
  5275     0EBD  0B89               	decfsz	9,f
  5276     0EBE  2EB9               	goto	u2735
  5277     0EBF  0835               	movf	??_EUSART_Initialize+3,w
  5278     0EC0  00A3               	movwf	___aldiv@divisor+3
  5279     0EC1  0834               	movf	??_EUSART_Initialize+2,w
  5280     0EC2  00A2               	movwf	___aldiv@divisor+2
  5281     0EC3  0833               	movf	??_EUSART_Initialize+1,w
  5282     0EC4  00A1               	movwf	___aldiv@divisor+1
  5283     0EC5  0832               	movf	??_EUSART_Initialize,w
  5284     0EC6  00A0               	movwf	___aldiv@divisor
  5285     0EC7  082E               	movf	EUSART_Initialize@baudrate,w
  5286     0EC8  00B6               	movwf	??_EUSART_Initialize+4
  5287     0EC9  082F               	movf	EUSART_Initialize@baudrate+1,w
  5288     0ECA  00B7               	movwf	??_EUSART_Initialize+5
  5289     0ECB  0830               	movf	EUSART_Initialize@baudrate+2,w
  5290     0ECC  00B8               	movwf	??_EUSART_Initialize+6
  5291     0ECD  0831               	movf	EUSART_Initialize@baudrate+3,w
  5292     0ECE  00B9               	movwf	??_EUSART_Initialize+7
  5293     0ECF  3006               	movlw	6
  5294     0ED0                     u2745:
  5295     0ED0  35B6               	lslf	??_EUSART_Initialize+4,f
  5296     0ED1  0DB7               	rlf	??_EUSART_Initialize+5,f
  5297     0ED2  0DB8               	rlf	??_EUSART_Initialize+6,f
  5298     0ED3  0DB9               	rlf	??_EUSART_Initialize+7,f
  5299     0ED4                     u2740:
  5300     0ED4  0B89               	decfsz	9,f
  5301     0ED5  2ED0               	goto	u2745
  5302     0ED6  3000               	movlw	0
  5303     0ED7  00BA               	movwf	??_EUSART_Initialize+8
  5304     0ED8  3048               	movlw	72
  5305     0ED9  00BB               	movwf	??_EUSART_Initialize+9
  5306     0EDA  30E8               	movlw	232
  5307     0EDB  00BC               	movwf	??_EUSART_Initialize+10
  5308     0EDC  3001               	movlw	1
  5309     0EDD  00BD               	movwf	??_EUSART_Initialize+11
  5310     0EDE  0836               	movf	??_EUSART_Initialize+4,w
  5311     0EDF  02BA               	subwf	??_EUSART_Initialize+8,f
  5312     0EE0  0837               	movf	??_EUSART_Initialize+5,w
  5313     0EE1  3BBB               	subwfb	??_EUSART_Initialize+9,f
  5314     0EE2  0838               	movf	??_EUSART_Initialize+6,w
  5315     0EE3  3BBC               	subwfb	??_EUSART_Initialize+10,f
  5316     0EE4  0839               	movf	??_EUSART_Initialize+7,w
  5317     0EE5  3BBD               	subwfb	??_EUSART_Initialize+11,f
  5318     0EE6  083D               	movf	??_EUSART_Initialize+11,w
  5319     0EE7  00A7               	movwf	___aldiv@dividend+3
  5320     0EE8  083C               	movf	??_EUSART_Initialize+10,w
  5321     0EE9  00A6               	movwf	___aldiv@dividend+2
  5322     0EEA  083B               	movf	??_EUSART_Initialize+9,w
  5323     0EEB  00A5               	movwf	___aldiv@dividend+1
  5324     0EEC  083A               	movf	??_EUSART_Initialize+8,w
  5325     0EED  00A4               	movwf	___aldiv@dividend
  5326     0EEE  318F  2770  318E   	fcall	___aldiv
  5327     0EF1  0020               	movlb	0	; select bank0
  5328     0EF2  0821               	movf	?___aldiv+1,w
  5329     0EF3  00BF               	movwf	EUSART_Initialize@x+1
  5330     0EF4  0820               	movf	?___aldiv,w
  5331     0EF5  00BE               	movwf	EUSART_Initialize@x
  5332     0EF6                     l2197:
  5333                           
  5334                           ;EUSART.c: 41:  SPBRGL = x;
  5335     0EF6  083E               	movf	EUSART_Initialize@x,w
  5336     0EF7  0023               	movlb	3	; select bank3
  5337     0EF8  009B               	movwf	27	;volatile
  5338     0EF9                     l2199:
  5339                           
  5340                           ;EUSART.c: 42:     BRGH = 0;
  5341     0EF9  111E               	bcf	30,2	;volatile
  5342     0EFA                     l2201:
  5343                           
  5344                           ;EUSART.c: 43:     BRG16 = 0;
  5345     0EFA  119F               	bcf	31,3	;volatile
  5346     0EFB                     l2203:
  5347                           
  5348                           ;EUSART.c: 44:     SYNC = 0;
  5349     0EFB  121E               	bcf	30,4	;volatile
  5350     0EFC                     l2205:
  5351                           
  5352                           ;EUSART.c: 45:     SPEN = 1;
  5353     0EFC  179D               	bsf	29,7	;volatile
  5354     0EFD                     l2207:
  5355                           
  5356                           ;EUSART.c: 46:     CREN = 1;
  5357     0EFD  161D               	bsf	29,4	;volatile
  5358     0EFE                     l2209:
  5359                           
  5360                           ;EUSART.c: 47:     TXEN = 1;
  5361     0EFE  169E               	bsf	30,5	;volatile
  5362     0EFF                     l139:
  5363     0EFF  0008               	return
  5364     0F00                     __end_of_EUSART_Initialize:
  5365                           
  5366                           	psect	text16
  5367     0F70                     __ptext16:	
  5368 ;; *************** function ___aldiv *****************
  5369 ;; Defined at:
  5370 ;;		line 5 in file "C:\Program Files\Microchip\xc8\v2.45\pic\sources\c99\common\aldiv.c"
  5371 ;; Parameters:    Size  Location     Type
  5372 ;;  divisor         4    0[BANK0 ] long 
  5373 ;;  dividend        4    4[BANK0 ] long 
  5374 ;; Auto vars:     Size  Location     Type
  5375 ;;  quotient        4   10[BANK0 ] long 
  5376 ;;  sign            1    9[BANK0 ] unsigned char 
  5377 ;;  counter         1    8[BANK0 ] unsigned char 
  5378 ;; Return value:  Size  Location     Type
  5379 ;;                  4    0[BANK0 ] long 
  5380 ;; Registers used:
  5381 ;;		wreg, status,2, status,0
  5382 ;; Tracked objects:
  5383 ;;		On entry : 0/0
  5384 ;;		On exit  : 0/0
  5385 ;;		Unchanged: 0/0
  5386 ;; Data sizes:     COMMON   BANK0   BANK1   BANK2   BANK3   BANK4   BANK5   BANK6   BANK7   BANK8   BANK9  BANK10  BANK1
      +1  BANK12  BANK13  BANK14  BANK15  BANK16  BANK17  BANK18  BANK19  BANK20  BANK21  BANK22  BANK23  BANK24  BANK25
  5387 ;;      Params:         0       8       0       0       0       0       0       0       0       0       0       0       
      +0       0       0       0       0       0       0       0       0       0       0       0       0       0       0
  5388 ;;      Locals:         0       6       0       0       0       0       0       0       0       0       0       0       
      +0       0       0       0       0       0       0       0       0       0       0       0       0       0       0
  5389 ;;      Temps:          1       0       0       0       0       0       0       0       0       0       0       0       
      +0       0       0       0       0       0       0       0       0       0       0       0       0       0       0
  5390 ;;      Totals:         1      14       0       0       0       0       0       0       0       0       0       0       
      +0       0       0       0       0       0       0       0       0       0       0       0       0       0       0
  5391 ;;Total ram usage:       15 bytes
  5392 ;; Hardware stack levels used: 1
  5393 ;; Hardware stack levels required when called: 4
  5394 ;; This function calls:
  5395 ;;		Nothing
  5396 ;; This function is called by:
  5397 ;;		_EUSART_Initialize
  5398 ;; This function uses a non-reentrant model
  5399 ;;
  5400                           
  5401     0F70                     ___aldiv:	
  5402                           ;psect for function ___aldiv
  5403                           
  5404     0F70                     l1563:	
  5405                           ;incstack = 0
  5406                           ; Regs used in ___aldiv: [wreg+status,2+status,0]
  5407                           
  5408     0F70  0020               	movlb	0	; select bank0
  5409     0F71  01A9               	clrf	___aldiv@sign
  5410     0F72                     l1565:
  5411     0F72  1FA3               	btfss	___aldiv@divisor+3,7
  5412     0F73  2F75               	goto	u1501
  5413     0F74  2F76               	goto	u1500
  5414     0F75                     u1501:
  5415     0F75  2F83               	goto	l313
  5416     0F76                     u1500:
  5417     0F76                     l1567:
  5418     0F76  09A0               	comf	___aldiv@divisor,f
  5419     0F77  09A1               	comf	___aldiv@divisor+1,f
  5420     0F78  09A2               	comf	___aldiv@divisor+2,f
  5421     0F79  09A3               	comf	___aldiv@divisor+3,f
  5422     0F7A  0AA0               	incf	___aldiv@divisor,f
  5423     0F7B  1903               	skipnz
  5424     0F7C  0AA1               	incf	___aldiv@divisor+1,f
  5425     0F7D  1903               	skipnz
  5426     0F7E  0AA2               	incf	___aldiv@divisor+2,f
  5427     0F7F  1903               	skipnz
  5428     0F80  0AA3               	incf	___aldiv@divisor+3,f
  5429     0F81  01A9               	clrf	___aldiv@sign
  5430     0F82  0AA9               	incf	___aldiv@sign,f
  5431     0F83                     l313:
  5432     0F83  1FA7               	btfss	___aldiv@dividend+3,7
  5433     0F84  2F86               	goto	u1511
  5434     0F85  2F87               	goto	u1510
  5435     0F86                     u1511:
  5436     0F86  2F96               	goto	l1573
  5437     0F87                     u1510:
  5438     0F87                     l1569:
  5439     0F87  09A4               	comf	___aldiv@dividend,f
  5440     0F88  09A5               	comf	___aldiv@dividend+1,f
  5441     0F89  09A6               	comf	___aldiv@dividend+2,f
  5442     0F8A  09A7               	comf	___aldiv@dividend+3,f
  5443     0F8B  0AA4               	incf	___aldiv@dividend,f
  5444     0F8C  1903               	skipnz
  5445     0F8D  0AA5               	incf	___aldiv@dividend+1,f
  5446     0F8E  1903               	skipnz
  5447     0F8F  0AA6               	incf	___aldiv@dividend+2,f
  5448     0F90  1903               	skipnz
  5449     0F91  0AA7               	incf	___aldiv@dividend+3,f
  5450     0F92                     l1571:
  5451     0F92  3001               	movlw	1
  5452     0F93  00F6               	movwf	??___aldiv
  5453     0F94  0876               	movf	??___aldiv,w
  5454     0F95  06A9               	xorwf	___aldiv@sign,f
  5455     0F96                     l1573:
  5456     0F96  3000               	movlw	0
  5457     0F97  00AD               	movwf	___aldiv@quotient+3
  5458     0F98  3000               	movlw	0
  5459     0F99  00AC               	movwf	___aldiv@quotient+2
  5460     0F9A  3000               	movlw	0
  5461     0F9B  00AB               	movwf	___aldiv@quotient+1
  5462     0F9C  3000               	movlw	0
  5463     0F9D  00AA               	movwf	___aldiv@quotient
  5464     0F9E                     l1575:
  5465     0F9E  0823               	movf	___aldiv@divisor+3,w
  5466     0F9F  0422               	iorwf	___aldiv@divisor+2,w
  5467     0FA0  0421               	iorwf	___aldiv@divisor+1,w
  5468     0FA1  0420               	iorwf	___aldiv@divisor,w
  5469     0FA2  1903               	skipnz
  5470     0FA3  2FA5               	goto	u1521
  5471     0FA4  2FA6               	goto	u1520
  5472     0FA5                     u1521:
  5473     0FA5  2FE7               	goto	l1595
  5474     0FA6                     u1520:
  5475     0FA6                     l1577:
  5476     0FA6  01A8               	clrf	___aldiv@counter
  5477     0FA7  0AA8               	incf	___aldiv@counter,f
  5478     0FA8  2FB4               	goto	l1581
  5479     0FA9                     l1579:
  5480     0FA9  3001               	movlw	1
  5481     0FAA                     u1535:
  5482     0FAA  35A0               	lslf	___aldiv@divisor,f
  5483     0FAB  0DA1               	rlf	___aldiv@divisor+1,f
  5484     0FAC  0DA2               	rlf	___aldiv@divisor+2,f
  5485     0FAD  0DA3               	rlf	___aldiv@divisor+3,f
  5486     0FAE  0B89               	decfsz	9,f
  5487     0FAF  2FAA               	goto	u1535
  5488     0FB0  3001               	movlw	1
  5489     0FB1  00F6               	movwf	??___aldiv
  5490     0FB2  0876               	movf	??___aldiv,w
  5491     0FB3  07A8               	addwf	___aldiv@counter,f
  5492     0FB4                     l1581:
  5493     0FB4  1FA3               	btfss	___aldiv@divisor+3,7
  5494     0FB5  2FB7               	goto	u1541
  5495     0FB6  2FB8               	goto	u1540
  5496     0FB7                     u1541:
  5497     0FB7  2FA9               	goto	l1579
  5498     0FB8                     u1540:
  5499     0FB8                     l1583:
  5500     0FB8  3001               	movlw	1
  5501     0FB9                     u1555:
  5502     0FB9  35AA               	lslf	___aldiv@quotient,f
  5503     0FBA  0DAB               	rlf	___aldiv@quotient+1,f
  5504     0FBB  0DAC               	rlf	___aldiv@quotient+2,f
  5505     0FBC  0DAD               	rlf	___aldiv@quotient+3,f
  5506     0FBD  0B89               	decfsz	9,f
  5507     0FBE  2FB9               	goto	u1555
  5508     0FBF                     l1585:
  5509     0FBF  0823               	movf	___aldiv@divisor+3,w
  5510     0FC0  0227               	subwf	___aldiv@dividend+3,w
  5511     0FC1  1D03               	skipz
  5512     0FC2  2FCD               	goto	u1565
  5513     0FC3  0822               	movf	___aldiv@divisor+2,w
  5514     0FC4  0226               	subwf	___aldiv@dividend+2,w
  5515     0FC5  1D03               	skipz
  5516     0FC6  2FCD               	goto	u1565
  5517     0FC7  0821               	movf	___aldiv@divisor+1,w
  5518     0FC8  0225               	subwf	___aldiv@dividend+1,w
  5519     0FC9  1D03               	skipz
  5520     0FCA  2FCD               	goto	u1565
  5521     0FCB  0820               	movf	___aldiv@divisor,w
  5522     0FCC  0224               	subwf	___aldiv@dividend,w
  5523     0FCD                     u1565:
  5524     0FCD  1C03               	skipc
  5525     0FCE  2FD0               	goto	u1561
  5526     0FCF  2FD1               	goto	u1560
  5527     0FD0                     u1561:
  5528     0FD0  2FDA               	goto	l1591
  5529     0FD1                     u1560:
  5530     0FD1                     l1587:
  5531     0FD1  0820               	movf	___aldiv@divisor,w
  5532     0FD2  02A4               	subwf	___aldiv@dividend,f
  5533     0FD3  0821               	movf	___aldiv@divisor+1,w
  5534     0FD4  3BA5               	subwfb	___aldiv@dividend+1,f
  5535     0FD5  0822               	movf	___aldiv@divisor+2,w
  5536     0FD6  3BA6               	subwfb	___aldiv@dividend+2,f
  5537     0FD7  0823               	movf	___aldiv@divisor+3,w
  5538     0FD8  3BA7               	subwfb	___aldiv@dividend+3,f
  5539     0FD9                     l1589:
  5540     0FD9  142A               	bsf	___aldiv@quotient,0
  5541     0FDA                     l1591:
  5542     0FDA  3001               	movlw	1
  5543     0FDB                     u1575:
  5544     0FDB  36A3               	lsrf	___aldiv@divisor+3,f
  5545     0FDC  0CA2               	rrf	___aldiv@divisor+2,f
  5546     0FDD  0CA1               	rrf	___aldiv@divisor+1,f
  5547     0FDE  0CA0               	rrf	___aldiv@divisor,f
  5548     0FDF  0B89               	decfsz	9,f
  5549     0FE0  2FDB               	goto	u1575
  5550     0FE1                     l1593:
  5551     0FE1  3001               	movlw	1
  5552     0FE2  02A8               	subwf	___aldiv@counter,f
  5553     0FE3  1D03               	btfss	3,2
  5554     0FE4  2FE6               	goto	u1581
  5555     0FE5  2FE7               	goto	u1580
  5556     0FE6                     u1581:
  5557     0FE6  2FB8               	goto	l1583
  5558     0FE7                     u1580:
  5559     0FE7                     l1595:
  5560     0FE7  0829               	movf	___aldiv@sign,w
  5561     0FE8  1903               	btfsc	3,2
  5562     0FE9  2FEB               	goto	u1591
  5563     0FEA  2FEC               	goto	u1590
  5564     0FEB                     u1591:
  5565     0FEB  2FF7               	goto	l1599
  5566     0FEC                     u1590:
  5567     0FEC                     l1597:
  5568     0FEC  09AA               	comf	___aldiv@quotient,f
  5569     0FED  09AB               	comf	___aldiv@quotient+1,f
  5570     0FEE  09AC               	comf	___aldiv@quotient+2,f
  5571     0FEF  09AD               	comf	___aldiv@quotient+3,f
  5572     0FF0  0AAA               	incf	___aldiv@quotient,f
  5573     0FF1  1903               	skipnz
  5574     0FF2  0AAB               	incf	___aldiv@quotient+1,f
  5575     0FF3  1903               	skipnz
  5576     0FF4  0AAC               	incf	___aldiv@quotient+2,f
  5577     0FF5  1903               	skipnz
  5578     0FF6  0AAD               	incf	___aldiv@quotient+3,f
  5579     0FF7                     l1599:
  5580     0FF7  082D               	movf	___aldiv@quotient+3,w
  5581     0FF8  00A3               	movwf	?___aldiv+3
  5582     0FF9  082C               	movf	___aldiv@quotient+2,w
  5583     0FFA  00A2               	movwf	?___aldiv+2
  5584     0FFB  082B               	movf	___aldiv@quotient+1,w
  5585     0FFC  00A1               	movwf	?___aldiv+1
  5586     0FFD  082A               	movf	___aldiv@quotient,w
  5587     0FFE  00A0               	movwf	?___aldiv
  5588     0FFF                     l323:
  5589     0FFF  0008               	return
  5590     1000                     __end_of___aldiv:
  5591                           
  5592                           	psect	intentry
  5593     0004                     __pintentry:	
  5594 ;; *************** function _isr *****************
  5595 ;; Defined at:
  5596 ;;		line 242 in file "main.c"
  5597 ;; Parameters:    Size  Location     Type
  5598 ;;		None
  5599 ;; Auto vars:     Size  Location     Type
  5600 ;;		None
  5601 ;; Return value:  Size  Location     Type
  5602 ;;                  1    wreg      void 
  5603 ;; Registers used:
  5604 ;;		wreg, fsr0l, fsr0h, status,2, status,0, pclath, cstack
  5605 ;; Tracked objects:
  5606 ;;		On entry : 0/0
  5607 ;;		On exit  : 0/0
  5608 ;;		Unchanged: 0/0
  5609 ;; Data sizes:     COMMON   BANK0   BANK1   BANK2   BANK3   BANK4   BANK5   BANK6   BANK7   BANK8   BANK9  BANK10  BANK1
      +1  BANK12  BANK13  BANK14  BANK15  BANK16  BANK17  BANK18  BANK19  BANK20  BANK21  BANK22  BANK23  BANK24  BANK25
  5610 ;;      Params:         0       0       0       0       0       0       0       0       0       0       0       0       
      +0       0       0       0       0       0       0       0       0       0       0       0       0       0       0
  5611 ;;      Locals:         0       0       0       0       0       0       0       0       0       0       0       0       
      +0       0       0       0       0       0       0       0       0       0       0       0       0       0       0
  5612 ;;      Temps:          0       0       0       0       0       0       0       0       0       0       0       0       
      +0       0       0       0       0       0       0       0       0       0       0       0       0       0       0
  5613 ;;      Totals:         0       0       0       0       0       0       0       0       0       0       0       0       
      +0       0       0       0       0       0       0       0       0       0       0       0       0       0       0
  5614 ;;Total ram usage:        0 bytes
  5615 ;; Hardware stack levels used: 1
  5616 ;; Hardware stack levels required when called: 3
  5617 ;; This function calls:
  5618 ;;		i1_server_Initialize
  5619 ;; This function is called by:
  5620 ;;		Interrupt level 1
  5621 ;; This function uses a non-reentrant model
  5622 ;;
  5623                           
  5624     0004                     _isr:
  5625                           
  5626                           ;incstack = 0
  5627     0004  147E               	bsf	int$flags,0	;set compiler interrupt flag (level 1)
  5628                           
  5629                           ; Regs used in _isr: [wreg-fsr0h+status,2+status,0+pclath+cstack]
  5630     0005  3180               	pagesel	$
  5631     0006                     i1l2283:
  5632                           
  5633                           ;main.c: 244:     INTCONbits.INTF = 0;
  5634     0006  108B               	bcf	11,1	;volatile
  5635     0007                     i1l2285:
  5636                           
  5637                           ;main.c: 247:     WDTCONbits.WDTPS = 0b01100;
  5638     0007  0021               	movlb	1	; select bank1
  5639     0008  0817               	movf	23,w	;volatile
  5640     0009  39C1               	andlw	-63
  5641     000A  3818               	iorlw	24
  5642     000B  0097               	movwf	23	;volatile
  5643     000C                     i1l2287:
  5644                           
  5645                           ;main.c: 250:     server_Initialize();
  5646     000C  318D  25C4  3180   	fcall	i1_server_Initialize
  5647     000F                     i1l105:
  5648     000F  107E               	bcf	int$flags,0	;clear compiler interrupt flag (level 1)
  5649     0010  0009               	retfie
  5650     0011                     __end_of_isr:
  5651                           
  5652                           	psect	text18
  5653     0DC4                     __ptext18:	
  5654 ;; *************** function i1_server_Initialize *****************
  5655 ;; Defined at:
  5656 ;;		line 299 in file "main.c"
  5657 ;; Parameters:    Size  Location     Type
  5658 ;;		None
  5659 ;; Auto vars:     Size  Location     Type
  5660 ;;		None
  5661 ;; Return value:  Size  Location     Type
  5662 ;;                  1    wreg      void 
  5663 ;; Registers used:
  5664 ;;		wreg, fsr0l, fsr0h, status,2, status,0, pclath, cstack
  5665 ;; Tracked objects:
  5666 ;;		On entry : 0/0
  5667 ;;		On exit  : 0/0
  5668 ;;		Unchanged: 0/0
  5669 ;; Data sizes:     COMMON   BANK0   BANK1   BANK2   BANK3   BANK4   BANK5   BANK6   BANK7   BANK8   BANK9  BANK10  BANK1
      +1  BANK12  BANK13  BANK14  BANK15  BANK16  BANK17  BANK18  BANK19  BANK20  BANK21  BANK22  BANK23  BANK24  BANK25
  5670 ;;      Params:         0       0       0       0       0       0       0       0       0       0       0       0       
      +0       0       0       0       0       0       0       0       0       0       0       0       0       0       0
  5671 ;;      Locals:         0       0       0       0       0       0       0       0       0       0       0       0       
      +0       0       0       0       0       0       0       0       0       0       0       0       0       0       0
  5672 ;;      Temps:          0       0       0       0       0       0       0       0       0       0       0       0       
      +0       0       0       0       0       0       0       0       0       0       0       0       0       0       0
  5673 ;;      Totals:         0       0       0       0       0       0       0       0       0       0       0       0       
      +0       0       0       0       0       0       0       0       0       0       0       0       0       0       0
  5674 ;;Total ram usage:        0 bytes
  5675 ;; Hardware stack levels used: 1
  5676 ;; Hardware stack levels required when called: 2
  5677 ;; This function calls:
  5678 ;;		i1_EUSART_Write_Text
  5679 ;; This function is called by:
  5680 ;;		_isr
  5681 ;; This function uses a non-reentrant model
  5682 ;;
  5683                           
  5684     0DC4                     i1_server_Initialize:	
  5685                           ;psect for function i1_server_Initialize
  5686                           
  5687     0DC4                     i1l2249:	
  5688                           ;incstack = 0
  5689                           ; Regs used in i1_server_Initialize: [wreg-fsr0h+status,2+status,0+pclath+cstack]
  5690                           
  5691     0DC4  0064               	clrwdt	;# 
  5692     0DC5                     i1l2251:
  5693                           
  5694                           ;main.c: 307:          EUSART_Write_Text("AT\r\n");
  5695     0DC5  3043               	movlw	low (STR_4| (0+32768))
  5696     0DC6  00F1               	movwf	i1EUSART_Write_Text@text
  5697     0DC7  3090               	movlw	high (STR_4| (0+32768))
  5698     0DC8  00F2               	movwf	i1EUSART_Write_Text@text+1
  5699     0DC9  318D  25A7  318D   	fcall	i1_EUSART_Write_Text
  5700     0DCC  0064               	clrwdt	;# 
  5701                           
  5702                           ;main.c: 318:          EUSART_Write_Text("AT+CIPMUX=0\r\n");
  5703     0DCD  3035               	movlw	low (STR_5| (0+32768))
  5704     0DCE  00F1               	movwf	i1EUSART_Write_Text@text
  5705     0DCF  3090               	movlw	high (STR_5| (0+32768))
  5706     0DD0  00F2               	movwf	i1EUSART_Write_Text@text+1
  5707     0DD1  318D  25A7  318D   	fcall	i1_EUSART_Write_Text
  5708     0DD4  0064               	clrwdt	;# 
  5709                           
  5710                           ;main.c: 325:         EUSART_Write_Text("AT+CIPSERVER=1,80\r\n");
  5711     0DD5  3000               	movlw	low (STR_6| (0+32768))
  5712     0DD6  00F1               	movwf	i1EUSART_Write_Text@text
  5713     0DD7  3090               	movlw	high (STR_6| (0+32768))
  5714     0DD8  00F2               	movwf	i1EUSART_Write_Text@text+1
  5715     0DD9  318D  25A7  318D   	fcall	i1_EUSART_Write_Text
  5716     0DDC  0064               	clrwdt	;# 
  5717     0DDD                     i1l2253:
  5718                           
  5719                           ;main.c: 331:         WDTCONbits.WDTPS = 0b10001;
  5720     0DDD  0021               	movlb	1	; select bank1
  5721     0DDE  0817               	movf	23,w	;volatile
  5722     0DDF  39C1               	andlw	-63
  5723     0DE0  3822               	iorlw	34
  5724     0DE1  0097               	movwf	23	;volatile
  5725     0DE2                     i1l114:
  5726     0DE2  0008               	return
  5727     0DE3                     __end_ofi1_server_Initialize:
  5728                           
  5729                           	psect	text19
  5730     0DA7                     __ptext19:	
  5731 ;; *************** function i1_EUSART_Write_Text *****************
  5732 ;; Defined at:
  5733 ;;		line 127 in file "EUSART.c"
  5734 ;; Parameters:    Size  Location     Type
  5735 ;;  text            2    1[COMMON] PTR unsigned char 
  5736 ;;		 -> STR_6(20), STR_5(14), STR_4(5), STR_3(16), 
  5737 ;;		 -> STR_2(17), RAM(4096), 
  5738 ;; Auto vars:     Size  Location     Type
  5739 ;;  i               2    4[COMMON] int 
  5740 ;; Return value:  Size  Location     Type
  5741 ;;                  1    wreg      void 
  5742 ;; Registers used:
  5743 ;;		wreg, fsr0l, fsr0h, status,2, status,0, pclath, cstack
  5744 ;; Tracked objects:
  5745 ;;		On entry : 0/0
  5746 ;;		On exit  : 0/0
  5747 ;;		Unchanged: 0/0
  5748 ;; Data sizes:     COMMON   BANK0   BANK1   BANK2   BANK3   BANK4   BANK5   BANK6   BANK7   BANK8   BANK9  BANK10  BANK1
      +1  BANK12  BANK13  BANK14  BANK15  BANK16  BANK17  BANK18  BANK19  BANK20  BANK21  BANK22  BANK23  BANK24  BANK25
  5749 ;;      Params:         2       0       0       0       0       0       0       0       0       0       0       0       
      +0       0       0       0       0       0       0       0       0       0       0       0       0       0       0
  5750 ;;      Locals:         2       0       0       0       0       0       0       0       0       0       0       0       
      +0       0       0       0       0       0       0       0       0       0       0       0       0       0       0
  5751 ;;      Temps:          1       0       0       0       0       0       0       0       0       0       0       0       
      +0       0       0       0       0       0       0       0       0       0       0       0       0       0       0
  5752 ;;      Totals:         5       0       0       0       0       0       0       0       0       0       0       0       
      +0       0       0       0       0       0       0       0       0       0       0       0       0       0       0
  5753 ;;Total ram usage:        5 bytes
  5754 ;; Hardware stack levels used: 1
  5755 ;; Hardware stack levels required when called: 1
  5756 ;; This function calls:
  5757 ;;		i1_EUSART_Write
  5758 ;; This function is called by:
  5759 ;;		i1_server_Initialize
  5760 ;; This function uses a non-reentrant model
  5761 ;;
  5762                           
  5763     0DA7                     i1_EUSART_Write_Text:	
  5764                           ;psect for function i1_EUSART_Write_Text
  5765                           
  5766     0DA7                     i1l2121:	
  5767                           ;incstack = 0
  5768                           ; Regs used in i1_EUSART_Write_Text: [wreg-fsr0h+status,2+status,0+pclath+cstack]
  5769                           
  5770                           
  5771                           ;EUSART.c: 127: void EUSART_Write_Text(char *text);EUSART.c: 128: {;EUSART.c: 129:   int
      +                           i;;EUSART.c: 130:   for(i=0;text[i]!='\0';i++)
  5772     0DA7  01F4               	clrf	i1EUSART_Write_Text@i
  5773     0DA8  01F5               	clrf	i1EUSART_Write_Text@i+1
  5774     0DA9  2DB8               	goto	i1l2127
  5775     0DAA                     i1l2123:
  5776                           
  5777                           ;EUSART.c: 131:    EUSART_Write(text[i]);
  5778     0DAA  0871               	movf	i1EUSART_Write_Text@text,w
  5779     0DAB  0774               	addwf	i1EUSART_Write_Text@i,w
  5780     0DAC  0084               	movwf	4
  5781     0DAD  0872               	movf	i1EUSART_Write_Text@text+1,w
  5782     0DAE  3D75               	addwfc	i1EUSART_Write_Text@i+1,w
  5783     0DAF  0085               	movwf	5
  5784     0DB0  0800               	movf	0,w	;code access
  5785     0DB1  318D  2593  318D   	fcall	i1_EUSART_Write
  5786     0DB4                     i1l2125:
  5787     0DB4  3001               	movlw	1
  5788     0DB5  07F4               	addwf	i1EUSART_Write_Text@i,f
  5789     0DB6  3000               	movlw	0
  5790     0DB7  3DF5               	addwfc	i1EUSART_Write_Text@i+1,f
  5791     0DB8                     i1l2127:
  5792     0DB8  0871               	movf	i1EUSART_Write_Text@text,w
  5793     0DB9  0774               	addwf	i1EUSART_Write_Text@i,w
  5794     0DBA  0084               	movwf	4
  5795     0DBB  0872               	movf	i1EUSART_Write_Text@text+1,w
  5796     0DBC  3D75               	addwfc	i1EUSART_Write_Text@i+1,w
  5797     0DBD  0085               	movwf	5
  5798     0DBE  0012               	moviw fsr0++
  5799     0DBF  1D03               	btfss	3,2
  5800     0DC0  2DC2               	goto	u272_21
  5801     0DC1  2DC3               	goto	u272_20
  5802     0DC2                     u272_21:
  5803     0DC2  2DAA               	goto	i1l2123
  5804     0DC3                     u272_20:
  5805     0DC3                     i1l164:
  5806     0DC3  0008               	return
  5807     0DC4                     __end_ofi1_EUSART_Write_Text:
  5808                           
  5809                           	psect	text20
  5810     0D93                     __ptext20:	
  5811 ;; *************** function i1_EUSART_Write *****************
  5812 ;; Defined at:
  5813 ;;		line 108 in file "EUSART.c"
  5814 ;; Parameters:    Size  Location     Type
  5815 ;;  txData          1    wreg     unsigned char 
  5816 ;; Auto vars:     Size  Location     Type
  5817 ;;  txData          1    0[COMMON] unsigned char 
  5818 ;; Return value:  Size  Location     Type
  5819 ;;                  1    wreg      void 
  5820 ;; Registers used:
  5821 ;;		wreg
  5822 ;; Tracked objects:
  5823 ;;		On entry : 0/0
  5824 ;;		On exit  : 0/0
  5825 ;;		Unchanged: 0/0
  5826 ;; Data sizes:     COMMON   BANK0   BANK1   BANK2   BANK3   BANK4   BANK5   BANK6   BANK7   BANK8   BANK9  BANK10  BANK1
      +1  BANK12  BANK13  BANK14  BANK15  BANK16  BANK17  BANK18  BANK19  BANK20  BANK21  BANK22  BANK23  BANK24  BANK25
  5827 ;;      Params:         0       0       0       0       0       0       0       0       0       0       0       0       
      +0       0       0       0       0       0       0       0       0       0       0       0       0       0       0
  5828 ;;      Locals:         1       0       0       0       0       0       0       0       0       0       0       0       
      +0       0       0       0       0       0       0       0       0       0       0       0       0       0       0
  5829 ;;      Temps:          0       0       0       0       0       0       0       0       0       0       0       0       
      +0       0       0       0       0       0       0       0       0       0       0       0       0       0       0
  5830 ;;      Totals:         1       0       0       0       0       0       0       0       0       0       0       0       
      +0       0       0       0       0       0       0       0       0       0       0       0       0       0       0
  5831 ;;Total ram usage:        1 bytes
  5832 ;; Hardware stack levels used: 1
  5833 ;; This function calls:
  5834 ;;		Nothing
  5835 ;; This function is called by:
  5836 ;;		i1_EUSART_Write_Text
  5837 ;; This function uses a non-reentrant model
  5838 ;;
  5839                           
  5840     0D93                     i1_EUSART_Write:	
  5841                           ;psect for function i1_EUSART_Write
  5842                           
  5843                           
  5844                           ;incstack = 0
  5845                           ; Regs used in i1_EUSART_Write: [wreg]
  5846                           ;i1EUSART_Write@txData stored from wreg
  5847     0D93  00F0               	movwf	i1EUSART_Write@txData
  5848     0D94                     i1l1541:
  5849     0D94                     i1l155:	
  5850                           ;EUSART.c: 111:     {;EUSART.c: 112:     }
  5851                           
  5852                           
  5853                           ;EUSART.c: 110:     while(0 == PIR1bits.TXIF)
  5854     0D94  0020               	movlb	0	; select bank0
  5855     0D95  1E11               	btfss	17,4	;volatile
  5856     0D96  2D98               	goto	u146_21
  5857     0D97  2D99               	goto	u146_20
  5858     0D98                     u146_21:
  5859     0D98  2D94               	goto	i1l155
  5860     0D99                     u146_20:
  5861     0D99                     i1l1543:
  5862                           
  5863                           ;EUSART.c: 114:     TX1REG = txData;
  5864     0D99  0870               	movf	i1EUSART_Write@txData,w
  5865     0D9A  0023               	movlb	3	; select bank3
  5866     0D9B  009A               	movwf	26	;volatile
  5867     0D9C                     i1l158:
  5868     0D9C  0008               	return
  5869     0D9D                     __end_ofi1_EUSART_Write:
  5870     007E                     btemp	set	126	;btemp
  5871     007E                     int$flags	set	126
  5872     007E                     wtemp0	set	126
  5873                           
  5874                           	psect	config
  5875                           
  5876                           ;Config register CONFIG1 @ 0x8007
  5877                           ;	Oscillator Selection Bits
  5878                           ;	FOSC = INTOSC, INTOSC oscillator: I/O function on CLKIN pin
  5879                           ;	Watchdog Timer Enable
  5880                           ;	WDTE = ON, WDT enabled
  5881                           ;	Power-up Timer Enable
  5882                           ;	PWRTE = OFF, PWRT disabled
  5883                           ;	MCLR Pin Function Select
  5884                           ;	MCLRE = OFF, MCLR/VPP pin function is digital input if LVP bit is also 0.
  5885                           ;	Flash Program Memory Code Protection
  5886                           ;	CP = OFF, Program memory code protection is disabled
  5887                           ;	Brown-out Reset Enable
  5888                           ;	BOREN = OFF, Brown-out Reset disabled
  5889                           ;	Clock Out Enable
  5890                           ;	CLKOUTEN = OFF, CLKOUT function is disabled. I/O or oscillator function on the CLKOUT 
      +                          pin
  5891                           ;	Internal/External Switchover Mode
  5892                           ;	IESO = ON, Internal/External Switchover Mode is enabled
  5893                           ;	Fail-Safe Clock Monitor Enable
  5894                           ;	FCMEN = OFF, Fail-Safe Clock Monitor is disabled
  5895     8007                     	org	32775
  5896     8007  19BC               	dw	6588
  5897                           
  5898                           ;Config register CONFIG2 @ 0x8008
  5899                           ;	Flash Memory Self-Write Protection
  5900                           ;	WRT = OFF, Write protection off
  5901                           ;	Peripheral Pin Select one-way control
  5902                           ;	PPS1WAY = ON, The PPSLOCK bit cannot be cleared once it is set by software
  5903                           ;	Zero-cross detect disable
  5904                           ;	ZCDDIS = ON, ZCD disabled. ZCD can be enabled by setting the ZCDSEN bit of ZCDCON
  5905                           ;	Phase Lock Loop enable
  5906                           ;	PLLEN = OFF, 4x PLL is disabled
  5907                           ;	Stack Overflow/Underflow Reset Enable
  5908                           ;	STVREN = ON, Stack Overflow or Underflow will cause a Reset
  5909                           ;	Brown-out Reset Voltage Selection
  5910                           ;	BORV = LO, Brown-out Reset Voltage (Vbor), low trip point selected.
  5911                           ;	Low-Power Brown Out Reset
  5912                           ;	LPBOR = OFF, Low-Power BOR is disabled
  5913                           ;	In-Circuit Debugger Mode
  5914                           ;	DEBUG = 0x1, unprogrammed default
  5915                           ;	Low-Voltage Programming Enable
  5916                           ;	LVP = OFF, High-voltage on MCLR/VPP must be used for programming
  5917     8008                     	org	32776
  5918     8008  1EFF               	dw	7935

Data Sizes:
    Strings     72
    Constant    0
    Data        0
    BSS         50
    Persistent  32
    Stack       0

Auto Spaces:
    Space          Size  Autos    Used
    COMMON           14      8       8
    BANK0            80     78      78
    BANK1            80     21      71
    BANK2            80      0       0
    BANK3            80      0       0
    BANK4            80      0       0
    BANK5            80      0       0
    BANK6            80      0       0
    BANK7            80      0       0
    BANK8            80      0       0
    BANK9            80      0       0
    BANK10           80      0       0
    BANK11           80      0       0
    BANK12           80      0       0
    BANK13           80      0       0
    BANK14           80      0       0
    BANK15           80      0       0
    BANK16           80      0       0
    BANK17           80      0       0
    BANK18           80      0       0
    BANK19           80      0       0
    BANK20           80      0       0
    BANK21           80      0       0
    BANK22           80      0       0
    BANK23           80      0       0
    BANK24           80      0       0
    BANK25           32      0       0

Pointer List with Targets:

    EUSART_Read_Text@Output	PTR unsigned char  size(1) Largest target is 50
		 -> buf(BANK1[50]), 

    EUSART_Write_Text@text	PTR unsigned char  size(2) Largest target is 4096
		 -> RAM(DATA[4096]), STR_2(CODE[17]), STR_3(CODE[16]), STR_4(CODE[5]), 
		 -> STR_5(CODE[14]), STR_6(CODE[20]), 

    main@buff11	PTR unsigned char  size(2) Largest target is 4096
		 -> RAM(DATA[4096]), 

    sp__strcat	PTR unsigned char  size(2) Largest target is 4096
		 -> RAM(DATA[4096]), 

    strcat@dest	PTR unsigned char  size(2) Largest target is 4096
		 -> RAM(DATA[4096]), 

    strcat@src	PTR const unsigned char  size(2) Largest target is 3
		 -> STR_1(CODE[3]), 


Critical Paths under _main in COMMON

    _main->_EUSART_Read_Text
    _main->_EUSART_Write_Text
    _main->_strcat
    _server_Initialize->_EUSART_Write_Text
    _EUSART_Write_Text->_EUSART_Write
    ___flmul->__Umul8_16
    _EUSART_Initialize->___aldiv

Critical Paths under _isr in COMMON

    i1_server_Initialize->i1_EUSART_Write_Text
    i1_EUSART_Write_Text->i1_EUSART_Write

Critical Paths under _main in BANK0

    _main->_Read_Temperature
    _server_Initialize->_EUSART_Write_Text
    _Read_Temperature->___fldiv
    ___flmul->___fladd
    ___fldiv->___flmul
    _EUSART_Initialize->___aldiv

Critical Paths under _isr in BANK0

    None.

Critical Paths under _main in BANK1

    _main->_Read_Temperature

Critical Paths under _isr in BANK1

    None.

Critical Paths under _main in BANK2

    None.

Critical Paths under _isr in BANK2

    None.

Critical Paths under _main in BANK3

    None.

Critical Paths under _isr in BANK3

    None.

Critical Paths under _main in BANK4

    None.

Critical Paths under _isr in BANK4

    None.

Critical Paths under _main in BANK5

    None.

Critical Paths under _isr in BANK5

    None.

Critical Paths under _main in BANK6

    None.

Critical Paths under _isr in BANK6

    None.

Critical Paths under _main in BANK7

    None.

Critical Paths under _isr in BANK7

    None.

Critical Paths under _main in BANK8

    None.

Critical Paths under _isr in BANK8

    None.

Critical Paths under _main in BANK9

    None.

Critical Paths under _isr in BANK9

    None.

Critical Paths under _main in BANK10

    None.

Critical Paths under _isr in BANK10

    None.

Critical Paths under _main in BANK11

    None.

Critical Paths under _isr in BANK11

    None.

Critical Paths under _main in BANK12

    None.

Critical Paths under _isr in BANK12

    None.

Critical Paths under _main in BANK13

    None.

Critical Paths under _isr in BANK13

    None.

Critical Paths under _main in BANK14

    None.

Critical Paths under _isr in BANK14

    None.

Critical Paths under _main in BANK15

    None.

Critical Paths under _isr in BANK15

    None.

Critical Paths under _main in BANK16

    None.

Critical Paths under _isr in BANK16

    None.

Critical Paths under _main in BANK17

    None.

Critical Paths under _isr in BANK17

    None.

Critical Paths under _main in BANK18

    None.

Critical Paths under _isr in BANK18

    None.

Critical Paths under _main in BANK19

    None.

Critical Paths under _isr in BANK19

    None.

Critical Paths under _main in BANK20

    None.

Critical Paths under _isr in BANK20

    None.

Critical Paths under _main in BANK21

    None.

Critical Paths under _isr in BANK21

    None.

Critical Paths under _main in BANK22

    None.

Critical Paths under _isr in BANK22

    None.

Critical Paths under _main in BANK23

    None.

Critical Paths under _isr in BANK23

    None.

Critical Paths under _main in BANK24

    None.

Critical Paths under _isr in BANK24

    None.

Critical Paths under _main in BANK25

    None.

Critical Paths under _isr in BANK25

    None.

Call Graph Tables:

 ---------------------------------------------------------------------------------
 (Depth) Function   	        Calls       Base Space   Used Autos Params    Refs
 ---------------------------------------------------------------------------------
 (0) _main                                                10    10      0    9146
                                             76 BANK0      2     2      0
                  _EUSART_Initialize
                   _EUSART_Read_Text
                  _EUSART_Write_Text
                   _Read_Temperature
                           _initMain
                  _server_Initialize
                             _strcat
 ---------------------------------------------------------------------------------
 (1) _strcat                                               6     2      4     272
                                              6 COMMON     2     2      0
                                              0 BANK0      4     0      4
 ---------------------------------------------------------------------------------
 (1) _server_Initialize                                    0     0      0     568
                  _EUSART_Write_Text
 ---------------------------------------------------------------------------------
 (2) _EUSART_Write_Text                                    5     3      2     568
                                              7 COMMON     1     1      0
                                              0 BANK0      4     2      2
                       _EUSART_Write
 ---------------------------------------------------------------------------------
 (3) _EUSART_Write                                         1     1      0      22
                                              6 COMMON     1     1      0
 ---------------------------------------------------------------------------------
 (1) _initMain                                             0     0      0       0
                        _internal_16
 ---------------------------------------------------------------------------------
 (2) _internal_16                                          0     0      0       0
 ---------------------------------------------------------------------------------
 (1) _Read_Temperature                                    25    21      4    6898
                                             72 BANK0      4     0      4
                                              0 BANK1     21    21      0
                            ___fladd
                            ___fldiv
                            ___flmul
                           ___xxtofl
 ---------------------------------------------------------------------------------
 (2) ___xxtofl                                            14    10      4     398
                                              0 BANK0     14    10      4
 ---------------------------------------------------------------------------------
 (2) ___flmul                                             26    18      8    2569
                                             20 BANK0     26    18      8
                          __Umul8_16
                            ___fladd (ARG)
 ---------------------------------------------------------------------------------
 (3) __Umul8_16                                            9     7      2     799
                                              6 COMMON     2     0      2
                                              0 BANK0      7     7      0
 ---------------------------------------------------------------------------------
 (2) ___fldiv                                             26    18      8    1577
                                             46 BANK0     26    18      8
                            ___fladd (ARG)
                            ___flmul (ARG)
 ---------------------------------------------------------------------------------
 (2) ___fladd                                             20    12      8    2262
                                              0 BANK0     20    12      8
 ---------------------------------------------------------------------------------
 (1) _EUSART_Read_Text                                     8     6      2     199
                                              6 COMMON     2     0      2
                                              0 BANK0      4     4      0
                        _EUSART_Read
 ---------------------------------------------------------------------------------
 (2) _EUSART_Read                                          0     0      0       0
 ---------------------------------------------------------------------------------
 (1) _EUSART_Initialize                                   18    14      4     595
                                             14 BANK0     18    14      4
                            ___aldiv
 ---------------------------------------------------------------------------------
 (2) ___aldiv                                             15     7      8     452
                                              6 COMMON     1     1      0
                                              0 BANK0     14     6      8
 ---------------------------------------------------------------------------------
 Estimated maximum stack depth 3
 ---------------------------------------------------------------------------------
 (Depth) Function   	        Calls       Base Space   Used Autos Params    Refs
 ---------------------------------------------------------------------------------
 (4) _isr                                                  0     0      0     190
                i1_server_Initialize
 ---------------------------------------------------------------------------------
 (5) i1_server_Initialize                                  0     0      0     190
                i1_EUSART_Write_Text
 ---------------------------------------------------------------------------------
 (6) i1_EUSART_Write_Text                                  5     3      2     190
                                              1 COMMON     5     3      2
                     i1_EUSART_Write
 ---------------------------------------------------------------------------------
 (7) i1_EUSART_Write                                       1     1      0      22
                                              0 COMMON     1     1      0
 ---------------------------------------------------------------------------------
 Estimated maximum stack depth 7
 ---------------------------------------------------------------------------------

 Call Graph Graphs:

 _main (ROOT)
   _EUSART_Initialize
     ___aldiv
   _EUSART_Read_Text
     _EUSART_Read
   _EUSART_Write_Text
     _EUSART_Write
   _Read_Temperature
     ___fladd
     ___fldiv
       ___fladd (ARG)
       ___flmul (ARG)
         __Umul8_16
         ___fladd (ARG)
     ___flmul
     ___xxtofl
   _initMain
     _internal_16
   _server_Initialize
     _EUSART_Write_Text
   _strcat

 _isr (ROOT)
   i1_server_Initialize
     i1_EUSART_Write_Text
       i1_EUSART_Write

 Address spaces:
Name               Size   Autos  Total    Cost      Usage
BIGRAM             7F0      0       0       0        0.0%
NULL                 0      0       0       0        0.0%
CODE                 0      0       0       0        0.0%
BITCOMMON            E      0       0       1        0.0%
BITSFR0              0      0       0       1        0.0%
SFR0                 0      0       0       1        0.0%
COMMON               E      8       8       2       57.1%
BITSFR1              0      0       0       2        0.0%
SFR1                 0      0       0       2        0.0%
BITSFR2              0      0       0       3        0.0%
SFR2                 0      0       0       3        0.0%
STACK                0      0       0       3        0.0%
BITBANK0            50      0       0       4        0.0%
BITSFR3              0      0       0       4        0.0%
SFR3                 0      0       0       4        0.0%
BANK0               50     4E      4E       5       97.5%
BITSFR4              0      0       0       5        0.0%
SFR4                 0      0       0       5        0.0%
BITBANK1            50      0       0       6        0.0%
BITSFR5              0      0       0       6        0.0%
SFR5                 0      0       0       6        0.0%
BANK1               50     15      47       7       88.8%
BITSFR6              0      0       0       7        0.0%
SFR6                 0      0       0       7        0.0%
BITBANK2            50      0       0       8        0.0%
BITSFR7              0      0       0       8        0.0%
SFR7                 0      0       0       8        0.0%
BANK2               50      0       0       9        0.0%
BITSFR8              0      0       0       9        0.0%
SFR8                 0      0       0       9        0.0%
BITBANK3            50      0       0      10        0.0%
BITSFR9              0      0       0      10        0.0%
SFR9                 0      0       0      10        0.0%
BANK3               50      0       0      11        0.0%
BITSFR10             0      0       0      11        0.0%
SFR10                0      0       0      11        0.0%
BITBANK4            50      0       0      12        0.0%
BITSFR11             0      0       0      12        0.0%
SFR11                0      0       0      12        0.0%
BANK4               50      0       0      13        0.0%
BITSFR12             0      0       0      13        0.0%
SFR12                0      0       0      13        0.0%
BITSFR13             0      0       0      14        0.0%
SFR13                0      0       0      14        0.0%
ABS                  0      0      9D      14        0.0%
BITBANK5            50      0       0      15        0.0%
BITSFR14             0      0       0      15        0.0%
SFR14                0      0       0      15        0.0%
BANK5               50      0       0      16        0.0%
BITSFR15             0      0       0      16        0.0%
SFR15                0      0       0      16        0.0%
BITBANK6            50      0       0      17        0.0%
BITSFR16             0      0       0      17        0.0%
SFR16                0      0       0      17        0.0%
BANK6               50      0       0      18        0.0%
BITSFR17             0      0       0      18        0.0%
SFR17                0      0       0      18        0.0%
BITBANK7            50      0       0      19        0.0%
BITSFR18             0      0       0      19        0.0%
SFR18                0      0       0      19        0.0%
BANK7               50      0       0      20        0.0%
BITSFR19             0      0       0      20        0.0%
SFR19                0      0       0      20        0.0%
BITBANK8            50      0       0      21        0.0%
BITSFR20             0      0       0      21        0.0%
SFR20                0      0       0      21        0.0%
BANK8               50      0       0      22        0.0%
BITSFR21             0      0       0      22        0.0%
SFR21                0      0       0      22        0.0%
BITBANK9            50      0       0      23        0.0%
BITSFR22             0      0       0      23        0.0%
SFR22                0      0       0      23        0.0%
BANK9               50      0       0      24        0.0%
BITSFR23             0      0       0      24        0.0%
SFR23                0      0       0      24        0.0%
BITBANK10           50      0       0      25        0.0%
BITSFR24             0      0       0      25        0.0%
SFR24                0      0       0      25        0.0%
BANK10              50      0       0      26        0.0%
BITSFR25             0      0       0      26        0.0%
SFR25                0      0       0      26        0.0%
BITBANK11           50      0       0      27        0.0%
BITSFR26             0      0       0      27        0.0%
SFR26                0      0       0      27        0.0%
BITSFR27             0      0       0      28        0.0%
SFR27                0      0       0      28        0.0%
DATA                 0      0      9D      28        0.0%
BANK11              50      0       0      29        0.0%
BITSFR28             0      0       0      29        0.0%
SFR28                0      0       0      29        0.0%
BITBANK12           50      0       0      30        0.0%
BITSFR29             0      0       0      30        0.0%
SFR29                0      0       0      30        0.0%
BANK12              50      0       0      31        0.0%
BITSFR30             0      0       0      31        0.0%
SFR30                0      0       0      31        0.0%
BITBANK13           50      0       0      32        0.0%
BITSFR31             0      0       0      32        0.0%
SFR31                0      0       0      32        0.0%
BANK13              50      0       0      33        0.0%
BITBANK14           50      0       0      34        0.0%
BANK14              50      0       0      35        0.0%
BITBANK15           50      0       0      36        0.0%
BANK15              50      0       0      37        0.0%
BITBANK16           50      0       0      38        0.0%
BANK16              50      0       0      39        0.0%
BITBANK17           50      0       0      40        0.0%
BANK17              50      0       0      41        0.0%
BITBANK18           50      0       0      42        0.0%
BANK18              50      0       0      43        0.0%
BITBANK19           50      0       0      44        0.0%
BANK19              50      0       0      45        0.0%
BITBANK20           50      0       0      46        0.0%
BANK20              50      0       0      47        0.0%
BITBANK21           50      0       0      48        0.0%
BANK21              50      0       0      49        0.0%
BITBANK22           50      0       0      50        0.0%
BANK22              50      0       0      51        0.0%
BITBANK23           50      0       0      52        0.0%
BANK23              50      0       0      53        0.0%
BITBANK24           50      0       0      54        0.0%
BANK24              50      0       0      55        0.0%
BITBANK25           20      0       0      56        0.0%
BANK25              20      0       0      57        0.0%


Microchip Technology PIC Macro Assembler V2.45 build 20230818022343 
Symbol Table                                                                                   Sat Mar 30 11:21:11 2024

            ??i1_EUSART_Write 0070                  ___fldiv@aexp 0067                  ___fldiv@bexp 0066  
      Read_Temperature@result 00E3                  ___fldiv@sign 005F                            l20 0D92  
                          l92 0EAE              _Read_Temperature 060C           __Umul8_16@word_mpld 0024  
                         l111 0712                           l114 0E42                           l108 0614  
                         l142 07EE                           l144 07F3                           l152 0E01  
                         l313 0F83                           l146 07FB                           l323 0FFF  
                         l139 0EFF                           l155 0D9E                           l164 0E20  
                         l158 0DA6                           l621 0591                           l605 04B3  
                         l702 0789                           l607 060B                           l703 0795  
                         l553 032D                           l713 07EB                           l570 03BD  
                         l562 0461                           l626 05DD                           l555 030B  
                         l627 05F7                           l651 01D9                           l580 0401  
                         l549 02B0                           l629 0604                           l645 0259  
                         l574 03DF                           l591 045A                           l583 0438  
                         l592 0461                           l664 0E56                           l657 024D  
                         l666 0E66                           l691 07BD                           l695 076F  
                         l689 0736                           _buf 00A0                           _isr 0004  
                         wreg 0009                  ___flmul@aexp 0046                  ___flmul@bexp 0047  
                ___flmul@sign 0041                  ___flmul@temp 004C                  ___flmul@prod 0048  
                ?_EUSART_Read 0070                          l2001 0109                          l2011 0146  
                        l2003 0114                          l2021 0196                          l2013 0151  
                        l2005 011B                          l2101 0776                          l2031 01B5  
                        l2023 01A2                          l2015 0163                          l2007 012D  
                        l2111 07AB                          l2103 077F                          l2201 0EFA  
                        l2041 01D6                          l2025 01A9                          l2033 01B9  
                        l2017 0178                          l2009 0134                          l2113 07B0  
                        l2105 0783                          l2203 0EFB                          l2051 01EF  
                        l2035 01BD                          l2027 01AD                          l2019 018F  
                        l2115 07B4                          l2107 078D                          l2131 0E6A  
                        l2205 0EFC                          l2061 0230                          l2053 0207  
                        l2045 01DE                          l2037 01BE                          l2029 01AE  
                        l2117 07B5                          l2109 0797                          l2221 060E  
                        l2141 0E73                          l2133 0E6C                          l2213 0E21  
                        l2207 0EFD                          l2071 024B                          l2063 0239  
                        l2047 01E3                          l2055 020B                          l2039 01C2  
                        l2223 0612                          l2151 0E82                          l2143 0E75  
                        l2135 0E6D                          l2215 0E22                          l2231 07BE  
                        l2209 0EFE                          l2241 0DE5                          l2073 0251  
                        l2065 023B                          l2057 0218                          l2049 01EB  
                        l2081 071E                          l2225 0618                          l2161 0E8B  
                        l2153 0E84                          l2145 0E76                          l2137 0E6F  
                        l2129 0E67                          l2217 0E3D                          l2233 07C1  
                        l2243 0DE8                          l1611 0265                          l1603 025A  
                        l1531 0E4E                          l2067 0246                          l2059 0222  
                        l2091 074A                          l2083 072E                          l2227 0703  
                        l2219 060C                          l2171 0E97                          l2163 0E8D  
                        l2155 0E85                          l2147 0E7B                          l2139 0E70  
                        l1523 0D9E                          l2235 07C5                          l2245 0DF2  
                        l1701 0331                          l1613 026A                          l1621 027A  
                        l1605 025E                          l1533 0E52                          l2069 024A  
                        l2093 0755                          l2085 073E                          l2077 0715  
                        l2181 0EA3                          l2173 0E99                          l2165 0E92  
                        l2157 0E87                          l2149 0E80                          l1525 0DA3  
                        l2237 07D2                          l2261 0F21                          l2247 0DF7  
                        l1711 034B                          l1703 0336                          l1631 028E  
                        l1623 0282                          l1615 026F                          l1607 0260  
                        l1535 0E5D                          l1527 0E45                          l2095 075C  
                        l2079 071A                          l2191 0EAC                          l2183 0EA5  
                        l2175 0E9C                          l2167 0E93                          l2159 0E89  
                        l1551 0E10                          l2239 07DA                          l2271 0F40  
                        l2263 0F24                          l2255 0F00                          l1721 035A  
                        l1713 034F                          l1641 02A5                          l1633 0292  
                        l1625 0285                          l1617 0277                          l1609 0264  
                        l1801 0468                          l1537 0E62                          l1529 0E47  
                        l2097 0760                          l2089 0747                          l1545 0D8A  
                        l2193 0EAD                          l2185 0EA7                          l2177 0E9E  
                        l2169 0E95                          l1553 0E15                          l2281 0F6B  
                        l2273 0F4D                          l2265 0F24                          l2257 0F10  
                        l1571 0F92                          l1563 0F70                          l2195 0EAF  
                        l1555 07EC                          l1731 03A7                          l1723 0362  
                        l1715 0353                          l1707 033F                          l1651 02BE  
                        l1643 02A6                          l1635 0293                          l1627 028B  
                        l1619 0278                          l1811 047F                          l1803 046C  
                        l2099 0768                          l2187 0EA9                          l2179 0E9F  
                        l1547 0E02                          l2275 0F55                          l2267 0F30  
                        l2259 0F1E                          l1581 0FB4                          l1573 0F96  
                        l1565 0F72                          l2197 0EF6                          l1557 07F8  
                        l1733 03AC                          l1717 0355                          l1709 0347  
                        l1725 0367                          l1661 02C8                          l1653 02C0  
                        l1637 0298                          l1645 02A8                          l1629 028C  
                        l1901 057A                          l1821 0491                          l1813 0480  
                        l1805 046D                          l2189 0EAB                          l1549 0E06  
                        l2277 0F5D                          l2269 0F38                          l1591 0FDA  
                        l1583 0FB8                          l1575 0F9E                          l1567 0F76  
                        l2199 0EF9                          l1559 07FA                          l1751 03E6  
                        l1743 03D3                          l1727 037D                          l1735 03B5  
                        l1719 0359                          l1671 02D2                          l1663 02CA  
                        l1655 02C2                          l1647 02B6                          l1639 029D  
                        l1911 05A3                          l1903 058E                          l1831 04A8  
                        l1823 0495                          l1807 0472                          l1815 0482  
                        l2279 0F69                          l1593 0FE1                          l1585 0FBF  
                        l1577 0FA6                          l1569 0F87                          l1761 03F4  
                        l1753 03E8                          l1745 03DA                          l1737 03C5  
                        l1729 03A1                          l1673 02D4                          l1665 02CC  
                        l1657 02C4                          l1649 02BA                          l1681 02DC  
                        l1921 05EB                          l1913 05A7                          l1841 04CB  
                        l1833 04A9                          l1825 0496                          l1817 048A  
                        l1809 0477                          l1587 0FD1                          l1579 0FA9  
                        l1595 0FE7                          l1771 040B                          l1763 03F8  
                        l1755 03ED                          l1747 03DE                          l1739 03CA  
                        l1691 0315                          l1683 02DD                          l1675 02D6  
                        l1667 02CE                          l1659 02C6                          l1931 0600  
                        l1923 05EE                          l1915 05BF                          l1907 0596  
                        l1851 04E2                          l1827 049B                          l1835 04AB  
                        l1819 048F                          l1597 0FEC                          l1589 0FD9  
                        l1781 0442                          l1773 0413                          l1765 03FE  
                        l1749 03E3                          l1757 03EF                          l1693 0319  
                        l1685 02F4                          l1677 02D8                          l1669 02D0  
                        l1925 05F6                          l1909 059B                          l1917 05C3  
                        l1861 050C                          l1853 04F2                          l1837 04BB  
                        l1845 04D4                          l1829 04A0                          l1941 0025  
                        l1599 0FF7                          l1791 0456                          l1783 044A  
                        l1775 0417                          l1759 03F3                          l1695 031A  
                        l1687 030F                          l1679 02DA                          l1927 05FA  
                        l1919 05D0                          l1863 0511                          l1871 052B  
                        l1855 04FA                          l1847 04D9                          l1839 04C7  
                        l1951 003C                          l1943 0029                          l1793 045C  
                        l1785 044F                          l1777 0434                          l1769 0406  
                        l1697 0322                          l1689 0313                          l1929 05FE  
                        l1881 0550                          l1873 053D                          l1865 051F  
                        l1857 0502                          l1961 0051                          l1953 003E  
                        l1945 002A                          l1937 001F                          l1795 0460  
                        l1787 0450                          l1779 043D                          l1699 0326  
                        l1891 0566                          l1883 0558                          l1875 053E  
                        l1867 0523                          l1859 050A                          l1971 0066  
                        l1963 0052                          l1955 0046                          l1947 002F  
                        l1939 0023                          l1789 0454                          l1893 056D  
                        l1885 055A                          l1877 0546                          l1869 0524  
                        l1797 0462                          l1981 0081                          l1973 006E  
                        l1965 0057                          l1957 004B                          l1949 0034  
                        l1887 0561                          l1895 0571                          l1879 054A  
                        l1799 0466                          l1991 00D6                          l1983 008C  
                        l1975 0073                          l1967 005C                          l1959 004D  
                        l1897 0575                          l1889 0565                          l1993 00E3  
                        l1985 0099                          l1977 0078                          l1969 0064  
                        l1899 0576                          l1995 00F0                          l1987 00B1  
                        l1997 00F7                          l1989 00BE                          l1999 0102  
                        ?_isr 0070                          STR_1 1011                          STR_2 1014  
                        STR_3 1025                          STR_4 1043                          STR_5 1035  
                        STR_6 1000                          _BRGH 0CF2                          _CREN 0CEC  
                        u2000 044F                          u2001 044E                          u2010 0454  
                        u2011 0453                          u2020 0460                          u2100 04D9  
                        u2021 045F                          u2101 04D8                          u2110 0511  
                        u2030 046C                          u2111 0510                          u2031 046B  
                        u2200 0565                          u2040 0472                          u2201 0564  
                        u2041 0471                          u2050 0477                          u2051 0476  
                        u1500 0F76                          u2300 05EB                          u2220 0575  
                        u2140 0523                          u2060 0495                          u1420 0DA3  
                        u1501 0F75                          u2301 05EA                          u2221 0574  
                        u2141 0522                          u2125 0512                          u2061 0494  
                        u1421 0DA2                          u1510 0F87                          u2310 05FE  
                        u2230 057A                          u2070 049B                          u1430 0E52  
                        u1511 0F86                          u2311 05FD                          u2231 0579  
                        u2215 0567                          u2135 0519                          u2071 049A  
                        u1431 0E51                          u1520 0FA6                          u1600 0264  
                        u2240 058E                          u2160 053D                          u2080 04A0  
                        u2320 0029                          u1521 0FA5                          u1601 0263  
                        u2305 05E7                          u2241 058D                          u2161 053C  
                        u2081 049F                          u2321 0028                          u1610 026A  
                        u2250 0595                          u2170 0550                          u2090 04BB  
                        u1450 0E62                          u2330 002F                          u1611 0269  
                        u2251 0594                          u2171 054F                          u2155 0525  
                        u2091 04BA                          u1451 0E61                          u2331 002E  
                        u1540 0FB8                          u1700 02FE                          u1620 026F  
                        u2260 059B                          u2180 0558                          u2500 01D6  
                        u2420 016E                          u2340 0034                          u1541 0FB7  
                        u1701 02FC                          u1621 026E                          u2261 059A  
                        u2181 0557                          u2165 0539                          u1445 0E57  
                        u2501 01D5                          u2405 00F1                          u2341 0033  
                        u1710 02FF                          u1630 028B                          u2270 05A7  
                        u2510 01DD                          u2430 0185                          u2350 0051  
                        u1470 0E20                          u1535 0FAA                          u1631 028A  
                        u2271 05A6                          u2511 01DC                          u2415 011C  
                        u2351 0050                          u1471 0E1F                          u1560 0FD1  
                        u1480 07F3                          u1800 0359                          u1720 030F  
                        u1640 0292                          u2280 05B5                          u2520 01E3  
                        u2360 0057                          u2600 073E                          u1561 0FD0  
                        u1481 07F2                          u1801 0358                          u1721 030E  
                        u1641 0291                          u2521 01E2                          u2425 016A  
                        u2361 0056                          u2601 073D                          u1490 07F8  
                        u1730 0319                          u1650 0298                          u2290 05D0  
                        u2530 01EF                          u2370 005C                          u1555 0FB9  
                        u1491 07F7                          u1731 0318                          u1651 0297  
                        u2291 05CF                          u2195 055B                          u2531 01EE  
                        u2435 0181                          u2371 005B                          u1580 0FE7  
                        u1900 03F3                          u1820 037D                          u1660 029D  
                        u2540 01FD                          u2460 01AD                          u2380 0073  
                        u2700 07B0                          u2620 075B                          u1581 0FE6  
                        u1565 0FCD                          u1901 03F2                          u1821 037C  
                        u1661 029C                          u2285 05B1                          u2461 01AC  
                        u2445 0190                          u2381 0072                          u2701 07AF  
                        u2621 075A                          u1590 0FEC                          u1910 03F8  
                        u1830 03AC                          u1750 032D                          u1670 02B6  
                        u2550 0218                          u2390 0078                          u2710 07B4  
                        u1591 0FEB                          u1575 0FDB                          u1911 03F7  
                        u1831 03AB                          u1823 0379                          u1815 035C  
                        u1751 032C                          u1671 02B5                          u2295 05CC  
                        u2551 0217                          u2455 01A3                          u2391 0077  
                        u2711 07B3                          u2615 074F                          u1920 03FE  
                        u1840 03C5                          u1760 0331                          u1680 02BA  
                        u2560 0230                          u2480 01BD                          u2640 0775  
                        u1921 03FD                          u1841 03C4                          u1761 0330  
                        u1745 031C                          u1681 02B9                          u2561 022F  
                        u2545 01F9                          u2481 01BC                          u2641 0774  
                        u2730 0EBD                          u1930 0405                          u1850 03CA  
                        u1770 0336                          u1690 02F4                          u2570 024A  
                        u2490 01C2                          u1931 0404                          u1851 03C9  
                        u1771 0335                          u1691 02F3                          u2571 0249  
                        u2555 0214                          u2491 01C1                          u2475 01AF  
                        u2635 0769                          u2740 0ED4                          u1940 040B  
                        u1780 034B                          u2660 0783                          u2580 071A  
                        u1941 040A                          u1781 034A                          u2565 022C  
                        u2661 0782                          u2581 0719                          u1950 0417  
                        u1870 03DE                          u1790 034F                          u2670 0789  
                        u2590 071E                          u2750 0618                          u2735 0EB9  
                        u1951 0416                          u1871 03DD                          u1791 034E  
                        u1695 02F0                          u2671 0788                          u2655 0779  
                        u2591 071D                          u2751 0617                          u2807 0F16  
                        u1960 0425                          u1880 03E3                          u2680 078D  
                        u2760 07D1                          u2745 0ED0                          u1881 03E2  
                        u1865 03D4                          u2681 078C                          u2761 07D0  
                        u2817 0F46                          u1970 0434                          u1890 03ED  
                        u2690 07A1                          u2770 07EB                          u1971 0433  
                        u1891 03EC                          u2771 07EA                          u2827 0F63  
                        u2780 0E01                          u1980 043D                          u2781 0E00  
                        u1981 043C                          u1965 0421                          u2837 060F  
                        u1990 0442                          u1991 0441                          u2695 079D  
                        u2785 0DFD                          _SCS0 04C8                          _SCS1 04C9  
                        _SPEN 0CEF                          _TXEN 0CF5                          _SYNC 0CF4  
       ??i1_EUSART_Write_Text 0073                          _main 0F00                          fsr0h 0005  
                        fsr1h 0007                          indf0 0000                          fsr0l 0004  
                        indf1 0001                          fsr1l 0006                          btemp 007E  
                        start 0011               ___fldiv@new_exp 0060                         ??_isr 0076  
               ?_EUSART_Write 0070               __end_of___aldiv 1000               __end_of___fladd 0462  
                       ?_main 0070               __end_of___fldiv 060C                         _BRG16 0CFB  
             __end_of___flmul 025A                         _IRCF0 04CB                         _IRCF1 04CC  
                       _IRCF2 04CD                         _IRCF3 04CE                         i1l105 000F  
                       i1l114 0DE2                         i1l155 0D94                         i1l164 0DC3  
                       i1l158 0D9C                         status 0003                         wtemp0 007E  
                ?_internal_16 0070               __initialization 0013                  __end_of_main 0F70  
              ??_EUSART_Write 0076                        ??_main 006C                        _ADRESH 009C  
                      _ADRESL 009B                        _RC1REG 0199                        i1l2121 0DA7  
                      i1l2123 0DAA                        i1l2125 0DB4                        i1l2127 0DB8  
                      i1l2251 0DC5                        i1l1541 0D94                        i1l2253 0DDD  
                      i1l1543 0D99                        i1l2249 0DC4                        i1l2283 0006  
                      i1l2285 0007                        i1l2287 000C                        u146_20 0D99  
                      u146_21 0D98                        u272_20 0DC3                        u272_21 0DC2  
                      _SPBRGL 019B                        _TX1REG 019A                        _SPLLEN 04CF  
            __end_of___xxtofl 07BE           i1_server_Initialize 0DC4                     ??___aldiv 0076  
                   ??___fladd 0028                     ??___fldiv 0056                     ??___flmul 003C  
            __end_of_initMain 0EAF                        _strcat 07BE             ?_EUSART_Read_Text 0076  
        ?i1_server_Initialize 0070            ??_EUSART_Read_Text 0020                  ___xxtofl@arg 002A  
    __end_of_Read_Temperature 0713                  ___xxtofl@exp 0029                  ___xxtofl@val 0020  
     __end_of__initialization 001B                __pcstackCOMMON 0070                _OPTION_REGbits 0095  
       ??i1_server_Initialize 0076                    __pbssBANK1 00A0          __end_of_EUSART_Write 0DA7  
      EUSART_Read_Text@Output 0021        EUSART_Read_Text@length 0076             __end_of__Umul8_16 0E67  
                  __pmaintext 0F00                    __pintentry 0004                       ?_strcat 0020  
                   ?___xxtofl 0020   __end_ofi1_EUSART_Write_Text 0DC4                       _PPSLOCK 0E0F  
                   ?_initMain 0070                       ___aldiv 0F70                       ___fladd 025A  
                     ___fldiv 0462                       ___flmul 001F                       __ptext1 07BE  
                     __ptext2 0E21                       __ptext3 0E02                       __ptext4 0D9D  
                     __ptext5 0E67                       __ptext6 0D8A                       __ptext7 060C  
                     __ptext8 0713                       __ptext9 001F                    ??___xxtofl 0024  
            ___aldiv@dividend 0024                       clrloop0 0D85          end_of_initialization 001B  
                  ??_initMain 0076             _EUSART_Initialize 0EAF            ?_EUSART_Initialize 002E  
            ___aldiv@quotient 002A            EUSART_Initialize@x 003E                       strcat@i 0076  
         ??_EUSART_Initialize 0032                   ___fladd@grs 0033                 ___xxtofl@sign 0028  
                   _TRISBbits 008D                     _TRISCbits 008E                     _TRISDbits 008F  
                 ___fldiv@grs 0062                   ___fldiv@rem 005B                     _RXPPSbits 0E24  
                 ___flmul@grs 0042     __end_of_EUSART_Initialize 0F00             ?_Read_Temperature 0068  
          ??_Read_Temperature 00D2  Read_Temperature@conversion10 00D7                  _EUSART_Write 0D9D  
              __end_of_strcat 07EC           start_initialization 0013                   __end_of_isr 0011  
               ??_EUSART_Read 0076     Read_Temperature@farenheit 00DB             _EUSART_Write_Text 0E02  
          ?_EUSART_Write_Text 0020                     __Umul8_16 0E43           ??_EUSART_Write_Text 0077  
 __end_ofi1_server_Initialize 0DE3                      ??_strcat 0076                     ___fladd@a 0024  
                   ___fladd@b 0020                i1_EUSART_Write 0D93                     ___fldiv@a 004E  
                   ___fldiv@b 0052                     ___flmul@a 0038                     ___flmul@b 0034  
                   ___latbits 0003                 __pcstackBANK0 0020                 __pcstackBANK1 00D2  
   __end_of_EUSART_Write_Text 0E21         EUSART_Read_Text@i_534 0022           __end_of_EUSART_Read 07FC  
               ??_internal_16 0076                      ?___aldiv 0020                      ?___fladd 0020  
                    ?___fldiv 004E                      ?___flmul 0034                    ?__Umul8_16 0076  
   EUSART_Initialize@baudrate 002E        __end_ofi1_EUSART_Write 0D9D          i1EUSART_Write@txData 0070  
             ___aldiv@divisor 0020               ___aldiv@counter 0028                     clear_ram0 0D84  
            _EUSART_Read_Text 0DE3          i1EUSART_Write_Text@i 0074                      _PIR1bits 0011  
         __end_of_internal_16 0D93               ?i1_EUSART_Write 0070                    _ADCON0bits 009D  
                 _EUSART_Read 07EC                   ??__Umul8_16 0020                    _ANSELBbits 018D  
                  _ANSELCbits 018E                    _ANSELDbits 018F       i1EUSART_Write_Text@text 0071  
                    ___xxtofl 0713                    strcat@dest 0020             _server_Initialize 0E21  
                    __ptext10 0E43                      __ptext11 0462                      __ptext20 0D93  
                    __ptext12 025A                      __ptext13 0DE3                      __ptext14 07EC  
                    __ptext15 0EAF                      __ptext16 0F70                      __ptext18 0DC4  
                    __ptext19 0DA7            ?_server_Initialize 0070                      _initMain 0E67  
                 _internal_16 0D8A           ??_server_Initialize 0078                    _RB2PPSbits 0E9A  
                  _RC1STAbits 019D                      int$flags 007E                    _INTCONbits 000B  
   __end_of_server_Initialize 0E43                    _INTPPSbits 0E10                      intlevel1 0000  
                   strcat@src 0022                   _PPSLOCKbits 0E0F                 __pstringtext1 1000  
               __pstringtext2 1014                 __pstringtext3 1025                 __pstringtext4 1035  
               __pstringtext5 1043                 __pstringtext6 0000           i1_EUSART_Write_Text 0DA7  
      __Umul8_16@multiplicand 0076      __end_of_EUSART_Read_Text 0E02         EUSART_Write_Text@text 0020  
                ___aldiv@sign 0029                    _WDTCONbits 0097                 ___fladd@signs 0030  
          EUSART_Write@txData 0076                  ___fladd@aexp 0031                  ___fladd@bexp 0032  
        ?i1_EUSART_Write_Text 0071          __Umul8_16@multiplier 0026       Read_Temperature@celsius 00DF  
          EUSART_Write_Text@i 0022             __Umul8_16@product 0022  
