

Microchip MPLAB XC8 Assembler V2.45 build 20230818022343 
                                                                                               Tue Mar 26 14:48:18 2024

Microchip MPLAB XC8 C Compiler v2.45 (Free license) build 20230818022343 Og1 
     1                           	processor	16F1717
     2                           	pagewidth 120
     3                           	opt	flic
     4                           	psect	stringtext1,global,class=STRCODE,delta=2,noexec
     5                           	psect	stringtext2,global,class=STRCODE,delta=2,noexec
     6                           	psect	stringtext3,global,class=STRCODE,delta=2,noexec
     7                           	psect	stringtext4,global,class=STRCODE,delta=2,noexec
     8                           	psect	stringtext5,global,class=STRCODE,delta=2,noexec
     9                           	psect	cinit,global,class=CODE,merge=1,delta=2
    10                           	psect	cstackCOMMON,global,class=COMMON,space=1,delta=1,noexec
    11                           	psect	cstackBANK0,global,class=BANK0,space=1,delta=1,noexec
    12                           	psect	maintext,global,class=CODE,merge=1,split=1,delta=2
    13                           	psect	text1,local,class=CODE,merge=1,delta=2
    14                           	psect	text2,local,class=CODE,merge=1,delta=2
    15                           	psect	text3,local,class=CODE,merge=1,delta=2
    16                           	psect	text4,local,class=CODE,merge=1,delta=2
    17                           	psect	text5,local,class=CODE,merge=1,delta=2
    18                           	psect	text6,local,class=CODE,merge=1,delta=2
    19                           	psect	text7,local,class=CODE,merge=1,delta=2
    20                           	psect	text8,local,class=CODE,merge=1,delta=2
    21                           	psect	text9,local,class=CODE,merge=1,delta=2,group=2
    22                           	psect	text10,local,class=CODE,merge=1,delta=2
    23                           	psect	text11,local,class=CODE,merge=1,delta=2
    24                           	psect	text12,local,class=CODE,merge=1,delta=2
    25                           	psect	text13,local,class=CODE,merge=1,delta=2
    26                           	psect	idloc,global,abs,ovrld,class=IDLOC,space=5,delta=2,noexec
    27                           	psect	config,global,abs,ovrld,class=CONFIG,space=4,delta=2,noexec
    28                           	dabs	1,0x7E,2
    29     0000                     
    30                           ; Generated 18/08/2023 GMT
    31                           ; 
    32                           ; Copyright © 2023, Microchip Technology Inc. and its subsidiaries ("Microchip")
    33                           ; All rights reserved.
    34                           ; 
    35                           ; This software is developed by Microchip Technology Inc. and its subsidiaries ("Microch
      +                          ip").
    36                           ; 
    37                           ; Redistribution and use in source and binary forms, with or without modification, are
    38                           ; permitted provided that the following conditions are met:
    39                           ; 
    40                           ;     1. Redistributions of source code must retain the above copyright notice, this lis
      +                          t of
    41                           ;        conditions and the following disclaimer.
    42                           ; 
    43                           ;     2. Redistributions in binary form must reproduce the above copyright notice, this 
      +                          list
    44                           ;        of conditions and the following disclaimer in the documentation and/or other
    45                           ;        materials provided with the distribution. Publication is not required when
    46                           ;        this file is used in an embedded application.
    47                           ; 
    48                           ;     3. Microchip's name may not be used to endorse or promote products derived from th
      +                          is
    49                           ;        software without specific prior written permission.
    50                           ; 
    51                           ; THIS SOFTWARE IS PROVIDED BY MICROCHIP "AS IS" AND ANY EXPRESS OR IMPLIED WARRANTIES,
    52                           ; INCLUDING, BUT NOT LIMITED TO, THE IMPLIED WARRANTIES OF MERCHANTABILITY AND FITNESS F
      +                          OR
    53                           ; PURPOSE ARE DISCLAIMED.  IN NO EVENT SHALL MICROCHIP BE LIABLE FOR ANY DIRECT, INDIREC
      +                          T,
    54                           ; INCIDENTAL, SPECIAL, EXEMPLARY, OR CONSEQUENTIAL DAMAGES (INCLUDING BUT NOT LIMITED TO
    55                           ; PROCUREMENT OF SUBSTITUTE GOODS OR SERVICES; LOSS OF USE, DATA OR PROFITS; OR BUSINESS
    56                           ; INTERRUPTION) HOWSOEVER CAUSED AND ON ANY THEORY OF LIABILITY, WHETHER IN CONTRACT, ST
      +                          RICT
    57                           ; LIABILITY, OR TORT (INCLUDING NEGLIGENCE OR OTHERWISE) ARISING IN ANY WAY OUT OF THE U
      +                          SE OF
    58                           ; THIS SOFTWARE, EVEN IF ADVISED OF THE POSSIBILITY OF SUCH DAMAGE.
    59                           ; 
    60                           ; 
    61                           ; Code-generator required, PIC16F1717 Definitions
    62                           ; 
    63                           ; SFR Addresses
    64     0000                     	;# 
    65     0001                     	;# 
    66     0002                     	;# 
    67     0003                     	;# 
    68     0004                     	;# 
    69     0005                     	;# 
    70     0006                     	;# 
    71     0007                     	;# 
    72     0008                     	;# 
    73     0009                     	;# 
    74     000A                     	;# 
    75     000B                     	;# 
    76     000C                     	;# 
    77     000D                     	;# 
    78     000E                     	;# 
    79     000F                     	;# 
    80     0010                     	;# 
    81     0011                     	;# 
    82     0012                     	;# 
    83     0013                     	;# 
    84     0015                     	;# 
    85     0016                     	;# 
    86     0016                     	;# 
    87     0017                     	;# 
    88     0018                     	;# 
    89     0019                     	;# 
    90     001A                     	;# 
    91     001B                     	;# 
    92     001C                     	;# 
    93     008C                     	;# 
    94     008D                     	;# 
    95     008E                     	;# 
    96     008F                     	;# 
    97     0090                     	;# 
    98     0091                     	;# 
    99     0092                     	;# 
   100     0093                     	;# 
   101     0095                     	;# 
   102     0096                     	;# 
   103     0097                     	;# 
   104     0098                     	;# 
   105     0099                     	;# 
   106     009A                     	;# 
   107     009B                     	;# 
   108     009B                     	;# 
   109     009C                     	;# 
   110     009D                     	;# 
   111     009E                     	;# 
   112     009F                     	;# 
   113     010C                     	;# 
   114     010D                     	;# 
   115     010E                     	;# 
   116     010F                     	;# 
   117     0110                     	;# 
   118     0111                     	;# 
   119     0112                     	;# 
   120     0113                     	;# 
   121     0114                     	;# 
   122     0115                     	;# 
   123     0116                     	;# 
   124     0117                     	;# 
   125     0118                     	;# 
   126     0119                     	;# 
   127     011A                     	;# 
   128     011B                     	;# 
   129     011B                     	;# 
   130     011C                     	;# 
   131     018C                     	;# 
   132     018D                     	;# 
   133     018E                     	;# 
   134     018F                     	;# 
   135     0190                     	;# 
   136     0191                     	;# 
   137     0191                     	;# 
   138     0192                     	;# 
   139     0193                     	;# 
   140     0193                     	;# 
   141     0194                     	;# 
   142     0195                     	;# 
   143     0196                     	;# 
   144     0197                     	;# 
   145     0199                     	;# 
   146     0199                     	;# 
   147     0199                     	;# 
   148     019A                     	;# 
   149     019A                     	;# 
   150     019A                     	;# 
   151     019B                     	;# 
   152     019B                     	;# 
   153     019B                     	;# 
   154     019B                     	;# 
   155     019B                     	;# 
   156     019C                     	;# 
   157     019C                     	;# 
   158     019C                     	;# 
   159     019D                     	;# 
   160     019D                     	;# 
   161     019D                     	;# 
   162     019E                     	;# 
   163     019E                     	;# 
   164     019E                     	;# 
   165     019F                     	;# 
   166     019F                     	;# 
   167     019F                     	;# 
   168     019F                     	;# 
   169     019F                     	;# 
   170     020C                     	;# 
   171     020D                     	;# 
   172     020E                     	;# 
   173     020F                     	;# 
   174     0210                     	;# 
   175     0211                     	;# 
   176     0211                     	;# 
   177     0212                     	;# 
   178     0212                     	;# 
   179     0213                     	;# 
   180     0213                     	;# 
   181     0214                     	;# 
   182     0214                     	;# 
   183     0215                     	;# 
   184     0215                     	;# 
   185     0215                     	;# 
   186     0215                     	;# 
   187     0216                     	;# 
   188     0216                     	;# 
   189     0217                     	;# 
   190     0217                     	;# 
   191     028C                     	;# 
   192     028D                     	;# 
   193     028E                     	;# 
   194     028F                     	;# 
   195     0290                     	;# 
   196     0291                     	;# 
   197     0291                     	;# 
   198     0292                     	;# 
   199     0293                     	;# 
   200     0293                     	;# 
   201     0298                     	;# 
   202     0298                     	;# 
   203     0299                     	;# 
   204     029A                     	;# 
   205     029A                     	;# 
   206     029E                     	;# 
   207     030C                     	;# 
   208     030D                     	;# 
   209     030E                     	;# 
   210     030F                     	;# 
   211     0310                     	;# 
   212     038C                     	;# 
   213     038D                     	;# 
   214     038E                     	;# 
   215     038F                     	;# 
   216     0390                     	;# 
   217     0391                     	;# 
   218     0392                     	;# 
   219     0393                     	;# 
   220     0394                     	;# 
   221     0395                     	;# 
   222     0396                     	;# 
   223     0397                     	;# 
   224     0398                     	;# 
   225     0399                     	;# 
   226     039D                     	;# 
   227     039E                     	;# 
   228     039F                     	;# 
   229     0415                     	;# 
   230     0416                     	;# 
   231     0417                     	;# 
   232     041C                     	;# 
   233     041D                     	;# 
   234     041E                     	;# 
   235     0498                     	;# 
   236     0498                     	;# 
   237     0499                     	;# 
   238     049A                     	;# 
   239     049B                     	;# 
   240     049B                     	;# 
   241     049C                     	;# 
   242     049D                     	;# 
   243     049E                     	;# 
   244     049F                     	;# 
   245     0511                     	;# 
   246     0515                     	;# 
   247     0617                     	;# 
   248     0618                     	;# 
   249     0619                     	;# 
   250     0619                     	;# 
   251     061A                     	;# 
   252     061B                     	;# 
   253     061C                     	;# 
   254     061C                     	;# 
   255     0691                     	;# 
   256     0692                     	;# 
   257     0693                     	;# 
   258     0694                     	;# 
   259     0695                     	;# 
   260     0696                     	;# 
   261     0697                     	;# 
   262     0698                     	;# 
   263     0699                     	;# 
   264     069A                     	;# 
   265     069B                     	;# 
   266     069C                     	;# 
   267     069D                     	;# 
   268     069E                     	;# 
   269     069F                     	;# 
   270     0E0F                     	;# 
   271     0E10                     	;# 
   272     0E11                     	;# 
   273     0E12                     	;# 
   274     0E13                     	;# 
   275     0E14                     	;# 
   276     0E15                     	;# 
   277     0E17                     	;# 
   278     0E20                     	;# 
   279     0E21                     	;# 
   280     0E22                     	;# 
   281     0E24                     	;# 
   282     0E25                     	;# 
   283     0E28                     	;# 
   284     0E29                     	;# 
   285     0E2A                     	;# 
   286     0E2B                     	;# 
   287     0E90                     	;# 
   288     0E91                     	;# 
   289     0E92                     	;# 
   290     0E93                     	;# 
   291     0E94                     	;# 
   292     0E95                     	;# 
   293     0E96                     	;# 
   294     0E97                     	;# 
   295     0E98                     	;# 
   296     0E99                     	;# 
   297     0E9A                     	;# 
   298     0E9B                     	;# 
   299     0E9C                     	;# 
   300     0E9D                     	;# 
   301     0E9E                     	;# 
   302     0E9F                     	;# 
   303     0EA0                     	;# 
   304     0EA1                     	;# 
   305     0EA2                     	;# 
   306     0EA3                     	;# 
   307     0EA4                     	;# 
   308     0EA5                     	;# 
   309     0EA6                     	;# 
   310     0EA7                     	;# 
   311     0EA8                     	;# 
   312     0EA9                     	;# 
   313     0EAA                     	;# 
   314     0EAB                     	;# 
   315     0EAC                     	;# 
   316     0EAD                     	;# 
   317     0EAE                     	;# 
   318     0EAF                     	;# 
   319     0EB0                     	;# 
   320     0EB1                     	;# 
   321     0EB2                     	;# 
   322     0F0F                     	;# 
   323     0F10                     	;# 
   324     0F11                     	;# 
   325     0F12                     	;# 
   326     0F13                     	;# 
   327     0F14                     	;# 
   328     0F15                     	;# 
   329     0F16                     	;# 
   330     0F17                     	;# 
   331     0F18                     	;# 
   332     0F19                     	;# 
   333     0F1A                     	;# 
   334     0F1B                     	;# 
   335     0F1C                     	;# 
   336     0F1D                     	;# 
   337     0F1E                     	;# 
   338     0F1F                     	;# 
   339     0F20                     	;# 
   340     0F21                     	;# 
   341     0F22                     	;# 
   342     0F23                     	;# 
   343     0F24                     	;# 
   344     0F25                     	;# 
   345     0F26                     	;# 
   346     0F27                     	;# 
   347     0F28                     	;# 
   348     0F29                     	;# 
   349     0F2A                     	;# 
   350     0F2B                     	;# 
   351     0F2C                     	;# 
   352     0F2D                     	;# 
   353     0F2E                     	;# 
   354     0F2F                     	;# 
   355     0F30                     	;# 
   356     0F31                     	;# 
   357     0F32                     	;# 
   358     0F33                     	;# 
   359     0F34                     	;# 
   360     0F35                     	;# 
   361     0F36                     	;# 
   362     0F37                     	;# 
   363     0FE4                     	;# 
   364     0FE5                     	;# 
   365     0FE6                     	;# 
   366     0FE7                     	;# 
   367     0FE8                     	;# 
   368     0FE9                     	;# 
   369     0FEA                     	;# 
   370     0FEB                     	;# 
   371     0FED                     	;# 
   372     0FEE                     	;# 
   373     0FEF                     	;# 
   374     0000                     	;# 
   375     0001                     	;# 
   376     0002                     	;# 
   377     0003                     	;# 
   378     0004                     	;# 
   379     0005                     	;# 
   380     0006                     	;# 
   381     0007                     	;# 
   382     0008                     	;# 
   383     0009                     	;# 
   384     000A                     	;# 
   385     000B                     	;# 
   386     000C                     	;# 
   387     000D                     	;# 
   388     000E                     	;# 
   389     000F                     	;# 
   390     0010                     	;# 
   391     0011                     	;# 
   392     0012                     	;# 
   393     0013                     	;# 
   394     0015                     	;# 
   395     0016                     	;# 
   396     0016                     	;# 
   397     0017                     	;# 
   398     0018                     	;# 
   399     0019                     	;# 
   400     001A                     	;# 
   401     001B                     	;# 
   402     001C                     	;# 
   403     008C                     	;# 
   404     008D                     	;# 
   405     008E                     	;# 
   406     008F                     	;# 
   407     0090                     	;# 
   408     0091                     	;# 
   409     0092                     	;# 
   410     0093                     	;# 
   411     0095                     	;# 
   412     0096                     	;# 
   413     0097                     	;# 
   414     0098                     	;# 
   415     0099                     	;# 
   416     009A                     	;# 
   417     009B                     	;# 
   418     009B                     	;# 
   419     009C                     	;# 
   420     009D                     	;# 
   421     009E                     	;# 
   422     009F                     	;# 
   423     010C                     	;# 
   424     010D                     	;# 
   425     010E                     	;# 
   426     010F                     	;# 
   427     0110                     	;# 
   428     0111                     	;# 
   429     0112                     	;# 
   430     0113                     	;# 
   431     0114                     	;# 
   432     0115                     	;# 
   433     0116                     	;# 
   434     0117                     	;# 
   435     0118                     	;# 
   436     0119                     	;# 
   437     011A                     	;# 
   438     011B                     	;# 
   439     011B                     	;# 
   440     011C                     	;# 
   441     018C                     	;# 
   442     018D                     	;# 
   443     018E                     	;# 
   444     018F                     	;# 
   445     0190                     	;# 
   446     0191                     	;# 
   447     0191                     	;# 
   448     0192                     	;# 
   449     0193                     	;# 
   450     0193                     	;# 
   451     0194                     	;# 
   452     0195                     	;# 
   453     0196                     	;# 
   454     0197                     	;# 
   455     0199                     	;# 
   456     0199                     	;# 
   457     0199                     	;# 
   458     019A                     	;# 
   459     019A                     	;# 
   460     019A                     	;# 
   461     019B                     	;# 
   462     019B                     	;# 
   463     019B                     	;# 
   464     019B                     	;# 
   465     019B                     	;# 
   466     019C                     	;# 
   467     019C                     	;# 
   468     019C                     	;# 
   469     019D                     	;# 
   470     019D                     	;# 
   471     019D                     	;# 
   472     019E                     	;# 
   473     019E                     	;# 
   474     019E                     	;# 
   475     019F                     	;# 
   476     019F                     	;# 
   477     019F                     	;# 
   478     019F                     	;# 
   479     019F                     	;# 
   480     020C                     	;# 
   481     020D                     	;# 
   482     020E                     	;# 
   483     020F                     	;# 
   484     0210                     	;# 
   485     0211                     	;# 
   486     0211                     	;# 
   487     0212                     	;# 
   488     0212                     	;# 
   489     0213                     	;# 
   490     0213                     	;# 
   491     0214                     	;# 
   492     0214                     	;# 
   493     0215                     	;# 
   494     0215                     	;# 
   495     0215                     	;# 
   496     0215                     	;# 
   497     0216                     	;# 
   498     0216                     	;# 
   499     0217                     	;# 
   500     0217                     	;# 
   501     028C                     	;# 
   502     028D                     	;# 
   503     028E                     	;# 
   504     028F                     	;# 
   505     0290                     	;# 
   506     0291                     	;# 
   507     0291                     	;# 
   508     0292                     	;# 
   509     0293                     	;# 
   510     0293                     	;# 
   511     0298                     	;# 
   512     0298                     	;# 
   513     0299                     	;# 
   514     029A                     	;# 
   515     029A                     	;# 
   516     029E                     	;# 
   517     030C                     	;# 
   518     030D                     	;# 
   519     030E                     	;# 
   520     030F                     	;# 
   521     0310                     	;# 
   522     038C                     	;# 
   523     038D                     	;# 
   524     038E                     	;# 
   525     038F                     	;# 
   526     0390                     	;# 
   527     0391                     	;# 
   528     0392                     	;# 
   529     0393                     	;# 
   530     0394                     	;# 
   531     0395                     	;# 
   532     0396                     	;# 
   533     0397                     	;# 
   534     0398                     	;# 
   535     0399                     	;# 
   536     039D                     	;# 
   537     039E                     	;# 
   538     039F                     	;# 
   539     0415                     	;# 
   540     0416                     	;# 
   541     0417                     	;# 
   542     041C                     	;# 
   543     041D                     	;# 
   544     041E                     	;# 
   545     0498                     	;# 
   546     0498                     	;# 
   547     0499                     	;# 
   548     049A                     	;# 
   549     049B                     	;# 
   550     049B                     	;# 
   551     049C                     	;# 
   552     049D                     	;# 
   553     049E                     	;# 
   554     049F                     	;# 
   555     0511                     	;# 
   556     0515                     	;# 
   557     0617                     	;# 
   558     0618                     	;# 
   559     0619                     	;# 
   560     0619                     	;# 
   561     061A                     	;# 
   562     061B                     	;# 
   563     061C                     	;# 
   564     061C                     	;# 
   565     0691                     	;# 
   566     0692                     	;# 
   567     0693                     	;# 
   568     0694                     	;# 
   569     0695                     	;# 
   570     0696                     	;# 
   571     0697                     	;# 
   572     0698                     	;# 
   573     0699                     	;# 
   574     069A                     	;# 
   575     069B                     	;# 
   576     069C                     	;# 
   577     069D                     	;# 
   578     069E                     	;# 
   579     069F                     	;# 
   580     0E0F                     	;# 
   581     0E10                     	;# 
   582     0E11                     	;# 
   583     0E12                     	;# 
   584     0E13                     	;# 
   585     0E14                     	;# 
   586     0E15                     	;# 
   587     0E17                     	;# 
   588     0E20                     	;# 
   589     0E21                     	;# 
   590     0E22                     	;# 
   591     0E24                     	;# 
   592     0E25                     	;# 
   593     0E28                     	;# 
   594     0E29                     	;# 
   595     0E2A                     	;# 
   596     0E2B                     	;# 
   597     0E90                     	;# 
   598     0E91                     	;# 
   599     0E92                     	;# 
   600     0E93                     	;# 
   601     0E94                     	;# 
   602     0E95                     	;# 
   603     0E96                     	;# 
   604     0E97                     	;# 
   605     0E98                     	;# 
   606     0E99                     	;# 
   607     0E9A                     	;# 
   608     0E9B                     	;# 
   609     0E9C                     	;# 
   610     0E9D                     	;# 
   611     0E9E                     	;# 
   612     0E9F                     	;# 
   613     0EA0                     	;# 
   614     0EA1                     	;# 
   615     0EA2                     	;# 
   616     0EA3                     	;# 
   617     0EA4                     	;# 
   618     0EA5                     	;# 
   619     0EA6                     	;# 
   620     0EA7                     	;# 
   621     0EA8                     	;# 
   622     0EA9                     	;# 
   623     0EAA                     	;# 
   624     0EAB                     	;# 
   625     0EAC                     	;# 
   626     0EAD                     	;# 
   627     0EAE                     	;# 
   628     0EAF                     	;# 
   629     0EB0                     	;# 
   630     0EB1                     	;# 
   631     0EB2                     	;# 
   632     0F0F                     	;# 
   633     0F10                     	;# 
   634     0F11                     	;# 
   635     0F12                     	;# 
   636     0F13                     	;# 
   637     0F14                     	;# 
   638     0F15                     	;# 
   639     0F16                     	;# 
   640     0F17                     	;# 
   641     0F18                     	;# 
   642     0F19                     	;# 
   643     0F1A                     	;# 
   644     0F1B                     	;# 
   645     0F1C                     	;# 
   646     0F1D                     	;# 
   647     0F1E                     	;# 
   648     0F1F                     	;# 
   649     0F20                     	;# 
   650     0F21                     	;# 
   651     0F22                     	;# 
   652     0F23                     	;# 
   653     0F24                     	;# 
   654     0F25                     	;# 
   655     0F26                     	;# 
   656     0F27                     	;# 
   657     0F28                     	;# 
   658     0F29                     	;# 
   659     0F2A                     	;# 
   660     0F2B                     	;# 
   661     0F2C                     	;# 
   662     0F2D                     	;# 
   663     0F2E                     	;# 
   664     0F2F                     	;# 
   665     0F30                     	;# 
   666     0F31                     	;# 
   667     0F32                     	;# 
   668     0F33                     	;# 
   669     0F34                     	;# 
   670     0F35                     	;# 
   671     0F36                     	;# 
   672     0F37                     	;# 
   673     0FE4                     	;# 
   674     0FE5                     	;# 
   675     0FE6                     	;# 
   676     0FE7                     	;# 
   677     0FE8                     	;# 
   678     0FE9                     	;# 
   679     0FEA                     	;# 
   680     0FEB                     	;# 
   681     0FED                     	;# 
   682     0FEE                     	;# 
   683     0FEF                     	;# 
   684     0000                     	;# 
   685     0001                     	;# 
   686     0002                     	;# 
   687     0003                     	;# 
   688     0004                     	;# 
   689     0005                     	;# 
   690     0006                     	;# 
   691     0007                     	;# 
   692     0008                     	;# 
   693     0009                     	;# 
   694     000A                     	;# 
   695     000B                     	;# 
   696     000C                     	;# 
   697     000D                     	;# 
   698     000E                     	;# 
   699     000F                     	;# 
   700     0010                     	;# 
   701     0011                     	;# 
   702     0012                     	;# 
   703     0013                     	;# 
   704     0015                     	;# 
   705     0016                     	;# 
   706     0016                     	;# 
   707     0017                     	;# 
   708     0018                     	;# 
   709     0019                     	;# 
   710     001A                     	;# 
   711     001B                     	;# 
   712     001C                     	;# 
   713     008C                     	;# 
   714     008D                     	;# 
   715     008E                     	;# 
   716     008F                     	;# 
   717     0090                     	;# 
   718     0091                     	;# 
   719     0092                     	;# 
   720     0093                     	;# 
   721     0095                     	;# 
   722     0096                     	;# 
   723     0097                     	;# 
   724     0098                     	;# 
   725     0099                     	;# 
   726     009A                     	;# 
   727     009B                     	;# 
   728     009B                     	;# 
   729     009C                     	;# 
   730     009D                     	;# 
   731     009E                     	;# 
   732     009F                     	;# 
   733     010C                     	;# 
   734     010D                     	;# 
   735     010E                     	;# 
   736     010F                     	;# 
   737     0110                     	;# 
   738     0111                     	;# 
   739     0112                     	;# 
   740     0113                     	;# 
   741     0114                     	;# 
   742     0115                     	;# 
   743     0116                     	;# 
   744     0117                     	;# 
   745     0118                     	;# 
   746     0119                     	;# 
   747     011A                     	;# 
   748     011B                     	;# 
   749     011B                     	;# 
   750     011C                     	;# 
   751     018C                     	;# 
   752     018D                     	;# 
   753     018E                     	;# 
   754     018F                     	;# 
   755     0190                     	;# 
   756     0191                     	;# 
   757     0191                     	;# 
   758     0192                     	;# 
   759     0193                     	;# 
   760     0193                     	;# 
   761     0194                     	;# 
   762     0195                     	;# 
   763     0196                     	;# 
   764     0197                     	;# 
   765     0199                     	;# 
   766     0199                     	;# 
   767     0199                     	;# 
   768     019A                     	;# 
   769     019A                     	;# 
   770     019A                     	;# 
   771     019B                     	;# 
   772     019B                     	;# 
   773     019B                     	;# 
   774     019B                     	;# 
   775     019B                     	;# 
   776     019C                     	;# 
   777     019C                     	;# 
   778     019C                     	;# 
   779     019D                     	;# 
   780     019D                     	;# 
   781     019D                     	;# 
   782     019E                     	;# 
   783     019E                     	;# 
   784     019E                     	;# 
   785     019F                     	;# 
   786     019F                     	;# 
   787     019F                     	;# 
   788     019F                     	;# 
   789     019F                     	;# 
   790     020C                     	;# 
   791     020D                     	;# 
   792     020E                     	;# 
   793     020F                     	;# 
   794     0210                     	;# 
   795     0211                     	;# 
   796     0211                     	;# 
   797     0212                     	;# 
   798     0212                     	;# 
   799     0213                     	;# 
   800     0213                     	;# 
   801     0214                     	;# 
   802     0214                     	;# 
   803     0215                     	;# 
   804     0215                     	;# 
   805     0215                     	;# 
   806     0215                     	;# 
   807     0216                     	;# 
   808     0216                     	;# 
   809     0217                     	;# 
   810     0217                     	;# 
   811     028C                     	;# 
   812     028D                     	;# 
   813     028E                     	;# 
   814     028F                     	;# 
   815     0290                     	;# 
   816     0291                     	;# 
   817     0291                     	;# 
   818     0292                     	;# 
   819     0293                     	;# 
   820     0293                     	;# 
   821     0298                     	;# 
   822     0298                     	;# 
   823     0299                     	;# 
   824     029A                     	;# 
   825     029A                     	;# 
   826     029E                     	;# 
   827     030C                     	;# 
   828     030D                     	;# 
   829     030E                     	;# 
   830     030F                     	;# 
   831     0310                     	;# 
   832     038C                     	;# 
   833     038D                     	;# 
   834     038E                     	;# 
   835     038F                     	;# 
   836     0390                     	;# 
   837     0391                     	;# 
   838     0392                     	;# 
   839     0393                     	;# 
   840     0394                     	;# 
   841     0395                     	;# 
   842     0396                     	;# 
   843     0397                     	;# 
   844     0398                     	;# 
   845     0399                     	;# 
   846     039D                     	;# 
   847     039E                     	;# 
   848     039F                     	;# 
   849     0415                     	;# 
   850     0416                     	;# 
   851     0417                     	;# 
   852     041C                     	;# 
   853     041D                     	;# 
   854     041E                     	;# 
   855     0498                     	;# 
   856     0498                     	;# 
   857     0499                     	;# 
   858     049A                     	;# 
   859     049B                     	;# 
   860     049B                     	;# 
   861     049C                     	;# 
   862     049D                     	;# 
   863     049E                     	;# 
   864     049F                     	;# 
   865     0511                     	;# 
   866     0515                     	;# 
   867     0617                     	;# 
   868     0618                     	;# 
   869     0619                     	;# 
   870     0619                     	;# 
   871     061A                     	;# 
   872     061B                     	;# 
   873     061C                     	;# 
   874     061C                     	;# 
   875     0691                     	;# 
   876     0692                     	;# 
   877     0693                     	;# 
   878     0694                     	;# 
   879     0695                     	;# 
   880     0696                     	;# 
   881     0697                     	;# 
   882     0698                     	;# 
   883     0699                     	;# 
   884     069A                     	;# 
   885     069B                     	;# 
   886     069C                     	;# 
   887     069D                     	;# 
   888     069E                     	;# 
   889     069F                     	;# 
   890     0E0F                     	;# 
   891     0E10                     	;# 
   892     0E11                     	;# 
   893     0E12                     	;# 
   894     0E13                     	;# 
   895     0E14                     	;# 
   896     0E15                     	;# 
   897     0E17                     	;# 
   898     0E20                     	;# 
   899     0E21                     	;# 
   900     0E22                     	;# 
   901     0E24                     	;# 
   902     0E25                     	;# 
   903     0E28                     	;# 
   904     0E29                     	;# 
   905     0E2A                     	;# 
   906     0E2B                     	;# 
   907     0E90                     	;# 
   908     0E91                     	;# 
   909     0E92                     	;# 
   910     0E93                     	;# 
   911     0E94                     	;# 
   912     0E95                     	;# 
   913     0E96                     	;# 
   914     0E97                     	;# 
   915     0E98                     	;# 
   916     0E99                     	;# 
   917     0E9A                     	;# 
   918     0E9B                     	;# 
   919     0E9C                     	;# 
   920     0E9D                     	;# 
   921     0E9E                     	;# 
   922     0E9F                     	;# 
   923     0EA0                     	;# 
   924     0EA1                     	;# 
   925     0EA2                     	;# 
   926     0EA3                     	;# 
   927     0EA4                     	;# 
   928     0EA5                     	;# 
   929     0EA6                     	;# 
   930     0EA7                     	;# 
   931     0EA8                     	;# 
   932     0EA9                     	;# 
   933     0EAA                     	;# 
   934     0EAB                     	;# 
   935     0EAC                     	;# 
   936     0EAD                     	;# 
   937     0EAE                     	;# 
   938     0EAF                     	;# 
   939     0EB0                     	;# 
   940     0EB1                     	;# 
   941     0EB2                     	;# 
   942     0F0F                     	;# 
   943     0F10                     	;# 
   944     0F11                     	;# 
   945     0F12                     	;# 
   946     0F13                     	;# 
   947     0F14                     	;# 
   948     0F15                     	;# 
   949     0F16                     	;# 
   950     0F17                     	;# 
   951     0F18                     	;# 
   952     0F19                     	;# 
   953     0F1A                     	;# 
   954     0F1B                     	;# 
   955     0F1C                     	;# 
   956     0F1D                     	;# 
   957     0F1E                     	;# 
   958     0F1F                     	;# 
   959     0F20                     	;# 
   960     0F21                     	;# 
   961     0F22                     	;# 
   962     0F23                     	;# 
   963     0F24                     	;# 
   964     0F25                     	;# 
   965     0F26                     	;# 
   966     0F27                     	;# 
   967     0F28                     	;# 
   968     0F29                     	;# 
   969     0F2A                     	;# 
   970     0F2B                     	;# 
   971     0F2C                     	;# 
   972     0F2D                     	;# 
   973     0F2E                     	;# 
   974     0F2F                     	;# 
   975     0F30                     	;# 
   976     0F31                     	;# 
   977     0F32                     	;# 
   978     0F33                     	;# 
   979     0F34                     	;# 
   980     0F35                     	;# 
   981     0F36                     	;# 
   982     0F37                     	;# 
   983     0FE4                     	;# 
   984     0FE5                     	;# 
   985     0FE6                     	;# 
   986     0FE7                     	;# 
   987     0FE8                     	;# 
   988     0FE9                     	;# 
   989     0FEA                     	;# 
   990     0FEB                     	;# 
   991     0FED                     	;# 
   992     0FEE                     	;# 
   993     0FEF                     	;# 
   994     0000                     	;# 
   995     0001                     	;# 
   996     0002                     	;# 
   997     0003                     	;# 
   998     0004                     	;# 
   999     0005                     	;# 
  1000     0006                     	;# 
  1001     0007                     	;# 
  1002     0008                     	;# 
  1003     0009                     	;# 
  1004     000A                     	;# 
  1005     000B                     	;# 
  1006     000C                     	;# 
  1007     000D                     	;# 
  1008     000E                     	;# 
  1009     000F                     	;# 
  1010     0010                     	;# 
  1011     0011                     	;# 
  1012     0012                     	;# 
  1013     0013                     	;# 
  1014     0015                     	;# 
  1015     0016                     	;# 
  1016     0016                     	;# 
  1017     0017                     	;# 
  1018     0018                     	;# 
  1019     0019                     	;# 
  1020     001A                     	;# 
  1021     001B                     	;# 
  1022     001C                     	;# 
  1023     008C                     	;# 
  1024     008D                     	;# 
  1025     008E                     	;# 
  1026     008F                     	;# 
  1027     0090                     	;# 
  1028     0091                     	;# 
  1029     0092                     	;# 
  1030     0093                     	;# 
  1031     0095                     	;# 
  1032     0096                     	;# 
  1033     0097                     	;# 
  1034     0098                     	;# 
  1035     0099                     	;# 
  1036     009A                     	;# 
  1037     009B                     	;# 
  1038     009B                     	;# 
  1039     009C                     	;# 
  1040     009D                     	;# 
  1041     009E                     	;# 
  1042     009F                     	;# 
  1043     010C                     	;# 
  1044     010D                     	;# 
  1045     010E                     	;# 
  1046     010F                     	;# 
  1047     0110                     	;# 
  1048     0111                     	;# 
  1049     0112                     	;# 
  1050     0113                     	;# 
  1051     0114                     	;# 
  1052     0115                     	;# 
  1053     0116                     	;# 
  1054     0117                     	;# 
  1055     0118                     	;# 
  1056     0119                     	;# 
  1057     011A                     	;# 
  1058     011B                     	;# 
  1059     011B                     	;# 
  1060     011C                     	;# 
  1061     018C                     	;# 
  1062     018D                     	;# 
  1063     018E                     	;# 
  1064     018F                     	;# 
  1065     0190                     	;# 
  1066     0191                     	;# 
  1067     0191                     	;# 
  1068     0192                     	;# 
  1069     0193                     	;# 
  1070     0193                     	;# 
  1071     0194                     	;# 
  1072     0195                     	;# 
  1073     0196                     	;# 
  1074     0197                     	;# 
  1075     0199                     	;# 
  1076     0199                     	;# 
  1077     0199                     	;# 
  1078     019A                     	;# 
  1079     019A                     	;# 
  1080     019A                     	;# 
  1081     019B                     	;# 
  1082     019B                     	;# 
  1083     019B                     	;# 
  1084     019B                     	;# 
  1085     019B                     	;# 
  1086     019C                     	;# 
  1087     019C                     	;# 
  1088     019C                     	;# 
  1089     019D                     	;# 
  1090     019D                     	;# 
  1091     019D                     	;# 
  1092     019E                     	;# 
  1093     019E                     	;# 
  1094     019E                     	;# 
  1095     019F                     	;# 
  1096     019F                     	;# 
  1097     019F                     	;# 
  1098     019F                     	;# 
  1099     019F                     	;# 
  1100     020C                     	;# 
  1101     020D                     	;# 
  1102     020E                     	;# 
  1103     020F                     	;# 
  1104     0210                     	;# 
  1105     0211                     	;# 
  1106     0211                     	;# 
  1107     0212                     	;# 
  1108     0212                     	;# 
  1109     0213                     	;# 
  1110     0213                     	;# 
  1111     0214                     	;# 
  1112     0214                     	;# 
  1113     0215                     	;# 
  1114     0215                     	;# 
  1115     0215                     	;# 
  1116     0215                     	;# 
  1117     0216                     	;# 
  1118     0216                     	;# 
  1119     0217                     	;# 
  1120     0217                     	;# 
  1121     028C                     	;# 
  1122     028D                     	;# 
  1123     028E                     	;# 
  1124     028F                     	;# 
  1125     0290                     	;# 
  1126     0291                     	;# 
  1127     0291                     	;# 
  1128     0292                     	;# 
  1129     0293                     	;# 
  1130     0293                     	;# 
  1131     0298                     	;# 
  1132     0298                     	;# 
  1133     0299                     	;# 
  1134     029A                     	;# 
  1135     029A                     	;# 
  1136     029E                     	;# 
  1137     030C                     	;# 
  1138     030D                     	;# 
  1139     030E                     	;# 
  1140     030F                     	;# 
  1141     0310                     	;# 
  1142     038C                     	;# 
  1143     038D                     	;# 
  1144     038E                     	;# 
  1145     038F                     	;# 
  1146     0390                     	;# 
  1147     0391                     	;# 
  1148     0392                     	;# 
  1149     0393                     	;# 
  1150     0394                     	;# 
  1151     0395                     	;# 
  1152     0396                     	;# 
  1153     0397                     	;# 
  1154     0398                     	;# 
  1155     0399                     	;# 
  1156     039D                     	;# 
  1157     039E                     	;# 
  1158     039F                     	;# 
  1159     0415                     	;# 
  1160     0416                     	;# 
  1161     0417                     	;# 
  1162     041C                     	;# 
  1163     041D                     	;# 
  1164     041E                     	;# 
  1165     0498                     	;# 
  1166     0498                     	;# 
  1167     0499                     	;# 
  1168     049A                     	;# 
  1169     049B                     	;# 
  1170     049B                     	;# 
  1171     049C                     	;# 
  1172     049D                     	;# 
  1173     049E                     	;# 
  1174     049F                     	;# 
  1175     0511                     	;# 
  1176     0515                     	;# 
  1177     0617                     	;# 
  1178     0618                     	;# 
  1179     0619                     	;# 
  1180     0619                     	;# 
  1181     061A                     	;# 
  1182     061B                     	;# 
  1183     061C                     	;# 
  1184     061C                     	;# 
  1185     0691                     	;# 
  1186     0692                     	;# 
  1187     0693                     	;# 
  1188     0694                     	;# 
  1189     0695                     	;# 
  1190     0696                     	;# 
  1191     0697                     	;# 
  1192     0698                     	;# 
  1193     0699                     	;# 
  1194     069A                     	;# 
  1195     069B                     	;# 
  1196     069C                     	;# 
  1197     069D                     	;# 
  1198     069E                     	;# 
  1199     069F                     	;# 
  1200     0E0F                     	;# 
  1201     0E10                     	;# 
  1202     0E11                     	;# 
  1203     0E12                     	;# 
  1204     0E13                     	;# 
  1205     0E14                     	;# 
  1206     0E15                     	;# 
  1207     0E17                     	;# 
  1208     0E20                     	;# 
  1209     0E21                     	;# 
  1210     0E22                     	;# 
  1211     0E24                     	;# 
  1212     0E25                     	;# 
  1213     0E28                     	;# 
  1214     0E29                     	;# 
  1215     0E2A                     	;# 
  1216     0E2B                     	;# 
  1217     0E90                     	;# 
  1218     0E91                     	;# 
  1219     0E92                     	;# 
  1220     0E93                     	;# 
  1221     0E94                     	;# 
  1222     0E95                     	;# 
  1223     0E96                     	;# 
  1224     0E97                     	;# 
  1225     0E98                     	;# 
  1226     0E99                     	;# 
  1227     0E9A                     	;# 
  1228     0E9B                     	;# 
  1229     0E9C                     	;# 
  1230     0E9D                     	;# 
  1231     0E9E                     	;# 
  1232     0E9F                     	;# 
  1233     0EA0                     	;# 
  1234     0EA1                     	;# 
  1235     0EA2                     	;# 
  1236     0EA3                     	;# 
  1237     0EA4                     	;# 
  1238     0EA5                     	;# 
  1239     0EA6                     	;# 
  1240     0EA7                     	;# 
  1241     0EA8                     	;# 
  1242     0EA9                     	;# 
  1243     0EAA                     	;# 
  1244     0EAB                     	;# 
  1245     0EAC                     	;# 
  1246     0EAD                     	;# 
  1247     0EAE                     	;# 
  1248     0EAF                     	;# 
  1249     0EB0                     	;# 
  1250     0EB1                     	;# 
  1251     0EB2                     	;# 
  1252     0F0F                     	;# 
  1253     0F10                     	;# 
  1254     0F11                     	;# 
  1255     0F12                     	;# 
  1256     0F13                     	;# 
  1257     0F14                     	;# 
  1258     0F15                     	;# 
  1259     0F16                     	;# 
  1260     0F17                     	;# 
  1261     0F18                     	;# 
  1262     0F19                     	;# 
  1263     0F1A                     	;# 
  1264     0F1B                     	;# 
  1265     0F1C                     	;# 
  1266     0F1D                     	;# 
  1267     0F1E                     	;# 
  1268     0F1F                     	;# 
  1269     0F20                     	;# 
  1270     0F21                     	;# 
  1271     0F22                     	;# 
  1272     0F23                     	;# 
  1273     0F24                     	;# 
  1274     0F25                     	;# 
  1275     0F26                     	;# 
  1276     0F27                     	;# 
  1277     0F28                     	;# 
  1278     0F29                     	;# 
  1279     0F2A                     	;# 
  1280     0F2B                     	;# 
  1281     0F2C                     	;# 
  1282     0F2D                     	;# 
  1283     0F2E                     	;# 
  1284     0F2F                     	;# 
  1285     0F30                     	;# 
  1286     0F31                     	;# 
  1287     0F32                     	;# 
  1288     0F33                     	;# 
  1289     0F34                     	;# 
  1290     0F35                     	;# 
  1291     0F36                     	;# 
  1292     0F37                     	;# 
  1293     0FE4                     	;# 
  1294     0FE5                     	;# 
  1295     0FE6                     	;# 
  1296     0FE7                     	;# 
  1297     0FE8                     	;# 
  1298     0FE9                     	;# 
  1299     0FEA                     	;# 
  1300     0FEB                     	;# 
  1301     0FED                     	;# 
  1302     0FEE                     	;# 
  1303     0FEF                     	;# 
  1304                           
  1305                           	psect	stringtext1
  1306     0800                     __pstringtext1:
  1307     0800                     _OledFont:
  1308     0800  3400               	retlw	0
  1309     0801  3400               	retlw	0
  1310     0802  3400               	retlw	0
  1311     0803  3400               	retlw	0
  1312     0804  3400               	retlw	0
  1313     0805  3400               	retlw	0
  1314     0806  3400               	retlw	0
  1315     0807  3400               	retlw	0
  1316     0808  3400               	retlw	0
  1317     0809  3400               	retlw	0
  1318     080A  345F               	retlw	95
  1319     080B  3400               	retlw	0
  1320     080C  3400               	retlw	0
  1321     080D  3400               	retlw	0
  1322     080E  3400               	retlw	0
  1323     080F  3400               	retlw	0
  1324     0810  3400               	retlw	0
  1325     0811  3400               	retlw	0
  1326     0812  3407               	retlw	7
  1327     0813  3400               	retlw	0
  1328     0814  3407               	retlw	7
  1329     0815  3400               	retlw	0
  1330     0816  3400               	retlw	0
  1331     0817  3400               	retlw	0
  1332     0818  3400               	retlw	0
  1333     0819  3414               	retlw	20
  1334     081A  347F               	retlw	127
  1335     081B  3414               	retlw	20
  1336     081C  347F               	retlw	127
  1337     081D  3414               	retlw	20
  1338     081E  3400               	retlw	0
  1339     081F  3400               	retlw	0
  1340     0820  3400               	retlw	0
  1341     0821  3424               	retlw	36
  1342     0822  342A               	retlw	42
  1343     0823  347F               	retlw	127
  1344     0824  342A               	retlw	42
  1345     0825  3412               	retlw	18
  1346     0826  3400               	retlw	0
  1347     0827  3400               	retlw	0
  1348     0828  3400               	retlw	0
  1349     0829  3423               	retlw	35
  1350     082A  3413               	retlw	19
  1351     082B  3408               	retlw	8
  1352     082C  3464               	retlw	100
  1353     082D  3462               	retlw	98
  1354     082E  3400               	retlw	0
  1355     082F  3400               	retlw	0
  1356     0830  3400               	retlw	0
  1357     0831  3436               	retlw	54
  1358     0832  3449               	retlw	73
  1359     0833  3455               	retlw	85
  1360     0834  3422               	retlw	34
  1361     0835  3450               	retlw	80
  1362     0836  3400               	retlw	0
  1363     0837  3400               	retlw	0
  1364     0838  3400               	retlw	0
  1365     0839  3400               	retlw	0
  1366     083A  3405               	retlw	5
  1367     083B  3403               	retlw	3
  1368     083C  3400               	retlw	0
  1369     083D  3400               	retlw	0
  1370     083E  3400               	retlw	0
  1371     083F  3400               	retlw	0
  1372     0840  3400               	retlw	0
  1373     0841  341C               	retlw	28
  1374     0842  3422               	retlw	34
  1375     0843  3441               	retlw	65
  1376     0844  3400               	retlw	0
  1377     0845  3400               	retlw	0
  1378     0846  3400               	retlw	0
  1379     0847  3400               	retlw	0
  1380     0848  3400               	retlw	0
  1381     0849  3441               	retlw	65
  1382     084A  3422               	retlw	34
  1383     084B  341C               	retlw	28
  1384     084C  3400               	retlw	0
  1385     084D  3400               	retlw	0
  1386     084E  3400               	retlw	0
  1387     084F  3400               	retlw	0
  1388     0850  3400               	retlw	0
  1389     0851  3408               	retlw	8
  1390     0852  342A               	retlw	42
  1391     0853  341C               	retlw	28
  1392     0854  342A               	retlw	42
  1393     0855  3408               	retlw	8
  1394     0856  3400               	retlw	0
  1395     0857  3400               	retlw	0
  1396     0858  3400               	retlw	0
  1397     0859  3408               	retlw	8
  1398     085A  3408               	retlw	8
  1399     085B  343E               	retlw	62
  1400     085C  3408               	retlw	8
  1401     085D  3408               	retlw	8
  1402     085E  3400               	retlw	0
  1403     085F  3400               	retlw	0
  1404     0860  3400               	retlw	0
  1405     0861  34A0               	retlw	160
  1406     0862  3460               	retlw	96
  1407     0863  3400               	retlw	0
  1408     0864  3400               	retlw	0
  1409     0865  3400               	retlw	0
  1410     0866  3400               	retlw	0
  1411     0867  3400               	retlw	0
  1412     0868  3400               	retlw	0
  1413     0869  3408               	retlw	8
  1414     086A  3408               	retlw	8
  1415     086B  3408               	retlw	8
  1416     086C  3408               	retlw	8
  1417     086D  3408               	retlw	8
  1418     086E  3400               	retlw	0
  1419     086F  3400               	retlw	0
  1420     0870  3400               	retlw	0
  1421     0871  3460               	retlw	96
  1422     0872  3460               	retlw	96
  1423     0873  3400               	retlw	0
  1424     0874  3400               	retlw	0
  1425     0875  3400               	retlw	0
  1426     0876  3400               	retlw	0
  1427     0877  3400               	retlw	0
  1428     0878  3400               	retlw	0
  1429     0879  3420               	retlw	32
  1430     087A  3410               	retlw	16
  1431     087B  3408               	retlw	8
  1432     087C  3404               	retlw	4
  1433     087D  3402               	retlw	2
  1434     087E  3400               	retlw	0
  1435     087F  3400               	retlw	0
  1436     0880  3400               	retlw	0
  1437     0881  343E               	retlw	62
  1438     0882  3451               	retlw	81
  1439     0883  3449               	retlw	73
  1440     0884  3445               	retlw	69
  1441     0885  343E               	retlw	62
  1442     0886  3400               	retlw	0
  1443     0887  3400               	retlw	0
  1444     0888  3400               	retlw	0
  1445     0889  3400               	retlw	0
  1446     088A  3442               	retlw	66
  1447     088B  347F               	retlw	127
  1448     088C  3440               	retlw	64
  1449     088D  3400               	retlw	0
  1450     088E  3400               	retlw	0
  1451     088F  3400               	retlw	0
  1452     0890  3400               	retlw	0
  1453     0891  3462               	retlw	98
  1454     0892  3451               	retlw	81
  1455     0893  3449               	retlw	73
  1456     0894  3449               	retlw	73
  1457     0895  3446               	retlw	70
  1458     0896  3400               	retlw	0
  1459     0897  3400               	retlw	0
  1460     0898  3400               	retlw	0
  1461     0899  3422               	retlw	34
  1462     089A  3441               	retlw	65
  1463     089B  3449               	retlw	73
  1464     089C  3449               	retlw	73
  1465     089D  3436               	retlw	54
  1466     089E  3400               	retlw	0
  1467     089F  3400               	retlw	0
  1468     08A0  3400               	retlw	0
  1469     08A1  3418               	retlw	24
  1470     08A2  3414               	retlw	20
  1471     08A3  3412               	retlw	18
  1472     08A4  347F               	retlw	127
  1473     08A5  3410               	retlw	16
  1474     08A6  3400               	retlw	0
  1475     08A7  3400               	retlw	0
  1476     08A8  3400               	retlw	0
  1477     08A9  3427               	retlw	39
  1478     08AA  3445               	retlw	69
  1479     08AB  3445               	retlw	69
  1480     08AC  3445               	retlw	69
  1481     08AD  3439               	retlw	57
  1482     08AE  3400               	retlw	0
  1483     08AF  3400               	retlw	0
  1484     08B0  3400               	retlw	0
  1485     08B1  343C               	retlw	60
  1486     08B2  344A               	retlw	74
  1487     08B3  3449               	retlw	73
  1488     08B4  3449               	retlw	73
  1489     08B5  3430               	retlw	48
  1490     08B6  3400               	retlw	0
  1491     08B7  3400               	retlw	0
  1492     08B8  3400               	retlw	0
  1493     08B9  3401               	retlw	1
  1494     08BA  3471               	retlw	113
  1495     08BB  3409               	retlw	9
  1496     08BC  3405               	retlw	5
  1497     08BD  3403               	retlw	3
  1498     08BE  3400               	retlw	0
  1499     08BF  3400               	retlw	0
  1500     08C0  3400               	retlw	0
  1501     08C1  3436               	retlw	54
  1502     08C2  3449               	retlw	73
  1503     08C3  3449               	retlw	73
  1504     08C4  3449               	retlw	73
  1505     08C5  3436               	retlw	54
  1506     08C6  3400               	retlw	0
  1507     08C7  3400               	retlw	0
  1508     08C8  3400               	retlw	0
  1509     08C9  3406               	retlw	6
  1510     08CA  3449               	retlw	73
  1511     08CB  3449               	retlw	73
  1512     08CC  3429               	retlw	41
  1513     08CD  341E               	retlw	30
  1514     08CE  3400               	retlw	0
  1515     08CF  3400               	retlw	0
  1516     08D0  3400               	retlw	0
  1517     08D1  3400               	retlw	0
  1518     08D2  3436               	retlw	54
  1519     08D3  3436               	retlw	54
  1520     08D4  3400               	retlw	0
  1521     08D5  3400               	retlw	0
  1522     08D6  3400               	retlw	0
  1523     08D7  3400               	retlw	0
  1524     08D8  3400               	retlw	0
  1525     08D9  3400               	retlw	0
  1526     08DA  34AC               	retlw	172
  1527     08DB  346C               	retlw	108
  1528     08DC  3400               	retlw	0
  1529     08DD  3400               	retlw	0
  1530     08DE  3400               	retlw	0
  1531     08DF  3400               	retlw	0
  1532     08E0  3400               	retlw	0
  1533     08E1  3408               	retlw	8
  1534     08E2  3414               	retlw	20
  1535     08E3  3422               	retlw	34
  1536     08E4  3441               	retlw	65
  1537     08E5  3400               	retlw	0
  1538     08E6  3400               	retlw	0
  1539     08E7  3400               	retlw	0
  1540     08E8  3400               	retlw	0
  1541     08E9  3414               	retlw	20
  1542     08EA  3414               	retlw	20
  1543     08EB  3414               	retlw	20
  1544     08EC  3414               	retlw	20
  1545     08ED  3414               	retlw	20
  1546     08EE  3400               	retlw	0
  1547     08EF  3400               	retlw	0
  1548     08F0  3400               	retlw	0
  1549     08F1  3441               	retlw	65
  1550     08F2  3422               	retlw	34
  1551     08F3  3414               	retlw	20
  1552     08F4  3408               	retlw	8
  1553     08F5  3400               	retlw	0
  1554     08F6  3400               	retlw	0
  1555     08F7  3400               	retlw	0
  1556     08F8  3400               	retlw	0
  1557     08F9  3402               	retlw	2
  1558     08FA  3401               	retlw	1
  1559     08FB  3451               	retlw	81
  1560     08FC  3409               	retlw	9
  1561     08FD  3406               	retlw	6
  1562     08FE  3400               	retlw	0
  1563     08FF  3400               	retlw	0
  1564     0900  3400               	retlw	0
  1565     0901  3432               	retlw	50
  1566     0902  3449               	retlw	73
  1567     0903  3479               	retlw	121
  1568     0904  3441               	retlw	65
  1569     0905  343E               	retlw	62
  1570     0906  3400               	retlw	0
  1571     0907  3400               	retlw	0
  1572     0908  3400               	retlw	0
  1573     0909  347E               	retlw	126
  1574     090A  3409               	retlw	9
  1575     090B  3409               	retlw	9
  1576     090C  3409               	retlw	9
  1577     090D  347E               	retlw	126
  1578     090E  3400               	retlw	0
  1579     090F  3400               	retlw	0
  1580     0910  3400               	retlw	0
  1581     0911  347F               	retlw	127
  1582     0912  3449               	retlw	73
  1583     0913  3449               	retlw	73
  1584     0914  3449               	retlw	73
  1585     0915  3436               	retlw	54
  1586     0916  3400               	retlw	0
  1587     0917  3400               	retlw	0
  1588     0918  3400               	retlw	0
  1589     0919  343E               	retlw	62
  1590     091A  3441               	retlw	65
  1591     091B  3441               	retlw	65
  1592     091C  3441               	retlw	65
  1593     091D  3422               	retlw	34
  1594     091E  3400               	retlw	0
  1595     091F  3400               	retlw	0
  1596     0920  3400               	retlw	0
  1597     0921  347F               	retlw	127
  1598     0922  3441               	retlw	65
  1599     0923  3441               	retlw	65
  1600     0924  3422               	retlw	34
  1601     0925  341C               	retlw	28
  1602     0926  3400               	retlw	0
  1603     0927  3400               	retlw	0
  1604     0928  3400               	retlw	0
  1605     0929  347F               	retlw	127
  1606     092A  3449               	retlw	73
  1607     092B  3449               	retlw	73
  1608     092C  3449               	retlw	73
  1609     092D  3441               	retlw	65
  1610     092E  3400               	retlw	0
  1611     092F  3400               	retlw	0
  1612     0930  3400               	retlw	0
  1613     0931  347F               	retlw	127
  1614     0932  3409               	retlw	9
  1615     0933  3409               	retlw	9
  1616     0934  3409               	retlw	9
  1617     0935  3401               	retlw	1
  1618     0936  3400               	retlw	0
  1619     0937  3400               	retlw	0
  1620     0938  3400               	retlw	0
  1621     0939  343E               	retlw	62
  1622     093A  3441               	retlw	65
  1623     093B  3441               	retlw	65
  1624     093C  3451               	retlw	81
  1625     093D  3472               	retlw	114
  1626     093E  3400               	retlw	0
  1627     093F  3400               	retlw	0
  1628     0940  3400               	retlw	0
  1629     0941  347F               	retlw	127
  1630     0942  3408               	retlw	8
  1631     0943  3408               	retlw	8
  1632     0944  3408               	retlw	8
  1633     0945  347F               	retlw	127
  1634     0946  3400               	retlw	0
  1635     0947  3400               	retlw	0
  1636     0948  3400               	retlw	0
  1637     0949  3441               	retlw	65
  1638     094A  347F               	retlw	127
  1639     094B  3441               	retlw	65
  1640     094C  3400               	retlw	0
  1641     094D  3400               	retlw	0
  1642     094E  3400               	retlw	0
  1643     094F  3400               	retlw	0
  1644     0950  3400               	retlw	0
  1645     0951  3420               	retlw	32
  1646     0952  3440               	retlw	64
  1647     0953  3441               	retlw	65
  1648     0954  343F               	retlw	63
  1649     0955  3401               	retlw	1
  1650     0956  3400               	retlw	0
  1651     0957  3400               	retlw	0
  1652     0958  3400               	retlw	0
  1653     0959  347F               	retlw	127
  1654     095A  3408               	retlw	8
  1655     095B  3414               	retlw	20
  1656     095C  3422               	retlw	34
  1657     095D  3441               	retlw	65
  1658     095E  3400               	retlw	0
  1659     095F  3400               	retlw	0
  1660     0960  3400               	retlw	0
  1661     0961  347F               	retlw	127
  1662     0962  3440               	retlw	64
  1663     0963  3440               	retlw	64
  1664     0964  3440               	retlw	64
  1665     0965  3440               	retlw	64
  1666     0966  3400               	retlw	0
  1667     0967  3400               	retlw	0
  1668     0968  3400               	retlw	0
  1669     0969  347F               	retlw	127
  1670     096A  3402               	retlw	2
  1671     096B  340C               	retlw	12
  1672     096C  3402               	retlw	2
  1673     096D  347F               	retlw	127
  1674     096E  3400               	retlw	0
  1675     096F  3400               	retlw	0
  1676     0970  3400               	retlw	0
  1677     0971  347F               	retlw	127
  1678     0972  3404               	retlw	4
  1679     0973  3408               	retlw	8
  1680     0974  3410               	retlw	16
  1681     0975  347F               	retlw	127
  1682     0976  3400               	retlw	0
  1683     0977  3400               	retlw	0
  1684     0978  3400               	retlw	0
  1685     0979  343E               	retlw	62
  1686     097A  3441               	retlw	65
  1687     097B  3441               	retlw	65
  1688     097C  3441               	retlw	65
  1689     097D  343E               	retlw	62
  1690     097E  3400               	retlw	0
  1691     097F  3400               	retlw	0
  1692     0980  3400               	retlw	0
  1693     0981  347F               	retlw	127
  1694     0982  3409               	retlw	9
  1695     0983  3409               	retlw	9
  1696     0984  3409               	retlw	9
  1697     0985  3406               	retlw	6
  1698     0986  3400               	retlw	0
  1699     0987  3400               	retlw	0
  1700     0988  3400               	retlw	0
  1701     0989  343E               	retlw	62
  1702     098A  3441               	retlw	65
  1703     098B  3451               	retlw	81
  1704     098C  3421               	retlw	33
  1705     098D  345E               	retlw	94
  1706     098E  3400               	retlw	0
  1707     098F  3400               	retlw	0
  1708     0990  3400               	retlw	0
  1709     0991  347F               	retlw	127
  1710     0992  3409               	retlw	9
  1711     0993  3419               	retlw	25
  1712     0994  3429               	retlw	41
  1713     0995  3446               	retlw	70
  1714     0996  3400               	retlw	0
  1715     0997  3400               	retlw	0
  1716     0998  3400               	retlw	0
  1717     0999  3426               	retlw	38
  1718     099A  3449               	retlw	73
  1719     099B  3449               	retlw	73
  1720     099C  3449               	retlw	73
  1721     099D  3432               	retlw	50
  1722     099E  3400               	retlw	0
  1723     099F  3400               	retlw	0
  1724     09A0  3400               	retlw	0
  1725     09A1  3401               	retlw	1
  1726     09A2  3401               	retlw	1
  1727     09A3  347F               	retlw	127
  1728     09A4  3401               	retlw	1
  1729     09A5  3401               	retlw	1
  1730     09A6  3400               	retlw	0
  1731     09A7  3400               	retlw	0
  1732     09A8  3400               	retlw	0
  1733     09A9  343F               	retlw	63
  1734     09AA  3440               	retlw	64
  1735     09AB  3440               	retlw	64
  1736     09AC  3440               	retlw	64
  1737     09AD  343F               	retlw	63
  1738     09AE  3400               	retlw	0
  1739     09AF  3400               	retlw	0
  1740     09B0  3400               	retlw	0
  1741     09B1  341F               	retlw	31
  1742     09B2  3420               	retlw	32
  1743     09B3  3440               	retlw	64
  1744     09B4  3420               	retlw	32
  1745     09B5  341F               	retlw	31
  1746     09B6  3400               	retlw	0
  1747     09B7  3400               	retlw	0
  1748     09B8  3400               	retlw	0
  1749     09B9  343F               	retlw	63
  1750     09BA  3440               	retlw	64
  1751     09BB  3438               	retlw	56
  1752     09BC  3440               	retlw	64
  1753     09BD  343F               	retlw	63
  1754     09BE  3400               	retlw	0
  1755     09BF  3400               	retlw	0
  1756     09C0  3400               	retlw	0
  1757     09C1  3463               	retlw	99
  1758     09C2  3414               	retlw	20
  1759     09C3  3408               	retlw	8
  1760     09C4  3414               	retlw	20
  1761     09C5  3463               	retlw	99
  1762     09C6  3400               	retlw	0
  1763     09C7  3400               	retlw	0
  1764     09C8  3400               	retlw	0
  1765     09C9  3403               	retlw	3
  1766     09CA  3404               	retlw	4
  1767     09CB  3478               	retlw	120
  1768     09CC  3404               	retlw	4
  1769     09CD  3403               	retlw	3
  1770     09CE  3400               	retlw	0
  1771     09CF  3400               	retlw	0
  1772     09D0  3400               	retlw	0
  1773     09D1  3461               	retlw	97
  1774     09D2  3451               	retlw	81
  1775     09D3  3449               	retlw	73
  1776     09D4  3445               	retlw	69
  1777     09D5  3443               	retlw	67
  1778     09D6  3400               	retlw	0
  1779     09D7  3400               	retlw	0
  1780     09D8  3400               	retlw	0
  1781     09D9  347F               	retlw	127
  1782     09DA  3441               	retlw	65
  1783     09DB  3441               	retlw	65
  1784     09DC  3400               	retlw	0
  1785     09DD  3400               	retlw	0
  1786     09DE  3400               	retlw	0
  1787     09DF  3400               	retlw	0
  1788     09E0  3400               	retlw	0
  1789     09E1  3402               	retlw	2
  1790     09E2  3404               	retlw	4
  1791     09E3  3408               	retlw	8
  1792     09E4  3410               	retlw	16
  1793     09E5  3420               	retlw	32
  1794     09E6  3400               	retlw	0
  1795     09E7  3400               	retlw	0
  1796     09E8  3400               	retlw	0
  1797     09E9  3441               	retlw	65
  1798     09EA  3441               	retlw	65
  1799     09EB  347F               	retlw	127
  1800     09EC  3400               	retlw	0
  1801     09ED  3400               	retlw	0
  1802     09EE  3400               	retlw	0
  1803     09EF  3400               	retlw	0
  1804     09F0  3400               	retlw	0
  1805     09F1  3404               	retlw	4
  1806     09F2  3402               	retlw	2
  1807     09F3  3401               	retlw	1
  1808     09F4  3402               	retlw	2
  1809     09F5  3404               	retlw	4
  1810     09F6  3400               	retlw	0
  1811     09F7  3400               	retlw	0
  1812     09F8  3400               	retlw	0
  1813     09F9  3480               	retlw	128
  1814     09FA  3480               	retlw	128
  1815     09FB  3480               	retlw	128
  1816     09FC  3480               	retlw	128
  1817     09FD  3480               	retlw	128
  1818     09FE  3400               	retlw	0
  1819     09FF  3400               	retlw	0
  1820     0A00  3400               	retlw	0
  1821     0A01  3401               	retlw	1
  1822     0A02  3402               	retlw	2
  1823     0A03  3404               	retlw	4
  1824     0A04  3400               	retlw	0
  1825     0A05  3400               	retlw	0
  1826     0A06  3400               	retlw	0
  1827     0A07  3400               	retlw	0
  1828     0A08  3400               	retlw	0
  1829     0A09  3420               	retlw	32
  1830     0A0A  3454               	retlw	84
  1831     0A0B  3454               	retlw	84
  1832     0A0C  3454               	retlw	84
  1833     0A0D  3478               	retlw	120
  1834     0A0E  3400               	retlw	0
  1835     0A0F  3400               	retlw	0
  1836     0A10  3400               	retlw	0
  1837     0A11  347F               	retlw	127
  1838     0A12  3448               	retlw	72
  1839     0A13  3444               	retlw	68
  1840     0A14  3444               	retlw	68
  1841     0A15  3438               	retlw	56
  1842     0A16  3400               	retlw	0
  1843     0A17  3400               	retlw	0
  1844     0A18  3400               	retlw	0
  1845     0A19  3438               	retlw	56
  1846     0A1A  3444               	retlw	68
  1847     0A1B  3444               	retlw	68
  1848     0A1C  3428               	retlw	40
  1849     0A1D  3400               	retlw	0
  1850     0A1E  3400               	retlw	0
  1851     0A1F  3400               	retlw	0
  1852     0A20  3400               	retlw	0
  1853     0A21  3438               	retlw	56
  1854     0A22  3444               	retlw	68
  1855     0A23  3444               	retlw	68
  1856     0A24  3448               	retlw	72
  1857     0A25  347F               	retlw	127
  1858     0A26  3400               	retlw	0
  1859     0A27  3400               	retlw	0
  1860     0A28  3400               	retlw	0
  1861     0A29  3438               	retlw	56
  1862     0A2A  3454               	retlw	84
  1863     0A2B  3454               	retlw	84
  1864     0A2C  3454               	retlw	84
  1865     0A2D  3418               	retlw	24
  1866     0A2E  3400               	retlw	0
  1867     0A2F  3400               	retlw	0
  1868     0A30  3400               	retlw	0
  1869     0A31  3408               	retlw	8
  1870     0A32  347E               	retlw	126
  1871     0A33  3409               	retlw	9
  1872     0A34  3402               	retlw	2
  1873     0A35  3400               	retlw	0
  1874     0A36  3400               	retlw	0
  1875     0A37  3400               	retlw	0
  1876     0A38  3400               	retlw	0
  1877     0A39  3418               	retlw	24
  1878     0A3A  34A4               	retlw	164
  1879     0A3B  34A4               	retlw	164
  1880     0A3C  34A4               	retlw	164
  1881     0A3D  347C               	retlw	124
  1882     0A3E  3400               	retlw	0
  1883     0A3F  3400               	retlw	0
  1884     0A40  3400               	retlw	0
  1885     0A41  347F               	retlw	127
  1886     0A42  3408               	retlw	8
  1887     0A43  3404               	retlw	4
  1888     0A44  3404               	retlw	4
  1889     0A45  3478               	retlw	120
  1890     0A46  3400               	retlw	0
  1891     0A47  3400               	retlw	0
  1892     0A48  3400               	retlw	0
  1893     0A49  3400               	retlw	0
  1894     0A4A  347D               	retlw	125
  1895     0A4B  3400               	retlw	0
  1896     0A4C  3400               	retlw	0
  1897     0A4D  3400               	retlw	0
  1898     0A4E  3400               	retlw	0
  1899     0A4F  3400               	retlw	0
  1900     0A50  3400               	retlw	0
  1901     0A51  3480               	retlw	128
  1902     0A52  3484               	retlw	132
  1903     0A53  347D               	retlw	125
  1904     0A54  3400               	retlw	0
  1905     0A55  3400               	retlw	0
  1906     0A56  3400               	retlw	0
  1907     0A57  3400               	retlw	0
  1908     0A58  3400               	retlw	0
  1909     0A59  347F               	retlw	127
  1910     0A5A  3410               	retlw	16
  1911     0A5B  3428               	retlw	40
  1912     0A5C  3444               	retlw	68
  1913     0A5D  3400               	retlw	0
  1914     0A5E  3400               	retlw	0
  1915     0A5F  3400               	retlw	0
  1916     0A60  3400               	retlw	0
  1917     0A61  3441               	retlw	65
  1918     0A62  347F               	retlw	127
  1919     0A63  3440               	retlw	64
  1920     0A64  3400               	retlw	0
  1921     0A65  3400               	retlw	0
  1922     0A66  3400               	retlw	0
  1923     0A67  3400               	retlw	0
  1924     0A68  3400               	retlw	0
  1925     0A69  347C               	retlw	124
  1926     0A6A  3404               	retlw	4
  1927     0A6B  3418               	retlw	24
  1928     0A6C  3404               	retlw	4
  1929     0A6D  3478               	retlw	120
  1930     0A6E  3400               	retlw	0
  1931     0A6F  3400               	retlw	0
  1932     0A70  3400               	retlw	0
  1933     0A71  347C               	retlw	124
  1934     0A72  3408               	retlw	8
  1935     0A73  3404               	retlw	4
  1936     0A74  347C               	retlw	124
  1937     0A75  3400               	retlw	0
  1938     0A76  3400               	retlw	0
  1939     0A77  3400               	retlw	0
  1940     0A78  3400               	retlw	0
  1941     0A79  3438               	retlw	56
  1942     0A7A  3444               	retlw	68
  1943     0A7B  3444               	retlw	68
  1944     0A7C  3438               	retlw	56
  1945     0A7D  3400               	retlw	0
  1946     0A7E  3400               	retlw	0
  1947     0A7F  3400               	retlw	0
  1948     0A80  3400               	retlw	0
  1949     0A81  34FC               	retlw	252
  1950     0A82  3424               	retlw	36
  1951     0A83  3424               	retlw	36
  1952     0A84  3418               	retlw	24
  1953     0A85  3400               	retlw	0
  1954     0A86  3400               	retlw	0
  1955     0A87  3400               	retlw	0
  1956     0A88  3400               	retlw	0
  1957     0A89  3418               	retlw	24
  1958     0A8A  3424               	retlw	36
  1959     0A8B  3424               	retlw	36
  1960     0A8C  34FC               	retlw	252
  1961     0A8D  3400               	retlw	0
  1962     0A8E  3400               	retlw	0
  1963     0A8F  3400               	retlw	0
  1964     0A90  3400               	retlw	0
  1965     0A91  3400               	retlw	0
  1966     0A92  347C               	retlw	124
  1967     0A93  3408               	retlw	8
  1968     0A94  3404               	retlw	4
  1969     0A95  3400               	retlw	0
  1970     0A96  3400               	retlw	0
  1971     0A97  3400               	retlw	0
  1972     0A98  3400               	retlw	0
  1973     0A99  3448               	retlw	72
  1974     0A9A  3454               	retlw	84
  1975     0A9B  3454               	retlw	84
  1976     0A9C  3424               	retlw	36
  1977     0A9D  3400               	retlw	0
  1978     0A9E  3400               	retlw	0
  1979     0A9F  3400               	retlw	0
  1980     0AA0  3400               	retlw	0
  1981     0AA1  3404               	retlw	4
  1982     0AA2  347F               	retlw	127
  1983     0AA3  3444               	retlw	68
  1984     0AA4  3400               	retlw	0
  1985     0AA5  3400               	retlw	0
  1986     0AA6  3400               	retlw	0
  1987     0AA7  3400               	retlw	0
  1988     0AA8  3400               	retlw	0
  1989     0AA9  343C               	retlw	60
  1990     0AAA  3440               	retlw	64
  1991     0AAB  3440               	retlw	64
  1992     0AAC  347C               	retlw	124
  1993     0AAD  3400               	retlw	0
  1994     0AAE  3400               	retlw	0
  1995     0AAF  3400               	retlw	0
  1996     0AB0  3400               	retlw	0
  1997     0AB1  341C               	retlw	28
  1998     0AB2  3420               	retlw	32
  1999     0AB3  3440               	retlw	64
  2000     0AB4  3420               	retlw	32
  2001     0AB5  341C               	retlw	28
  2002     0AB6  3400               	retlw	0
  2003     0AB7  3400               	retlw	0
  2004     0AB8  3400               	retlw	0
  2005     0AB9  343C               	retlw	60
  2006     0ABA  3440               	retlw	64
  2007     0ABB  3430               	retlw	48
  2008     0ABC  3440               	retlw	64
  2009     0ABD  343C               	retlw	60
  2010     0ABE  3400               	retlw	0
  2011     0ABF  3400               	retlw	0
  2012     0AC0  3400               	retlw	0
  2013     0AC1  3444               	retlw	68
  2014     0AC2  3428               	retlw	40
  2015     0AC3  3410               	retlw	16
  2016     0AC4  3428               	retlw	40
  2017     0AC5  3444               	retlw	68
  2018     0AC6  3400               	retlw	0
  2019     0AC7  3400               	retlw	0
  2020     0AC8  3400               	retlw	0
  2021     0AC9  341C               	retlw	28
  2022     0ACA  34A0               	retlw	160
  2023     0ACB  34A0               	retlw	160
  2024     0ACC  347C               	retlw	124
  2025     0ACD  3400               	retlw	0
  2026     0ACE  3400               	retlw	0
  2027     0ACF  3400               	retlw	0
  2028     0AD0  3400               	retlw	0
  2029     0AD1  3444               	retlw	68
  2030     0AD2  3464               	retlw	100
  2031     0AD3  3454               	retlw	84
  2032     0AD4  344C               	retlw	76
  2033     0AD5  3444               	retlw	68
  2034     0AD6  3400               	retlw	0
  2035     0AD7  3400               	retlw	0
  2036     0AD8  3400               	retlw	0
  2037     0AD9  3408               	retlw	8
  2038     0ADA  3436               	retlw	54
  2039     0ADB  3441               	retlw	65
  2040     0ADC  3400               	retlw	0
  2041     0ADD  3400               	retlw	0
  2042     0ADE  3400               	retlw	0
  2043     0ADF  3400               	retlw	0
  2044     0AE0  3400               	retlw	0
  2045     0AE1  3400               	retlw	0
  2046     0AE2  347F               	retlw	127
  2047     0AE3  3400               	retlw	0
  2048     0AE4  3400               	retlw	0
  2049     0AE5  3400               	retlw	0
  2050     0AE6  3400               	retlw	0
  2051     0AE7  3400               	retlw	0
  2052     0AE8  3400               	retlw	0
  2053     0AE9  3441               	retlw	65
  2054     0AEA  3436               	retlw	54
  2055     0AEB  3408               	retlw	8
  2056     0AEC  3400               	retlw	0
  2057     0AED  3400               	retlw	0
  2058     0AEE  3400               	retlw	0
  2059     0AEF  3400               	retlw	0
  2060     0AF0  3400               	retlw	0
  2061     0AF1  3402               	retlw	2
  2062     0AF2  3401               	retlw	1
  2063     0AF3  3401               	retlw	1
  2064     0AF4  3402               	retlw	2
  2065     0AF5  3401               	retlw	1
  2066     0AF6  3400               	retlw	0
  2067     0AF7  3400               	retlw	0
  2068     0AF8  3400               	retlw	0
  2069     0AF9  3402               	retlw	2
  2070     0AFA  3405               	retlw	5
  2071     0AFB  3405               	retlw	5
  2072     0AFC  3402               	retlw	2
  2073     0AFD  3400               	retlw	0
  2074     0AFE  3400               	retlw	0
  2075     0AFF  3400               	retlw	0
  2076     0B00                     __end_of_OledFont:
  2077     0011                     _PIR1bits	set	17
  2078     008E                     _TRISCbits	set	142
  2079     04CF                     _SPLLEN	set	1231
  2080     04CE                     _IRCF3	set	1230
  2081     04CD                     _IRCF2	set	1229
  2082     04CC                     _IRCF1	set	1228
  2083     04CB                     _IRCF0	set	1227
  2084     04C9                     _SCS1	set	1225
  2085     04C8                     _SCS0	set	1224
  2086     018E                     _ANSELCbits	set	398
  2087     0216                     _SSPCON2bits	set	534
  2088     0211                     _SSPBUF	set	529
  2089     0212                     _SSPADD	set	530
  2090     0215                     _SSPCONbits	set	533
  2091     0E20                     _SSPCLKPPSbits	set	3616
  2092     0E21                     _SSPDATPPSbits	set	3617
  2093     0E0F                     _PPSLOCKbits	set	3599
  2094     0E0F                     _PPSLOCK	set	3599
  2095     0EA5                     _RC5PPSbits	set	3749
  2096     0EA4                     _RC4PPSbits	set	3748
  2097     0B00                     STR_1:
  2098     0B00  344F               	retlw	79	;'O'
  2099     0B01  344C               	retlw	76	;'L'
  2100     0B02  3445               	retlw	69	;'E'
  2101     0B03  3444               	retlw	68	;'D'
  2102     0B04  3420               	retlw	32	;' '
  2103     0B05  3453               	retlw	83	;'S'
  2104     0B06  3453               	retlw	83	;'S'
  2105     0B07  3444               	retlw	68	;'D'
  2106     0B08  3431               	retlw	49	;'1'
  2107     0B09  3433               	retlw	51	;'3'
  2108     0B0A  3430               	retlw	48	;'0'
  2109     0B0B  3436               	retlw	54	;'6'
  2110     0B0C  3400               	retlw	0
  2111                           
  2112                           	psect	stringtext2
  2113     0B0D                     __pstringtext2:
  2114     0B0D                     STR_4:
  2115     0B0D  3462               	retlw	98	;'b'
  2116     0B0E  3479               	retlw	121	;'y'
  2117     0B0F  3420               	retlw	32	;' '
  2118     0B10  3441               	retlw	65	;'A'
  2119     0B11  3472               	retlw	114	;'r'
  2120     0B12  346D               	retlw	109	;'m'
  2121     0B13  3473               	retlw	115	;'s'
  2122     0B14  3474               	retlw	116	;'t'
  2123     0B15  3472               	retlw	114	;'r'
  2124     0B16  346F               	retlw	111	;'o'
  2125     0B17  346E               	retlw	110	;'n'
  2126     0B18  3467               	retlw	103	;'g'
  2127     0B19  3400               	retlw	0
  2128                           
  2129                           	psect	stringtext3
  2130     0B1A                     __pstringtext3:
  2131     0B1A                     STR_2:
  2132     0B1A  344E               	retlw	78	;'N'
  2133     0B1B  346F               	retlw	111	;'o'
  2134     0B1C  3420               	retlw	32	;' '
  2135     0B1D  3442               	retlw	66	;'B'
  2136     0B1E  3475               	retlw	117	;'u'
  2137     0B1F  3466               	retlw	102	;'f'
  2138     0B20  3466               	retlw	102	;'f'
  2139     0B21  3465               	retlw	101	;'e'
  2140     0B22  3472               	retlw	114	;'r'
  2141     0B23  3400               	retlw	0
  2142                           
  2143                           	psect	stringtext4
  2144     0B24                     __pstringtext4:
  2145     0B24                     STR_3:
  2146     0B24  3446               	retlw	70	;'F'
  2147     0B25  346F               	retlw	111	;'o'
  2148     0B26  3472               	retlw	114	;'r'
  2149     0B27  3420               	retlw	32	;' '
  2150     0B28  3458               	retlw	88	;'X'
  2151     0B29  3443               	retlw	67	;'C'
  2152     0B2A  3438               	retlw	56	;'8'
  2153     0B2B  3400               	retlw	0
  2154                           
  2155                           	psect	stringtext5
  2156     0000                     __pstringtext5:
  2157                           
  2158                           	psect	cinit
  2159     07FD                     start_initialization:	
  2160                           ; #config settings
  2161                           
  2162     07FD                     __initialization:
  2163     07FD                     end_of_initialization:	
  2164                           ;End of C runtime variable initialization code
  2165                           
  2166     07FD                     __end_of__initialization:
  2167     07FD  0020               	movlb	0
  2168     07FE  3187  2F87         	ljmp	_main	;jump to C main() function
  2169                           
  2170                           	psect	cstackCOMMON
  2171     0070                     __pcstackCOMMON:
  2172     0070                     ?_OLED_Init:
  2173     0070                     ?_OLED_Clear:	
  2174                           ; 1 bytes @ 0x0
  2175                           
  2176     0070                     ?_memmove:	
  2177                           ; 1 bytes @ 0x0
  2178                           
  2179     0070                     ?_internal_16:	
  2180                           ; 1 bytes @ 0x0
  2181                           
  2182     0070                     ??_internal_16:	
  2183                           ; 1 bytes @ 0x0
  2184                           
  2185     0070                     ?_I2C_Init:	
  2186                           ; 1 bytes @ 0x0
  2187                           
  2188     0070                     ??_I2C_Init:	
  2189                           ; 1 bytes @ 0x0
  2190                           
  2191     0070                     ?_Send_I2C_Data:	
  2192                           ; 1 bytes @ 0x0
  2193                           
  2194     0070                     ?_Send_I2C_StartBit:	
  2195                           ; 1 bytes @ 0x0
  2196                           
  2197     0070                     ??_Send_I2C_StartBit:	
  2198                           ; 1 bytes @ 0x0
  2199                           
  2200     0070                     ?_Send_I2C_StopBit:	
  2201                           ; 1 bytes @ 0x0
  2202                           
  2203     0070                     ??_Send_I2C_StopBit:	
  2204                           ; 1 bytes @ 0x0
  2205                           
  2206     0070                     ?_initMain:	
  2207                           ; 1 bytes @ 0x0
  2208                           
  2209     0070                     ??_initMain:	
  2210                           ; 1 bytes @ 0x0
  2211                           
  2212     0070                     ?_main:	
  2213                           ; 1 bytes @ 0x0
  2214                           
  2215     0070                     ?_OLED_Command:	
  2216                           ; 1 bytes @ 0x0
  2217                           
  2218     0070                     ?_OLED_PutChar:	
  2219                           ; 1 bytes @ 0x0
  2220                           
  2221     0070                     Send_I2C_Data@databyte:	
  2222                           ; 1 bytes @ 0x0
  2223                           
  2224     0070                     memmove@s1:	
  2225                           ; 2 bytes @ 0x0
  2226                           
  2227                           
  2228                           ; 2 bytes @ 0x0
  2229     0070                     	ds	2
  2230     0072                     ??_Send_I2C_Data:
  2231     0072                     ??_OLED_Command:	
  2232                           ; 1 bytes @ 0x2
  2233                           
  2234     0072                     memmove@n:	
  2235                           ; 1 bytes @ 0x2
  2236                           
  2237                           
  2238                           ; 2 bytes @ 0x2
  2239     0072                     	ds	2
  2240     0074                     ??_memmove:
  2241     0074                     OLED_Command@temp:	
  2242                           ; 1 bytes @ 0x4
  2243                           
  2244                           
  2245                           ; 1 bytes @ 0x4
  2246     0074                     	ds	1
  2247     0075                     ??_OLED_Init:
  2248     0075                     ?_OLED_YX:	
  2249                           ; 1 bytes @ 0x5
  2250                           
  2251     0075                     OLED_YX@Column:	
  2252                           ; 1 bytes @ 0x5
  2253                           
  2254                           
  2255                           ; 1 bytes @ 0x5
  2256     0075                     	ds	1
  2257     0076                     ??_OLED_YX:
  2258     0076                     memmove@d1:	
  2259                           ; 1 bytes @ 0x6
  2260                           
  2261                           
  2262                           ; 1 bytes @ 0x6
  2263     0076                     	ds	1
  2264     0077                     memmove@c:
  2265                           
  2266                           ; 1 bytes @ 0x7
  2267     0077                     	ds	1
  2268     0078                     memmove@s:
  2269                           
  2270                           ; 2 bytes @ 0x8
  2271     0078                     	ds	1
  2272     0079                     OLED_YX@Row:
  2273                           
  2274                           ; 1 bytes @ 0x9
  2275     0079                     	ds	1
  2276     007A                     memmove@d:
  2277                           
  2278                           ; 2 bytes @ 0xA
  2279     007A                     	ds	2
  2280     007C                     ??_OLED_Clear:
  2281     007C                     ?_OLED_Write_String:	
  2282                           ; 1 bytes @ 0xC
  2283                           
  2284     007C                     OLED_Write_String@s:	
  2285                           ; 1 bytes @ 0xC
  2286                           
  2287                           
  2288                           ; 2 bytes @ 0xC
  2289     007C                     	ds	2
  2290                           
  2291                           	psect	cstackBANK0
  2292     0020                     __pcstackBANK0:
  2293     0020                     ??_OLED_PutChar:
  2294                           
  2295                           ; 1 bytes @ 0x0
  2296     0020                     	ds	4
  2297     0024                     OLED_PutChar@bytes:
  2298                           
  2299                           ; 9 bytes @ 0x4
  2300     0024                     	ds	9
  2301     002D                     OLED_PutChar@base:
  2302                           
  2303                           ; 2 bytes @ 0xD
  2304     002D                     	ds	2
  2305     002F                     OLED_PutChar@i:
  2306                           
  2307                           ; 2 bytes @ 0xF
  2308     002F                     	ds	2
  2309     0031                     OLED_PutChar@ch:
  2310                           
  2311                           ; 1 bytes @ 0x11
  2312     0031                     	ds	1
  2313     0032                     ??_OLED_Write_String:
  2314     0032                     OLED_Clear@row:	
  2315                           ; 1 bytes @ 0x12
  2316                           
  2317                           
  2318                           ; 2 bytes @ 0x12
  2319     0032                     	ds	2
  2320     0034                     OLED_Clear@col:
  2321                           
  2322                           ; 2 bytes @ 0x14
  2323     0034                     	ds	2
  2324     0036                     ??_main:
  2325                           
  2326                           ; 1 bytes @ 0x16
  2327     0036                     	ds	2
  2328                           
  2329                           	psect	maintext
  2330     0787                     __pmaintext:	
  2331 ;;
  2332 ;;Main: autosize = 0, tempsize = 2, incstack = 0, save=0
  2333 ;;
  2334 ;; *************** function _main *****************
  2335 ;; Defined at:
  2336 ;;		line 87 in file "Main.c"
  2337 ;; Parameters:    Size  Location     Type
  2338 ;;		None
  2339 ;; Auto vars:     Size  Location     Type
  2340 ;;  dec             4    0        float 
  2341 ;;  count           2    0        int 
  2342 ;; Return value:  Size  Location     Type
  2343 ;;                  1    wreg      void 
  2344 ;; Registers used:
  2345 ;;		wreg, fsr0l, fsr0h, fsr1l, fsr1h, status,2, status,0, pclath, cstack
  2346 ;; Tracked objects:
  2347 ;;		On entry : B1F/0
  2348 ;;		On exit  : 0/0
  2349 ;;		Unchanged: 0/0
  2350 ;; Data sizes:     COMMON   BANK0   BANK1   BANK2   BANK3   BANK4   BANK5   BANK6   BANK7   BANK8   BANK9  BANK10  BANK1
      +1  BANK12
  2351 ;;      Params:         0       0       0       0       0       0       0       0       0       0       0       0       
      +0       0
  2352 ;;      Locals:         0       0       0       0       0       0       0       0       0       0       0       0       
      +0       0
  2353 ;;      Temps:          0       2       0       0       0       0       0       0       0       0       0       0       
      +0       0
  2354 ;;      Totals:         0       2       0       0       0       0       0       0       0       0       0       0       
      +0       0
  2355 ;;Total ram usage:        2 bytes
  2356 ;; Hardware stack levels required when called: 4
  2357 ;; This function calls:
  2358 ;;		_I2C_Init
  2359 ;;		_OLED_Clear
  2360 ;;		_OLED_Init
  2361 ;;		_OLED_Write_String
  2362 ;;		_OLED_YX
  2363 ;;		_initMain
  2364 ;; This function is called by:
  2365 ;;		Startup code after reset
  2366 ;; This function uses a non-reentrant model
  2367 ;;
  2368                           
  2369     0787                     _main:	
  2370                           ;psect for function _main
  2371                           
  2372     0787                     l1062:	
  2373                           ;incstack = 0
  2374                           ; Regs used in _main: [wreg-fsr1h+status,2+status,0+pclath+cstack]
  2375                           
  2376                           
  2377                           ;Main.c: 88:     initMain();
  2378     0787  3185  25F7  3187   	fcall	_initMain
  2379                           
  2380                           ;Main.c: 91:     I2C_Init();
  2381     078A  3185  2588  3187   	fcall	_I2C_Init
  2382     078D                     l1064:
  2383                           
  2384                           ;Main.c: 93:     _delay((unsigned long)((100)*(16000000/4000.0)));
  2385     078D  3003               	movlw	3
  2386     078E  0020               	movlb	0	; select bank0
  2387     078F  00B7               	movwf	??_main+1
  2388     0790  3008               	movlw	8
  2389     0791  00B6               	movwf	??_main
  2390     0792  3077               	movlw	119
  2391     0793                     u377:
  2392     0793  0B89               	decfsz	9,f
  2393     0794  2F93               	goto	u377
  2394     0795  0BB6               	decfsz	??_main,f
  2395     0796  2F93               	goto	u377
  2396     0797  0BB7               	decfsz	??_main+1,f
  2397     0798  2F93               	goto	u377
  2398     0799                     l1066:
  2399                           
  2400                           ;Main.c: 96:     OLED_Init();
  2401     0799  3186  264B  3187   	fcall	_OLED_Init
  2402     079C                     l1068:
  2403                           
  2404                           ;Main.c: 99:     OLED_Clear();
  2405     079C  3186  2620  3187   	fcall	_OLED_Clear
  2406     079F                     l1070:
  2407     079F                     l1072:
  2408     079F                     l1074:
  2409                           
  2410                           ;Main.c: 111:              OLED_YX( 0, 0 );
  2411     079F  01F5               	clrf	OLED_YX@Column
  2412     07A0  3000               	movlw	0
  2413     07A1  3185  25CE  3187   	fcall	_OLED_YX
  2414     07A4                     l1076:
  2415                           
  2416                           ;Main.c: 112:              OLED_Write_String( "OLED SSD1306" );
  2417     07A4  3000               	movlw	low (STR_1| (0+32768))
  2418     07A5  00FC               	movwf	OLED_Write_String@s
  2419     07A6  308B               	movlw	high (STR_1| (0+32768))
  2420     07A7  00FD               	movwf	OLED_Write_String@s+1
  2421     07A8  3185  2598  3187   	fcall	_OLED_Write_String
  2422     07AB                     l1078:
  2423                           
  2424                           ;Main.c: 114:              OLED_YX(1, 0);
  2425     07AB  01F5               	clrf	OLED_YX@Column
  2426     07AC  3001               	movlw	1
  2427     07AD  3185  25CE  3187   	fcall	_OLED_YX
  2428     07B0                     l1080:
  2429                           
  2430                           ;Main.c: 115:              OLED_Write_String ("No Buffer");
  2431     07B0  301A               	movlw	low (STR_2| (0+32768))
  2432     07B1  00FC               	movwf	OLED_Write_String@s
  2433     07B2  308B               	movlw	high (STR_2| (0+32768))
  2434     07B3  00FD               	movwf	OLED_Write_String@s+1
  2435     07B4  3185  2598  3187   	fcall	_OLED_Write_String
  2436     07B7                     l1082:
  2437                           
  2438                           ;Main.c: 117:              OLED_YX(2, 0);
  2439     07B7  01F5               	clrf	OLED_YX@Column
  2440     07B8  3002               	movlw	2
  2441     07B9  3185  25CE  3187   	fcall	_OLED_YX
  2442     07BC                     l1084:
  2443                           
  2444                           ;Main.c: 118:              OLED_Write_String("For XC8");
  2445     07BC  3024               	movlw	low (STR_3| (0+32768))
  2446     07BD  00FC               	movwf	OLED_Write_String@s
  2447     07BE  308B               	movlw	high (STR_3| (0+32768))
  2448     07BF  00FD               	movwf	OLED_Write_String@s+1
  2449     07C0  3185  2598  3187   	fcall	_OLED_Write_String
  2450     07C3                     l1086:
  2451                           
  2452                           ;Main.c: 120:              OLED_YX(3,0);
  2453     07C3  01F5               	clrf	OLED_YX@Column
  2454     07C4  3003               	movlw	3
  2455     07C5  3185  25CE  3187   	fcall	_OLED_YX
  2456     07C8                     l1088:
  2457                           
  2458                           ;Main.c: 121:              OLED_Write_String("by Armstrong");
  2459     07C8  300D               	movlw	low (STR_4| (0+32768))
  2460     07C9  00FC               	movwf	OLED_Write_String@s
  2461     07CA  308B               	movlw	high (STR_4| (0+32768))
  2462     07CB  00FD               	movwf	OLED_Write_String@s+1
  2463     07CC  3185  2598  3187   	fcall	_OLED_Write_String
  2464     07CF                     l1090:
  2465                           
  2466                           ;Main.c: 123:              _delay((unsigned long)((1000)*(16000000/4000.0)));
  2467     07CF  3015               	movlw	21
  2468     07D0  0020               	movlb	0	; select bank0
  2469     07D1  00B7               	movwf	??_main+1
  2470     07D2  304B               	movlw	75
  2471     07D3  00B6               	movwf	??_main
  2472     07D4  30BE               	movlw	190
  2473     07D5                     u387:
  2474     07D5  0B89               	decfsz	9,f
  2475     07D6  2FD5               	goto	u387
  2476     07D7  0BB6               	decfsz	??_main,f
  2477     07D8  2FD5               	goto	u387
  2478     07D9  0BB7               	decfsz	??_main+1,f
  2479     07DA  2FD5               	goto	u387
  2480     07DB  0000               	nop
  2481     07DC                     l1092:
  2482                           
  2483                           ;Main.c: 124:              OLED_Clear();
  2484     07DC  3186  2620  3187   	fcall	_OLED_Clear
  2485     07DF                     l1094:
  2486                           
  2487                           ;Main.c: 125:             _delay((unsigned long)((100)*(16000000/4000.0)));
  2488     07DF  3003               	movlw	3
  2489     07E0  0020               	movlb	0	; select bank0
  2490     07E1  00B7               	movwf	??_main+1
  2491     07E2  3008               	movlw	8
  2492     07E3  00B6               	movwf	??_main
  2493     07E4  3077               	movlw	119
  2494     07E5                     u397:
  2495     07E5  0B89               	decfsz	9,f
  2496     07E6  2FE5               	goto	u397
  2497     07E7  0BB6               	decfsz	??_main,f
  2498     07E8  2FE5               	goto	u397
  2499     07E9  0BB7               	decfsz	??_main+1,f
  2500     07EA  2FE5               	goto	u397
  2501     07EB                     l1096:
  2502                           
  2503                           ;Main.c: 160:             _delay((unsigned long)((100)*(16000000/4000.0)));
  2504     07EB  3003               	movlw	3
  2505     07EC  0020               	movlb	0	; select bank0
  2506     07ED  00B7               	movwf	??_main+1
  2507     07EE  3008               	movlw	8
  2508     07EF  00B6               	movwf	??_main
  2509     07F0  3077               	movlw	119
  2510     07F1                     u407:
  2511     07F1  0B89               	decfsz	9,f
  2512     07F2  2FF1               	goto	u407
  2513     07F3  0BB6               	decfsz	??_main,f
  2514     07F4  2FF1               	goto	u407
  2515     07F5  0BB7               	decfsz	??_main+1,f
  2516     07F6  2FF1               	goto	u407
  2517     07F7                     l1098:
  2518                           
  2519                           ;Main.c: 161:             OLED_Clear();
  2520     07F7  3186  2620  3187   	fcall	_OLED_Clear
  2521     07FA  2F9F               	goto	l1074
  2522     07FB  3180  2802         	ljmp	start
  2523     07FD                     __end_of_main:
  2524                           
  2525                           	psect	text1
  2526     05F7                     __ptext1:	
  2527 ;; *************** function _initMain *****************
  2528 ;; Defined at:
  2529 ;;		line 47 in file "Main.c"
  2530 ;; Parameters:    Size  Location     Type
  2531 ;;		None
  2532 ;; Auto vars:     Size  Location     Type
  2533 ;;		None
  2534 ;; Return value:  Size  Location     Type
  2535 ;;                  1    wreg      void 
  2536 ;; Registers used:
  2537 ;;		wreg, status,2, status,0, pclath, cstack
  2538 ;; Tracked objects:
  2539 ;;		On entry : 0/0
  2540 ;;		On exit  : 0/0
  2541 ;;		Unchanged: 0/0
  2542 ;; Data sizes:     COMMON   BANK0   BANK1   BANK2   BANK3   BANK4   BANK5   BANK6   BANK7   BANK8   BANK9  BANK10  BANK1
      +1  BANK12
  2543 ;;      Params:         0       0       0       0       0       0       0       0       0       0       0       0       
      +0       0
  2544 ;;      Locals:         0       0       0       0       0       0       0       0       0       0       0       0       
      +0       0
  2545 ;;      Temps:          0       0       0       0       0       0       0       0       0       0       0       0       
      +0       0
  2546 ;;      Totals:         0       0       0       0       0       0       0       0       0       0       0       0       
      +0       0
  2547 ;;Total ram usage:        0 bytes
  2548 ;; Hardware stack levels used: 1
  2549 ;; Hardware stack levels required when called: 1
  2550 ;; This function calls:
  2551 ;;		_internal_16
  2552 ;; This function is called by:
  2553 ;;		_main
  2554 ;; This function uses a non-reentrant model
  2555 ;;
  2556                           
  2557     05F7                     _initMain:	
  2558                           ;psect for function _initMain
  2559                           
  2560     05F7                     l808:	
  2561                           ;incstack = 0
  2562                           ; Regs used in _initMain: [wreg+status,2+status,0+pclath+cstack]
  2563                           
  2564                           
  2565                           ;Main.c: 50:     internal_16();
  2566     05F7  3185  2560  3185   	fcall	_internal_16
  2567     05FA                     l810:
  2568                           
  2569                           ;Main.c: 57:      ANSELCbits.ANSC4 = 0;
  2570     05FA  0023               	movlb	3	; select bank3
  2571     05FB  120E               	bcf	14,4	;volatile
  2572     05FC                     l812:
  2573                           
  2574                           ;Main.c: 58:      ANSELCbits.ANSC5 = 0;
  2575     05FC  128E               	bcf	14,5	;volatile
  2576     05FD                     l814:
  2577                           
  2578                           ;Main.c: 60:      TRISCbits.TRISC4 = 1;
  2579     05FD  0021               	movlb	1	; select bank1
  2580     05FE  160E               	bsf	14,4	;volatile
  2581     05FF                     l816:
  2582                           
  2583                           ;Main.c: 61:      TRISCbits.TRISC5 = 1;
  2584     05FF  168E               	bsf	14,5	;volatile
  2585     0600                     l818:
  2586                           
  2587                           ;Main.c: 63:      PPSLOCK = 0x55;
  2588     0600  3055               	movlw	85
  2589     0601  003C               	movlb	28	; select bank28
  2590     0602  008F               	movwf	15	;volsfr
  2591     0603                     l820:
  2592                           
  2593                           ;Main.c: 64:      PPSLOCK = 0xAA;
  2594     0603  30AA               	movlw	170
  2595     0604  008F               	movwf	15	;volsfr
  2596     0605                     l822:
  2597                           
  2598                           ;Main.c: 65:      PPSLOCKbits.PPSLOCKED = 0x00;
  2599     0605  100F               	bcf	15,0	;volsfr
  2600     0606                     l824:
  2601                           
  2602                           ;Main.c: 67:      RC4PPSbits.RC4PPS = 0x0011;
  2603     0606  003D               	movlb	29	; select bank29
  2604     0607  0824               	movf	36,w	;volatile
  2605     0608  39E0               	andlw	-32
  2606     0609  3811               	iorlw	17
  2607     060A  00A4               	movwf	36	;volatile
  2608     060B                     l826:
  2609                           
  2610                           ;Main.c: 68:      SSPDATPPSbits.SSPDATPPS = 0x0014;
  2611     060B  003C               	movlb	28	; select bank28
  2612     060C  0821               	movf	33,w	;volatile
  2613     060D  39E0               	andlw	-32
  2614     060E  3814               	iorlw	20
  2615     060F  00A1               	movwf	33	;volatile
  2616     0610                     l828:
  2617                           
  2618                           ;Main.c: 69:      SSPCLKPPSbits.SSPCLKPPS = 0x0015;
  2619     0610  0820               	movf	32,w	;volatile
  2620     0611  39E0               	andlw	-32
  2621     0612  3815               	iorlw	21
  2622     0613  00A0               	movwf	32	;volatile
  2623     0614                     l830:
  2624                           
  2625                           ;Main.c: 70:      RC5PPSbits.RC5PPS = 0x0010;
  2626     0614  003D               	movlb	29	; select bank29
  2627     0615  0825               	movf	37,w	;volatile
  2628     0616  39E0               	andlw	-32
  2629     0617  3810               	iorlw	16
  2630     0618  00A5               	movwf	37	;volatile
  2631     0619                     l832:
  2632                           
  2633                           ;Main.c: 72:      PPSLOCK = 0x55;
  2634     0619  3055               	movlw	85
  2635     061A  003C               	movlb	28	; select bank28
  2636     061B  008F               	movwf	15	;volsfr
  2637     061C                     l834:
  2638                           
  2639                           ;Main.c: 73:      PPSLOCK = 0xAA;
  2640     061C  30AA               	movlw	170
  2641     061D  008F               	movwf	15	;volsfr
  2642     061E                     l836:
  2643                           
  2644                           ;Main.c: 74:      PPSLOCKbits.PPSLOCKED = 0x01;
  2645     061E  140F               	bsf	15,0	;volsfr
  2646     061F                     l125:
  2647     061F  0008               	return
  2648     0620                     __end_of_initMain:
  2649                           
  2650                           	psect	text2
  2651     0560                     __ptext2:	
  2652 ;; *************** function _internal_16 *****************
  2653 ;; Defined at:
  2654 ;;		line 56 in file "16F1717_Internal.c"
  2655 ;; Parameters:    Size  Location     Type
  2656 ;;		None
  2657 ;; Auto vars:     Size  Location     Type
  2658 ;;		None
  2659 ;; Return value:  Size  Location     Type
  2660 ;;                  1    wreg      void 
  2661 ;; Registers used:
  2662 ;;		None
  2663 ;; Tracked objects:
  2664 ;;		On entry : 0/0
  2665 ;;		On exit  : 0/0
  2666 ;;		Unchanged: 0/0
  2667 ;; Data sizes:     COMMON   BANK0   BANK1   BANK2   BANK3   BANK4   BANK5   BANK6   BANK7   BANK8   BANK9  BANK10  BANK1
      +1  BANK12
  2668 ;;      Params:         0       0       0       0       0       0       0       0       0       0       0       0       
      +0       0
  2669 ;;      Locals:         0       0       0       0       0       0       0       0       0       0       0       0       
      +0       0
  2670 ;;      Temps:          0       0       0       0       0       0       0       0       0       0       0       0       
      +0       0
  2671 ;;      Totals:         0       0       0       0       0       0       0       0       0       0       0       0       
      +0       0
  2672 ;;Total ram usage:        0 bytes
  2673 ;; Hardware stack levels used: 1
  2674 ;; This function calls:
  2675 ;;		Nothing
  2676 ;; This function is called by:
  2677 ;;		_initMain
  2678 ;; This function uses a non-reentrant model
  2679 ;;
  2680                           
  2681     0560                     _internal_16:	
  2682                           ;psect for function _internal_16
  2683                           
  2684     0560                     l764:	
  2685                           ;incstack = 0
  2686                           ; Regs used in _internal_16: []
  2687                           
  2688     0560  0021               	movlb	1	; select bank1
  2689     0561  1019               	bcf	25,0	;volatile
  2690     0562  1099               	bcf	25,1	;volatile
  2691     0563  1599               	bsf	25,3	;volatile
  2692     0564  1619               	bsf	25,4	;volatile
  2693     0565  1699               	bsf	25,5	;volatile
  2694     0566  1719               	bsf	25,6	;volatile
  2695     0567  1399               	bcf	25,7	;volatile
  2696     0568                     l20:
  2697     0568  0008               	return
  2698     0569                     __end_of_internal_16:
  2699                           
  2700                           	psect	text3
  2701     0598                     __ptext3:	
  2702 ;; *************** function _OLED_Write_String *****************
  2703 ;; Defined at:
  2704 ;;		line 284 in file "oled.c"
  2705 ;; Parameters:    Size  Location     Type
  2706 ;;  s               2   12[COMMON] PTR unsigned char 
  2707 ;;		 -> STR_4(13), STR_3(8), STR_2(10), STR_1(13), 
  2708 ;; Auto vars:     Size  Location     Type
  2709 ;;		None
  2710 ;; Return value:  Size  Location     Type
  2711 ;;                  1    wreg      void 
  2712 ;; Registers used:
  2713 ;;		wreg, fsr0l, fsr0h, fsr1l, fsr1h, status,2, status,0, pclath, cstack
  2714 ;; Tracked objects:
  2715 ;;		On entry : 0/0
  2716 ;;		On exit  : 0/0
  2717 ;;		Unchanged: 0/0
  2718 ;; Data sizes:     COMMON   BANK0   BANK1   BANK2   BANK3   BANK4   BANK5   BANK6   BANK7   BANK8   BANK9  BANK10  BANK1
      +1  BANK12
  2719 ;;      Params:         2       0       0       0       0       0       0       0       0       0       0       0       
      +0       0
  2720 ;;      Locals:         0       0       0       0       0       0       0       0       0       0       0       0       
      +0       0
  2721 ;;      Temps:          0       1       0       0       0       0       0       0       0       0       0       0       
      +0       0
  2722 ;;      Totals:         2       1       0       0       0       0       0       0       0       0       0       0       
      +0       0
  2723 ;;Total ram usage:        3 bytes
  2724 ;; Hardware stack levels used: 1
  2725 ;; Hardware stack levels required when called: 2
  2726 ;; This function calls:
  2727 ;;		_OLED_PutChar
  2728 ;; This function is called by:
  2729 ;;		_main
  2730 ;; This function uses a non-reentrant model
  2731 ;;
  2732                           
  2733     0598                     _OLED_Write_String:	
  2734                           ;psect for function _OLED_Write_String
  2735                           
  2736     0598                     l1054:	
  2737                           ;incstack = 0
  2738                           ; Regs used in _OLED_Write_String: [wreg-fsr1h+status,2+status,0+pclath+cstack]
  2739                           
  2740                           
  2741                           ;oled.c: 284: void OLED_Write_String( char *s );oled.c: 285: {;oled.c: 286:     while (*
      +                          s) OLED_PutChar( *s++);
  2742     0598  2DA5               	goto	l1060
  2743     0599                     l1056:
  2744     0599  087C               	movf	OLED_Write_String@s,w
  2745     059A  0084               	movwf	4
  2746     059B  087D               	movf	OLED_Write_String@s+1,w
  2747     059C  0085               	movwf	5
  2748     059D  0800               	movf	0,w	;code access
  2749     059E  3187  271B  3185   	fcall	_OLED_PutChar
  2750     05A1                     l1058:
  2751     05A1  3001               	movlw	1
  2752     05A2  07FC               	addwf	OLED_Write_String@s,f
  2753     05A3  3000               	movlw	0
  2754     05A4  3DFD               	addwfc	OLED_Write_String@s+1,f
  2755     05A5                     l1060:
  2756     05A5  087C               	movf	OLED_Write_String@s,w
  2757     05A6  0084               	movwf	4
  2758     05A7  087D               	movf	OLED_Write_String@s+1,w
  2759     05A8  0085               	movwf	5
  2760     05A9  0012               	moviw fsr0++
  2761     05AA  1D03               	btfss	3,2
  2762     05AB  2DAD               	goto	u361
  2763     05AC  2DAE               	goto	u360
  2764     05AD                     u361:
  2765     05AD  2D99               	goto	l1056
  2766     05AE                     u360:
  2767     05AE                     l176:
  2768     05AE  0008               	return
  2769     05AF                     __end_of_OLED_Write_String:
  2770                           
  2771                           	psect	text4
  2772     064B                     __ptext4:	
  2773 ;; *************** function _OLED_Init *****************
  2774 ;; Defined at:
  2775 ;;		line 174 in file "oled.c"
  2776 ;; Parameters:    Size  Location     Type
  2777 ;;		None
  2778 ;; Auto vars:     Size  Location     Type
  2779 ;;		None
  2780 ;; Return value:  Size  Location     Type
  2781 ;;                  1    wreg      void 
  2782 ;; Registers used:
  2783 ;;		wreg, status,2, status,0, pclath, cstack
  2784 ;; Tracked objects:
  2785 ;;		On entry : 0/0
  2786 ;;		On exit  : 0/0
  2787 ;;		Unchanged: 0/0
  2788 ;; Data sizes:     COMMON   BANK0   BANK1   BANK2   BANK3   BANK4   BANK5   BANK6   BANK7   BANK8   BANK9  BANK10  BANK1
      +1  BANK12
  2789 ;;      Params:         0       0       0       0       0       0       0       0       0       0       0       0       
      +0       0
  2790 ;;      Locals:         0       0       0       0       0       0       0       0       0       0       0       0       
      +0       0
  2791 ;;      Temps:          0       0       0       0       0       0       0       0       0       0       0       0       
      +0       0
  2792 ;;      Totals:         0       0       0       0       0       0       0       0       0       0       0       0       
      +0       0
  2793 ;;Total ram usage:        0 bytes
  2794 ;; Hardware stack levels used: 1
  2795 ;; Hardware stack levels required when called: 2
  2796 ;; This function calls:
  2797 ;;		_OLED_Command
  2798 ;; This function is called by:
  2799 ;;		_main
  2800 ;; This function uses a non-reentrant model
  2801 ;;
  2802                           
  2803     064B                     _OLED_Init:	
  2804                           ;psect for function _OLED_Init
  2805                           
  2806     064B                     l1030:	
  2807                           ;incstack = 0
  2808                           ; Regs used in _OLED_Init: [wreg+status,2+status,0+pclath+cstack]
  2809                           
  2810                           
  2811                           ;oled.c: 176:     OLED_Command(0xAE);
  2812     064B  30AE               	movlw	174
  2813     064C  3185  25AF  3186   	fcall	_OLED_Command
  2814                           
  2815                           ;oled.c: 177:     OLED_Command(0xD5);
  2816     064F  30D5               	movlw	213
  2817     0650  3185  25AF  3186   	fcall	_OLED_Command
  2818                           
  2819                           ;oled.c: 178:     OLED_Command(0x80);
  2820     0653  3080               	movlw	128
  2821     0654  3185  25AF  3186   	fcall	_OLED_Command
  2822                           
  2823                           ;oled.c: 179:     OLED_Command(0xA8);
  2824     0657  30A8               	movlw	168
  2825     0658  3185  25AF  3186   	fcall	_OLED_Command
  2826                           
  2827                           ;oled.c: 180:     OLED_Command(0x1F);
  2828     065B  301F               	movlw	31
  2829     065C  3185  25AF  3186   	fcall	_OLED_Command
  2830                           
  2831                           ;oled.c: 181:     OLED_Command(0xD3);
  2832     065F  30D3               	movlw	211
  2833     0660  3185  25AF  3186   	fcall	_OLED_Command
  2834                           
  2835                           ;oled.c: 182:     OLED_Command(0x0);
  2836     0663  3000               	movlw	0
  2837     0664  3185  25AF  3186   	fcall	_OLED_Command
  2838                           
  2839                           ;oled.c: 183:     OLED_Command(0x40 | 0x0);
  2840     0667  3040               	movlw	64
  2841     0668  3185  25AF  3186   	fcall	_OLED_Command
  2842                           
  2843                           ;oled.c: 184:     OLED_Command(0x8D);
  2844     066B  308D               	movlw	141
  2845     066C  3185  25AF  3186   	fcall	_OLED_Command
  2846                           
  2847                           ;oled.c: 185:     OLED_Command(0xAF);
  2848     066F  30AF               	movlw	175
  2849     0670  3185  25AF  3186   	fcall	_OLED_Command
  2850                           
  2851                           ;oled.c: 186:     OLED_Command(0x20);
  2852     0673  3020               	movlw	32
  2853     0674  3185  25AF  3186   	fcall	_OLED_Command
  2854                           
  2855                           ;oled.c: 187:     OLED_Command(0x00);
  2856     0677  3000               	movlw	0
  2857     0678  3185  25AF  3186   	fcall	_OLED_Command
  2858                           
  2859                           ;oled.c: 188:     OLED_Command(0xA0 | 0x1);
  2860     067B  30A1               	movlw	161
  2861     067C  3185  25AF  3186   	fcall	_OLED_Command
  2862                           
  2863                           ;oled.c: 189:     OLED_Command(0xC8);
  2864     067F  30C8               	movlw	200
  2865     0680  3185  25AF  3186   	fcall	_OLED_Command
  2866                           
  2867                           ;oled.c: 190:     OLED_Command(0xDA);
  2868     0683  30DA               	movlw	218
  2869     0684  3185  25AF  3186   	fcall	_OLED_Command
  2870                           
  2871                           ;oled.c: 191:     OLED_Command(0x02);
  2872     0687  3002               	movlw	2
  2873     0688  3185  25AF  3186   	fcall	_OLED_Command
  2874                           
  2875                           ;oled.c: 192:     OLED_Command(0x81);
  2876     068B  3081               	movlw	129
  2877     068C  3185  25AF  3186   	fcall	_OLED_Command
  2878                           
  2879                           ;oled.c: 193:     OLED_Command(0x8F);
  2880     068F  308F               	movlw	143
  2881     0690  3185  25AF  3186   	fcall	_OLED_Command
  2882                           
  2883                           ;oled.c: 194:     OLED_Command(0xD9);
  2884     0693  30D9               	movlw	217
  2885     0694  3185  25AF  3186   	fcall	_OLED_Command
  2886                           
  2887                           ;oled.c: 195:     OLED_Command(0xF1);
  2888     0697  30F1               	movlw	241
  2889     0698  3185  25AF  3186   	fcall	_OLED_Command
  2890                           
  2891                           ;oled.c: 196:     OLED_Command(0xDB);
  2892     069B  30DB               	movlw	219
  2893     069C  3185  25AF  3186   	fcall	_OLED_Command
  2894                           
  2895                           ;oled.c: 197:     OLED_Command(0x40);
  2896     069F  3040               	movlw	64
  2897     06A0  3185  25AF  3186   	fcall	_OLED_Command
  2898                           
  2899                           ;oled.c: 198:     OLED_Command(0xA4);
  2900     06A3  30A4               	movlw	164
  2901     06A4  3185  25AF  3186   	fcall	_OLED_Command
  2902                           
  2903                           ;oled.c: 199:     OLED_Command(0xA6);
  2904     06A7  30A6               	movlw	166
  2905     06A8  3185  25AF  3186   	fcall	_OLED_Command
  2906                           
  2907                           ;oled.c: 200:     OLED_Command(0xAF);
  2908     06AB  30AF               	movlw	175
  2909     06AC  3185  25AF  3186   	fcall	_OLED_Command
  2910     06AF                     l152:
  2911     06AF  0008               	return
  2912     06B0                     __end_of_OLED_Init:
  2913                           
  2914                           	psect	text5
  2915     0620                     __ptext5:	
  2916 ;; *************** function _OLED_Clear *****************
  2917 ;; Defined at:
  2918 ;;		line 264 in file "oled.c"
  2919 ;; Parameters:    Size  Location     Type
  2920 ;;		None
  2921 ;; Auto vars:     Size  Location     Type
  2922 ;;  col             2   20[BANK0 ] unsigned short 
  2923 ;;  row             2   18[BANK0 ] unsigned short 
  2924 ;; Return value:  Size  Location     Type
  2925 ;;                  1    wreg      void 
  2926 ;; Registers used:
  2927 ;;		wreg, fsr0l, fsr0h, fsr1l, fsr1h, status,2, status,0, pclath, cstack
  2928 ;; Tracked objects:
  2929 ;;		On entry : 0/0
  2930 ;;		On exit  : 0/0
  2931 ;;		Unchanged: 0/0
  2932 ;; Data sizes:     COMMON   BANK0   BANK1   BANK2   BANK3   BANK4   BANK5   BANK6   BANK7   BANK8   BANK9  BANK10  BANK1
      +1  BANK12
  2933 ;;      Params:         0       0       0       0       0       0       0       0       0       0       0       0       
      +0       0
  2934 ;;      Locals:         0       4       0       0       0       0       0       0       0       0       0       0       
      +0       0
  2935 ;;      Temps:          0       0       0       0       0       0       0       0       0       0       0       0       
      +0       0
  2936 ;;      Totals:         0       4       0       0       0       0       0       0       0       0       0       0       
      +0       0
  2937 ;;Total ram usage:        4 bytes
  2938 ;; Hardware stack levels used: 1
  2939 ;; Hardware stack levels required when called: 3
  2940 ;; This function calls:
  2941 ;;		_OLED_PutChar
  2942 ;;		_OLED_YX
  2943 ;; This function is called by:
  2944 ;;		_main
  2945 ;; This function uses a non-reentrant model
  2946 ;;
  2947                           
  2948     0620                     _OLED_Clear:	
  2949                           ;psect for function _OLED_Clear
  2950                           
  2951     0620                     l1032:	
  2952                           ;incstack = 0
  2953                           ; Regs used in _OLED_Clear: [wreg-fsr1h+status,2+status,0+pclath+cstack]
  2954                           
  2955                           
  2956                           ;oled.c: 266:     for ( uint16_t row = 0; row < 8; row++ ) {
  2957     0620  0020               	movlb	0	; select bank0
  2958     0621  01B2               	clrf	OLED_Clear@row
  2959     0622  01B3               	clrf	OLED_Clear@row+1
  2960     0623                     l1038:
  2961                           
  2962                           ;oled.c: 267:         for ( uint16_t col = 0; col < 16; col++ ) {
  2963     0623  01B4               	clrf	OLED_Clear@col
  2964     0624  01B5               	clrf	OLED_Clear@col+1
  2965     0625                     l1044:
  2966                           
  2967                           ;oled.c: 268:             OLED_YX( row, col );
  2968     0625  0834               	movf	OLED_Clear@col,w
  2969     0626  00F5               	movwf	OLED_YX@Column
  2970     0627  0832               	movf	OLED_Clear@row,w
  2971     0628  3185  25CE  3186   	fcall	_OLED_YX
  2972     062B                     l1046:
  2973                           
  2974                           ;oled.c: 269:             OLED_PutChar(' ');
  2975     062B  3020               	movlw	32
  2976     062C  3187  271B  3186   	fcall	_OLED_PutChar
  2977     062F                     l1048:
  2978                           
  2979                           ;oled.c: 270:         }
  2980     062F  3001               	movlw	1
  2981     0630  0020               	movlb	0	; select bank0
  2982     0631  07B4               	addwf	OLED_Clear@col,f
  2983     0632  3000               	movlw	0
  2984     0633  3DB5               	addwfc	OLED_Clear@col+1,f
  2985     0634                     l1050:
  2986     0634  3000               	movlw	0
  2987     0635  0235               	subwf	OLED_Clear@col+1,w
  2988     0636  3010               	movlw	16
  2989     0637  1903               	skipnz
  2990     0638  0234               	subwf	OLED_Clear@col,w
  2991     0639  1C03               	skipc
  2992     063A  2E3C               	goto	u341
  2993     063B  2E3D               	goto	u340
  2994     063C                     u341:
  2995     063C  2E25               	goto	l1044
  2996     063D                     u340:
  2997     063D                     l1052:
  2998                           
  2999                           ;oled.c: 271:     }
  3000     063D  3001               	movlw	1
  3001     063E  07B2               	addwf	OLED_Clear@row,f
  3002     063F  3000               	movlw	0
  3003     0640  3DB3               	addwfc	OLED_Clear@row+1,f
  3004     0641  3000               	movlw	0
  3005     0642  0233               	subwf	OLED_Clear@row+1,w
  3006     0643  3008               	movlw	8
  3007     0644  1903               	skipnz
  3008     0645  0232               	subwf	OLED_Clear@row,w
  3009     0646  1C03               	skipc
  3010     0647  2E49               	goto	u351
  3011     0648  2E4A               	goto	u350
  3012     0649                     u351:
  3013     0649  2E23               	goto	l1038
  3014     064A                     u350:
  3015     064A                     l170:
  3016     064A  0008               	return
  3017     064B                     __end_of_OLED_Clear:
  3018                           
  3019                           	psect	text6
  3020     05CE                     __ptext6:	
  3021 ;; *************** function _OLED_YX *****************
  3022 ;; Defined at:
  3023 ;;		line 213 in file "oled.c"
  3024 ;; Parameters:    Size  Location     Type
  3025 ;;  Row             1    wreg     unsigned char 
  3026 ;;  Column          1    5[COMMON] unsigned char 
  3027 ;; Auto vars:     Size  Location     Type
  3028 ;;  Row             1    9[COMMON] unsigned char 
  3029 ;; Return value:  Size  Location     Type
  3030 ;;                  1    wreg      void 
  3031 ;; Registers used:
  3032 ;;		wreg, status,2, status,0, pclath, cstack
  3033 ;; Tracked objects:
  3034 ;;		On entry : 0/0
  3035 ;;		On exit  : 0/0
  3036 ;;		Unchanged: 0/0
  3037 ;; Data sizes:     COMMON   BANK0   BANK1   BANK2   BANK3   BANK4   BANK5   BANK6   BANK7   BANK8   BANK9  BANK10  BANK1
      +1  BANK12
  3038 ;;      Params:         1       0       0       0       0       0       0       0       0       0       0       0       
      +0       0
  3039 ;;      Locals:         1       0       0       0       0       0       0       0       0       0       0       0       
      +0       0
  3040 ;;      Temps:          3       0       0       0       0       0       0       0       0       0       0       0       
      +0       0
  3041 ;;      Totals:         5       0       0       0       0       0       0       0       0       0       0       0       
      +0       0
  3042 ;;Total ram usage:        5 bytes
  3043 ;; Hardware stack levels used: 1
  3044 ;; Hardware stack levels required when called: 2
  3045 ;; This function calls:
  3046 ;;		_OLED_Command
  3047 ;; This function is called by:
  3048 ;;		_main
  3049 ;;		_OLED_Clear
  3050 ;; This function uses a non-reentrant model
  3051 ;;
  3052                           
  3053     05CE                     _OLED_YX:	
  3054                           ;psect for function _OLED_YX
  3055                           
  3056                           
  3057                           ;incstack = 0
  3058                           ; Regs used in _OLED_YX: [wreg+status,2+status,0+pclath+cstack]
  3059                           ;OLED_YX@Row stored from wreg
  3060     05CE  00F9               	movwf	OLED_YX@Row
  3061     05CF                     l996:
  3062                           
  3063                           ;oled.c: 213: void OLED_YX(unsigned char Row, unsigned char Column);oled.c: 214: {;oled.
      +                          c: 215:     OLED_Command( 0xB0 + Row);
  3064     05CF  0879               	movf	OLED_YX@Row,w
  3065     05D0  3EB0               	addlw	176
  3066     05D1  3185  25AF  3185   	fcall	_OLED_Command
  3067                           
  3068                           ;oled.c: 216:     OLED_Command( 0x00 + (8*Column & 0x0F) );
  3069     05D4  0875               	movf	OLED_YX@Column,w
  3070     05D5  00F6               	movwf	??_OLED_YX
  3071     05D6  3002               	movlw	2
  3072     05D7                     u295:
  3073     05D7  35F6               	lslf	??_OLED_YX,f
  3074     05D8  3EFF               	addlw	-1
  3075     05D9  1D03               	skipz
  3076     05DA  2DD7               	goto	u295
  3077     05DB  3576               	lslf	??_OLED_YX,w
  3078     05DC  390F               	andlw	15
  3079     05DD  3185  25AF  3185   	fcall	_OLED_Command
  3080                           
  3081                           ;oled.c: 217:     OLED_Command( 0x10 + ((8*Column>>4)&0x0F) );
  3082     05E0  0875               	movf	OLED_YX@Column,w
  3083     05E1  00F6               	movwf	??_OLED_YX
  3084     05E2  01F7               	clrf	??_OLED_YX+1
  3085     05E3  35F6               	lslf	??_OLED_YX,f
  3086     05E4  0DF7               	rlf	??_OLED_YX+1,f
  3087     05E5  35F6               	lslf	??_OLED_YX,f
  3088     05E6  0DF7               	rlf	??_OLED_YX+1,f
  3089     05E7  35F6               	lslf	??_OLED_YX,f
  3090     05E8  0DF7               	rlf	??_OLED_YX+1,f
  3091     05E9  3004               	movlw	4
  3092     05EA  00F8               	movwf	??_OLED_YX+2
  3093     05EB                     u305:
  3094     05EB  0D77               	rlf	??_OLED_YX+1,w
  3095     05EC  0CF7               	rrf	??_OLED_YX+1,f
  3096     05ED  0CF6               	rrf	??_OLED_YX,f
  3097     05EE  0BF8               	decfsz	??_OLED_YX+2,f
  3098     05EF  2DEB               	goto	u305
  3099     05F0  0876               	movf	??_OLED_YX,w
  3100     05F1  390F               	andlw	15
  3101     05F2  3E10               	addlw	16
  3102     05F3  3185  25AF  3185   	fcall	_OLED_Command
  3103     05F6                     l155:
  3104     05F6  0008               	return
  3105     05F7                     __end_of_OLED_YX:
  3106                           
  3107                           	psect	text7
  3108     05AF                     __ptext7:	
  3109 ;; *************** function _OLED_Command *****************
  3110 ;; Defined at:
  3111 ;;		line 138 in file "oled.c"
  3112 ;; Parameters:    Size  Location     Type
  3113 ;;  temp            1    wreg     unsigned char 
  3114 ;; Auto vars:     Size  Location     Type
  3115 ;;  temp            1    4[COMMON] unsigned char 
  3116 ;; Return value:  Size  Location     Type
  3117 ;;                  1    wreg      void 
  3118 ;; Registers used:
  3119 ;;		wreg, status,2, status,0, pclath, cstack
  3120 ;; Tracked objects:
  3121 ;;		On entry : 0/0
  3122 ;;		On exit  : 0/0
  3123 ;;		Unchanged: 0/0
  3124 ;; Data sizes:     COMMON   BANK0   BANK1   BANK2   BANK3   BANK4   BANK5   BANK6   BANK7   BANK8   BANK9  BANK10  BANK1
      +1  BANK12
  3125 ;;      Params:         0       0       0       0       0       0       0       0       0       0       0       0       
      +0       0
  3126 ;;      Locals:         1       0       0       0       0       0       0       0       0       0       0       0       
      +0       0
  3127 ;;      Temps:          2       0       0       0       0       0       0       0       0       0       0       0       
      +0       0
  3128 ;;      Totals:         3       0       0       0       0       0       0       0       0       0       0       0       
      +0       0
  3129 ;;Total ram usage:        3 bytes
  3130 ;; Hardware stack levels used: 1
  3131 ;; Hardware stack levels required when called: 1
  3132 ;; This function calls:
  3133 ;;		_Send_I2C_Data
  3134 ;;		_Send_I2C_StartBit
  3135 ;;		_Send_I2C_StopBit
  3136 ;; This function is called by:
  3137 ;;		_OLED_Init
  3138 ;;		_OLED_YX
  3139 ;; This function uses a non-reentrant model
  3140 ;;
  3141                           
  3142     05AF                     _OLED_Command:	
  3143                           ;psect for function _OLED_Command
  3144                           
  3145                           
  3146                           ;incstack = 0
  3147                           ; Regs used in _OLED_Command: [wreg+status,2+status,0+pclath+cstack]
  3148                           ;OLED_Command@temp stored from wreg
  3149     05AF  00F4               	movwf	OLED_Command@temp
  3150     05B0                     l952:
  3151                           
  3152                           ;oled.c: 140:     Send_I2C_StartBit();
  3153     05B0  3185  2569  3185   	fcall	_Send_I2C_StartBit
  3154     05B3                     l954:
  3155                           
  3156                           ;oled.c: 141:     Send_I2C_Data(0x3C << 1);
  3157     05B3  3078               	movlw	120
  3158     05B4  00F0               	movwf	Send_I2C_Data@databyte
  3159     05B5  3000               	movlw	0
  3160     05B6  00F1               	movwf	Send_I2C_Data@databyte+1
  3161     05B7  3185  257D  3185   	fcall	_Send_I2C_Data
  3162     05BA                     l956:
  3163                           
  3164                           ;oled.c: 142:     Send_I2C_Data(0x00);
  3165     05BA  3000               	movlw	0
  3166     05BB  00F0               	movwf	Send_I2C_Data@databyte
  3167     05BC  00F1               	movwf	Send_I2C_Data@databyte+1
  3168     05BD  3185  257D  3185   	fcall	_Send_I2C_Data
  3169     05C0                     l958:
  3170                           
  3171                           ;oled.c: 143:     Send_I2C_Data(temp);
  3172     05C0  0874               	movf	OLED_Command@temp,w
  3173     05C1  00F2               	movwf	??_OLED_Command
  3174     05C2  01F3               	clrf	??_OLED_Command+1
  3175     05C3  0872               	movf	??_OLED_Command,w
  3176     05C4  00F0               	movwf	Send_I2C_Data@databyte
  3177     05C5  0873               	movf	??_OLED_Command+1,w
  3178     05C6  00F1               	movwf	Send_I2C_Data@databyte+1
  3179     05C7  3185  257D  3185   	fcall	_Send_I2C_Data
  3180     05CA                     l960:
  3181                           
  3182                           ;oled.c: 144:     Send_I2C_StopBit();
  3183     05CA  3185  2573  3185   	fcall	_Send_I2C_StopBit
  3184     05CD                     l146:
  3185     05CD  0008               	return
  3186     05CE                     __end_of_OLED_Command:
  3187                           
  3188                           	psect	text8
  3189     071B                     __ptext8:	
  3190 ;; *************** function _OLED_PutChar *****************
  3191 ;; Defined at:
  3192 ;;		line 229 in file "oled.c"
  3193 ;; Parameters:    Size  Location     Type
  3194 ;;  ch              1    wreg     unsigned char 
  3195 ;; Auto vars:     Size  Location     Type
  3196 ;;  ch              1   17[BANK0 ] unsigned char 
  3197 ;;  bytes           9    4[BANK0 ] unsigned char [9]
  3198 ;;  i               2   15[BANK0 ] int 
  3199 ;;  base            2   13[BANK0 ] PTR const unsigned char 
  3200 ;;		 -> OledFont(768), 
  3201 ;; Return value:  Size  Location     Type
  3202 ;;                  1    wreg      void 
  3203 ;; Registers used:
  3204 ;;		wreg, fsr0l, fsr0h, fsr1l, fsr1h, status,2, status,0, pclath, cstack
  3205 ;; Tracked objects:
  3206 ;;		On entry : 0/0
  3207 ;;		On exit  : 0/0
  3208 ;;		Unchanged: 0/0
  3209 ;; Data sizes:     COMMON   BANK0   BANK1   BANK2   BANK3   BANK4   BANK5   BANK6   BANK7   BANK8   BANK9  BANK10  BANK1
      +1  BANK12
  3210 ;;      Params:         0       0       0       0       0       0       0       0       0       0       0       0       
      +0       0
  3211 ;;      Locals:         0      14       0       0       0       0       0       0       0       0       0       0       
      +0       0
  3212 ;;      Temps:          0       4       0       0       0       0       0       0       0       0       0       0       
      +0       0
  3213 ;;      Totals:         0      18       0       0       0       0       0       0       0       0       0       0       
      +0       0
  3214 ;;Total ram usage:       18 bytes
  3215 ;; Hardware stack levels used: 1
  3216 ;; Hardware stack levels required when called: 1
  3217 ;; This function calls:
  3218 ;;		_Send_I2C_Data
  3219 ;;		_Send_I2C_StartBit
  3220 ;;		_Send_I2C_StopBit
  3221 ;;		_memmove
  3222 ;; This function is called by:
  3223 ;;		_OLED_Clear
  3224 ;;		_OLED_Write_String
  3225 ;; This function uses a non-reentrant model
  3226 ;;
  3227                           
  3228     071B                     _OLED_PutChar:	
  3229                           ;psect for function _OLED_PutChar
  3230                           
  3231                           
  3232                           ;incstack = 0
  3233                           ; Regs used in _OLED_PutChar: [wreg-fsr1h+status,2+status,0+pclath+cstack]
  3234                           ;OLED_PutChar@ch stored from wreg
  3235     071B  0020               	movlb	0	; select bank0
  3236     071C  00B1               	movwf	OLED_PutChar@ch
  3237     071D                     l998:
  3238                           
  3239                           ;oled.c: 229: void OLED_PutChar( char ch );oled.c: 230: {;oled.c: 231:     if ( ( ch < 3
      +                          2 ) || ( ch > 127 ) ){
  3240     071D  3020               	movlw	32
  3241     071E  0231               	subwf	OLED_PutChar@ch,w
  3242     071F  1C03               	skipc
  3243     0720  2F22               	goto	u311
  3244     0721  2F23               	goto	u310
  3245     0722                     u311:
  3246     0722  2F29               	goto	l1002
  3247     0723                     u310:
  3248     0723                     l1000:
  3249     0723  3080               	movlw	128
  3250     0724  0231               	subwf	OLED_PutChar@ch,w
  3251     0725  1C03               	skipc
  3252     0726  2F28               	goto	u321
  3253     0727  2F29               	goto	u320
  3254     0728                     u321:
  3255     0728  2F2B               	goto	l1004
  3256     0729                     u320:
  3257     0729                     l1002:
  3258                           
  3259                           ;oled.c: 232:         ch = ' ';
  3260     0729  3020               	movlw	32
  3261     072A  00B1               	movwf	OLED_PutChar@ch
  3262     072B                     l1004:
  3263                           
  3264                           ;oled.c: 235:     const uint8_t *base = &OledFont[ch - 32][0];
  3265     072B  0831               	movf	OLED_PutChar@ch,w
  3266     072C  00A0               	movwf	??_OLED_PutChar
  3267     072D  01A1               	clrf	??_OLED_PutChar+1
  3268     072E  35A0               	lslf	??_OLED_PutChar,f
  3269     072F  0DA1               	rlf	??_OLED_PutChar+1,f
  3270     0730  35A0               	lslf	??_OLED_PutChar,f
  3271     0731  0DA1               	rlf	??_OLED_PutChar+1,f
  3272     0732  35A0               	lslf	??_OLED_PutChar,f
  3273     0733  0DA1               	rlf	??_OLED_PutChar+1,f
  3274     0734  3000               	movlw	low ((_OledFont| (0+32768)+65280))
  3275     0735  00A2               	movwf	??_OLED_PutChar+2
  3276     0736  3087               	movlw	high ((_OledFont| (0+32768)+65280))
  3277     0737  00A3               	movwf	??_OLED_PutChar+3
  3278     0738  0820               	movf	??_OLED_PutChar,w
  3279     0739  0722               	addwf	??_OLED_PutChar+2,w
  3280     073A  00AD               	movwf	OLED_PutChar@base
  3281     073B  0821               	movf	??_OLED_PutChar+1,w
  3282     073C  3D23               	addwfc	??_OLED_PutChar+3,w
  3283     073D  00AE               	movwf	OLED_PutChar@base+1
  3284     073E                     l1006:
  3285                           
  3286                           ;oled.c: 237:     uint8_t bytes[9];;oled.c: 238:     bytes[0] = 0x40;
  3287     073E  3040               	movlw	64
  3288     073F  00A4               	movwf	OLED_PutChar@bytes
  3289     0740                     l1008:
  3290                           
  3291                           ;oled.c: 239:     memmove( bytes + 1, base, 8 );
  3292     0740  082E               	movf	OLED_PutChar@base+1,w
  3293     0741  00F1               	movwf	memmove@s1+1
  3294     0742  082D               	movf	OLED_PutChar@base,w
  3295     0743  00F0               	movwf	memmove@s1
  3296     0744  3008               	movlw	8
  3297     0745  00F2               	movwf	memmove@n
  3298     0746  3000               	movlw	0
  3299     0747  00F3               	movwf	memmove@n+1
  3300     0748  3025               	movlw	(low ((OLED_PutChar@bytes| 0+1)))& (0+255)
  3301     0749  3186  26B0  3187   	fcall	_memmove
  3302     074C                     l1010:
  3303                           
  3304                           ;oled.c: 241:     Send_I2C_StartBit();
  3305     074C  3185  2569  3187   	fcall	_Send_I2C_StartBit
  3306     074F                     l1012:
  3307                           
  3308                           ;oled.c: 242:     Send_I2C_Data(0x3C << 1);
  3309     074F  3078               	movlw	120
  3310     0750  00F0               	movwf	Send_I2C_Data@databyte
  3311     0751  3000               	movlw	0
  3312     0752  00F1               	movwf	Send_I2C_Data@databyte+1
  3313     0753  3185  257D  3187   	fcall	_Send_I2C_Data
  3314     0756                     l1014:
  3315                           
  3316                           ;oled.c: 243:     Send_I2C_Data(0x40);
  3317     0756  3040               	movlw	64
  3318     0757  00F0               	movwf	Send_I2C_Data@databyte
  3319     0758  3000               	movlw	0
  3320     0759  00F1               	movwf	Send_I2C_Data@databyte+1
  3321     075A  3185  257D  3187   	fcall	_Send_I2C_Data
  3322     075D                     l1016:
  3323                           
  3324                           ;oled.c: 245:     int i;;oled.c: 247:     for (i = 1; i <= 8; i++){
  3325     075D  3001               	movlw	1
  3326     075E  0020               	movlb	0	; select bank0
  3327     075F  00AF               	movwf	OLED_PutChar@i
  3328     0760  3000               	movlw	0
  3329     0761  00B0               	movwf	OLED_PutChar@i+1
  3330     0762                     l1022:
  3331                           
  3332                           ;oled.c: 248:          Send_I2C_Data(bytes[i]);
  3333     0762  0020               	movlb	0	; select bank0
  3334     0763  082F               	movf	OLED_PutChar@i,w
  3335     0764  3E24               	addlw	(low (OLED_PutChar@bytes| 0))& (0+255)
  3336     0765  0086               	movwf	6
  3337     0766  0187               	clrf	7
  3338     0767  0801               	movf	1,w
  3339     0768  00A0               	movwf	??_OLED_PutChar
  3340     0769  01A1               	clrf	??_OLED_PutChar+1
  3341     076A  0820               	movf	??_OLED_PutChar,w
  3342     076B  00F0               	movwf	Send_I2C_Data@databyte
  3343     076C  0821               	movf	??_OLED_PutChar+1,w
  3344     076D  00F1               	movwf	Send_I2C_Data@databyte+1
  3345     076E  3185  257D  3187   	fcall	_Send_I2C_Data
  3346     0771                     l1024:
  3347                           
  3348                           ;oled.c: 249:     }
  3349     0771  3001               	movlw	1
  3350     0772  0020               	movlb	0	; select bank0
  3351     0773  07AF               	addwf	OLED_PutChar@i,f
  3352     0774  3000               	movlw	0
  3353     0775  3DB0               	addwfc	OLED_PutChar@i+1,f
  3354     0776                     l1026:
  3355     0776  0830               	movf	OLED_PutChar@i+1,w
  3356     0777  3A80               	xorlw	128
  3357     0778  00A0               	movwf	??_OLED_PutChar
  3358     0779  3080               	movlw	128
  3359     077A  0220               	subwf	??_OLED_PutChar,w
  3360     077B  1D03               	skipz
  3361     077C  2F7F               	goto	u335
  3362     077D  3009               	movlw	9
  3363     077E  022F               	subwf	OLED_PutChar@i,w
  3364     077F                     u335:
  3365     077F  1C03               	skipc
  3366     0780  2F82               	goto	u331
  3367     0781  2F83               	goto	u330
  3368     0782                     u331:
  3369     0782  2F62               	goto	l1022
  3370     0783                     u330:
  3371     0783                     l1028:
  3372                           
  3373                           ;oled.c: 251:     Send_I2C_StopBit();
  3374     0783  3185  2573  3187   	fcall	_Send_I2C_StopBit
  3375     0786                     l163:
  3376     0786  0008               	return
  3377     0787                     __end_of_OLED_PutChar:
  3378                           
  3379                           	psect	text9
  3380     06B0                     __ptext9:	
  3381 ;; *************** function _memmove *****************
  3382 ;; Defined at:
  3383 ;;		line 5 in file "C:\Program Files\Microchip\xc8\v2.45\pic\sources\c99\common\memmove.c"
  3384 ;; Parameters:    Size  Location     Type
  3385 ;;  d1              1    wreg     PTR void 
  3386 ;;		 -> OLED_PutChar@bytes(9), 
  3387 ;;  s1              2    0[COMMON] PTR const void 
  3388 ;;		 -> OledFont(768), 
  3389 ;;  n               2    2[COMMON] unsigned int 
  3390 ;; Auto vars:     Size  Location     Type
  3391 ;;  d1              1    6[COMMON] PTR void 
  3392 ;;		 -> OLED_PutChar@bytes(9), 
  3393 ;;  d               2   10[COMMON] struct .
  3394 ;;  s               2    8[COMMON] struct .
  3395 ;;  c               1    7[COMMON] unsigned char 
  3396 ;; Return value:  Size  Location     Type
  3397 ;;                  1    wreg      PTR void 
  3398 ;; Registers used:
  3399 ;;		wreg, fsr0l, fsr0h, fsr1l, fsr1h, status,2, status,0, pclath
  3400 ;; Tracked objects:
  3401 ;;		On entry : 0/0
  3402 ;;		On exit  : 0/0
  3403 ;;		Unchanged: 0/0
  3404 ;; Data sizes:     COMMON   BANK0   BANK1   BANK2   BANK3   BANK4   BANK5   BANK6   BANK7   BANK8   BANK9  BANK10  BANK1
      +1  BANK12
  3405 ;;      Params:         4       0       0       0       0       0       0       0       0       0       0       0       
      +0       0
  3406 ;;      Locals:         6       0       0       0       0       0       0       0       0       0       0       0       
      +0       0
  3407 ;;      Temps:          2       0       0       0       0       0       0       0       0       0       0       0       
      +0       0
  3408 ;;      Totals:        12       0       0       0       0       0       0       0       0       0       0       0       
      +0       0
  3409 ;;Total ram usage:       12 bytes
  3410 ;; Hardware stack levels used: 1
  3411 ;; This function calls:
  3412 ;;		Nothing
  3413 ;; This function is called by:
  3414 ;;		_OLED_PutChar
  3415 ;; This function uses a non-reentrant model
  3416 ;;
  3417                           
  3418     06B0                     _memmove:	
  3419                           ;psect for function _memmove
  3420                           
  3421                           
  3422                           ;incstack = 0
  3423                           ; Regs used in _memmove: [wreg-fsr1h+status,2+status,0+pclath]
  3424                           ;memmove@d1 stored from wreg
  3425     06B0  00F6               	movwf	memmove@d1
  3426     06B1                     l962:
  3427     06B1  01FA               	clrf	memmove@d
  3428     06B2  01FB               	clrf	memmove@d+1
  3429     06B3                     l964:
  3430     06B3  0871               	movf	memmove@s1+1,w
  3431     06B4  00F9               	movwf	memmove@s+1
  3432     06B5  0870               	movf	memmove@s1,w
  3433     06B6  00F8               	movwf	memmove@s
  3434     06B7                     l966:
  3435     06B7  0876               	movf	memmove@d1,w
  3436     06B8  00FA               	movwf	memmove@d
  3437     06B9                     l968:
  3438     06B9  087B               	movf	memmove@d+1,w
  3439     06BA  0279               	subwf	memmove@s+1,w
  3440     06BB  1D03               	skipz
  3441     06BC  2EBF               	goto	u245
  3442     06BD  087A               	movf	memmove@d,w
  3443     06BE  0278               	subwf	memmove@s,w
  3444     06BF                     u245:
  3445     06BF  1803               	skipnc
  3446     06C0  2EC2               	goto	u241
  3447     06C1  2EC3               	goto	u240
  3448     06C2                     u241:
  3449     06C2  2EF7               	goto	l984
  3450     06C3                     u240:
  3451     06C3                     l970:
  3452     06C3  0872               	movf	memmove@n,w
  3453     06C4  0778               	addwf	memmove@s,w
  3454     06C5  00F4               	movwf	??_memmove
  3455     06C6  0873               	movf	memmove@n+1,w
  3456     06C7  3D79               	addwfc	memmove@s+1,w
  3457     06C8  00F5               	movwf	??_memmove+1
  3458     06C9  0875               	movf	??_memmove+1,w
  3459     06CA  027B               	subwf	memmove@d+1,w
  3460     06CB  1D03               	skipz
  3461     06CC  2ECF               	goto	u255
  3462     06CD  0874               	movf	??_memmove,w
  3463     06CE  027A               	subwf	memmove@d,w
  3464     06CF                     u255:
  3465     06CF  1803               	skipnc
  3466     06D0  2ED2               	goto	u251
  3467     06D1  2ED3               	goto	u250
  3468     06D2                     u251:
  3469     06D2  2EF7               	goto	l984
  3470     06D3                     u250:
  3471     06D3                     l972:
  3472     06D3  0872               	movf	memmove@n,w
  3473     06D4  07F8               	addwf	memmove@s,f
  3474     06D5  0873               	movf	memmove@n+1,w
  3475     06D6  3DF9               	addwfc	memmove@s+1,f
  3476     06D7                     l974:
  3477     06D7  0872               	movf	memmove@n,w
  3478     06D8  00F4               	movwf	??_memmove
  3479     06D9  0874               	movf	??_memmove,w
  3480     06DA  07FA               	addwf	memmove@d,f
  3481     06DB                     l976:
  3482     06DB  3001               	movlw	1
  3483     06DC  02F8               	subwf	memmove@s,f
  3484     06DD  3000               	movlw	0
  3485     06DE  3BF9               	subwfb	memmove@s+1,f
  3486     06DF  0878               	movf	memmove@s,w
  3487     06E0  0084               	movwf	4
  3488     06E1  0879               	movf	memmove@s+1,w
  3489     06E2  0085               	movwf	5
  3490     06E3  0800               	movf	0,w	;code access
  3491     06E4  00F7               	movwf	memmove@c
  3492     06E5                     l978:
  3493     06E5  3001               	movlw	1
  3494     06E6  02FA               	subwf	memmove@d,f
  3495     06E7                     l980:
  3496     06E7  087A               	movf	memmove@d,w
  3497     06E8  0086               	movwf	6
  3498     06E9  0187               	clrf	7
  3499     06EA  0877               	movf	memmove@c,w
  3500     06EB  0081               	movwf	1
  3501     06EC                     l982:
  3502     06EC  3001               	movlw	1
  3503     06ED  02F2               	subwf	memmove@n,f
  3504     06EE  3000               	movlw	0
  3505     06EF  3BF3               	subwfb	memmove@n+1,f
  3506     06F0  0872               	movf	memmove@n,w
  3507     06F1  0473               	iorwf	memmove@n+1,w
  3508     06F2  1D03               	btfss	3,2
  3509     06F3  2EF5               	goto	u261
  3510     06F4  2EF6               	goto	u260
  3511     06F5                     u261:
  3512     06F5  2EDB               	goto	l976
  3513     06F6                     u260:
  3514     06F6  2F1A               	goto	l710
  3515     06F7                     l984:
  3516     06F7  0872               	movf	memmove@n,w
  3517     06F8  0473               	iorwf	memmove@n+1,w
  3518     06F9  1903               	btfsc	3,2
  3519     06FA  2EFC               	goto	u271
  3520     06FB  2EFD               	goto	u270
  3521     06FC                     u271:
  3522     06FC  2F1A               	goto	l710
  3523     06FD                     u270:
  3524     06FD                     l986:
  3525     06FD  0878               	movf	memmove@s,w
  3526     06FE  0084               	movwf	4
  3527     06FF  0879               	movf	memmove@s+1,w
  3528     0700  0085               	movwf	5
  3529     0701  0800               	movf	0,w	;code access
  3530     0702  00F7               	movwf	memmove@c
  3531     0703                     l988:
  3532     0703  3001               	movlw	1
  3533     0704  07F8               	addwf	memmove@s,f
  3534     0705  3000               	movlw	0
  3535     0706  3DF9               	addwfc	memmove@s+1,f
  3536     0707                     l990:
  3537     0707  087A               	movf	memmove@d,w
  3538     0708  0086               	movwf	6
  3539     0709  0187               	clrf	7
  3540     070A  0877               	movf	memmove@c,w
  3541     070B  0081               	movwf	1
  3542     070C                     l992:
  3543     070C  3001               	movlw	1
  3544     070D  00F4               	movwf	??_memmove
  3545     070E  0874               	movf	??_memmove,w
  3546     070F  07FA               	addwf	memmove@d,f
  3547     0710                     l994:
  3548     0710  3001               	movlw	1
  3549     0711  02F2               	subwf	memmove@n,f
  3550     0712  3000               	movlw	0
  3551     0713  3BF3               	subwfb	memmove@n+1,f
  3552     0714  0872               	movf	memmove@n,w
  3553     0715  0473               	iorwf	memmove@n+1,w
  3554     0716  1D03               	btfss	3,2
  3555     0717  2F19               	goto	u281
  3556     0718  2F1A               	goto	u280
  3557     0719                     u281:
  3558     0719  2EFD               	goto	l986
  3559     071A                     u280:
  3560     071A                     l710:
  3561     071A  0008               	return
  3562     071B                     __end_of_memmove:
  3563                           
  3564                           	psect	text10
  3565     0573                     __ptext10:	
  3566 ;; *************** function _Send_I2C_StopBit *****************
  3567 ;; Defined at:
  3568 ;;		line 106 in file "I2C.c"
  3569 ;; Parameters:    Size  Location     Type
  3570 ;;		None
  3571 ;; Auto vars:     Size  Location     Type
  3572 ;;		None
  3573 ;; Return value:  Size  Location     Type
  3574 ;;                  1    wreg      void 
  3575 ;; Registers used:
  3576 ;;		None
  3577 ;; Tracked objects:
  3578 ;;		On entry : 0/0
  3579 ;;		On exit  : 0/0
  3580 ;;		Unchanged: 0/0
  3581 ;; Data sizes:     COMMON   BANK0   BANK1   BANK2   BANK3   BANK4   BANK5   BANK6   BANK7   BANK8   BANK9  BANK10  BANK1
      +1  BANK12
  3582 ;;      Params:         0       0       0       0       0       0       0       0       0       0       0       0       
      +0       0
  3583 ;;      Locals:         0       0       0       0       0       0       0       0       0       0       0       0       
      +0       0
  3584 ;;      Temps:          0       0       0       0       0       0       0       0       0       0       0       0       
      +0       0
  3585 ;;      Totals:         0       0       0       0       0       0       0       0       0       0       0       0       
      +0       0
  3586 ;;Total ram usage:        0 bytes
  3587 ;; Hardware stack levels used: 1
  3588 ;; This function calls:
  3589 ;;		Nothing
  3590 ;; This function is called by:
  3591 ;;		_OLED_Command
  3592 ;;		_OLED_PutChar
  3593 ;;		_OLED_Data
  3594 ;; This function uses a non-reentrant model
  3595 ;;
  3596                           
  3597     0573                     _Send_I2C_StopBit:	
  3598                           ;psect for function _Send_I2C_StopBit
  3599                           
  3600     0573                     l950:	
  3601                           ;incstack = 0
  3602                           ; Regs used in _Send_I2C_StopBit: []
  3603                           
  3604                           
  3605                           ;I2C.c: 108:     PIR1bits.SSP1IF=0;
  3606     0573  0020               	movlb	0	; select bank0
  3607     0574  1191               	bcf	17,3	;volatile
  3608                           
  3609                           ;I2C.c: 109:     SSPCON2bits.PEN=1;
  3610     0575  0024               	movlb	4	; select bank4
  3611     0576  1516               	bsf	22,2	;volatile
  3612     0577                     l77:	
  3613                           ;I2C.c: 110:     while(!PIR1bits.SSP1IF);
  3614                           
  3615     0577  0020               	movlb	0	; select bank0
  3616     0578  1D91               	btfss	17,3	;volatile
  3617     0579  2D7B               	goto	u231
  3618     057A  2D7C               	goto	u230
  3619     057B                     u231:
  3620     057B  2D77               	goto	l77
  3621     057C                     u230:
  3622     057C                     l80:
  3623     057C  0008               	return
  3624     057D                     __end_of_Send_I2C_StopBit:
  3625                           
  3626                           	psect	text11
  3627     0569                     __ptext11:	
  3628 ;; *************** function _Send_I2C_StartBit *****************
  3629 ;; Defined at:
  3630 ;;		line 96 in file "I2C.c"
  3631 ;; Parameters:    Size  Location     Type
  3632 ;;		None
  3633 ;; Auto vars:     Size  Location     Type
  3634 ;;		None
  3635 ;; Return value:  Size  Location     Type
  3636 ;;                  1    wreg      void 
  3637 ;; Registers used:
  3638 ;;		None
  3639 ;; Tracked objects:
  3640 ;;		On entry : 0/0
  3641 ;;		On exit  : 0/0
  3642 ;;		Unchanged: 0/0
  3643 ;; Data sizes:     COMMON   BANK0   BANK1   BANK2   BANK3   BANK4   BANK5   BANK6   BANK7   BANK8   BANK9  BANK10  BANK1
      +1  BANK12
  3644 ;;      Params:         0       0       0       0       0       0       0       0       0       0       0       0       
      +0       0
  3645 ;;      Locals:         0       0       0       0       0       0       0       0       0       0       0       0       
      +0       0
  3646 ;;      Temps:          0       0       0       0       0       0       0       0       0       0       0       0       
      +0       0
  3647 ;;      Totals:         0       0       0       0       0       0       0       0       0       0       0       0       
      +0       0
  3648 ;;Total ram usage:        0 bytes
  3649 ;; Hardware stack levels used: 1
  3650 ;; This function calls:
  3651 ;;		Nothing
  3652 ;; This function is called by:
  3653 ;;		_OLED_Command
  3654 ;;		_OLED_PutChar
  3655 ;;		_OLED_Data
  3656 ;; This function uses a non-reentrant model
  3657 ;;
  3658                           
  3659     0569                     _Send_I2C_StartBit:	
  3660                           ;psect for function _Send_I2C_StartBit
  3661                           
  3662     0569                     l948:	
  3663                           ;incstack = 0
  3664                           ; Regs used in _Send_I2C_StartBit: []
  3665                           
  3666                           
  3667                           ;I2C.c: 98:     PIR1bits.SSP1IF=0;
  3668     0569  0020               	movlb	0	; select bank0
  3669     056A  1191               	bcf	17,3	;volatile
  3670                           
  3671                           ;I2C.c: 99:     SSPCON2bits.SEN=1;
  3672     056B  0024               	movlb	4	; select bank4
  3673     056C  1416               	bsf	22,0	;volatile
  3674     056D                     l71:	
  3675                           ;I2C.c: 100:     while(!PIR1bits.SSP1IF);
  3676                           
  3677     056D  0020               	movlb	0	; select bank0
  3678     056E  1D91               	btfss	17,3	;volatile
  3679     056F  2D71               	goto	u221
  3680     0570  2D72               	goto	u220
  3681     0571                     u221:
  3682     0571  2D6D               	goto	l71
  3683     0572                     u220:
  3684     0572                     l74:
  3685     0572  0008               	return
  3686     0573                     __end_of_Send_I2C_StartBit:
  3687                           
  3688                           	psect	text12
  3689     057D                     __ptext12:	
  3690 ;; *************** function _Send_I2C_Data *****************
  3691 ;; Defined at:
  3692 ;;		line 48 in file "I2C.c"
  3693 ;; Parameters:    Size  Location     Type
  3694 ;;  databyte        2    0[COMMON] unsigned int 
  3695 ;; Auto vars:     Size  Location     Type
  3696 ;;		None
  3697 ;; Return value:  Size  Location     Type
  3698 ;;                  1    wreg      void 
  3699 ;; Registers used:
  3700 ;;		wreg
  3701 ;; Tracked objects:
  3702 ;;		On entry : 0/0
  3703 ;;		On exit  : 0/0
  3704 ;;		Unchanged: 0/0
  3705 ;; Data sizes:     COMMON   BANK0   BANK1   BANK2   BANK3   BANK4   BANK5   BANK6   BANK7   BANK8   BANK9  BANK10  BANK1
      +1  BANK12
  3706 ;;      Params:         2       0       0       0       0       0       0       0       0       0       0       0       
      +0       0
  3707 ;;      Locals:         0       0       0       0       0       0       0       0       0       0       0       0       
      +0       0
  3708 ;;      Temps:          0       0       0       0       0       0       0       0       0       0       0       0       
      +0       0
  3709 ;;      Totals:         2       0       0       0       0       0       0       0       0       0       0       0       
      +0       0
  3710 ;;Total ram usage:        2 bytes
  3711 ;; Hardware stack levels used: 1
  3712 ;; This function calls:
  3713 ;;		Nothing
  3714 ;; This function is called by:
  3715 ;;		_OLED_Command
  3716 ;;		_OLED_PutChar
  3717 ;;		_OLED_Data
  3718 ;; This function uses a non-reentrant model
  3719 ;;
  3720                           
  3721     057D                     _Send_I2C_Data:	
  3722                           ;psect for function _Send_I2C_Data
  3723                           
  3724     057D                     l944:	
  3725                           ;incstack = 0
  3726                           ; Regs used in _Send_I2C_Data: [wreg]
  3727                           
  3728                           
  3729                           ;I2C.c: 48: void Send_I2C_Data(unsigned int databyte);I2C.c: 49: {;I2C.c: 50:     PIR1bi
      +                          ts.SSP1IF=0;
  3730     057D  0020               	movlb	0	; select bank0
  3731     057E  1191               	bcf	17,3	;volatile
  3732     057F                     l946:
  3733                           
  3734                           ;I2C.c: 51:     SSPBUF = databyte;
  3735     057F  0870               	movf	Send_I2C_Data@databyte,w
  3736     0580  0024               	movlb	4	; select bank4
  3737     0581  0091               	movwf	17	;volatile
  3738     0582                     l53:	
  3739                           ;I2C.c: 52:     while(!PIR1bits.SSP1IF);
  3740                           
  3741     0582  0020               	movlb	0	; select bank0
  3742     0583  1D91               	btfss	17,3	;volatile
  3743     0584  2D86               	goto	u211
  3744     0585  2D87               	goto	u210
  3745     0586                     u211:
  3746     0586  2D82               	goto	l53
  3747     0587                     u210:
  3748     0587                     l56:
  3749     0587  0008               	return
  3750     0588                     __end_of_Send_I2C_Data:
  3751                           
  3752                           	psect	text13
  3753     0588                     __ptext13:	
  3754 ;; *************** function _I2C_Init *****************
  3755 ;; Defined at:
  3756 ;;		line 19 in file "I2C.c"
  3757 ;; Parameters:    Size  Location     Type
  3758 ;;		None
  3759 ;; Auto vars:     Size  Location     Type
  3760 ;;		None
  3761 ;; Return value:  Size  Location     Type
  3762 ;;                  1    wreg      void 
  3763 ;; Registers used:
  3764 ;;		wreg, status,2, status,0
  3765 ;; Tracked objects:
  3766 ;;		On entry : 0/0
  3767 ;;		On exit  : 0/0
  3768 ;;		Unchanged: 0/0
  3769 ;; Data sizes:     COMMON   BANK0   BANK1   BANK2   BANK3   BANK4   BANK5   BANK6   BANK7   BANK8   BANK9  BANK10  BANK1
      +1  BANK12
  3770 ;;      Params:         0       0       0       0       0       0       0       0       0       0       0       0       
      +0       0
  3771 ;;      Locals:         0       0       0       0       0       0       0       0       0       0       0       0       
      +0       0
  3772 ;;      Temps:          1       0       0       0       0       0       0       0       0       0       0       0       
      +0       0
  3773 ;;      Totals:         1       0       0       0       0       0       0       0       0       0       0       0       
      +0       0
  3774 ;;Total ram usage:        1 bytes
  3775 ;; Hardware stack levels used: 1
  3776 ;; This function calls:
  3777 ;;		Nothing
  3778 ;; This function is called by:
  3779 ;;		_main
  3780 ;; This function uses a non-reentrant model
  3781 ;;
  3782                           
  3783     0588                     _I2C_Init:	
  3784                           ;psect for function _I2C_Init
  3785                           
  3786     0588                     l800:	
  3787                           ;incstack = 0
  3788                           ; Regs used in _I2C_Init: [wreg+status,2+status,0]
  3789                           
  3790                           
  3791                           ;I2C.c: 25:     SSPCONbits.SSPM=0x08;
  3792     0588  0024               	movlb	4	; select bank4
  3793     0589  0815               	movf	21,w	;volatile
  3794     058A  39F0               	andlw	-16
  3795     058B  3808               	iorlw	8
  3796     058C  0095               	movwf	21	;volatile
  3797     058D                     l802:
  3798                           
  3799                           ;I2C.c: 26:     SSPCONbits.SSPEN=1;
  3800     058D  1695               	bsf	21,5	;volatile
  3801     058E                     l804:
  3802                           
  3803                           ;I2C.c: 38:     SSPADD = 39;
  3804     058E  3027               	movlw	39
  3805     058F  0092               	movwf	18	;volatile
  3806     0590                     l806:
  3807                           
  3808                           ;I2C.c: 42:     _delay((unsigned long)((10)*(16000000/4000.0)));
  3809     0590  3034               	movlw	52
  3810     0591  00F0               	movwf	??_I2C_Init
  3811     0592  30F2               	movlw	242
  3812     0593                     u417:
  3813     0593  0B89               	decfsz	9,f
  3814     0594  2D93               	goto	u417
  3815     0595  0BF0               	decfsz	??_I2C_Init,f
  3816     0596  2D93               	goto	u417
  3817     0597                     l50:
  3818     0597  0008               	return
  3819     0598                     __end_of_I2C_Init:
  3820     007E                     btemp	set	126	;btemp
  3821     007E                     wtemp0	set	126
  3822                           
  3823                           	psect	idloc
  3824                           
  3825                           ;Config register IDLOC0 @ 0x8000
  3826                           ;	unspecified, using default values
  3827     8000                     	org	32768
  3828     8000  3FFF               	dw	16383
  3829                           
  3830                           ;Config register IDLOC1 @ 0x8001
  3831                           ;	unspecified, using default values
  3832     8001                     	org	32769
  3833     8001  3FFF               	dw	16383
  3834                           
  3835                           ;Config register IDLOC2 @ 0x8002
  3836                           ;	unspecified, using default values
  3837     8002                     	org	32770
  3838     8002  3FFF               	dw	16383
  3839                           
  3840                           ;Config register IDLOC3 @ 0x8003
  3841                           ;	unspecified, using default values
  3842     8003                     	org	32771
  3843     8003  3FFF               	dw	16383
  3844                           
  3845                           	psect	config
  3846                           
  3847                           ;Config register CONFIG1 @ 0x8007
  3848                           ;	Oscillator Selection Bits
  3849                           ;	FOSC = INTOSC, INTOSC oscillator: I/O function on CLKIN pin
  3850                           ;	Watchdog Timer Enable
  3851                           ;	WDTE = OFF, WDT disabled
  3852                           ;	Power-up Timer Enable
  3853                           ;	PWRTE = OFF, PWRT disabled
  3854                           ;	MCLR Pin Function Select
  3855                           ;	MCLRE = OFF, MCLR/VPP pin function is digital input if LVP bit is also 0.
  3856                           ;	Flash Program Memory Code Protection
  3857                           ;	CP = OFF, Program memory code protection is disabled
  3858                           ;	Brown-out Reset Enable
  3859                           ;	BOREN = OFF, Brown-out Reset disabled
  3860                           ;	Clock Out Enable
  3861                           ;	CLKOUTEN = OFF, CLKOUT function is disabled. I/O or oscillator function on the CLKOUT 
      +                          pin
  3862                           ;	Internal/External Switchover Mode
  3863                           ;	IESO = ON, Internal/External Switchover Mode is enabled
  3864                           ;	Fail-Safe Clock Monitor Enable
  3865                           ;	FCMEN = OFF, Fail-Safe Clock Monitor is disabled
  3866     8007                     	org	32775
  3867     8007  19A4               	dw	6564
  3868                           
  3869                           ;Config register CONFIG2 @ 0x8008
  3870                           ;	Flash Memory Self-Write Protection
  3871                           ;	WRT = OFF, Write protection off
  3872                           ;	Peripheral Pin Select one-way control
  3873                           ;	PPS1WAY = ON, The PPSLOCK bit cannot be cleared once it is set by software
  3874                           ;	Zero-cross detect disable
  3875                           ;	ZCDDIS = ON, Zero-cross detect circuit is disabled at POR and can be enabled with ZCDS
      +                          EN bit.
  3876                           ;	Phase Lock Loop enable
  3877                           ;	PLLEN = OFF, 4x PLL is enabled when software sets the SPLLEN bit
  3878                           ;	Stack Overflow/Underflow Reset Enable
  3879                           ;	STVREN = ON, Stack Overflow or Underflow will cause a Reset
  3880                           ;	Brown-out Reset Voltage Selection
  3881                           ;	BORV = LO, Brown-out Reset Voltage (Vbor), low trip point selected.
  3882                           ;	Low-Power Brown Out Reset
  3883                           ;	LPBOR = OFF, Low-Power BOR is disabled
  3884                           ;	In-Circuit Debugger Mode
  3885                           ;	DEBUG = 0x1, unprogrammed default
  3886                           ;	Low-Voltage Programming Enable
  3887                           ;	LVP = OFF, High-voltage on MCLR/VPP must be used for programming
  3888     8008                     	org	32776
  3889     8008  1EFF               	dw	7935

Data Sizes:
    Strings     44
    Constant    768
    Data        0
    BSS         0
    Persistent  32
    Stack       0

Auto Spaces:
    Space          Size  Autos    Used
    COMMON           14     14      14
    BANK0            80     24      24
    BANK1            80      0       0
    BANK2            80      0       0
    BANK3            80      0       0
    BANK4            80      0       0
    BANK5            80      0       0
    BANK6            80      0       0
    BANK7            80      0       0
    BANK8            80      0       0
    BANK9            80      0       0
    BANK10           80      0       0
    BANK11           80      0       0
    BANK12           48      0       0

Pointer List with Targets:

    d$cp	PTR const unsigned char  size(2) Largest target is 0

    d$p	PTR unsigned char  size(2) Largest target is 0

    memmove@d1	PTR void  size(1) Largest target is 9
		 -> OLED_PutChar@bytes(BANK0[9]), 

    memmove@s1	PTR const void  size(2) Largest target is 768
		 -> OledFont(CODE[768]), 

    OLED_PutChar@base	PTR const unsigned char  size(2) Largest target is 768
		 -> OledFont(CODE[768]), 

    OLED_Write_String@s	PTR unsigned char  size(2) Largest target is 13
		 -> STR_1(CODE[13]), STR_2(CODE[10]), STR_3(CODE[8]), STR_4(CODE[13]), 

    s$cp	PTR const unsigned char  size(2) Largest target is 0

    s$p	PTR unsigned char  size(2) Largest target is 0

    S625$cp	PTR const unsigned char  size(2) Largest target is 0

    S625$p	PTR unsigned char  size(2) Largest target is 0

    sp__memmove	PTR void  size(1) Largest target is 9
		 -> OLED_PutChar@bytes(BANK0[9]), 


Critical Paths under _main in COMMON

    _main->_OLED_Write_String
    _OLED_Init->_OLED_Command
    _OLED_YX->_OLED_Command
    _OLED_Command->_Send_I2C_Data
    _OLED_PutChar->_memmove

Critical Paths under _main in BANK0

    _main->_OLED_Clear
    _OLED_Write_String->_OLED_PutChar
    _OLED_Clear->_OLED_PutChar

Critical Paths under _main in BANK1

    None.

Critical Paths under _main in BANK2

    None.

Critical Paths under _main in BANK3

    None.

Critical Paths under _main in BANK4

    None.

Critical Paths under _main in BANK5

    None.

Critical Paths under _main in BANK6

    None.

Critical Paths under _main in BANK7

    None.

Critical Paths under _main in BANK8

    None.

Critical Paths under _main in BANK9

    None.

Critical Paths under _main in BANK10

    None.

Critical Paths under _main in BANK11

    None.

Critical Paths under _main in BANK12

    None.

Call Graph Tables:

 ---------------------------------------------------------------------------------
 (Depth) Function   	        Calls       Base Space   Used Autos Params    Refs
 ---------------------------------------------------------------------------------
 (0) _main                                                 8     8      0    6587
                                             22 BANK0      2     2      0
                           _I2C_Init
                         _OLED_Clear
                          _OLED_Init
                  _OLED_Write_String
                            _OLED_YX
                           _initMain
 ---------------------------------------------------------------------------------
 (1) _initMain                                             0     0      0       0
                        _internal_16
 ---------------------------------------------------------------------------------
 (2) _internal_16                                          0     0      0       0
 ---------------------------------------------------------------------------------
 (1) _OLED_Write_String                                    3     1      2    1861
                                             12 COMMON     2     0      2
                                             18 BANK0      1     1      0
                       _OLED_PutChar
 ---------------------------------------------------------------------------------
 (1) _OLED_Init                                            0     0      0     728
                       _OLED_Command
 ---------------------------------------------------------------------------------
 (1) _OLED_Clear                                           4     4      0    2822
                                             18 BANK0      4     4      0
                       _OLED_PutChar
                            _OLED_YX
 ---------------------------------------------------------------------------------
 (1) _OLED_YX                                              5     4      1    1174
                                              5 COMMON     5     4      1
                       _OLED_Command
 ---------------------------------------------------------------------------------
 (2) _OLED_Command                                         3     3      0     728
                                              2 COMMON     3     3      0
                      _Send_I2C_Data
                  _Send_I2C_StartBit
                   _Send_I2C_StopBit
 ---------------------------------------------------------------------------------
 (2) _OLED_PutChar                                        18    18      0    1512
                                              0 BANK0     18    18      0
                      _Send_I2C_Data
                  _Send_I2C_StartBit
                   _Send_I2C_StopBit
                            _memmove
 ---------------------------------------------------------------------------------
 (3) _memmove                                             12     8      4     598
                                              0 COMMON    12     8      4
 ---------------------------------------------------------------------------------
 (3) _Send_I2C_StopBit                                     0     0      0       0
 ---------------------------------------------------------------------------------
 (3) _Send_I2C_StartBit                                    0     0      0       0
 ---------------------------------------------------------------------------------
 (3) _Send_I2C_Data                                        2     0      2     706
                                              0 COMMON     2     0      2
 ---------------------------------------------------------------------------------
 (1) _I2C_Init                                             1     1      0       0
                                              0 COMMON     1     1      0
 ---------------------------------------------------------------------------------
 Estimated maximum stack depth 3
 ---------------------------------------------------------------------------------

 Call Graph Graphs:

 _main (ROOT)
   _I2C_Init
   _OLED_Clear
     _OLED_PutChar
       _Send_I2C_Data
       _Send_I2C_StartBit
       _Send_I2C_StopBit
       _memmove
     _OLED_YX
       _OLED_Command
         _Send_I2C_Data
         _Send_I2C_StartBit
         _Send_I2C_StopBit
   _OLED_Init
     _OLED_Command
   _OLED_Write_String
     _OLED_PutChar
   _OLED_YX
   _initMain
     _internal_16

 Address spaces:
Name               Size   Autos  Total    Cost      Usage
BIGRAM             3F0      0       0       0        0.0%
NULL                 0      0       0       0        0.0%
CODE                 0      0       0       0        0.0%
BITCOMMON            E      0       0       1        0.0%
BITSFR0              0      0       0       1        0.0%
SFR0                 0      0       0       1        0.0%
COMMON               E      E       E       2      100.0%
BITSFR1              0      0       0       2        0.0%
SFR1                 0      0       0       2        0.0%
BITSFR2              0      0       0       3        0.0%
SFR2                 0      0       0       3        0.0%
STACK                0      0       0       3        0.0%
BITBANK0            50      0       0       4        0.0%
BITSFR3              0      0       0       4        0.0%
SFR3                 0      0       0       4        0.0%
BANK0               50     18      18       5       30.0%
BITSFR4              0      0       0       5        0.0%
SFR4                 0      0       0       5        0.0%
BITBANK1            50      0       0       6        0.0%
BITSFR5              0      0       0       6        0.0%
SFR5                 0      0       0       6        0.0%
BANK1               50      0       0       7        0.0%
BITSFR6              0      0       0       7        0.0%
SFR6                 0      0       0       7        0.0%
BITBANK2            50      0       0       8        0.0%
BITSFR7              0      0       0       8        0.0%
SFR7                 0      0       0       8        0.0%
BANK2               50      0       0       9        0.0%
BITSFR8              0      0       0       9        0.0%
SFR8                 0      0       0       9        0.0%
BITBANK3            50      0       0      10        0.0%
BITSFR9              0      0       0      10        0.0%
SFR9                 0      0       0      10        0.0%
BANK3               50      0       0      11        0.0%
BITSFR10             0      0       0      11        0.0%
SFR10                0      0       0      11        0.0%
BITBANK4            50      0       0      12        0.0%
BITSFR11             0      0       0      12        0.0%
SFR11                0      0       0      12        0.0%
BANK4               50      0       0      13        0.0%
BITSFR12             0      0       0      13        0.0%
SFR12                0      0       0      13        0.0%
BITBANK5            50      0       0      14        0.0%
BITSFR13             0      0       0      14        0.0%
SFR13                0      0       0      14        0.0%
BANK5               50      0       0      15        0.0%
BITSFR14             0      0       0      15        0.0%
SFR14                0      0       0      15        0.0%
BITBANK6            50      0       0      16        0.0%
BITSFR15             0      0       0      16        0.0%
SFR15                0      0       0      16        0.0%
BANK6               50      0       0      17        0.0%
BITSFR16             0      0       0      17        0.0%
SFR16                0      0       0      17        0.0%
BITBANK7            50      0       0      18        0.0%
BITSFR17             0      0       0      18        0.0%
SFR17                0      0       0      18        0.0%
BANK7               50      0       0      19        0.0%
BITSFR18             0      0       0      19        0.0%
SFR18                0      0       0      19        0.0%
BITSFR19             0      0       0      20        0.0%
SFR19                0      0       0      20        0.0%
ABS                  0      0       0      20        0.0%
BITBANK8            50      0       0      21        0.0%
BITSFR20             0      0       0      21        0.0%
SFR20                0      0       0      21        0.0%
BANK8               50      0       0      22        0.0%
BITSFR21             0      0       0      22        0.0%
SFR21                0      0       0      22        0.0%
BITBANK9            50      0       0      23        0.0%
BITSFR22             0      0       0      23        0.0%
SFR22                0      0       0      23        0.0%
BANK9               50      0       0      24        0.0%
BITSFR23             0      0       0      24        0.0%
SFR23                0      0       0      24        0.0%
BITBANK10           50      0       0      25        0.0%
BITSFR24             0      0       0      25        0.0%
SFR24                0      0       0      25        0.0%
BANK10              50      0       0      26        0.0%
BITSFR25             0      0       0      26        0.0%
SFR25                0      0       0      26        0.0%
BITBANK11           50      0       0      27        0.0%
BITSFR26             0      0       0      27        0.0%
SFR26                0      0       0      27        0.0%
BANK11              50      0       0      28        0.0%
BITSFR27             0      0       0      28        0.0%
SFR27                0      0       0      28        0.0%
BITBANK12           30      0       0      29        0.0%
BITSFR28             0      0       0      29        0.0%
SFR28                0      0       0      29        0.0%
BANK12              30      0       0      30        0.0%
BITSFR29             0      0       0      30        0.0%
SFR29                0      0       0      30        0.0%
BITSFR30             0      0       0      31        0.0%
SFR30                0      0       0      31        0.0%
DATA                 0      0       0      31        0.0%
BITSFR31             0      0       0      32        0.0%
SFR31                0      0       0      32        0.0%


Microchip Technology PIC Macro Assembler V2.45 build 20230818022343 
Symbol Table                                                                                   Tue Mar 26 14:48:18 2024

                       l20 0568                         l50 0597                         l53 0582  
                       l71 056D                         l56 0587                         l80 057C  
                       l74 0572                         l77 0577         OLED_Write_String@s 007C  
                      l125 061F                        l152 06AF                        l146 05CD  
                      l170 064A                        l163 0786                        l155 05F6  
                      l176 05AE                        l710 071A                        l800 0588  
                      l802 058D                        l810 05FA                        l804 058E  
                      l820 0603                        l812 05FC                        l806 0590  
                      l830 0614                        l822 0605                        l814 05FD  
                      l832 0619                        l824 0606                        l816 05FF  
                      l808 05F7                        l834 061C                        l826 060B  
                      l818 0600                        l764 0560                        l836 061E  
                      l828 0610                        l950 0573                        l944 057D  
                      l960 05CA                        l952 05B0                        l946 057F  
                      l970 06C3                        l962 06B1                        l954 05B3  
                      l948 0569                        l980 06E7                        l972 06D3  
                      l964 06B3                        l956 05BA                        l990 0707  
                      l982 06EC                        l974 06D7                        l966 06B7  
                      l958 05C0                        l992 070C                        l976 06DB  
                      l984 06F7                        l968 06B9                        l994 0710  
                      l986 06FD                        l978 06E5                        l988 0703  
                      l996 05CF                        l998 071D                        u210 0587  
                      u211 0586                        u220 0572                        u221 0571  
                      u230 057C                        u310 0723                        u231 057B  
                      u311 0722                        u240 06C3                        u320 0729  
                      u241 06C2                        u321 0728                        u305 05EB  
                      u250 06D3                        u330 0783                        u251 06D2  
                      u331 0782                        u260 06F6                        u340 063D  
                      u261 06F5                        u245 06BF                        u341 063C  
                      u270 06FD                        u350 064A                        u271 06FC  
                      u255 06CF                        u335 077F                        u351 0649  
                      u407 07F1                        u280 071A                        u360 05AE  
                      u417 0593                        u281 0719                        u361 05AD  
                      u295 05D7                        u377 0793                        u387 07D5  
                      u397 07E5                        wreg 0009           OLED_Command@temp 0074  
                     l1000 0723                       l1010 074C                       l1002 0729  
                     l1012 074F                       l1004 072B                       l1022 0762  
                     l1014 0756                       l1006 073E                       l1030 064B  
                     l1024 0771                       l1016 075D                       l1008 0740  
                     l1032 0620                       l1026 0776                       l1050 0634  
                     l1028 0783                       l1052 063D                       l1044 0625  
                     l1060 05A5                       l1046 062B                       l1038 0623  
                     l1054 0598                       l1070 079F                       l1062 0787  
                     l1048 062F                       l1056 0599                       l1080 07B0  
                     l1072 079F                       l1064 078D                       l1058 05A1  
                     l1090 07CF                       l1082 07B7                       l1074 079F  
                     l1066 0799                       l1092 07DC                       l1084 07BC  
                     l1076 07A4                       l1068 079C                       l1094 07DF  
                     l1086 07C3                       l1078 07AB                       l1096 07EB  
                     l1088 07C8                       l1098 07F7                       STR_1 0B00  
                     STR_2 0B1A                       STR_3 0B24                       STR_4 0B0D  
          __end_of_OLED_YX 05F7                ?_OLED_Clear 0070                       _SCS0 04C8  
                     _SCS1 04C9                       _main 0787           __end_of_I2C_Init 0598  
                     fsr0h 0005                       fsr1h 0007                       indf0 0000  
                     fsr0l 0004                       indf1 0001                       fsr1l 0006  
                     btemp 007E                       start 0002                      ?_main 0070  
                    _IRCF0 04CB                      _IRCF1 04CC                      _IRCF2 04CD  
                    _IRCF3 04CE            __end_of_memmove 071B                      status 0003  
                    wtemp0 007E               ?_internal_16 0070            __initialization 07FD  
             __end_of_main 07FD           __end_of_OledFont 0B00                     ??_main 0036  
                ??_OLED_YX 0076          __end_of_OLED_Init 06B0              ?_OLED_Command 0070  
                   _SPLLEN 04CF                     _SSPADD 0212                     _SSPBUF 0211  
            ?_OLED_PutChar 0070           __end_of_initMain 0620                  ?_I2C_Init 0070  
                ??_memmove 0074      Send_I2C_Data@databyte 0070             ??_OLED_Command 0072  
  __end_of__initialization 07FD             ??_OLED_PutChar 0020             __pcstackCOMMON 0070  
               ??_I2C_Init 0070              _Send_I2C_Data 057D               ??_OLED_Clear 007C  
               __pmaintext 0787         __end_of_OLED_Clear 064B                    _OLED_YX 05CE  
           ?_Send_I2C_Data 0070                    _PPSLOCK 0E0F                  ?_initMain 0070  
     __end_of_OLED_Command 05CE                    __ptext1 05F7                    __ptext2 0560  
                  __ptext3 0598                    __ptext4 064B                    __ptext5 0620  
                  __ptext6 05CE                    __ptext7 05AF                    __ptext8 071B  
                  __ptext9 06B0                    _memmove 06B0       __end_of_OLED_PutChar 0787  
     end_of_initialization 07FD                 ??_initMain 0070                  _OLED_Init 064B  
         OLED_PutChar@base 002D           _Send_I2C_StopBit 0573            ??_Send_I2C_Data 0072  
                _TRISCbits 008E                 ?_OLED_Init 0070        start_initialization 07FD  
        _OLED_Write_String 0598         ?_OLED_Write_String 007C                 OLED_YX@Row 0079  
      ??_OLED_Write_String 0032                  ___latbits 0002                   ?_OLED_YX 0075  
            __pcstackBANK0 0020               _OLED_Command 05AF  __end_of_OLED_Write_String 05AF  
            ??_internal_16 0070                ??_OLED_Init 0075               _OLED_PutChar 071B  
                 _I2C_Init 0588                   ?_memmove 0070   __end_of_Send_I2C_StopBit 057D  
                 _PIR1bits 0011        __end_of_internal_16 0569                   _OledFont 0800  
                memmove@d1 0076                  memmove@s1 0070                 _ANSELCbits 018E  
    __end_of_Send_I2C_Data 0588                   __ptext10 0573                   __ptext11 0569  
                 __ptext12 057D                   __ptext13 0588                   _initMain 05F7  
            _SSPDATPPSbits 0E21              OLED_Clear@col 0034                _internal_16 0560  
            OLED_Clear@row 0032              OLED_YX@Column 0075             OLED_PutChar@ch 0031  
               _RC4PPSbits 0EA4              _SSPCLKPPSbits 0E20                 _RC5PPSbits 0EA5  
                 memmove@c 0077                   memmove@d 007A                   memmove@n 0072  
                 memmove@s 0078                 _OLED_Clear 0620                _PPSLOCKbits 0E0F  
        _Send_I2C_StartBit 0569          OLED_PutChar@bytes 0024              OLED_PutChar@i 002F  
       ?_Send_I2C_StartBit 0070              __pstringtext1 0800              __pstringtext2 0B0D  
            __pstringtext3 0B1A              __pstringtext4 0B24              __pstringtext5 0000  
      ??_Send_I2C_StartBit 0070                _SSPCON2bits 0216          ?_Send_I2C_StopBit 0070  
       ??_Send_I2C_StopBit 0070  __end_of_Send_I2C_StartBit 0573                 _SSPCONbits 0215  
