

Microchip MPLAB XC8 Assembler V2.46 build 20240104201356 
                                                                                               Fri Jan 30 23:08:31 2026

Microchip MPLAB XC8 C Compiler v2.46 (Free license) build 20240104201356 Og1 
     1                           	processor	16F1718
     2                           	pagewidth 120
     3                           	opt	flic
     4                           	psect	stringtext1,global,class=STRCODE,delta=2,noexec
     5                           	psect	stringtext2,global,class=STRCODE,delta=2,noexec
     6                           	psect	stringtext3,global,class=STRCODE,delta=2,noexec
     7                           	psect	stringtext4,global,class=STRCODE,delta=2,noexec
     8                           	psect	stringtext5,global,class=STRCODE,delta=2,noexec
     9                           	psect	stringtext6,global,class=STRCODE,delta=2,noexec
    10                           	psect	stringtext7,global,class=STRCODE,delta=2,noexec
    11                           	psect	stringtext8,global,class=STRCODE,delta=2,noexec
    12                           	psect	stringtext9,global,class=STRCODE,delta=2,noexec
    13                           	psect	stringtext10,global,class=STRCODE,delta=2,noexec
    14                           	psect	stringtext11,global,class=STRCODE,delta=2,noexec
    15                           	psect	stringtext12,global,class=STRCODE,delta=2,noexec
    16                           	psect	cinit,global,class=CODE,merge=1,delta=2
    17                           	psect	clrtext,global,class=CODE,delta=2
    18                           	psect	cstackBANK1,global,class=BANK1,space=1,delta=1,noexec
    19                           	psect	cstackCOMMON,global,class=COMMON,space=1,delta=1,noexec
    20                           	psect	cstackBANK0,global,class=BANK0,space=1,delta=1,noexec
    21                           	psect	maintext,global,class=CODE,merge=1,split=1,delta=2
    22                           	psect	text1,local,class=CODE,merge=1,delta=2
    23                           	psect	text2,local,class=CODE,merge=1,delta=2
    24                           	psect	text3,local,class=CODE,merge=1,delta=2
    25                           	psect	text4,local,class=CODE,merge=1,delta=2
    26                           	psect	text5,local,class=CODE,merge=1,delta=2
    27                           	psect	text6,local,class=CODE,merge=1,delta=2
    28                           	psect	text7,local,class=CODE,merge=1,delta=2,group=1
    29                           	psect	text8,local,class=CODE,merge=1,delta=2,group=1
    30                           	psect	text9,local,class=CODE,merge=1,delta=2
    31                           	psect	text10,local,class=CODE,merge=1,delta=2,group=2
    32                           	psect	text11,local,class=CODE,merge=1,delta=2,group=2
    33                           	psect	text12,local,class=CODE,merge=1,delta=2,group=2
    34                           	psect	text13,local,class=CODE,merge=1,delta=2,group=1
    35                           	psect	text14,local,class=CODE,merge=1,delta=2,group=1
    36                           	psect	text15,local,class=CODE,merge=1,delta=2,group=1
    37                           	psect	text16,local,class=CODE,merge=1,delta=2,group=1
    38                           	psect	text17,local,class=CODE,merge=1,delta=2,group=1
    39                           	psect	text18,local,class=CODE,merge=1,delta=2,group=1
    40                           	psect	text19,local,class=CODE,merge=1,delta=2,group=1
    41                           	psect	text20,local,class=CODE,merge=1,delta=2,group=1
    42                           	psect	text21,local,class=CODE,merge=1,delta=2
    43                           	psect	text22,local,class=CODE,merge=1,delta=2
    44                           	psect	text23,local,class=CODE,merge=1,delta=2
    45                           	psect	text24,local,class=CODE,merge=1,delta=2
    46                           	psect	text25,local,class=CODE,merge=1,delta=2,group=2
    47                           	psect	text26,local,class=CODE,merge=1,delta=2
    48                           	psect	text27,local,class=CODE,merge=1,delta=2
    49                           	psect	text28,local,class=CODE,merge=1,delta=2
    50                           	psect	text29,local,class=CODE,merge=1,delta=2
    51                           	psect	text30,local,class=CODE,merge=1,delta=2
    52                           	psect	text31,local,class=CODE,merge=1,delta=2
    53                           	psect	text32,local,class=CODE,merge=1,delta=2
    54                           	psect	text33,local,class=CODE,merge=1,delta=2
    55                           	psect	text34,local,class=CODE,merge=1,delta=2
    56                           	psect	text35,local,class=CODE,merge=1,delta=2
    57                           	psect	text36,local,class=CODE,merge=1,delta=2
    58                           	psect	text37,local,class=CODE,merge=1,delta=2
    59                           	psect	text38,local,class=CODE,merge=1,delta=2
    60                           	psect	text39,local,class=CODE,merge=1,delta=2,group=1
    61                           	psect	text40,local,class=CODE,merge=1,delta=2,group=1
    62                           	psect	text41,local,class=CODE,merge=1,delta=2,group=1
    63                           	psect	text42,local,class=CODE,merge=1,delta=2,group=1
    64                           	psect	text43,local,class=CODE,merge=1,delta=2
    65                           	psect	text44,local,class=CODE,merge=1,delta=2
    66                           	psect	config,global,abs,ovrld,class=CONFIG,space=4,delta=2,noexec
    67                           	dabs	1,0xCA0,32
    68                           	dabs	1,0xC20,80
    69                           	dabs	1,0xBA0,80
    70                           	dabs	1,0xB30,64
    71                           	dabs	1,0xB20,16
    72                           	dabs	1,0xAA0,80
    73                           	dabs	1,0xA20,80
    74                           	dabs	1,0x9A0,80
    75                           	dabs	1,0x920,80
    76                           	dabs	1,0x8A0,80
    77                           	dabs	1,0x820,80
    78                           	dabs	1,0x7E0,16
    79                           	dabs	1,0x24F0,0,_screen_buffer
    80                           	dabs	1,0x26F0,0,OLED_Printf_Line@last_text
    81                           	dabs	1,0x7E,2
    82     0000                     
    83                           ; Generated 07/09/2023 GMT
    84                           ; 
    85                           ; Copyright © 2023, Microchip Technology Inc. and its subsidiaries ("Microchip")
    86                           ; All rights reserved.
    87                           ; 
    88                           ; This software is developed by Microchip Technology Inc. and its subsidiaries ("Microch
      +                          ip").
    89                           ; 
    90                           ; Redistribution and use in source and binary forms, with or without modification, are
    91                           ; permitted provided that the following conditions are met:
    92                           ; 
    93                           ;     1. Redistributions of source code must retain the above copyright notice, this lis
      +                          t of
    94                           ;        conditions and the following disclaimer.
    95                           ; 
    96                           ;     2. Redistributions in binary form must reproduce the above copyright notice, this 
      +                          list
    97                           ;        of conditions and the following disclaimer in the documentation and/or other
    98                           ;        materials provided with the distribution. Publication is not required when
    99                           ;        this file is used in an embedded application.
   100                           ; 
   101                           ;     3. Microchip's name may not be used to endorse or promote products derived from th
      +                          is
   102                           ;        software without specific prior written permission.
   103                           ; 
   104                           ; THIS SOFTWARE IS PROVIDED BY MICROCHIP "AS IS" AND ANY EXPRESS OR IMPLIED WARRANTIES,
   105                           ; INCLUDING, BUT NOT LIMITED TO, THE IMPLIED WARRANTIES OF MERCHANTABILITY AND FITNESS F
      +                          OR
   106                           ; PURPOSE ARE DISCLAIMED.  IN NO EVENT SHALL MICROCHIP BE LIABLE FOR ANY DIRECT, INDIREC
      +                          T,
   107                           ; INCIDENTAL, SPECIAL, EXEMPLARY, OR CONSEQUENTIAL DAMAGES (INCLUDING BUT NOT LIMITED TO
   108                           ; PROCUREMENT OF SUBSTITUTE GOODS OR SERVICES; LOSS OF USE, DATA OR PROFITS; OR BUSINESS
   109                           ; INTERRUPTION) HOWSOEVER CAUSED AND ON ANY THEORY OF LIABILITY, WHETHER IN CONTRACT, ST
      +                          RICT
   110                           ; LIABILITY, OR TORT (INCLUDING NEGLIGENCE OR OTHERWISE) ARISING IN ANY WAY OUT OF THE U
      +                          SE OF
   111                           ; THIS SOFTWARE, EVEN IF ADVISED OF THE POSSIBILITY OF SUCH DAMAGE.
   112                           ; 
   113                           ; 
   114                           ; Code-generator required, PIC16F1718 Definitions
   115                           ; 
   116                           ; SFR Addresses
   117     0000                     	;# 
   118     0001                     	;# 
   119     0002                     	;# 
   120     0003                     	;# 
   121     0004                     	;# 
   122     0005                     	;# 
   123     0006                     	;# 
   124     0007                     	;# 
   125     0008                     	;# 
   126     0009                     	;# 
   127     000A                     	;# 
   128     000B                     	;# 
   129     000C                     	;# 
   130     000D                     	;# 
   131     000E                     	;# 
   132     0010                     	;# 
   133     0011                     	;# 
   134     0012                     	;# 
   135     0013                     	;# 
   136     0015                     	;# 
   137     0016                     	;# 
   138     0016                     	;# 
   139     0017                     	;# 
   140     0018                     	;# 
   141     0019                     	;# 
   142     001A                     	;# 
   143     001B                     	;# 
   144     001C                     	;# 
   145     008C                     	;# 
   146     008D                     	;# 
   147     008E                     	;# 
   148     0090                     	;# 
   149     0091                     	;# 
   150     0092                     	;# 
   151     0093                     	;# 
   152     0095                     	;# 
   153     0096                     	;# 
   154     0097                     	;# 
   155     0098                     	;# 
   156     0099                     	;# 
   157     009A                     	;# 
   158     009B                     	;# 
   159     009B                     	;# 
   160     009C                     	;# 
   161     009D                     	;# 
   162     009E                     	;# 
   163     009F                     	;# 
   164     010C                     	;# 
   165     010D                     	;# 
   166     010E                     	;# 
   167     0111                     	;# 
   168     0112                     	;# 
   169     0113                     	;# 
   170     0114                     	;# 
   171     0115                     	;# 
   172     0116                     	;# 
   173     0117                     	;# 
   174     0118                     	;# 
   175     0119                     	;# 
   176     011A                     	;# 
   177     011B                     	;# 
   178     011B                     	;# 
   179     011C                     	;# 
   180     018C                     	;# 
   181     018D                     	;# 
   182     018E                     	;# 
   183     0191                     	;# 
   184     0191                     	;# 
   185     0192                     	;# 
   186     0193                     	;# 
   187     0193                     	;# 
   188     0194                     	;# 
   189     0195                     	;# 
   190     0196                     	;# 
   191     0197                     	;# 
   192     0199                     	;# 
   193     0199                     	;# 
   194     0199                     	;# 
   195     019A                     	;# 
   196     019A                     	;# 
   197     019A                     	;# 
   198     019B                     	;# 
   199     019B                     	;# 
   200     019B                     	;# 
   201     019B                     	;# 
   202     019B                     	;# 
   203     019C                     	;# 
   204     019C                     	;# 
   205     019C                     	;# 
   206     019D                     	;# 
   207     019D                     	;# 
   208     019D                     	;# 
   209     019E                     	;# 
   210     019E                     	;# 
   211     019E                     	;# 
   212     019F                     	;# 
   213     019F                     	;# 
   214     019F                     	;# 
   215     019F                     	;# 
   216     019F                     	;# 
   217     020C                     	;# 
   218     020D                     	;# 
   219     020E                     	;# 
   220     0210                     	;# 
   221     0211                     	;# 
   222     0211                     	;# 
   223     0212                     	;# 
   224     0212                     	;# 
   225     0213                     	;# 
   226     0213                     	;# 
   227     0214                     	;# 
   228     0214                     	;# 
   229     0215                     	;# 
   230     0215                     	;# 
   231     0215                     	;# 
   232     0215                     	;# 
   233     0216                     	;# 
   234     0216                     	;# 
   235     0217                     	;# 
   236     0217                     	;# 
   237     028C                     	;# 
   238     028D                     	;# 
   239     028E                     	;# 
   240     0291                     	;# 
   241     0291                     	;# 
   242     0292                     	;# 
   243     0293                     	;# 
   244     0293                     	;# 
   245     0298                     	;# 
   246     0298                     	;# 
   247     0299                     	;# 
   248     029A                     	;# 
   249     029A                     	;# 
   250     029E                     	;# 
   251     030C                     	;# 
   252     030D                     	;# 
   253     030E                     	;# 
   254     038C                     	;# 
   255     038D                     	;# 
   256     038E                     	;# 
   257     0390                     	;# 
   258     0391                     	;# 
   259     0392                     	;# 
   260     0393                     	;# 
   261     0394                     	;# 
   262     0395                     	;# 
   263     0396                     	;# 
   264     0397                     	;# 
   265     0398                     	;# 
   266     0399                     	;# 
   267     039D                     	;# 
   268     039E                     	;# 
   269     039F                     	;# 
   270     0415                     	;# 
   271     0416                     	;# 
   272     0417                     	;# 
   273     041C                     	;# 
   274     041D                     	;# 
   275     041E                     	;# 
   276     0498                     	;# 
   277     0498                     	;# 
   278     0499                     	;# 
   279     049A                     	;# 
   280     049B                     	;# 
   281     049B                     	;# 
   282     049C                     	;# 
   283     049D                     	;# 
   284     049E                     	;# 
   285     049F                     	;# 
   286     0511                     	;# 
   287     0515                     	;# 
   288     0617                     	;# 
   289     0618                     	;# 
   290     0619                     	;# 
   291     0619                     	;# 
   292     061A                     	;# 
   293     061B                     	;# 
   294     061C                     	;# 
   295     061C                     	;# 
   296     0691                     	;# 
   297     0692                     	;# 
   298     0693                     	;# 
   299     0694                     	;# 
   300     0695                     	;# 
   301     0696                     	;# 
   302     0697                     	;# 
   303     0698                     	;# 
   304     0699                     	;# 
   305     069A                     	;# 
   306     069B                     	;# 
   307     069C                     	;# 
   308     069D                     	;# 
   309     069E                     	;# 
   310     069F                     	;# 
   311     0E0F                     	;# 
   312     0E10                     	;# 
   313     0E11                     	;# 
   314     0E12                     	;# 
   315     0E13                     	;# 
   316     0E14                     	;# 
   317     0E15                     	;# 
   318     0E17                     	;# 
   319     0E20                     	;# 
   320     0E21                     	;# 
   321     0E22                     	;# 
   322     0E24                     	;# 
   323     0E25                     	;# 
   324     0E28                     	;# 
   325     0E29                     	;# 
   326     0E2A                     	;# 
   327     0E2B                     	;# 
   328     0E90                     	;# 
   329     0E91                     	;# 
   330     0E92                     	;# 
   331     0E93                     	;# 
   332     0E94                     	;# 
   333     0E95                     	;# 
   334     0E96                     	;# 
   335     0E97                     	;# 
   336     0E98                     	;# 
   337     0E99                     	;# 
   338     0E9A                     	;# 
   339     0E9B                     	;# 
   340     0E9C                     	;# 
   341     0E9D                     	;# 
   342     0E9E                     	;# 
   343     0E9F                     	;# 
   344     0EA0                     	;# 
   345     0EA1                     	;# 
   346     0EA2                     	;# 
   347     0EA3                     	;# 
   348     0EA4                     	;# 
   349     0EA5                     	;# 
   350     0EA6                     	;# 
   351     0EA7                     	;# 
   352     0F0F                     	;# 
   353     0F10                     	;# 
   354     0F11                     	;# 
   355     0F12                     	;# 
   356     0F13                     	;# 
   357     0F14                     	;# 
   358     0F15                     	;# 
   359     0F16                     	;# 
   360     0F17                     	;# 
   361     0F18                     	;# 
   362     0F19                     	;# 
   363     0F1A                     	;# 
   364     0F1B                     	;# 
   365     0F1C                     	;# 
   366     0F1D                     	;# 
   367     0F1E                     	;# 
   368     0F1F                     	;# 
   369     0F20                     	;# 
   370     0F21                     	;# 
   371     0F22                     	;# 
   372     0F23                     	;# 
   373     0F24                     	;# 
   374     0F25                     	;# 
   375     0F26                     	;# 
   376     0F27                     	;# 
   377     0F28                     	;# 
   378     0F29                     	;# 
   379     0F2A                     	;# 
   380     0F2B                     	;# 
   381     0F2C                     	;# 
   382     0F2D                     	;# 
   383     0F2E                     	;# 
   384     0F2F                     	;# 
   385     0F30                     	;# 
   386     0F31                     	;# 
   387     0F32                     	;# 
   388     0F33                     	;# 
   389     0F34                     	;# 
   390     0F35                     	;# 
   391     0F36                     	;# 
   392     0F37                     	;# 
   393     0FE4                     	;# 
   394     0FE5                     	;# 
   395     0FE6                     	;# 
   396     0FE7                     	;# 
   397     0FE8                     	;# 
   398     0FE9                     	;# 
   399     0FEA                     	;# 
   400     0FEB                     	;# 
   401     0FED                     	;# 
   402     0FEE                     	;# 
   403     0FEF                     	;# 
   404     0000                     	;# 
   405     0001                     	;# 
   406     0002                     	;# 
   407     0003                     	;# 
   408     0004                     	;# 
   409     0005                     	;# 
   410     0006                     	;# 
   411     0007                     	;# 
   412     0008                     	;# 
   413     0009                     	;# 
   414     000A                     	;# 
   415     000B                     	;# 
   416     000C                     	;# 
   417     000D                     	;# 
   418     000E                     	;# 
   419     0010                     	;# 
   420     0011                     	;# 
   421     0012                     	;# 
   422     0013                     	;# 
   423     0015                     	;# 
   424     0016                     	;# 
   425     0016                     	;# 
   426     0017                     	;# 
   427     0018                     	;# 
   428     0019                     	;# 
   429     001A                     	;# 
   430     001B                     	;# 
   431     001C                     	;# 
   432     008C                     	;# 
   433     008D                     	;# 
   434     008E                     	;# 
   435     0090                     	;# 
   436     0091                     	;# 
   437     0092                     	;# 
   438     0093                     	;# 
   439     0095                     	;# 
   440     0096                     	;# 
   441     0097                     	;# 
   442     0098                     	;# 
   443     0099                     	;# 
   444     009A                     	;# 
   445     009B                     	;# 
   446     009B                     	;# 
   447     009C                     	;# 
   448     009D                     	;# 
   449     009E                     	;# 
   450     009F                     	;# 
   451     010C                     	;# 
   452     010D                     	;# 
   453     010E                     	;# 
   454     0111                     	;# 
   455     0112                     	;# 
   456     0113                     	;# 
   457     0114                     	;# 
   458     0115                     	;# 
   459     0116                     	;# 
   460     0117                     	;# 
   461     0118                     	;# 
   462     0119                     	;# 
   463     011A                     	;# 
   464     011B                     	;# 
   465     011B                     	;# 
   466     011C                     	;# 
   467     018C                     	;# 
   468     018D                     	;# 
   469     018E                     	;# 
   470     0191                     	;# 
   471     0191                     	;# 
   472     0192                     	;# 
   473     0193                     	;# 
   474     0193                     	;# 
   475     0194                     	;# 
   476     0195                     	;# 
   477     0196                     	;# 
   478     0197                     	;# 
   479     0199                     	;# 
   480     0199                     	;# 
   481     0199                     	;# 
   482     019A                     	;# 
   483     019A                     	;# 
   484     019A                     	;# 
   485     019B                     	;# 
   486     019B                     	;# 
   487     019B                     	;# 
   488     019B                     	;# 
   489     019B                     	;# 
   490     019C                     	;# 
   491     019C                     	;# 
   492     019C                     	;# 
   493     019D                     	;# 
   494     019D                     	;# 
   495     019D                     	;# 
   496     019E                     	;# 
   497     019E                     	;# 
   498     019E                     	;# 
   499     019F                     	;# 
   500     019F                     	;# 
   501     019F                     	;# 
   502     019F                     	;# 
   503     019F                     	;# 
   504     020C                     	;# 
   505     020D                     	;# 
   506     020E                     	;# 
   507     0210                     	;# 
   508     0211                     	;# 
   509     0211                     	;# 
   510     0212                     	;# 
   511     0212                     	;# 
   512     0213                     	;# 
   513     0213                     	;# 
   514     0214                     	;# 
   515     0214                     	;# 
   516     0215                     	;# 
   517     0215                     	;# 
   518     0215                     	;# 
   519     0215                     	;# 
   520     0216                     	;# 
   521     0216                     	;# 
   522     0217                     	;# 
   523     0217                     	;# 
   524     028C                     	;# 
   525     028D                     	;# 
   526     028E                     	;# 
   527     0291                     	;# 
   528     0291                     	;# 
   529     0292                     	;# 
   530     0293                     	;# 
   531     0293                     	;# 
   532     0298                     	;# 
   533     0298                     	;# 
   534     0299                     	;# 
   535     029A                     	;# 
   536     029A                     	;# 
   537     029E                     	;# 
   538     030C                     	;# 
   539     030D                     	;# 
   540     030E                     	;# 
   541     038C                     	;# 
   542     038D                     	;# 
   543     038E                     	;# 
   544     0390                     	;# 
   545     0391                     	;# 
   546     0392                     	;# 
   547     0393                     	;# 
   548     0394                     	;# 
   549     0395                     	;# 
   550     0396                     	;# 
   551     0397                     	;# 
   552     0398                     	;# 
   553     0399                     	;# 
   554     039D                     	;# 
   555     039E                     	;# 
   556     039F                     	;# 
   557     0415                     	;# 
   558     0416                     	;# 
   559     0417                     	;# 
   560     041C                     	;# 
   561     041D                     	;# 
   562     041E                     	;# 
   563     0498                     	;# 
   564     0498                     	;# 
   565     0499                     	;# 
   566     049A                     	;# 
   567     049B                     	;# 
   568     049B                     	;# 
   569     049C                     	;# 
   570     049D                     	;# 
   571     049E                     	;# 
   572     049F                     	;# 
   573     0511                     	;# 
   574     0515                     	;# 
   575     0617                     	;# 
   576     0618                     	;# 
   577     0619                     	;# 
   578     0619                     	;# 
   579     061A                     	;# 
   580     061B                     	;# 
   581     061C                     	;# 
   582     061C                     	;# 
   583     0691                     	;# 
   584     0692                     	;# 
   585     0693                     	;# 
   586     0694                     	;# 
   587     0695                     	;# 
   588     0696                     	;# 
   589     0697                     	;# 
   590     0698                     	;# 
   591     0699                     	;# 
   592     069A                     	;# 
   593     069B                     	;# 
   594     069C                     	;# 
   595     069D                     	;# 
   596     069E                     	;# 
   597     069F                     	;# 
   598     0E0F                     	;# 
   599     0E10                     	;# 
   600     0E11                     	;# 
   601     0E12                     	;# 
   602     0E13                     	;# 
   603     0E14                     	;# 
   604     0E15                     	;# 
   605     0E17                     	;# 
   606     0E20                     	;# 
   607     0E21                     	;# 
   608     0E22                     	;# 
   609     0E24                     	;# 
   610     0E25                     	;# 
   611     0E28                     	;# 
   612     0E29                     	;# 
   613     0E2A                     	;# 
   614     0E2B                     	;# 
   615     0E90                     	;# 
   616     0E91                     	;# 
   617     0E92                     	;# 
   618     0E93                     	;# 
   619     0E94                     	;# 
   620     0E95                     	;# 
   621     0E96                     	;# 
   622     0E97                     	;# 
   623     0E98                     	;# 
   624     0E99                     	;# 
   625     0E9A                     	;# 
   626     0E9B                     	;# 
   627     0E9C                     	;# 
   628     0E9D                     	;# 
   629     0E9E                     	;# 
   630     0E9F                     	;# 
   631     0EA0                     	;# 
   632     0EA1                     	;# 
   633     0EA2                     	;# 
   634     0EA3                     	;# 
   635     0EA4                     	;# 
   636     0EA5                     	;# 
   637     0EA6                     	;# 
   638     0EA7                     	;# 
   639     0F0F                     	;# 
   640     0F10                     	;# 
   641     0F11                     	;# 
   642     0F12                     	;# 
   643     0F13                     	;# 
   644     0F14                     	;# 
   645     0F15                     	;# 
   646     0F16                     	;# 
   647     0F17                     	;# 
   648     0F18                     	;# 
   649     0F19                     	;# 
   650     0F1A                     	;# 
   651     0F1B                     	;# 
   652     0F1C                     	;# 
   653     0F1D                     	;# 
   654     0F1E                     	;# 
   655     0F1F                     	;# 
   656     0F20                     	;# 
   657     0F21                     	;# 
   658     0F22                     	;# 
   659     0F23                     	;# 
   660     0F24                     	;# 
   661     0F25                     	;# 
   662     0F26                     	;# 
   663     0F27                     	;# 
   664     0F28                     	;# 
   665     0F29                     	;# 
   666     0F2A                     	;# 
   667     0F2B                     	;# 
   668     0F2C                     	;# 
   669     0F2D                     	;# 
   670     0F2E                     	;# 
   671     0F2F                     	;# 
   672     0F30                     	;# 
   673     0F31                     	;# 
   674     0F32                     	;# 
   675     0F33                     	;# 
   676     0F34                     	;# 
   677     0F35                     	;# 
   678     0F36                     	;# 
   679     0F37                     	;# 
   680     0FE4                     	;# 
   681     0FE5                     	;# 
   682     0FE6                     	;# 
   683     0FE7                     	;# 
   684     0FE8                     	;# 
   685     0FE9                     	;# 
   686     0FEA                     	;# 
   687     0FEB                     	;# 
   688     0FED                     	;# 
   689     0FEE                     	;# 
   690     0FEF                     	;# 
   691     0000                     	;# 
   692     0001                     	;# 
   693     0002                     	;# 
   694     0003                     	;# 
   695     0004                     	;# 
   696     0005                     	;# 
   697     0006                     	;# 
   698     0007                     	;# 
   699     0008                     	;# 
   700     0009                     	;# 
   701     000A                     	;# 
   702     000B                     	;# 
   703     000C                     	;# 
   704     000D                     	;# 
   705     000E                     	;# 
   706     0010                     	;# 
   707     0011                     	;# 
   708     0012                     	;# 
   709     0013                     	;# 
   710     0015                     	;# 
   711     0016                     	;# 
   712     0016                     	;# 
   713     0017                     	;# 
   714     0018                     	;# 
   715     0019                     	;# 
   716     001A                     	;# 
   717     001B                     	;# 
   718     001C                     	;# 
   719     008C                     	;# 
   720     008D                     	;# 
   721     008E                     	;# 
   722     0090                     	;# 
   723     0091                     	;# 
   724     0092                     	;# 
   725     0093                     	;# 
   726     0095                     	;# 
   727     0096                     	;# 
   728     0097                     	;# 
   729     0098                     	;# 
   730     0099                     	;# 
   731     009A                     	;# 
   732     009B                     	;# 
   733     009B                     	;# 
   734     009C                     	;# 
   735     009D                     	;# 
   736     009E                     	;# 
   737     009F                     	;# 
   738     010C                     	;# 
   739     010D                     	;# 
   740     010E                     	;# 
   741     0111                     	;# 
   742     0112                     	;# 
   743     0113                     	;# 
   744     0114                     	;# 
   745     0115                     	;# 
   746     0116                     	;# 
   747     0117                     	;# 
   748     0118                     	;# 
   749     0119                     	;# 
   750     011A                     	;# 
   751     011B                     	;# 
   752     011B                     	;# 
   753     011C                     	;# 
   754     018C                     	;# 
   755     018D                     	;# 
   756     018E                     	;# 
   757     0191                     	;# 
   758     0191                     	;# 
   759     0192                     	;# 
   760     0193                     	;# 
   761     0193                     	;# 
   762     0194                     	;# 
   763     0195                     	;# 
   764     0196                     	;# 
   765     0197                     	;# 
   766     0199                     	;# 
   767     0199                     	;# 
   768     0199                     	;# 
   769     019A                     	;# 
   770     019A                     	;# 
   771     019A                     	;# 
   772     019B                     	;# 
   773     019B                     	;# 
   774     019B                     	;# 
   775     019B                     	;# 
   776     019B                     	;# 
   777     019C                     	;# 
   778     019C                     	;# 
   779     019C                     	;# 
   780     019D                     	;# 
   781     019D                     	;# 
   782     019D                     	;# 
   783     019E                     	;# 
   784     019E                     	;# 
   785     019E                     	;# 
   786     019F                     	;# 
   787     019F                     	;# 
   788     019F                     	;# 
   789     019F                     	;# 
   790     019F                     	;# 
   791     020C                     	;# 
   792     020D                     	;# 
   793     020E                     	;# 
   794     0210                     	;# 
   795     0211                     	;# 
   796     0211                     	;# 
   797     0212                     	;# 
   798     0212                     	;# 
   799     0213                     	;# 
   800     0213                     	;# 
   801     0214                     	;# 
   802     0214                     	;# 
   803     0215                     	;# 
   804     0215                     	;# 
   805     0215                     	;# 
   806     0215                     	;# 
   807     0216                     	;# 
   808     0216                     	;# 
   809     0217                     	;# 
   810     0217                     	;# 
   811     028C                     	;# 
   812     028D                     	;# 
   813     028E                     	;# 
   814     0291                     	;# 
   815     0291                     	;# 
   816     0292                     	;# 
   817     0293                     	;# 
   818     0293                     	;# 
   819     0298                     	;# 
   820     0298                     	;# 
   821     0299                     	;# 
   822     029A                     	;# 
   823     029A                     	;# 
   824     029E                     	;# 
   825     030C                     	;# 
   826     030D                     	;# 
   827     030E                     	;# 
   828     038C                     	;# 
   829     038D                     	;# 
   830     038E                     	;# 
   831     0390                     	;# 
   832     0391                     	;# 
   833     0392                     	;# 
   834     0393                     	;# 
   835     0394                     	;# 
   836     0395                     	;# 
   837     0396                     	;# 
   838     0397                     	;# 
   839     0398                     	;# 
   840     0399                     	;# 
   841     039D                     	;# 
   842     039E                     	;# 
   843     039F                     	;# 
   844     0415                     	;# 
   845     0416                     	;# 
   846     0417                     	;# 
   847     041C                     	;# 
   848     041D                     	;# 
   849     041E                     	;# 
   850     0498                     	;# 
   851     0498                     	;# 
   852     0499                     	;# 
   853     049A                     	;# 
   854     049B                     	;# 
   855     049B                     	;# 
   856     049C                     	;# 
   857     049D                     	;# 
   858     049E                     	;# 
   859     049F                     	;# 
   860     0511                     	;# 
   861     0515                     	;# 
   862     0617                     	;# 
   863     0618                     	;# 
   864     0619                     	;# 
   865     0619                     	;# 
   866     061A                     	;# 
   867     061B                     	;# 
   868     061C                     	;# 
   869     061C                     	;# 
   870     0691                     	;# 
   871     0692                     	;# 
   872     0693                     	;# 
   873     0694                     	;# 
   874     0695                     	;# 
   875     0696                     	;# 
   876     0697                     	;# 
   877     0698                     	;# 
   878     0699                     	;# 
   879     069A                     	;# 
   880     069B                     	;# 
   881     069C                     	;# 
   882     069D                     	;# 
   883     069E                     	;# 
   884     069F                     	;# 
   885     0E0F                     	;# 
   886     0E10                     	;# 
   887     0E11                     	;# 
   888     0E12                     	;# 
   889     0E13                     	;# 
   890     0E14                     	;# 
   891     0E15                     	;# 
   892     0E17                     	;# 
   893     0E20                     	;# 
   894     0E21                     	;# 
   895     0E22                     	;# 
   896     0E24                     	;# 
   897     0E25                     	;# 
   898     0E28                     	;# 
   899     0E29                     	;# 
   900     0E2A                     	;# 
   901     0E2B                     	;# 
   902     0E90                     	;# 
   903     0E91                     	;# 
   904     0E92                     	;# 
   905     0E93                     	;# 
   906     0E94                     	;# 
   907     0E95                     	;# 
   908     0E96                     	;# 
   909     0E97                     	;# 
   910     0E98                     	;# 
   911     0E99                     	;# 
   912     0E9A                     	;# 
   913     0E9B                     	;# 
   914     0E9C                     	;# 
   915     0E9D                     	;# 
   916     0E9E                     	;# 
   917     0E9F                     	;# 
   918     0EA0                     	;# 
   919     0EA1                     	;# 
   920     0EA2                     	;# 
   921     0EA3                     	;# 
   922     0EA4                     	;# 
   923     0EA5                     	;# 
   924     0EA6                     	;# 
   925     0EA7                     	;# 
   926     0F0F                     	;# 
   927     0F10                     	;# 
   928     0F11                     	;# 
   929     0F12                     	;# 
   930     0F13                     	;# 
   931     0F14                     	;# 
   932     0F15                     	;# 
   933     0F16                     	;# 
   934     0F17                     	;# 
   935     0F18                     	;# 
   936     0F19                     	;# 
   937     0F1A                     	;# 
   938     0F1B                     	;# 
   939     0F1C                     	;# 
   940     0F1D                     	;# 
   941     0F1E                     	;# 
   942     0F1F                     	;# 
   943     0F20                     	;# 
   944     0F21                     	;# 
   945     0F22                     	;# 
   946     0F23                     	;# 
   947     0F24                     	;# 
   948     0F25                     	;# 
   949     0F26                     	;# 
   950     0F27                     	;# 
   951     0F28                     	;# 
   952     0F29                     	;# 
   953     0F2A                     	;# 
   954     0F2B                     	;# 
   955     0F2C                     	;# 
   956     0F2D                     	;# 
   957     0F2E                     	;# 
   958     0F2F                     	;# 
   959     0F30                     	;# 
   960     0F31                     	;# 
   961     0F32                     	;# 
   962     0F33                     	;# 
   963     0F34                     	;# 
   964     0F35                     	;# 
   965     0F36                     	;# 
   966     0F37                     	;# 
   967     0FE4                     	;# 
   968     0FE5                     	;# 
   969     0FE6                     	;# 
   970     0FE7                     	;# 
   971     0FE8                     	;# 
   972     0FE9                     	;# 
   973     0FEA                     	;# 
   974     0FEB                     	;# 
   975     0FED                     	;# 
   976     0FEE                     	;# 
   977     0FEF                     	;# 
   978     0000                     	;# 
   979     0001                     	;# 
   980     0002                     	;# 
   981     0003                     	;# 
   982     0004                     	;# 
   983     0005                     	;# 
   984     0006                     	;# 
   985     0007                     	;# 
   986     0008                     	;# 
   987     0009                     	;# 
   988     000A                     	;# 
   989     000B                     	;# 
   990     000C                     	;# 
   991     000D                     	;# 
   992     000E                     	;# 
   993     0010                     	;# 
   994     0011                     	;# 
   995     0012                     	;# 
   996     0013                     	;# 
   997     0015                     	;# 
   998     0016                     	;# 
   999     0016                     	;# 
  1000     0017                     	;# 
  1001     0018                     	;# 
  1002     0019                     	;# 
  1003     001A                     	;# 
  1004     001B                     	;# 
  1005     001C                     	;# 
  1006     008C                     	;# 
  1007     008D                     	;# 
  1008     008E                     	;# 
  1009     0090                     	;# 
  1010     0091                     	;# 
  1011     0092                     	;# 
  1012     0093                     	;# 
  1013     0095                     	;# 
  1014     0096                     	;# 
  1015     0097                     	;# 
  1016     0098                     	;# 
  1017     0099                     	;# 
  1018     009A                     	;# 
  1019     009B                     	;# 
  1020     009B                     	;# 
  1021     009C                     	;# 
  1022     009D                     	;# 
  1023     009E                     	;# 
  1024     009F                     	;# 
  1025     010C                     	;# 
  1026     010D                     	;# 
  1027     010E                     	;# 
  1028     0111                     	;# 
  1029     0112                     	;# 
  1030     0113                     	;# 
  1031     0114                     	;# 
  1032     0115                     	;# 
  1033     0116                     	;# 
  1034     0117                     	;# 
  1035     0118                     	;# 
  1036     0119                     	;# 
  1037     011A                     	;# 
  1038     011B                     	;# 
  1039     011B                     	;# 
  1040     011C                     	;# 
  1041     018C                     	;# 
  1042     018D                     	;# 
  1043     018E                     	;# 
  1044     0191                     	;# 
  1045     0191                     	;# 
  1046     0192                     	;# 
  1047     0193                     	;# 
  1048     0193                     	;# 
  1049     0194                     	;# 
  1050     0195                     	;# 
  1051     0196                     	;# 
  1052     0197                     	;# 
  1053     0199                     	;# 
  1054     0199                     	;# 
  1055     0199                     	;# 
  1056     019A                     	;# 
  1057     019A                     	;# 
  1058     019A                     	;# 
  1059     019B                     	;# 
  1060     019B                     	;# 
  1061     019B                     	;# 
  1062     019B                     	;# 
  1063     019B                     	;# 
  1064     019C                     	;# 
  1065     019C                     	;# 
  1066     019C                     	;# 
  1067     019D                     	;# 
  1068     019D                     	;# 
  1069     019D                     	;# 
  1070     019E                     	;# 
  1071     019E                     	;# 
  1072     019E                     	;# 
  1073     019F                     	;# 
  1074     019F                     	;# 
  1075     019F                     	;# 
  1076     019F                     	;# 
  1077     019F                     	;# 
  1078     020C                     	;# 
  1079     020D                     	;# 
  1080     020E                     	;# 
  1081     0210                     	;# 
  1082     0211                     	;# 
  1083     0211                     	;# 
  1084     0212                     	;# 
  1085     0212                     	;# 
  1086     0213                     	;# 
  1087     0213                     	;# 
  1088     0214                     	;# 
  1089     0214                     	;# 
  1090     0215                     	;# 
  1091     0215                     	;# 
  1092     0215                     	;# 
  1093     0215                     	;# 
  1094     0216                     	;# 
  1095     0216                     	;# 
  1096     0217                     	;# 
  1097     0217                     	;# 
  1098     028C                     	;# 
  1099     028D                     	;# 
  1100     028E                     	;# 
  1101     0291                     	;# 
  1102     0291                     	;# 
  1103     0292                     	;# 
  1104     0293                     	;# 
  1105     0293                     	;# 
  1106     0298                     	;# 
  1107     0298                     	;# 
  1108     0299                     	;# 
  1109     029A                     	;# 
  1110     029A                     	;# 
  1111     029E                     	;# 
  1112     030C                     	;# 
  1113     030D                     	;# 
  1114     030E                     	;# 
  1115     038C                     	;# 
  1116     038D                     	;# 
  1117     038E                     	;# 
  1118     0390                     	;# 
  1119     0391                     	;# 
  1120     0392                     	;# 
  1121     0393                     	;# 
  1122     0394                     	;# 
  1123     0395                     	;# 
  1124     0396                     	;# 
  1125     0397                     	;# 
  1126     0398                     	;# 
  1127     0399                     	;# 
  1128     039D                     	;# 
  1129     039E                     	;# 
  1130     039F                     	;# 
  1131     0415                     	;# 
  1132     0416                     	;# 
  1133     0417                     	;# 
  1134     041C                     	;# 
  1135     041D                     	;# 
  1136     041E                     	;# 
  1137     0498                     	;# 
  1138     0498                     	;# 
  1139     0499                     	;# 
  1140     049A                     	;# 
  1141     049B                     	;# 
  1142     049B                     	;# 
  1143     049C                     	;# 
  1144     049D                     	;# 
  1145     049E                     	;# 
  1146     049F                     	;# 
  1147     0511                     	;# 
  1148     0515                     	;# 
  1149     0617                     	;# 
  1150     0618                     	;# 
  1151     0619                     	;# 
  1152     0619                     	;# 
  1153     061A                     	;# 
  1154     061B                     	;# 
  1155     061C                     	;# 
  1156     061C                     	;# 
  1157     0691                     	;# 
  1158     0692                     	;# 
  1159     0693                     	;# 
  1160     0694                     	;# 
  1161     0695                     	;# 
  1162     0696                     	;# 
  1163     0697                     	;# 
  1164     0698                     	;# 
  1165     0699                     	;# 
  1166     069A                     	;# 
  1167     069B                     	;# 
  1168     069C                     	;# 
  1169     069D                     	;# 
  1170     069E                     	;# 
  1171     069F                     	;# 
  1172     0E0F                     	;# 
  1173     0E10                     	;# 
  1174     0E11                     	;# 
  1175     0E12                     	;# 
  1176     0E13                     	;# 
  1177     0E14                     	;# 
  1178     0E15                     	;# 
  1179     0E17                     	;# 
  1180     0E20                     	;# 
  1181     0E21                     	;# 
  1182     0E22                     	;# 
  1183     0E24                     	;# 
  1184     0E25                     	;# 
  1185     0E28                     	;# 
  1186     0E29                     	;# 
  1187     0E2A                     	;# 
  1188     0E2B                     	;# 
  1189     0E90                     	;# 
  1190     0E91                     	;# 
  1191     0E92                     	;# 
  1192     0E93                     	;# 
  1193     0E94                     	;# 
  1194     0E95                     	;# 
  1195     0E96                     	;# 
  1196     0E97                     	;# 
  1197     0E98                     	;# 
  1198     0E99                     	;# 
  1199     0E9A                     	;# 
  1200     0E9B                     	;# 
  1201     0E9C                     	;# 
  1202     0E9D                     	;# 
  1203     0E9E                     	;# 
  1204     0E9F                     	;# 
  1205     0EA0                     	;# 
  1206     0EA1                     	;# 
  1207     0EA2                     	;# 
  1208     0EA3                     	;# 
  1209     0EA4                     	;# 
  1210     0EA5                     	;# 
  1211     0EA6                     	;# 
  1212     0EA7                     	;# 
  1213     0F0F                     	;# 
  1214     0F10                     	;# 
  1215     0F11                     	;# 
  1216     0F12                     	;# 
  1217     0F13                     	;# 
  1218     0F14                     	;# 
  1219     0F15                     	;# 
  1220     0F16                     	;# 
  1221     0F17                     	;# 
  1222     0F18                     	;# 
  1223     0F19                     	;# 
  1224     0F1A                     	;# 
  1225     0F1B                     	;# 
  1226     0F1C                     	;# 
  1227     0F1D                     	;# 
  1228     0F1E                     	;# 
  1229     0F1F                     	;# 
  1230     0F20                     	;# 
  1231     0F21                     	;# 
  1232     0F22                     	;# 
  1233     0F23                     	;# 
  1234     0F24                     	;# 
  1235     0F25                     	;# 
  1236     0F26                     	;# 
  1237     0F27                     	;# 
  1238     0F28                     	;# 
  1239     0F29                     	;# 
  1240     0F2A                     	;# 
  1241     0F2B                     	;# 
  1242     0F2C                     	;# 
  1243     0F2D                     	;# 
  1244     0F2E                     	;# 
  1245     0F2F                     	;# 
  1246     0F30                     	;# 
  1247     0F31                     	;# 
  1248     0F32                     	;# 
  1249     0F33                     	;# 
  1250     0F34                     	;# 
  1251     0F35                     	;# 
  1252     0F36                     	;# 
  1253     0F37                     	;# 
  1254     0FE4                     	;# 
  1255     0FE5                     	;# 
  1256     0FE6                     	;# 
  1257     0FE7                     	;# 
  1258     0FE8                     	;# 
  1259     0FE9                     	;# 
  1260     0FEA                     	;# 
  1261     0FEB                     	;# 
  1262     0FED                     	;# 
  1263     0FEE                     	;# 
  1264     0FEF                     	;# 
  1265     0000                     	;# 
  1266     0001                     	;# 
  1267     0002                     	;# 
  1268     0003                     	;# 
  1269     0004                     	;# 
  1270     0005                     	;# 
  1271     0006                     	;# 
  1272     0007                     	;# 
  1273     0008                     	;# 
  1274     0009                     	;# 
  1275     000A                     	;# 
  1276     000B                     	;# 
  1277     000C                     	;# 
  1278     000D                     	;# 
  1279     000E                     	;# 
  1280     0010                     	;# 
  1281     0011                     	;# 
  1282     0012                     	;# 
  1283     0013                     	;# 
  1284     0015                     	;# 
  1285     0016                     	;# 
  1286     0016                     	;# 
  1287     0017                     	;# 
  1288     0018                     	;# 
  1289     0019                     	;# 
  1290     001A                     	;# 
  1291     001B                     	;# 
  1292     001C                     	;# 
  1293     008C                     	;# 
  1294     008D                     	;# 
  1295     008E                     	;# 
  1296     0090                     	;# 
  1297     0091                     	;# 
  1298     0092                     	;# 
  1299     0093                     	;# 
  1300     0095                     	;# 
  1301     0096                     	;# 
  1302     0097                     	;# 
  1303     0098                     	;# 
  1304     0099                     	;# 
  1305     009A                     	;# 
  1306     009B                     	;# 
  1307     009B                     	;# 
  1308     009C                     	;# 
  1309     009D                     	;# 
  1310     009E                     	;# 
  1311     009F                     	;# 
  1312     010C                     	;# 
  1313     010D                     	;# 
  1314     010E                     	;# 
  1315     0111                     	;# 
  1316     0112                     	;# 
  1317     0113                     	;# 
  1318     0114                     	;# 
  1319     0115                     	;# 
  1320     0116                     	;# 
  1321     0117                     	;# 
  1322     0118                     	;# 
  1323     0119                     	;# 
  1324     011A                     	;# 
  1325     011B                     	;# 
  1326     011B                     	;# 
  1327     011C                     	;# 
  1328     018C                     	;# 
  1329     018D                     	;# 
  1330     018E                     	;# 
  1331     0191                     	;# 
  1332     0191                     	;# 
  1333     0192                     	;# 
  1334     0193                     	;# 
  1335     0193                     	;# 
  1336     0194                     	;# 
  1337     0195                     	;# 
  1338     0196                     	;# 
  1339     0197                     	;# 
  1340     0199                     	;# 
  1341     0199                     	;# 
  1342     0199                     	;# 
  1343     019A                     	;# 
  1344     019A                     	;# 
  1345     019A                     	;# 
  1346     019B                     	;# 
  1347     019B                     	;# 
  1348     019B                     	;# 
  1349     019B                     	;# 
  1350     019B                     	;# 
  1351     019C                     	;# 
  1352     019C                     	;# 
  1353     019C                     	;# 
  1354     019D                     	;# 
  1355     019D                     	;# 
  1356     019D                     	;# 
  1357     019E                     	;# 
  1358     019E                     	;# 
  1359     019E                     	;# 
  1360     019F                     	;# 
  1361     019F                     	;# 
  1362     019F                     	;# 
  1363     019F                     	;# 
  1364     019F                     	;# 
  1365     020C                     	;# 
  1366     020D                     	;# 
  1367     020E                     	;# 
  1368     0210                     	;# 
  1369     0211                     	;# 
  1370     0211                     	;# 
  1371     0212                     	;# 
  1372     0212                     	;# 
  1373     0213                     	;# 
  1374     0213                     	;# 
  1375     0214                     	;# 
  1376     0214                     	;# 
  1377     0215                     	;# 
  1378     0215                     	;# 
  1379     0215                     	;# 
  1380     0215                     	;# 
  1381     0216                     	;# 
  1382     0216                     	;# 
  1383     0217                     	;# 
  1384     0217                     	;# 
  1385     028C                     	;# 
  1386     028D                     	;# 
  1387     028E                     	;# 
  1388     0291                     	;# 
  1389     0291                     	;# 
  1390     0292                     	;# 
  1391     0293                     	;# 
  1392     0293                     	;# 
  1393     0298                     	;# 
  1394     0298                     	;# 
  1395     0299                     	;# 
  1396     029A                     	;# 
  1397     029A                     	;# 
  1398     029E                     	;# 
  1399     030C                     	;# 
  1400     030D                     	;# 
  1401     030E                     	;# 
  1402     038C                     	;# 
  1403     038D                     	;# 
  1404     038E                     	;# 
  1405     0390                     	;# 
  1406     0391                     	;# 
  1407     0392                     	;# 
  1408     0393                     	;# 
  1409     0394                     	;# 
  1410     0395                     	;# 
  1411     0396                     	;# 
  1412     0397                     	;# 
  1413     0398                     	;# 
  1414     0399                     	;# 
  1415     039D                     	;# 
  1416     039E                     	;# 
  1417     039F                     	;# 
  1418     0415                     	;# 
  1419     0416                     	;# 
  1420     0417                     	;# 
  1421     041C                     	;# 
  1422     041D                     	;# 
  1423     041E                     	;# 
  1424     0498                     	;# 
  1425     0498                     	;# 
  1426     0499                     	;# 
  1427     049A                     	;# 
  1428     049B                     	;# 
  1429     049B                     	;# 
  1430     049C                     	;# 
  1431     049D                     	;# 
  1432     049E                     	;# 
  1433     049F                     	;# 
  1434     0511                     	;# 
  1435     0515                     	;# 
  1436     0617                     	;# 
  1437     0618                     	;# 
  1438     0619                     	;# 
  1439     0619                     	;# 
  1440     061A                     	;# 
  1441     061B                     	;# 
  1442     061C                     	;# 
  1443     061C                     	;# 
  1444     0691                     	;# 
  1445     0692                     	;# 
  1446     0693                     	;# 
  1447     0694                     	;# 
  1448     0695                     	;# 
  1449     0696                     	;# 
  1450     0697                     	;# 
  1451     0698                     	;# 
  1452     0699                     	;# 
  1453     069A                     	;# 
  1454     069B                     	;# 
  1455     069C                     	;# 
  1456     069D                     	;# 
  1457     069E                     	;# 
  1458     069F                     	;# 
  1459     0E0F                     	;# 
  1460     0E10                     	;# 
  1461     0E11                     	;# 
  1462     0E12                     	;# 
  1463     0E13                     	;# 
  1464     0E14                     	;# 
  1465     0E15                     	;# 
  1466     0E17                     	;# 
  1467     0E20                     	;# 
  1468     0E21                     	;# 
  1469     0E22                     	;# 
  1470     0E24                     	;# 
  1471     0E25                     	;# 
  1472     0E28                     	;# 
  1473     0E29                     	;# 
  1474     0E2A                     	;# 
  1475     0E2B                     	;# 
  1476     0E90                     	;# 
  1477     0E91                     	;# 
  1478     0E92                     	;# 
  1479     0E93                     	;# 
  1480     0E94                     	;# 
  1481     0E95                     	;# 
  1482     0E96                     	;# 
  1483     0E97                     	;# 
  1484     0E98                     	;# 
  1485     0E99                     	;# 
  1486     0E9A                     	;# 
  1487     0E9B                     	;# 
  1488     0E9C                     	;# 
  1489     0E9D                     	;# 
  1490     0E9E                     	;# 
  1491     0E9F                     	;# 
  1492     0EA0                     	;# 
  1493     0EA1                     	;# 
  1494     0EA2                     	;# 
  1495     0EA3                     	;# 
  1496     0EA4                     	;# 
  1497     0EA5                     	;# 
  1498     0EA6                     	;# 
  1499     0EA7                     	;# 
  1500     0F0F                     	;# 
  1501     0F10                     	;# 
  1502     0F11                     	;# 
  1503     0F12                     	;# 
  1504     0F13                     	;# 
  1505     0F14                     	;# 
  1506     0F15                     	;# 
  1507     0F16                     	;# 
  1508     0F17                     	;# 
  1509     0F18                     	;# 
  1510     0F19                     	;# 
  1511     0F1A                     	;# 
  1512     0F1B                     	;# 
  1513     0F1C                     	;# 
  1514     0F1D                     	;# 
  1515     0F1E                     	;# 
  1516     0F1F                     	;# 
  1517     0F20                     	;# 
  1518     0F21                     	;# 
  1519     0F22                     	;# 
  1520     0F23                     	;# 
  1521     0F24                     	;# 
  1522     0F25                     	;# 
  1523     0F26                     	;# 
  1524     0F27                     	;# 
  1525     0F28                     	;# 
  1526     0F29                     	;# 
  1527     0F2A                     	;# 
  1528     0F2B                     	;# 
  1529     0F2C                     	;# 
  1530     0F2D                     	;# 
  1531     0F2E                     	;# 
  1532     0F2F                     	;# 
  1533     0F30                     	;# 
  1534     0F31                     	;# 
  1535     0F32                     	;# 
  1536     0F33                     	;# 
  1537     0F34                     	;# 
  1538     0F35                     	;# 
  1539     0F36                     	;# 
  1540     0F37                     	;# 
  1541     0FE4                     	;# 
  1542     0FE5                     	;# 
  1543     0FE6                     	;# 
  1544     0FE7                     	;# 
  1545     0FE8                     	;# 
  1546     0FE9                     	;# 
  1547     0FEA                     	;# 
  1548     0FEB                     	;# 
  1549     0FED                     	;# 
  1550     0FEE                     	;# 
  1551     0FEF                     	;_screen_buffer
  1552                           
  1553                           	psect	stringtext1
  1554     1825                     __pstringtext1:
  1555     1825                     _BatteryIcon:
  1556     1825  34FF               	retlw	255
  1557     1826  3481               	retlw	129
  1558     1827  34BD               	retlw	189
  1559     1828  34BD               	retlw	189
  1560     1829  34BD               	retlw	189
  1561     182A  3481               	retlw	129
  1562     182B  34FF               	retlw	255
  1563     182C  3418               	retlw	24
  1564     182D  3400               	retlw	0
  1565     182E  3400               	retlw	0
  1566     182F                     __end_of_BatteryIcon:
  1567                           
  1568                           	psect	stringtext2
  1569     0800                     __pstringtext2:
  1570     0800                     _OledFont:
  1571     0800  3400               	retlw	0
  1572     0801  3400               	retlw	0
  1573     0802  3400               	retlw	0
  1574     0803  3400               	retlw	0
  1575     0804  3400               	retlw	0
  1576     0805  3400               	retlw	0
  1577     0806  3400               	retlw	0
  1578     0807  3400               	retlw	0
  1579     0808  3400               	retlw	0
  1580     0809  3400               	retlw	0
  1581     080A  345F               	retlw	95
  1582     080B  3400               	retlw	0
  1583     080C  3400               	retlw	0
  1584     080D  3400               	retlw	0
  1585     080E  3400               	retlw	0
  1586     080F  3400               	retlw	0
  1587     0810  3400               	retlw	0
  1588     0811  3400               	retlw	0
  1589     0812  3407               	retlw	7
  1590     0813  3400               	retlw	0
  1591     0814  3407               	retlw	7
  1592     0815  3400               	retlw	0
  1593     0816  3400               	retlw	0
  1594     0817  3400               	retlw	0
  1595     0818  3400               	retlw	0
  1596     0819  3414               	retlw	20
  1597     081A  347F               	retlw	127
  1598     081B  3414               	retlw	20
  1599     081C  347F               	retlw	127
  1600     081D  3414               	retlw	20
  1601     081E  3400               	retlw	0
  1602     081F  3400               	retlw	0
  1603     0820  3400               	retlw	0
  1604     0821  3424               	retlw	36
  1605     0822  342A               	retlw	42
  1606     0823  347F               	retlw	127
  1607     0824  342A               	retlw	42
  1608     0825  3412               	retlw	18
  1609     0826  3400               	retlw	0
  1610     0827  3400               	retlw	0
  1611     0828  3400               	retlw	0
  1612     0829  3423               	retlw	35
  1613     082A  3413               	retlw	19
  1614     082B  3408               	retlw	8
  1615     082C  3464               	retlw	100
  1616     082D  3462               	retlw	98
  1617     082E  3400               	retlw	0
  1618     082F  3400               	retlw	0
  1619     0830  3400               	retlw	0
  1620     0831  3436               	retlw	54
  1621     0832  3449               	retlw	73
  1622     0833  3455               	retlw	85
  1623     0834  3422               	retlw	34
  1624     0835  3450               	retlw	80
  1625     0836  3400               	retlw	0
  1626     0837  3400               	retlw	0
  1627     0838  3400               	retlw	0
  1628     0839  3400               	retlw	0
  1629     083A  3405               	retlw	5
  1630     083B  3403               	retlw	3
  1631     083C  3400               	retlw	0
  1632     083D  3400               	retlw	0
  1633     083E  3400               	retlw	0
  1634     083F  3400               	retlw	0
  1635     0840  3400               	retlw	0
  1636     0841  341C               	retlw	28
  1637     0842  3422               	retlw	34
  1638     0843  3441               	retlw	65
  1639     0844  3400               	retlw	0
  1640     0845  3400               	retlw	0
  1641     0846  3400               	retlw	0
  1642     0847  3400               	retlw	0
  1643     0848  3400               	retlw	0
  1644     0849  3441               	retlw	65
  1645     084A  3422               	retlw	34
  1646     084B  341C               	retlw	28
  1647     084C  3400               	retlw	0
  1648     084D  3400               	retlw	0
  1649     084E  3400               	retlw	0
  1650     084F  3400               	retlw	0
  1651     0850  3400               	retlw	0
  1652     0851  3408               	retlw	8
  1653     0852  342A               	retlw	42
  1654     0853  341C               	retlw	28
  1655     0854  342A               	retlw	42
  1656     0855  3408               	retlw	8
  1657     0856  3400               	retlw	0
  1658     0857  3400               	retlw	0
  1659     0858  3400               	retlw	0
  1660     0859  3408               	retlw	8
  1661     085A  3408               	retlw	8
  1662     085B  343E               	retlw	62
  1663     085C  3408               	retlw	8
  1664     085D  3408               	retlw	8
  1665     085E  3400               	retlw	0
  1666     085F  3400               	retlw	0
  1667     0860  3400               	retlw	0
  1668     0861  34A0               	retlw	160
  1669     0862  3460               	retlw	96
  1670     0863  3400               	retlw	0
  1671     0864  3400               	retlw	0
  1672     0865  3400               	retlw	0
  1673     0866  3400               	retlw	0
  1674     0867  3400               	retlw	0
  1675     0868  3400               	retlw	0
  1676     0869  3408               	retlw	8
  1677     086A  3408               	retlw	8
  1678     086B  3408               	retlw	8
  1679     086C  3408               	retlw	8
  1680     086D  3408               	retlw	8
  1681     086E  3400               	retlw	0
  1682     086F  3400               	retlw	0
  1683     0870  3400               	retlw	0
  1684     0871  3460               	retlw	96
  1685     0872  3460               	retlw	96
  1686     0873  3400               	retlw	0
  1687     0874  3400               	retlw	0
  1688     0875  3400               	retlw	0
  1689     0876  3400               	retlw	0
  1690     0877  3400               	retlw	0
  1691     0878  3400               	retlw	0
  1692     0879  3420               	retlw	32
  1693     087A  3410               	retlw	16
  1694     087B  3408               	retlw	8
  1695     087C  3404               	retlw	4
  1696     087D  3402               	retlw	2
  1697     087E  3400               	retlw	0
  1698     087F  3400               	retlw	0
  1699     0880  3400               	retlw	0
  1700     0881  343E               	retlw	62
  1701     0882  3451               	retlw	81
  1702     0883  3449               	retlw	73
  1703     0884  3445               	retlw	69
  1704     0885  343E               	retlw	62
  1705     0886  3400               	retlw	0
  1706     0887  3400               	retlw	0
  1707     0888  3400               	retlw	0
  1708     0889  3400               	retlw	0
  1709     088A  3442               	retlw	66
  1710     088B  347F               	retlw	127
  1711     088C  3440               	retlw	64
  1712     088D  3400               	retlw	0
  1713     088E  3400               	retlw	0
  1714     088F  3400               	retlw	0
  1715     0890  3400               	retlw	0
  1716     0891  3462               	retlw	98
  1717     0892  3451               	retlw	81
  1718     0893  3449               	retlw	73
  1719     0894  3449               	retlw	73
  1720     0895  3446               	retlw	70
  1721     0896  3400               	retlw	0
  1722     0897  3400               	retlw	0
  1723     0898  3400               	retlw	0
  1724     0899  3422               	retlw	34
  1725     089A  3441               	retlw	65
  1726     089B  3449               	retlw	73
  1727     089C  3449               	retlw	73
  1728     089D  3436               	retlw	54
  1729     089E  3400               	retlw	0
  1730     089F  3400               	retlw	0
  1731     08A0  3400               	retlw	0
  1732     08A1  3418               	retlw	24
  1733     08A2  3414               	retlw	20
  1734     08A3  3412               	retlw	18
  1735     08A4  347F               	retlw	127
  1736     08A5  3410               	retlw	16
  1737     08A6  3400               	retlw	0
  1738     08A7  3400               	retlw	0
  1739     08A8  3400               	retlw	0
  1740     08A9  3427               	retlw	39
  1741     08AA  3445               	retlw	69
  1742     08AB  3445               	retlw	69
  1743     08AC  3445               	retlw	69
  1744     08AD  3439               	retlw	57
  1745     08AE  3400               	retlw	0
  1746     08AF  3400               	retlw	0
  1747     08B0  3400               	retlw	0
  1748     08B1  343C               	retlw	60
  1749     08B2  344A               	retlw	74
  1750     08B3  3449               	retlw	73
  1751     08B4  3449               	retlw	73
  1752     08B5  3430               	retlw	48
  1753     08B6  3400               	retlw	0
  1754     08B7  3400               	retlw	0
  1755     08B8  3400               	retlw	0
  1756     08B9  3401               	retlw	1
  1757     08BA  3471               	retlw	113
  1758     08BB  3409               	retlw	9
  1759     08BC  3405               	retlw	5
  1760     08BD  3403               	retlw	3
  1761     08BE  3400               	retlw	0
  1762     08BF  3400               	retlw	0
  1763     08C0  3400               	retlw	0
  1764     08C1  3436               	retlw	54
  1765     08C2  3449               	retlw	73
  1766     08C3  3449               	retlw	73
  1767     08C4  3449               	retlw	73
  1768     08C5  3436               	retlw	54
  1769     08C6  3400               	retlw	0
  1770     08C7  3400               	retlw	0
  1771     08C8  3400               	retlw	0
  1772     08C9  3406               	retlw	6
  1773     08CA  3449               	retlw	73
  1774     08CB  3449               	retlw	73
  1775     08CC  3429               	retlw	41
  1776     08CD  341E               	retlw	30
  1777     08CE  3400               	retlw	0
  1778     08CF  3400               	retlw	0
  1779     08D0  3400               	retlw	0
  1780     08D1  3400               	retlw	0
  1781     08D2  3436               	retlw	54
  1782     08D3  3436               	retlw	54
  1783     08D4  3400               	retlw	0
  1784     08D5  3400               	retlw	0
  1785     08D6  3400               	retlw	0
  1786     08D7  3400               	retlw	0
  1787     08D8  3400               	retlw	0
  1788     08D9  3400               	retlw	0
  1789     08DA  34AC               	retlw	172
  1790     08DB  346C               	retlw	108
  1791     08DC  3400               	retlw	0
  1792     08DD  3400               	retlw	0
  1793     08DE  3400               	retlw	0
  1794     08DF  3400               	retlw	0
  1795     08E0  3400               	retlw	0
  1796     08E1  3408               	retlw	8
  1797     08E2  3414               	retlw	20
  1798     08E3  3422               	retlw	34
  1799     08E4  3441               	retlw	65
  1800     08E5  3400               	retlw	0
  1801     08E6  3400               	retlw	0
  1802     08E7  3400               	retlw	0
  1803     08E8  3400               	retlw	0
  1804     08E9  3414               	retlw	20
  1805     08EA  3414               	retlw	20
  1806     08EB  3414               	retlw	20
  1807     08EC  3414               	retlw	20
  1808     08ED  3414               	retlw	20
  1809     08EE  3400               	retlw	0
  1810     08EF  3400               	retlw	0
  1811     08F0  3400               	retlw	0
  1812     08F1  3441               	retlw	65
  1813     08F2  3422               	retlw	34
  1814     08F3  3414               	retlw	20
  1815     08F4  3408               	retlw	8
  1816     08F5  3400               	retlw	0
  1817     08F6  3400               	retlw	0
  1818     08F7  3400               	retlw	0
  1819     08F8  3400               	retlw	0
  1820     08F9  3402               	retlw	2
  1821     08FA  3401               	retlw	1
  1822     08FB  3451               	retlw	81
  1823     08FC  3409               	retlw	9
  1824     08FD  3406               	retlw	6
  1825     08FE  3400               	retlw	0
  1826     08FF  3400               	retlw	0
  1827     0900  3400               	retlw	0
  1828     0901  3432               	retlw	50
  1829     0902  3449               	retlw	73
  1830     0903  3479               	retlw	121
  1831     0904  3441               	retlw	65
  1832     0905  343E               	retlw	62
  1833     0906  3400               	retlw	0
  1834     0907  3400               	retlw	0
  1835     0908  3400               	retlw	0
  1836     0909  347E               	retlw	126
  1837     090A  3409               	retlw	9
  1838     090B  3409               	retlw	9
  1839     090C  3409               	retlw	9
  1840     090D  347E               	retlw	126
  1841     090E  3400               	retlw	0
  1842     090F  3400               	retlw	0
  1843     0910  3400               	retlw	0
  1844     0911  347F               	retlw	127
  1845     0912  3449               	retlw	73
  1846     0913  3449               	retlw	73
  1847     0914  3449               	retlw	73
  1848     0915  3436               	retlw	54
  1849     0916  3400               	retlw	0
  1850     0917  3400               	retlw	0
  1851     0918  3400               	retlw	0
  1852     0919  343E               	retlw	62
  1853     091A  3441               	retlw	65
  1854     091B  3441               	retlw	65
  1855     091C  3441               	retlw	65
  1856     091D  3422               	retlw	34
  1857     091E  3400               	retlw	0
  1858     091F  3400               	retlw	0
  1859     0920  3400               	retlw	0
  1860     0921  347F               	retlw	127
  1861     0922  3441               	retlw	65
  1862     0923  3441               	retlw	65
  1863     0924  3422               	retlw	34
  1864     0925  341C               	retlw	28
  1865     0926  3400               	retlw	0
  1866     0927  3400               	retlw	0
  1867     0928  3400               	retlw	0
  1868     0929  347F               	retlw	127
  1869     092A  3449               	retlw	73
  1870     092B  3449               	retlw	73
  1871     092C  3449               	retlw	73
  1872     092D  3441               	retlw	65
  1873     092E  3400               	retlw	0
  1874     092F  3400               	retlw	0
  1875     0930  3400               	retlw	0
  1876     0931  347F               	retlw	127
  1877     0932  3409               	retlw	9
  1878     0933  3409               	retlw	9
  1879     0934  3409               	retlw	9
  1880     0935  3401               	retlw	1
  1881     0936  3400               	retlw	0
  1882     0937  3400               	retlw	0
  1883     0938  3400               	retlw	0
  1884     0939  343E               	retlw	62
  1885     093A  3441               	retlw	65
  1886     093B  3441               	retlw	65
  1887     093C  3451               	retlw	81
  1888     093D  3472               	retlw	114
  1889     093E  3400               	retlw	0
  1890     093F  3400               	retlw	0
  1891     0940  3400               	retlw	0
  1892     0941  347F               	retlw	127
  1893     0942  3408               	retlw	8
  1894     0943  3408               	retlw	8
  1895     0944  3408               	retlw	8
  1896     0945  347F               	retlw	127
  1897     0946  3400               	retlw	0
  1898     0947  3400               	retlw	0
  1899     0948  3400               	retlw	0
  1900     0949  3441               	retlw	65
  1901     094A  347F               	retlw	127
  1902     094B  3441               	retlw	65
  1903     094C  3400               	retlw	0
  1904     094D  3400               	retlw	0
  1905     094E  3400               	retlw	0
  1906     094F  3400               	retlw	0
  1907     0950  3400               	retlw	0
  1908     0951  3420               	retlw	32
  1909     0952  3440               	retlw	64
  1910     0953  3441               	retlw	65
  1911     0954  343F               	retlw	63
  1912     0955  3401               	retlw	1
  1913     0956  3400               	retlw	0
  1914     0957  3400               	retlw	0
  1915     0958  3400               	retlw	0
  1916     0959  347F               	retlw	127
  1917     095A  3408               	retlw	8
  1918     095B  3414               	retlw	20
  1919     095C  3422               	retlw	34
  1920     095D  3441               	retlw	65
  1921     095E  3400               	retlw	0
  1922     095F  3400               	retlw	0
  1923     0960  3400               	retlw	0
  1924     0961  347F               	retlw	127
  1925     0962  3440               	retlw	64
  1926     0963  3440               	retlw	64
  1927     0964  3440               	retlw	64
  1928     0965  3440               	retlw	64
  1929     0966  3400               	retlw	0
  1930     0967  3400               	retlw	0
  1931     0968  3400               	retlw	0
  1932     0969  347F               	retlw	127
  1933     096A  3402               	retlw	2
  1934     096B  340C               	retlw	12
  1935     096C  3402               	retlw	2
  1936     096D  347F               	retlw	127
  1937     096E  3400               	retlw	0
  1938     096F  3400               	retlw	0
  1939     0970  3400               	retlw	0
  1940     0971  347F               	retlw	127
  1941     0972  3404               	retlw	4
  1942     0973  3408               	retlw	8
  1943     0974  3410               	retlw	16
  1944     0975  347F               	retlw	127
  1945     0976  3400               	retlw	0
  1946     0977  3400               	retlw	0
  1947     0978  3400               	retlw	0
  1948     0979  343E               	retlw	62
  1949     097A  3441               	retlw	65
  1950     097B  3441               	retlw	65
  1951     097C  3441               	retlw	65
  1952     097D  343E               	retlw	62
  1953     097E  3400               	retlw	0
  1954     097F  3400               	retlw	0
  1955     0980  3400               	retlw	0
  1956     0981  347F               	retlw	127
  1957     0982  3409               	retlw	9
  1958     0983  3409               	retlw	9
  1959     0984  3409               	retlw	9
  1960     0985  3406               	retlw	6
  1961     0986  3400               	retlw	0
  1962     0987  3400               	retlw	0
  1963     0988  3400               	retlw	0
  1964     0989  343E               	retlw	62
  1965     098A  3441               	retlw	65
  1966     098B  3451               	retlw	81
  1967     098C  3421               	retlw	33
  1968     098D  345E               	retlw	94
  1969     098E  3400               	retlw	0
  1970     098F  3400               	retlw	0
  1971     0990  3400               	retlw	0
  1972     0991  347F               	retlw	127
  1973     0992  3409               	retlw	9
  1974     0993  3419               	retlw	25
  1975     0994  3429               	retlw	41
  1976     0995  3446               	retlw	70
  1977     0996  3400               	retlw	0
  1978     0997  3400               	retlw	0
  1979     0998  3400               	retlw	0
  1980     0999  3426               	retlw	38
  1981     099A  3449               	retlw	73
  1982     099B  3449               	retlw	73
  1983     099C  3449               	retlw	73
  1984     099D  3432               	retlw	50
  1985     099E  3400               	retlw	0
  1986     099F  3400               	retlw	0
  1987     09A0  3400               	retlw	0
  1988     09A1  3401               	retlw	1
  1989     09A2  3401               	retlw	1
  1990     09A3  347F               	retlw	127
  1991     09A4  3401               	retlw	1
  1992     09A5  3401               	retlw	1
  1993     09A6  3400               	retlw	0
  1994     09A7  3400               	retlw	0
  1995     09A8  3400               	retlw	0
  1996     09A9  343F               	retlw	63
  1997     09AA  3440               	retlw	64
  1998     09AB  3440               	retlw	64
  1999     09AC  3440               	retlw	64
  2000     09AD  343F               	retlw	63
  2001     09AE  3400               	retlw	0
  2002     09AF  3400               	retlw	0
  2003     09B0  3400               	retlw	0
  2004     09B1  341F               	retlw	31
  2005     09B2  3420               	retlw	32
  2006     09B3  3440               	retlw	64
  2007     09B4  3420               	retlw	32
  2008     09B5  341F               	retlw	31
  2009     09B6  3400               	retlw	0
  2010     09B7  3400               	retlw	0
  2011     09B8  3400               	retlw	0
  2012     09B9  343F               	retlw	63
  2013     09BA  3440               	retlw	64
  2014     09BB  3438               	retlw	56
  2015     09BC  3440               	retlw	64
  2016     09BD  343F               	retlw	63
  2017     09BE  3400               	retlw	0
  2018     09BF  3400               	retlw	0
  2019     09C0  3400               	retlw	0
  2020     09C1  3463               	retlw	99
  2021     09C2  3414               	retlw	20
  2022     09C3  3408               	retlw	8
  2023     09C4  3414               	retlw	20
  2024     09C5  3463               	retlw	99
  2025     09C6  3400               	retlw	0
  2026     09C7  3400               	retlw	0
  2027     09C8  3400               	retlw	0
  2028     09C9  3403               	retlw	3
  2029     09CA  3404               	retlw	4
  2030     09CB  3478               	retlw	120
  2031     09CC  3404               	retlw	4
  2032     09CD  3403               	retlw	3
  2033     09CE  3400               	retlw	0
  2034     09CF  3400               	retlw	0
  2035     09D0  3400               	retlw	0
  2036     09D1  3461               	retlw	97
  2037     09D2  3451               	retlw	81
  2038     09D3  3449               	retlw	73
  2039     09D4  3445               	retlw	69
  2040     09D5  3443               	retlw	67
  2041     09D6  3400               	retlw	0
  2042     09D7  3400               	retlw	0
  2043     09D8  3400               	retlw	0
  2044     09D9  347F               	retlw	127
  2045     09DA  3441               	retlw	65
  2046     09DB  3441               	retlw	65
  2047     09DC  3400               	retlw	0
  2048     09DD  3400               	retlw	0
  2049     09DE  3400               	retlw	0
  2050     09DF  3400               	retlw	0
  2051     09E0  3400               	retlw	0
  2052     09E1  3402               	retlw	2
  2053     09E2  3404               	retlw	4
  2054     09E3  3408               	retlw	8
  2055     09E4  3410               	retlw	16
  2056     09E5  3420               	retlw	32
  2057     09E6  3400               	retlw	0
  2058     09E7  3400               	retlw	0
  2059     09E8  3400               	retlw	0
  2060     09E9  3441               	retlw	65
  2061     09EA  3441               	retlw	65
  2062     09EB  347F               	retlw	127
  2063     09EC  3400               	retlw	0
  2064     09ED  3400               	retlw	0
  2065     09EE  3400               	retlw	0
  2066     09EF  3400               	retlw	0
  2067     09F0  3400               	retlw	0
  2068     09F1  3404               	retlw	4
  2069     09F2  3402               	retlw	2
  2070     09F3  3401               	retlw	1
  2071     09F4  3402               	retlw	2
  2072     09F5  3404               	retlw	4
  2073     09F6  3400               	retlw	0
  2074     09F7  3400               	retlw	0
  2075     09F8  3400               	retlw	0
  2076     09F9  3480               	retlw	128
  2077     09FA  3480               	retlw	128
  2078     09FB  3480               	retlw	128
  2079     09FC  3480               	retlw	128
  2080     09FD  3480               	retlw	128
  2081     09FE  3400               	retlw	0
  2082     09FF  3400               	retlw	0
  2083     0A00  3400               	retlw	0
  2084     0A01  3401               	retlw	1
  2085     0A02  3402               	retlw	2
  2086     0A03  3404               	retlw	4
  2087     0A04  3400               	retlw	0
  2088     0A05  3400               	retlw	0
  2089     0A06  3400               	retlw	0
  2090     0A07  3400               	retlw	0
  2091     0A08  3400               	retlw	0
  2092     0A09  3420               	retlw	32
  2093     0A0A  3454               	retlw	84
  2094     0A0B  3454               	retlw	84
  2095     0A0C  3454               	retlw	84
  2096     0A0D  3478               	retlw	120
  2097     0A0E  3400               	retlw	0
  2098     0A0F  3400               	retlw	0
  2099     0A10  3400               	retlw	0
  2100     0A11  347F               	retlw	127
  2101     0A12  3448               	retlw	72
  2102     0A13  3444               	retlw	68
  2103     0A14  3444               	retlw	68
  2104     0A15  3438               	retlw	56
  2105     0A16  3400               	retlw	0
  2106     0A17  3400               	retlw	0
  2107     0A18  3400               	retlw	0
  2108     0A19  3438               	retlw	56
  2109     0A1A  3444               	retlw	68
  2110     0A1B  3444               	retlw	68
  2111     0A1C  3428               	retlw	40
  2112     0A1D  3400               	retlw	0
  2113     0A1E  3400               	retlw	0
  2114     0A1F  3400               	retlw	0
  2115     0A20  3400               	retlw	0
  2116     0A21  3438               	retlw	56
  2117     0A22  3444               	retlw	68
  2118     0A23  3444               	retlw	68
  2119     0A24  3448               	retlw	72
  2120     0A25  347F               	retlw	127
  2121     0A26  3400               	retlw	0
  2122     0A27  3400               	retlw	0
  2123     0A28  3400               	retlw	0
  2124     0A29  3438               	retlw	56
  2125     0A2A  3454               	retlw	84
  2126     0A2B  3454               	retlw	84
  2127     0A2C  3454               	retlw	84
  2128     0A2D  3418               	retlw	24
  2129     0A2E  3400               	retlw	0
  2130     0A2F  3400               	retlw	0
  2131     0A30  3400               	retlw	0
  2132     0A31  3408               	retlw	8
  2133     0A32  347E               	retlw	126
  2134     0A33  3409               	retlw	9
  2135     0A34  3402               	retlw	2
  2136     0A35  3400               	retlw	0
  2137     0A36  3400               	retlw	0
  2138     0A37  3400               	retlw	0
  2139     0A38  3400               	retlw	0
  2140     0A39  3418               	retlw	24
  2141     0A3A  34A4               	retlw	164
  2142     0A3B  34A4               	retlw	164
  2143     0A3C  34A4               	retlw	164
  2144     0A3D  347C               	retlw	124
  2145     0A3E  3400               	retlw	0
  2146     0A3F  3400               	retlw	0
  2147     0A40  3400               	retlw	0
  2148     0A41  347F               	retlw	127
  2149     0A42  3408               	retlw	8
  2150     0A43  3404               	retlw	4
  2151     0A44  3404               	retlw	4
  2152     0A45  3478               	retlw	120
  2153     0A46  3400               	retlw	0
  2154     0A47  3400               	retlw	0
  2155     0A48  3400               	retlw	0
  2156     0A49  3400               	retlw	0
  2157     0A4A  347D               	retlw	125
  2158     0A4B  3400               	retlw	0
  2159     0A4C  3400               	retlw	0
  2160     0A4D  3400               	retlw	0
  2161     0A4E  3400               	retlw	0
  2162     0A4F  3400               	retlw	0
  2163     0A50  3400               	retlw	0
  2164     0A51  3480               	retlw	128
  2165     0A52  3484               	retlw	132
  2166     0A53  347D               	retlw	125
  2167     0A54  3400               	retlw	0
  2168     0A55  3400               	retlw	0
  2169     0A56  3400               	retlw	0
  2170     0A57  3400               	retlw	0
  2171     0A58  3400               	retlw	0
  2172     0A59  347F               	retlw	127
  2173     0A5A  3410               	retlw	16
  2174     0A5B  3428               	retlw	40
  2175     0A5C  3444               	retlw	68
  2176     0A5D  3400               	retlw	0
  2177     0A5E  3400               	retlw	0
  2178     0A5F  3400               	retlw	0
  2179     0A60  3400               	retlw	0
  2180     0A61  3441               	retlw	65
  2181     0A62  347F               	retlw	127
  2182     0A63  3440               	retlw	64
  2183     0A64  3400               	retlw	0
  2184     0A65  3400               	retlw	0
  2185     0A66  3400               	retlw	0
  2186     0A67  3400               	retlw	0
  2187     0A68  3400               	retlw	0
  2188     0A69  347C               	retlw	124
  2189     0A6A  3404               	retlw	4
  2190     0A6B  3418               	retlw	24
  2191     0A6C  3404               	retlw	4
  2192     0A6D  3478               	retlw	120
  2193     0A6E  3400               	retlw	0
  2194     0A6F  3400               	retlw	0
  2195     0A70  3400               	retlw	0
  2196     0A71  347C               	retlw	124
  2197     0A72  3408               	retlw	8
  2198     0A73  3404               	retlw	4
  2199     0A74  347C               	retlw	124
  2200     0A75  3400               	retlw	0
  2201     0A76  3400               	retlw	0
  2202     0A77  3400               	retlw	0
  2203     0A78  3400               	retlw	0
  2204     0A79  3438               	retlw	56
  2205     0A7A  3444               	retlw	68
  2206     0A7B  3444               	retlw	68
  2207     0A7C  3438               	retlw	56
  2208     0A7D  3400               	retlw	0
  2209     0A7E  3400               	retlw	0
  2210     0A7F  3400               	retlw	0
  2211     0A80  3400               	retlw	0
  2212     0A81  34FC               	retlw	252
  2213     0A82  3424               	retlw	36
  2214     0A83  3424               	retlw	36
  2215     0A84  3418               	retlw	24
  2216     0A85  3400               	retlw	0
  2217     0A86  3400               	retlw	0
  2218     0A87  3400               	retlw	0
  2219     0A88  3400               	retlw	0
  2220     0A89  3418               	retlw	24
  2221     0A8A  3424               	retlw	36
  2222     0A8B  3424               	retlw	36
  2223     0A8C  34FC               	retlw	252
  2224     0A8D  3400               	retlw	0
  2225     0A8E  3400               	retlw	0
  2226     0A8F  3400               	retlw	0
  2227     0A90  3400               	retlw	0
  2228     0A91  3400               	retlw	0
  2229     0A92  347C               	retlw	124
  2230     0A93  3408               	retlw	8
  2231     0A94  3404               	retlw	4
  2232     0A95  3400               	retlw	0
  2233     0A96  3400               	retlw	0
  2234     0A97  3400               	retlw	0
  2235     0A98  3400               	retlw	0
  2236     0A99  3448               	retlw	72
  2237     0A9A  3454               	retlw	84
  2238     0A9B  3454               	retlw	84
  2239     0A9C  3424               	retlw	36
  2240     0A9D  3400               	retlw	0
  2241     0A9E  3400               	retlw	0
  2242     0A9F  3400               	retlw	0
  2243     0AA0  3400               	retlw	0
  2244     0AA1  3404               	retlw	4
  2245     0AA2  347F               	retlw	127
  2246     0AA3  3444               	retlw	68
  2247     0AA4  3400               	retlw	0
  2248     0AA5  3400               	retlw	0
  2249     0AA6  3400               	retlw	0
  2250     0AA7  3400               	retlw	0
  2251     0AA8  3400               	retlw	0
  2252     0AA9  343C               	retlw	60
  2253     0AAA  3440               	retlw	64
  2254     0AAB  3440               	retlw	64
  2255     0AAC  347C               	retlw	124
  2256     0AAD  3400               	retlw	0
  2257     0AAE  3400               	retlw	0
  2258     0AAF  3400               	retlw	0
  2259     0AB0  3400               	retlw	0
  2260     0AB1  341C               	retlw	28
  2261     0AB2  3420               	retlw	32
  2262     0AB3  3440               	retlw	64
  2263     0AB4  3420               	retlw	32
  2264     0AB5  341C               	retlw	28
  2265     0AB6  3400               	retlw	0
  2266     0AB7  3400               	retlw	0
  2267     0AB8  3400               	retlw	0
  2268     0AB9  343C               	retlw	60
  2269     0ABA  3440               	retlw	64
  2270     0ABB  3430               	retlw	48
  2271     0ABC  3440               	retlw	64
  2272     0ABD  343C               	retlw	60
  2273     0ABE  3400               	retlw	0
  2274     0ABF  3400               	retlw	0
  2275     0AC0  3400               	retlw	0
  2276     0AC1  3444               	retlw	68
  2277     0AC2  3428               	retlw	40
  2278     0AC3  3410               	retlw	16
  2279     0AC4  3428               	retlw	40
  2280     0AC5  3444               	retlw	68
  2281     0AC6  3400               	retlw	0
  2282     0AC7  3400               	retlw	0
  2283     0AC8  3400               	retlw	0
  2284     0AC9  341C               	retlw	28
  2285     0ACA  34A0               	retlw	160
  2286     0ACB  34A0               	retlw	160
  2287     0ACC  347C               	retlw	124
  2288     0ACD  3400               	retlw	0
  2289     0ACE  3400               	retlw	0
  2290     0ACF  3400               	retlw	0
  2291     0AD0  3400               	retlw	0
  2292     0AD1  3444               	retlw	68
  2293     0AD2  3464               	retlw	100
  2294     0AD3  3454               	retlw	84
  2295     0AD4  344C               	retlw	76
  2296     0AD5  3444               	retlw	68
  2297     0AD6  3400               	retlw	0
  2298     0AD7  3400               	retlw	0
  2299     0AD8  3400               	retlw	0
  2300     0AD9  3408               	retlw	8
  2301     0ADA  3436               	retlw	54
  2302     0ADB  3441               	retlw	65
  2303     0ADC  3400               	retlw	0
  2304     0ADD  3400               	retlw	0
  2305     0ADE  3400               	retlw	0
  2306     0ADF  3400               	retlw	0
  2307     0AE0  3400               	retlw	0
  2308     0AE1  3400               	retlw	0
  2309     0AE2  347F               	retlw	127
  2310     0AE3  3400               	retlw	0
  2311     0AE4  3400               	retlw	0
  2312     0AE5  3400               	retlw	0
  2313     0AE6  3400               	retlw	0
  2314     0AE7  3400               	retlw	0
  2315     0AE8  3400               	retlw	0
  2316     0AE9  3441               	retlw	65
  2317     0AEA  3436               	retlw	54
  2318     0AEB  3408               	retlw	8
  2319     0AEC  3400               	retlw	0
  2320     0AED  3400               	retlw	0
  2321     0AEE  3400               	retlw	0
  2322     0AEF  3400               	retlw	0
  2323     0AF0  3400               	retlw	0
  2324     0AF1  3402               	retlw	2
  2325     0AF2  3401               	retlw	1
  2326     0AF3  3401               	retlw	1
  2327     0AF4  3402               	retlw	2
  2328     0AF5  3401               	retlw	1
  2329     0AF6  3400               	retlw	0
  2330     0AF7  3400               	retlw	0
  2331     0AF8  3400               	retlw	0
  2332     0AF9  3402               	retlw	2
  2333     0AFA  3405               	retlw	5
  2334     0AFB  3405               	retlw	5
  2335     0AFC  3402               	retlw	2
  2336     0AFD  3400               	retlw	0
  2337     0AFE  3400               	retlw	0
  2338     0AFF  3400               	retlw	0
  2339     0B00                     __end_of_OledFont:
  2340     000D                     _PORTBbits	set	13
  2341     0012                     _PIR2bits	set	18
  2342     0011                     _PIR1bits	set	17
  2343     0095                     _OPTION_REGbits	set	149
  2344     008D                     _TRISBbits	set	141
  2345     008E                     _TRISCbits	set	142
  2346     04CF                     _SPLLEN	set	1231
  2347     04CE                     _IRCF3	set	1230
  2348     04CD                     _IRCF2	set	1229
  2349     04CC                     _IRCF1	set	1228
  2350     04CB                     _IRCF0	set	1227
  2351     04C9                     _SCS1	set	1225
  2352     04C8                     _SCS0	set	1224
  2353     010D                     _LATBbits	set	269
  2354     018D                     _ANSELBbits	set	397
  2355     018E                     _ANSELCbits	set	398
  2356     020D                     _WPUBbits	set	525
  2357     0211                     _SSPBUF	set	529
  2358     0216                     _SSPCON2bits	set	534
  2359     0214                     _SSPSTATbits	set	532
  2360     0216                     _SSPCON2	set	534
  2361     0215                     _SSPCON1bits	set	533
  2362     0212                     _SSPADD	set	530
  2363     0215                     _SSPCONbits	set	533
  2364     0E20                     _SSPCLKPPSbits	set	3616
  2365     0E21                     _SSPDATPPSbits	set	3617
  2366     0E0F                     _PPSLOCKbits	set	3599
  2367     0E0F                     _PPSLOCK	set	3599
  2368     0EA5                     _RC5PPSbits	set	3749
  2369     0EA4                     _RC4PPSbits	set	3748
  2370     0B00                     STR_7:
  2371     0B00  3454               	retlw	84	;'T'
  2372     0B01  3465               	retlw	101	;'e'
  2373     0B02  346D               	retlw	109	;'m'
  2374     0B03  3470               	retlw	112	;'p'
  2375     0B04  343A               	retlw	58	;':'
  2376     0B05  3420               	retlw	32	;' '
  2377     0B06  3425               	retlw	37	;'%'
  2378     0B07  3464               	retlw	100	;'d'
  2379     0B08  342E               	retlw	46	;'.'
  2380     0B09  3425               	retlw	37	;'%'
  2381     0B0A  3464               	retlw	100	;'d'
  2382     0B0B  3420               	retlw	32	;' '
  2383     0B0C  3425               	retlw	37	;'%'
  2384     0B0D  3473               	retlw	115	;'s'
  2385     0B0E  3400               	retlw	0
  2386                           
  2387                           	psect	stringtext3
  2388     1800                     __pstringtext3:
  2389     1800                     STR_11:
  2390     1800  344D               	retlw	77	;'M'
  2391     1801  3441               	retlw	65	;'A'
  2392     1802  3458               	retlw	88	;'X'
  2393     1803  3436               	retlw	54	;'6'
  2394     1804  3436               	retlw	54	;'6'
  2395     1805  3437               	retlw	55	;'7'
  2396     1806  3435               	retlw	53	;'5'
  2397     1807  3420               	retlw	32	;' '
  2398     1808  344B               	retlw	75	;'K'
  2399     1809  342D               	retlw	45	;'-'
  2400     180A  3454               	retlw	84	;'T'
  2401     180B  3443               	retlw	67	;'C'
  2402     180C  3400               	retlw	0
  2403                           
  2404                           	psect	stringtext4
  2405     180D                     __pstringtext4:
  2406     180D                     STR_10:
  2407     180D  3443               	retlw	67	;'C'
  2408     180E  3468               	retlw	104	;'h'
  2409     180F  3465               	retlw	101	;'e'
  2410     1810  3463               	retlw	99	;'c'
  2411     1811  346B               	retlw	107	;'k'
  2412     1812  3420               	retlw	32	;' '
  2413     1813  3477               	retlw	119	;'w'
  2414     1814  3469               	retlw	105	;'i'
  2415     1815  3472               	retlw	114	;'r'
  2416     1816  3469               	retlw	105	;'i'
  2417     1817  346E               	retlw	110	;'n'
  2418     1818  3467               	retlw	103	;'g'
  2419     1819  3400               	retlw	0
  2420                           
  2421                           	psect	stringtext5
  2422     181A                     __pstringtext5:
  2423     181A                     STR_1:
  2424     181A  3446               	retlw	70	;'F'
  2425     181B  3461               	retlw	97	;'a'
  2426     181C  3468               	retlw	104	;'h'
  2427     181D  3472               	retlw	114	;'r'
  2428     181E  3465               	retlw	101	;'e'
  2429     181F  346E               	retlw	110	;'n'
  2430     1820  3468               	retlw	104	;'h'
  2431     1821  3465               	retlw	101	;'e'
  2432     1822  3469               	retlw	105	;'i'
  2433     1823  3474               	retlw	116	;'t'
  2434     1824  3400               	retlw	0
  2435                           
  2436                           	psect	stringtext6
  2437     182F                     __pstringtext6:
  2438     182F                     STR_9:
  2439     182F  3454               	retlw	84	;'T'
  2440     1830  3443               	retlw	67	;'C'
  2441     1831  3420               	retlw	32	;' '
  2442     1832  344F               	retlw	79	;'O'
  2443     1833  3450               	retlw	80	;'P'
  2444     1834  3445               	retlw	69	;'E'
  2445     1835  344E               	retlw	78	;'N'
  2446     1836  3421               	retlw	33	;'!'
  2447     1837  3400               	retlw	0
  2448                           
  2449                           	psect	stringtext7
  2450     1838                     __pstringtext7:
  2451     1838                     STR_8:
  2452     1838  344D               	retlw	77	;'M'
  2453     1839  346F               	retlw	111	;'o'
  2454     183A  3464               	retlw	100	;'d'
  2455     183B  3465               	retlw	101	;'e'
  2456     183C  343A               	retlw	58	;':'
  2457     183D  3420               	retlw	32	;' '
  2458     183E  3425               	retlw	37	;'%'
  2459     183F  3473               	retlw	115	;'s'
  2460     1840  3400               	retlw	0
  2461                           
  2462                           	psect	stringtext8
  2463     1841                     __pstringtext8:
  2464     1841                     STR_3:
  2465     1841  3443               	retlw	67	;'C'
  2466     1842  3465               	retlw	101	;'e'
  2467     1843  346C               	retlw	108	;'l'
  2468     1844  3473               	retlw	115	;'s'
  2469     1845  3469               	retlw	105	;'i'
  2470     1846  3475               	retlw	117	;'u'
  2471     1847  3473               	retlw	115	;'s'
  2472     1848  3400               	retlw	0
  2473                           
  2474                           	psect	stringtext9
  2475     1849                     __pstringtext9:
  2476     1849                     STR_2:
  2477     1849  344B               	retlw	75	;'K'
  2478     184A  3465               	retlw	101	;'e'
  2479     184B  346C               	retlw	108	;'l'
  2480     184C  3476               	retlw	118	;'v'
  2481     184D  3469               	retlw	105	;'i'
  2482     184E  346E               	retlw	110	;'n'
  2483     184F  3400               	retlw	0
  2484                           
  2485                           	psect	stringtext10
  2486     1850                     __pstringtext10:
  2487     1850                     STR_4:
  2488     1850  3446               	retlw	70	;'F'
  2489     1851  3400               	retlw	0
  2490                           
  2491                           	psect	stringtext11
  2492     1852                     __pstringtext11:
  2493     1852                     STR_5:
  2494     1852  344B               	retlw	75	;'K'
  2495     1853  3400               	retlw	0
  2496                           
  2497                           	psect	stringtext12
  2498     0000                     __pstringtext12:
  2499     180B                     
  2500                           	psect	cinit
  2501     07F2                     start_initialization:	
  2502                           ; #config settings
  2503                           
  2504     07F2                     __initialization:	;BIGRAM
  2505                           
  2506                           ; Clear objects allocated to BIGRAM
  2507     07F2  30F0               	movlw	low (0+9456)
  2508     07F3  0084               	movwf	4
  2509     07F4  3024               	movlw	high (0+9456)
  2510     07F5  0085               	movwf	5
  2511     07F6  3000               	movlw	0
  2512     07F7  00FE               	movwf	btemp
  2513     07F8  3003               	movlw	3
  2514     07F9  00FF               	movwf	btemp+1
  2515     07FA  3192  2258  3187   	fcall	clear_ram0
  2516     07FD                     end_of_initialization:	
  2517                           ;End of C runtime variable initialization code
  2518                           
  2519     07FD                     __end_of__initialization:
  2520     07FD  0020               	movlb	0
  2521     07FE  318B  2BE5         	ljmp	_main	;jump to C main() function
  2522                           
  2523                           	psect	clrtext
  2524     1258                     clear_ram0:	
  2525                           ;	Called with FSR0 containing the base address, and
  2526                           ;	btemp/btemp+1 has the size to clear
  2527                           
  2528     1258  0064               	clrwdt	;clear the watchdog before getting into this loop
  2529     1259                     clrloop0:
  2530     1259  0180               	clrf	0	;clear RAM location pointed to by FSR
  2531     125A  3101               	addfsr 0,1
  2532     125B  3001               	movlw	1
  2533     125C  02FE               	subwf	btemp,f
  2534     125D  3000               	movlw	0
  2535     125E  3BFF               	subwfb	btemp+1,f
  2536     125F  087F               	movf	btemp+1,w
  2537     1260  047E               	iorwf	btemp,w
  2538     1261  1D03               	skipz
  2539     1262  2A59               	goto	clrloop0	;have we reached the end yet?
  2540     1263  3400               	retlw	0	;all done for this memory range, return
  2541                           
  2542                           	psect	cstackBANK1
  2543     00A0                     __pcstackBANK1:
  2544     00A0                     OLED_Printf_Line@temp:
  2545                           
  2546                           ; 6 bytes @ 0x0
  2547     00A0                     	ds	6
  2548     00A6                     OLED_Printf_Line@temp_357:
  2549                           
  2550                           ; 6 bytes @ 0x6
  2551     00A6                     	ds	6
  2552     00AC                     OLED_Printf_Line@temp_360:
  2553                           
  2554                           ; 5 bytes @ 0xC
  2555     00AC                     	ds	5
  2556     00B1                     _OLED_Printf_Line$363:
  2557                           
  2558                           ; 2 bytes @ 0x11
  2559     00B1                     	ds	2
  2560     00B3                     OLED_Printf_Line@val_359:
  2561                           
  2562                           ; 2 bytes @ 0x13
  2563     00B3                     	ds	2
  2564     00B5                     OLED_Printf_Line@str:
  2565                           
  2566                           ; 2 bytes @ 0x15
  2567     00B5                     	ds	2
  2568     00B7                     OLED_Printf_Line@col:
  2569                           
  2570                           ; 1 bytes @ 0x17
  2571     00B7                     	ds	1
  2572     00B8                     OLED_Printf_Line@p:
  2573                           
  2574                           ; 1 bytes @ 0x18
  2575     00B8                     	ds	1
  2576     00B9                     OLED_Printf_Line@val_350:
  2577                           
  2578                           ; 4 bytes @ 0x19
  2579     00B9                     	ds	4
  2580     00BD                     OLED_Printf_Line@val_356:
  2581                           
  2582                           ; 2 bytes @ 0x1D
  2583     00BD                     	ds	2
  2584     00BF                     OLED_Printf_Line@nibble:
  2585                           
  2586                           ; 1 bytes @ 0x1F
  2587     00BF                     	ds	1
  2588     00C0                     OLED_Printf_Line@ch:
  2589                           
  2590                           ; 1 bytes @ 0x20
  2591     00C0                     	ds	1
  2592     00C1                     OLED_Printf_Line@i:
  2593                           
  2594                           ; 1 bytes @ 0x21
  2595     00C1                     	ds	1
  2596     00C2                     OLED_Printf_Line@i_352:
  2597                           
  2598                           ; 1 bytes @ 0x22
  2599     00C2                     	ds	1
  2600     00C3                     OLED_Printf_Line@i_355:
  2601                           
  2602                           ; 1 bytes @ 0x23
  2603     00C3                     	ds	1
  2604     00C4                     OLED_Printf_Line@i_358:
  2605                           
  2606                           ; 1 bytes @ 0x24
  2607     00C4                     	ds	1
  2608     00C5                     OLED_Printf_Line@i_361:
  2609                           
  2610                           ; 1 bytes @ 0x25
  2611     00C5                     	ds	1
  2612     00C6                     OLED_Printf_Line@val_353:
  2613                           
  2614                           ; 4 bytes @ 0x26
  2615     00C6                     	ds	4
  2616     00CA                     OLED_Printf_Line@val:
  2617                           
  2618                           ; 2 bytes @ 0x2A
  2619     00CA                     	ds	2
  2620     00CC                     OLED_Printf_Line@line:
  2621                           
  2622                           ; 1 bytes @ 0x2C
  2623     00CC                     	ds	1
  2624     00CD                     OLED_Printf_Line@ap:
  2625                           
  2626                           ; 1 bytes @ 0x2D
  2627     00CD                     	ds	1
  2628     00CE                     OLED_Printf_Line@src:
  2629                           
  2630                           ; 2 bytes @ 0x2E
  2631     00CE                     	ds	2
  2632     00D0                     OLED_Printf_Line@dst:
  2633                           
  2634                           ; 1 bytes @ 0x30
  2635     00D0                     	ds	1
  2636     00D1                     ?_displayTemperature:
  2637     00D1                     displayTemperature@temp:	
  2638                           ; 1 bytes @ 0x31
  2639                           
  2640                           
  2641                           ; 4 bytes @ 0x31
  2642     00D1                     	ds	4
  2643     00D5                     displayTemperature@unit:
  2644                           
  2645                           ; 1 bytes @ 0x35
  2646     00D5                     	ds	1
  2647     00D6                     displayTemperature@status:
  2648                           
  2649                           ; 1 bytes @ 0x36
  2650     00D6                     	ds	1
  2651     00D7                     ??_displayTemperature:
  2652                           
  2653                           ; 1 bytes @ 0x37
  2654     00D7                     	ds	2
  2655     00D9                     displayTemperature@temp_int:
  2656                           
  2657                           ; 2 bytes @ 0x39
  2658     00D9                     	ds	2
  2659     00DB                     displayTemperature@temp_frac:
  2660                           
  2661                           ; 1 bytes @ 0x3B
  2662     00DB                     	ds	1
  2663     00DC                     ??_main:
  2664                           
  2665                           ; 1 bytes @ 0x3C
  2666     00DC                     	ds	2
  2667     00DE                     main@status:
  2668                           
  2669                           ; 1 bytes @ 0x3E
  2670     00DE                     	ds	1
  2671     00DF                     main@button_was_pressed:
  2672                           
  2673                           ; 1 bytes @ 0x3F
  2674     00DF                     	ds	1
  2675     00E0                     main@temperature:
  2676                           
  2677                           ; 4 bytes @ 0x40
  2678     00E0                     	ds	4
  2679     00E4                     main@unit:
  2680                           
  2681                           ; 1 bytes @ 0x44
  2682     00E4                     	ds	1
  2683                           
  2684                           	psect	cstackCOMMON
  2685     0070                     __pcstackCOMMON:
  2686     0070                     ?_I2C_ClearErrors:
  2687     0070                     ??_I2C_ClearErrors:	
  2688                           ; 1 bytes @ 0x0
  2689                           
  2690     0070                     ?_OLED_Clear:	
  2691                           ; 1 bytes @ 0x0
  2692                           
  2693     0070                     ?_MAX6675_Init:	
  2694                           ; 1 bytes @ 0x0
  2695                           
  2696     0070                     ??_MAX6675_Init:	
  2697                           ; 1 bytes @ 0x0
  2698                           
  2699     0070                     ?_I2C_WaitIF:	
  2700                           ; 1 bytes @ 0x0
  2701                           
  2702     0070                     ?_I2C_Init:	
  2703                           ; 1 bytes @ 0x0
  2704                           
  2705     0070                     ??_I2C_Init:	
  2706                           ; 1 bytes @ 0x0
  2707                           
  2708     0070                     ?_I2C_WaitIdle:	
  2709                           ; 1 bytes @ 0x0
  2710                           
  2711     0070                     ?_I2C_Start:	
  2712                           ; 1 bytes @ 0x0
  2713                           
  2714     0070                     ?_I2C_Stop:	
  2715                           ; 1 bytes @ 0x0
  2716                           
  2717     0070                     ?_I2C_WriteByte:	
  2718                           ; 1 bytes @ 0x0
  2719                           
  2720     0070                     ?_SSD1306_CtrlW:	
  2721                           ; 1 bytes @ 0x0
  2722                           
  2723     0070                     ??_SSD1306_CtrlW:	
  2724                           ; 1 bytes @ 0x0
  2725                           
  2726     0070                     ?_OLED_Command:	
  2727                           ; 1 bytes @ 0x0
  2728                           
  2729     0070                     ?_OLED_SetOrientation:	
  2730                           ; 1 bytes @ 0x0
  2731                           
  2732     0070                     ?_OLED_Init:	
  2733                           ; 1 bytes @ 0x0
  2734                           
  2735     0070                     ?_OLED_UpdateLine:	
  2736                           ; 1 bytes @ 0x0
  2737                           
  2738     0070                     ?_internal_32:	
  2739                           ; 1 bytes @ 0x0
  2740                           
  2741     0070                     ??_internal_32:	
  2742                           ; 1 bytes @ 0x0
  2743                           
  2744     0070                     ?_initMain:	
  2745                           ; 1 bytes @ 0x0
  2746                           
  2747     0070                     ??_initMain:	
  2748                           ; 1 bytes @ 0x0
  2749                           
  2750     0070                     ?_main:	
  2751                           ; 1 bytes @ 0x0
  2752                           
  2753     0070                     ?_MAX6675_ReadADC:	
  2754                           ; 1 bytes @ 0x0
  2755                           
  2756     0070                     ?_memset:	
  2757                           ; 1 bytes @ 0x0
  2758                           
  2759     0070                     ?_strcmp:	
  2760                           ; 2 bytes @ 0x0
  2761                           
  2762     0070                     ?_strcpy:	
  2763                           ; 2 bytes @ 0x0
  2764                           
  2765     0070                     ?_memcpy:	
  2766                           ; 2 bytes @ 0x0
  2767                           
  2768     0070                     ?_getUnitString:	
  2769                           ; 2 bytes @ 0x0
  2770                           
  2771     0070                     ?_getUnitSymbol:	
  2772                           ; 2 bytes @ 0x0
  2773                           
  2774     0070                     ?__Umul8_16:	
  2775                           ; 2 bytes @ 0x0
  2776                           
  2777     0070                     ?_MAX6675_ReadRaw:	
  2778                           ; 2 bytes @ 0x0
  2779                           
  2780     0070                     ?___awdiv:	
  2781                           ; 2 bytes @ 0x0
  2782                           
  2783     0070                     ?___awmod:	
  2784                           ; 2 bytes @ 0x0
  2785                           
  2786     0070                     ?___lwdiv:	
  2787                           ; 2 bytes @ 0x0
  2788                           
  2789     0070                     ?___lwmod:	
  2790                           ; 2 bytes @ 0x0
  2791                           
  2792     0070                     ?___lldiv:	
  2793                           ; 2 bytes @ 0x0
  2794                           
  2795     0070                     ?___aldiv:	
  2796                           ; 4 bytes @ 0x0
  2797                           
  2798     0070                     ?___almod:	
  2799                           ; 4 bytes @ 0x0
  2800                           
  2801     0070                     ?___llmod:	
  2802                           ; 4 bytes @ 0x0
  2803                           
  2804     0070                     ?___xxtofl:	
  2805                           ; 4 bytes @ 0x0
  2806                           
  2807     0070                     __Umul8_16@multiplicand:	
  2808                           ; 4 bytes @ 0x0
  2809                           
  2810     0070                     I2C_WaitIF@timeout_ms:	
  2811                           ; 1 bytes @ 0x0
  2812                           
  2813     0070                     I2C_WaitIdle@timeout_ms:	
  2814                           ; 2 bytes @ 0x0
  2815                           
  2816     0070                     ___awdiv@divisor:	
  2817                           ; 2 bytes @ 0x0
  2818                           
  2819     0070                     ___awmod@divisor:	
  2820                           ; 2 bytes @ 0x0
  2821                           
  2822     0070                     ___lwdiv@divisor:	
  2823                           ; 2 bytes @ 0x0
  2824                           
  2825     0070                     ___lwmod@divisor:	
  2826                           ; 2 bytes @ 0x0
  2827                           
  2828     0070                     memcpy@d1:	
  2829                           ; 2 bytes @ 0x0
  2830                           
  2831     0070                     memset@dest:	
  2832                           ; 2 bytes @ 0x0
  2833                           
  2834     0070                     strcmp@r:	
  2835                           ; 2 bytes @ 0x0
  2836                           
  2837     0070                     strcpy@dest:	
  2838                           ; 2 bytes @ 0x0
  2839                           
  2840     0070                     ___lldiv@divisor:	
  2841                           ; 2 bytes @ 0x0
  2842                           
  2843     0070                     ___aldiv@divisor:	
  2844                           ; 4 bytes @ 0x0
  2845                           
  2846     0070                     ___almod@divisor:	
  2847                           ; 4 bytes @ 0x0
  2848                           
  2849     0070                     ___llmod@divisor:	
  2850                           ; 4 bytes @ 0x0
  2851                           
  2852     0070                     ___xxtofl@val:	
  2853                           ; 4 bytes @ 0x0
  2854                           
  2855                           
  2856                           ; 4 bytes @ 0x0
  2857     0070                     	ds	2
  2858     0072                     ??_strcmp:
  2859     0072                     ??_getUnitString:	
  2860                           ; 1 bytes @ 0x2
  2861                           
  2862     0072                     ??_getUnitSymbol:	
  2863                           ; 1 bytes @ 0x2
  2864                           
  2865     0072                     ??__Umul8_16:	
  2866                           ; 1 bytes @ 0x2
  2867                           
  2868     0072                     ??_I2C_WaitIF:	
  2869                           ; 1 bytes @ 0x2
  2870                           
  2871     0072                     ??_I2C_WaitIdle:	
  2872                           ; 1 bytes @ 0x2
  2873                           
  2874     0072                     ??_MAX6675_ReadRaw:	
  2875                           ; 1 bytes @ 0x2
  2876                           
  2877     0072                     getUnitString@unit:	
  2878                           ; 1 bytes @ 0x2
  2879                           
  2880     0072                     getUnitSymbol@unit:	
  2881                           ; 1 bytes @ 0x2
  2882                           
  2883     0072                     strcpy@src:	
  2884                           ; 1 bytes @ 0x2
  2885                           
  2886     0072                     ___awdiv@dividend:	
  2887                           ; 1 bytes @ 0x2
  2888                           
  2889     0072                     ___awmod@dividend:	
  2890                           ; 2 bytes @ 0x2
  2891                           
  2892     0072                     ___lwdiv@dividend:	
  2893                           ; 2 bytes @ 0x2
  2894                           
  2895     0072                     ___lwmod@dividend:	
  2896                           ; 2 bytes @ 0x2
  2897                           
  2898     0072                     memcpy@s1:	
  2899                           ; 2 bytes @ 0x2
  2900                           
  2901     0072                     memset@c:	
  2902                           ; 2 bytes @ 0x2
  2903                           
  2904                           
  2905                           ; 2 bytes @ 0x2
  2906     0072                     	ds	1
  2907     0073                     ??_strcpy:
  2908     0073                     ??_I2C_Start:	
  2909                           ; 1 bytes @ 0x3
  2910                           
  2911     0073                     ??_I2C_Stop:	
  2912                           ; 1 bytes @ 0x3
  2913                           
  2914     0073                     ??_I2C_WriteByte:	
  2915                           ; 1 bytes @ 0x3
  2916                           
  2917     0073                     I2C_Start@st:	
  2918                           ; 1 bytes @ 0x3
  2919                           
  2920     0073                     I2C_Stop@st:	
  2921                           ; 1 bytes @ 0x3
  2922                           
  2923     0073                     I2C_WriteByte@data:	
  2924                           ; 1 bytes @ 0x3
  2925                           
  2926     0073                     strcmp@l:	
  2927                           ; 1 bytes @ 0x3
  2928                           
  2929     0073                     MAX6675_ReadRaw@data:	
  2930                           ; 1 bytes @ 0x3
  2931                           
  2932                           
  2933                           ; 2 bytes @ 0x3
  2934     0073                     	ds	1
  2935     0074                     ??___awdiv:
  2936     0074                     ??___awmod:	
  2937                           ; 1 bytes @ 0x4
  2938                           
  2939     0074                     ??___lwdiv:	
  2940                           ; 1 bytes @ 0x4
  2941                           
  2942     0074                     ??___lwmod:	
  2943                           ; 1 bytes @ 0x4
  2944                           
  2945     0074                     ??___xxtofl:	
  2946                           ; 1 bytes @ 0x4
  2947                           
  2948     0074                     I2C_WriteByte@st:	
  2949                           ; 1 bytes @ 0x4
  2950                           
  2951     0074                     __Umul8_16@product:	
  2952                           ; 1 bytes @ 0x4
  2953                           
  2954     0074                     memcpy@n:	
  2955                           ; 2 bytes @ 0x4
  2956                           
  2957     0074                     memset@n:	
  2958                           ; 2 bytes @ 0x4
  2959                           
  2960     0074                     ___lldiv@dividend:	
  2961                           ; 2 bytes @ 0x4
  2962                           
  2963     0074                     ___aldiv@dividend:	
  2964                           ; 4 bytes @ 0x4
  2965                           
  2966     0074                     ___almod@dividend:	
  2967                           ; 4 bytes @ 0x4
  2968                           
  2969     0074                     ___llmod@dividend:	
  2970                           ; 4 bytes @ 0x4
  2971                           
  2972                           
  2973                           ; 4 bytes @ 0x4
  2974     0074                     	ds	1
  2975     0075                     ??_OLED_Command:
  2976     0075                     ?_OLED_WriteData:	
  2977                           ; 1 bytes @ 0x5
  2978                           
  2979     0075                     OLED_Command@cmd:	
  2980                           ; 1 bytes @ 0x5
  2981                           
  2982     0075                     MAX6675_ReadRaw@i:	
  2983                           ; 1 bytes @ 0x5
  2984                           
  2985     0075                     ___awdiv@counter:	
  2986                           ; 1 bytes @ 0x5
  2987                           
  2988     0075                     ___awmod@counter:	
  2989                           ; 1 bytes @ 0x5
  2990                           
  2991     0075                     ___lwmod@counter:	
  2992                           ; 1 bytes @ 0x5
  2993                           
  2994     0075                     OLED_WriteData@data:	
  2995                           ; 1 bytes @ 0x5
  2996                           
  2997     0075                     ___lwdiv@quotient:	
  2998                           ; 2 bytes @ 0x5
  2999                           
  3000     0075                     strcpy@d:	
  3001                           ; 2 bytes @ 0x5
  3002                           
  3003                           
  3004                           ; 2 bytes @ 0x5
  3005     0075                     	ds	1
  3006     0076                     ??_memset:
  3007     0076                     ??_memcpy:	
  3008                           ; 1 bytes @ 0x6
  3009                           
  3010     0076                     ??_MAX6675_ReadADC:	
  3011                           ; 1 bytes @ 0x6
  3012                           
  3013     0076                     OLED_Command@st:	
  3014                           ; 1 bytes @ 0x6
  3015                           
  3016     0076                     ___awdiv@sign:	
  3017                           ; 1 bytes @ 0x6
  3018                           
  3019     0076                     ___awmod@sign:	
  3020                           ; 1 bytes @ 0x6
  3021                           
  3022     0076                     __Umul8_16@word_mpld:	
  3023                           ; 1 bytes @ 0x6
  3024                           
  3025     0076                     memcpy@d:	
  3026                           ; 2 bytes @ 0x6
  3027                           
  3028     0076                     memset@p:	
  3029                           ; 2 bytes @ 0x6
  3030                           
  3031                           
  3032                           ; 2 bytes @ 0x6
  3033     0076                     	ds	1
  3034     0077                     ??_OLED_SetOrientation:
  3035     0077                     ?_OLED_YX:	
  3036                           ; 1 bytes @ 0x7
  3037                           
  3038     0077                     OLED_YX@col_char:	
  3039                           ; 1 bytes @ 0x7
  3040                           
  3041     0077                     ___lwdiv@counter:	
  3042                           ; 1 bytes @ 0x7
  3043                           
  3044     0077                     OLED_WriteData@len:	
  3045                           ; 1 bytes @ 0x7
  3046                           
  3047     0077                     ___awdiv@quotient:	
  3048                           ; 2 bytes @ 0x7
  3049                           
  3050                           
  3051                           ; 2 bytes @ 0x7
  3052     0077                     	ds	1
  3053     0078                     ??_OLED_YX:
  3054     0078                     ??___lldiv:	
  3055                           ; 1 bytes @ 0x8
  3056                           
  3057     0078                     ??___aldiv:	
  3058                           ; 1 bytes @ 0x8
  3059                           
  3060     0078                     ??___almod:	
  3061                           ; 1 bytes @ 0x8
  3062                           
  3063     0078                     ??___llmod:	
  3064                           ; 1 bytes @ 0x8
  3065                           
  3066     0078                     __Umul8_16@multiplier:	
  3067                           ; 1 bytes @ 0x8
  3068                           
  3069     0078                     ___xxtofl@sign:	
  3070                           ; 1 bytes @ 0x8
  3071                           
  3072     0078                     memcpy@s:	
  3073                           ; 1 bytes @ 0x8
  3074                           
  3075                           
  3076                           ; 2 bytes @ 0x8
  3077     0078                     	ds	1
  3078     0079                     ??_OLED_WriteData:
  3079     0079                     OLED_SetOrientation@o:	
  3080                           ; 1 bytes @ 0x9
  3081                           
  3082     0079                     OLED_YX@page:	
  3083                           ; 1 bytes @ 0x9
  3084                           
  3085     0079                     ___almod@counter:	
  3086                           ; 1 bytes @ 0x9
  3087                           
  3088     0079                     ___llmod@counter:	
  3089                           ; 1 bytes @ 0x9
  3090                           
  3091     0079                     ___fladd@signs:	
  3092                           ; 1 bytes @ 0x9
  3093                           
  3094     0079                     ___xxtofl@exp:	
  3095                           ; 1 bytes @ 0x9
  3096                           
  3097     0079                     OLED_WriteData@i:	
  3098                           ; 1 bytes @ 0x9
  3099                           
  3100     0079                     ___lldiv@quotient:	
  3101                           ; 2 bytes @ 0x9
  3102                           
  3103                           
  3104                           ; 4 bytes @ 0x9
  3105     0079                     	ds	1
  3106     007A                     OLED_YX@col:
  3107     007A                     ___almod@sign:	
  3108                           ; 1 bytes @ 0xA
  3109                           
  3110     007A                     ___fladd@aexp:	
  3111                           ; 1 bytes @ 0xA
  3112                           
  3113     007A                     memcpy@tmp:	
  3114                           ; 1 bytes @ 0xA
  3115                           
  3116     007A                     MAX6675_ReadADC@raw_data:	
  3117                           ; 1 bytes @ 0xA
  3118                           
  3119     007A                     ___xxtofl@arg:	
  3120                           ; 2 bytes @ 0xA
  3121                           
  3122                           
  3123                           ; 4 bytes @ 0xA
  3124     007A                     	ds	1
  3125     007B                     OLED_WriteData@st:
  3126     007B                     ___fladd@bexp:	
  3127                           ; 1 bytes @ 0xB
  3128                           
  3129                           
  3130                           ; 1 bytes @ 0xB
  3131     007B                     	ds	1
  3132     007C                     OLED_Clear@p:
  3133     007C                     OLED_UpdateLine@page:	
  3134                           ; 1 bytes @ 0xC
  3135                           
  3136     007C                     MAX6675_ReadADC@adc_value:	
  3137                           ; 1 bytes @ 0xC
  3138                           
  3139     007C                     ___fladd@grs:	
  3140                           ; 1 bytes @ 0xC
  3141                           
  3142                           
  3143                           ; 1 bytes @ 0xC
  3144     007C                     	ds	1
  3145     007D                     ??_OLED_Init:
  3146     007D                     ___lldiv@counter:	
  3147                           ; 1 bytes @ 0xD
  3148                           
  3149                           
  3150                           ; 1 bytes @ 0xD
  3151     007D                     	ds	1
  3152     007E                     ??_MAX6675_ReadTemp:
  3153     007E                     ??_MAX6675_ConvertTemp:	
  3154                           ; 1 bytes @ 0xE
  3155                           
  3156     007E                     ??___flsub:	
  3157                           ; 1 bytes @ 0xE
  3158                           
  3159                           
  3160                           	psect	cstackBANK0
  3161     0020                     __pcstackBANK0:	
  3162                           ; 1 bytes @ 0xE
  3163                           
  3164     0020                     ??_OLED_Clear:
  3165     0020                     ??_OLED_UpdateLine:	
  3166                           ; 1 bytes @ 0x0
  3167                           
  3168     0020                     ?___fladd:	
  3169                           ; 1 bytes @ 0x0
  3170                           
  3171     0020                     ___aldiv@counter:	
  3172                           ; 4 bytes @ 0x0
  3173                           
  3174     0020                     ___fladd@b:	
  3175                           ; 1 bytes @ 0x0
  3176                           
  3177                           
  3178                           ; 4 bytes @ 0x0
  3179     0020                     	ds	1
  3180     0021                     ___aldiv@sign:
  3181                           
  3182                           ; 1 bytes @ 0x1
  3183     0021                     	ds	1
  3184     0022                     ___aldiv@quotient:
  3185                           
  3186                           ; 4 bytes @ 0x2
  3187     0022                     	ds	2
  3188     0024                     ___fladd@a:
  3189                           
  3190                           ; 4 bytes @ 0x4
  3191     0024                     	ds	2
  3192     0026                     ?_OLED_Printf_Line:
  3193     0026                     OLED_Printf_Line@fmt:	
  3194                           ; 1 bytes @ 0x6
  3195                           
  3196                           
  3197                           ; 2 bytes @ 0x6
  3198     0026                     	ds	2
  3199     0028                     ??___fladd:
  3200                           
  3201                           ; 1 bytes @ 0x8
  3202     0028                     	ds	6
  3203     002E                     ??_OLED_Printf_Line:
  3204                           
  3205                           ; 1 bytes @ 0xE
  3206     002E                     	ds	2
  3207     0030                     ?___flsub:
  3208     0030                     ___flsub@a:	
  3209                           ; 4 bytes @ 0x10
  3210                           
  3211                           
  3212                           ; 4 bytes @ 0x10
  3213     0030                     	ds	4
  3214     0034                     ___flsub@b:
  3215                           
  3216                           ; 4 bytes @ 0x14
  3217     0034                     	ds	4
  3218     0038                     ?___flmul:
  3219     0038                     ___flmul@b:	
  3220                           ; 4 bytes @ 0x18
  3221                           
  3222                           
  3223                           ; 4 bytes @ 0x18
  3224     0038                     	ds	2
  3225     003A                     OLED_Printf_Line@temp_351:
  3226                           
  3227                           ; 11 bytes @ 0x1A
  3228     003A                     	ds	2
  3229     003C                     ___flmul@a:
  3230                           
  3231                           ; 4 bytes @ 0x1C
  3232     003C                     	ds	4
  3233     0040                     ??___flmul:
  3234                           
  3235                           ; 1 bytes @ 0x20
  3236     0040                     	ds	5
  3237     0045                     ___flmul@sign:
  3238     0045                     OLED_Printf_Line@temp_354:	
  3239                           ; 1 bytes @ 0x25
  3240                           
  3241                           
  3242                           ; 11 bytes @ 0x25
  3243     0045                     	ds	1
  3244     0046                     ___flmul@grs:
  3245                           
  3246                           ; 4 bytes @ 0x26
  3247     0046                     	ds	4
  3248     004A                     ___flmul@aexp:
  3249                           
  3250                           ; 1 bytes @ 0x2A
  3251     004A                     	ds	1
  3252     004B                     ___flmul@bexp:
  3253                           
  3254                           ; 1 bytes @ 0x2B
  3255     004B                     	ds	1
  3256     004C                     ___flmul@prod:
  3257                           
  3258                           ; 4 bytes @ 0x2C
  3259     004C                     	ds	4
  3260     0050                     ___flmul@temp:
  3261     0050                     OLED_Printf_Line@buf:	
  3262                           ; 2 bytes @ 0x30
  3263                           
  3264                           
  3265                           ; 32 bytes @ 0x30
  3266     0050                     	ds	2
  3267     0052                     ?_MAX6675_ConvertTemp:
  3268     0052                     ?___fltol:	
  3269                           ; 4 bytes @ 0x32
  3270                           
  3271     0052                     MAX6675_ConvertTemp@adc_value:	
  3272                           ; 4 bytes @ 0x32
  3273                           
  3274     0052                     ___fltol@f1:	
  3275                           ; 2 bytes @ 0x32
  3276                           
  3277                           
  3278                           ; 4 bytes @ 0x32
  3279     0052                     	ds	2
  3280     0054                     MAX6675_ConvertTemp@unit:
  3281                           
  3282                           ; 1 bytes @ 0x34
  3283     0054                     	ds	2
  3284     0056                     ??___fltol:
  3285     0056                     MAX6675_ConvertTemp@temp:	
  3286                           ; 1 bytes @ 0x36
  3287                           
  3288                           
  3289                           ; 4 bytes @ 0x36
  3290     0056                     	ds	4
  3291     005A                     ?_MAX6675_ReadTemp:
  3292     005A                     MAX6675_ReadTemp@unit:	
  3293                           ; 1 bytes @ 0x3A
  3294                           
  3295     005A                     ___fltol@sign1:	
  3296                           ; 1 bytes @ 0x3A
  3297                           
  3298                           
  3299                           ; 1 bytes @ 0x3A
  3300     005A                     	ds	1
  3301     005B                     MAX6675_ReadTemp@status:
  3302     005B                     ___fltol@exp1:	
  3303                           ; 1 bytes @ 0x3B
  3304                           
  3305                           
  3306                           ; 1 bytes @ 0x3B
  3307     005B                     	ds	1
  3308     005C                     MAX6675_ReadTemp@temp:
  3309                           
  3310                           ; 1 bytes @ 0x3C
  3311     005C                     	ds	1
  3312     005D                     MAX6675_ReadTemp@adc_value:
  3313                           
  3314                           ; 2 bytes @ 0x3D
  3315     005D                     	ds	19
  3316                           
  3317                           	psect	maintext
  3318     0BE5                     __pmaintext:	
  3319 ;;
  3320 ;;Main: autosize = 0, tempsize = 2, incstack = 0, save=0
  3321 ;;
  3322 ;; *************** function _main *****************
  3323 ;; Defined at:
  3324 ;;		line 157 in file "main.c"
  3325 ;; Parameters:    Size  Location     Type
  3326 ;;		None
  3327 ;; Auto vars:     Size  Location     Type
  3328 ;;  temperature     4   64[BANK1 ] float 
  3329 ;;  unit            1   68[BANK1 ] unsigned char 
  3330 ;;  button_was_p    1   63[BANK1 ] unsigned char 
  3331 ;;  status          1   62[BANK1 ] unsigned char 
  3332 ;; Return value:  Size  Location     Type
  3333 ;;                  1    wreg      void 
  3334 ;; Registers used:
  3335 ;;		wreg, fsr0l, fsr0h, fsr1l, fsr1h, status,2, status,0, pclath, cstack
  3336 ;; Tracked objects:
  3337 ;;		On entry : B1F/0
  3338 ;;		On exit  : 0/0
  3339 ;;		Unchanged: 0/0
  3340 ;; Data sizes:     COMMON   BANK0   BANK1   BANK2   BANK3   BANK4   BANK5   BANK6   BANK7   BANK8   BANK9  BANK10  BANK1
      +1  BANK12  BANK13  BANK14  BANK15  BANK16  BANK17  BANK18  BANK19  BANK20  BANK21  BANK22  BANK23  BANK24  BANK25
  3341 ;;      Params:         0       0       0       0       0       0       0       0       0       0       0       0       
      +0       0       0       0       0       0       0       0       0       0       0       0       0       0       0
  3342 ;;      Locals:         0       0       7       0       0       0       0       0       0       0       0       0       
      +0       0       0       0       0       0       0       0       0       0       0       0       0       0       0
  3343 ;;      Temps:          0       0       2       0       0       0       0       0       0       0       0       0       
      +0       0       0       0       0       0       0       0       0       0       0       0       0       0       0
  3344 ;;      Totals:         0       0       9       0       0       0       0       0       0       0       0       0       
      +0       0       0       0       0       0       0       0       0       0       0       0       0       0       0
  3345 ;;Total ram usage:        9 bytes
  3346 ;; Hardware stack levels required when called: 7
  3347 ;; This function calls:
  3348 ;;		_I2C_Init
  3349 ;;		_MAX6675_ReadTemp
  3350 ;;		_OLED_Clear
  3351 ;;		_OLED_Init
  3352 ;;		_OLED_Printf_Line
  3353 ;;		_OLED_SetOrientation
  3354 ;;		_displayTemperature
  3355 ;;		_initMain
  3356 ;; This function is called by:
  3357 ;;		Startup code after reset
  3358 ;; This function uses a non-reentrant model
  3359 ;;
  3360                           
  3361     0BE5                     _main:	
  3362                           ;psect for function _main
  3363                           
  3364     0BE5                     l4173:	
  3365                           ;incstack = 0
  3366                           ; Regs used in _main: [wreg-fsr1h+status,2+status,0+pclath+cstack]
  3367                           
  3368                           
  3369                           ;main.c: 159:     initMain();
  3370     0BE5  3180  2004  318B   	fcall	_initMain
  3371                           
  3372                           ;main.c: 160:     I2C_Init();
  3373     0BE8  3192  2264  318B   	fcall	_I2C_Init
  3374     0BEB                     l4175:
  3375                           
  3376                           ;main.c: 162:     OLED_Init();
  3377     0BEB  318B  2371  318B   	fcall	_OLED_Init
  3378     0BEE                     l4177:
  3379                           
  3380                           ;main.c: 163:     OLED_SetOrientation(OLED_ORIENT_0);
  3381     0BEE  3000               	movlw	0
  3382     0BEF  3195  25BA  318B   	fcall	_OLED_SetOrientation
  3383     0BF2                     l4179:
  3384                           
  3385                           ;main.c: 164:     OLED_Clear();
  3386     0BF2  3196  2645  318B   	fcall	_OLED_Clear
  3387     0BF5                     l4181:
  3388                           
  3389                           ;main.c: 167:     OLED_Printf_Line(0, "MAX6675 K-TC");
  3390     0BF5  3000               	movlw	low (STR_11| (0+32768))
  3391     0BF6  0020               	movlb	0	; select bank0
  3392     0BF7  00A6               	movwf	OLED_Printf_Line@fmt
  3393     0BF8  3098               	movlw	high (STR_11| (0+32768))
  3394     0BF9  00A7               	movwf	OLED_Printf_Line@fmt+1
  3395     0BFA  3000               	movlw	0
  3396     0BFB  3183  23DF  318B   	fcall	_OLED_Printf_Line
  3397     0BFE                     l4183:
  3398                           
  3399                           ;main.c: 169:     uint8_t unit = 0;
  3400     0BFE  0021               	movlb	1	; select bank1
  3401     0BFF  01E4               	clrf	main@unit^(0+128)
  3402     0C00                     l4185:
  3403                           
  3404                           ;main.c: 170:     uint8_t status;;main.c: 171:     float temperature = 0.0f;
  3405     0C00  3000               	movlw	0
  3406     0C01  00E3               	movwf	(main@temperature+3)^(0+128)
  3407     0C02  3000               	movlw	0
  3408     0C03  00E2               	movwf	(main@temperature+2)^(0+128)
  3409     0C04  3000               	movlw	0
  3410     0C05  00E1               	movwf	(main@temperature+1)^(0+128)
  3411     0C06  3000               	movlw	0
  3412     0C07  00E0               	movwf	main@temperature^(0+128)
  3413     0C08                     l4187:
  3414                           
  3415                           ;main.c: 172:     uint8_t button_was_pressed = 0;
  3416     0C08  01DF               	clrf	main@button_was_pressed^(0+128)
  3417     0C09                     l4189:
  3418                           
  3419                           ;main.c: 175:     {;main.c: 179:         if ((!PORTBbits.RB3))
  3420     0C09  0020               	movlb	0	; select bank0
  3421     0C0A  198D               	btfsc	13,3	;volatile
  3422     0C0B  2C0D               	goto	u5391
  3423     0C0C  2C0E               	goto	u5390
  3424     0C0D                     u5391:
  3425     0C0D  2C34               	goto	l4205
  3426     0C0E                     u5390:
  3427     0C0E                     l4191:
  3428                           
  3429                           ;main.c: 180:         {;main.c: 181:             if (!button_was_pressed)
  3430     0C0E  0021               	movlb	1	; select bank1
  3431     0C0F  085F               	movf	main@button_was_pressed^(0+128),w
  3432     0C10  1D03               	btfss	3,2
  3433     0C11  2C13               	goto	u5401
  3434     0C12  2C14               	goto	u5400
  3435     0C13                     u5401:
  3436     0C13  2C36               	goto	l4207
  3437     0C14                     u5400:
  3438     0C14                     l4193:
  3439                           
  3440                           ;main.c: 182:             {;main.c: 183:                 _delay((unsigned long)((50)*(32
      +                          000000/4000.0)));
  3441     0C14  3003               	movlw	3
  3442     0C15  0021               	movlb	1	; select bank1
  3443     0C16  00DD               	movwf	(??_main^(0+128)+1)
  3444     0C17  3008               	movlw	8
  3445     0C18  00DC               	movwf	??_main^(0+128)
  3446     0C19  3077               	movlw	119
  3447     0C1A                     u5457:
  3448     0C1A  0B89               	decfsz	9,f
  3449     0C1B  2C1A               	goto	u5457
  3450     0C1C  0BDC               	decfsz	??_main^(0+128),f
  3451     0C1D  2C1A               	goto	u5457
  3452     0C1E  0BDD               	decfsz	(??_main^(0+128)+1),f
  3453     0C1F  2C1A               	goto	u5457
  3454     0C20                     l4195:
  3455                           
  3456                           ;main.c: 184:                 if ((!PORTBbits.RB3))
  3457     0C20  0020               	movlb	0	; select bank0
  3458     0C21  198D               	btfsc	13,3	;volatile
  3459     0C22  2C24               	goto	u5411
  3460     0C23  2C25               	goto	u5410
  3461     0C24                     u5411:
  3462     0C24  2C36               	goto	l4207
  3463     0C25                     u5410:
  3464     0C25                     l4197:
  3465                           
  3466                           ;main.c: 185:                 {;main.c: 187:                     unit++;
  3467     0C25  3001               	movlw	1
  3468     0C26  0021               	movlb	1	; select bank1
  3469     0C27  00DC               	movwf	??_main^(0+128)
  3470     0C28  085C               	movf	??_main^(0+128),w
  3471     0C29  07E4               	addwf	main@unit^(0+128),f
  3472     0C2A                     l4199:
  3473                           
  3474                           ;main.c: 188:                     if (unit > 2)
  3475     0C2A  3003               	movlw	3
  3476     0C2B  0264               	subwf	main@unit^(0+128),w
  3477     0C2C  1C03               	skipc
  3478     0C2D  2C2F               	goto	u5421
  3479     0C2E  2C30               	goto	u5420
  3480     0C2F                     u5421:
  3481     0C2F  2C31               	goto	l4203
  3482     0C30                     u5420:
  3483     0C30                     l4201:
  3484                           
  3485                           ;main.c: 189:                     {;main.c: 190:                         unit = 0;
  3486     0C30  01E4               	clrf	main@unit^(0+128)
  3487     0C31                     l4203:
  3488                           
  3489                           ;main.c: 192:                     button_was_pressed = 1;
  3490     0C31  01DF               	clrf	main@button_was_pressed^(0+128)
  3491     0C32  0ADF               	incf	main@button_was_pressed^(0+128),f
  3492     0C33  2C36               	goto	l4207
  3493     0C34                     l4205:
  3494                           
  3495                           ;main.c: 197:         {;main.c: 198:             button_was_pressed = 0;
  3496     0C34  0021               	movlb	1	; select bank1
  3497     0C35  01DF               	clrf	main@button_was_pressed^(0+128)
  3498     0C36                     l4207:
  3499                           
  3500                           ;main.c: 204:         status = MAX6675_ReadTemp(&temperature, unit);
  3501     0C36  0021               	movlb	1	; select bank1
  3502     0C37  0864               	movf	main@unit^(0+128),w
  3503     0C38  0020               	movlb	0	; select bank0
  3504     0C39  00DA               	movwf	MAX6675_ReadTemp@unit
  3505     0C3A  30E0               	movlw	(low (main@temperature| 0))& (0+255)
  3506     0C3B  3194  24B7  318B   	fcall	_MAX6675_ReadTemp
  3507     0C3E  0021               	movlb	1	; select bank1
  3508     0C3F  00DE               	movwf	main@status^(0+128)
  3509     0C40                     l4209:
  3510                           
  3511                           ;main.c: 212:         displayTemperature(temperature, unit, status);
  3512     0C40  0863               	movf	(main@temperature+3)^(0+128),w
  3513     0C41  00D4               	movwf	(displayTemperature@temp+3)^(0+128)
  3514     0C42  0862               	movf	(main@temperature+2)^(0+128),w
  3515     0C43  00D3               	movwf	(displayTemperature@temp+2)^(0+128)
  3516     0C44  0861               	movf	(main@temperature+1)^(0+128),w
  3517     0C45  00D2               	movwf	(displayTemperature@temp+1)^(0+128)
  3518     0C46  0860               	movf	main@temperature^(0+128),w
  3519     0C47  00D1               	movwf	displayTemperature@temp^(0+128)
  3520     0C48  0864               	movf	main@unit^(0+128),w
  3521     0C49  00D5               	movwf	displayTemperature@unit^(0+128)
  3522     0C4A  085E               	movf	main@status^(0+128),w
  3523     0C4B  00D6               	movwf	displayTemperature@status^(0+128)
  3524     0C4C  3180  20EA  318B   	fcall	_displayTemperature
  3525     0C4F                     l4211:
  3526                           
  3527                           ;main.c: 216:         _delay((unsigned long)((250)*(32000000/4000.0)));
  3528     0C4F  300B               	movlw	11
  3529     0C50  0021               	movlb	1	; select bank1
  3530     0C51  00DD               	movwf	(??_main^(0+128)+1)
  3531     0C52  3026               	movlw	38
  3532     0C53  00DC               	movwf	??_main^(0+128)
  3533     0C54  305D               	movlw	93
  3534     0C55                     u5467:
  3535     0C55  0B89               	decfsz	9,f
  3536     0C56  2C55               	goto	u5467
  3537     0C57  0BDC               	decfsz	??_main^(0+128),f
  3538     0C58  2C55               	goto	u5467
  3539     0C59  0BDD               	decfsz	(??_main^(0+128)+1),f
  3540     0C5A  2C55               	goto	u5467
  3541     0C5B  3200               	nop2
  3542     0C5C  2C09               	goto	l4189
  3543     0C5D  3180  2802         	ljmp	start
  3544     0C5F                     __end_of_main:
  3545                           
  3546                           	psect	text1
  3547     0004                     __ptext1:	
  3548 ;; *************** function _initMain *****************
  3549 ;; Defined at:
  3550 ;;		line 59 in file "main.c"
  3551 ;; Parameters:    Size  Location     Type
  3552 ;;		None
  3553 ;; Auto vars:     Size  Location     Type
  3554 ;;		None
  3555 ;; Return value:  Size  Location     Type
  3556 ;;                  1    wreg      void 
  3557 ;; Registers used:
  3558 ;;		wreg, status,2, status,0, pclath, cstack
  3559 ;; Tracked objects:
  3560 ;;		On entry : 0/0
  3561 ;;		On exit  : 0/0
  3562 ;;		Unchanged: 0/0
  3563 ;; Data sizes:     COMMON   BANK0   BANK1   BANK2   BANK3   BANK4   BANK5   BANK6   BANK7   BANK8   BANK9  BANK10  BANK1
      +1  BANK12  BANK13  BANK14  BANK15  BANK16  BANK17  BANK18  BANK19  BANK20  BANK21  BANK22  BANK23  BANK24  BANK25
  3564 ;;      Params:         0       0       0       0       0       0       0       0       0       0       0       0       
      +0       0       0       0       0       0       0       0       0       0       0       0       0       0       0
  3565 ;;      Locals:         0       0       0       0       0       0       0       0       0       0       0       0       
      +0       0       0       0       0       0       0       0       0       0       0       0       0       0       0
  3566 ;;      Temps:          1       0       0       0       0       0       0       0       0       0       0       0       
      +0       0       0       0       0       0       0       0       0       0       0       0       0       0       0
  3567 ;;      Totals:         1       0       0       0       0       0       0       0       0       0       0       0       
      +0       0       0       0       0       0       0       0       0       0       0       0       0       0       0
  3568 ;;Total ram usage:        1 bytes
  3569 ;; Hardware stack levels used: 1
  3570 ;; Hardware stack levels required when called: 1
  3571 ;; This function calls:
  3572 ;;		_MAX6675_Init
  3573 ;;		_internal_32
  3574 ;; This function is called by:
  3575 ;;		_main
  3576 ;; This function uses a non-reentrant model
  3577 ;;
  3578                           
  3579     0004                     _initMain:	
  3580                           ;psect for function _initMain
  3581                           
  3582     0004                     l3955:	
  3583                           ;incstack = 0
  3584                           ; Regs used in _initMain: [wreg+status,2+status,0+pclath+cstack]
  3585                           
  3586                           
  3587                           ;main.c: 62:     internal_32();
  3588     0004  3192  2243  3180   	fcall	_internal_32
  3589     0007                     l3957:
  3590                           
  3591                           ;main.c: 63:     _delay((unsigned long)((10)*(32000000/4000.0)));
  3592     0007  3068               	movlw	104
  3593     0008  00F0               	movwf	??_initMain
  3594     0009  30E4               	movlw	228
  3595     000A                     u5477:
  3596     000A  0B89               	decfsz	9,f
  3597     000B  280A               	goto	u5477
  3598     000C  0BF0               	decfsz	??_initMain,f
  3599     000D  280A               	goto	u5477
  3600     000E  3200               	nop2
  3601     000F                     l3959:
  3602                           
  3603                           ;main.c: 68:     ANSELCbits.ANSC4 = 0;
  3604     000F  0023               	movlb	3	; select bank3
  3605     0010  120E               	bcf	14,4	;volatile
  3606     0011                     l3961:
  3607                           
  3608                           ;main.c: 69:     ANSELCbits.ANSC5 = 0;
  3609     0011  128E               	bcf	14,5	;volatile
  3610     0012                     l3963:
  3611                           
  3612                           ;main.c: 70:     TRISCbits.TRISC4 = 1;
  3613     0012  0021               	movlb	1	; select bank1
  3614     0013  160E               	bsf	14,4	;volatile
  3615     0014                     l3965:
  3616                           
  3617                           ;main.c: 71:     TRISCbits.TRISC5 = 1;
  3618     0014  168E               	bsf	14,5	;volatile
  3619     0015                     l3967:
  3620                           
  3621                           ;main.c: 76:     PPSLOCK = 0x55;
  3622     0015  3055               	movlw	85
  3623     0016  003C               	movlb	28	; select bank28
  3624     0017  008F               	movwf	15	;volsfr
  3625     0018                     l3969:
  3626                           
  3627                           ;main.c: 77:     PPSLOCK = 0xAA;
  3628     0018  30AA               	movlw	170
  3629     0019  008F               	movwf	15	;volsfr
  3630     001A                     l3971:
  3631                           
  3632                           ;main.c: 78:     PPSLOCKbits.PPSLOCKED = 0;
  3633     001A  100F               	bcf	15,0	;volsfr
  3634     001B                     l3973:
  3635                           
  3636                           ;main.c: 80:     RC4PPSbits.RC4PPS = 0x11;
  3637     001B  003D               	movlb	29	; select bank29
  3638     001C  0824               	movf	36,w	;volatile
  3639     001D  39E0               	andlw	-32
  3640     001E  3811               	iorlw	17
  3641     001F  00A4               	movwf	36	;volatile
  3642     0020                     l3975:
  3643                           
  3644                           ;main.c: 81:     SSPDATPPSbits.SSPDATPPS = 0x14;
  3645     0020  003C               	movlb	28	; select bank28
  3646     0021  0821               	movf	33,w	;volatile
  3647     0022  39E0               	andlw	-32
  3648     0023  3814               	iorlw	20
  3649     0024  00A1               	movwf	33	;volatile
  3650     0025                     l3977:
  3651                           
  3652                           ;main.c: 82:     SSPCLKPPSbits.SSPCLKPPS = 0x15;
  3653     0025  0820               	movf	32,w	;volatile
  3654     0026  39E0               	andlw	-32
  3655     0027  3815               	iorlw	21
  3656     0028  00A0               	movwf	32	;volatile
  3657     0029                     l3979:
  3658                           
  3659                           ;main.c: 83:     RC5PPSbits.RC5PPS = 0x10;
  3660     0029  003D               	movlb	29	; select bank29
  3661     002A  0825               	movf	37,w	;volatile
  3662     002B  39E0               	andlw	-32
  3663     002C  3810               	iorlw	16
  3664     002D  00A5               	movwf	37	;volatile
  3665     002E                     l3981:
  3666                           
  3667                           ;main.c: 85:     PPSLOCK = 0x55;
  3668     002E  3055               	movlw	85
  3669     002F  003C               	movlb	28	; select bank28
  3670     0030  008F               	movwf	15	;volsfr
  3671     0031                     l3983:
  3672                           
  3673                           ;main.c: 86:     PPSLOCK = 0xAA;
  3674     0031  30AA               	movlw	170
  3675     0032  008F               	movwf	15	;volsfr
  3676     0033                     l3985:
  3677                           
  3678                           ;main.c: 87:     PPSLOCKbits.PPSLOCKED = 1;
  3679     0033  140F               	bsf	15,0	;volsfr
  3680     0034                     l3987:
  3681                           
  3682                           ;main.c: 92:     ANSELBbits.ANSB3 = 0;
  3683     0034  0023               	movlb	3	; select bank3
  3684     0035  118D               	bcf	13,3	;volatile
  3685     0036                     l3989:
  3686                           
  3687                           ;main.c: 93:     TRISBbits.TRISB3 = 1;
  3688     0036  0021               	movlb	1	; select bank1
  3689     0037  158D               	bsf	13,3	;volatile
  3690     0038                     l3991:
  3691                           
  3692                           ;main.c: 94:     WPUBbits.WPUB3 = 1;
  3693     0038  0024               	movlb	4	; select bank4
  3694     0039  158D               	bsf	13,3	;volatile
  3695     003A                     l3993:
  3696                           
  3697                           ;main.c: 95:     OPTION_REGbits.nWPUEN = 0;
  3698     003A  0021               	movlb	1	; select bank1
  3699     003B  1395               	bcf	21,7	;volatile
  3700     003C                     l3995:
  3701                           
  3702                           ;main.c: 100:     MAX6675_Init();
  3703     003C  3192  224C  3180   	fcall	_MAX6675_Init
  3704     003F                     l338:
  3705     003F  0008               	return
  3706     0040                     __end_of_initMain:
  3707                           
  3708                           	psect	text2
  3709     1243                     __ptext2:	
  3710 ;; *************** function _internal_32 *****************
  3711 ;; Defined at:
  3712 ;;		line 36 in file "PIC16F1718_Internal.c"
  3713 ;; Parameters:    Size  Location     Type
  3714 ;;		None
  3715 ;; Auto vars:     Size  Location     Type
  3716 ;;		None
  3717 ;; Return value:  Size  Location     Type
  3718 ;;                  1    wreg      void 
  3719 ;; Registers used:
  3720 ;;		None
  3721 ;; Tracked objects:
  3722 ;;		On entry : 0/0
  3723 ;;		On exit  : 0/0
  3724 ;;		Unchanged: 0/0
  3725 ;; Data sizes:     COMMON   BANK0   BANK1   BANK2   BANK3   BANK4   BANK5   BANK6   BANK7   BANK8   BANK9  BANK10  BANK1
      +1  BANK12  BANK13  BANK14  BANK15  BANK16  BANK17  BANK18  BANK19  BANK20  BANK21  BANK22  BANK23  BANK24  BANK25
  3726 ;;      Params:         0       0       0       0       0       0       0       0       0       0       0       0       
      +0       0       0       0       0       0       0       0       0       0       0       0       0       0       0
  3727 ;;      Locals:         0       0       0       0       0       0       0       0       0       0       0       0       
      +0       0       0       0       0       0       0       0       0       0       0       0       0       0       0
  3728 ;;      Temps:          0       0       0       0       0       0       0       0       0       0       0       0       
      +0       0       0       0       0       0       0       0       0       0       0       0       0       0       0
  3729 ;;      Totals:         0       0       0       0       0       0       0       0       0       0       0       0       
      +0       0       0       0       0       0       0       0       0       0       0       0       0       0       0
  3730 ;;Total ram usage:        0 bytes
  3731 ;; Hardware stack levels used: 1
  3732 ;; This function calls:
  3733 ;;		Nothing
  3734 ;; This function is called by:
  3735 ;;		_initMain
  3736 ;; This function uses a non-reentrant model
  3737 ;;
  3738                           
  3739     1243                     _internal_32:	
  3740                           ;psect for function _internal_32
  3741                           
  3742     1243                     l3759:	
  3743                           ;incstack = 0
  3744                           ; Regs used in _internal_32: []
  3745                           
  3746                           
  3747                           ;PIC16F1718_Internal.c: 38:     SCS0 = 0;
  3748     1243  0021               	movlb	1	; select bank1
  3749     1244  1019               	bcf	25,0	;volatile
  3750                           
  3751                           ;PIC16F1718_Internal.c: 39:     SCS1 = 0;
  3752     1245  1099               	bcf	25,1	;volatile
  3753                           
  3754                           ;PIC16F1718_Internal.c: 42:     IRCF0 = 0;
  3755     1246  1199               	bcf	25,3	;volatile
  3756                           
  3757                           ;PIC16F1718_Internal.c: 43:     IRCF1 = 1;
  3758     1247  1619               	bsf	25,4	;volatile
  3759                           
  3760                           ;PIC16F1718_Internal.c: 44:     IRCF2 = 1;
  3761     1248  1699               	bsf	25,5	;volatile
  3762                           
  3763                           ;PIC16F1718_Internal.c: 45:     IRCF3 = 1;
  3764     1249  1719               	bsf	25,6	;volatile
  3765                           
  3766                           ;PIC16F1718_Internal.c: 48:     SPLLEN = 1;
  3767     124A  1799               	bsf	25,7	;volatile
  3768     124B                     l273:
  3769     124B  0008               	return
  3770     124C                     __end_of_internal_32:
  3771                           
  3772                           	psect	text3
  3773     124C                     __ptext3:	
  3774 ;; *************** function _MAX6675_Init *****************
  3775 ;; Defined at:
  3776 ;;		line 28 in file "max6675.c"
  3777 ;; Parameters:    Size  Location     Type
  3778 ;;		None
  3779 ;; Auto vars:     Size  Location     Type
  3780 ;;		None
  3781 ;; Return value:  Size  Location     Type
  3782 ;;                  1    wreg      void 
  3783 ;; Registers used:
  3784 ;;		None
  3785 ;; Tracked objects:
  3786 ;;		On entry : 0/0
  3787 ;;		On exit  : 0/0
  3788 ;;		Unchanged: 0/0
  3789 ;; Data sizes:     COMMON   BANK0   BANK1   BANK2   BANK3   BANK4   BANK5   BANK6   BANK7   BANK8   BANK9  BANK10  BANK1
      +1  BANK12  BANK13  BANK14  BANK15  BANK16  BANK17  BANK18  BANK19  BANK20  BANK21  BANK22  BANK23  BANK24  BANK25
  3790 ;;      Params:         0       0       0       0       0       0       0       0       0       0       0       0       
      +0       0       0       0       0       0       0       0       0       0       0       0       0       0       0
  3791 ;;      Locals:         0       0       0       0       0       0       0       0       0       0       0       0       
      +0       0       0       0       0       0       0       0       0       0       0       0       0       0       0
  3792 ;;      Temps:          0       0       0       0       0       0       0       0       0       0       0       0       
      +0       0       0       0       0       0       0       0       0       0       0       0       0       0       0
  3793 ;;      Totals:         0       0       0       0       0       0       0       0       0       0       0       0       
      +0       0       0       0       0       0       0       0       0       0       0       0       0       0       0
  3794 ;;Total ram usage:        0 bytes
  3795 ;; Hardware stack levels used: 1
  3796 ;; This function calls:
  3797 ;;		Nothing
  3798 ;; This function is called by:
  3799 ;;		_initMain
  3800 ;; This function uses a non-reentrant model
  3801 ;;
  3802                           
  3803     124C                     _MAX6675_Init:	
  3804                           ;psect for function _MAX6675_Init
  3805                           
  3806     124C                     l3761:	
  3807                           ;incstack = 0
  3808                           ; Regs used in _MAX6675_Init: []
  3809                           
  3810                           
  3811                           ;max6675.c: 31:     ANSELBbits.ANSB0 = 0;
  3812     124C  0023               	movlb	3	; select bank3
  3813     124D  100D               	bcf	13,0	;volatile
  3814                           
  3815                           ;max6675.c: 32:     ANSELBbits.ANSB1 = 0;
  3816     124E  108D               	bcf	13,1	;volatile
  3817                           
  3818                           ;max6675.c: 33:     ANSELBbits.ANSB2 = 0;
  3819     124F  110D               	bcf	13,2	;volatile
  3820                           
  3821                           ;max6675.c: 36:     TRISBbits.TRISB0 = 0;
  3822     1250  0021               	movlb	1	; select bank1
  3823     1251  100D               	bcf	13,0	;volatile
  3824                           
  3825                           ;max6675.c: 37:     TRISBbits.TRISB1 = 0;
  3826     1252  108D               	bcf	13,1	;volatile
  3827                           
  3828                           ;max6675.c: 38:     TRISBbits.TRISB2 = 1;
  3829     1253  150D               	bsf	13,2	;volatile
  3830                           
  3831                           ;max6675.c: 41:     LATBbits.LATB0 = 1;
  3832     1254  0022               	movlb	2	; select bank2
  3833     1255  140D               	bsf	13,0	;volatile
  3834                           
  3835                           ;max6675.c: 42:     LATBbits.LATB1 = 0;
  3836     1256  108D               	bcf	13,1	;volatile
  3837     1257                     l388:
  3838     1257  0008               	return
  3839     1258                     __end_of_MAX6675_Init:
  3840                           
  3841                           	psect	text4
  3842     00EA                     __ptext4:	
  3843 ;; *************** function _displayTemperature *****************
  3844 ;; Defined at:
  3845 ;;		line 134 in file "main.c"
  3846 ;; Parameters:    Size  Location     Type
  3847 ;;  temp            4   49[BANK1 ] float 
  3848 ;;  unit            1   53[BANK1 ] unsigned char 
  3849 ;;  status          1   54[BANK1 ] unsigned char 
  3850 ;; Auto vars:     Size  Location     Type
  3851 ;;  temp_int        2   57[BANK1 ] short 
  3852 ;;  temp_frac       1   59[BANK1 ] unsigned char 
  3853 ;; Return value:  Size  Location     Type
  3854 ;;                  1    wreg      void 
  3855 ;; Registers used:
  3856 ;;		wreg, fsr0l, fsr0h, fsr1l, fsr1h, status,2, status,0, pclath, cstack
  3857 ;; Tracked objects:
  3858 ;;		On entry : 0/0
  3859 ;;		On exit  : 0/0
  3860 ;;		Unchanged: 0/0
  3861 ;; Data sizes:     COMMON   BANK0   BANK1   BANK2   BANK3   BANK4   BANK5   BANK6   BANK7   BANK8   BANK9  BANK10  BANK1
      +1  BANK12  BANK13  BANK14  BANK15  BANK16  BANK17  BANK18  BANK19  BANK20  BANK21  BANK22  BANK23  BANK24  BANK25
  3862 ;;      Params:         0       0       6       0       0       0       0       0       0       0       0       0       
      +0       0       0       0       0       0       0       0       0       0       0       0       0       0       0
  3863 ;;      Locals:         0       0       3       0       0       0       0       0       0       0       0       0       
      +0       0       0       0       0       0       0       0       0       0       0       0       0       0       0
  3864 ;;      Temps:          0       0       2       0       0       0       0       0       0       0       0       0       
      +0       0       0       0       0       0       0       0       0       0       0       0       0       0       0
  3865 ;;      Totals:         0       0      11       0       0       0       0       0       0       0       0       0       
      +0       0       0       0       0       0       0       0       0       0       0       0       0       0       0
  3866 ;;Total ram usage:       11 bytes
  3867 ;; Hardware stack levels used: 1
  3868 ;; Hardware stack levels required when called: 6
  3869 ;; This function calls:
  3870 ;;		_OLED_Printf_Line
  3871 ;;		___flmul
  3872 ;;		___flsub
  3873 ;;		___fltol
  3874 ;;		___xxtofl
  3875 ;;		_getUnitString
  3876 ;;		_getUnitSymbol
  3877 ;; This function is called by:
  3878 ;;		_main
  3879 ;; This function uses a non-reentrant model
  3880 ;;
  3881                           
  3882     00EA                     _displayTemperature:	
  3883                           ;psect for function _displayTemperature
  3884                           
  3885     00EA                     l3997:	
  3886                           ;incstack = 0
  3887                           ; Regs used in _displayTemperature: [wreg-fsr1h+status,2+status,0+pclath+cstack]
  3888                           
  3889                           
  3890                           ;main.c: 134: void displayTemperature(float temp, uint8_t unit, uint8_t status);main.c: 
      +                          135: {;main.c: 136:     if (status == 0x00)
  3891     00EA  0021               	movlb	1	; select bank1
  3892     00EB  0856               	movf	displayTemperature@status^(0+128),w
  3893     00EC  1D03               	btfss	3,2
  3894     00ED  28EF               	goto	u5061
  3895     00EE  28F0               	goto	u5060
  3896     00EF                     u5061:
  3897     00EF  2991               	goto	l4007
  3898     00F0                     u5060:
  3899     00F0                     l3999:
  3900                           
  3901                           ;main.c: 137:     {;main.c: 140:         int16_t temp_int = (int16_t)temp;
  3902     00F0  0854               	movf	(displayTemperature@temp+3)^(0+128),w
  3903     00F1  0020               	movlb	0	; select bank0
  3904     00F2  00D5               	movwf	___fltol@f1+3
  3905     00F3  0021               	movlb	1	; select bank1
  3906     00F4  0853               	movf	(displayTemperature@temp+2)^(0+128),w
  3907     00F5  0020               	movlb	0	; select bank0
  3908     00F6  00D4               	movwf	___fltol@f1+2
  3909     00F7  0021               	movlb	1	; select bank1
  3910     00F8  0852               	movf	(displayTemperature@temp+1)^(0+128),w
  3911     00F9  0020               	movlb	0	; select bank0
  3912     00FA  00D3               	movwf	___fltol@f1+1
  3913     00FB  0021               	movlb	1	; select bank1
  3914     00FC  0851               	movf	displayTemperature@temp^(0+128),w
  3915     00FD  0020               	movlb	0	; select bank0
  3916     00FE  00D2               	movwf	___fltol@f1
  3917     00FF  3197  278F  3180   	fcall	___fltol
  3918     0102  0020               	movlb	0	; select bank0
  3919     0103  0853               	movf	?___fltol+1,w
  3920     0104  0021               	movlb	1	; select bank1
  3921     0105  00DA               	movwf	(displayTemperature@temp_int+1)^(0+128)
  3922     0106  0020               	movlb	0	; select bank0
  3923     0107  0852               	movf	?___fltol,w
  3924     0108  0021               	movlb	1	; select bank1
  3925     0109  00D9               	movwf	displayTemperature@temp_int^(0+128)
  3926                           
  3927                           ;main.c: 141:         uint8_t temp_frac = (uint8_t)((temp - (float)temp_int) * 10);
  3928     010A  0854               	movf	(displayTemperature@temp+3)^(0+128),w
  3929     010B  0020               	movlb	0	; select bank0
  3930     010C  00B7               	movwf	___flsub@b+3
  3931     010D  0021               	movlb	1	; select bank1
  3932     010E  0853               	movf	(displayTemperature@temp+2)^(0+128),w
  3933     010F  0020               	movlb	0	; select bank0
  3934     0110  00B6               	movwf	___flsub@b+2
  3935     0111  0021               	movlb	1	; select bank1
  3936     0112  0852               	movf	(displayTemperature@temp+1)^(0+128),w
  3937     0113  0020               	movlb	0	; select bank0
  3938     0114  00B5               	movwf	___flsub@b+1
  3939     0115  0021               	movlb	1	; select bank1
  3940     0116  0851               	movf	displayTemperature@temp^(0+128),w
  3941     0117  0020               	movlb	0	; select bank0
  3942     0118  00B4               	movwf	___flsub@b
  3943     0119  0021               	movlb	1	; select bank1
  3944     011A  0859               	movf	displayTemperature@temp_int^(0+128),w
  3945     011B  00F0               	movwf	___xxtofl@val
  3946     011C  085A               	movf	(displayTemperature@temp_int+1)^(0+128),w
  3947     011D  00F1               	movwf	___xxtofl@val+1
  3948     011E  0D89               	rlf	9,f
  3949     011F  3B89               	subwfb	9,f
  3950     0120  0989               	comf	9,f
  3951     0121  00F2               	movwf	___xxtofl@val+2
  3952     0122  00F3               	movwf	___xxtofl@val+3
  3953     0123  3001               	movlw	1
  3954     0124  3180  2040  3180   	fcall	___xxtofl
  3955     0127  0873               	movf	?___xxtofl+3,w
  3956     0128  0020               	movlb	0	; select bank0
  3957     0129  00B3               	movwf	___flsub@a+3
  3958     012A  0872               	movf	?___xxtofl+2,w
  3959     012B  00B2               	movwf	___flsub@a+2
  3960     012C  0871               	movf	?___xxtofl+1,w
  3961     012D  00B1               	movwf	___flsub@a+1
  3962     012E  0870               	movf	?___xxtofl,w
  3963     012F  00B0               	movwf	___flsub@a
  3964     0130  3193  2307  3180   	fcall	___flsub
  3965     0133  0020               	movlb	0	; select bank0
  3966     0134  0833               	movf	?___flsub+3,w
  3967     0135  00BF               	movwf	___flmul@a+3
  3968     0136  0832               	movf	?___flsub+2,w
  3969     0137  00BE               	movwf	___flmul@a+2
  3970     0138  0831               	movf	?___flsub+1,w
  3971     0139  00BD               	movwf	___flmul@a+1
  3972     013A  0830               	movf	?___flsub,w
  3973     013B  00BC               	movwf	___flmul@a
  3974     013C  3041               	movlw	65
  3975     013D  00BB               	movwf	___flmul@b+3
  3976     013E  3020               	movlw	32
  3977     013F  00BA               	movwf	___flmul@b+2
  3978     0140  3000               	movlw	0
  3979     0141  00B9               	movwf	___flmul@b+1
  3980     0142  3000               	movlw	0
  3981     0143  00B8               	movwf	___flmul@b
  3982     0144  3181  21A4  3180   	fcall	___flmul
  3983     0147  0020               	movlb	0	; select bank0
  3984     0148  083B               	movf	?___flmul+3,w
  3985     0149  00D5               	movwf	___fltol@f1+3
  3986     014A  083A               	movf	?___flmul+2,w
  3987     014B  00D4               	movwf	___fltol@f1+2
  3988     014C  0839               	movf	?___flmul+1,w
  3989     014D  00D3               	movwf	___fltol@f1+1
  3990     014E  0838               	movf	?___flmul,w
  3991     014F  00D2               	movwf	___fltol@f1
  3992     0150  3197  278F  3180   	fcall	___fltol
  3993     0153  0020               	movlb	0	; select bank0
  3994     0154  0852               	movf	?___fltol,w
  3995     0155  0021               	movlb	1	; select bank1
  3996     0156  00DB               	movwf	displayTemperature@temp_frac^(0+128)
  3997     0157                     l4003:	
  3998                           ;main.c: 142:         if (temp_frac < 0) temp_frac = -temp_frac;
  3999                           
  4000                           
  4001                           ;main.c: 144:         OLED_Printf_Line(1, "Temp: %d.%d %s", temp_int, temp_frac, getUnit
      +                          Symbol(unit));
  4002     0157  3000               	movlw	low (STR_7| (0+32768))
  4003     0158  0020               	movlb	0	; select bank0
  4004     0159  00A6               	movwf	OLED_Printf_Line@fmt
  4005     015A  308B               	movlw	high (STR_7| (0+32768))
  4006     015B  00A7               	movwf	OLED_Printf_Line@fmt+1
  4007     015C  0021               	movlb	1	; select bank1
  4008     015D  085A               	movf	(displayTemperature@temp_int+1)^(0+128),w
  4009     015E  0020               	movlb	0	; select bank0
  4010     015F  00A9               	movwf	?_OLED_Printf_Line+3
  4011     0160  0021               	movlb	1	; select bank1
  4012     0161  0859               	movf	displayTemperature@temp_int^(0+128),w
  4013     0162  0020               	movlb	0	; select bank0
  4014     0163  00A8               	movwf	?_OLED_Printf_Line+2
  4015     0164  0021               	movlb	1	; select bank1
  4016     0165  085B               	movf	displayTemperature@temp_frac^(0+128),w
  4017     0166  00D7               	movwf	??_displayTemperature^(0+128)
  4018     0167  01D8               	clrf	(??_displayTemperature^(0+128)+1)
  4019     0168  0857               	movf	??_displayTemperature^(0+128),w
  4020     0169  0020               	movlb	0	; select bank0
  4021     016A  00AA               	movwf	?_OLED_Printf_Line+4
  4022     016B  0021               	movlb	1	; select bank1
  4023     016C  0858               	movf	(??_displayTemperature+1)^(0+128),w
  4024     016D  0020               	movlb	0	; select bank0
  4025     016E  00AB               	movwf	?_OLED_Printf_Line+5
  4026     016F  0021               	movlb	1	; select bank1
  4027     0170  0855               	movf	displayTemperature@unit^(0+128),w
  4028     0171  3192  22CC  3180   	fcall	_getUnitSymbol
  4029     0174  0871               	movf	?_getUnitSymbol+1,w
  4030     0175  0020               	movlb	0	; select bank0
  4031     0176  00AD               	movwf	(low ((?_OLED_Printf_Line| 0+6))+1)
  4032     0177  0870               	movf	?_getUnitSymbol,w
  4033     0178  00AC               	movwf	low ((?_OLED_Printf_Line| 0+6))
  4034     0179  3001               	movlw	1
  4035     017A  3183  23DF  3180   	fcall	_OLED_Printf_Line
  4036     017D                     l4005:
  4037                           
  4038                           ;main.c: 145:         OLED_Printf_Line(2, "Mode: %s", getUnitString(unit));
  4039     017D  3038               	movlw	low (STR_8| (0+32768))
  4040     017E  0020               	movlb	0	; select bank0
  4041     017F  00A6               	movwf	OLED_Printf_Line@fmt
  4042     0180  3098               	movlw	high (STR_8| (0+32768))
  4043     0181  00A7               	movwf	OLED_Printf_Line@fmt+1
  4044     0182  0021               	movlb	1	; select bank1
  4045     0183  0855               	movf	displayTemperature@unit^(0+128),w
  4046     0184  3192  22AF  3180   	fcall	_getUnitString
  4047     0187  0871               	movf	?_getUnitString+1,w
  4048     0188  0020               	movlb	0	; select bank0
  4049     0189  00A9               	movwf	(low ((?_OLED_Printf_Line| 0+2))+1)
  4050     018A  0870               	movf	?_getUnitString,w
  4051     018B  00A8               	movwf	low ((?_OLED_Printf_Line| 0+2))
  4052     018C  3002               	movlw	2
  4053     018D  3183  23DF  3180   	fcall	_OLED_Printf_Line
  4054                           
  4055                           ;main.c: 146:     }
  4056     0190  29A3               	goto	l362
  4057     0191                     l4007:
  4058                           
  4059                           ;main.c: 148:     {;main.c: 149:         OLED_Printf_Line(1, "TC OPEN!");
  4060     0191  302F               	movlw	low (STR_9| (0+32768))
  4061     0192  0020               	movlb	0	; select bank0
  4062     0193  00A6               	movwf	OLED_Printf_Line@fmt
  4063     0194  3098               	movlw	high (STR_9| (0+32768))
  4064     0195  00A7               	movwf	OLED_Printf_Line@fmt+1
  4065     0196  3001               	movlw	1
  4066     0197  3183  23DF  3180   	fcall	_OLED_Printf_Line
  4067                           
  4068                           ;main.c: 150:         OLED_Printf_Line(2, "Check wiring");
  4069     019A  300D               	movlw	low (STR_10| (0+32768))
  4070     019B  0020               	movlb	0	; select bank0
  4071     019C  00A6               	movwf	OLED_Printf_Line@fmt
  4072     019D  3098               	movlw	high (STR_10| (0+32768))
  4073     019E  00A7               	movwf	OLED_Printf_Line@fmt+1
  4074     019F  3002               	movlw	2
  4075     01A0  3183  23DF  3180   	fcall	_OLED_Printf_Line
  4076     01A3                     l362:
  4077     01A3  0008               	return
  4078     01A4                     __end_of_displayTemperature:
  4079                           
  4080                           	psect	text5
  4081     12CC                     __ptext5:	
  4082 ;; *************** function _getUnitSymbol *****************
  4083 ;; Defined at:
  4084 ;;		line 120 in file "main.c"
  4085 ;; Parameters:    Size  Location     Type
  4086 ;;  unit            1    wreg     unsigned char 
  4087 ;; Auto vars:     Size  Location     Type
  4088 ;;  unit            1    2[COMMON] unsigned char 
  4089 ;; Return value:  Size  Location     Type
  4090 ;;                  2    0[COMMON] PTR const unsigned char 
  4091 ;; Registers used:
  4092 ;;		wreg, fsr0l, fsr0h, status,2, status,0
  4093 ;; Tracked objects:
  4094 ;;		On entry : 0/0
  4095 ;;		On exit  : 0/0
  4096 ;;		Unchanged: 0/0
  4097 ;; Data sizes:     COMMON   BANK0   BANK1   BANK2   BANK3   BANK4   BANK5   BANK6   BANK7   BANK8   BANK9  BANK10  BANK1
      +1  BANK12  BANK13  BANK14  BANK15  BANK16  BANK17  BANK18  BANK19  BANK20  BANK21  BANK22  BANK23  BANK24  BANK25
  4098 ;;      Params:         2       0       0       0       0       0       0       0       0       0       0       0       
      +0       0       0       0       0       0       0       0       0       0       0       0       0       0       0
  4099 ;;      Locals:         1       0       0       0       0       0       0       0       0       0       0       0       
      +0       0       0       0       0       0       0       0       0       0       0       0       0       0       0
  4100 ;;      Temps:          0       0       0       0       0       0       0       0       0       0       0       0       
      +0       0       0       0       0       0       0       0       0       0       0       0       0       0       0
  4101 ;;      Totals:         3       0       0       0       0       0       0       0       0       0       0       0       
      +0       0       0       0       0       0       0       0       0       0       0       0       0       0       0
  4102 ;;Total ram usage:        3 bytes
  4103 ;; Hardware stack levels used: 1
  4104 ;; This function calls:
  4105 ;;		Nothing
  4106 ;; This function is called by:
  4107 ;;		_displayTemperature
  4108 ;; This function uses a non-reentrant model
  4109 ;;
  4110                           
  4111     12CC                     _getUnitSymbol:	
  4112                           ;psect for function _getUnitSymbol
  4113                           
  4114                           
  4115                           ;incstack = 0
  4116                           ; Regs used in _getUnitSymbol: [wreg-fsr0h+status,2+status,0]
  4117                           ;getUnitSymbol@unit stored from wreg
  4118     12CC  00F2               	movwf	getUnitSymbol@unit
  4119     12CD                     l3781:
  4120                           
  4121                           ;main.c: 120: const char* getUnitSymbol(uint8_t unit);main.c: 121: {;main.c: 122:     sw
      +                          itch (unit)
  4122     12CD  2ADD               	goto	l3797
  4123     12CE                     l3783:
  4124     12CE  3050               	movlw	low (STR_4| (0+32768))
  4125     12CF  00F0               	movwf	?_getUnitSymbol
  4126     12D0  3098               	movlw	high (STR_4| (0+32768))
  4127     12D1  00F1               	movwf	?_getUnitSymbol+1
  4128     12D2  2AE8               	goto	l352
  4129     12D3                     l3787:
  4130     12D3  3052               	movlw	low (STR_5| (0+32768))
  4131     12D4  00F0               	movwf	?_getUnitSymbol
  4132     12D5  3098               	movlw	high (STR_5| (0+32768))
  4133     12D6  00F1               	movwf	?_getUnitSymbol+1
  4134     12D7  2AE8               	goto	l352
  4135     12D8                     l3791:
  4136     12D8  300B               	movlw	low ((STR_11+11)| (0+32768))
  4137     12D9  00F0               	movwf	?_getUnitSymbol
  4138     12DA  3098               	movlw	high ((STR_11+11)| (0+32768))
  4139     12DB  00F1               	movwf	?_getUnitSymbol+1
  4140     12DC  2AE8               	goto	l352
  4141     12DD                     l3797:
  4142     12DD  0872               	movf	getUnitSymbol@unit,w
  4143                           
  4144                           ; Switch size 1, requested type "simple"
  4145                           ; Number of cases is 3, Range of values is 0 to 2
  4146                           ; switch strategies available:
  4147                           ; Name         Instructions Cycles
  4148                           ; simple_byte           10     6 (average)
  4149                           ; direct_byte           12     6 (fixed)
  4150                           ; jumptable            260     6 (fixed)
  4151                           ;	Chosen strategy is simple_byte
  4152     12DE  3A00               	xorlw	0	; case 0
  4153     12DF  1903               	skipnz
  4154     12E0  2AD8               	goto	l3791
  4155     12E1  3A01               	xorlw	1	; case 1
  4156     12E2  1903               	skipnz
  4157     12E3  2ACE               	goto	l3783
  4158     12E4  3A03               	xorlw	3	; case 2
  4159     12E5  1903               	skipnz
  4160     12E6  2AD3               	goto	l3787
  4161     12E7  2AD8               	goto	l3791
  4162     12E8                     l352:
  4163     12E8  0008               	return
  4164     12E9                     __end_of_getUnitSymbol:
  4165                           
  4166                           	psect	text6
  4167     12AF                     __ptext6:	
  4168 ;; *************** function _getUnitString *****************
  4169 ;; Defined at:
  4170 ;;		line 106 in file "main.c"
  4171 ;; Parameters:    Size  Location     Type
  4172 ;;  unit            1    wreg     unsigned char 
  4173 ;; Auto vars:     Size  Location     Type
  4174 ;;  unit            1    2[COMMON] unsigned char 
  4175 ;; Return value:  Size  Location     Type
  4176 ;;                  2    0[COMMON] PTR const unsigned char 
  4177 ;; Registers used:
  4178 ;;		wreg, fsr0l, fsr0h, status,2, status,0
  4179 ;; Tracked objects:
  4180 ;;		On entry : 0/0
  4181 ;;		On exit  : 0/0
  4182 ;;		Unchanged: 0/0
  4183 ;; Data sizes:     COMMON   BANK0   BANK1   BANK2   BANK3   BANK4   BANK5   BANK6   BANK7   BANK8   BANK9  BANK10  BANK1
      +1  BANK12  BANK13  BANK14  BANK15  BANK16  BANK17  BANK18  BANK19  BANK20  BANK21  BANK22  BANK23  BANK24  BANK25
  4184 ;;      Params:         2       0       0       0       0       0       0       0       0       0       0       0       
      +0       0       0       0       0       0       0       0       0       0       0       0       0       0       0
  4185 ;;      Locals:         1       0       0       0       0       0       0       0       0       0       0       0       
      +0       0       0       0       0       0       0       0       0       0       0       0       0       0       0
  4186 ;;      Temps:          0       0       0       0       0       0       0       0       0       0       0       0       
      +0       0       0       0       0       0       0       0       0       0       0       0       0       0       0
  4187 ;;      Totals:         3       0       0       0       0       0       0       0       0       0       0       0       
      +0       0       0       0       0       0       0       0       0       0       0       0       0       0       0
  4188 ;;Total ram usage:        3 bytes
  4189 ;; Hardware stack levels used: 1
  4190 ;; This function calls:
  4191 ;;		Nothing
  4192 ;; This function is called by:
  4193 ;;		_displayTemperature
  4194 ;; This function uses a non-reentrant model
  4195 ;;
  4196                           
  4197     12AF                     _getUnitString:	
  4198                           ;psect for function _getUnitString
  4199                           
  4200                           
  4201                           ;incstack = 0
  4202                           ; Regs used in _getUnitString: [wreg-fsr0h+status,2+status,0]
  4203                           ;getUnitString@unit stored from wreg
  4204     12AF  00F2               	movwf	getUnitString@unit
  4205     12B0                     l3763:
  4206                           
  4207                           ;main.c: 106: const char* getUnitString(uint8_t unit);main.c: 107: {;main.c: 108:     sw
      +                          itch (unit)
  4208     12B0  2AC0               	goto	l3779
  4209     12B1                     l3765:
  4210     12B1  301A               	movlw	low (STR_1| (0+32768))
  4211     12B2  00F0               	movwf	?_getUnitString
  4212     12B3  3098               	movlw	high (STR_1| (0+32768))
  4213     12B4  00F1               	movwf	?_getUnitString+1
  4214     12B5  2ACB               	goto	l343
  4215     12B6                     l3769:
  4216     12B6  3049               	movlw	low (STR_2| (0+32768))
  4217     12B7  00F0               	movwf	?_getUnitString
  4218     12B8  3098               	movlw	high (STR_2| (0+32768))
  4219     12B9  00F1               	movwf	?_getUnitString+1
  4220     12BA  2ACB               	goto	l343
  4221     12BB                     l3773:
  4222     12BB  3041               	movlw	low (STR_3| (0+32768))
  4223     12BC  00F0               	movwf	?_getUnitString
  4224     12BD  3098               	movlw	high (STR_3| (0+32768))
  4225     12BE  00F1               	movwf	?_getUnitString+1
  4226     12BF  2ACB               	goto	l343
  4227     12C0                     l3779:
  4228     12C0  0872               	movf	getUnitString@unit,w
  4229                           
  4230                           ; Switch size 1, requested type "simple"
  4231                           ; Number of cases is 3, Range of values is 0 to 2
  4232                           ; switch strategies available:
  4233                           ; Name         Instructions Cycles
  4234                           ; simple_byte           10     6 (average)
  4235                           ; direct_byte           12     6 (fixed)
  4236                           ; jumptable            260     6 (fixed)
  4237                           ;	Chosen strategy is simple_byte
  4238     12C1  3A00               	xorlw	0	; case 0
  4239     12C2  1903               	skipnz
  4240     12C3  2ABB               	goto	l3773
  4241     12C4  3A01               	xorlw	1	; case 1
  4242     12C5  1903               	skipnz
  4243     12C6  2AB1               	goto	l3765
  4244     12C7  3A03               	xorlw	3	; case 2
  4245     12C8  1903               	skipnz
  4246     12C9  2AB6               	goto	l3769
  4247     12CA  2ABB               	goto	l3773
  4248     12CB                     l343:
  4249     12CB  0008               	return
  4250     12CC                     __end_of_getUnitString:
  4251                           
  4252                           	psect	text7
  4253     178F                     __ptext7:	
  4254 ;; *************** function ___fltol *****************
  4255 ;; Defined at:
  4256 ;;		line 43 in file "C:\Program Files\Microchip\xc8\v2.46\pic\sources\c99\common\fltol.c"
  4257 ;; Parameters:    Size  Location     Type
  4258 ;;  f1              4   50[BANK0 ] PTR const unsigned char 
  4259 ;; Auto vars:     Size  Location     Type
  4260 ;;  exp1            1   59[BANK0 ] unsigned char 
  4261 ;;  sign1           1   58[BANK0 ] unsigned char 
  4262 ;; Return value:  Size  Location     Type
  4263 ;;                  4   50[BANK0 ] long 
  4264 ;; Registers used:
  4265 ;;		wreg, status,2, status,0
  4266 ;; Tracked objects:
  4267 ;;		On entry : 0/0
  4268 ;;		On exit  : 0/0
  4269 ;;		Unchanged: 0/0
  4270 ;; Data sizes:     COMMON   BANK0   BANK1   BANK2   BANK3   BANK4   BANK5   BANK6   BANK7   BANK8   BANK9  BANK10  BANK1
      +1  BANK12  BANK13  BANK14  BANK15  BANK16  BANK17  BANK18  BANK19  BANK20  BANK21  BANK22  BANK23  BANK24  BANK25
  4271 ;;      Params:         0       4       0       0       0       0       0       0       0       0       0       0       
      +0       0       0       0       0       0       0       0       0       0       0       0       0       0       0
  4272 ;;      Locals:         0       2       0       0       0       0       0       0       0       0       0       0       
      +0       0       0       0       0       0       0       0       0       0       0       0       0       0       0
  4273 ;;      Temps:          0       4       0       0       0       0       0       0       0       0       0       0       
      +0       0       0       0       0       0       0       0       0       0       0       0       0       0       0
  4274 ;;      Totals:         0      10       0       0       0       0       0       0       0       0       0       0       
      +0       0       0       0       0       0       0       0       0       0       0       0       0       0       0
  4275 ;;Total ram usage:       10 bytes
  4276 ;; Hardware stack levels used: 1
  4277 ;; This function calls:
  4278 ;;		Nothing
  4279 ;; This function is called by:
  4280 ;;		_displayTemperature
  4281 ;; This function uses a non-reentrant model
  4282 ;;
  4283                           
  4284     178F                     ___fltol:	
  4285                           ;psect for function ___fltol
  4286                           
  4287     178F                     l3829:	
  4288                           ;incstack = 0
  4289                           ; Regs used in ___fltol: [wreg+status,2+status,0]
  4290                           
  4291     178F  1003               	clrc
  4292     1790  0020               	movlb	0	; select bank0
  4293     1791  0D54               	rlf	___fltol@f1+2,w
  4294     1792  0D55               	rlf	___fltol@f1+3,w
  4295     1793  00DB               	movwf	___fltol@exp1
  4296     1794  085B               	movf	___fltol@exp1,w
  4297     1795  1D03               	btfss	3,2
  4298     1796  2F98               	goto	u4961
  4299     1797  2F99               	goto	u4960
  4300     1798                     u4961:
  4301     1798  2FA2               	goto	l3835
  4302     1799                     u4960:
  4303     1799                     l3831:
  4304     1799  3000               	movlw	0
  4305     179A  00D5               	movwf	?___fltol+3
  4306     179B  3000               	movlw	0
  4307     179C  00D4               	movwf	?___fltol+2
  4308     179D  3000               	movlw	0
  4309     179E  00D3               	movwf	?___fltol+1
  4310     179F  3000               	movlw	0
  4311     17A0  00D2               	movwf	?___fltol
  4312     17A1  2FFF               	goto	l695
  4313     17A2                     l3835:
  4314     17A2  0852               	movf	___fltol@f1,w
  4315     17A3  00D6               	movwf	??___fltol
  4316     17A4  0853               	movf	___fltol@f1+1,w
  4317     17A5  00D7               	movwf	??___fltol+1
  4318     17A6  0854               	movf	___fltol@f1+2,w
  4319     17A7  00D8               	movwf	??___fltol+2
  4320     17A8  0855               	movf	___fltol@f1+3,w
  4321     17A9  00D9               	movwf	??___fltol+3
  4322     17AA  301F               	movlw	31
  4323     17AB                     u4975:
  4324     17AB  36D9               	lsrf	??___fltol+3,f
  4325     17AC  0CD8               	rrf	??___fltol+2,f
  4326     17AD  0CD7               	rrf	??___fltol+1,f
  4327     17AE  0CD6               	rrf	??___fltol,f
  4328     17AF                     u4970:
  4329     17AF  0B89               	decfsz	9,f
  4330     17B0  2FAB               	goto	u4975
  4331     17B1  0856               	movf	??___fltol,w
  4332     17B2  00DA               	movwf	___fltol@sign1
  4333     17B3                     l3837:
  4334     17B3  17D4               	bsf	___fltol@f1+2,7
  4335     17B4                     l3839:
  4336     17B4  30FF               	movlw	255
  4337     17B5  05D2               	andwf	___fltol@f1,f
  4338     17B6  30FF               	movlw	255
  4339     17B7  05D3               	andwf	___fltol@f1+1,f
  4340     17B8  30FF               	movlw	255
  4341     17B9  05D4               	andwf	___fltol@f1+2,f
  4342     17BA  3000               	movlw	0
  4343     17BB  05D5               	andwf	___fltol@f1+3,f
  4344     17BC                     l3841:
  4345     17BC  3096               	movlw	150
  4346     17BD  02DB               	subwf	___fltol@exp1,f
  4347     17BE                     l3843:
  4348     17BE  1FDB               	btfss	___fltol@exp1,7
  4349     17BF  2FC1               	goto	u4981
  4350     17C0  2FC2               	goto	u4980
  4351     17C1                     u4981:
  4352     17C1  2FDA               	goto	l3853
  4353     17C2                     u4980:
  4354     17C2                     l3845:
  4355     17C2  085B               	movf	___fltol@exp1,w
  4356     17C3  3A80               	xorlw	128
  4357     17C4  3E97               	addlw	151
  4358     17C5  1803               	skipnc
  4359     17C6  2FC8               	goto	u4991
  4360     17C7  2FC9               	goto	u4990
  4361     17C8                     u4991:
  4362     17C8  2FCA               	goto	l3851
  4363     17C9                     u4990:
  4364     17C9  2F99               	goto	l3831
  4365     17CA                     l3851:
  4366     17CA  3001               	movlw	1
  4367     17CB                     u5005:
  4368     17CB  36D5               	lsrf	___fltol@f1+3,f
  4369     17CC  0CD4               	rrf	___fltol@f1+2,f
  4370     17CD  0CD3               	rrf	___fltol@f1+1,f
  4371     17CE  0CD2               	rrf	___fltol@f1,f
  4372     17CF  0B89               	decfsz	9,f
  4373     17D0  2FCB               	goto	u5005
  4374     17D1  3001               	movlw	1
  4375     17D2  00D6               	movwf	??___fltol
  4376     17D3  0856               	movf	??___fltol,w
  4377     17D4  07DB               	addwf	___fltol@exp1,f
  4378     17D5  1D03               	btfss	3,2
  4379     17D6  2FD8               	goto	u5011
  4380     17D7  2FD9               	goto	u5010
  4381     17D8                     u5011:
  4382     17D8  2FCA               	goto	l3851
  4383     17D9                     u5010:
  4384     17D9  2FEF               	goto	l3861
  4385     17DA                     l3853:
  4386     17DA  3020               	movlw	32
  4387     17DB  025B               	subwf	___fltol@exp1,w
  4388     17DC  1C03               	skipc
  4389     17DD  2FDF               	goto	u5021
  4390     17DE  2FE0               	goto	u5020
  4391     17DF                     u5021:
  4392     17DF  2FEA               	goto	l702
  4393     17E0                     u5020:
  4394     17E0  2F99               	goto	l3831
  4395     17E1                     l3859:
  4396     17E1  3001               	movlw	1
  4397     17E2                     u5035:
  4398     17E2  35D2               	lslf	___fltol@f1,f
  4399     17E3  0DD3               	rlf	___fltol@f1+1,f
  4400     17E4  0DD4               	rlf	___fltol@f1+2,f
  4401     17E5  0DD5               	rlf	___fltol@f1+3,f
  4402     17E6  0B89               	decfsz	9,f
  4403     17E7  2FE2               	goto	u5035
  4404     17E8  3001               	movlw	1
  4405     17E9  02DB               	subwf	___fltol@exp1,f
  4406     17EA                     l702:
  4407     17EA  085B               	movf	___fltol@exp1,w
  4408     17EB  1D03               	btfss	3,2
  4409     17EC  2FEE               	goto	u5041
  4410     17ED  2FEF               	goto	u5040
  4411     17EE                     u5041:
  4412     17EE  2FE1               	goto	l3859
  4413     17EF                     u5040:
  4414     17EF                     l3861:
  4415     17EF  085A               	movf	___fltol@sign1,w
  4416     17F0  1903               	btfsc	3,2
  4417     17F1  2FF3               	goto	u5051
  4418     17F2  2FF4               	goto	u5050
  4419     17F3                     u5051:
  4420     17F3  2FFF               	goto	l705
  4421     17F4                     u5050:
  4422     17F4                     l3863:
  4423     17F4  09D2               	comf	___fltol@f1,f
  4424     17F5  09D3               	comf	___fltol@f1+1,f
  4425     17F6  09D4               	comf	___fltol@f1+2,f
  4426     17F7  09D5               	comf	___fltol@f1+3,f
  4427     17F8  0AD2               	incf	___fltol@f1,f
  4428     17F9  1903               	skipnz
  4429     17FA  0AD3               	incf	___fltol@f1+1,f
  4430     17FB  1903               	skipnz
  4431     17FC  0AD4               	incf	___fltol@f1+2,f
  4432     17FD  1903               	skipnz
  4433     17FE  0AD5               	incf	___fltol@f1+3,f
  4434     17FF                     l705:
  4435     17FF                     l695:
  4436     17FF  0008               	return
  4437     1800                     __end_of___fltol:
  4438                           
  4439                           	psect	text8
  4440     1307                     __ptext8:	
  4441 ;; *************** function ___flsub *****************
  4442 ;; Defined at:
  4443 ;;		line 242 in file "C:\Program Files\Microchip\xc8\v2.46\pic\sources\c99\common\sprcadd.c"
  4444 ;; Parameters:    Size  Location     Type
  4445 ;;  a               4   16[BANK0 ] long 
  4446 ;;  b               4   20[BANK0 ] long 
  4447 ;; Auto vars:     Size  Location     Type
  4448 ;;		None
  4449 ;; Return value:  Size  Location     Type
  4450 ;;                  4   16[BANK0 ] long 
  4451 ;; Registers used:
  4452 ;;		wreg, status,2, status,0, pclath, cstack
  4453 ;; Tracked objects:
  4454 ;;		On entry : 0/0
  4455 ;;		On exit  : 0/0
  4456 ;;		Unchanged: 0/0
  4457 ;; Data sizes:     COMMON   BANK0   BANK1   BANK2   BANK3   BANK4   BANK5   BANK6   BANK7   BANK8   BANK9  BANK10  BANK1
      +1  BANK12  BANK13  BANK14  BANK15  BANK16  BANK17  BANK18  BANK19  BANK20  BANK21  BANK22  BANK23  BANK24  BANK25
  4458 ;;      Params:         0       8       0       0       0       0       0       0       0       0       0       0       
      +0       0       0       0       0       0       0       0       0       0       0       0       0       0       0
  4459 ;;      Locals:         0       0       0       0       0       0       0       0       0       0       0       0       
      +0       0       0       0       0       0       0       0       0       0       0       0       0       0       0
  4460 ;;      Temps:          0       0       0       0       0       0       0       0       0       0       0       0       
      +0       0       0       0       0       0       0       0       0       0       0       0       0       0       0
  4461 ;;      Totals:         0       8       0       0       0       0       0       0       0       0       0       0       
      +0       0       0       0       0       0       0       0       0       0       0       0       0       0       0
  4462 ;;Total ram usage:        8 bytes
  4463 ;; Hardware stack levels used: 1
  4464 ;; Hardware stack levels required when called: 1
  4465 ;; This function calls:
  4466 ;;		___fladd
  4467 ;; This function is called by:
  4468 ;;		_displayTemperature
  4469 ;; This function uses a non-reentrant model
  4470 ;;
  4471                           
  4472     1307                     ___flsub:	
  4473                           ;psect for function ___flsub
  4474                           
  4475     1307                     l3865:	
  4476                           ;incstack = 0
  4477                           ; Regs used in ___flsub: [wreg+status,2+status,0+pclath+cstack]
  4478                           
  4479     1307  3080               	movlw	128
  4480     1308  0020               	movlb	0	; select bank0
  4481     1309  06B3               	xorwf	___flsub@a+3,f
  4482     130A                     l3867:
  4483     130A  0837               	movf	___flsub@b+3,w
  4484     130B  00A3               	movwf	___fladd@b+3
  4485     130C  0836               	movf	___flsub@b+2,w
  4486     130D  00A2               	movwf	___fladd@b+2
  4487     130E  0835               	movf	___flsub@b+1,w
  4488     130F  00A1               	movwf	___fladd@b+1
  4489     1310  0834               	movf	___flsub@b,w
  4490     1311  00A0               	movwf	___fladd@b
  4491     1312  0833               	movf	___flsub@a+3,w
  4492     1313  00A7               	movwf	___fladd@a+3
  4493     1314  0832               	movf	___flsub@a+2,w
  4494     1315  00A6               	movwf	___fladd@a+2
  4495     1316  0831               	movf	___flsub@a+1,w
  4496     1317  00A5               	movwf	___fladd@a+1
  4497     1318  0830               	movf	___flsub@a,w
  4498     1319  00A4               	movwf	___fladd@a
  4499     131A  318D  25F5  3193   	fcall	___fladd
  4500     131D  0020               	movlb	0	; select bank0
  4501     131E  0823               	movf	?___fladd+3,w
  4502     131F  00B3               	movwf	?___flsub+3
  4503     1320  0822               	movf	?___fladd+2,w
  4504     1321  00B2               	movwf	?___flsub+2
  4505     1322  0821               	movf	?___fladd+1,w
  4506     1323  00B1               	movwf	?___flsub+1
  4507     1324  0820               	movf	?___fladd,w
  4508     1325  00B0               	movwf	?___flsub
  4509     1326                     l848:
  4510     1326  0008               	return
  4511     1327                     __end_of___flsub:
  4512                           
  4513                           	psect	text9
  4514     03DF                     __ptext9:	
  4515 ;; *************** function _OLED_Printf_Line *****************
  4516 ;; Defined at:
  4517 ;;		line 424 in file "OLED_SSD1306.c"
  4518 ;; Parameters:    Size  Location     Type
  4519 ;;  line            1    wreg     unsigned char 
  4520 ;;  fmt             2    6[BANK0 ] PTR const unsigned char 
  4521 ;;		 -> STR_11(13), STR_10(13), STR_9(9), STR_8(9), 
  4522 ;;		 -> STR_7(15), 
  4523 ;; Auto vars:     Size  Location     Type
  4524 ;;  line            1   44[BANK1 ] unsigned char 
  4525 ;;  nibble          1   31[BANK1 ] unsigned char 
  4526 ;;  temp           11   37[BANK0 ] unsigned char [11]
  4527 ;;  val             4   38[BANK1 ] long 
  4528 ;;  i               1   35[BANK1 ] unsigned char 
  4529 ;;  temp           11   26[BANK0 ] unsigned char [11]
  4530 ;;  val             4   25[BANK1 ] unsigned long 
  4531 ;;  i               1   34[BANK1 ] unsigned char 
  4532 ;;  str             2   21[BANK1 ] PTR const unsigned char 
  4533 ;;		 -> STR_6(2), STR_5(2), STR_4(2), STR_3(8), 
  4534 ;;		 -> STR_2(7), STR_1(11), ?_OLED_Printf_Line(1), 
  4535 ;;  temp            5   12[BANK1 ] unsigned char [5]
  4536 ;;  val             2   19[BANK1 ] unsigned short 
  4537 ;;  i               1   37[BANK1 ] unsigned char 
  4538 ;;  temp            6    6[BANK1 ] unsigned char [6]
  4539 ;;  val             2   29[BANK1 ] unsigned short 
  4540 ;;  i               1   36[BANK1 ] unsigned char 
  4541 ;;  temp            6    0[BANK1 ] unsigned char [6]
  4542 ;;  val             2   42[BANK1 ] short 
  4543 ;;  i               1   33[BANK1 ] unsigned char 
  4544 ;;  ch              1   32[BANK1 ] unsigned char 
  4545 ;;  p               1   24[BANK1 ] PTR const unsigned char 
  4546 ;;		 -> OLED_Printf_Line@buf(32), 
  4547 ;;  buf            32   48[BANK0 ] unsigned char [32]
  4548 ;;  src             2   46[BANK1 ] PTR const unsigned char 
  4549 ;;		 -> STR_11(13), STR_10(13), STR_9(9), STR_8(9), 
  4550 ;;		 -> STR_7(15), 
  4551 ;;  dst             1   48[BANK1 ] PTR unsigned char 
  4552 ;;		 -> OLED_Printf_Line@buf(32), 
  4553 ;;  ap              1   45[BANK1 ] PTR void [1]
  4554 ;;		 -> ?_OLED_Printf_Line(1), 
  4555 ;;  col             1   23[BANK1 ] unsigned char 
  4556 ;; Return value:  Size  Location     Type
  4557 ;;                  1    wreg      void 
  4558 ;; Registers used:
  4559 ;;		wreg, fsr0l, fsr0h, fsr1l, fsr1h, status,2, status,0, pclath, cstack
  4560 ;; Tracked objects:
  4561 ;;		On entry : 0/0
  4562 ;;		On exit  : 0/0
  4563 ;;		Unchanged: 0/0
  4564 ;; Data sizes:     COMMON   BANK0   BANK1   BANK2   BANK3   BANK4   BANK5   BANK6   BANK7   BANK8   BANK9  BANK10  BANK1
      +1  BANK12  BANK13  BANK14  BANK15  BANK16  BANK17  BANK18  BANK19  BANK20  BANK21  BANK22  BANK23  BANK24  BANK25
  4565 ;;      Params:         0       8       0       0       0       0       0       0       0       0       0       0       
      +0       0       0       0       0       0       0       0       0       0       0       0       0       0       0
  4566 ;;      Locals:         0      54      49       0       0       0       0       0       0       0       0       0       
      +0       0       0       0       0       0       0       0       0       0       0       0       0       0       0
  4567 ;;      Temps:          0      12       0       0       0       0       0       0       0       0       0       0       
      +0       0       0       0       0       0       0       0       0       0       0       0       0       0       0
  4568 ;;      Totals:         0      74      49       0       0       0       0       0       0       0       0       0       
      +0       0       0       0       0       0       0       0       0       0       0       0       0       0       0
  4569 ;;Total ram usage:      123 bytes
  4570 ;; Hardware stack levels used: 1
  4571 ;; Hardware stack levels required when called: 5
  4572 ;; This function calls:
  4573 ;;		_OLED_UpdateLine
  4574 ;;		___aldiv
  4575 ;;		___almod
  4576 ;;		___awdiv
  4577 ;;		___awmod
  4578 ;;		___lldiv
  4579 ;;		___llmod
  4580 ;;		___lwdiv
  4581 ;;		___lwmod
  4582 ;;		_memcpy
  4583 ;;		_memset
  4584 ;;		_strcmp
  4585 ;;		_strcpy
  4586 ;; This function is called by:
  4587 ;;		_displayTemperature
  4588 ;;		_main
  4589 ;; This function uses a non-reentrant model
  4590 ;;
  4591                           
  4592     03DF                     _OLED_Printf_Line:	
  4593                           ;psect for function _OLED_Printf_Line
  4594                           
  4595                           
  4596                           ;incstack = 0
  4597                           ; Regs used in _OLED_Printf_Line: [wreg-fsr1h+status,2+status,0+pclath+cstack]
  4598                           ;OLED_Printf_Line@line stored from wreg
  4599     03DF  0021               	movlb	1	; select bank1
  4600     03E0  00CC               	movwf	OLED_Printf_Line@line^(0+128)
  4601     03E1                     l3517:
  4602                           
  4603                           ;OLED_SSD1306.c: 424: void OLED_Printf_Line(uint8_t line, const char* fmt, ...);OLED_SSD
      +                          1306.c: 425: {;OLED_SSD1306.c: 426:     static char last_text[8][32];;OLED_SSD1306.c: 42
      +                          7:     char buf[32];;OLED_SSD1306.c: 428:     char *dst = buf;
  4604     03E1  3050               	movlw	(low (OLED_Printf_Line@buf| 0))& (0+255)
  4605     03E2  00D0               	movwf	OLED_Printf_Line@dst^(0+128)
  4606                           
  4607                           ;OLED_SSD1306.c: 429:     const char *src = fmt;
  4608     03E3  0020               	movlb	0	; select bank0
  4609     03E4  0827               	movf	OLED_Printf_Line@fmt+1,w
  4610     03E5  0021               	movlb	1	; select bank1
  4611     03E6  00CF               	movwf	(OLED_Printf_Line@src+1)^(0+128)
  4612     03E7  0020               	movlb	0	; select bank0
  4613     03E8  0826               	movf	OLED_Printf_Line@fmt,w
  4614     03E9  0021               	movlb	1	; select bank1
  4615     03EA  00CE               	movwf	OLED_Printf_Line@src^(0+128)
  4616                           
  4617                           ;OLED_SSD1306.c: 431:     if (line >= (32 / 8)) return;
  4618     03EB  3004               	movlw	4
  4619     03EC  024C               	subwf	OLED_Printf_Line@line^(0+128),w
  4620     03ED  1C03               	skipc
  4621     03EE  2BF0               	goto	u4591
  4622     03EF  2BF1               	goto	u4590
  4623     03F0                     u4591:
  4624     03F0  2BF2               	goto	l3521
  4625     03F1                     u4590:
  4626     03F1  2FF1               	goto	l166
  4627     03F2                     l3521:
  4628                           
  4629                           ;OLED_SSD1306.c: 433:     va_list ap;;OLED_SSD1306.c: 434:     *ap = __va_start();
  4630     03F2  3028               	movlw	(low ((?_OLED_Printf_Line| 0+2)))& (0+255)
  4631     03F3  00CD               	movwf	OLED_Printf_Line@ap^(0+128)
  4632                           
  4633                           ;OLED_SSD1306.c: 437:     while (*src && (dst - buf) < 31) {
  4634     03F4  2F01               	goto	l3721
  4635     03F5                     l3523:
  4636                           
  4637                           ;OLED_SSD1306.c: 438:         if (*src == '%') {
  4638     03F5  084E               	movf	OLED_Printf_Line@src^(0+128),w
  4639     03F6  0084               	movwf	4
  4640     03F7  084F               	movf	(OLED_Printf_Line@src+1)^(0+128),w
  4641     03F8  0085               	movwf	5
  4642     03F9  0012               	moviw fsr0++
  4643     03FA  3A25               	xorlw	37
  4644     03FB  1D03               	btfss	3,2
  4645     03FC  2BFE               	goto	u4601
  4646     03FD  2BFF               	goto	u4600
  4647     03FE                     u4601:
  4648     03FE  2EEE               	goto	l3715
  4649     03FF                     u4600:
  4650     03FF                     l3525:
  4651                           
  4652                           ;OLED_SSD1306.c: 439:             src++;
  4653     03FF  3001               	movlw	1
  4654     0400  07CE               	addwf	OLED_Printf_Line@src^(0+128),f
  4655     0401  3000               	movlw	0
  4656     0402  3DCF               	addwfc	(OLED_Printf_Line@src+1)^(0+128),f
  4657                           
  4658                           ;OLED_SSD1306.c: 440:             switch (*src) {
  4659     0403  2ECE               	goto	l3711
  4660     0404                     l3527:
  4661                           
  4662                           ;OLED_SSD1306.c: 442:                     int16_t val = (*(int *)__va_arg(*(int **)ap, (
      +                          int)0));
  4663     0404  084D               	movf	OLED_Printf_Line@ap^(0+128),w
  4664     0405  0086               	movwf	6
  4665     0406  0187               	clrf	7
  4666     0407  3F40               	moviw [0]fsr1
  4667     0408  00CA               	movwf	OLED_Printf_Line@val^(0+128)
  4668     0409  3F41               	moviw [1]fsr1
  4669     040A  00CB               	movwf	(OLED_Printf_Line@val+1)^(0+128)
  4670     040B                     l3529:
  4671     040B  3002               	movlw	2
  4672     040C  0020               	movlb	0	; select bank0
  4673     040D  00AE               	movwf	??_OLED_Printf_Line
  4674     040E  082E               	movf	??_OLED_Printf_Line,w
  4675     040F  0021               	movlb	1	; select bank1
  4676     0410  07CD               	addwf	OLED_Printf_Line@ap^(0+128),f
  4677     0411                     l3531:
  4678                           
  4679                           ;OLED_SSD1306.c: 443:                     if (val < 0) {
  4680     0411  1FCB               	btfss	(OLED_Printf_Line@val+1)^(0+128),7
  4681     0412  2C14               	goto	u4611
  4682     0413  2C15               	goto	u4610
  4683     0414                     u4611:
  4684     0414  2C25               	goto	l3539
  4685     0415                     u4610:
  4686     0415                     l3533:
  4687                           
  4688                           ;OLED_SSD1306.c: 444:                         *dst++ = '-';
  4689     0415  0850               	movf	OLED_Printf_Line@dst^(0+128),w
  4690     0416  0086               	movwf	6
  4691     0417  0187               	clrf	7
  4692     0418  302D               	movlw	45
  4693     0419  0081               	movwf	1
  4694     041A                     l3535:
  4695     041A  3001               	movlw	1
  4696     041B  0020               	movlb	0	; select bank0
  4697     041C  00AE               	movwf	??_OLED_Printf_Line
  4698     041D  082E               	movf	??_OLED_Printf_Line,w
  4699     041E  0021               	movlb	1	; select bank1
  4700     041F  07D0               	addwf	OLED_Printf_Line@dst^(0+128),f
  4701     0420                     l3537:
  4702                           
  4703                           ;OLED_SSD1306.c: 445:                         val = -val;
  4704     0420  09CA               	comf	OLED_Printf_Line@val^(0+128),f
  4705     0421  09CB               	comf	(OLED_Printf_Line@val+1)^(0+128),f
  4706     0422  0ACA               	incf	OLED_Printf_Line@val^(0+128),f
  4707     0423  1903               	skipnz
  4708     0424  0ACB               	incf	(OLED_Printf_Line@val+1)^(0+128),f
  4709     0425                     l3539:
  4710                           
  4711                           ;OLED_SSD1306.c: 448:                     char temp[6];;OLED_SSD1306.c: 449:            
      +                                   uint8_t i = 0;
  4712     0425  01C1               	clrf	OLED_Printf_Line@i^(0+128)
  4713     0426                     l3541:
  4714                           
  4715                           ;OLED_SSD1306.c: 451:                         temp[i++] = '0' + (val % 10);
  4716     0426  0841               	movf	OLED_Printf_Line@i^(0+128),w
  4717     0427  3EA0               	addlw	(low (OLED_Printf_Line@temp| 0))& (0+255)
  4718     0428  0086               	movwf	6
  4719     0429  0187               	clrf	7
  4720     042A  300A               	movlw	10
  4721     042B  00F0               	movwf	___awmod@divisor
  4722     042C  3000               	movlw	0
  4723     042D  00F1               	movwf	___awmod@divisor+1
  4724     042E  084B               	movf	(OLED_Printf_Line@val+1)^(0+128),w
  4725     042F  00F3               	movwf	___awmod@dividend+1
  4726     0430  084A               	movf	OLED_Printf_Line@val^(0+128),w
  4727     0431  00F2               	movwf	___awmod@dividend
  4728     0432  3196  26E2  3183   	fcall	___awmod
  4729     0435  0870               	movf	?___awmod,w
  4730     0436  3E30               	addlw	48
  4731     0437  0081               	movwf	1
  4732     0438                     l3543:
  4733     0438  3001               	movlw	1
  4734     0439  0020               	movlb	0	; select bank0
  4735     043A  00AE               	movwf	??_OLED_Printf_Line
  4736     043B  082E               	movf	??_OLED_Printf_Line,w
  4737     043C  0021               	movlb	1	; select bank1
  4738     043D  07C1               	addwf	OLED_Printf_Line@i^(0+128),f
  4739     043E                     l3545:
  4740                           
  4741                           ;OLED_SSD1306.c: 452:                         val /= 10;
  4742     043E  300A               	movlw	10
  4743     043F  00F0               	movwf	___awdiv@divisor
  4744     0440  3000               	movlw	0
  4745     0441  00F1               	movwf	___awdiv@divisor+1
  4746     0442  084B               	movf	(OLED_Printf_Line@val+1)^(0+128),w
  4747     0443  00F3               	movwf	___awdiv@dividend+1
  4748     0444  084A               	movf	OLED_Printf_Line@val^(0+128),w
  4749     0445  00F2               	movwf	___awdiv@dividend
  4750     0446  318B  2312  3183   	fcall	___awdiv
  4751     0449  0871               	movf	?___awdiv+1,w
  4752     044A  0021               	movlb	1	; select bank1
  4753     044B  00CB               	movwf	(OLED_Printf_Line@val+1)^(0+128)
  4754     044C  0870               	movf	?___awdiv,w
  4755     044D  00CA               	movwf	OLED_Printf_Line@val^(0+128)
  4756     044E                     l3547:
  4757                           
  4758                           ;OLED_SSD1306.c: 453:                     } while (val && i < 6);
  4759     044E  084A               	movf	OLED_Printf_Line@val^(0+128),w
  4760     044F  044B               	iorwf	(OLED_Printf_Line@val+1)^(0+128),w
  4761     0450  1903               	btfsc	3,2
  4762     0451  2C53               	goto	u4621
  4763     0452  2C54               	goto	u4620
  4764     0453                     u4621:
  4765     0453  2C6A               	goto	l3555
  4766     0454                     u4620:
  4767     0454                     l3549:
  4768     0454  3006               	movlw	6
  4769     0455  0241               	subwf	OLED_Printf_Line@i^(0+128),w
  4770     0456  1C03               	skipc
  4771     0457  2C59               	goto	u4631
  4772     0458  2C5A               	goto	u4630
  4773     0459                     u4631:
  4774     0459  2C26               	goto	l3541
  4775     045A                     u4630:
  4776     045A  2C6A               	goto	l3555
  4777     045B                     l3551:
  4778     045B  0850               	movf	OLED_Printf_Line@dst^(0+128),w
  4779     045C  0086               	movwf	6
  4780     045D  0187               	clrf	7
  4781     045E  0841               	movf	OLED_Printf_Line@i^(0+128),w
  4782     045F  3EA0               	addlw	(low (OLED_Printf_Line@temp| 0))& (0+255)
  4783     0460  0084               	movwf	4
  4784     0461  0185               	clrf	5
  4785     0462  0800               	movf	0,w
  4786     0463  0081               	movwf	1
  4787     0464                     l3553:
  4788     0464  3001               	movlw	1
  4789     0465  0020               	movlb	0	; select bank0
  4790     0466  00AE               	movwf	??_OLED_Printf_Line
  4791     0467  082E               	movf	??_OLED_Printf_Line,w
  4792     0468  0021               	movlb	1	; select bank1
  4793     0469  07D0               	addwf	OLED_Printf_Line@dst^(0+128),f
  4794     046A                     l3555:
  4795     046A  3001               	movlw	1
  4796     046B  02C1               	subwf	OLED_Printf_Line@i^(0+128),f
  4797     046C  0A41               	incf	OLED_Printf_Line@i^(0+128),w
  4798     046D  1D03               	btfss	3,2
  4799     046E  2C70               	goto	u4641
  4800     046F  2C71               	goto	u4640
  4801     0470                     u4641:
  4802     0470  2C5B               	goto	l3551
  4803     0471                     u4640:
  4804     0471  2EE9               	goto	l3713
  4805     0472                     l3557:
  4806                           
  4807                           ;OLED_SSD1306.c: 458:                     src++;
  4808     0472  3001               	movlw	1
  4809     0473  07CE               	addwf	OLED_Printf_Line@src^(0+128),f
  4810     0474  3000               	movlw	0
  4811     0475  3DCF               	addwfc	(OLED_Printf_Line@src+1)^(0+128),f
  4812     0476                     l3559:
  4813                           
  4814                           ;OLED_SSD1306.c: 459:                     if (*src == 'u') {
  4815     0476  084E               	movf	OLED_Printf_Line@src^(0+128),w
  4816     0477  0084               	movwf	4
  4817     0478  084F               	movf	(OLED_Printf_Line@src+1)^(0+128),w
  4818     0479  0085               	movwf	5
  4819     047A  0012               	moviw fsr0++
  4820     047B  3A75               	xorlw	117
  4821     047C  1D03               	btfss	3,2
  4822     047D  2C7F               	goto	u4651
  4823     047E  2C80               	goto	u4650
  4824     047F                     u4651:
  4825     047F  2CF4               	goto	l3583
  4826     0480                     u4650:
  4827     0480                     l3561:
  4828                           
  4829                           ;OLED_SSD1306.c: 460:                         uint32_t val = (*(uint32_t *)__va_arg(*(ui
      +                          nt32_t **)ap, (uint32_t)0));
  4830     0480  084D               	movf	OLED_Printf_Line@ap^(0+128),w
  4831     0481  0086               	movwf	6
  4832     0482  0187               	clrf	7
  4833     0483  3F40               	moviw [0]fsr1
  4834     0484  00B9               	movwf	OLED_Printf_Line@val_350^(0+128)
  4835     0485  3F41               	moviw [1]fsr1
  4836     0486  00BA               	movwf	(OLED_Printf_Line@val_350+1)^(0+128)
  4837     0487  3F42               	moviw [2]fsr1
  4838     0488  00BB               	movwf	(OLED_Printf_Line@val_350+2)^(0+128)
  4839     0489  3F43               	moviw [3]fsr1
  4840     048A  00BC               	movwf	(OLED_Printf_Line@val_350+3)^(0+128)
  4841     048B                     l3563:
  4842     048B  3004               	movlw	4
  4843     048C  0020               	movlb	0	; select bank0
  4844     048D  00AE               	movwf	??_OLED_Printf_Line
  4845     048E  082E               	movf	??_OLED_Printf_Line,w
  4846     048F  0021               	movlb	1	; select bank1
  4847     0490  07CD               	addwf	OLED_Printf_Line@ap^(0+128),f
  4848     0491                     l3565:
  4849                           
  4850                           ;OLED_SSD1306.c: 461:                         char temp[11];;OLED_SSD1306.c: 462:       
      +                                            uint8_t i = 0;
  4851     0491  01C2               	clrf	OLED_Printf_Line@i_352^(0+128)
  4852     0492                     l3567:
  4853                           
  4854                           ;OLED_SSD1306.c: 464:                             temp[i++] = '0' + (val % 10);
  4855     0492  0842               	movf	OLED_Printf_Line@i_352^(0+128),w
  4856     0493  3E3A               	addlw	(low (OLED_Printf_Line@temp_351| 0))& (0+255)
  4857     0494  0086               	movwf	6
  4858     0495  0187               	clrf	7
  4859     0496  3000               	movlw	0
  4860     0497  00F3               	movwf	___llmod@divisor+3
  4861     0498  3000               	movlw	0
  4862     0499  00F2               	movwf	___llmod@divisor+2
  4863     049A  3000               	movlw	0
  4864     049B  00F1               	movwf	___llmod@divisor+1
  4865     049C  300A               	movlw	10
  4866     049D  00F0               	movwf	___llmod@divisor
  4867     049E  083C               	movf	(OLED_Printf_Line@val_350+3)^(0+128),w
  4868     049F  00F7               	movwf	___llmod@dividend+3
  4869     04A0  083B               	movf	(OLED_Printf_Line@val_350+2)^(0+128),w
  4870     04A1  00F6               	movwf	___llmod@dividend+2
  4871     04A2  083A               	movf	(OLED_Printf_Line@val_350+1)^(0+128),w
  4872     04A3  00F5               	movwf	___llmod@dividend+1
  4873     04A4  0839               	movf	OLED_Printf_Line@val_350^(0+128),w
  4874     04A5  00F4               	movwf	___llmod@dividend
  4875     04A6  3195  25FB  3183   	fcall	___llmod
  4876     04A9  0870               	movf	?___llmod,w
  4877     04AA  3E30               	addlw	48
  4878     04AB  0081               	movwf	1
  4879     04AC                     l3569:
  4880     04AC  3001               	movlw	1
  4881     04AD  0020               	movlb	0	; select bank0
  4882     04AE  00AE               	movwf	??_OLED_Printf_Line
  4883     04AF  082E               	movf	??_OLED_Printf_Line,w
  4884     04B0  0021               	movlb	1	; select bank1
  4885     04B1  07C2               	addwf	OLED_Printf_Line@i_352^(0+128),f
  4886     04B2                     l3571:
  4887                           
  4888                           ;OLED_SSD1306.c: 465:                             val /= 10;
  4889     04B2  3000               	movlw	0
  4890     04B3  00F3               	movwf	___lldiv@divisor+3
  4891     04B4  3000               	movlw	0
  4892     04B5  00F2               	movwf	___lldiv@divisor+2
  4893     04B6  3000               	movlw	0
  4894     04B7  00F1               	movwf	___lldiv@divisor+1
  4895     04B8  300A               	movlw	10
  4896     04B9  00F0               	movwf	___lldiv@divisor
  4897     04BA  083C               	movf	(OLED_Printf_Line@val_350+3)^(0+128),w
  4898     04BB  00F7               	movwf	___lldiv@dividend+3
  4899     04BC  083B               	movf	(OLED_Printf_Line@val_350+2)^(0+128),w
  4900     04BD  00F6               	movwf	___lldiv@dividend+2
  4901     04BE  083A               	movf	(OLED_Printf_Line@val_350+1)^(0+128),w
  4902     04BF  00F5               	movwf	___lldiv@dividend+1
  4903     04C0  0839               	movf	OLED_Printf_Line@val_350^(0+128),w
  4904     04C1  00F4               	movwf	___lldiv@dividend
  4905     04C2  3197  2735  3183   	fcall	___lldiv
  4906     04C5  0873               	movf	?___lldiv+3,w
  4907     04C6  0021               	movlb	1	; select bank1
  4908     04C7  00BC               	movwf	(OLED_Printf_Line@val_350+3)^(0+128)
  4909     04C8  0872               	movf	?___lldiv+2,w
  4910     04C9  00BB               	movwf	(OLED_Printf_Line@val_350+2)^(0+128)
  4911     04CA  0871               	movf	?___lldiv+1,w
  4912     04CB  00BA               	movwf	(OLED_Printf_Line@val_350+1)^(0+128)
  4913     04CC  0870               	movf	?___lldiv,w
  4914     04CD  00B9               	movwf	OLED_Printf_Line@val_350^(0+128)
  4915     04CE                     l3573:
  4916                           
  4917                           ;OLED_SSD1306.c: 466:                         } while (val && i < 11);
  4918     04CE  083C               	movf	(OLED_Printf_Line@val_350+3)^(0+128),w
  4919     04CF  043B               	iorwf	(OLED_Printf_Line@val_350+2)^(0+128),w
  4920     04D0  043A               	iorwf	(OLED_Printf_Line@val_350+1)^(0+128),w
  4921     04D1  0439               	iorwf	OLED_Printf_Line@val_350^(0+128),w
  4922     04D2  1903               	skipnz
  4923     04D3  2CD5               	goto	u4661
  4924     04D4  2CD6               	goto	u4660
  4925     04D5                     u4661:
  4926     04D5  2CEC               	goto	l3581
  4927     04D6                     u4660:
  4928     04D6                     l3575:
  4929     04D6  300B               	movlw	11
  4930     04D7  0242               	subwf	OLED_Printf_Line@i_352^(0+128),w
  4931     04D8  1C03               	skipc
  4932     04D9  2CDB               	goto	u4671
  4933     04DA  2CDC               	goto	u4670
  4934     04DB                     u4671:
  4935     04DB  2C92               	goto	l3567
  4936     04DC                     u4670:
  4937     04DC  2CEC               	goto	l3581
  4938     04DD                     l3577:
  4939     04DD  0850               	movf	OLED_Printf_Line@dst^(0+128),w
  4940     04DE  0086               	movwf	6
  4941     04DF  0187               	clrf	7
  4942     04E0  0842               	movf	OLED_Printf_Line@i_352^(0+128),w
  4943     04E1  3E3A               	addlw	(low (OLED_Printf_Line@temp_351| 0))& (0+255)
  4944     04E2  0084               	movwf	4
  4945     04E3  0185               	clrf	5
  4946     04E4  0800               	movf	0,w
  4947     04E5  0081               	movwf	1
  4948     04E6                     l3579:
  4949     04E6  3001               	movlw	1
  4950     04E7  0020               	movlb	0	; select bank0
  4951     04E8  00AE               	movwf	??_OLED_Printf_Line
  4952     04E9  082E               	movf	??_OLED_Printf_Line,w
  4953     04EA  0021               	movlb	1	; select bank1
  4954     04EB  07D0               	addwf	OLED_Printf_Line@dst^(0+128),f
  4955     04EC                     l3581:
  4956     04EC  3001               	movlw	1
  4957     04ED  02C2               	subwf	OLED_Printf_Line@i_352^(0+128),f
  4958     04EE  0A42               	incf	OLED_Printf_Line@i_352^(0+128),w
  4959     04EF  1D03               	btfss	3,2
  4960     04F0  2CF2               	goto	u4681
  4961     04F1  2CF3               	goto	u4680
  4962     04F2                     u4681:
  4963     04F2  2CDD               	goto	l3577
  4964     04F3                     u4680:
  4965     04F3  2DB1               	goto	l3625
  4966     04F4                     l3583:
  4967     04F4  084E               	movf	OLED_Printf_Line@src^(0+128),w
  4968     04F5  0084               	movwf	4
  4969     04F6  084F               	movf	(OLED_Printf_Line@src+1)^(0+128),w
  4970     04F7  0085               	movwf	5
  4971     04F8  0012               	moviw fsr0++
  4972     04F9  3A64               	xorlw	100
  4973     04FA  1D03               	btfss	3,2
  4974     04FB  2CFD               	goto	u4691
  4975     04FC  2CFE               	goto	u4690
  4976     04FD                     u4691:
  4977     04FD  2D8C               	goto	l3615
  4978     04FE                     u4690:
  4979     04FE                     l3585:
  4980                           
  4981                           ;OLED_SSD1306.c: 469:                         int32_t val = (*(int32_t *)__va_arg(*(int3
      +                          2_t **)ap, (int32_t)0));
  4982     04FE  084D               	movf	OLED_Printf_Line@ap^(0+128),w
  4983     04FF  0086               	movwf	6
  4984     0500  0187               	clrf	7
  4985     0501  3F40               	moviw [0]fsr1
  4986     0502  00C6               	movwf	OLED_Printf_Line@val_353^(0+128)
  4987     0503  3F41               	moviw [1]fsr1
  4988     0504  00C7               	movwf	(OLED_Printf_Line@val_353+1)^(0+128)
  4989     0505  3F42               	moviw [2]fsr1
  4990     0506  00C8               	movwf	(OLED_Printf_Line@val_353+2)^(0+128)
  4991     0507  3F43               	moviw [3]fsr1
  4992     0508  00C9               	movwf	(OLED_Printf_Line@val_353+3)^(0+128)
  4993     0509                     l3587:
  4994     0509  3004               	movlw	4
  4995     050A  0020               	movlb	0	; select bank0
  4996     050B  00AE               	movwf	??_OLED_Printf_Line
  4997     050C  082E               	movf	??_OLED_Printf_Line,w
  4998     050D  0021               	movlb	1	; select bank1
  4999     050E  07CD               	addwf	OLED_Printf_Line@ap^(0+128),f
  5000     050F                     l3589:
  5001                           
  5002                           ;OLED_SSD1306.c: 470:                         if (val < 0) {
  5003     050F  1FC9               	btfss	(OLED_Printf_Line@val_353+3)^(0+128),7
  5004     0510  2D12               	goto	u4701
  5005     0511  2D13               	goto	u4700
  5006     0512                     u4701:
  5007     0512  2D29               	goto	l3597
  5008     0513                     u4700:
  5009     0513                     l3591:
  5010                           
  5011                           ;OLED_SSD1306.c: 471:                             *dst++ = '-';
  5012     0513  0850               	movf	OLED_Printf_Line@dst^(0+128),w
  5013     0514  0086               	movwf	6
  5014     0515  0187               	clrf	7
  5015     0516  302D               	movlw	45
  5016     0517  0081               	movwf	1
  5017     0518                     l3593:
  5018     0518  3001               	movlw	1
  5019     0519  0020               	movlb	0	; select bank0
  5020     051A  00AE               	movwf	??_OLED_Printf_Line
  5021     051B  082E               	movf	??_OLED_Printf_Line,w
  5022     051C  0021               	movlb	1	; select bank1
  5023     051D  07D0               	addwf	OLED_Printf_Line@dst^(0+128),f
  5024     051E                     l3595:
  5025                           
  5026                           ;OLED_SSD1306.c: 472:                             val = -val;
  5027     051E  09C6               	comf	OLED_Printf_Line@val_353^(0+128),f
  5028     051F  09C7               	comf	(OLED_Printf_Line@val_353+1)^(0+128),f
  5029     0520  09C8               	comf	(OLED_Printf_Line@val_353+2)^(0+128),f
  5030     0521  09C9               	comf	(OLED_Printf_Line@val_353+3)^(0+128),f
  5031     0522  0AC6               	incf	OLED_Printf_Line@val_353^(0+128),f
  5032     0523  1903               	skipnz
  5033     0524  0AC7               	incf	(OLED_Printf_Line@val_353+1)^(0+128),f
  5034     0525  1903               	skipnz
  5035     0526  0AC8               	incf	(OLED_Printf_Line@val_353+2)^(0+128),f
  5036     0527  1903               	skipnz
  5037     0528  0AC9               	incf	(OLED_Printf_Line@val_353+3)^(0+128),f
  5038     0529                     l3597:
  5039                           
  5040                           ;OLED_SSD1306.c: 474:                         char temp[11];;OLED_SSD1306.c: 475:       
      +                                            uint8_t i = 0;
  5041     0529  01C3               	clrf	OLED_Printf_Line@i_355^(0+128)
  5042     052A                     l3599:
  5043                           
  5044                           ;OLED_SSD1306.c: 477:                             temp[i++] = '0' + (val % 10);
  5045     052A  0843               	movf	OLED_Printf_Line@i_355^(0+128),w
  5046     052B  3E45               	addlw	(low (OLED_Printf_Line@temp_354| 0))& (0+255)
  5047     052C  0086               	movwf	6
  5048     052D  0187               	clrf	7
  5049     052E  3000               	movlw	0
  5050     052F  00F3               	movwf	___almod@divisor+3
  5051     0530  3000               	movlw	0
  5052     0531  00F2               	movwf	___almod@divisor+2
  5053     0532  3000               	movlw	0
  5054     0533  00F1               	movwf	___almod@divisor+1
  5055     0534  300A               	movlw	10
  5056     0535  00F0               	movwf	___almod@divisor
  5057     0536  0849               	movf	(OLED_Printf_Line@val_353+3)^(0+128),w
  5058     0537  00F7               	movwf	___almod@dividend+3
  5059     0538  0848               	movf	(OLED_Printf_Line@val_353+2)^(0+128),w
  5060     0539  00F6               	movwf	___almod@dividend+2
  5061     053A  0847               	movf	(OLED_Printf_Line@val_353+1)^(0+128),w
  5062     053B  00F5               	movwf	___almod@dividend+1
  5063     053C  0846               	movf	OLED_Printf_Line@val_353^(0+128),w
  5064     053D  00F4               	movwf	___almod@dividend
  5065     053E  318C  245F  3183   	fcall	___almod
  5066     0541  0870               	movf	?___almod,w
  5067     0542  3E30               	addlw	48
  5068     0543  0081               	movwf	1
  5069     0544                     l3601:
  5070     0544  3001               	movlw	1
  5071     0545  0020               	movlb	0	; select bank0
  5072     0546  00AE               	movwf	??_OLED_Printf_Line
  5073     0547  082E               	movf	??_OLED_Printf_Line,w
  5074     0548  0021               	movlb	1	; select bank1
  5075     0549  07C3               	addwf	OLED_Printf_Line@i_355^(0+128),f
  5076     054A                     l3603:
  5077                           
  5078                           ;OLED_SSD1306.c: 478:                             val /= 10;
  5079     054A  3000               	movlw	0
  5080     054B  00F3               	movwf	___aldiv@divisor+3
  5081     054C  3000               	movlw	0
  5082     054D  00F2               	movwf	___aldiv@divisor+2
  5083     054E  3000               	movlw	0
  5084     054F  00F1               	movwf	___aldiv@divisor+1
  5085     0550  300A               	movlw	10
  5086     0551  00F0               	movwf	___aldiv@divisor
  5087     0552  0849               	movf	(OLED_Printf_Line@val_353+3)^(0+128),w
  5088     0553  00F7               	movwf	___aldiv@dividend+3
  5089     0554  0848               	movf	(OLED_Printf_Line@val_353+2)^(0+128),w
  5090     0555  00F6               	movwf	___aldiv@dividend+2
  5091     0556  0847               	movf	(OLED_Printf_Line@val_353+1)^(0+128),w
  5092     0557  00F5               	movwf	___aldiv@dividend+1
  5093     0558  0846               	movf	OLED_Printf_Line@val_353^(0+128),w
  5094     0559  00F4               	movwf	___aldiv@dividend
  5095     055A  318D  2565  3183   	fcall	___aldiv
  5096     055D  0873               	movf	?___aldiv+3,w
  5097     055E  0021               	movlb	1	; select bank1
  5098     055F  00C9               	movwf	(OLED_Printf_Line@val_353+3)^(0+128)
  5099     0560  0872               	movf	?___aldiv+2,w
  5100     0561  00C8               	movwf	(OLED_Printf_Line@val_353+2)^(0+128)
  5101     0562  0871               	movf	?___aldiv+1,w
  5102     0563  00C7               	movwf	(OLED_Printf_Line@val_353+1)^(0+128)
  5103     0564  0870               	movf	?___aldiv,w
  5104     0565  00C6               	movwf	OLED_Printf_Line@val_353^(0+128)
  5105     0566                     l3605:
  5106                           
  5107                           ;OLED_SSD1306.c: 479:                         } while (val && i < 11);
  5108     0566  0849               	movf	(OLED_Printf_Line@val_353+3)^(0+128),w
  5109     0567  0448               	iorwf	(OLED_Printf_Line@val_353+2)^(0+128),w
  5110     0568  0447               	iorwf	(OLED_Printf_Line@val_353+1)^(0+128),w
  5111     0569  0446               	iorwf	OLED_Printf_Line@val_353^(0+128),w
  5112     056A  1903               	skipnz
  5113     056B  2D6D               	goto	u4711
  5114     056C  2D6E               	goto	u4710
  5115     056D                     u4711:
  5116     056D  2D84               	goto	l3613
  5117     056E                     u4710:
  5118     056E                     l3607:
  5119     056E  300B               	movlw	11
  5120     056F  0243               	subwf	OLED_Printf_Line@i_355^(0+128),w
  5121     0570  1C03               	skipc
  5122     0571  2D73               	goto	u4721
  5123     0572  2D74               	goto	u4720
  5124     0573                     u4721:
  5125     0573  2D2A               	goto	l3599
  5126     0574                     u4720:
  5127     0574  2D84               	goto	l3613
  5128     0575                     l3609:
  5129     0575  0850               	movf	OLED_Printf_Line@dst^(0+128),w
  5130     0576  0086               	movwf	6
  5131     0577  0187               	clrf	7
  5132     0578  0843               	movf	OLED_Printf_Line@i_355^(0+128),w
  5133     0579  3E45               	addlw	(low (OLED_Printf_Line@temp_354| 0))& (0+255)
  5134     057A  0084               	movwf	4
  5135     057B  0185               	clrf	5
  5136     057C  0800               	movf	0,w
  5137     057D  0081               	movwf	1
  5138     057E                     l3611:
  5139     057E  3001               	movlw	1
  5140     057F  0020               	movlb	0	; select bank0
  5141     0580  00AE               	movwf	??_OLED_Printf_Line
  5142     0581  082E               	movf	??_OLED_Printf_Line,w
  5143     0582  0021               	movlb	1	; select bank1
  5144     0583  07D0               	addwf	OLED_Printf_Line@dst^(0+128),f
  5145     0584                     l3613:
  5146     0584  3001               	movlw	1
  5147     0585  02C3               	subwf	OLED_Printf_Line@i_355^(0+128),f
  5148     0586  0A43               	incf	OLED_Printf_Line@i_355^(0+128),w
  5149     0587  1D03               	btfss	3,2
  5150     0588  2D8A               	goto	u4731
  5151     0589  2D8B               	goto	u4730
  5152     058A                     u4731:
  5153     058A  2D75               	goto	l3609
  5154     058B                     u4730:
  5155     058B  2DB1               	goto	l3625
  5156     058C                     l3615:
  5157                           
  5158                           ;OLED_SSD1306.c: 483:                         *dst++ = '%';
  5159     058C  0850               	movf	OLED_Printf_Line@dst^(0+128),w
  5160     058D  0086               	movwf	6
  5161     058E  0187               	clrf	7
  5162     058F  3025               	movlw	37
  5163     0590  0081               	movwf	1
  5164     0591                     l3617:
  5165     0591  3001               	movlw	1
  5166     0592  0020               	movlb	0	; select bank0
  5167     0593  00AE               	movwf	??_OLED_Printf_Line
  5168     0594  082E               	movf	??_OLED_Printf_Line,w
  5169     0595  0021               	movlb	1	; select bank1
  5170     0596  07D0               	addwf	OLED_Printf_Line@dst^(0+128),f
  5171     0597                     l3619:
  5172                           
  5173                           ;OLED_SSD1306.c: 484:                         *dst++ = 'l';
  5174     0597  0850               	movf	OLED_Printf_Line@dst^(0+128),w
  5175     0598  0086               	movwf	6
  5176     0599  0187               	clrf	7
  5177     059A  306C               	movlw	108
  5178     059B  0081               	movwf	1
  5179     059C  3001               	movlw	1
  5180     059D  0020               	movlb	0	; select bank0
  5181     059E  00AE               	movwf	??_OLED_Printf_Line
  5182     059F  082E               	movf	??_OLED_Printf_Line,w
  5183     05A0  0021               	movlb	1	; select bank1
  5184     05A1  07D0               	addwf	OLED_Printf_Line@dst^(0+128),f
  5185     05A2                     l3621:
  5186                           
  5187                           ;OLED_SSD1306.c: 485:                         *dst++ = *src;
  5188     05A2  0850               	movf	OLED_Printf_Line@dst^(0+128),w
  5189     05A3  0086               	movwf	6
  5190     05A4  0187               	clrf	7
  5191     05A5  084E               	movf	OLED_Printf_Line@src^(0+128),w
  5192     05A6  0084               	movwf	4
  5193     05A7  084F               	movf	(OLED_Printf_Line@src+1)^(0+128),w
  5194     05A8  0085               	movwf	5
  5195     05A9  0800               	movf	0,w	;code access
  5196     05AA  0081               	movwf	1
  5197     05AB                     l3623:
  5198     05AB  3001               	movlw	1
  5199     05AC  0020               	movlb	0	; select bank0
  5200     05AD  00AE               	movwf	??_OLED_Printf_Line
  5201     05AE  082E               	movf	??_OLED_Printf_Line,w
  5202     05AF  0021               	movlb	1	; select bank1
  5203     05B0  07D0               	addwf	OLED_Printf_Line@dst^(0+128),f
  5204     05B1                     l3625:
  5205                           
  5206                           ;OLED_SSD1306.c: 487:                     src++;
  5207     05B1  3001               	movlw	1
  5208     05B2  07CE               	addwf	OLED_Printf_Line@src^(0+128),f
  5209     05B3  3000               	movlw	0
  5210     05B4  3DCF               	addwfc	(OLED_Printf_Line@src+1)^(0+128),f
  5211                           
  5212                           ;OLED_SSD1306.c: 488:                     break;
  5213     05B5  2EE9               	goto	l3713
  5214     05B6                     l3627:
  5215                           
  5216                           ;OLED_SSD1306.c: 491:                     uint16_t val = (*(unsigned int *)__va_arg(*(un
      +                          signed int **)ap, (unsigned int)0));
  5217     05B6  084D               	movf	OLED_Printf_Line@ap^(0+128),w
  5218     05B7  0086               	movwf	6
  5219     05B8  0187               	clrf	7
  5220     05B9  3F40               	moviw [0]fsr1
  5221     05BA  00BD               	movwf	OLED_Printf_Line@val_356^(0+128)
  5222     05BB  3F41               	moviw [1]fsr1
  5223     05BC  00BE               	movwf	(OLED_Printf_Line@val_356+1)^(0+128)
  5224     05BD                     l3629:
  5225     05BD  3002               	movlw	2
  5226     05BE  0020               	movlb	0	; select bank0
  5227     05BF  00AE               	movwf	??_OLED_Printf_Line
  5228     05C0  082E               	movf	??_OLED_Printf_Line,w
  5229     05C1  0021               	movlb	1	; select bank1
  5230     05C2  07CD               	addwf	OLED_Printf_Line@ap^(0+128),f
  5231     05C3                     l3631:
  5232                           
  5233                           ;OLED_SSD1306.c: 492:                     char temp[6];;OLED_SSD1306.c: 493:            
      +                                   uint8_t i = 0;
  5234     05C3  01C4               	clrf	OLED_Printf_Line@i_358^(0+128)
  5235     05C4                     l3633:
  5236                           
  5237                           ;OLED_SSD1306.c: 495:                         temp[i++] = '0' + (val % 10);
  5238     05C4  0844               	movf	OLED_Printf_Line@i_358^(0+128),w
  5239     05C5  3EA6               	addlw	(low (OLED_Printf_Line@temp_357| 0))& (0+255)
  5240     05C6  0086               	movwf	6
  5241     05C7  0187               	clrf	7
  5242     05C8  300A               	movlw	10
  5243     05C9  00F0               	movwf	___lwmod@divisor
  5244     05CA  3000               	movlw	0
  5245     05CB  00F1               	movwf	___lwmod@divisor+1
  5246     05CC  083E               	movf	(OLED_Printf_Line@val_356+1)^(0+128),w
  5247     05CD  00F3               	movwf	___lwmod@dividend+1
  5248     05CE  083D               	movf	OLED_Printf_Line@val_356^(0+128),w
  5249     05CF  00F2               	movwf	___lwmod@dividend
  5250     05D0  3195  254A  3183   	fcall	___lwmod
  5251     05D3  0870               	movf	?___lwmod,w
  5252     05D4  3E30               	addlw	48
  5253     05D5  0081               	movwf	1
  5254     05D6                     l3635:
  5255     05D6  3001               	movlw	1
  5256     05D7  0020               	movlb	0	; select bank0
  5257     05D8  00AE               	movwf	??_OLED_Printf_Line
  5258     05D9  082E               	movf	??_OLED_Printf_Line,w
  5259     05DA  0021               	movlb	1	; select bank1
  5260     05DB  07C4               	addwf	OLED_Printf_Line@i_358^(0+128),f
  5261     05DC                     l3637:
  5262                           
  5263                           ;OLED_SSD1306.c: 496:                         val /= 10;
  5264     05DC  300A               	movlw	10
  5265     05DD  00F0               	movwf	___lwdiv@divisor
  5266     05DE  3000               	movlw	0
  5267     05DF  00F1               	movwf	___lwdiv@divisor+1
  5268     05E0  083E               	movf	(OLED_Printf_Line@val_356+1)^(0+128),w
  5269     05E1  00F3               	movwf	___lwdiv@dividend+1
  5270     05E2  083D               	movf	OLED_Printf_Line@val_356^(0+128),w
  5271     05E3  00F2               	movwf	___lwdiv@dividend
  5272     05E4  3195  257E  3183   	fcall	___lwdiv
  5273     05E7  0871               	movf	?___lwdiv+1,w
  5274     05E8  0021               	movlb	1	; select bank1
  5275     05E9  00BE               	movwf	(OLED_Printf_Line@val_356+1)^(0+128)
  5276     05EA  0870               	movf	?___lwdiv,w
  5277     05EB  00BD               	movwf	OLED_Printf_Line@val_356^(0+128)
  5278     05EC                     l3639:
  5279                           
  5280                           ;OLED_SSD1306.c: 497:                     } while (val && i < 6);
  5281     05EC  083D               	movf	OLED_Printf_Line@val_356^(0+128),w
  5282     05ED  043E               	iorwf	(OLED_Printf_Line@val_356+1)^(0+128),w
  5283     05EE  1903               	btfsc	3,2
  5284     05EF  2DF1               	goto	u4741
  5285     05F0  2DF2               	goto	u4740
  5286     05F1                     u4741:
  5287     05F1  2E08               	goto	l3647
  5288     05F2                     u4740:
  5289     05F2                     l3641:
  5290     05F2  3006               	movlw	6
  5291     05F3  0244               	subwf	OLED_Printf_Line@i_358^(0+128),w
  5292     05F4  1C03               	skipc
  5293     05F5  2DF7               	goto	u4751
  5294     05F6  2DF8               	goto	u4750
  5295     05F7                     u4751:
  5296     05F7  2DC4               	goto	l3633
  5297     05F8                     u4750:
  5298     05F8  2E08               	goto	l3647
  5299     05F9                     l3643:
  5300     05F9  0850               	movf	OLED_Printf_Line@dst^(0+128),w
  5301     05FA  0086               	movwf	6
  5302     05FB  0187               	clrf	7
  5303     05FC  0844               	movf	OLED_Printf_Line@i_358^(0+128),w
  5304     05FD  3EA6               	addlw	(low (OLED_Printf_Line@temp_357| 0))& (0+255)
  5305     05FE  0084               	movwf	4
  5306     05FF  0185               	clrf	5
  5307     0600  0800               	movf	0,w
  5308     0601  0081               	movwf	1
  5309     0602                     l3645:
  5310     0602  3001               	movlw	1
  5311     0603  0020               	movlb	0	; select bank0
  5312     0604  00AE               	movwf	??_OLED_Printf_Line
  5313     0605  082E               	movf	??_OLED_Printf_Line,w
  5314     0606  0021               	movlb	1	; select bank1
  5315     0607  07D0               	addwf	OLED_Printf_Line@dst^(0+128),f
  5316     0608                     l3647:
  5317     0608  3001               	movlw	1
  5318     0609  02C4               	subwf	OLED_Printf_Line@i_358^(0+128),f
  5319     060A  0A44               	incf	OLED_Printf_Line@i_358^(0+128),w
  5320     060B  1D03               	btfss	3,2
  5321     060C  2E0E               	goto	u4761
  5322     060D  2E0F               	goto	u4760
  5323     060E                     u4761:
  5324     060E  2DF9               	goto	l3643
  5325     060F                     u4760:
  5326     060F  2EE9               	goto	l3713
  5327     0610                     l3649:
  5328                           
  5329                           ;OLED_SSD1306.c: 502:                     uint16_t val = (*(unsigned int *)__va_arg(*(un
      +                          signed int **)ap, (unsigned int)0));
  5330     0610  084D               	movf	OLED_Printf_Line@ap^(0+128),w
  5331     0611  0086               	movwf	6
  5332     0612  0187               	clrf	7
  5333     0613  3F40               	moviw [0]fsr1
  5334     0614  00B3               	movwf	OLED_Printf_Line@val_359^(0+128)
  5335     0615  3F41               	moviw [1]fsr1
  5336     0616  00B4               	movwf	(OLED_Printf_Line@val_359+1)^(0+128)
  5337     0617                     l3651:
  5338     0617  3002               	movlw	2
  5339     0618  0020               	movlb	0	; select bank0
  5340     0619  00AE               	movwf	??_OLED_Printf_Line
  5341     061A  082E               	movf	??_OLED_Printf_Line,w
  5342     061B  0021               	movlb	1	; select bank1
  5343     061C  07CD               	addwf	OLED_Printf_Line@ap^(0+128),f
  5344     061D                     l3653:
  5345                           
  5346                           ;OLED_SSD1306.c: 503:                     char temp[5];;OLED_SSD1306.c: 504:            
      +                                   uint8_t i = 0;
  5347     061D  01C5               	clrf	OLED_Printf_Line@i_361^(0+128)
  5348     061E                     l3655:
  5349                           
  5350                           ;OLED_SSD1306.c: 506:                         uint8_t nibble = val & 0xF;
  5351     061E  0833               	movf	OLED_Printf_Line@val_359^(0+128),w
  5352     061F  390F               	andlw	15
  5353     0620  00BF               	movwf	OLED_Printf_Line@nibble^(0+128)
  5354     0621                     l3657:
  5355                           
  5356                           ;OLED_SSD1306.c: 507:                         temp[i++] = (nibble < 10) ? ('0' + nibble)
      +                           : ('A' + nibble - 10);
  5357     0621  300A               	movlw	10
  5358     0622  023F               	subwf	OLED_Printf_Line@nibble^(0+128),w
  5359     0623  1C03               	skipc
  5360     0624  2E26               	goto	u4771
  5361     0625  2E27               	goto	u4770
  5362     0626                     u4771:
  5363     0626  2E2F               	goto	l3661
  5364     0627                     u4770:
  5365     0627                     l3659:
  5366     0627  083F               	movf	OLED_Printf_Line@nibble^(0+128),w
  5367     0628  3E37               	addlw	55
  5368     0629  00B1               	movwf	_OLED_Printf_Line$363^(0+128)
  5369     062A  3000               	movlw	0
  5370     062B  1803               	skipnc
  5371     062C  3001               	movlw	1
  5372     062D  00B2               	movwf	(_OLED_Printf_Line$363^(0+128)+1)
  5373     062E  2E36               	goto	l3663
  5374     062F                     l3661:
  5375     062F  083F               	movf	OLED_Printf_Line@nibble^(0+128),w
  5376     0630  3E30               	addlw	48
  5377     0631  00B1               	movwf	_OLED_Printf_Line$363^(0+128)
  5378     0632  3000               	movlw	0
  5379     0633  1803               	skipnc
  5380     0634  3001               	movlw	1
  5381     0635  00B2               	movwf	(_OLED_Printf_Line$363^(0+128)+1)
  5382     0636                     l3663:
  5383     0636  0845               	movf	OLED_Printf_Line@i_361^(0+128),w
  5384     0637  3EAC               	addlw	(low (OLED_Printf_Line@temp_360| 0))& (0+255)
  5385     0638  0086               	movwf	6
  5386     0639  0187               	clrf	7
  5387     063A  0831               	movf	_OLED_Printf_Line$363^(0+128),w
  5388     063B  0081               	movwf	1
  5389     063C                     l3665:
  5390     063C  3001               	movlw	1
  5391     063D  0020               	movlb	0	; select bank0
  5392     063E  00AE               	movwf	??_OLED_Printf_Line
  5393     063F  082E               	movf	??_OLED_Printf_Line,w
  5394     0640  0021               	movlb	1	; select bank1
  5395     0641  07C5               	addwf	OLED_Printf_Line@i_361^(0+128),f
  5396     0642                     l3667:
  5397                           
  5398                           ;OLED_SSD1306.c: 508:                         val >>= 4;
  5399     0642  3004               	movlw	4
  5400     0643                     u4785:
  5401     0643  36B4               	lsrf	(OLED_Printf_Line@val_359+1)^(0+128),f
  5402     0644  0CB3               	rrf	OLED_Printf_Line@val_359^(0+128),f
  5403     0645  0B89               	decfsz	9,f
  5404     0646  2E43               	goto	u4785
  5405     0647                     l3669:
  5406                           
  5407                           ;OLED_SSD1306.c: 509:                     } while (val && i < 5);
  5408     0647  0833               	movf	OLED_Printf_Line@val_359^(0+128),w
  5409     0648  0434               	iorwf	(OLED_Printf_Line@val_359+1)^(0+128),w
  5410     0649  1903               	btfsc	3,2
  5411     064A  2E4C               	goto	u4791
  5412     064B  2E4D               	goto	u4790
  5413     064C                     u4791:
  5414     064C  2E63               	goto	l3677
  5415     064D                     u4790:
  5416     064D                     l3671:
  5417     064D  3005               	movlw	5
  5418     064E  0245               	subwf	OLED_Printf_Line@i_361^(0+128),w
  5419     064F  1C03               	skipc
  5420     0650  2E52               	goto	u4801
  5421     0651  2E53               	goto	u4800
  5422     0652                     u4801:
  5423     0652  2E1E               	goto	l3655
  5424     0653                     u4800:
  5425     0653  2E63               	goto	l3677
  5426     0654                     l3673:
  5427     0654  0850               	movf	OLED_Printf_Line@dst^(0+128),w
  5428     0655  0086               	movwf	6
  5429     0656  0187               	clrf	7
  5430     0657  0845               	movf	OLED_Printf_Line@i_361^(0+128),w
  5431     0658  3EAC               	addlw	(low (OLED_Printf_Line@temp_360| 0))& (0+255)
  5432     0659  0084               	movwf	4
  5433     065A  0185               	clrf	5
  5434     065B  0800               	movf	0,w
  5435     065C  0081               	movwf	1
  5436     065D                     l3675:
  5437     065D  3001               	movlw	1
  5438     065E  0020               	movlb	0	; select bank0
  5439     065F  00AE               	movwf	??_OLED_Printf_Line
  5440     0660  082E               	movf	??_OLED_Printf_Line,w
  5441     0661  0021               	movlb	1	; select bank1
  5442     0662  07D0               	addwf	OLED_Printf_Line@dst^(0+128),f
  5443     0663                     l3677:
  5444     0663  3001               	movlw	1
  5445     0664  02C5               	subwf	OLED_Printf_Line@i_361^(0+128),f
  5446     0665  0A45               	incf	OLED_Printf_Line@i_361^(0+128),w
  5447     0666  1D03               	btfss	3,2
  5448     0667  2E69               	goto	u4811
  5449     0668  2E6A               	goto	u4810
  5450     0669                     u4811:
  5451     0669  2E54               	goto	l3673
  5452     066A                     u4810:
  5453     066A  2EE9               	goto	l3713
  5454     066B                     l3679:
  5455                           
  5456                           ;OLED_SSD1306.c: 514:                     const char *str = (*(const char* *)__va_arg(*(
      +                          const char* **)ap, (const char*)0));
  5457     066B  084D               	movf	OLED_Printf_Line@ap^(0+128),w
  5458     066C  0086               	movwf	6
  5459     066D  0187               	clrf	7
  5460     066E  3F40               	moviw [0]fsr1
  5461     066F  00B5               	movwf	OLED_Printf_Line@str^(0+128)
  5462     0670  3F41               	moviw [1]fsr1
  5463     0671  00B6               	movwf	(OLED_Printf_Line@str+1)^(0+128)
  5464     0672                     l3681:
  5465     0672  3002               	movlw	2
  5466     0673  0020               	movlb	0	; select bank0
  5467     0674  00AE               	movwf	??_OLED_Printf_Line
  5468     0675  082E               	movf	??_OLED_Printf_Line,w
  5469     0676  0021               	movlb	1	; select bank1
  5470     0677  07CD               	addwf	OLED_Printf_Line@ap^(0+128),f
  5471                           
  5472                           ;OLED_SSD1306.c: 515:                     while (*str && (dst - buf) < 31) {
  5473     0678  2E8C               	goto	l3689
  5474     0679                     l3683:
  5475                           
  5476                           ;OLED_SSD1306.c: 516:                         *dst++ = *str++;
  5477     0679  0850               	movf	OLED_Printf_Line@dst^(0+128),w
  5478     067A  0086               	movwf	6
  5479     067B  0187               	clrf	7
  5480     067C  0835               	movf	OLED_Printf_Line@str^(0+128),w
  5481     067D  0084               	movwf	4
  5482     067E  0836               	movf	(OLED_Printf_Line@str+1)^(0+128),w
  5483     067F  0085               	movwf	5
  5484     0680  0800               	movf	0,w	;code access
  5485     0681  0081               	movwf	1
  5486     0682                     l3685:
  5487     0682  3001               	movlw	1
  5488     0683  07B5               	addwf	OLED_Printf_Line@str^(0+128),f
  5489     0684  3000               	movlw	0
  5490     0685  3DB6               	addwfc	(OLED_Printf_Line@str+1)^(0+128),f
  5491     0686                     l3687:
  5492     0686  3001               	movlw	1
  5493     0687  0020               	movlb	0	; select bank0
  5494     0688  00AE               	movwf	??_OLED_Printf_Line
  5495     0689  082E               	movf	??_OLED_Printf_Line,w
  5496     068A  0021               	movlb	1	; select bank1
  5497     068B  07D0               	addwf	OLED_Printf_Line@dst^(0+128),f
  5498     068C                     l3689:
  5499                           
  5500                           ;OLED_SSD1306.c: 515:                     while (*str && (dst - buf) < 31) {
  5501     068C  0835               	movf	OLED_Printf_Line@str^(0+128),w
  5502     068D  0084               	movwf	4
  5503     068E  0836               	movf	(OLED_Printf_Line@str+1)^(0+128),w
  5504     068F  0085               	movwf	5
  5505     0690  0012               	moviw fsr0++
  5506     0691  1903               	btfsc	3,2
  5507     0692  2E94               	goto	u4821
  5508     0693  2E95               	goto	u4820
  5509     0694                     u4821:
  5510     0694  2EE9               	goto	l3713
  5511     0695                     u4820:
  5512     0695                     l3691:
  5513     0695  3050               	movlw	(low OLED_Printf_Line@buf)& (0+255)
  5514     0696  0250               	subwf	OLED_Printf_Line@dst^(0+128),w
  5515     0697  3A80               	xorlw	128
  5516     0698  3E61               	addlw	-159
  5517     0699  1C03               	skipc
  5518     069A  2E9C               	goto	u4831
  5519     069B  2E9D               	goto	u4830
  5520     069C                     u4831:
  5521     069C  2E79               	goto	l3683
  5522     069D                     u4830:
  5523     069D  2EE9               	goto	l3713
  5524     069E                     l3693:
  5525                           
  5526                           ;OLED_SSD1306.c: 521:                     *dst++ = (char)(*(int *)__va_arg(*(int **)ap, 
      +                          (int)0));
  5527     069E  0850               	movf	OLED_Printf_Line@dst^(0+128),w
  5528     069F  0086               	movwf	6
  5529     06A0  0187               	clrf	7
  5530     06A1  084D               	movf	OLED_Printf_Line@ap^(0+128),w
  5531     06A2  0084               	movwf	4
  5532     06A3  0185               	clrf	5
  5533     06A4  0800               	movf	0,w
  5534     06A5  0081               	movwf	1
  5535     06A6                     l3695:
  5536     06A6  3002               	movlw	2
  5537     06A7  0020               	movlb	0	; select bank0
  5538     06A8  00AE               	movwf	??_OLED_Printf_Line
  5539     06A9  082E               	movf	??_OLED_Printf_Line,w
  5540     06AA  0021               	movlb	1	; select bank1
  5541     06AB  07CD               	addwf	OLED_Printf_Line@ap^(0+128),f
  5542     06AC                     l3697:
  5543     06AC  3001               	movlw	1
  5544     06AD  0020               	movlb	0	; select bank0
  5545     06AE  00AE               	movwf	??_OLED_Printf_Line
  5546     06AF  082E               	movf	??_OLED_Printf_Line,w
  5547     06B0  0021               	movlb	1	; select bank1
  5548     06B1  07D0               	addwf	OLED_Printf_Line@dst^(0+128),f
  5549                           
  5550                           ;OLED_SSD1306.c: 522:                     break;
  5551     06B2  2EE9               	goto	l3713
  5552     06B3                     l3699:
  5553                           
  5554                           ;OLED_SSD1306.c: 525:                     *dst++ = '%';
  5555     06B3  0850               	movf	OLED_Printf_Line@dst^(0+128),w
  5556     06B4  0086               	movwf	6
  5557     06B5  0187               	clrf	7
  5558     06B6  3025               	movlw	37
  5559     06B7  0081               	movwf	1
  5560     06B8  2EAC               	goto	l3697
  5561     06B9                     l3703:
  5562                           
  5563                           ;OLED_SSD1306.c: 529:                     *dst++ = '%';
  5564     06B9  0850               	movf	OLED_Printf_Line@dst^(0+128),w
  5565     06BA  0086               	movwf	6
  5566     06BB  0187               	clrf	7
  5567     06BC  3025               	movlw	37
  5568     06BD  0081               	movwf	1
  5569     06BE                     l3705:
  5570     06BE  3001               	movlw	1
  5571     06BF  0020               	movlb	0	; select bank0
  5572     06C0  00AE               	movwf	??_OLED_Printf_Line
  5573     06C1  082E               	movf	??_OLED_Printf_Line,w
  5574     06C2  0021               	movlb	1	; select bank1
  5575     06C3  07D0               	addwf	OLED_Printf_Line@dst^(0+128),f
  5576     06C4                     l3707:
  5577                           
  5578                           ;OLED_SSD1306.c: 530:                     *dst++ = *src;
  5579     06C4  0850               	movf	OLED_Printf_Line@dst^(0+128),w
  5580     06C5  0086               	movwf	6
  5581     06C6  0187               	clrf	7
  5582     06C7  084E               	movf	OLED_Printf_Line@src^(0+128),w
  5583     06C8  0084               	movwf	4
  5584     06C9  084F               	movf	(OLED_Printf_Line@src+1)^(0+128),w
  5585     06CA  0085               	movwf	5
  5586     06CB  0800               	movf	0,w	;code access
  5587     06CC  0081               	movwf	1
  5588     06CD  2EAC               	goto	l3697
  5589     06CE                     l3711:
  5590     06CE  084E               	movf	OLED_Printf_Line@src^(0+128),w
  5591     06CF  0084               	movwf	4
  5592     06D0  084F               	movf	(OLED_Printf_Line@src+1)^(0+128),w
  5593     06D1  0085               	movwf	5
  5594     06D2  0800               	movf	0,w	;code access
  5595                           
  5596                           ; Switch size 1, requested type "simple"
  5597                           ; Number of cases is 7, Range of values is 37 to 120
  5598                           ; switch strategies available:
  5599                           ; Name         Instructions Cycles
  5600                           ; simple_byte           22    12 (average)
  5601                           ; direct_byte          177     9 (fixed)
  5602                           ; jumptable            263     9 (fixed)
  5603                           ;	Chosen strategy is simple_byte
  5604     06D3  3A25               	xorlw	37	; case 37
  5605     06D4  1903               	skipnz
  5606     06D5  2EB3               	goto	l3699
  5607     06D6  3A46               	xorlw	70	; case 99
  5608     06D7  1903               	skipnz
  5609     06D8  2E9E               	goto	l3693
  5610     06D9  3A07               	xorlw	7	; case 100
  5611     06DA  1903               	skipnz
  5612     06DB  2C04               	goto	l3527
  5613     06DC  3A08               	xorlw	8	; case 108
  5614     06DD  1903               	skipnz
  5615     06DE  2C72               	goto	l3557
  5616     06DF  3A1F               	xorlw	31	; case 115
  5617     06E0  1903               	skipnz
  5618     06E1  2E6B               	goto	l3679
  5619     06E2  3A06               	xorlw	6	; case 117
  5620     06E3  1903               	skipnz
  5621     06E4  2DB6               	goto	l3627
  5622     06E5  3A0D               	xorlw	13	; case 120
  5623     06E6  1903               	skipnz
  5624     06E7  2E10               	goto	l3649
  5625     06E8  2EB9               	goto	l3703
  5626     06E9                     l3713:
  5627                           
  5628                           ;OLED_SSD1306.c: 532:             src++;
  5629     06E9  3001               	movlw	1
  5630     06EA  07CE               	addwf	OLED_Printf_Line@src^(0+128),f
  5631     06EB  3000               	movlw	0
  5632     06EC  3DCF               	addwfc	(OLED_Printf_Line@src+1)^(0+128),f
  5633                           
  5634                           ;OLED_SSD1306.c: 533:         } else {
  5635     06ED  2F01               	goto	l3721
  5636     06EE                     l3715:
  5637                           
  5638                           ;OLED_SSD1306.c: 534:             *dst++ = *src++;
  5639     06EE  0850               	movf	OLED_Printf_Line@dst^(0+128),w
  5640     06EF  0086               	movwf	6
  5641     06F0  0187               	clrf	7
  5642     06F1  084E               	movf	OLED_Printf_Line@src^(0+128),w
  5643     06F2  0084               	movwf	4
  5644     06F3  084F               	movf	(OLED_Printf_Line@src+1)^(0+128),w
  5645     06F4  0085               	movwf	5
  5646     06F5  0800               	movf	0,w	;code access
  5647     06F6  0081               	movwf	1
  5648     06F7                     l3717:
  5649     06F7  3001               	movlw	1
  5650     06F8  07CE               	addwf	OLED_Printf_Line@src^(0+128),f
  5651     06F9  3000               	movlw	0
  5652     06FA  3DCF               	addwfc	(OLED_Printf_Line@src+1)^(0+128),f
  5653     06FB                     l3719:
  5654     06FB  3001               	movlw	1
  5655     06FC  0020               	movlb	0	; select bank0
  5656     06FD  00AE               	movwf	??_OLED_Printf_Line
  5657     06FE  082E               	movf	??_OLED_Printf_Line,w
  5658     06FF  0021               	movlb	1	; select bank1
  5659     0700  07D0               	addwf	OLED_Printf_Line@dst^(0+128),f
  5660     0701                     l3721:
  5661                           
  5662                           ;OLED_SSD1306.c: 437:     while (*src && (dst - buf) < 31) {
  5663     0701  084E               	movf	OLED_Printf_Line@src^(0+128),w
  5664     0702  0084               	movwf	4
  5665     0703  084F               	movf	(OLED_Printf_Line@src+1)^(0+128),w
  5666     0704  0085               	movwf	5
  5667     0705  0012               	moviw fsr0++
  5668     0706  1903               	btfsc	3,2
  5669     0707  2F09               	goto	u4841
  5670     0708  2F0A               	goto	u4840
  5671     0709                     u4841:
  5672     0709  2F12               	goto	l3725
  5673     070A                     u4840:
  5674     070A                     l3723:
  5675     070A  3050               	movlw	(low OLED_Printf_Line@buf)& (0+255)
  5676     070B  0250               	subwf	OLED_Printf_Line@dst^(0+128),w
  5677     070C  3A80               	xorlw	128
  5678     070D  3E61               	addlw	-159
  5679     070E  1C03               	skipc
  5680     070F  2F11               	goto	u4851
  5681     0710  2F12               	goto	u4850
  5682     0711                     u4851:
  5683     0711  2BF5               	goto	l3523
  5684     0712                     u4850:
  5685     0712                     l3725:
  5686                           
  5687                           ;OLED_SSD1306.c: 537:     *dst = '\0';
  5688     0712  0850               	movf	OLED_Printf_Line@dst^(0+128),w
  5689     0713  0086               	movwf	6
  5690     0714  0187               	clrf	7
  5691     0715  0181               	clrf	1
  5692     0716                     l3727:
  5693                           
  5694                           ;OLED_SSD1306.c: 541:     if (strcmp(buf, last_text[line]) == 0) return;
  5695     0716  084C               	movf	OLED_Printf_Line@line^(0+128),w
  5696     0717  0020               	movlb	0	; select bank0
  5697     0718  00AE               	movwf	??_OLED_Printf_Line
  5698     0719  01AF               	clrf	??_OLED_Printf_Line+1
  5699     071A  3005               	movlw	5
  5700     071B                     u4865:
  5701     071B  35AE               	lslf	??_OLED_Printf_Line,f
  5702     071C  0DAF               	rlf	??_OLED_Printf_Line+1,f
  5703     071D  0B89               	decfsz	9,f
  5704     071E  2F1B               	goto	u4865
  5705     071F  30F0               	movlw	240
  5706     0720  00B0               	movwf	??_OLED_Printf_Line+2
  5707     0721  3026               	movlw	38
  5708     0722  00B1               	movwf	??_OLED_Printf_Line+3
  5709     0723  082E               	movf	??_OLED_Printf_Line,w
  5710     0724  0730               	addwf	??_OLED_Printf_Line+2,w
  5711     0725  00B2               	movwf	??_OLED_Printf_Line+4
  5712     0726  082F               	movf	??_OLED_Printf_Line+1,w
  5713     0727  3D31               	addwfc	??_OLED_Printf_Line+3,w
  5714     0728  00B3               	movwf	??_OLED_Printf_Line+5
  5715     0729  0832               	movf	??_OLED_Printf_Line+4,w
  5716     072A  00F0               	movwf	strcmp@r
  5717     072B  0833               	movf	??_OLED_Printf_Line+5,w
  5718     072C  00F1               	movwf	strcmp@r+1
  5719     072D  3050               	movlw	(low (OLED_Printf_Line@buf| 0))& (0+255)
  5720     072E  3194  242E  3183   	fcall	_strcmp
  5721     0731  0870               	movf	?_strcmp,w
  5722     0732  0471               	iorwf	?_strcmp+1,w
  5723     0733  1D03               	btfss	3,2
  5724     0734  2F36               	goto	u4871
  5725     0735  2F37               	goto	u4870
  5726     0736                     u4871:
  5727     0736  2F38               	goto	l3731
  5728     0737                     u4870:
  5729     0737  2FF1               	goto	l166
  5730     0738                     l3731:
  5731                           
  5732                           ;OLED_SSD1306.c: 542:     strcpy(last_text[line], buf);
  5733     0738  0021               	movlb	1	; select bank1
  5734     0739  084C               	movf	OLED_Printf_Line@line^(0+128),w
  5735     073A  0020               	movlb	0	; select bank0
  5736     073B  00AE               	movwf	??_OLED_Printf_Line
  5737     073C  01AF               	clrf	??_OLED_Printf_Line+1
  5738     073D  3005               	movlw	5
  5739     073E                     u4885:
  5740     073E  35AE               	lslf	??_OLED_Printf_Line,f
  5741     073F  0DAF               	rlf	??_OLED_Printf_Line+1,f
  5742     0740  0B89               	decfsz	9,f
  5743     0741  2F3E               	goto	u4885
  5744     0742  30F0               	movlw	240
  5745     0743  00B0               	movwf	??_OLED_Printf_Line+2
  5746     0744  3026               	movlw	38
  5747     0745  00B1               	movwf	??_OLED_Printf_Line+3
  5748     0746  082E               	movf	??_OLED_Printf_Line,w
  5749     0747  0730               	addwf	??_OLED_Printf_Line+2,w
  5750     0748  00F0               	movwf	strcpy@dest
  5751     0749  082F               	movf	??_OLED_Printf_Line+1,w
  5752     074A  3D31               	addwfc	??_OLED_Printf_Line+3,w
  5753     074B  00F1               	movwf	strcpy@dest+1
  5754     074C  3050               	movlw	(low (OLED_Printf_Line@buf| 0))& (0+255)
  5755     074D  00F2               	movwf	strcpy@src
  5756     074E  3192  2278  3183   	fcall	_strcpy
  5757     0751                     l3733:
  5758                           
  5759                           ;OLED_SSD1306.c: 545:     memset(screen_buffer[line], 0, 128);
  5760     0751  0021               	movlb	1	; select bank1
  5761     0752  084C               	movf	OLED_Printf_Line@line^(0+128),w
  5762     0753  0020               	movlb	0	; select bank0
  5763     0754  00AE               	movwf	??_OLED_Printf_Line
  5764     0755  01AF               	clrf	??_OLED_Printf_Line+1
  5765     0756  3007               	movlw	7
  5766     0757                     u4895:
  5767     0757  35AE               	lslf	??_OLED_Printf_Line,f
  5768     0758  0DAF               	rlf	??_OLED_Printf_Line+1,f
  5769     0759  0B89               	decfsz	9,f
  5770     075A  2F57               	goto	u4895
  5771     075B  30F0               	movlw	240
  5772     075C  00B0               	movwf	??_OLED_Printf_Line+2
  5773     075D  3024               	movlw	36
  5774     075E  00B1               	movwf	??_OLED_Printf_Line+3
  5775     075F  082E               	movf	??_OLED_Printf_Line,w
  5776     0760  0730               	addwf	??_OLED_Printf_Line+2,w
  5777     0761  00F0               	movwf	memset@dest
  5778     0762  082F               	movf	??_OLED_Printf_Line+1,w
  5779     0763  3D31               	addwfc	??_OLED_Printf_Line+3,w
  5780     0764  00F1               	movwf	memset@dest+1
  5781     0765  3000               	movlw	0
  5782     0766  00F2               	movwf	memset@c
  5783     0767  00F3               	movwf	memset@c+1
  5784     0768  3080               	movlw	128
  5785     0769  00F4               	movwf	memset@n
  5786     076A  3000               	movlw	0
  5787     076B  00F5               	movwf	memset@n+1
  5788     076C  3192  2293  3183   	fcall	_memset
  5789     076F                     l3735:
  5790                           
  5791                           ;OLED_SSD1306.c: 548:     uint8_t col = 0;
  5792     076F  0021               	movlb	1	; select bank1
  5793     0770  01B7               	clrf	OLED_Printf_Line@col^(0+128)
  5794     0771                     l3737:
  5795                           
  5796                           ;OLED_SSD1306.c: 549:     for (const char* p = buf; *p && (col + 8) <= 128; ++p)
  5797     0771  3050               	movlw	(low (OLED_Printf_Line@buf| 0))& (0+255)
  5798     0772  00B8               	movwf	OLED_Printf_Line@p^(0+128)
  5799     0773  2FCF               	goto	l3753
  5800     0774                     l3739:
  5801                           
  5802                           ;OLED_SSD1306.c: 550:     {;OLED_SSD1306.c: 551:         char ch = *p;
  5803     0774  0021               	movlb	1	; select bank1
  5804     0775  0838               	movf	OLED_Printf_Line@p^(0+128),w
  5805     0776  0086               	movwf	6
  5806     0777  0187               	clrf	7
  5807     0778  0801               	movf	1,w
  5808     0779  00C0               	movwf	OLED_Printf_Line@ch^(0+128)
  5809     077A                     l3741:
  5810                           
  5811                           ;OLED_SSD1306.c: 552:         if (ch < 32 || ch > 127) ch = ' ';
  5812     077A  3020               	movlw	32
  5813     077B  0240               	subwf	OLED_Printf_Line@ch^(0+128),w
  5814     077C  1C03               	skipc
  5815     077D  2F7F               	goto	u4901
  5816     077E  2F80               	goto	u4900
  5817     077F                     u4901:
  5818     077F  2F86               	goto	l3745
  5819     0780                     u4900:
  5820     0780                     l3743:
  5821     0780  3080               	movlw	128
  5822     0781  0240               	subwf	OLED_Printf_Line@ch^(0+128),w
  5823     0782  1C03               	skipc
  5824     0783  2F85               	goto	u4911
  5825     0784  2F86               	goto	u4910
  5826     0785                     u4911:
  5827     0785  2F88               	goto	l3747
  5828     0786                     u4910:
  5829     0786                     l3745:
  5830     0786  3020               	movlw	32
  5831     0787  00C0               	movwf	OLED_Printf_Line@ch^(0+128)
  5832     0788                     l3747:
  5833                           
  5834                           ;OLED_SSD1306.c: 554:         memcpy(&screen_buffer[line][col], &OledFont[(uint8_t)(ch -
      +                           32)][0], 8);
  5835     0788  0837               	movf	OLED_Printf_Line@col^(0+128),w
  5836     0789  0020               	movlb	0	; select bank0
  5837     078A  00AE               	movwf	??_OLED_Printf_Line
  5838     078B  01AF               	clrf	??_OLED_Printf_Line+1
  5839     078C  0021               	movlb	1	; select bank1
  5840     078D  084C               	movf	OLED_Printf_Line@line^(0+128),w
  5841     078E  0020               	movlb	0	; select bank0
  5842     078F  00B0               	movwf	??_OLED_Printf_Line+2
  5843     0790  01B1               	clrf	??_OLED_Printf_Line+3
  5844     0791  3007               	movlw	7
  5845     0792                     u4925:
  5846     0792  35B0               	lslf	??_OLED_Printf_Line+2,f
  5847     0793  0DB1               	rlf	??_OLED_Printf_Line+3,f
  5848     0794  0B89               	decfsz	9,f
  5849     0795  2F92               	goto	u4925
  5850     0796  30F0               	movlw	240
  5851     0797  00B2               	movwf	??_OLED_Printf_Line+4
  5852     0798  3024               	movlw	36
  5853     0799  00B3               	movwf	??_OLED_Printf_Line+5
  5854     079A  0830               	movf	??_OLED_Printf_Line+2,w
  5855     079B  0732               	addwf	??_OLED_Printf_Line+4,w
  5856     079C  00B4               	movwf	??_OLED_Printf_Line+6
  5857     079D  0831               	movf	??_OLED_Printf_Line+3,w
  5858     079E  3D33               	addwfc	??_OLED_Printf_Line+5,w
  5859     079F  00B5               	movwf	??_OLED_Printf_Line+7
  5860     07A0  082E               	movf	??_OLED_Printf_Line,w
  5861     07A1  0734               	addwf	??_OLED_Printf_Line+6,w
  5862     07A2  00F0               	movwf	memcpy@d1
  5863     07A3  082F               	movf	??_OLED_Printf_Line+1,w
  5864     07A4  3D35               	addwfc	??_OLED_Printf_Line+7,w
  5865     07A5  00F1               	movwf	memcpy@d1+1
  5866     07A6  0021               	movlb	1	; select bank1
  5867     07A7  0840               	movf	OLED_Printf_Line@ch^(0+128),w
  5868     07A8  3EE0               	addlw	224
  5869     07A9  0020               	movlb	0	; select bank0
  5870     07AA  00B6               	movwf	??_OLED_Printf_Line+8
  5871     07AB  01B7               	clrf	??_OLED_Printf_Line+9
  5872     07AC  35B6               	lslf	??_OLED_Printf_Line+8,f
  5873     07AD  0DB7               	rlf	??_OLED_Printf_Line+9,f
  5874     07AE  35B6               	lslf	??_OLED_Printf_Line+8,f
  5875     07AF  0DB7               	rlf	??_OLED_Printf_Line+9,f
  5876     07B0  35B6               	lslf	??_OLED_Printf_Line+8,f
  5877     07B1  0DB7               	rlf	??_OLED_Printf_Line+9,f
  5878     07B2  3000               	movlw	low (_OledFont| (0+32768))
  5879     07B3  00B8               	movwf	??_OLED_Printf_Line+10
  5880     07B4  3088               	movlw	high (_OledFont| (0+32768))
  5881     07B5  00B9               	movwf	??_OLED_Printf_Line+11
  5882     07B6  0836               	movf	??_OLED_Printf_Line+8,w
  5883     07B7  0738               	addwf	??_OLED_Printf_Line+10,w
  5884     07B8  00F2               	movwf	memcpy@s1
  5885     07B9  0837               	movf	??_OLED_Printf_Line+9,w
  5886     07BA  3D39               	addwfc	??_OLED_Printf_Line+11,w
  5887     07BB  00F3               	movwf	memcpy@s1+1
  5888     07BC  3008               	movlw	8
  5889     07BD  00F4               	movwf	memcpy@n
  5890     07BE  3000               	movlw	0
  5891     07BF  00F5               	movwf	memcpy@n+1
  5892     07C0  3193  23D8  3183   	fcall	_memcpy
  5893     07C3                     l3749:
  5894                           
  5895                           ;OLED_SSD1306.c: 555:         col += 8;
  5896     07C3  3008               	movlw	8
  5897     07C4  0020               	movlb	0	; select bank0
  5898     07C5  00AE               	movwf	??_OLED_Printf_Line
  5899     07C6  082E               	movf	??_OLED_Printf_Line,w
  5900     07C7  0021               	movlb	1	; select bank1
  5901     07C8  07B7               	addwf	OLED_Printf_Line@col^(0+128),f
  5902     07C9                     l3751:
  5903                           
  5904                           ;OLED_SSD1306.c: 556:     }
  5905     07C9  3001               	movlw	1
  5906     07CA  0020               	movlb	0	; select bank0
  5907     07CB  00AE               	movwf	??_OLED_Printf_Line
  5908     07CC  082E               	movf	??_OLED_Printf_Line,w
  5909     07CD  0021               	movlb	1	; select bank1
  5910     07CE  07B8               	addwf	OLED_Printf_Line@p^(0+128),f
  5911     07CF                     l3753:
  5912     07CF  0838               	movf	OLED_Printf_Line@p^(0+128),w
  5913     07D0  0086               	movwf	6
  5914     07D1  0187               	clrf	7
  5915     07D2  0801               	movf	1,w
  5916     07D3  1903               	btfsc	3,2
  5917     07D4  2FD6               	goto	u4931
  5918     07D5  2FD7               	goto	u4930
  5919     07D6                     u4931:
  5920     07D6  2FEC               	goto	l3757
  5921     07D7                     u4930:
  5922     07D7                     l3755:
  5923     07D7  0837               	movf	OLED_Printf_Line@col^(0+128),w
  5924     07D8  3E08               	addlw	8
  5925     07D9  0020               	movlb	0	; select bank0
  5926     07DA  00AE               	movwf	??_OLED_Printf_Line
  5927     07DB  3000               	movlw	0
  5928     07DC  1803               	skipnc
  5929     07DD  3001               	movlw	1
  5930     07DE  00AF               	movwf	??_OLED_Printf_Line+1
  5931     07DF  082F               	movf	??_OLED_Printf_Line+1,w
  5932     07E0  3A80               	xorlw	128
  5933     07E1  00B0               	movwf	??_OLED_Printf_Line+2
  5934     07E2  3080               	movlw	128
  5935     07E3  0230               	subwf	??_OLED_Printf_Line+2,w
  5936     07E4  1D03               	skipz
  5937     07E5  2FE8               	goto	u4945
  5938     07E6  3081               	movlw	129
  5939     07E7  022E               	subwf	??_OLED_Printf_Line,w
  5940     07E8                     u4945:
  5941     07E8  1C03               	skipc
  5942     07E9  2FEB               	goto	u4941
  5943     07EA  2FEC               	goto	u4940
  5944     07EB                     u4941:
  5945     07EB  2F74               	goto	l3739
  5946     07EC                     u4940:
  5947     07EC                     l3757:
  5948                           
  5949                           ;OLED_SSD1306.c: 558:     OLED_UpdateLine(line);
  5950     07EC  0021               	movlb	1	; select bank1
  5951     07ED  084C               	movf	OLED_Printf_Line@line^(0+128),w
  5952     07EE  3194  2402  3183   	fcall	_OLED_UpdateLine
  5953     07F1                     l166:
  5954     07F1  0008               	return
  5955     07F2                     __end_of_OLED_Printf_Line:
  5956                           
  5957                           	psect	text10
  5958     1278                     __ptext10:	
  5959 ;; *************** function _strcpy *****************
  5960 ;; Defined at:
  5961 ;;		line 3 in file "C:\Program Files\Microchip\xc8\v2.46\pic\sources\c99\common\strcpy.c"
  5962 ;; Parameters:    Size  Location     Type
  5963 ;;  dest            2    0[COMMON] PTR unsigned char 
  5964 ;;		 -> OLED_Printf_Line@last_text(256), 
  5965 ;;  src             1    2[COMMON] PTR const unsigned char 
  5966 ;;		 -> OLED_Printf_Line@buf(32), 
  5967 ;; Auto vars:     Size  Location     Type
  5968 ;;  d               2    5[COMMON] PTR unsigned char 
  5969 ;;		 -> OLED_Printf_Line@last_text(256), 
  5970 ;; Return value:  Size  Location     Type
  5971 ;;                  2    0[COMMON] PTR unsigned char 
  5972 ;; Registers used:
  5973 ;;		wreg, fsr0l, fsr0h, fsr1l, fsr1h, status,2, status,0
  5974 ;; Tracked objects:
  5975 ;;		On entry : 0/0
  5976 ;;		On exit  : 0/0
  5977 ;;		Unchanged: 0/0
  5978 ;; Data sizes:     COMMON   BANK0   BANK1   BANK2   BANK3   BANK4   BANK5   BANK6   BANK7   BANK8   BANK9  BANK10  BANK1
      +1  BANK12  BANK13  BANK14  BANK15  BANK16  BANK17  BANK18  BANK19  BANK20  BANK21  BANK22  BANK23  BANK24  BANK25
  5979 ;;      Params:         3       0       0       0       0       0       0       0       0       0       0       0       
      +0       0       0       0       0       0       0       0       0       0       0       0       0       0       0
  5980 ;;      Locals:         2       0       0       0       0       0       0       0       0       0       0       0       
      +0       0       0       0       0       0       0       0       0       0       0       0       0       0       0
  5981 ;;      Temps:          2       0       0       0       0       0       0       0       0       0       0       0       
      +0       0       0       0       0       0       0       0       0       0       0       0       0       0       0
  5982 ;;      Totals:         7       0       0       0       0       0       0       0       0       0       0       0       
      +0       0       0       0       0       0       0       0       0       0       0       0       0       0       0
  5983 ;;Total ram usage:        7 bytes
  5984 ;; Hardware stack levels used: 1
  5985 ;; This function calls:
  5986 ;;		Nothing
  5987 ;; This function is called by:
  5988 ;;		_OLED_Printf_Line
  5989 ;; This function uses a non-reentrant model
  5990 ;;
  5991                           
  5992     1278                     _strcpy:	
  5993                           ;psect for function _strcpy
  5994                           
  5995     1278                     l2835:	
  5996                           ;incstack = 0
  5997                           ; Regs used in _strcpy: [wreg-fsr1h+status,2+status,0]
  5998                           
  5999     1278  0871               	movf	strcpy@dest+1,w
  6000     1279  00F6               	movwf	strcpy@d+1
  6001     127A  0870               	movf	strcpy@dest,w
  6002     127B  00F5               	movwf	strcpy@d
  6003     127C                     l2837:
  6004     127C  0876               	movf	strcpy@d+1,w
  6005     127D  00F4               	movwf	??_strcpy+1
  6006     127E  0875               	movf	strcpy@d,w
  6007     127F  00F3               	movwf	??_strcpy
  6008     1280  0AF5               	incf	strcpy@d,f
  6009     1281  1903               	skipnz
  6010     1282  0AF6               	incf	strcpy@d+1,f
  6011     1283  0873               	movf	??_strcpy,w
  6012     1284  0086               	movwf	6
  6013     1285  0874               	movf	??_strcpy+1,w
  6014     1286  0087               	movwf	7
  6015     1287  0872               	movf	strcpy@src,w
  6016     1288  0084               	movwf	4
  6017     1289  0185               	clrf	5
  6018     128A  0AF2               	incf	strcpy@src,f
  6019     128B  0800               	movf	0,w
  6020     128C  3FC0               	movwi [0]fsr1
  6021     128D  0889               	movf	9,f
  6022     128E  1D03               	btfss	3,2
  6023     128F  2A91               	goto	u3041
  6024     1290  2A92               	goto	u3040
  6025     1291                     u3041:
  6026     1291  2A7C               	goto	l2837
  6027     1292                     u3040:
  6028     1292                     l983:
  6029     1292  0008               	return
  6030     1293                     __end_of_strcpy:
  6031                           
  6032                           	psect	text11
  6033     142E                     __ptext11:	
  6034 ;; *************** function _strcmp *****************
  6035 ;; Defined at:
  6036 ;;		line 3 in file "C:\Program Files\Microchip\xc8\v2.46\pic\sources\c99\common\strcmp.c"
  6037 ;; Parameters:    Size  Location     Type
  6038 ;;  l               1    wreg     PTR const unsigned char 
  6039 ;;		 -> OLED_Printf_Line@buf(32), 
  6040 ;;  r               2    0[COMMON] PTR const unsigned char 
  6041 ;;		 -> OLED_Printf_Line@last_text(256), 
  6042 ;; Auto vars:     Size  Location     Type
  6043 ;;  l               1    3[COMMON] PTR const unsigned char 
  6044 ;;		 -> OLED_Printf_Line@buf(32), 
  6045 ;; Return value:  Size  Location     Type
  6046 ;;                  2    0[COMMON] int 
  6047 ;; Registers used:
  6048 ;;		wreg, fsr0l, fsr0h, fsr1l, fsr1h, status,2, status,0
  6049 ;; Tracked objects:
  6050 ;;		On entry : 0/0
  6051 ;;		On exit  : 0/0
  6052 ;;		Unchanged: 0/0
  6053 ;; Data sizes:     COMMON   BANK0   BANK1   BANK2   BANK3   BANK4   BANK5   BANK6   BANK7   BANK8   BANK9  BANK10  BANK1
      +1  BANK12  BANK13  BANK14  BANK15  BANK16  BANK17  BANK18  BANK19  BANK20  BANK21  BANK22  BANK23  BANK24  BANK25
  6054 ;;      Params:         2       0       0       0       0       0       0       0       0       0       0       0       
      +0       0       0       0       0       0       0       0       0       0       0       0       0       0       0
  6055 ;;      Locals:         1       0       0       0       0       0       0       0       0       0       0       0       
      +0       0       0       0       0       0       0       0       0       0       0       0       0       0       0
  6056 ;;      Temps:          1       0       0       0       0       0       0       0       0       0       0       0       
      +0       0       0       0       0       0       0       0       0       0       0       0       0       0       0
  6057 ;;      Totals:         4       0       0       0       0       0       0       0       0       0       0       0       
      +0       0       0       0       0       0       0       0       0       0       0       0       0       0       0
  6058 ;;Total ram usage:        4 bytes
  6059 ;; Hardware stack levels used: 1
  6060 ;; This function calls:
  6061 ;;		Nothing
  6062 ;; This function is called by:
  6063 ;;		_OLED_Printf_Line
  6064 ;; This function uses a non-reentrant model
  6065 ;;
  6066                           
  6067     142E                     _strcmp:	
  6068                           ;psect for function _strcmp
  6069                           
  6070                           
  6071                           ;incstack = 0
  6072                           ; Regs used in _strcmp: [wreg-fsr1h+status,2+status,0]
  6073                           ;strcmp@l stored from wreg
  6074     142E  00F3               	movwf	strcmp@l
  6075     142F                     l2823:
  6076     142F  2C38               	goto	l2827
  6077     1430                     l2825:
  6078     1430  3001               	movlw	1
  6079     1431  00F2               	movwf	??_strcmp
  6080     1432  0872               	movf	??_strcmp,w
  6081     1433  07F3               	addwf	strcmp@l,f
  6082     1434  3001               	movlw	1
  6083     1435  07F0               	addwf	strcmp@r,f
  6084     1436  3000               	movlw	0
  6085     1437  3DF1               	addwfc	strcmp@r+1,f
  6086     1438                     l2827:
  6087     1438  0870               	movf	strcmp@r,w
  6088     1439  0086               	movwf	6
  6089     143A  0871               	movf	strcmp@r+1,w
  6090     143B  0087               	movwf	7
  6091     143C  0873               	movf	strcmp@l,w
  6092     143D  0084               	movwf	4
  6093     143E  0185               	clrf	5
  6094     143F  0800               	movf	0,w
  6095     1440  0601               	xorwf	1,w
  6096     1441  1D03               	skipz
  6097     1442  2C44               	goto	u3021
  6098     1443  2C45               	goto	u3020
  6099     1444                     u3021:
  6100     1444  2C4D               	goto	l2831
  6101     1445                     u3020:
  6102     1445                     l2829:
  6103     1445  0873               	movf	strcmp@l,w
  6104     1446  0086               	movwf	6
  6105     1447  0187               	clrf	7
  6106     1448  0801               	movf	1,w
  6107     1449  1D03               	btfss	3,2
  6108     144A  2C4C               	goto	u3031
  6109     144B  2C4D               	goto	u3030
  6110     144C                     u3031:
  6111     144C  2C30               	goto	l2825
  6112     144D                     u3030:
  6113     144D                     l2831:
  6114     144D  0873               	movf	strcmp@l,w
  6115     144E  0086               	movwf	6
  6116     144F  0187               	clrf	7
  6117     1450  0870               	movf	strcmp@r,w
  6118     1451  0084               	movwf	4
  6119     1452  0871               	movf	strcmp@r+1,w
  6120     1453  0085               	movwf	5
  6121     1454  0800               	movf	0,w
  6122     1455  0201               	subwf	1,w
  6123     1456  00F0               	movwf	?_strcmp
  6124     1457  01F1               	clrf	?_strcmp+1
  6125     1458  1C03               	skipc
  6126     1459  03F1               	decf	?_strcmp+1,f
  6127     145A                     l977:
  6128     145A  0008               	return
  6129     145B                     __end_of_strcmp:
  6130                           
  6131                           	psect	text12
  6132     13D8                     __ptext12:	
  6133 ;; *************** function _memcpy *****************
  6134 ;; Defined at:
  6135 ;;		line 4 in file "C:\Program Files\Microchip\xc8\v2.46\pic\sources\c99\common\memcpy.c"
  6136 ;; Parameters:    Size  Location     Type
  6137 ;;  d1              2    0[COMMON] PTR void 
  6138 ;;		 -> screen_buffer(512), 
  6139 ;;  s1              2    2[COMMON] PTR const void 
  6140 ;;		 -> OledFont(768), 
  6141 ;;  n               2    4[COMMON] unsigned int 
  6142 ;; Auto vars:     Size  Location     Type
  6143 ;;  s               2    8[COMMON] PTR const unsigned char 
  6144 ;;		 -> OledFont(768), 
  6145 ;;  d               2    6[COMMON] PTR unsigned char 
  6146 ;;		 -> screen_buffer(512), 
  6147 ;;  tmp             1   10[COMMON] unsigned char 
  6148 ;; Return value:  Size  Location     Type
  6149 ;;                  2    0[COMMON] PTR void 
  6150 ;; Registers used:
  6151 ;;		wreg, fsr0l, fsr0h, fsr1l, fsr1h, status,2, status,0, pclath
  6152 ;; Tracked objects:
  6153 ;;		On entry : 0/0
  6154 ;;		On exit  : 0/0
  6155 ;;		Unchanged: 0/0
  6156 ;; Data sizes:     COMMON   BANK0   BANK1   BANK2   BANK3   BANK4   BANK5   BANK6   BANK7   BANK8   BANK9  BANK10  BANK1
      +1  BANK12  BANK13  BANK14  BANK15  BANK16  BANK17  BANK18  BANK19  BANK20  BANK21  BANK22  BANK23  BANK24  BANK25
  6157 ;;      Params:         6       0       0       0       0       0       0       0       0       0       0       0       
      +0       0       0       0       0       0       0       0       0       0       0       0       0       0       0
  6158 ;;      Locals:         5       0       0       0       0       0       0       0       0       0       0       0       
      +0       0       0       0       0       0       0       0       0       0       0       0       0       0       0
  6159 ;;      Temps:          0       0       0       0       0       0       0       0       0       0       0       0       
      +0       0       0       0       0       0       0       0       0       0       0       0       0       0       0
  6160 ;;      Totals:        11       0       0       0       0       0       0       0       0       0       0       0       
      +0       0       0       0       0       0       0       0       0       0       0       0       0       0       0
  6161 ;;Total ram usage:       11 bytes
  6162 ;; Hardware stack levels used: 1
  6163 ;; This function calls:
  6164 ;;		Nothing
  6165 ;; This function is called by:
  6166 ;;		_OLED_Printf_Line
  6167 ;; This function uses a non-reentrant model
  6168 ;;
  6169                           
  6170     13D8                     _memcpy:	
  6171                           ;psect for function _memcpy
  6172                           
  6173     13D8                     l2839:	
  6174                           ;incstack = 0
  6175                           ; Regs used in _memcpy: [wreg-fsr1h+status,2+status,0+pclath]
  6176                           
  6177     13D8  0873               	movf	memcpy@s1+1,w
  6178     13D9  00F9               	movwf	memcpy@s+1
  6179     13DA  0872               	movf	memcpy@s1,w
  6180     13DB  00F8               	movwf	memcpy@s
  6181     13DC  0871               	movf	memcpy@d1+1,w
  6182     13DD  00F7               	movwf	memcpy@d+1
  6183     13DE  0870               	movf	memcpy@d1,w
  6184     13DF  00F6               	movwf	memcpy@d
  6185     13E0  2BF5               	goto	l2849
  6186     13E1                     l2841:
  6187     13E1  0878               	movf	memcpy@s,w
  6188     13E2  0084               	movwf	4
  6189     13E3  0879               	movf	memcpy@s+1,w
  6190     13E4  0085               	movwf	5
  6191     13E5  0800               	movf	0,w	;code access
  6192     13E6  00FA               	movwf	memcpy@tmp
  6193     13E7                     l2843:
  6194     13E7  3001               	movlw	1
  6195     13E8  07F8               	addwf	memcpy@s,f
  6196     13E9  3000               	movlw	0
  6197     13EA  3DF9               	addwfc	memcpy@s+1,f
  6198     13EB                     l2845:
  6199     13EB  0876               	movf	memcpy@d,w
  6200     13EC  0086               	movwf	6
  6201     13ED  0877               	movf	memcpy@d+1,w
  6202     13EE  0087               	movwf	7
  6203     13EF  087A               	movf	memcpy@tmp,w
  6204     13F0  0081               	movwf	1
  6205     13F1                     l2847:
  6206     13F1  3001               	movlw	1
  6207     13F2  07F6               	addwf	memcpy@d,f
  6208     13F3  3000               	movlw	0
  6209     13F4  3DF7               	addwfc	memcpy@d+1,f
  6210     13F5                     l2849:
  6211     13F5  3001               	movlw	1
  6212     13F6  02F4               	subwf	memcpy@n,f
  6213     13F7  3000               	movlw	0
  6214     13F8  3BF5               	subwfb	memcpy@n+1,f
  6215     13F9  0A74               	incf	memcpy@n,w
  6216     13FA  1D03               	skipz
  6217     13FB  2C00               	goto	u3051
  6218     13FC  0A75               	incf	memcpy@n+1,w
  6219     13FD  1D03               	btfss	3,2
  6220     13FE  2C00               	goto	u3051
  6221     13FF  2C01               	goto	u3050
  6222     1400                     u3051:
  6223     1400  2BE1               	goto	l2841
  6224     1401                     u3050:
  6225     1401                     l963:
  6226     1401  0008               	return
  6227     1402                     __end_of_memcpy:
  6228                           
  6229                           	psect	text13
  6230     154A                     __ptext13:	
  6231 ;; *************** function ___lwmod *****************
  6232 ;; Defined at:
  6233 ;;		line 5 in file "C:\Program Files\Microchip\xc8\v2.46\pic\sources\c99\common\lwmod.c"
  6234 ;; Parameters:    Size  Location     Type
  6235 ;;  divisor         2    0[COMMON] unsigned int 
  6236 ;;  dividend        2    2[COMMON] unsigned int 
  6237 ;; Auto vars:     Size  Location     Type
  6238 ;;  counter         1    5[COMMON] unsigned char 
  6239 ;; Return value:  Size  Location     Type
  6240 ;;                  2    0[COMMON] unsigned int 
  6241 ;; Registers used:
  6242 ;;		wreg, status,2, status,0
  6243 ;; Tracked objects:
  6244 ;;		On entry : 0/0
  6245 ;;		On exit  : 0/0
  6246 ;;		Unchanged: 0/0
  6247 ;; Data sizes:     COMMON   BANK0   BANK1   BANK2   BANK3   BANK4   BANK5   BANK6   BANK7   BANK8   BANK9  BANK10  BANK1
      +1  BANK12  BANK13  BANK14  BANK15  BANK16  BANK17  BANK18  BANK19  BANK20  BANK21  BANK22  BANK23  BANK24  BANK25
  6248 ;;      Params:         4       0       0       0       0       0       0       0       0       0       0       0       
      +0       0       0       0       0       0       0       0       0       0       0       0       0       0       0
  6249 ;;      Locals:         1       0       0       0       0       0       0       0       0       0       0       0       
      +0       0       0       0       0       0       0       0       0       0       0       0       0       0       0
  6250 ;;      Temps:          1       0       0       0       0       0       0       0       0       0       0       0       
      +0       0       0       0       0       0       0       0       0       0       0       0       0       0       0
  6251 ;;      Totals:         6       0       0       0       0       0       0       0       0       0       0       0       
      +0       0       0       0       0       0       0       0       0       0       0       0       0       0       0
  6252 ;;Total ram usage:        6 bytes
  6253 ;; Hardware stack levels used: 1
  6254 ;; This function calls:
  6255 ;;		Nothing
  6256 ;; This function is called by:
  6257 ;;		_OLED_Printf_Line
  6258 ;; This function uses a non-reentrant model
  6259 ;;
  6260                           
  6261     154A                     ___lwmod:	
  6262                           ;psect for function ___lwmod
  6263                           
  6264     154A                     l3099:	
  6265                           ;incstack = 0
  6266                           ; Regs used in ___lwmod: [wreg+status,2+status,0]
  6267                           
  6268     154A  0870               	movf	___lwmod@divisor,w
  6269     154B  0471               	iorwf	___lwmod@divisor+1,w
  6270     154C  1903               	btfsc	3,2
  6271     154D  2D4F               	goto	u3671
  6272     154E  2D50               	goto	u3670
  6273     154F                     u3671:
  6274     154F  2D79               	goto	l3117
  6275     1550                     u3670:
  6276     1550                     l3101:
  6277     1550  01F5               	clrf	___lwmod@counter
  6278     1551  0AF5               	incf	___lwmod@counter,f
  6279     1552  2D5C               	goto	l3107
  6280     1553                     l3103:
  6281     1553  3001               	movlw	1
  6282     1554                     u3685:
  6283     1554  35F0               	lslf	___lwmod@divisor,f
  6284     1555  0DF1               	rlf	___lwmod@divisor+1,f
  6285     1556  0B89               	decfsz	9,f
  6286     1557  2D54               	goto	u3685
  6287     1558                     l3105:
  6288     1558  3001               	movlw	1
  6289     1559  00F4               	movwf	??___lwmod
  6290     155A  0874               	movf	??___lwmod,w
  6291     155B  07F5               	addwf	___lwmod@counter,f
  6292     155C                     l3107:
  6293     155C  1FF1               	btfss	___lwmod@divisor+1,7
  6294     155D  2D5F               	goto	u3691
  6295     155E  2D60               	goto	u3690
  6296     155F                     u3691:
  6297     155F  2D53               	goto	l3103
  6298     1560                     u3690:
  6299     1560                     l3109:
  6300     1560  0871               	movf	___lwmod@divisor+1,w
  6301     1561  0273               	subwf	___lwmod@dividend+1,w
  6302     1562  1D03               	skipz
  6303     1563  2D66               	goto	u3705
  6304     1564  0870               	movf	___lwmod@divisor,w
  6305     1565  0272               	subwf	___lwmod@dividend,w
  6306     1566                     u3705:
  6307     1566  1C03               	skipc
  6308     1567  2D69               	goto	u3701
  6309     1568  2D6A               	goto	u3700
  6310     1569                     u3701:
  6311     1569  2D6E               	goto	l3113
  6312     156A                     u3700:
  6313     156A                     l3111:
  6314     156A  0870               	movf	___lwmod@divisor,w
  6315     156B  02F2               	subwf	___lwmod@dividend,f
  6316     156C  0871               	movf	___lwmod@divisor+1,w
  6317     156D  3BF3               	subwfb	___lwmod@dividend+1,f
  6318     156E                     l3113:
  6319     156E  3001               	movlw	1
  6320     156F                     u3715:
  6321     156F  36F1               	lsrf	___lwmod@divisor+1,f
  6322     1570  0CF0               	rrf	___lwmod@divisor,f
  6323     1571  0B89               	decfsz	9,f
  6324     1572  2D6F               	goto	u3715
  6325     1573                     l3115:
  6326     1573  3001               	movlw	1
  6327     1574  02F5               	subwf	___lwmod@counter,f
  6328     1575  1D03               	btfss	3,2
  6329     1576  2D78               	goto	u3721
  6330     1577  2D79               	goto	u3720
  6331     1578                     u3721:
  6332     1578  2D60               	goto	l3109
  6333     1579                     u3720:
  6334     1579                     l3117:
  6335     1579  0873               	movf	___lwmod@dividend+1,w
  6336     157A  00F1               	movwf	?___lwmod+1
  6337     157B  0872               	movf	___lwmod@dividend,w
  6338     157C  00F0               	movwf	?___lwmod
  6339     157D                     l791:
  6340     157D  0008               	return
  6341     157E                     __end_of___lwmod:
  6342                           
  6343                           	psect	text14
  6344     157E                     __ptext14:	
  6345 ;; *************** function ___lwdiv *****************
  6346 ;; Defined at:
  6347 ;;		line 5 in file "C:\Program Files\Microchip\xc8\v2.46\pic\sources\c99\common\lwdiv.c"
  6348 ;; Parameters:    Size  Location     Type
  6349 ;;  divisor         2    0[COMMON] unsigned int 
  6350 ;;  dividend        2    2[COMMON] unsigned int 
  6351 ;; Auto vars:     Size  Location     Type
  6352 ;;  quotient        2    5[COMMON] unsigned int 
  6353 ;;  counter         1    7[COMMON] unsigned char 
  6354 ;; Return value:  Size  Location     Type
  6355 ;;                  2    0[COMMON] unsigned int 
  6356 ;; Registers used:
  6357 ;;		wreg, status,2, status,0
  6358 ;; Tracked objects:
  6359 ;;		On entry : 0/0
  6360 ;;		On exit  : 0/0
  6361 ;;		Unchanged: 0/0
  6362 ;; Data sizes:     COMMON   BANK0   BANK1   BANK2   BANK3   BANK4   BANK5   BANK6   BANK7   BANK8   BANK9  BANK10  BANK1
      +1  BANK12  BANK13  BANK14  BANK15  BANK16  BANK17  BANK18  BANK19  BANK20  BANK21  BANK22  BANK23  BANK24  BANK25
  6363 ;;      Params:         4       0       0       0       0       0       0       0       0       0       0       0       
      +0       0       0       0       0       0       0       0       0       0       0       0       0       0       0
  6364 ;;      Locals:         3       0       0       0       0       0       0       0       0       0       0       0       
      +0       0       0       0       0       0       0       0       0       0       0       0       0       0       0
  6365 ;;      Temps:          1       0       0       0       0       0       0       0       0       0       0       0       
      +0       0       0       0       0       0       0       0       0       0       0       0       0       0       0
  6366 ;;      Totals:         8       0       0       0       0       0       0       0       0       0       0       0       
      +0       0       0       0       0       0       0       0       0       0       0       0       0       0       0
  6367 ;;Total ram usage:        8 bytes
  6368 ;; Hardware stack levels used: 1
  6369 ;; This function calls:
  6370 ;;		Nothing
  6371 ;; This function is called by:
  6372 ;;		_OLED_Printf_Line
  6373 ;; This function uses a non-reentrant model
  6374 ;;
  6375                           
  6376     157E                     ___lwdiv:	
  6377                           ;psect for function ___lwdiv
  6378                           
  6379     157E                     l3073:	
  6380                           ;incstack = 0
  6381                           ; Regs used in ___lwdiv: [wreg+status,2+status,0]
  6382                           
  6383     157E  01F5               	clrf	___lwdiv@quotient
  6384     157F  01F6               	clrf	___lwdiv@quotient+1
  6385     1580                     l3075:
  6386     1580  0870               	movf	___lwdiv@divisor,w
  6387     1581  0471               	iorwf	___lwdiv@divisor+1,w
  6388     1582  1903               	btfsc	3,2
  6389     1583  2D85               	goto	u3601
  6390     1584  2D86               	goto	u3600
  6391     1585                     u3601:
  6392     1585  2DB5               	goto	l3095
  6393     1586                     u3600:
  6394     1586                     l3077:
  6395     1586  01F7               	clrf	___lwdiv@counter
  6396     1587  0AF7               	incf	___lwdiv@counter,f
  6397     1588  2D92               	goto	l3083
  6398     1589                     l3079:
  6399     1589  3001               	movlw	1
  6400     158A                     u3615:
  6401     158A  35F0               	lslf	___lwdiv@divisor,f
  6402     158B  0DF1               	rlf	___lwdiv@divisor+1,f
  6403     158C  0B89               	decfsz	9,f
  6404     158D  2D8A               	goto	u3615
  6405     158E                     l3081:
  6406     158E  3001               	movlw	1
  6407     158F  00F4               	movwf	??___lwdiv
  6408     1590  0874               	movf	??___lwdiv,w
  6409     1591  07F7               	addwf	___lwdiv@counter,f
  6410     1592                     l3083:
  6411     1592  1FF1               	btfss	___lwdiv@divisor+1,7
  6412     1593  2D95               	goto	u3621
  6413     1594  2D96               	goto	u3620
  6414     1595                     u3621:
  6415     1595  2D89               	goto	l3079
  6416     1596                     u3620:
  6417     1596                     l3085:
  6418     1596  3001               	movlw	1
  6419     1597                     u3635:
  6420     1597  35F5               	lslf	___lwdiv@quotient,f
  6421     1598  0DF6               	rlf	___lwdiv@quotient+1,f
  6422     1599  0B89               	decfsz	9,f
  6423     159A  2D97               	goto	u3635
  6424     159B  0871               	movf	___lwdiv@divisor+1,w
  6425     159C  0273               	subwf	___lwdiv@dividend+1,w
  6426     159D  1D03               	skipz
  6427     159E  2DA1               	goto	u3645
  6428     159F  0870               	movf	___lwdiv@divisor,w
  6429     15A0  0272               	subwf	___lwdiv@dividend,w
  6430     15A1                     u3645:
  6431     15A1  1C03               	skipc
  6432     15A2  2DA4               	goto	u3641
  6433     15A3  2DA5               	goto	u3640
  6434     15A4                     u3641:
  6435     15A4  2DAA               	goto	l3091
  6436     15A5                     u3640:
  6437     15A5                     l3087:
  6438     15A5  0870               	movf	___lwdiv@divisor,w
  6439     15A6  02F2               	subwf	___lwdiv@dividend,f
  6440     15A7  0871               	movf	___lwdiv@divisor+1,w
  6441     15A8  3BF3               	subwfb	___lwdiv@dividend+1,f
  6442     15A9                     l3089:
  6443     15A9  1475               	bsf	___lwdiv@quotient,0
  6444     15AA                     l3091:
  6445     15AA  3001               	movlw	1
  6446     15AB                     u3655:
  6447     15AB  36F1               	lsrf	___lwdiv@divisor+1,f
  6448     15AC  0CF0               	rrf	___lwdiv@divisor,f
  6449     15AD  0B89               	decfsz	9,f
  6450     15AE  2DAB               	goto	u3655
  6451     15AF                     l3093:
  6452     15AF  3001               	movlw	1
  6453     15B0  02F7               	subwf	___lwdiv@counter,f
  6454     15B1  1D03               	btfss	3,2
  6455     15B2  2DB4               	goto	u3661
  6456     15B3  2DB5               	goto	u3660
  6457     15B4                     u3661:
  6458     15B4  2D96               	goto	l3085
  6459     15B5                     u3660:
  6460     15B5                     l3095:
  6461     15B5  0876               	movf	___lwdiv@quotient+1,w
  6462     15B6  00F1               	movwf	?___lwdiv+1
  6463     15B7  0875               	movf	___lwdiv@quotient,w
  6464     15B8  00F0               	movwf	?___lwdiv
  6465     15B9                     l781:
  6466     15B9  0008               	return
  6467     15BA                     __end_of___lwdiv:
  6468                           
  6469                           	psect	text15
  6470     15FB                     __ptext15:	
  6471 ;; *************** function ___llmod *****************
  6472 ;; Defined at:
  6473 ;;		line 5 in file "C:\Program Files\Microchip\xc8\v2.46\pic\sources\c99\common\llmod.c"
  6474 ;; Parameters:    Size  Location     Type
  6475 ;;  divisor         4    0[COMMON] unsigned long 
  6476 ;;  dividend        4    4[COMMON] unsigned long 
  6477 ;; Auto vars:     Size  Location     Type
  6478 ;;  counter         1    9[COMMON] unsigned char 
  6479 ;; Return value:  Size  Location     Type
  6480 ;;                  4    0[COMMON] unsigned long 
  6481 ;; Registers used:
  6482 ;;		wreg, status,2, status,0
  6483 ;; Tracked objects:
  6484 ;;		On entry : 0/0
  6485 ;;		On exit  : 0/0
  6486 ;;		Unchanged: 0/0
  6487 ;; Data sizes:     COMMON   BANK0   BANK1   BANK2   BANK3   BANK4   BANK5   BANK6   BANK7   BANK8   BANK9  BANK10  BANK1
      +1  BANK12  BANK13  BANK14  BANK15  BANK16  BANK17  BANK18  BANK19  BANK20  BANK21  BANK22  BANK23  BANK24  BANK25
  6488 ;;      Params:         8       0       0       0       0       0       0       0       0       0       0       0       
      +0       0       0       0       0       0       0       0       0       0       0       0       0       0       0
  6489 ;;      Locals:         1       0       0       0       0       0       0       0       0       0       0       0       
      +0       0       0       0       0       0       0       0       0       0       0       0       0       0       0
  6490 ;;      Temps:          1       0       0       0       0       0       0       0       0       0       0       0       
      +0       0       0       0       0       0       0       0       0       0       0       0       0       0       0
  6491 ;;      Totals:        10       0       0       0       0       0       0       0       0       0       0       0       
      +0       0       0       0       0       0       0       0       0       0       0       0       0       0       0
  6492 ;;Total ram usage:       10 bytes
  6493 ;; Hardware stack levels used: 1
  6494 ;; This function calls:
  6495 ;;		Nothing
  6496 ;; This function is called by:
  6497 ;;		_OLED_Printf_Line
  6498 ;; This function uses a non-reentrant model
  6499 ;;
  6500                           
  6501     15FB                     ___llmod:	
  6502                           ;psect for function ___llmod
  6503                           
  6504     15FB                     l3053:	
  6505                           ;incstack = 0
  6506                           ; Regs used in ___llmod: [wreg+status,2+status,0]
  6507                           
  6508     15FB  0873               	movf	___llmod@divisor+3,w
  6509     15FC  0472               	iorwf	___llmod@divisor+2,w
  6510     15FD  0471               	iorwf	___llmod@divisor+1,w
  6511     15FE  0470               	iorwf	___llmod@divisor,w
  6512     15FF  1903               	skipnz
  6513     1600  2E02               	goto	u3541
  6514     1601  2E03               	goto	u3540
  6515     1602                     u3541:
  6516     1602  2E3C               	goto	l3069
  6517     1603                     u3540:
  6518     1603                     l3055:
  6519     1603  01F9               	clrf	___llmod@counter
  6520     1604  0AF9               	incf	___llmod@counter,f
  6521     1605  2E11               	goto	l3059
  6522     1606                     l3057:
  6523     1606  3001               	movlw	1
  6524     1607                     u3555:
  6525     1607  35F0               	lslf	___llmod@divisor,f
  6526     1608  0DF1               	rlf	___llmod@divisor+1,f
  6527     1609  0DF2               	rlf	___llmod@divisor+2,f
  6528     160A  0DF3               	rlf	___llmod@divisor+3,f
  6529     160B  0B89               	decfsz	9,f
  6530     160C  2E07               	goto	u3555
  6531     160D  3001               	movlw	1
  6532     160E  00F8               	movwf	??___llmod
  6533     160F  0878               	movf	??___llmod,w
  6534     1610  07F9               	addwf	___llmod@counter,f
  6535     1611                     l3059:
  6536     1611  1FF3               	btfss	___llmod@divisor+3,7
  6537     1612  2E14               	goto	u3561
  6538     1613  2E15               	goto	u3560
  6539     1614                     u3561:
  6540     1614  2E06               	goto	l3057
  6541     1615                     u3560:
  6542     1615                     l3061:
  6543     1615  0873               	movf	___llmod@divisor+3,w
  6544     1616  0277               	subwf	___llmod@dividend+3,w
  6545     1617  1D03               	skipz
  6546     1618  2E23               	goto	u3575
  6547     1619  0872               	movf	___llmod@divisor+2,w
  6548     161A  0276               	subwf	___llmod@dividend+2,w
  6549     161B  1D03               	skipz
  6550     161C  2E23               	goto	u3575
  6551     161D  0871               	movf	___llmod@divisor+1,w
  6552     161E  0275               	subwf	___llmod@dividend+1,w
  6553     161F  1D03               	skipz
  6554     1620  2E23               	goto	u3575
  6555     1621  0870               	movf	___llmod@divisor,w
  6556     1622  0274               	subwf	___llmod@dividend,w
  6557     1623                     u3575:
  6558     1623  1C03               	skipc
  6559     1624  2E26               	goto	u3571
  6560     1625  2E27               	goto	u3570
  6561     1626                     u3571:
  6562     1626  2E2F               	goto	l3065
  6563     1627                     u3570:
  6564     1627                     l3063:
  6565     1627  0870               	movf	___llmod@divisor,w
  6566     1628  02F4               	subwf	___llmod@dividend,f
  6567     1629  0871               	movf	___llmod@divisor+1,w
  6568     162A  3BF5               	subwfb	___llmod@dividend+1,f
  6569     162B  0872               	movf	___llmod@divisor+2,w
  6570     162C  3BF6               	subwfb	___llmod@dividend+2,f
  6571     162D  0873               	movf	___llmod@divisor+3,w
  6572     162E  3BF7               	subwfb	___llmod@dividend+3,f
  6573     162F                     l3065:
  6574     162F  3001               	movlw	1
  6575     1630                     u3585:
  6576     1630  36F3               	lsrf	___llmod@divisor+3,f
  6577     1631  0CF2               	rrf	___llmod@divisor+2,f
  6578     1632  0CF1               	rrf	___llmod@divisor+1,f
  6579     1633  0CF0               	rrf	___llmod@divisor,f
  6580     1634  0B89               	decfsz	9,f
  6581     1635  2E30               	goto	u3585
  6582     1636                     l3067:
  6583     1636  3001               	movlw	1
  6584     1637  02F9               	subwf	___llmod@counter,f
  6585     1638  1D03               	btfss	3,2
  6586     1639  2E3B               	goto	u3591
  6587     163A  2E3C               	goto	u3590
  6588     163B                     u3591:
  6589     163B  2E15               	goto	l3061
  6590     163C                     u3590:
  6591     163C                     l3069:
  6592     163C  0877               	movf	___llmod@dividend+3,w
  6593     163D  00F3               	movwf	?___llmod+3
  6594     163E  0876               	movf	___llmod@dividend+2,w
  6595     163F  00F2               	movwf	?___llmod+2
  6596     1640  0875               	movf	___llmod@dividend+1,w
  6597     1641  00F1               	movwf	?___llmod+1
  6598     1642  0874               	movf	___llmod@dividend,w
  6599     1643  00F0               	movwf	?___llmod
  6600     1644                     l731:
  6601     1644  0008               	return
  6602     1645                     __end_of___llmod:
  6603                           
  6604                           	psect	text16
  6605     1735                     __ptext16:	
  6606 ;; *************** function ___lldiv *****************
  6607 ;; Defined at:
  6608 ;;		line 5 in file "C:\Program Files\Microchip\xc8\v2.46\pic\sources\c99\common\__lldiv.c"
  6609 ;; Parameters:    Size  Location     Type
  6610 ;;  divisor         4    0[COMMON] unsigned long 
  6611 ;;  dividend        4    4[COMMON] unsigned long 
  6612 ;; Auto vars:     Size  Location     Type
  6613 ;;  quotient        4    9[COMMON] unsigned long 
  6614 ;;  counter         1   13[COMMON] unsigned char 
  6615 ;; Return value:  Size  Location     Type
  6616 ;;                  4    0[COMMON] unsigned long 
  6617 ;; Registers used:
  6618 ;;		wreg, status,2, status,0
  6619 ;; Tracked objects:
  6620 ;;		On entry : 0/0
  6621 ;;		On exit  : 0/0
  6622 ;;		Unchanged: 0/0
  6623 ;; Data sizes:     COMMON   BANK0   BANK1   BANK2   BANK3   BANK4   BANK5   BANK6   BANK7   BANK8   BANK9  BANK10  BANK1
      +1  BANK12  BANK13  BANK14  BANK15  BANK16  BANK17  BANK18  BANK19  BANK20  BANK21  BANK22  BANK23  BANK24  BANK25
  6624 ;;      Params:         8       0       0       0       0       0       0       0       0       0       0       0       
      +0       0       0       0       0       0       0       0       0       0       0       0       0       0       0
  6625 ;;      Locals:         5       0       0       0       0       0       0       0       0       0       0       0       
      +0       0       0       0       0       0       0       0       0       0       0       0       0       0       0
  6626 ;;      Temps:          1       0       0       0       0       0       0       0       0       0       0       0       
      +0       0       0       0       0       0       0       0       0       0       0       0       0       0       0
  6627 ;;      Totals:        14       0       0       0       0       0       0       0       0       0       0       0       
      +0       0       0       0       0       0       0       0       0       0       0       0       0       0       0
  6628 ;;Total ram usage:       14 bytes
  6629 ;; Hardware stack levels used: 1
  6630 ;; This function calls:
  6631 ;;		Nothing
  6632 ;; This function is called by:
  6633 ;;		_OLED_Printf_Line
  6634 ;;		_MAX6675_ReadADC_Averaged
  6635 ;; This function uses a non-reentrant model
  6636 ;;
  6637                           
  6638     1735                     ___lldiv:	
  6639                           ;psect for function ___lldiv
  6640                           
  6641     1735                     l2875:	
  6642                           ;incstack = 0
  6643                           ; Regs used in ___lldiv: [wreg+status,2+status,0]
  6644                           
  6645     1735  3000               	movlw	0
  6646     1736  00FC               	movwf	___lldiv@quotient+3
  6647     1737  3000               	movlw	0
  6648     1738  00FB               	movwf	___lldiv@quotient+2
  6649     1739  3000               	movlw	0
  6650     173A  00FA               	movwf	___lldiv@quotient+1
  6651     173B  3000               	movlw	0
  6652     173C  00F9               	movwf	___lldiv@quotient
  6653     173D  0873               	movf	___lldiv@divisor+3,w
  6654     173E  0472               	iorwf	___lldiv@divisor+2,w
  6655     173F  0471               	iorwf	___lldiv@divisor+1,w
  6656     1740  0470               	iorwf	___lldiv@divisor,w
  6657     1741  1903               	skipnz
  6658     1742  2F44               	goto	u3091
  6659     1743  2F45               	goto	u3090
  6660     1744                     u3091:
  6661     1744  2F86               	goto	l2895
  6662     1745                     u3090:
  6663     1745                     l2877:
  6664     1745  01FD               	clrf	___lldiv@counter
  6665     1746  0AFD               	incf	___lldiv@counter,f
  6666     1747  2F53               	goto	l2881
  6667     1748                     l2879:
  6668     1748  3001               	movlw	1
  6669     1749                     u3105:
  6670     1749  35F0               	lslf	___lldiv@divisor,f
  6671     174A  0DF1               	rlf	___lldiv@divisor+1,f
  6672     174B  0DF2               	rlf	___lldiv@divisor+2,f
  6673     174C  0DF3               	rlf	___lldiv@divisor+3,f
  6674     174D  0B89               	decfsz	9,f
  6675     174E  2F49               	goto	u3105
  6676     174F  3001               	movlw	1
  6677     1750  00F8               	movwf	??___lldiv
  6678     1751  0878               	movf	??___lldiv,w
  6679     1752  07FD               	addwf	___lldiv@counter,f
  6680     1753                     l2881:
  6681     1753  1FF3               	btfss	___lldiv@divisor+3,7
  6682     1754  2F56               	goto	u3111
  6683     1755  2F57               	goto	u3110
  6684     1756                     u3111:
  6685     1756  2F48               	goto	l2879
  6686     1757                     u3110:
  6687     1757                     l2883:
  6688     1757  3001               	movlw	1
  6689     1758                     u3125:
  6690     1758  35F9               	lslf	___lldiv@quotient,f
  6691     1759  0DFA               	rlf	___lldiv@quotient+1,f
  6692     175A  0DFB               	rlf	___lldiv@quotient+2,f
  6693     175B  0DFC               	rlf	___lldiv@quotient+3,f
  6694     175C  0B89               	decfsz	9,f
  6695     175D  2F58               	goto	u3125
  6696     175E                     l2885:
  6697     175E  0873               	movf	___lldiv@divisor+3,w
  6698     175F  0277               	subwf	___lldiv@dividend+3,w
  6699     1760  1D03               	skipz
  6700     1761  2F6C               	goto	u3135
  6701     1762  0872               	movf	___lldiv@divisor+2,w
  6702     1763  0276               	subwf	___lldiv@dividend+2,w
  6703     1764  1D03               	skipz
  6704     1765  2F6C               	goto	u3135
  6705     1766  0871               	movf	___lldiv@divisor+1,w
  6706     1767  0275               	subwf	___lldiv@dividend+1,w
  6707     1768  1D03               	skipz
  6708     1769  2F6C               	goto	u3135
  6709     176A  0870               	movf	___lldiv@divisor,w
  6710     176B  0274               	subwf	___lldiv@dividend,w
  6711     176C                     u3135:
  6712     176C  1C03               	skipc
  6713     176D  2F6F               	goto	u3131
  6714     176E  2F70               	goto	u3130
  6715     176F                     u3131:
  6716     176F  2F79               	goto	l2891
  6717     1770                     u3130:
  6718     1770                     l2887:
  6719     1770  0870               	movf	___lldiv@divisor,w
  6720     1771  02F4               	subwf	___lldiv@dividend,f
  6721     1772  0871               	movf	___lldiv@divisor+1,w
  6722     1773  3BF5               	subwfb	___lldiv@dividend+1,f
  6723     1774  0872               	movf	___lldiv@divisor+2,w
  6724     1775  3BF6               	subwfb	___lldiv@dividend+2,f
  6725     1776  0873               	movf	___lldiv@divisor+3,w
  6726     1777  3BF7               	subwfb	___lldiv@dividend+3,f
  6727     1778                     l2889:
  6728     1778  1479               	bsf	___lldiv@quotient,0
  6729     1779                     l2891:
  6730     1779  3001               	movlw	1
  6731     177A                     u3145:
  6732     177A  36F3               	lsrf	___lldiv@divisor+3,f
  6733     177B  0CF2               	rrf	___lldiv@divisor+2,f
  6734     177C  0CF1               	rrf	___lldiv@divisor+1,f
  6735     177D  0CF0               	rrf	___lldiv@divisor,f
  6736     177E  0B89               	decfsz	9,f
  6737     177F  2F7A               	goto	u3145
  6738     1780                     l2893:
  6739     1780  3001               	movlw	1
  6740     1781  02FD               	subwf	___lldiv@counter,f
  6741     1782  1D03               	btfss	3,2
  6742     1783  2F85               	goto	u3151
  6743     1784  2F86               	goto	u3150
  6744     1785                     u3151:
  6745     1785  2F57               	goto	l2883
  6746     1786                     u3150:
  6747     1786                     l2895:
  6748     1786  087C               	movf	___lldiv@quotient+3,w
  6749     1787  00F3               	movwf	?___lldiv+3
  6750     1788  087B               	movf	___lldiv@quotient+2,w
  6751     1789  00F2               	movwf	?___lldiv+2
  6752     178A  087A               	movf	___lldiv@quotient+1,w
  6753     178B  00F1               	movwf	?___lldiv+1
  6754     178C  0879               	movf	___lldiv@quotient,w
  6755     178D  00F0               	movwf	?___lldiv
  6756     178E                     l537:
  6757     178E  0008               	return
  6758     178F                     __end_of___lldiv:
  6759                           
  6760                           	psect	text17
  6761     16E2                     __ptext17:	
  6762 ;; *************** function ___awmod *****************
  6763 ;; Defined at:
  6764 ;;		line 5 in file "C:\Program Files\Microchip\xc8\v2.46\pic\sources\c99\common\awmod.c"
  6765 ;; Parameters:    Size  Location     Type
  6766 ;;  divisor         2    0[COMMON] int 
  6767 ;;  dividend        2    2[COMMON] int 
  6768 ;; Auto vars:     Size  Location     Type
  6769 ;;  sign            1    6[COMMON] unsigned char 
  6770 ;;  counter         1    5[COMMON] unsigned char 
  6771 ;; Return value:  Size  Location     Type
  6772 ;;                  2    0[COMMON] int 
  6773 ;; Registers used:
  6774 ;;		wreg, status,2, status,0
  6775 ;; Tracked objects:
  6776 ;;		On entry : 0/0
  6777 ;;		On exit  : 0/0
  6778 ;;		Unchanged: 0/0
  6779 ;; Data sizes:     COMMON   BANK0   BANK1   BANK2   BANK3   BANK4   BANK5   BANK6   BANK7   BANK8   BANK9  BANK10  BANK1
      +1  BANK12  BANK13  BANK14  BANK15  BANK16  BANK17  BANK18  BANK19  BANK20  BANK21  BANK22  BANK23  BANK24  BANK25
  6780 ;;      Params:         4       0       0       0       0       0       0       0       0       0       0       0       
      +0       0       0       0       0       0       0       0       0       0       0       0       0       0       0
  6781 ;;      Locals:         2       0       0       0       0       0       0       0       0       0       0       0       
      +0       0       0       0       0       0       0       0       0       0       0       0       0       0       0
  6782 ;;      Temps:          1       0       0       0       0       0       0       0       0       0       0       0       
      +0       0       0       0       0       0       0       0       0       0       0       0       0       0       0
  6783 ;;      Totals:         7       0       0       0       0       0       0       0       0       0       0       0       
      +0       0       0       0       0       0       0       0       0       0       0       0       0       0       0
  6784 ;;Total ram usage:        7 bytes
  6785 ;; Hardware stack levels used: 1
  6786 ;; This function calls:
  6787 ;;		Nothing
  6788 ;; This function is called by:
  6789 ;;		_OLED_Printf_Line
  6790 ;; This function uses a non-reentrant model
  6791 ;;
  6792                           
  6793     16E2                     ___awmod:	
  6794                           ;psect for function ___awmod
  6795                           
  6796     16E2                     l3015:	
  6797                           ;incstack = 0
  6798                           ; Regs used in ___awmod: [wreg+status,2+status,0]
  6799                           
  6800     16E2  01F6               	clrf	___awmod@sign
  6801     16E3                     l3017:
  6802     16E3  1FF3               	btfss	___awmod@dividend+1,7
  6803     16E4  2EE6               	goto	u3451
  6804     16E5  2EE7               	goto	u3450
  6805     16E6                     u3451:
  6806     16E6  2EEE               	goto	l3023
  6807     16E7                     u3450:
  6808     16E7                     l3019:
  6809     16E7  09F2               	comf	___awmod@dividend,f
  6810     16E8  09F3               	comf	___awmod@dividend+1,f
  6811     16E9  0AF2               	incf	___awmod@dividend,f
  6812     16EA  1903               	skipnz
  6813     16EB  0AF3               	incf	___awmod@dividend+1,f
  6814     16EC                     l3021:
  6815     16EC  01F6               	clrf	___awmod@sign
  6816     16ED  0AF6               	incf	___awmod@sign,f
  6817     16EE                     l3023:
  6818     16EE  1FF1               	btfss	___awmod@divisor+1,7
  6819     16EF  2EF1               	goto	u3461
  6820     16F0  2EF2               	goto	u3460
  6821     16F1                     u3461:
  6822     16F1  2EF7               	goto	l3027
  6823     16F2                     u3460:
  6824     16F2                     l3025:
  6825     16F2  09F0               	comf	___awmod@divisor,f
  6826     16F3  09F1               	comf	___awmod@divisor+1,f
  6827     16F4  0AF0               	incf	___awmod@divisor,f
  6828     16F5  1903               	skipnz
  6829     16F6  0AF1               	incf	___awmod@divisor+1,f
  6830     16F7                     l3027:
  6831     16F7  0870               	movf	___awmod@divisor,w
  6832     16F8  0471               	iorwf	___awmod@divisor+1,w
  6833     16F9  1903               	btfsc	3,2
  6834     16FA  2EFC               	goto	u3471
  6835     16FB  2EFD               	goto	u3470
  6836     16FC                     u3471:
  6837     16FC  2F26               	goto	l3045
  6838     16FD                     u3470:
  6839     16FD                     l3029:
  6840     16FD  01F5               	clrf	___awmod@counter
  6841     16FE  0AF5               	incf	___awmod@counter,f
  6842     16FF  2F09               	goto	l3035
  6843     1700                     l3031:
  6844     1700  3001               	movlw	1
  6845     1701                     u3485:
  6846     1701  35F0               	lslf	___awmod@divisor,f
  6847     1702  0DF1               	rlf	___awmod@divisor+1,f
  6848     1703  0B89               	decfsz	9,f
  6849     1704  2F01               	goto	u3485
  6850     1705                     l3033:
  6851     1705  3001               	movlw	1
  6852     1706  00F4               	movwf	??___awmod
  6853     1707  0874               	movf	??___awmod,w
  6854     1708  07F5               	addwf	___awmod@counter,f
  6855     1709                     l3035:
  6856     1709  1FF1               	btfss	___awmod@divisor+1,7
  6857     170A  2F0C               	goto	u3491
  6858     170B  2F0D               	goto	u3490
  6859     170C                     u3491:
  6860     170C  2F00               	goto	l3031
  6861     170D                     u3490:
  6862     170D                     l3037:
  6863     170D  0871               	movf	___awmod@divisor+1,w
  6864     170E  0273               	subwf	___awmod@dividend+1,w
  6865     170F  1D03               	skipz
  6866     1710  2F13               	goto	u3505
  6867     1711  0870               	movf	___awmod@divisor,w
  6868     1712  0272               	subwf	___awmod@dividend,w
  6869     1713                     u3505:
  6870     1713  1C03               	skipc
  6871     1714  2F16               	goto	u3501
  6872     1715  2F17               	goto	u3500
  6873     1716                     u3501:
  6874     1716  2F1B               	goto	l3041
  6875     1717                     u3500:
  6876     1717                     l3039:
  6877     1717  0870               	movf	___awmod@divisor,w
  6878     1718  02F2               	subwf	___awmod@dividend,f
  6879     1719  0871               	movf	___awmod@divisor+1,w
  6880     171A  3BF3               	subwfb	___awmod@dividend+1,f
  6881     171B                     l3041:
  6882     171B  3001               	movlw	1
  6883     171C                     u3515:
  6884     171C  36F1               	lsrf	___awmod@divisor+1,f
  6885     171D  0CF0               	rrf	___awmod@divisor,f
  6886     171E  0B89               	decfsz	9,f
  6887     171F  2F1C               	goto	u3515
  6888     1720                     l3043:
  6889     1720  3001               	movlw	1
  6890     1721  02F5               	subwf	___awmod@counter,f
  6891     1722  1D03               	btfss	3,2
  6892     1723  2F25               	goto	u3521
  6893     1724  2F26               	goto	u3520
  6894     1725                     u3521:
  6895     1725  2F0D               	goto	l3037
  6896     1726                     u3520:
  6897     1726                     l3045:
  6898     1726  0876               	movf	___awmod@sign,w
  6899     1727  1903               	btfsc	3,2
  6900     1728  2F2A               	goto	u3531
  6901     1729  2F2B               	goto	u3530
  6902     172A                     u3531:
  6903     172A  2F30               	goto	l3049
  6904     172B                     u3530:
  6905     172B                     l3047:
  6906     172B  09F2               	comf	___awmod@dividend,f
  6907     172C  09F3               	comf	___awmod@dividend+1,f
  6908     172D  0AF2               	incf	___awmod@dividend,f
  6909     172E  1903               	skipnz
  6910     172F  0AF3               	incf	___awmod@dividend+1,f
  6911     1730                     l3049:
  6912     1730  0873               	movf	___awmod@dividend+1,w
  6913     1731  00F1               	movwf	?___awmod+1
  6914     1732  0872               	movf	___awmod@dividend,w
  6915     1733  00F0               	movwf	?___awmod
  6916     1734                     l667:
  6917     1734  0008               	return
  6918     1735                     __end_of___awmod:
  6919                           
  6920                           	psect	text18
  6921     0B12                     __ptext18:	
  6922 ;; *************** function ___awdiv *****************
  6923 ;; Defined at:
  6924 ;;		line 5 in file "C:\Program Files\Microchip\xc8\v2.46\pic\sources\c99\common\awdiv.c"
  6925 ;; Parameters:    Size  Location     Type
  6926 ;;  divisor         2    0[COMMON] int 
  6927 ;;  dividend        2    2[COMMON] int 
  6928 ;; Auto vars:     Size  Location     Type
  6929 ;;  quotient        2    7[COMMON] int 
  6930 ;;  sign            1    6[COMMON] unsigned char 
  6931 ;;  counter         1    5[COMMON] unsigned char 
  6932 ;; Return value:  Size  Location     Type
  6933 ;;                  2    0[COMMON] int 
  6934 ;; Registers used:
  6935 ;;		wreg, status,2, status,0
  6936 ;; Tracked objects:
  6937 ;;		On entry : 0/0
  6938 ;;		On exit  : 0/0
  6939 ;;		Unchanged: 0/0
  6940 ;; Data sizes:     COMMON   BANK0   BANK1   BANK2   BANK3   BANK4   BANK5   BANK6   BANK7   BANK8   BANK9  BANK10  BANK1
      +1  BANK12  BANK13  BANK14  BANK15  BANK16  BANK17  BANK18  BANK19  BANK20  BANK21  BANK22  BANK23  BANK24  BANK25
  6941 ;;      Params:         4       0       0       0       0       0       0       0       0       0       0       0       
      +0       0       0       0       0       0       0       0       0       0       0       0       0       0       0
  6942 ;;      Locals:         4       0       0       0       0       0       0       0       0       0       0       0       
      +0       0       0       0       0       0       0       0       0       0       0       0       0       0       0
  6943 ;;      Temps:          1       0       0       0       0       0       0       0       0       0       0       0       
      +0       0       0       0       0       0       0       0       0       0       0       0       0       0       0
  6944 ;;      Totals:         9       0       0       0       0       0       0       0       0       0       0       0       
      +0       0       0       0       0       0       0       0       0       0       0       0       0       0       0
  6945 ;;Total ram usage:        9 bytes
  6946 ;; Hardware stack levels used: 1
  6947 ;; This function calls:
  6948 ;;		Nothing
  6949 ;; This function is called by:
  6950 ;;		_OLED_Printf_Line
  6951 ;;		_OLED_DrawBattery
  6952 ;; This function uses a non-reentrant model
  6953 ;;
  6954                           
  6955     0B12                     ___awdiv:	
  6956                           ;psect for function ___awdiv
  6957                           
  6958     0B12                     l2971:	
  6959                           ;incstack = 0
  6960                           ; Regs used in ___awdiv: [wreg+status,2+status,0]
  6961                           
  6962     0B12  01F6               	clrf	___awdiv@sign
  6963     0B13                     l2973:
  6964     0B13  1FF1               	btfss	___awdiv@divisor+1,7
  6965     0B14  2B16               	goto	u3351
  6966     0B15  2B17               	goto	u3350
  6967     0B16                     u3351:
  6968     0B16  2B1E               	goto	l2979
  6969     0B17                     u3350:
  6970     0B17                     l2975:
  6971     0B17  09F0               	comf	___awdiv@divisor,f
  6972     0B18  09F1               	comf	___awdiv@divisor+1,f
  6973     0B19  0AF0               	incf	___awdiv@divisor,f
  6974     0B1A  1903               	skipnz
  6975     0B1B  0AF1               	incf	___awdiv@divisor+1,f
  6976     0B1C                     l2977:
  6977     0B1C  01F6               	clrf	___awdiv@sign
  6978     0B1D  0AF6               	incf	___awdiv@sign,f
  6979     0B1E                     l2979:
  6980     0B1E  1FF3               	btfss	___awdiv@dividend+1,7
  6981     0B1F  2B21               	goto	u3361
  6982     0B20  2B22               	goto	u3360
  6983     0B21                     u3361:
  6984     0B21  2B2B               	goto	l2985
  6985     0B22                     u3360:
  6986     0B22                     l2981:
  6987     0B22  09F2               	comf	___awdiv@dividend,f
  6988     0B23  09F3               	comf	___awdiv@dividend+1,f
  6989     0B24  0AF2               	incf	___awdiv@dividend,f
  6990     0B25  1903               	skipnz
  6991     0B26  0AF3               	incf	___awdiv@dividend+1,f
  6992     0B27                     l2983:
  6993     0B27  3001               	movlw	1
  6994     0B28  00F4               	movwf	??___awdiv
  6995     0B29  0874               	movf	??___awdiv,w
  6996     0B2A  06F6               	xorwf	___awdiv@sign,f
  6997     0B2B                     l2985:
  6998     0B2B  01F7               	clrf	___awdiv@quotient
  6999     0B2C  01F8               	clrf	___awdiv@quotient+1
  7000     0B2D                     l2987:
  7001     0B2D  0870               	movf	___awdiv@divisor,w
  7002     0B2E  0471               	iorwf	___awdiv@divisor+1,w
  7003     0B2F  1903               	btfsc	3,2
  7004     0B30  2B32               	goto	u3371
  7005     0B31  2B33               	goto	u3370
  7006     0B32                     u3371:
  7007     0B32  2B62               	goto	l3007
  7008     0B33                     u3370:
  7009     0B33                     l2989:
  7010     0B33  01F5               	clrf	___awdiv@counter
  7011     0B34  0AF5               	incf	___awdiv@counter,f
  7012     0B35  2B3F               	goto	l2995
  7013     0B36                     l2991:
  7014     0B36  3001               	movlw	1
  7015     0B37                     u3385:
  7016     0B37  35F0               	lslf	___awdiv@divisor,f
  7017     0B38  0DF1               	rlf	___awdiv@divisor+1,f
  7018     0B39  0B89               	decfsz	9,f
  7019     0B3A  2B37               	goto	u3385
  7020     0B3B                     l2993:
  7021     0B3B  3001               	movlw	1
  7022     0B3C  00F4               	movwf	??___awdiv
  7023     0B3D  0874               	movf	??___awdiv,w
  7024     0B3E  07F5               	addwf	___awdiv@counter,f
  7025     0B3F                     l2995:
  7026     0B3F  1FF1               	btfss	___awdiv@divisor+1,7
  7027     0B40  2B42               	goto	u3391
  7028     0B41  2B43               	goto	u3390
  7029     0B42                     u3391:
  7030     0B42  2B36               	goto	l2991
  7031     0B43                     u3390:
  7032     0B43                     l2997:
  7033     0B43  3001               	movlw	1
  7034     0B44                     u3405:
  7035     0B44  35F7               	lslf	___awdiv@quotient,f
  7036     0B45  0DF8               	rlf	___awdiv@quotient+1,f
  7037     0B46  0B89               	decfsz	9,f
  7038     0B47  2B44               	goto	u3405
  7039     0B48  0871               	movf	___awdiv@divisor+1,w
  7040     0B49  0273               	subwf	___awdiv@dividend+1,w
  7041     0B4A  1D03               	skipz
  7042     0B4B  2B4E               	goto	u3415
  7043     0B4C  0870               	movf	___awdiv@divisor,w
  7044     0B4D  0272               	subwf	___awdiv@dividend,w
  7045     0B4E                     u3415:
  7046     0B4E  1C03               	skipc
  7047     0B4F  2B51               	goto	u3411
  7048     0B50  2B52               	goto	u3410
  7049     0B51                     u3411:
  7050     0B51  2B57               	goto	l3003
  7051     0B52                     u3410:
  7052     0B52                     l2999:
  7053     0B52  0870               	movf	___awdiv@divisor,w
  7054     0B53  02F2               	subwf	___awdiv@dividend,f
  7055     0B54  0871               	movf	___awdiv@divisor+1,w
  7056     0B55  3BF3               	subwfb	___awdiv@dividend+1,f
  7057     0B56                     l3001:
  7058     0B56  1477               	bsf	___awdiv@quotient,0
  7059     0B57                     l3003:
  7060     0B57  3001               	movlw	1
  7061     0B58                     u3425:
  7062     0B58  36F1               	lsrf	___awdiv@divisor+1,f
  7063     0B59  0CF0               	rrf	___awdiv@divisor,f
  7064     0B5A  0B89               	decfsz	9,f
  7065     0B5B  2B58               	goto	u3425
  7066     0B5C                     l3005:
  7067     0B5C  3001               	movlw	1
  7068     0B5D  02F5               	subwf	___awdiv@counter,f
  7069     0B5E  1D03               	btfss	3,2
  7070     0B5F  2B61               	goto	u3431
  7071     0B60  2B62               	goto	u3430
  7072     0B61                     u3431:
  7073     0B61  2B43               	goto	l2997
  7074     0B62                     u3430:
  7075     0B62                     l3007:
  7076     0B62  0876               	movf	___awdiv@sign,w
  7077     0B63  1903               	btfsc	3,2
  7078     0B64  2B66               	goto	u3441
  7079     0B65  2B67               	goto	u3440
  7080     0B66                     u3441:
  7081     0B66  2B6C               	goto	l3011
  7082     0B67                     u3440:
  7083     0B67                     l3009:
  7084     0B67  09F7               	comf	___awdiv@quotient,f
  7085     0B68  09F8               	comf	___awdiv@quotient+1,f
  7086     0B69  0AF7               	incf	___awdiv@quotient,f
  7087     0B6A  1903               	skipnz
  7088     0B6B  0AF8               	incf	___awdiv@quotient+1,f
  7089     0B6C                     l3011:
  7090     0B6C  0878               	movf	___awdiv@quotient+1,w
  7091     0B6D  00F1               	movwf	?___awdiv+1
  7092     0B6E  0877               	movf	___awdiv@quotient,w
  7093     0B6F  00F0               	movwf	?___awdiv
  7094     0B70                     l654:
  7095     0B70  0008               	return
  7096     0B71                     __end_of___awdiv:
  7097                           
  7098                           	psect	text19
  7099     0C5F                     __ptext19:	
  7100 ;; *************** function ___almod *****************
  7101 ;; Defined at:
  7102 ;;		line 5 in file "C:\Program Files\Microchip\xc8\v2.46\pic\sources\c99\common\almod.c"
  7103 ;; Parameters:    Size  Location     Type
  7104 ;;  divisor         4    0[COMMON] long 
  7105 ;;  dividend        4    4[COMMON] long 
  7106 ;; Auto vars:     Size  Location     Type
  7107 ;;  sign            1   10[COMMON] unsigned char 
  7108 ;;  counter         1    9[COMMON] unsigned char 
  7109 ;; Return value:  Size  Location     Type
  7110 ;;                  4    0[COMMON] long 
  7111 ;; Registers used:
  7112 ;;		wreg, status,2, status,0
  7113 ;; Tracked objects:
  7114 ;;		On entry : 0/0
  7115 ;;		On exit  : 0/0
  7116 ;;		Unchanged: 0/0
  7117 ;; Data sizes:     COMMON   BANK0   BANK1   BANK2   BANK3   BANK4   BANK5   BANK6   BANK7   BANK8   BANK9  BANK10  BANK1
      +1  BANK12  BANK13  BANK14  BANK15  BANK16  BANK17  BANK18  BANK19  BANK20  BANK21  BANK22  BANK23  BANK24  BANK25
  7118 ;;      Params:         8       0       0       0       0       0       0       0       0       0       0       0       
      +0       0       0       0       0       0       0       0       0       0       0       0       0       0       0
  7119 ;;      Locals:         2       0       0       0       0       0       0       0       0       0       0       0       
      +0       0       0       0       0       0       0       0       0       0       0       0       0       0       0
  7120 ;;      Temps:          1       0       0       0       0       0       0       0       0       0       0       0       
      +0       0       0       0       0       0       0       0       0       0       0       0       0       0       0
  7121 ;;      Totals:        11       0       0       0       0       0       0       0       0       0       0       0       
      +0       0       0       0       0       0       0       0       0       0       0       0       0       0       0
  7122 ;;Total ram usage:       11 bytes
  7123 ;; Hardware stack levels used: 1
  7124 ;; This function calls:
  7125 ;;		Nothing
  7126 ;; This function is called by:
  7127 ;;		_OLED_Printf_Line
  7128 ;; This function uses a non-reentrant model
  7129 ;;
  7130                           
  7131     0C5F                     ___almod:	
  7132                           ;psect for function ___almod
  7133                           
  7134     0C5F                     l2939:	
  7135                           ;incstack = 0
  7136                           ; Regs used in ___almod: [wreg+status,2+status,0]
  7137                           
  7138     0C5F  01FA               	clrf	___almod@sign
  7139     0C60                     l2941:
  7140     0C60  1FF7               	btfss	___almod@dividend+3,7
  7141     0C61  2C63               	goto	u3261
  7142     0C62  2C64               	goto	u3260
  7143     0C63                     u3261:
  7144     0C63  2C71               	goto	l579
  7145     0C64                     u3260:
  7146     0C64                     l2943:
  7147     0C64  09F4               	comf	___almod@dividend,f
  7148     0C65  09F5               	comf	___almod@dividend+1,f
  7149     0C66  09F6               	comf	___almod@dividend+2,f
  7150     0C67  09F7               	comf	___almod@dividend+3,f
  7151     0C68  0AF4               	incf	___almod@dividend,f
  7152     0C69  1903               	skipnz
  7153     0C6A  0AF5               	incf	___almod@dividend+1,f
  7154     0C6B  1903               	skipnz
  7155     0C6C  0AF6               	incf	___almod@dividend+2,f
  7156     0C6D  1903               	skipnz
  7157     0C6E  0AF7               	incf	___almod@dividend+3,f
  7158     0C6F  01FA               	clrf	___almod@sign
  7159     0C70  0AFA               	incf	___almod@sign,f
  7160     0C71                     l579:
  7161     0C71  1FF3               	btfss	___almod@divisor+3,7
  7162     0C72  2C74               	goto	u3271
  7163     0C73  2C75               	goto	u3270
  7164     0C74                     u3271:
  7165     0C74  2C80               	goto	l2947
  7166     0C75                     u3270:
  7167     0C75                     l2945:
  7168     0C75  09F0               	comf	___almod@divisor,f
  7169     0C76  09F1               	comf	___almod@divisor+1,f
  7170     0C77  09F2               	comf	___almod@divisor+2,f
  7171     0C78  09F3               	comf	___almod@divisor+3,f
  7172     0C79  0AF0               	incf	___almod@divisor,f
  7173     0C7A  1903               	skipnz
  7174     0C7B  0AF1               	incf	___almod@divisor+1,f
  7175     0C7C  1903               	skipnz
  7176     0C7D  0AF2               	incf	___almod@divisor+2,f
  7177     0C7E  1903               	skipnz
  7178     0C7F  0AF3               	incf	___almod@divisor+3,f
  7179     0C80                     l2947:
  7180     0C80  0873               	movf	___almod@divisor+3,w
  7181     0C81  0472               	iorwf	___almod@divisor+2,w
  7182     0C82  0471               	iorwf	___almod@divisor+1,w
  7183     0C83  0470               	iorwf	___almod@divisor,w
  7184     0C84  1903               	skipnz
  7185     0C85  2C87               	goto	u3281
  7186     0C86  2C88               	goto	u3280
  7187     0C87                     u3281:
  7188     0C87  2CC1               	goto	l2963
  7189     0C88                     u3280:
  7190     0C88                     l2949:
  7191     0C88  01F9               	clrf	___almod@counter
  7192     0C89  0AF9               	incf	___almod@counter,f
  7193     0C8A  2C96               	goto	l2953
  7194     0C8B                     l2951:
  7195     0C8B  3001               	movlw	1
  7196     0C8C                     u3295:
  7197     0C8C  35F0               	lslf	___almod@divisor,f
  7198     0C8D  0DF1               	rlf	___almod@divisor+1,f
  7199     0C8E  0DF2               	rlf	___almod@divisor+2,f
  7200     0C8F  0DF3               	rlf	___almod@divisor+3,f
  7201     0C90  0B89               	decfsz	9,f
  7202     0C91  2C8C               	goto	u3295
  7203     0C92  3001               	movlw	1
  7204     0C93  00F8               	movwf	??___almod
  7205     0C94  0878               	movf	??___almod,w
  7206     0C95  07F9               	addwf	___almod@counter,f
  7207     0C96                     l2953:
  7208     0C96  1FF3               	btfss	___almod@divisor+3,7
  7209     0C97  2C99               	goto	u3301
  7210     0C98  2C9A               	goto	u3300
  7211     0C99                     u3301:
  7212     0C99  2C8B               	goto	l2951
  7213     0C9A                     u3300:
  7214     0C9A                     l2955:
  7215     0C9A  0873               	movf	___almod@divisor+3,w
  7216     0C9B  0277               	subwf	___almod@dividend+3,w
  7217     0C9C  1D03               	skipz
  7218     0C9D  2CA8               	goto	u3315
  7219     0C9E  0872               	movf	___almod@divisor+2,w
  7220     0C9F  0276               	subwf	___almod@dividend+2,w
  7221     0CA0  1D03               	skipz
  7222     0CA1  2CA8               	goto	u3315
  7223     0CA2  0871               	movf	___almod@divisor+1,w
  7224     0CA3  0275               	subwf	___almod@dividend+1,w
  7225     0CA4  1D03               	skipz
  7226     0CA5  2CA8               	goto	u3315
  7227     0CA6  0870               	movf	___almod@divisor,w
  7228     0CA7  0274               	subwf	___almod@dividend,w
  7229     0CA8                     u3315:
  7230     0CA8  1C03               	skipc
  7231     0CA9  2CAB               	goto	u3311
  7232     0CAA  2CAC               	goto	u3310
  7233     0CAB                     u3311:
  7234     0CAB  2CB4               	goto	l2959
  7235     0CAC                     u3310:
  7236     0CAC                     l2957:
  7237     0CAC  0870               	movf	___almod@divisor,w
  7238     0CAD  02F4               	subwf	___almod@dividend,f
  7239     0CAE  0871               	movf	___almod@divisor+1,w
  7240     0CAF  3BF5               	subwfb	___almod@dividend+1,f
  7241     0CB0  0872               	movf	___almod@divisor+2,w
  7242     0CB1  3BF6               	subwfb	___almod@dividend+2,f
  7243     0CB2  0873               	movf	___almod@divisor+3,w
  7244     0CB3  3BF7               	subwfb	___almod@dividend+3,f
  7245     0CB4                     l2959:
  7246     0CB4  3001               	movlw	1
  7247     0CB5                     u3325:
  7248     0CB5  36F3               	lsrf	___almod@divisor+3,f
  7249     0CB6  0CF2               	rrf	___almod@divisor+2,f
  7250     0CB7  0CF1               	rrf	___almod@divisor+1,f
  7251     0CB8  0CF0               	rrf	___almod@divisor,f
  7252     0CB9  0B89               	decfsz	9,f
  7253     0CBA  2CB5               	goto	u3325
  7254     0CBB                     l2961:
  7255     0CBB  3001               	movlw	1
  7256     0CBC  02F9               	subwf	___almod@counter,f
  7257     0CBD  1D03               	btfss	3,2
  7258     0CBE  2CC0               	goto	u3331
  7259     0CBF  2CC1               	goto	u3330
  7260     0CC0                     u3331:
  7261     0CC0  2C9A               	goto	l2955
  7262     0CC1                     u3330:
  7263     0CC1                     l2963:
  7264     0CC1  087A               	movf	___almod@sign,w
  7265     0CC2  1903               	btfsc	3,2
  7266     0CC3  2CC5               	goto	u3341
  7267     0CC4  2CC6               	goto	u3340
  7268     0CC5                     u3341:
  7269     0CC5  2CD1               	goto	l2967
  7270     0CC6                     u3340:
  7271     0CC6                     l2965:
  7272     0CC6  09F4               	comf	___almod@dividend,f
  7273     0CC7  09F5               	comf	___almod@dividend+1,f
  7274     0CC8  09F6               	comf	___almod@dividend+2,f
  7275     0CC9  09F7               	comf	___almod@dividend+3,f
  7276     0CCA  0AF4               	incf	___almod@dividend,f
  7277     0CCB  1903               	skipnz
  7278     0CCC  0AF5               	incf	___almod@dividend+1,f
  7279     0CCD  1903               	skipnz
  7280     0CCE  0AF6               	incf	___almod@dividend+2,f
  7281     0CCF  1903               	skipnz
  7282     0CD0  0AF7               	incf	___almod@dividend+3,f
  7283     0CD1                     l2967:
  7284     0CD1  0877               	movf	___almod@dividend+3,w
  7285     0CD2  00F3               	movwf	?___almod+3
  7286     0CD3  0876               	movf	___almod@dividend+2,w
  7287     0CD4  00F2               	movwf	?___almod+2
  7288     0CD5  0875               	movf	___almod@dividend+1,w
  7289     0CD6  00F1               	movwf	?___almod+1
  7290     0CD7  0874               	movf	___almod@dividend,w
  7291     0CD8  00F0               	movwf	?___almod
  7292     0CD9                     l589:
  7293     0CD9  0008               	return
  7294     0CDA                     __end_of___almod:
  7295                           
  7296                           	psect	text20
  7297     0D65                     __ptext20:	
  7298 ;; *************** function ___aldiv *****************
  7299 ;; Defined at:
  7300 ;;		line 5 in file "C:\Program Files\Microchip\xc8\v2.46\pic\sources\c99\common\aldiv.c"
  7301 ;; Parameters:    Size  Location     Type
  7302 ;;  divisor         4    0[COMMON] long 
  7303 ;;  dividend        4    4[COMMON] long 
  7304 ;; Auto vars:     Size  Location     Type
  7305 ;;  quotient        4    2[BANK0 ] long 
  7306 ;;  sign            1    1[BANK0 ] unsigned char 
  7307 ;;  counter         1    0[BANK0 ] unsigned char 
  7308 ;; Return value:  Size  Location     Type
  7309 ;;                  4    0[COMMON] long 
  7310 ;; Registers used:
  7311 ;;		wreg, status,2, status,0
  7312 ;; Tracked objects:
  7313 ;;		On entry : 0/0
  7314 ;;		On exit  : 0/0
  7315 ;;		Unchanged: 0/0
  7316 ;; Data sizes:     COMMON   BANK0   BANK1   BANK2   BANK3   BANK4   BANK5   BANK6   BANK7   BANK8   BANK9  BANK10  BANK1
      +1  BANK12  BANK13  BANK14  BANK15  BANK16  BANK17  BANK18  BANK19  BANK20  BANK21  BANK22  BANK23  BANK24  BANK25
  7317 ;;      Params:         8       0       0       0       0       0       0       0       0       0       0       0       
      +0       0       0       0       0       0       0       0       0       0       0       0       0       0       0
  7318 ;;      Locals:         0       6       0       0       0       0       0       0       0       0       0       0       
      +0       0       0       0       0       0       0       0       0       0       0       0       0       0       0
  7319 ;;      Temps:          1       0       0       0       0       0       0       0       0       0       0       0       
      +0       0       0       0       0       0       0       0       0       0       0       0       0       0       0
  7320 ;;      Totals:         9       6       0       0       0       0       0       0       0       0       0       0       
      +0       0       0       0       0       0       0       0       0       0       0       0       0       0       0
  7321 ;;Total ram usage:       15 bytes
  7322 ;; Hardware stack levels used: 1
  7323 ;; This function calls:
  7324 ;;		Nothing
  7325 ;; This function is called by:
  7326 ;;		_OLED_Printf_Line
  7327 ;; This function uses a non-reentrant model
  7328 ;;
  7329                           
  7330     0D65                     ___aldiv:	
  7331                           ;psect for function ___aldiv
  7332                           
  7333     0D65                     l2899:	
  7334                           ;incstack = 0
  7335                           ; Regs used in ___aldiv: [wreg+status,2+status,0]
  7336                           
  7337     0D65  0020               	movlb	0	; select bank0
  7338     0D66  01A1               	clrf	___aldiv@sign
  7339     0D67                     l2901:
  7340     0D67  1FF3               	btfss	___aldiv@divisor+3,7
  7341     0D68  2D6A               	goto	u3161
  7342     0D69  2D6B               	goto	u3160
  7343     0D6A                     u3161:
  7344     0D6A  2D78               	goto	l566
  7345     0D6B                     u3160:
  7346     0D6B                     l2903:
  7347     0D6B  09F0               	comf	___aldiv@divisor,f
  7348     0D6C  09F1               	comf	___aldiv@divisor+1,f
  7349     0D6D  09F2               	comf	___aldiv@divisor+2,f
  7350     0D6E  09F3               	comf	___aldiv@divisor+3,f
  7351     0D6F  0AF0               	incf	___aldiv@divisor,f
  7352     0D70  1903               	skipnz
  7353     0D71  0AF1               	incf	___aldiv@divisor+1,f
  7354     0D72  1903               	skipnz
  7355     0D73  0AF2               	incf	___aldiv@divisor+2,f
  7356     0D74  1903               	skipnz
  7357     0D75  0AF3               	incf	___aldiv@divisor+3,f
  7358     0D76  01A1               	clrf	___aldiv@sign
  7359     0D77  0AA1               	incf	___aldiv@sign,f
  7360     0D78                     l566:
  7361     0D78  1FF7               	btfss	___aldiv@dividend+3,7
  7362     0D79  2D7B               	goto	u3171
  7363     0D7A  2D7C               	goto	u3170
  7364     0D7B                     u3171:
  7365     0D7B  2D8B               	goto	l2909
  7366     0D7C                     u3170:
  7367     0D7C                     l2905:
  7368     0D7C  09F4               	comf	___aldiv@dividend,f
  7369     0D7D  09F5               	comf	___aldiv@dividend+1,f
  7370     0D7E  09F6               	comf	___aldiv@dividend+2,f
  7371     0D7F  09F7               	comf	___aldiv@dividend+3,f
  7372     0D80  0AF4               	incf	___aldiv@dividend,f
  7373     0D81  1903               	skipnz
  7374     0D82  0AF5               	incf	___aldiv@dividend+1,f
  7375     0D83  1903               	skipnz
  7376     0D84  0AF6               	incf	___aldiv@dividend+2,f
  7377     0D85  1903               	skipnz
  7378     0D86  0AF7               	incf	___aldiv@dividend+3,f
  7379     0D87                     l2907:
  7380     0D87  3001               	movlw	1
  7381     0D88  00F8               	movwf	??___aldiv
  7382     0D89  0878               	movf	??___aldiv,w
  7383     0D8A  06A1               	xorwf	___aldiv@sign,f
  7384     0D8B                     l2909:
  7385     0D8B  3000               	movlw	0
  7386     0D8C  00A5               	movwf	___aldiv@quotient+3
  7387     0D8D  3000               	movlw	0
  7388     0D8E  00A4               	movwf	___aldiv@quotient+2
  7389     0D8F  3000               	movlw	0
  7390     0D90  00A3               	movwf	___aldiv@quotient+1
  7391     0D91  3000               	movlw	0
  7392     0D92  00A2               	movwf	___aldiv@quotient
  7393     0D93                     l2911:
  7394     0D93  0873               	movf	___aldiv@divisor+3,w
  7395     0D94  0472               	iorwf	___aldiv@divisor+2,w
  7396     0D95  0471               	iorwf	___aldiv@divisor+1,w
  7397     0D96  0470               	iorwf	___aldiv@divisor,w
  7398     0D97  1903               	skipnz
  7399     0D98  2D9A               	goto	u3181
  7400     0D99  2D9B               	goto	u3180
  7401     0D9A                     u3181:
  7402     0D9A  2DDC               	goto	l2931
  7403     0D9B                     u3180:
  7404     0D9B                     l2913:
  7405     0D9B  01A0               	clrf	___aldiv@counter
  7406     0D9C  0AA0               	incf	___aldiv@counter,f
  7407     0D9D  2DA9               	goto	l2917
  7408     0D9E                     l2915:
  7409     0D9E  3001               	movlw	1
  7410     0D9F                     u3195:
  7411     0D9F  35F0               	lslf	___aldiv@divisor,f
  7412     0DA0  0DF1               	rlf	___aldiv@divisor+1,f
  7413     0DA1  0DF2               	rlf	___aldiv@divisor+2,f
  7414     0DA2  0DF3               	rlf	___aldiv@divisor+3,f
  7415     0DA3  0B89               	decfsz	9,f
  7416     0DA4  2D9F               	goto	u3195
  7417     0DA5  3001               	movlw	1
  7418     0DA6  00F8               	movwf	??___aldiv
  7419     0DA7  0878               	movf	??___aldiv,w
  7420     0DA8  07A0               	addwf	___aldiv@counter,f
  7421     0DA9                     l2917:
  7422     0DA9  1FF3               	btfss	___aldiv@divisor+3,7
  7423     0DAA  2DAC               	goto	u3201
  7424     0DAB  2DAD               	goto	u3200
  7425     0DAC                     u3201:
  7426     0DAC  2D9E               	goto	l2915
  7427     0DAD                     u3200:
  7428     0DAD                     l2919:
  7429     0DAD  3001               	movlw	1
  7430     0DAE                     u3215:
  7431     0DAE  35A2               	lslf	___aldiv@quotient,f
  7432     0DAF  0DA3               	rlf	___aldiv@quotient+1,f
  7433     0DB0  0DA4               	rlf	___aldiv@quotient+2,f
  7434     0DB1  0DA5               	rlf	___aldiv@quotient+3,f
  7435     0DB2  0B89               	decfsz	9,f
  7436     0DB3  2DAE               	goto	u3215
  7437     0DB4                     l2921:
  7438     0DB4  0873               	movf	___aldiv@divisor+3,w
  7439     0DB5  0277               	subwf	___aldiv@dividend+3,w
  7440     0DB6  1D03               	skipz
  7441     0DB7  2DC2               	goto	u3225
  7442     0DB8  0872               	movf	___aldiv@divisor+2,w
  7443     0DB9  0276               	subwf	___aldiv@dividend+2,w
  7444     0DBA  1D03               	skipz
  7445     0DBB  2DC2               	goto	u3225
  7446     0DBC  0871               	movf	___aldiv@divisor+1,w
  7447     0DBD  0275               	subwf	___aldiv@dividend+1,w
  7448     0DBE  1D03               	skipz
  7449     0DBF  2DC2               	goto	u3225
  7450     0DC0  0870               	movf	___aldiv@divisor,w
  7451     0DC1  0274               	subwf	___aldiv@dividend,w
  7452     0DC2                     u3225:
  7453     0DC2  1C03               	skipc
  7454     0DC3  2DC5               	goto	u3221
  7455     0DC4  2DC6               	goto	u3220
  7456     0DC5                     u3221:
  7457     0DC5  2DCF               	goto	l2927
  7458     0DC6                     u3220:
  7459     0DC6                     l2923:
  7460     0DC6  0870               	movf	___aldiv@divisor,w
  7461     0DC7  02F4               	subwf	___aldiv@dividend,f
  7462     0DC8  0871               	movf	___aldiv@divisor+1,w
  7463     0DC9  3BF5               	subwfb	___aldiv@dividend+1,f
  7464     0DCA  0872               	movf	___aldiv@divisor+2,w
  7465     0DCB  3BF6               	subwfb	___aldiv@dividend+2,f
  7466     0DCC  0873               	movf	___aldiv@divisor+3,w
  7467     0DCD  3BF7               	subwfb	___aldiv@dividend+3,f
  7468     0DCE                     l2925:
  7469     0DCE  1422               	bsf	___aldiv@quotient,0
  7470     0DCF                     l2927:
  7471     0DCF  3001               	movlw	1
  7472     0DD0                     u3235:
  7473     0DD0  36F3               	lsrf	___aldiv@divisor+3,f
  7474     0DD1  0CF2               	rrf	___aldiv@divisor+2,f
  7475     0DD2  0CF1               	rrf	___aldiv@divisor+1,f
  7476     0DD3  0CF0               	rrf	___aldiv@divisor,f
  7477     0DD4  0B89               	decfsz	9,f
  7478     0DD5  2DD0               	goto	u3235
  7479     0DD6                     l2929:
  7480     0DD6  3001               	movlw	1
  7481     0DD7  02A0               	subwf	___aldiv@counter,f
  7482     0DD8  1D03               	btfss	3,2
  7483     0DD9  2DDB               	goto	u3241
  7484     0DDA  2DDC               	goto	u3240
  7485     0DDB                     u3241:
  7486     0DDB  2DAD               	goto	l2919
  7487     0DDC                     u3240:
  7488     0DDC                     l2931:
  7489     0DDC  0821               	movf	___aldiv@sign,w
  7490     0DDD  1903               	btfsc	3,2
  7491     0DDE  2DE0               	goto	u3251
  7492     0DDF  2DE1               	goto	u3250
  7493     0DE0                     u3251:
  7494     0DE0  2DEC               	goto	l2935
  7495     0DE1                     u3250:
  7496     0DE1                     l2933:
  7497     0DE1  09A2               	comf	___aldiv@quotient,f
  7498     0DE2  09A3               	comf	___aldiv@quotient+1,f
  7499     0DE3  09A4               	comf	___aldiv@quotient+2,f
  7500     0DE4  09A5               	comf	___aldiv@quotient+3,f
  7501     0DE5  0AA2               	incf	___aldiv@quotient,f
  7502     0DE6  1903               	skipnz
  7503     0DE7  0AA3               	incf	___aldiv@quotient+1,f
  7504     0DE8  1903               	skipnz
  7505     0DE9  0AA4               	incf	___aldiv@quotient+2,f
  7506     0DEA  1903               	skipnz
  7507     0DEB  0AA5               	incf	___aldiv@quotient+3,f
  7508     0DEC                     l2935:
  7509     0DEC  0825               	movf	___aldiv@quotient+3,w
  7510     0DED  00F3               	movwf	?___aldiv+3
  7511     0DEE  0824               	movf	___aldiv@quotient+2,w
  7512     0DEF  00F2               	movwf	?___aldiv+2
  7513     0DF0  0823               	movf	___aldiv@quotient+1,w
  7514     0DF1  00F1               	movwf	?___aldiv+1
  7515     0DF2  0822               	movf	___aldiv@quotient,w
  7516     0DF3  00F0               	movwf	?___aldiv
  7517     0DF4                     l576:
  7518     0DF4  0008               	return
  7519     0DF5                     __end_of___aldiv:
  7520                           
  7521                           	psect	text21
  7522     1402                     __ptext21:	
  7523 ;; *************** function _OLED_UpdateLine *****************
  7524 ;; Defined at:
  7525 ;;		line 370 in file "OLED_SSD1306.c"
  7526 ;; Parameters:    Size  Location     Type
  7527 ;;  page            1    wreg     unsigned char 
  7528 ;; Auto vars:     Size  Location     Type
  7529 ;;  page            1   12[COMMON] unsigned char 
  7530 ;; Return value:  Size  Location     Type
  7531 ;;                  1    wreg      void 
  7532 ;; Registers used:
  7533 ;;		wreg, fsr0l, fsr0h, status,2, status,0, pclath, cstack
  7534 ;; Tracked objects:
  7535 ;;		On entry : 0/0
  7536 ;;		On exit  : 0/0
  7537 ;;		Unchanged: 0/0
  7538 ;; Data sizes:     COMMON   BANK0   BANK1   BANK2   BANK3   BANK4   BANK5   BANK6   BANK7   BANK8   BANK9  BANK10  BANK1
      +1  BANK12  BANK13  BANK14  BANK15  BANK16  BANK17  BANK18  BANK19  BANK20  BANK21  BANK22  BANK23  BANK24  BANK25
  7539 ;;      Params:         0       0       0       0       0       0       0       0       0       0       0       0       
      +0       0       0       0       0       0       0       0       0       0       0       0       0       0       0
  7540 ;;      Locals:         1       0       0       0       0       0       0       0       0       0       0       0       
      +0       0       0       0       0       0       0       0       0       0       0       0       0       0       0
  7541 ;;      Temps:          0       6       0       0       0       0       0       0       0       0       0       0       
      +0       0       0       0       0       0       0       0       0       0       0       0       0       0       0
  7542 ;;      Totals:         1       6       0       0       0       0       0       0       0       0       0       0       
      +0       0       0       0       0       0       0       0       0       0       0       0       0       0       0
  7543 ;;Total ram usage:        7 bytes
  7544 ;; Hardware stack levels used: 1
  7545 ;; Hardware stack levels required when called: 4
  7546 ;; This function calls:
  7547 ;;		_OLED_WriteData
  7548 ;;		_OLED_YX
  7549 ;; This function is called by:
  7550 ;;		_OLED_Printf_Line
  7551 ;; This function uses a non-reentrant model
  7552 ;;
  7553                           
  7554     1402                     _OLED_UpdateLine:	
  7555                           ;psect for function _OLED_UpdateLine
  7556                           
  7557                           
  7558                           ;incstack = 0
  7559                           ; Regs used in _OLED_UpdateLine: [wreg-fsr0h+status,2+status,0+pclath+cstack]
  7560                           ;OLED_UpdateLine@page stored from wreg
  7561     1402  00FC               	movwf	OLED_UpdateLine@page
  7562     1403                     l2815:
  7563                           
  7564                           ;OLED_SSD1306.c: 370: void OLED_UpdateLine(uint8_t page);OLED_SSD1306.c: 371: {;OLED_SSD
      +                          1306.c: 372:     if (page >= (32 / 8)) return;
  7565     1403  3004               	movlw	4
  7566     1404  027C               	subwf	OLED_UpdateLine@page,w
  7567     1405  1C03               	skipc
  7568     1406  2C08               	goto	u3001
  7569     1407  2C09               	goto	u3000
  7570     1408                     u3001:
  7571     1408  2C0A               	goto	l2819
  7572     1409                     u3000:
  7573     1409  2C2D               	goto	l143
  7574     140A                     l2819:
  7575                           
  7576                           ;OLED_SSD1306.c: 374:     OLED_YX(page, 0);
  7577     140A  01F7               	clrf	OLED_YX@col_char
  7578     140B  087C               	movf	OLED_UpdateLine@page,w
  7579     140C  3193  2327  3194   	fcall	_OLED_YX
  7580     140F                     l2821:
  7581                           
  7582                           ;OLED_SSD1306.c: 375:     (void)OLED_WriteData(screen_buffer[page], 128);
  7583     140F  087C               	movf	OLED_UpdateLine@page,w
  7584     1410  0020               	movlb	0	; select bank0
  7585     1411  00A0               	movwf	??_OLED_UpdateLine
  7586     1412  01A1               	clrf	??_OLED_UpdateLine+1
  7587     1413  3007               	movlw	7
  7588     1414                     u3015:
  7589     1414  35A0               	lslf	??_OLED_UpdateLine,f
  7590     1415  0DA1               	rlf	??_OLED_UpdateLine+1,f
  7591     1416  0B89               	decfsz	9,f
  7592     1417  2C14               	goto	u3015
  7593     1418  30F0               	movlw	240
  7594     1419  00A2               	movwf	??_OLED_UpdateLine+2
  7595     141A  3024               	movlw	36
  7596     141B  00A3               	movwf	??_OLED_UpdateLine+3
  7597     141C  0820               	movf	??_OLED_UpdateLine,w
  7598     141D  0722               	addwf	??_OLED_UpdateLine+2,w
  7599     141E  00A4               	movwf	??_OLED_UpdateLine+4
  7600     141F  0821               	movf	??_OLED_UpdateLine+1,w
  7601     1420  3D23               	addwfc	??_OLED_UpdateLine+3,w
  7602     1421  00A5               	movwf	??_OLED_UpdateLine+5
  7603     1422  0824               	movf	??_OLED_UpdateLine+4,w
  7604     1423  00F5               	movwf	OLED_WriteData@data
  7605     1424  0825               	movf	??_OLED_UpdateLine+5,w
  7606     1425  00F6               	movwf	OLED_WriteData@data+1
  7607     1426  3080               	movlw	128
  7608     1427  00F7               	movwf	OLED_WriteData@len
  7609     1428  3000               	movlw	0
  7610     1429  00F8               	movwf	OLED_WriteData@len+1
  7611     142A  3196  2692  3194   	fcall	_OLED_WriteData
  7612     142D                     l143:
  7613     142D  0008               	return
  7614     142E                     __end_of_OLED_UpdateLine:
  7615                           
  7616                           	psect	text22
  7617     15BA                     __ptext22:	
  7618 ;; *************** function _OLED_SetOrientation *****************
  7619 ;; Defined at:
  7620 ;;		line 246 in file "OLED_SSD1306.c"
  7621 ;; Parameters:    Size  Location     Type
  7622 ;;  o               1    wreg     enum E6061
  7623 ;; Auto vars:     Size  Location     Type
  7624 ;;  o               1    9[COMMON] enum E6061
  7625 ;; Return value:  Size  Location     Type
  7626 ;;                  1    wreg      void 
  7627 ;; Registers used:
  7628 ;;		wreg, fsr0l, fsr0h, status,2, status,0, pclath, cstack
  7629 ;; Tracked objects:
  7630 ;;		On entry : 0/0
  7631 ;;		On exit  : 0/0
  7632 ;;		Unchanged: 0/0
  7633 ;; Data sizes:     COMMON   BANK0   BANK1   BANK2   BANK3   BANK4   BANK5   BANK6   BANK7   BANK8   BANK9  BANK10  BANK1
      +1  BANK12  BANK13  BANK14  BANK15  BANK16  BANK17  BANK18  BANK19  BANK20  BANK21  BANK22  BANK23  BANK24  BANK25
  7634 ;;      Params:         0       0       0       0       0       0       0       0       0       0       0       0       
      +0       0       0       0       0       0       0       0       0       0       0       0       0       0       0
  7635 ;;      Locals:         1       0       0       0       0       0       0       0       0       0       0       0       
      +0       0       0       0       0       0       0       0       0       0       0       0       0       0       0
  7636 ;;      Temps:          2       0       0       0       0       0       0       0       0       0       0       0       
      +0       0       0       0       0       0       0       0       0       0       0       0       0       0       0
  7637 ;;      Totals:         3       0       0       0       0       0       0       0       0       0       0       0       
      +0       0       0       0       0       0       0       0       0       0       0       0       0       0       0
  7638 ;;Total ram usage:        3 bytes
  7639 ;; Hardware stack levels used: 1
  7640 ;; Hardware stack levels required when called: 3
  7641 ;; This function calls:
  7642 ;;		_OLED_Command
  7643 ;; This function is called by:
  7644 ;;		_main
  7645 ;; This function uses a non-reentrant model
  7646 ;;
  7647                           
  7648     15BA                     _OLED_SetOrientation:	
  7649                           ;psect for function _OLED_SetOrientation
  7650                           
  7651                           
  7652                           ;incstack = 0
  7653                           ; Regs used in _OLED_SetOrientation: [wreg-fsr0h+status,2+status,0+pclath+cstack]
  7654                           ;OLED_SetOrientation@o stored from wreg
  7655     15BA  00F9               	movwf	OLED_SetOrientation@o
  7656     15BB                     l3881:
  7657                           
  7658                           ;OLED_SSD1306.c: 246: void OLED_SetOrientation(oled_orient_t o);OLED_SSD1306.c: 247: {;O
      +                          LED_SSD1306.c: 248:     (void)OLED_Command(0x2E);
  7659     15BB  302E               	movlw	46
  7660     15BC  3194  2489  3195   	fcall	_OLED_Command
  7661                           
  7662                           ;OLED_SSD1306.c: 250:     switch (o)
  7663     15BF  2DE4               	goto	l3893
  7664     15C0                     l3883:
  7665                           
  7666                           ;OLED_SSD1306.c: 254:             (void)OLED_Command(0xA0 | 0x01);
  7667     15C0  30A1               	movlw	161
  7668     15C1  3194  2489  3195   	fcall	_OLED_Command
  7669                           
  7670                           ;OLED_SSD1306.c: 255:             (void)OLED_Command(0xC8);
  7671     15C4  30C8               	movlw	200
  7672     15C5  3194  2489  3195   	fcall	_OLED_Command
  7673                           
  7674                           ;OLED_SSD1306.c: 256:             break;
  7675     15C8  2DFA               	goto	l128
  7676     15C9                     l3885:
  7677                           
  7678                           ;OLED_SSD1306.c: 259:             (void)OLED_Command(0xA0 | 0x00);
  7679     15C9  30A0               	movlw	160
  7680     15CA  3194  2489  3195   	fcall	_OLED_Command
  7681                           
  7682                           ;OLED_SSD1306.c: 260:             (void)OLED_Command(0xC0);
  7683     15CD  30C0               	movlw	192
  7684     15CE  3194  2489  3195   	fcall	_OLED_Command
  7685                           
  7686                           ;OLED_SSD1306.c: 261:             break;
  7687     15D1  2DFA               	goto	l128
  7688     15D2                     l3887:
  7689                           
  7690                           ;OLED_SSD1306.c: 264:             (void)OLED_Command(0xA0 | 0x00);
  7691     15D2  30A0               	movlw	160
  7692     15D3  3194  2489  3195   	fcall	_OLED_Command
  7693                           
  7694                           ;OLED_SSD1306.c: 265:             (void)OLED_Command(0xC8);
  7695     15D6  30C8               	movlw	200
  7696     15D7  3194  2489  3195   	fcall	_OLED_Command
  7697                           
  7698                           ;OLED_SSD1306.c: 266:             break;
  7699     15DA  2DFA               	goto	l128
  7700     15DB                     l3889:
  7701                           
  7702                           ;OLED_SSD1306.c: 269:             (void)OLED_Command(0xA0 | 0x01);
  7703     15DB  30A1               	movlw	161
  7704     15DC  3194  2489  3195   	fcall	_OLED_Command
  7705                           
  7706                           ;OLED_SSD1306.c: 270:             (void)OLED_Command(0xC0);
  7707     15DF  30C0               	movlw	192
  7708     15E0  3194  2489  3195   	fcall	_OLED_Command
  7709                           
  7710                           ;OLED_SSD1306.c: 271:             break;
  7711     15E3  2DFA               	goto	l128
  7712     15E4                     l3893:
  7713     15E4  0879               	movf	OLED_SetOrientation@o,w
  7714     15E5  00F7               	movwf	??_OLED_SetOrientation
  7715     15E6  01F8               	clrf	??_OLED_SetOrientation+1
  7716                           
  7717                           ; Switch on 2 bytes has been partitioned into a top level switch of size 1, and 1 sub-sw
      +                          itches
  7718                           ; Switch size 1, requested type "simple"
  7719                           ; Number of cases is 1, Range of values is 0 to 0
  7720                           ; switch strategies available:
  7721                           ; Name         Instructions Cycles
  7722                           ; simple_byte            4     3 (average)
  7723                           ; direct_byte            8     6 (fixed)
  7724                           ; jumptable            260     6 (fixed)
  7725                           ;	Chosen strategy is simple_byte
  7726     15E7  0878               	movf	??_OLED_SetOrientation+1,w
  7727     15E8  3A00               	xorlw	0	; case 0
  7728     15E9  1903               	skipnz
  7729     15EA  2DEC               	goto	l4245
  7730     15EB  2DC0               	goto	l3883
  7731     15EC                     l4245:
  7732                           
  7733                           ; Switch size 1, requested type "simple"
  7734                           ; Number of cases is 4, Range of values is 0 to 3
  7735                           ; switch strategies available:
  7736                           ; Name         Instructions Cycles
  7737                           ; simple_byte           13     7 (average)
  7738                           ; direct_byte           14     6 (fixed)
  7739                           ; jumptable            260     6 (fixed)
  7740                           ;	Chosen strategy is simple_byte
  7741     15EC  0877               	movf	??_OLED_SetOrientation,w
  7742     15ED  3A00               	xorlw	0	; case 0
  7743     15EE  1903               	skipnz
  7744     15EF  2DC0               	goto	l3883
  7745     15F0  3A01               	xorlw	1	; case 1
  7746     15F1  1903               	skipnz
  7747     15F2  2DC9               	goto	l3885
  7748     15F3  3A03               	xorlw	3	; case 2
  7749     15F4  1903               	skipnz
  7750     15F5  2DD2               	goto	l3887
  7751     15F6  3A01               	xorlw	1	; case 3
  7752     15F7  1903               	skipnz
  7753     15F8  2DDB               	goto	l3889
  7754     15F9  2DC0               	goto	l3883
  7755     15FA                     l128:
  7756     15FA  0008               	return
  7757     15FB                     __end_of_OLED_SetOrientation:
  7758                           
  7759                           	psect	text23
  7760     0B71                     __ptext23:	
  7761 ;; *************** function _OLED_Init *****************
  7762 ;; Defined at:
  7763 ;;		line 298 in file "OLED_SSD1306.c"
  7764 ;; Parameters:    Size  Location     Type
  7765 ;;		None
  7766 ;; Auto vars:     Size  Location     Type
  7767 ;;		None
  7768 ;; Return value:  Size  Location     Type
  7769 ;;                  1    wreg      void 
  7770 ;; Registers used:
  7771 ;;		wreg, fsr0l, fsr0h, fsr1l, fsr1h, status,2, status,0, pclath, cstack
  7772 ;; Tracked objects:
  7773 ;;		On entry : 0/0
  7774 ;;		On exit  : 0/0
  7775 ;;		Unchanged: 0/0
  7776 ;; Data sizes:     COMMON   BANK0   BANK1   BANK2   BANK3   BANK4   BANK5   BANK6   BANK7   BANK8   BANK9  BANK10  BANK1
      +1  BANK12  BANK13  BANK14  BANK15  BANK16  BANK17  BANK18  BANK19  BANK20  BANK21  BANK22  BANK23  BANK24  BANK25
  7777 ;;      Params:         0       0       0       0       0       0       0       0       0       0       0       0       
      +0       0       0       0       0       0       0       0       0       0       0       0       0       0       0
  7778 ;;      Locals:         0       0       0       0       0       0       0       0       0       0       0       0       
      +0       0       0       0       0       0       0       0       0       0       0       0       0       0       0
  7779 ;;      Temps:          1       0       0       0       0       0       0       0       0       0       0       0       
      +0       0       0       0       0       0       0       0       0       0       0       0       0       0       0
  7780 ;;      Totals:         1       0       0       0       0       0       0       0       0       0       0       0       
      +0       0       0       0       0       0       0       0       0       0       0       0       0       0       0
  7781 ;;Total ram usage:        1 bytes
  7782 ;; Hardware stack levels used: 1
  7783 ;; Hardware stack levels required when called: 5
  7784 ;; This function calls:
  7785 ;;		_OLED_Clear
  7786 ;;		_OLED_Command
  7787 ;; This function is called by:
  7788 ;;		_main
  7789 ;; This function uses a non-reentrant model
  7790 ;;
  7791                           
  7792     0B71                     _OLED_Init:	
  7793                           ;psect for function _OLED_Init
  7794                           
  7795     0B71                     l3899:	
  7796                           ;incstack = 0
  7797                           ; Regs used in _OLED_Init: [wreg-fsr1h+status,2+status,0+pclath+cstack]
  7798                           
  7799                           
  7800                           ;OLED_SSD1306.c: 300:     _delay((unsigned long)((10)*(32000000/4000.0)));
  7801     0B71  3068               	movlw	104
  7802     0B72  00FD               	movwf	??_OLED_Init
  7803     0B73  30E4               	movlw	228
  7804     0B74                     u5487:
  7805     0B74  0B89               	decfsz	9,f
  7806     0B75  2B74               	goto	u5487
  7807     0B76  0BFD               	decfsz	??_OLED_Init,f
  7808     0B77  2B74               	goto	u5487
  7809     0B78  3200               	nop2
  7810     0B79                     l3901:
  7811                           
  7812                           ;OLED_SSD1306.c: 302:     (void)OLED_Command(0xAE);
  7813     0B79  30AE               	movlw	174
  7814     0B7A  3194  2489  318B   	fcall	_OLED_Command
  7815     0B7D                     l3903:
  7816                           
  7817                           ;OLED_SSD1306.c: 303:     (void)OLED_Command(0x2E);
  7818     0B7D  302E               	movlw	46
  7819     0B7E  3194  2489  318B   	fcall	_OLED_Command
  7820     0B81                     l3905:
  7821                           
  7822                           ;OLED_SSD1306.c: 305:     (void)OLED_Command(0xD5);
  7823     0B81  30D5               	movlw	213
  7824     0B82  3194  2489  318B   	fcall	_OLED_Command
  7825     0B85                     l3907:
  7826                           
  7827                           ;OLED_SSD1306.c: 306:     (void)OLED_Command(0x80);
  7828     0B85  3080               	movlw	128
  7829     0B86  3194  2489  318B   	fcall	_OLED_Command
  7830     0B89                     l3909:
  7831                           
  7832                           ;OLED_SSD1306.c: 308:     (void)OLED_Command(0xA8);
  7833     0B89  30A8               	movlw	168
  7834     0B8A  3194  2489  318B   	fcall	_OLED_Command
  7835     0B8D                     l3911:
  7836                           
  7837                           ;OLED_SSD1306.c: 312:     (void)OLED_Command(0x1F);
  7838     0B8D  301F               	movlw	31
  7839     0B8E  3194  2489  318B   	fcall	_OLED_Command
  7840     0B91                     l3913:
  7841                           
  7842                           ;OLED_SSD1306.c: 315:     (void)OLED_Command(0xD3);
  7843     0B91  30D3               	movlw	211
  7844     0B92  3194  2489  318B   	fcall	_OLED_Command
  7845     0B95                     l3915:
  7846                           
  7847                           ;OLED_SSD1306.c: 316:     (void)OLED_Command(0x00);
  7848     0B95  3000               	movlw	0
  7849     0B96  3194  2489  318B   	fcall	_OLED_Command
  7850     0B99                     l3917:
  7851                           
  7852                           ;OLED_SSD1306.c: 318:     (void)OLED_Command(0x40 | 0x00);
  7853     0B99  3040               	movlw	64
  7854     0B9A  3194  2489  318B   	fcall	_OLED_Command
  7855     0B9D                     l3919:
  7856                           
  7857                           ;OLED_SSD1306.c: 320:     (void)OLED_Command(0x8D);
  7858     0B9D  308D               	movlw	141
  7859     0B9E  3194  2489  318B   	fcall	_OLED_Command
  7860     0BA1                     l3921:
  7861                           
  7862                           ;OLED_SSD1306.c: 321:     (void)OLED_Command(0x14);
  7863     0BA1  3014               	movlw	20
  7864     0BA2  3194  2489  318B   	fcall	_OLED_Command
  7865     0BA5                     l3923:
  7866                           
  7867                           ;OLED_SSD1306.c: 323:     (void)OLED_Command(0x20);
  7868     0BA5  3020               	movlw	32
  7869     0BA6  3194  2489  318B   	fcall	_OLED_Command
  7870     0BA9                     l3925:
  7871                           
  7872                           ;OLED_SSD1306.c: 324:     (void)OLED_Command(0x02);
  7873     0BA9  3002               	movlw	2
  7874     0BAA  3194  2489  318B   	fcall	_OLED_Command
  7875     0BAD                     l3927:
  7876                           
  7877                           ;OLED_SSD1306.c: 326:     (void)OLED_Command(0xA0 | 0x01);
  7878     0BAD  30A1               	movlw	161
  7879     0BAE  3194  2489  318B   	fcall	_OLED_Command
  7880     0BB1                     l3929:
  7881                           
  7882                           ;OLED_SSD1306.c: 327:     (void)OLED_Command(0xC8);
  7883     0BB1  30C8               	movlw	200
  7884     0BB2  3194  2489  318B   	fcall	_OLED_Command
  7885     0BB5                     l3931:
  7886                           
  7887                           ;OLED_SSD1306.c: 329:     (void)OLED_Command(0xDA);
  7888     0BB5  30DA               	movlw	218
  7889     0BB6  3194  2489  318B   	fcall	_OLED_Command
  7890     0BB9                     l3933:
  7891                           
  7892                           ;OLED_SSD1306.c: 333:     (void)OLED_Command(0x02);
  7893     0BB9  3002               	movlw	2
  7894     0BBA  3194  2489  318B   	fcall	_OLED_Command
  7895     0BBD                     l3935:
  7896                           
  7897                           ;OLED_SSD1306.c: 336:     (void)OLED_Command(0x81);
  7898     0BBD  3081               	movlw	129
  7899     0BBE  3194  2489  318B   	fcall	_OLED_Command
  7900     0BC1                     l3937:
  7901                           
  7902                           ;OLED_SSD1306.c: 337:     (void)OLED_Command(0x8F);
  7903     0BC1  308F               	movlw	143
  7904     0BC2  3194  2489  318B   	fcall	_OLED_Command
  7905     0BC5                     l3939:
  7906                           
  7907                           ;OLED_SSD1306.c: 339:     (void)OLED_Command(0xD9);
  7908     0BC5  30D9               	movlw	217
  7909     0BC6  3194  2489  318B   	fcall	_OLED_Command
  7910     0BC9                     l3941:
  7911                           
  7912                           ;OLED_SSD1306.c: 340:     (void)OLED_Command(0xF1);
  7913     0BC9  30F1               	movlw	241
  7914     0BCA  3194  2489  318B   	fcall	_OLED_Command
  7915     0BCD                     l3943:
  7916                           
  7917                           ;OLED_SSD1306.c: 342:     (void)OLED_Command(0xDB);
  7918     0BCD  30DB               	movlw	219
  7919     0BCE  3194  2489  318B   	fcall	_OLED_Command
  7920     0BD1                     l3945:
  7921                           
  7922                           ;OLED_SSD1306.c: 343:     (void)OLED_Command(0x40);
  7923     0BD1  3040               	movlw	64
  7924     0BD2  3194  2489  318B   	fcall	_OLED_Command
  7925     0BD5                     l3947:
  7926                           
  7927                           ;OLED_SSD1306.c: 345:     (void)OLED_Command(0xA4);
  7928     0BD5  30A4               	movlw	164
  7929     0BD6  3194  2489  318B   	fcall	_OLED_Command
  7930     0BD9                     l3949:
  7931                           
  7932                           ;OLED_SSD1306.c: 346:     (void)OLED_Command(0xA6);
  7933     0BD9  30A6               	movlw	166
  7934     0BDA  3194  2489  318B   	fcall	_OLED_Command
  7935     0BDD                     l3951:
  7936                           
  7937                           ;OLED_SSD1306.c: 347:     (void)OLED_Command(0xAF);
  7938     0BDD  30AF               	movlw	175
  7939     0BDE  3194  2489  318B   	fcall	_OLED_Command
  7940     0BE1                     l3953:
  7941                           
  7942                           ;OLED_SSD1306.c: 350:     OLED_Clear();
  7943     0BE1  3196  2645  318B   	fcall	_OLED_Clear
  7944     0BE4                     l134:
  7945     0BE4  0008               	return
  7946     0BE5                     __end_of_OLED_Init:
  7947                           
  7948                           	psect	text24
  7949     1645                     __ptext24:	
  7950 ;; *************** function _OLED_Clear *****************
  7951 ;; Defined at:
  7952 ;;		line 356 in file "OLED_SSD1306.c"
  7953 ;; Parameters:    Size  Location     Type
  7954 ;;		None
  7955 ;; Auto vars:     Size  Location     Type
  7956 ;;  p               1   12[COMMON] unsigned char 
  7957 ;; Return value:  Size  Location     Type
  7958 ;;                  1    wreg      void 
  7959 ;; Registers used:
  7960 ;;		wreg, fsr0l, fsr0h, fsr1l, fsr1h, status,2, status,0, pclath, cstack
  7961 ;; Tracked objects:
  7962 ;;		On entry : 0/0
  7963 ;;		On exit  : 0/0
  7964 ;;		Unchanged: 0/0
  7965 ;; Data sizes:     COMMON   BANK0   BANK1   BANK2   BANK3   BANK4   BANK5   BANK6   BANK7   BANK8   BANK9  BANK10  BANK1
      +1  BANK12  BANK13  BANK14  BANK15  BANK16  BANK17  BANK18  BANK19  BANK20  BANK21  BANK22  BANK23  BANK24  BANK25
  7966 ;;      Params:         0       0       0       0       0       0       0       0       0       0       0       0       
      +0       0       0       0       0       0       0       0       0       0       0       0       0       0       0
  7967 ;;      Locals:         1       0       0       0       0       0       0       0       0       0       0       0       
      +0       0       0       0       0       0       0       0       0       0       0       0       0       0       0
  7968 ;;      Temps:          0       6       0       0       0       0       0       0       0       0       0       0       
      +0       0       0       0       0       0       0       0       0       0       0       0       0       0       0
  7969 ;;      Totals:         1       6       0       0       0       0       0       0       0       0       0       0       
      +0       0       0       0       0       0       0       0       0       0       0       0       0       0       0
  7970 ;;Total ram usage:        7 bytes
  7971 ;; Hardware stack levels used: 1
  7972 ;; Hardware stack levels required when called: 4
  7973 ;; This function calls:
  7974 ;;		_OLED_WriteData
  7975 ;;		_OLED_YX
  7976 ;;		_memset
  7977 ;; This function is called by:
  7978 ;;		_OLED_Init
  7979 ;;		_main
  7980 ;; This function uses a non-reentrant model
  7981 ;;
  7982                           
  7983     1645                     _OLED_Clear:	
  7984                           ;psect for function _OLED_Clear
  7985                           
  7986     1645                     l3501:	
  7987                           ;incstack = 0
  7988                           ; Regs used in _OLED_Clear: [wreg-fsr1h+status,2+status,0+pclath+cstack]
  7989                           
  7990                           
  7991                           ;OLED_SSD1306.c: 358:     for (uint8_t p = 0; p < (32 / 8); p++)
  7992     1645  01FC               	clrf	OLED_Clear@p
  7993     1646                     l3507:
  7994                           
  7995                           ;OLED_SSD1306.c: 359:     {;OLED_SSD1306.c: 360:         memset(screen_buffer[p], 0, 128
      +                          );
  7996     1646  087C               	movf	OLED_Clear@p,w
  7997     1647  0020               	movlb	0	; select bank0
  7998     1648  00A0               	movwf	??_OLED_Clear
  7999     1649  01A1               	clrf	??_OLED_Clear+1
  8000     164A  3007               	movlw	7
  8001     164B                     u4565:
  8002     164B  35A0               	lslf	??_OLED_Clear,f
  8003     164C  0DA1               	rlf	??_OLED_Clear+1,f
  8004     164D  0B89               	decfsz	9,f
  8005     164E  2E4B               	goto	u4565
  8006     164F  30F0               	movlw	240
  8007     1650  00A2               	movwf	??_OLED_Clear+2
  8008     1651  3024               	movlw	36
  8009     1652  00A3               	movwf	??_OLED_Clear+3
  8010     1653  0820               	movf	??_OLED_Clear,w
  8011     1654  0722               	addwf	??_OLED_Clear+2,w
  8012     1655  00F0               	movwf	memset@dest
  8013     1656  0821               	movf	??_OLED_Clear+1,w
  8014     1657  3D23               	addwfc	??_OLED_Clear+3,w
  8015     1658  00F1               	movwf	memset@dest+1
  8016     1659  3000               	movlw	0
  8017     165A  00F2               	movwf	memset@c
  8018     165B  00F3               	movwf	memset@c+1
  8019     165C  3080               	movlw	128
  8020     165D  00F4               	movwf	memset@n
  8021     165E  3000               	movlw	0
  8022     165F  00F5               	movwf	memset@n+1
  8023     1660  3192  2293  3196   	fcall	_memset
  8024     1663                     l3509:
  8025                           
  8026                           ;OLED_SSD1306.c: 362:         OLED_YX(p, 0);
  8027     1663  01F7               	clrf	OLED_YX@col_char
  8028     1664  087C               	movf	OLED_Clear@p,w
  8029     1665  3193  2327  3196   	fcall	_OLED_YX
  8030     1668                     l3511:
  8031                           
  8032                           ;OLED_SSD1306.c: 363:         (void)OLED_WriteData(screen_buffer[p], 128);
  8033     1668  087C               	movf	OLED_Clear@p,w
  8034     1669  0020               	movlb	0	; select bank0
  8035     166A  00A0               	movwf	??_OLED_Clear
  8036     166B  01A1               	clrf	??_OLED_Clear+1
  8037     166C  3007               	movlw	7
  8038     166D                     u4575:
  8039     166D  35A0               	lslf	??_OLED_Clear,f
  8040     166E  0DA1               	rlf	??_OLED_Clear+1,f
  8041     166F  0B89               	decfsz	9,f
  8042     1670  2E6D               	goto	u4575
  8043     1671  30F0               	movlw	240
  8044     1672  00A2               	movwf	??_OLED_Clear+2
  8045     1673  3024               	movlw	36
  8046     1674  00A3               	movwf	??_OLED_Clear+3
  8047     1675  0820               	movf	??_OLED_Clear,w
  8048     1676  0722               	addwf	??_OLED_Clear+2,w
  8049     1677  00A4               	movwf	??_OLED_Clear+4
  8050     1678  0821               	movf	??_OLED_Clear+1,w
  8051     1679  3D23               	addwfc	??_OLED_Clear+3,w
  8052     167A  00A5               	movwf	??_OLED_Clear+5
  8053     167B  0824               	movf	??_OLED_Clear+4,w
  8054     167C  00F5               	movwf	OLED_WriteData@data
  8055     167D  0825               	movf	??_OLED_Clear+5,w
  8056     167E  00F6               	movwf	OLED_WriteData@data+1
  8057     167F  3080               	movlw	128
  8058     1680  00F7               	movwf	OLED_WriteData@len
  8059     1681  3000               	movlw	0
  8060     1682  00F8               	movwf	OLED_WriteData@len+1
  8061     1683  3196  2692  3196   	fcall	_OLED_WriteData
  8062     1686                     l3513:
  8063                           
  8064                           ;OLED_SSD1306.c: 364:     }
  8065     1686  3001               	movlw	1
  8066     1687  0020               	movlb	0	; select bank0
  8067     1688  00A0               	movwf	??_OLED_Clear
  8068     1689  0820               	movf	??_OLED_Clear,w
  8069     168A  07FC               	addwf	OLED_Clear@p,f
  8070     168B                     l3515:
  8071     168B  3004               	movlw	4
  8072     168C  027C               	subwf	OLED_Clear@p,w
  8073     168D  1C03               	skipc
  8074     168E  2E90               	goto	u4581
  8075     168F  2E91               	goto	u4580
  8076     1690                     u4581:
  8077     1690  2E46               	goto	l3507
  8078     1691                     u4580:
  8079     1691                     l139:
  8080     1691  0008               	return
  8081     1692                     __end_of_OLED_Clear:
  8082                           
  8083                           	psect	text25
  8084     1293                     __ptext25:	
  8085 ;; *************** function _memset *****************
  8086 ;; Defined at:
  8087 ;;		line 3 in file "C:\Program Files\Microchip\xc8\v2.46\pic\sources\c99\common\memset.c"
  8088 ;; Parameters:    Size  Location     Type
  8089 ;;  dest            2    0[COMMON] PTR void 
  8090 ;;		 -> screen_buffer(512), 
  8091 ;;  c               2    2[COMMON] int 
  8092 ;;  n               2    4[COMMON] unsigned int 
  8093 ;; Auto vars:     Size  Location     Type
  8094 ;;  p               2    6[COMMON] PTR unsigned char 
  8095 ;;		 -> screen_buffer(512), 
  8096 ;; Return value:  Size  Location     Type
  8097 ;;                  2    0[COMMON] PTR void 
  8098 ;; Registers used:
  8099 ;;		wreg, fsr1l, fsr1h, status,2, status,0
  8100 ;; Tracked objects:
  8101 ;;		On entry : 0/0
  8102 ;;		On exit  : 0/0
  8103 ;;		Unchanged: 0/0
  8104 ;; Data sizes:     COMMON   BANK0   BANK1   BANK2   BANK3   BANK4   BANK5   BANK6   BANK7   BANK8   BANK9  BANK10  BANK1
      +1  BANK12  BANK13  BANK14  BANK15  BANK16  BANK17  BANK18  BANK19  BANK20  BANK21  BANK22  BANK23  BANK24  BANK25
  8105 ;;      Params:         6       0       0       0       0       0       0       0       0       0       0       0       
      +0       0       0       0       0       0       0       0       0       0       0       0       0       0       0
  8106 ;;      Locals:         2       0       0       0       0       0       0       0       0       0       0       0       
      +0       0       0       0       0       0       0       0       0       0       0       0       0       0       0
  8107 ;;      Temps:          0       0       0       0       0       0       0       0       0       0       0       0       
      +0       0       0       0       0       0       0       0       0       0       0       0       0       0       0
  8108 ;;      Totals:         8       0       0       0       0       0       0       0       0       0       0       0       
      +0       0       0       0       0       0       0       0       0       0       0       0       0       0       0
  8109 ;;Total ram usage:        8 bytes
  8110 ;; Hardware stack levels used: 1
  8111 ;; This function calls:
  8112 ;;		Nothing
  8113 ;; This function is called by:
  8114 ;;		_OLED_Clear
  8115 ;;		_OLED_Printf_Line
  8116 ;; This function uses a non-reentrant model
  8117 ;;
  8118                           
  8119     1293                     _memset:	
  8120                           ;psect for function _memset
  8121                           
  8122     1293                     l2807:	
  8123                           ;incstack = 0
  8124                           ; Regs used in _memset: [wreg+fsr1l+fsr1h+status,2+status,0]
  8125                           
  8126     1293  0871               	movf	memset@dest+1,w
  8127     1294  00F7               	movwf	memset@p+1
  8128     1295  0870               	movf	memset@dest,w
  8129     1296  00F6               	movwf	memset@p
  8130     1297  2AA2               	goto	l2813
  8131     1298                     l2809:
  8132     1298  0876               	movf	memset@p,w
  8133     1299  0086               	movwf	6
  8134     129A  0877               	movf	memset@p+1,w
  8135     129B  0087               	movwf	7
  8136     129C  0872               	movf	memset@c,w
  8137     129D  0081               	movwf	1
  8138     129E                     l2811:
  8139     129E  3001               	movlw	1
  8140     129F  07F6               	addwf	memset@p,f
  8141     12A0  3000               	movlw	0
  8142     12A1  3DF7               	addwfc	memset@p+1,f
  8143     12A2                     l2813:
  8144     12A2  3001               	movlw	1
  8145     12A3  02F4               	subwf	memset@n,f
  8146     12A4  3000               	movlw	0
  8147     12A5  3BF5               	subwfb	memset@n+1,f
  8148     12A6  0A74               	incf	memset@n,w
  8149     12A7  1D03               	skipz
  8150     12A8  2AAD               	goto	u2991
  8151     12A9  0A75               	incf	memset@n+1,w
  8152     12AA  1D03               	btfss	3,2
  8153     12AB  2AAD               	goto	u2991
  8154     12AC  2AAE               	goto	u2990
  8155     12AD                     u2991:
  8156     12AD  2A98               	goto	l2809
  8157     12AE                     u2990:
  8158     12AE                     l969:
  8159     12AE  0008               	return
  8160     12AF                     __end_of_memset:
  8161                           
  8162                           	psect	text26
  8163     1327                     __ptext26:	
  8164 ;; *************** function _OLED_YX *****************
  8165 ;; Defined at:
  8166 ;;		line 283 in file "OLED_SSD1306.c"
  8167 ;; Parameters:    Size  Location     Type
  8168 ;;  page            1    wreg     unsigned char 
  8169 ;;  col_char        1    7[COMMON] unsigned char 
  8170 ;; Auto vars:     Size  Location     Type
  8171 ;;  page            1    9[COMMON] unsigned char 
  8172 ;;  col             1   10[COMMON] unsigned char 
  8173 ;; Return value:  Size  Location     Type
  8174 ;;                  1    wreg      void 
  8175 ;; Registers used:
  8176 ;;		wreg, status,2, status,0, pclath, cstack
  8177 ;; Tracked objects:
  8178 ;;		On entry : 0/0
  8179 ;;		On exit  : 0/0
  8180 ;;		Unchanged: 0/0
  8181 ;; Data sizes:     COMMON   BANK0   BANK1   BANK2   BANK3   BANK4   BANK5   BANK6   BANK7   BANK8   BANK9  BANK10  BANK1
      +1  BANK12  BANK13  BANK14  BANK15  BANK16  BANK17  BANK18  BANK19  BANK20  BANK21  BANK22  BANK23  BANK24  BANK25
  8182 ;;      Params:         1       0       0       0       0       0       0       0       0       0       0       0       
      +0       0       0       0       0       0       0       0       0       0       0       0       0       0       0
  8183 ;;      Locals:         2       0       0       0       0       0       0       0       0       0       0       0       
      +0       0       0       0       0       0       0       0       0       0       0       0       0       0       0
  8184 ;;      Temps:          1       0       0       0       0       0       0       0       0       0       0       0       
      +0       0       0       0       0       0       0       0       0       0       0       0       0       0       0
  8185 ;;      Totals:         4       0       0       0       0       0       0       0       0       0       0       0       
      +0       0       0       0       0       0       0       0       0       0       0       0       0       0       0
  8186 ;;Total ram usage:        4 bytes
  8187 ;; Hardware stack levels used: 1
  8188 ;; Hardware stack levels required when called: 3
  8189 ;; This function calls:
  8190 ;;		_OLED_Command
  8191 ;; This function is called by:
  8192 ;;		_OLED_Clear
  8193 ;;		_OLED_UpdateLine
  8194 ;;		_OLED_WriteString
  8195 ;; This function uses a non-reentrant model
  8196 ;;
  8197                           
  8198     1327                     _OLED_YX:	
  8199                           ;psect for function _OLED_YX
  8200                           
  8201                           
  8202                           ;incstack = 0
  8203                           ; Regs used in _OLED_YX: [wreg+status,2+status,0+pclath+cstack]
  8204                           ;OLED_YX@page stored from wreg
  8205     1327  00F9               	movwf	OLED_YX@page
  8206     1328                     l2785:
  8207                           
  8208                           ;OLED_SSD1306.c: 283: void OLED_YX(uint8_t page, uint8_t col_char);OLED_SSD1306.c: 284: 
      +                          {;OLED_SSD1306.c: 285:     uint8_t col = (uint8_t)(col_char * 8);
  8209     1328  0877               	movf	OLED_YX@col_char,w
  8210     1329  00F8               	movwf	??_OLED_YX
  8211     132A  3002               	movlw	2
  8212     132B                     u2945:
  8213     132B  35F8               	lslf	??_OLED_YX,f
  8214     132C  3EFF               	addlw	-1
  8215     132D  1D03               	skipz
  8216     132E  2B2B               	goto	u2945
  8217     132F  3578               	lslf	??_OLED_YX,w
  8218     1330  00FA               	movwf	OLED_YX@col
  8219     1331                     l2787:
  8220                           
  8221                           ;OLED_SSD1306.c: 287:     (void)OLED_Command(0xB0 | (page & 0x07));
  8222     1331  0879               	movf	OLED_YX@page,w
  8223     1332  3907               	andlw	7
  8224     1333  38B0               	iorlw	176
  8225     1334  3194  2489  3193   	fcall	_OLED_Command
  8226     1337                     l2789:
  8227                           
  8228                           ;OLED_SSD1306.c: 288:     (void)OLED_Command(0x00 | (col & 0x0F));
  8229     1337  087A               	movf	OLED_YX@col,w
  8230     1338  390F               	andlw	15
  8231     1339  3194  2489  3193   	fcall	_OLED_Command
  8232     133C                     l2791:
  8233                           
  8234                           ;OLED_SSD1306.c: 289:     (void)OLED_Command(0x10 | ((col >> 4) & 0x0F));
  8235     133C  087A               	movf	OLED_YX@col,w
  8236     133D  00F8               	movwf	??_OLED_YX
  8237     133E  3004               	movlw	4
  8238     133F                     u2955:
  8239     133F  36F8               	lsrf	??_OLED_YX,f
  8240     1340  0B89               	decfsz	9,f
  8241     1341  2B3F               	goto	u2955
  8242     1342  0878               	movf	??_OLED_YX,w
  8243     1343  390F               	andlw	15
  8244     1344  3810               	iorlw	16
  8245     1345  3194  2489  3193   	fcall	_OLED_Command
  8246     1348                     l131:
  8247     1348  0008               	return
  8248     1349                     __end_of_OLED_YX:
  8249                           
  8250                           	psect	text27
  8251     1489                     __ptext27:	
  8252 ;; *************** function _OLED_Command *****************
  8253 ;; Defined at:
  8254 ;;		line 190 in file "OLED_SSD1306.c"
  8255 ;; Parameters:    Size  Location     Type
  8256 ;;  cmd             1    wreg     unsigned char 
  8257 ;; Auto vars:     Size  Location     Type
  8258 ;;  cmd             1    5[COMMON] unsigned char 
  8259 ;;  st              1    6[COMMON] enum E6043
  8260 ;; Return value:  Size  Location     Type
  8261 ;;                  1    wreg      enum E6043
  8262 ;; Registers used:
  8263 ;;		wreg, status,2, status,0, pclath, cstack
  8264 ;; Tracked objects:
  8265 ;;		On entry : 0/0
  8266 ;;		On exit  : 0/0
  8267 ;;		Unchanged: 0/0
  8268 ;; Data sizes:     COMMON   BANK0   BANK1   BANK2   BANK3   BANK4   BANK5   BANK6   BANK7   BANK8   BANK9  BANK10  BANK1
      +1  BANK12  BANK13  BANK14  BANK15  BANK16  BANK17  BANK18  BANK19  BANK20  BANK21  BANK22  BANK23  BANK24  BANK25
  8269 ;;      Params:         0       0       0       0       0       0       0       0       0       0       0       0       
      +0       0       0       0       0       0       0       0       0       0       0       0       0       0       0
  8270 ;;      Locals:         2       0       0       0       0       0       0       0       0       0       0       0       
      +0       0       0       0       0       0       0       0       0       0       0       0       0       0       0
  8271 ;;      Temps:          0       0       0       0       0       0       0       0       0       0       0       0       
      +0       0       0       0       0       0       0       0       0       0       0       0       0       0       0
  8272 ;;      Totals:         2       0       0       0       0       0       0       0       0       0       0       0       
      +0       0       0       0       0       0       0       0       0       0       0       0       0       0       0
  8273 ;;Total ram usage:        2 bytes
  8274 ;; Hardware stack levels used: 1
  8275 ;; Hardware stack levels required when called: 2
  8276 ;; This function calls:
  8277 ;;		_I2C_Start
  8278 ;;		_I2C_Stop
  8279 ;;		_I2C_WriteByte
  8280 ;;		_SSD1306_CtrlW
  8281 ;; This function is called by:
  8282 ;;		_OLED_SetOrientation
  8283 ;;		_OLED_YX
  8284 ;;		_OLED_Init
  8285 ;;		_OLED_UpdatePartialLine
  8286 ;; This function uses a non-reentrant model
  8287 ;;
  8288                           
  8289     1489                     _OLED_Command:	
  8290                           ;psect for function _OLED_Command
  8291                           
  8292                           
  8293                           ;incstack = 0
  8294                           ; Regs used in _OLED_Command: [wreg+status,2+status,0+pclath+cstack]
  8295                           ;OLED_Command@cmd stored from wreg
  8296     1489  00F5               	movwf	OLED_Command@cmd
  8297     148A                     l2717:
  8298                           
  8299                           ;OLED_SSD1306.c: 190: static I2C_Status_t OLED_Command(uint8_t cmd);OLED_SSD1306.c: 191:
      +                           {;OLED_SSD1306.c: 192:     I2C_Status_t st;;OLED_SSD1306.c: 194:     st = I2C_Start();
  8300     148A  3193  23B3  3194   	fcall	_I2C_Start
  8301     148D  00F6               	movwf	OLED_Command@st
  8302     148E                     l2719:
  8303                           
  8304                           ;OLED_SSD1306.c: 195:     if (st != I2C_OK) return st;
  8305     148E  0876               	movf	OLED_Command@st,w
  8306     148F  1903               	btfsc	3,2
  8307     1490  2C92               	goto	u2851
  8308     1491  2C93               	goto	u2850
  8309     1492                     u2851:
  8310     1492  2C94               	goto	l2723
  8311     1493                     u2850:
  8312     1493  2CB6               	goto	l105
  8313     1494                     l2723:
  8314                           
  8315                           ;OLED_SSD1306.c: 197:     st = I2C_WriteByte(SSD1306_CtrlW());
  8316     1494  318B  2310  3194   	fcall	_SSD1306_CtrlW
  8317     1497  3195  2518  3194   	fcall	_I2C_WriteByte
  8318     149A  00F6               	movwf	OLED_Command@st
  8319     149B                     l2725:
  8320                           
  8321                           ;OLED_SSD1306.c: 198:     if (st != I2C_OK) { I2C_Stop(); return st; }
  8322     149B  0876               	movf	OLED_Command@st,w
  8323     149C  1903               	btfsc	3,2
  8324     149D  2C9F               	goto	u2861
  8325     149E  2CA0               	goto	u2860
  8326     149F                     u2861:
  8327     149F  2CA4               	goto	l2731
  8328     14A0                     u2860:
  8329     14A0                     l2727:
  8330     14A0  3193  236C  3194   	fcall	_I2C_Stop
  8331     14A3  2CB6               	goto	l105
  8332     14A4                     l2731:
  8333                           
  8334                           ;OLED_SSD1306.c: 200:     st = I2C_WriteByte(0x00);
  8335     14A4  3000               	movlw	0
  8336     14A5  3195  2518  3194   	fcall	_I2C_WriteByte
  8337     14A8  00F6               	movwf	OLED_Command@st
  8338     14A9                     l2733:
  8339                           
  8340                           ;OLED_SSD1306.c: 201:     if (st != I2C_OK) { I2C_Stop(); return st; }
  8341     14A9  0876               	movf	OLED_Command@st,w
  8342     14AA  1903               	btfsc	3,2
  8343     14AB  2CAD               	goto	u2871
  8344     14AC  2CAE               	goto	u2870
  8345     14AD                     u2871:
  8346     14AD  2CAF               	goto	l2739
  8347     14AE                     u2870:
  8348     14AE  2CA0               	goto	l2727
  8349     14AF                     l2739:
  8350     14AF  0875               	movf	OLED_Command@cmd,w
  8351     14B0  3195  2518  3194   	fcall	_I2C_WriteByte
  8352                           
  8353                           ;OLED_SSD1306.c: 204:     I2C_Stop();
  8354     14B3  3193  236C  3194   	fcall	_I2C_Stop
  8355     14B6                     l105:
  8356     14B6  0008               	return
  8357     14B7                     __end_of_OLED_Command:
  8358                           
  8359                           	psect	text28
  8360     1692                     __ptext28:	
  8361 ;; *************** function _OLED_WriteData *****************
  8362 ;; Defined at:
  8363 ;;		line 215 in file "OLED_SSD1306.c"
  8364 ;; Parameters:    Size  Location     Type
  8365 ;;  data            2    5[COMMON] PTR const unsigned char 
  8366 ;;		 -> OledFont(768), screen_buffer(512), 
  8367 ;;  len             2    7[COMMON] unsigned short 
  8368 ;; Auto vars:     Size  Location     Type
  8369 ;;  i               2    9[COMMON] unsigned short 
  8370 ;;  st              1   11[COMMON] enum E6043
  8371 ;; Return value:  Size  Location     Type
  8372 ;;                  1    wreg      enum E6043
  8373 ;; Registers used:
  8374 ;;		wreg, fsr0l, fsr0h, status,2, status,0, pclath, cstack
  8375 ;; Tracked objects:
  8376 ;;		On entry : 0/0
  8377 ;;		On exit  : 0/0
  8378 ;;		Unchanged: 0/0
  8379 ;; Data sizes:     COMMON   BANK0   BANK1   BANK2   BANK3   BANK4   BANK5   BANK6   BANK7   BANK8   BANK9  BANK10  BANK1
      +1  BANK12  BANK13  BANK14  BANK15  BANK16  BANK17  BANK18  BANK19  BANK20  BANK21  BANK22  BANK23  BANK24  BANK25
  8380 ;;      Params:         4       0       0       0       0       0       0       0       0       0       0       0       
      +0       0       0       0       0       0       0       0       0       0       0       0       0       0       0
  8381 ;;      Locals:         3       0       0       0       0       0       0       0       0       0       0       0       
      +0       0       0       0       0       0       0       0       0       0       0       0       0       0       0
  8382 ;;      Temps:          0       0       0       0       0       0       0       0       0       0       0       0       
      +0       0       0       0       0       0       0       0       0       0       0       0       0       0       0
  8383 ;;      Totals:         7       0       0       0       0       0       0       0       0       0       0       0       
      +0       0       0       0       0       0       0       0       0       0       0       0       0       0       0
  8384 ;;Total ram usage:        7 bytes
  8385 ;; Hardware stack levels used: 1
  8386 ;; Hardware stack levels required when called: 2
  8387 ;; This function calls:
  8388 ;;		_I2C_Start
  8389 ;;		_I2C_Stop
  8390 ;;		_I2C_WriteByte
  8391 ;;		_SSD1306_CtrlW
  8392 ;; This function is called by:
  8393 ;;		_OLED_Clear
  8394 ;;		_OLED_UpdateLine
  8395 ;;		_OLED_UpdatePartialLine
  8396 ;;		_OLED_WriteString
  8397 ;; This function uses a non-reentrant model
  8398 ;;
  8399                           
  8400     1692                     _OLED_WriteData:	
  8401                           ;psect for function _OLED_WriteData
  8402                           
  8403     1692                     l2743:	
  8404                           ;incstack = 0
  8405                           ; Regs used in _OLED_WriteData: [wreg-fsr0h+status,2+status,0+pclath+cstack]
  8406                           
  8407                           
  8408                           ;OLED_SSD1306.c: 215: static I2C_Status_t OLED_WriteData(const uint8_t* data, uint16_t l
      +                          en);OLED_SSD1306.c: 216: {;OLED_SSD1306.c: 217:     I2C_Status_t st;;OLED_SSD1306.c: 219
      +                          :     if (data == ((void*)0)) return I2C_TIMEOUT;
  8409     1692  0875               	movf	OLED_WriteData@data,w
  8410     1693  0476               	iorwf	OLED_WriteData@data+1,w
  8411     1694  1D03               	btfss	3,2
  8412     1695  2E97               	goto	u2881
  8413     1696  2E98               	goto	u2880
  8414     1697                     u2881:
  8415     1697  2E99               	goto	l2747
  8416     1698                     u2880:
  8417     1698  2EE1               	goto	l111
  8418     1699                     l2747:
  8419                           
  8420                           ;OLED_SSD1306.c: 221:     st = I2C_Start();
  8421     1699  3193  23B3  3196   	fcall	_I2C_Start
  8422     169C  00FB               	movwf	OLED_WriteData@st
  8423     169D                     l2749:
  8424                           
  8425                           ;OLED_SSD1306.c: 222:     if (st != I2C_OK) return st;
  8426     169D  087B               	movf	OLED_WriteData@st,w
  8427     169E  1903               	btfsc	3,2
  8428     169F  2EA1               	goto	u2891
  8429     16A0  2EA2               	goto	u2890
  8430     16A1                     u2891:
  8431     16A1  2EA3               	goto	l2753
  8432     16A2                     u2890:
  8433     16A2  2EE1               	goto	l111
  8434     16A3                     l2753:
  8435                           
  8436                           ;OLED_SSD1306.c: 224:     st = I2C_WriteByte(SSD1306_CtrlW());
  8437     16A3  318B  2310  3196   	fcall	_SSD1306_CtrlW
  8438     16A6  3195  2518  3196   	fcall	_I2C_WriteByte
  8439     16A9  00FB               	movwf	OLED_WriteData@st
  8440     16AA                     l2755:
  8441                           
  8442                           ;OLED_SSD1306.c: 225:     if (st != I2C_OK) { I2C_Stop(); return st; }
  8443     16AA  087B               	movf	OLED_WriteData@st,w
  8444     16AB  1903               	btfsc	3,2
  8445     16AC  2EAE               	goto	u2901
  8446     16AD  2EAF               	goto	u2900
  8447     16AE                     u2901:
  8448     16AE  2EB3               	goto	l2761
  8449     16AF                     u2900:
  8450     16AF                     l2757:
  8451     16AF  3193  236C  3196   	fcall	_I2C_Stop
  8452     16B2  2EE1               	goto	l111
  8453     16B3                     l2761:
  8454                           
  8455                           ;OLED_SSD1306.c: 227:     st = I2C_WriteByte(0x40);
  8456     16B3  3040               	movlw	64
  8457     16B4  3195  2518  3196   	fcall	_I2C_WriteByte
  8458     16B7  00FB               	movwf	OLED_WriteData@st
  8459     16B8                     l2763:
  8460                           
  8461                           ;OLED_SSD1306.c: 228:     if (st != I2C_OK) { I2C_Stop(); return st; }
  8462     16B8  087B               	movf	OLED_WriteData@st,w
  8463     16B9  1903               	btfsc	3,2
  8464     16BA  2EBC               	goto	u2911
  8465     16BB  2EBD               	goto	u2910
  8466     16BC                     u2911:
  8467     16BC  2EBE               	goto	l2769
  8468     16BD                     u2910:
  8469     16BD  2EAF               	goto	l2757
  8470     16BE                     l2769:
  8471                           
  8472                           ;OLED_SSD1306.c: 230:     for (uint16_t i = 0; i < len; i++)
  8473     16BE  01F9               	clrf	OLED_WriteData@i
  8474     16BF  01FA               	clrf	OLED_WriteData@i+1
  8475     16C0  2ED6               	goto	l115
  8476     16C1                     l2771:
  8477                           
  8478                           ;OLED_SSD1306.c: 231:     {;OLED_SSD1306.c: 232:         st = I2C_WriteByte(data[i]);
  8479     16C1  0875               	movf	OLED_WriteData@data,w
  8480     16C2  0779               	addwf	OLED_WriteData@i,w
  8481     16C3  0084               	movwf	4
  8482     16C4  0876               	movf	OLED_WriteData@data+1,w
  8483     16C5  3D7A               	addwfc	OLED_WriteData@i+1,w
  8484     16C6  0085               	movwf	5
  8485     16C7  0800               	movf	0,w	;code access
  8486     16C8  3195  2518  3196   	fcall	_I2C_WriteByte
  8487     16CB  00FB               	movwf	OLED_WriteData@st
  8488     16CC                     l2773:
  8489                           
  8490                           ;OLED_SSD1306.c: 233:         if (st != I2C_OK) { I2C_Stop(); return st; }
  8491     16CC  087B               	movf	OLED_WriteData@st,w
  8492     16CD  1903               	btfsc	3,2
  8493     16CE  2ED0               	goto	u2921
  8494     16CF  2ED1               	goto	u2920
  8495     16D0                     u2921:
  8496     16D0  2ED2               	goto	l2779
  8497     16D1                     u2920:
  8498     16D1  2EAF               	goto	l2757
  8499     16D2                     l2779:
  8500                           
  8501                           ;OLED_SSD1306.c: 234:     }
  8502     16D2  3001               	movlw	1
  8503     16D3  07F9               	addwf	OLED_WriteData@i,f
  8504     16D4  3000               	movlw	0
  8505     16D5  3DFA               	addwfc	OLED_WriteData@i+1,f
  8506     16D6                     l115:
  8507     16D6  0878               	movf	OLED_WriteData@len+1,w
  8508     16D7  027A               	subwf	OLED_WriteData@i+1,w
  8509     16D8  1D03               	skipz
  8510     16D9  2EDC               	goto	u2935
  8511     16DA  0877               	movf	OLED_WriteData@len,w
  8512     16DB  0279               	subwf	OLED_WriteData@i,w
  8513     16DC                     u2935:
  8514     16DC  1C03               	skipc
  8515     16DD  2EDF               	goto	u2931
  8516     16DE  2EE0               	goto	u2930
  8517     16DF                     u2931:
  8518     16DF  2EC1               	goto	l2771
  8519     16E0                     u2930:
  8520     16E0  2EAF               	goto	l2757
  8521     16E1                     l111:
  8522     16E1  0008               	return
  8523     16E2                     __end_of_OLED_WriteData:
  8524                           
  8525                           	psect	text29
  8526     0B10                     __ptext29:	
  8527 ;; *************** function _SSD1306_CtrlW *****************
  8528 ;; Defined at:
  8529 ;;		line 182 in file "OLED_SSD1306.c"
  8530 ;; Parameters:    Size  Location     Type
  8531 ;;		None
  8532 ;; Auto vars:     Size  Location     Type
  8533 ;;		None
  8534 ;; Return value:  Size  Location     Type
  8535 ;;                  1    wreg      unsigned char 
  8536 ;; Registers used:
  8537 ;;		wreg
  8538 ;; Tracked objects:
  8539 ;;		On entry : 0/0
  8540 ;;		On exit  : 0/0
  8541 ;;		Unchanged: 0/0
  8542 ;; Data sizes:     COMMON   BANK0   BANK1   BANK2   BANK3   BANK4   BANK5   BANK6   BANK7   BANK8   BANK9  BANK10  BANK1
      +1  BANK12  BANK13  BANK14  BANK15  BANK16  BANK17  BANK18  BANK19  BANK20  BANK21  BANK22  BANK23  BANK24  BANK25
  8543 ;;      Params:         0       0       0       0       0       0       0       0       0       0       0       0       
      +0       0       0       0       0       0       0       0       0       0       0       0       0       0       0
  8544 ;;      Locals:         0       0       0       0       0       0       0       0       0       0       0       0       
      +0       0       0       0       0       0       0       0       0       0       0       0       0       0       0
  8545 ;;      Temps:          0       0       0       0       0       0       0       0       0       0       0       0       
      +0       0       0       0       0       0       0       0       0       0       0       0       0       0       0
  8546 ;;      Totals:         0       0       0       0       0       0       0       0       0       0       0       0       
      +0       0       0       0       0       0       0       0       0       0       0       0       0       0       0
  8547 ;;Total ram usage:        0 bytes
  8548 ;; Hardware stack levels used: 1
  8549 ;; This function calls:
  8550 ;;		Nothing
  8551 ;; This function is called by:
  8552 ;;		_OLED_Command
  8553 ;;		_OLED_WriteData
  8554 ;; This function uses a non-reentrant model
  8555 ;;
  8556                           
  8557     0B10                     _SSD1306_CtrlW:	
  8558                           ;psect for function _SSD1306_CtrlW
  8559                           
  8560     0B10                     l2713:	
  8561                           ;incstack = 0
  8562                           ; Regs used in _SSD1306_CtrlW: [wreg]
  8563                           
  8564     0B10  3078               	movlw	120
  8565     0B11                     l101:
  8566     0B11  0008               	return
  8567     0B12                     __end_of_SSD1306_CtrlW:
  8568                           
  8569                           	psect	text30
  8570     1518                     __ptext30:	
  8571 ;; *************** function _I2C_WriteByte *****************
  8572 ;; Defined at:
  8573 ;;		line 161 in file "I2C.c"
  8574 ;; Parameters:    Size  Location     Type
  8575 ;;  data            1    wreg     unsigned char 
  8576 ;; Auto vars:     Size  Location     Type
  8577 ;;  data            1    3[COMMON] unsigned char 
  8578 ;;  st              1    4[COMMON] enum E6036
  8579 ;; Return value:  Size  Location     Type
  8580 ;;                  1    wreg      enum E6036
  8581 ;; Registers used:
  8582 ;;		wreg, status,2, status,0, pclath, cstack
  8583 ;; Tracked objects:
  8584 ;;		On entry : 0/0
  8585 ;;		On exit  : 0/0
  8586 ;;		Unchanged: 0/0
  8587 ;; Data sizes:     COMMON   BANK0   BANK1   BANK2   BANK3   BANK4   BANK5   BANK6   BANK7   BANK8   BANK9  BANK10  BANK1
      +1  BANK12  BANK13  BANK14  BANK15  BANK16  BANK17  BANK18  BANK19  BANK20  BANK21  BANK22  BANK23  BANK24  BANK25
  8588 ;;      Params:         0       0       0       0       0       0       0       0       0       0       0       0       
      +0       0       0       0       0       0       0       0       0       0       0       0       0       0       0
  8589 ;;      Locals:         2       0       0       0       0       0       0       0       0       0       0       0       
      +0       0       0       0       0       0       0       0       0       0       0       0       0       0       0
  8590 ;;      Temps:          0       0       0       0       0       0       0       0       0       0       0       0       
      +0       0       0       0       0       0       0       0       0       0       0       0       0       0       0
  8591 ;;      Totals:         2       0       0       0       0       0       0       0       0       0       0       0       
      +0       0       0       0       0       0       0       0       0       0       0       0       0       0       0
  8592 ;;Total ram usage:        2 bytes
  8593 ;; Hardware stack levels used: 1
  8594 ;; Hardware stack levels required when called: 1
  8595 ;; This function calls:
  8596 ;;		_I2C_WaitIF
  8597 ;;		_I2C_WaitIdle
  8598 ;; This function is called by:
  8599 ;;		_OLED_Command
  8600 ;;		_OLED_WriteData
  8601 ;; This function uses a non-reentrant model
  8602 ;;
  8603                           
  8604     1518                     _I2C_WriteByte:	
  8605                           ;psect for function _I2C_WriteByte
  8606                           
  8607                           
  8608                           ;incstack = 0
  8609                           ; Regs used in _I2C_WriteByte: [wreg+status,2+status,0+pclath+cstack]
  8610                           ;I2C_WriteByte@data stored from wreg
  8611     1518  00F3               	movwf	I2C_WriteByte@data
  8612     1519                     l2685:
  8613                           
  8614                           ;I2C.c: 161: I2C_Status_t I2C_WriteByte(uint8_t data);I2C.c: 162: {;I2C.c: 163:     I2C_
      +                          Status_t st;;I2C.c: 165:     st = I2C_WaitIdle(50);
  8615     1519  3032               	movlw	50
  8616     151A  00F0               	movwf	I2C_WaitIdle@timeout_ms
  8617     151B  3000               	movlw	0
  8618     151C  00F1               	movwf	I2C_WaitIdle@timeout_ms+1
  8619     151D  3193  238F  3195   	fcall	_I2C_WaitIdle
  8620     1520  00F4               	movwf	I2C_WriteByte@st
  8621     1521                     l2687:
  8622                           
  8623                           ;I2C.c: 166:     if (st != I2C_OK) return st;
  8624     1521  0874               	movf	I2C_WriteByte@st,w
  8625     1522  1903               	btfsc	3,2
  8626     1523  2D25               	goto	u2821
  8627     1524  2D26               	goto	u2820
  8628     1525                     u2821:
  8629     1525  2D28               	goto	l60
  8630     1526                     u2820:
  8631     1526                     l2689:
  8632     1526  0874               	movf	I2C_WriteByte@st,w
  8633     1527  2D49               	goto	l61
  8634     1528                     l60:
  8635                           
  8636                           ;I2C.c: 168:     PIR1bits.SSP1IF = 0;
  8637     1528  0020               	movlb	0	; select bank0
  8638     1529  1191               	bcf	17,3	;volatile
  8639     152A                     l2693:
  8640                           
  8641                           ;I2C.c: 169:     SSPBUF = data;
  8642     152A  0873               	movf	I2C_WriteByte@data,w
  8643     152B  0024               	movlb	4	; select bank4
  8644     152C  0091               	movwf	17	;volatile
  8645     152D                     l2695:
  8646                           
  8647                           ;I2C.c: 171:     st = I2C_WaitIF(50);
  8648     152D  3032               	movlw	50
  8649     152E  00F0               	movwf	I2C_WaitIF@timeout_ms
  8650     152F  3000               	movlw	0
  8651     1530  00F1               	movwf	I2C_WaitIF@timeout_ms+1
  8652     1531  3192  22E9  3195   	fcall	_I2C_WaitIF
  8653     1534  00F4               	movwf	I2C_WriteByte@st
  8654     1535                     l2697:
  8655                           
  8656                           ;I2C.c: 172:     if (st != I2C_OK) return st;
  8657     1535  0874               	movf	I2C_WriteByte@st,w
  8658     1536  1903               	btfsc	3,2
  8659     1537  2D39               	goto	u2831
  8660     1538  2D3A               	goto	u2830
  8661     1539                     u2831:
  8662     1539  2D3B               	goto	l62
  8663     153A                     u2830:
  8664     153A  2D26               	goto	l2689
  8665     153B                     l62:
  8666                           
  8667                           ;I2C.c: 175:     if (PIR2bits.BCL1IF)
  8668     153B  0020               	movlb	0	; select bank0
  8669     153C  1D92               	btfss	18,3	;volatile
  8670     153D  2D3F               	goto	u2841
  8671     153E  2D40               	goto	u2840
  8672     153F                     u2841:
  8673     153F  2D43               	goto	l63
  8674     1540                     u2840:
  8675     1540                     l2703:
  8676                           
  8677                           ;I2C.c: 176:     {;I2C.c: 177:         PIR2bits.BCL1IF = 0;
  8678     1540  1192               	bcf	18,3	;volatile
  8679     1541                     l2705:
  8680                           
  8681                           ;I2C.c: 178:         return I2C_BUS_COLLISION;
  8682     1541  3003               	movlw	3
  8683     1542  2D49               	goto	l61
  8684     1543                     l63:	
  8685                           ;I2C.c: 179:     }
  8686                           
  8687                           
  8688                           ;I2C.c: 182:     PIR1bits.SSP1IF = 0;
  8689     1543  1191               	bcf	17,3	;volatile
  8690     1544                     l2709:
  8691                           
  8692                           ;I2C.c: 183:     return (SSPCON2bits.ACKSTAT == 0) ? I2C_OK : I2C_NAK;
  8693     1544  0024               	movlb	4	; select bank4
  8694     1545  0E16               	swapf	22,w	;volatile
  8695     1546  0C89               	rrf	9,f
  8696     1547  0C89               	rrf	9,f
  8697     1548  3901               	andlw	1
  8698     1549                     l61:
  8699     1549  0008               	return
  8700     154A                     __end_of_I2C_WriteByte:
  8701                           
  8702                           	psect	text31
  8703     136C                     __ptext31:	
  8704 ;; *************** function _I2C_Stop *****************
  8705 ;; Defined at:
  8706 ;;		line 138 in file "I2C.c"
  8707 ;; Parameters:    Size  Location     Type
  8708 ;;		None
  8709 ;; Auto vars:     Size  Location     Type
  8710 ;;  st              1    3[COMMON] enum E6036
  8711 ;; Return value:  Size  Location     Type
  8712 ;;                  1    wreg      enum E6036
  8713 ;; Registers used:
  8714 ;;		wreg, status,2, status,0, pclath, cstack
  8715 ;; Tracked objects:
  8716 ;;		On entry : 0/0
  8717 ;;		On exit  : 0/0
  8718 ;;		Unchanged: 0/0
  8719 ;; Data sizes:     COMMON   BANK0   BANK1   BANK2   BANK3   BANK4   BANK5   BANK6   BANK7   BANK8   BANK9  BANK10  BANK1
      +1  BANK12  BANK13  BANK14  BANK15  BANK16  BANK17  BANK18  BANK19  BANK20  BANK21  BANK22  BANK23  BANK24  BANK25
  8720 ;;      Params:         0       0       0       0       0       0       0       0       0       0       0       0       
      +0       0       0       0       0       0       0       0       0       0       0       0       0       0       0
  8721 ;;      Locals:         1       0       0       0       0       0       0       0       0       0       0       0       
      +0       0       0       0       0       0       0       0       0       0       0       0       0       0       0
  8722 ;;      Temps:          0       0       0       0       0       0       0       0       0       0       0       0       
      +0       0       0       0       0       0       0       0       0       0       0       0       0       0       0
  8723 ;;      Totals:         1       0       0       0       0       0       0       0       0       0       0       0       
      +0       0       0       0       0       0       0       0       0       0       0       0       0       0       0
  8724 ;;Total ram usage:        1 bytes
  8725 ;; Hardware stack levels used: 1
  8726 ;; Hardware stack levels required when called: 1
  8727 ;; This function calls:
  8728 ;;		_I2C_WaitIF
  8729 ;;		_I2C_WaitIdle
  8730 ;; This function is called by:
  8731 ;;		_OLED_Command
  8732 ;;		_OLED_WriteData
  8733 ;; This function uses a non-reentrant model
  8734 ;;
  8735                           
  8736     136C                     _I2C_Stop:	
  8737                           ;psect for function _I2C_Stop
  8738                           
  8739     136C                     l2673:	
  8740                           ;incstack = 0
  8741                           ; Regs used in _I2C_Stop: [wreg+status,2+status,0+pclath+cstack]
  8742                           
  8743                           
  8744                           ;I2C.c: 140:     I2C_Status_t st;;I2C.c: 142:     st = I2C_WaitIdle(50);
  8745     136C  3032               	movlw	50
  8746     136D  00F0               	movwf	I2C_WaitIdle@timeout_ms
  8747     136E  3000               	movlw	0
  8748     136F  00F1               	movwf	I2C_WaitIdle@timeout_ms+1
  8749     1370  3193  238F  3193   	fcall	_I2C_WaitIdle
  8750     1373  00F3               	movwf	I2C_Stop@st
  8751     1374                     l2675:
  8752                           
  8753                           ;I2C.c: 143:     if (st != I2C_OK) return st;
  8754     1374  0873               	movf	I2C_Stop@st,w
  8755     1375  1903               	btfsc	3,2
  8756     1376  2B78               	goto	u2801
  8757     1377  2B79               	goto	u2800
  8758     1378                     u2801:
  8759     1378  2B7A               	goto	l55
  8760     1379                     u2800:
  8761     1379  2B8E               	goto	l56
  8762     137A                     l55:
  8763                           
  8764                           ;I2C.c: 145:     PIR1bits.SSP1IF = 0;
  8765     137A  0020               	movlb	0	; select bank0
  8766     137B  1191               	bcf	17,3	;volatile
  8767                           
  8768                           ;I2C.c: 146:     SSPCON2bits.PEN = 1;
  8769     137C  0024               	movlb	4	; select bank4
  8770     137D  1516               	bsf	22,2	;volatile
  8771     137E                     l2679:
  8772                           
  8773                           ;I2C.c: 148:     st = I2C_WaitIF(50);
  8774     137E  3032               	movlw	50
  8775     137F  00F0               	movwf	I2C_WaitIF@timeout_ms
  8776     1380  3000               	movlw	0
  8777     1381  00F1               	movwf	I2C_WaitIF@timeout_ms+1
  8778     1382  3192  22E9  3193   	fcall	_I2C_WaitIF
  8779     1385  00F3               	movwf	I2C_Stop@st
  8780     1386                     l2681:
  8781                           
  8782                           ;I2C.c: 149:     if (st != I2C_OK) return st;
  8783     1386  0873               	movf	I2C_Stop@st,w
  8784     1387  1903               	btfsc	3,2
  8785     1388  2B8A               	goto	u2811
  8786     1389  2B8B               	goto	u2810
  8787     138A                     u2811:
  8788     138A  2B8C               	goto	l57
  8789     138B                     u2810:
  8790     138B  2B8E               	goto	l56
  8791     138C                     l57:
  8792                           
  8793                           ;I2C.c: 151:     PIR1bits.SSP1IF = 0;
  8794     138C  0020               	movlb	0	; select bank0
  8795     138D  1191               	bcf	17,3	;volatile
  8796     138E                     l56:	
  8797                           ;I2C.c: 152:     return I2C_OK;;	Return value of _I2C_Stop is never used
  8798                           
  8799     138E  0008               	return
  8800     138F                     __end_of_I2C_Stop:
  8801                           
  8802                           	psect	text32
  8803     13B3                     __ptext32:	
  8804 ;; *************** function _I2C_Start *****************
  8805 ;; Defined at:
  8806 ;;		line 98 in file "I2C.c"
  8807 ;; Parameters:    Size  Location     Type
  8808 ;;		None
  8809 ;; Auto vars:     Size  Location     Type
  8810 ;;  st              1    3[COMMON] enum E6036
  8811 ;; Return value:  Size  Location     Type
  8812 ;;                  1    wreg      enum E6036
  8813 ;; Registers used:
  8814 ;;		wreg, status,2, status,0, pclath, cstack
  8815 ;; Tracked objects:
  8816 ;;		On entry : 0/0
  8817 ;;		On exit  : 0/0
  8818 ;;		Unchanged: 0/0
  8819 ;; Data sizes:     COMMON   BANK0   BANK1   BANK2   BANK3   BANK4   BANK5   BANK6   BANK7   BANK8   BANK9  BANK10  BANK1
      +1  BANK12  BANK13  BANK14  BANK15  BANK16  BANK17  BANK18  BANK19  BANK20  BANK21  BANK22  BANK23  BANK24  BANK25
  8820 ;;      Params:         0       0       0       0       0       0       0       0       0       0       0       0       
      +0       0       0       0       0       0       0       0       0       0       0       0       0       0       0
  8821 ;;      Locals:         1       0       0       0       0       0       0       0       0       0       0       0       
      +0       0       0       0       0       0       0       0       0       0       0       0       0       0       0
  8822 ;;      Temps:          0       0       0       0       0       0       0       0       0       0       0       0       
      +0       0       0       0       0       0       0       0       0       0       0       0       0       0       0
  8823 ;;      Totals:         1       0       0       0       0       0       0       0       0       0       0       0       
      +0       0       0       0       0       0       0       0       0       0       0       0       0       0       0
  8824 ;;Total ram usage:        1 bytes
  8825 ;; Hardware stack levels used: 1
  8826 ;; Hardware stack levels required when called: 1
  8827 ;; This function calls:
  8828 ;;		_I2C_WaitIF
  8829 ;;		_I2C_WaitIdle
  8830 ;; This function is called by:
  8831 ;;		_OLED_Command
  8832 ;;		_OLED_WriteData
  8833 ;; This function uses a non-reentrant model
  8834 ;;
  8835                           
  8836     13B3                     _I2C_Start:	
  8837                           ;psect for function _I2C_Start
  8838                           
  8839     13B3                     l2653:	
  8840                           ;incstack = 0
  8841                           ; Regs used in _I2C_Start: [wreg+status,2+status,0+pclath+cstack]
  8842                           
  8843                           
  8844                           ;I2C.c: 100:     I2C_Status_t st;;I2C.c: 102:     st = I2C_WaitIdle(50);
  8845     13B3  3032               	movlw	50
  8846     13B4  00F0               	movwf	I2C_WaitIdle@timeout_ms
  8847     13B5  3000               	movlw	0
  8848     13B6  00F1               	movwf	I2C_WaitIdle@timeout_ms+1
  8849     13B7  3193  238F  3193   	fcall	_I2C_WaitIdle
  8850     13BA  00F3               	movwf	I2C_Start@st
  8851     13BB                     l2655:
  8852                           
  8853                           ;I2C.c: 103:     if (st != I2C_OK) return st;
  8854     13BB  0873               	movf	I2C_Start@st,w
  8855     13BC  1903               	btfsc	3,2
  8856     13BD  2BBF               	goto	u2781
  8857     13BE  2BC0               	goto	u2780
  8858     13BF                     u2781:
  8859     13BF  2BC2               	goto	l45
  8860     13C0                     u2780:
  8861     13C0                     l2657:
  8862     13C0  0873               	movf	I2C_Start@st,w
  8863     13C1  2BD7               	goto	l46
  8864     13C2                     l45:
  8865                           
  8866                           ;I2C.c: 105:     PIR1bits.SSP1IF = 0;
  8867     13C2  0020               	movlb	0	; select bank0
  8868     13C3  1191               	bcf	17,3	;volatile
  8869                           
  8870                           ;I2C.c: 106:     SSPCON2bits.SEN = 1;
  8871     13C4  0024               	movlb	4	; select bank4
  8872     13C5  1416               	bsf	22,0	;volatile
  8873     13C6                     l2661:
  8874                           
  8875                           ;I2C.c: 108:     st = I2C_WaitIF(50);
  8876     13C6  3032               	movlw	50
  8877     13C7  00F0               	movwf	I2C_WaitIF@timeout_ms
  8878     13C8  3000               	movlw	0
  8879     13C9  00F1               	movwf	I2C_WaitIF@timeout_ms+1
  8880     13CA  3192  22E9  3193   	fcall	_I2C_WaitIF
  8881     13CD  00F3               	movwf	I2C_Start@st
  8882     13CE                     l2663:
  8883                           
  8884                           ;I2C.c: 109:     if (st != I2C_OK) return st;
  8885     13CE  0873               	movf	I2C_Start@st,w
  8886     13CF  1903               	btfsc	3,2
  8887     13D0  2BD2               	goto	u2791
  8888     13D1  2BD3               	goto	u2790
  8889     13D2                     u2791:
  8890     13D2  2BD4               	goto	l47
  8891     13D3                     u2790:
  8892     13D3  2BC0               	goto	l2657
  8893     13D4                     l47:
  8894                           
  8895                           ;I2C.c: 111:     PIR1bits.SSP1IF = 0;
  8896     13D4  0020               	movlb	0	; select bank0
  8897     13D5  1191               	bcf	17,3	;volatile
  8898     13D6                     l2669:
  8899                           
  8900                           ;I2C.c: 112:     return I2C_OK;
  8901     13D6  3000               	movlw	0
  8902     13D7                     l46:
  8903     13D7  0008               	return
  8904     13D8                     __end_of_I2C_Start:
  8905                           
  8906                           	psect	text33
  8907     138F                     __ptext33:	
  8908 ;; *************** function _I2C_WaitIdle *****************
  8909 ;; Defined at:
  8910 ;;		line 81 in file "I2C.c"
  8911 ;; Parameters:    Size  Location     Type
  8912 ;;  timeout_ms      2    0[COMMON] unsigned short 
  8913 ;; Auto vars:     Size  Location     Type
  8914 ;;		None
  8915 ;; Return value:  Size  Location     Type
  8916 ;;                  1    wreg      enum E6036
  8917 ;; Registers used:
  8918 ;;		wreg, status,2, status,0
  8919 ;; Tracked objects:
  8920 ;;		On entry : 0/0
  8921 ;;		On exit  : 0/0
  8922 ;;		Unchanged: 0/0
  8923 ;; Data sizes:     COMMON   BANK0   BANK1   BANK2   BANK3   BANK4   BANK5   BANK6   BANK7   BANK8   BANK9  BANK10  BANK1
      +1  BANK12  BANK13  BANK14  BANK15  BANK16  BANK17  BANK18  BANK19  BANK20  BANK21  BANK22  BANK23  BANK24  BANK25
  8924 ;;      Params:         2       0       0       0       0       0       0       0       0       0       0       0       
      +0       0       0       0       0       0       0       0       0       0       0       0       0       0       0
  8925 ;;      Locals:         0       0       0       0       0       0       0       0       0       0       0       0       
      +0       0       0       0       0       0       0       0       0       0       0       0       0       0       0
  8926 ;;      Temps:          1       0       0       0       0       0       0       0       0       0       0       0       
      +0       0       0       0       0       0       0       0       0       0       0       0       0       0       0
  8927 ;;      Totals:         3       0       0       0       0       0       0       0       0       0       0       0       
      +0       0       0       0       0       0       0       0       0       0       0       0       0       0       0
  8928 ;;Total ram usage:        3 bytes
  8929 ;; Hardware stack levels used: 1
  8930 ;; This function calls:
  8931 ;;		Nothing
  8932 ;; This function is called by:
  8933 ;;		_I2C_Start
  8934 ;;		_I2C_Stop
  8935 ;;		_I2C_WriteByte
  8936 ;;		_I2C_RepeatedStart
  8937 ;;		_I2C_ReadByte
  8938 ;; This function uses a non-reentrant model
  8939 ;;
  8940                           
  8941     138F                     _I2C_WaitIdle:	
  8942                           ;psect for function _I2C_WaitIdle
  8943                           
  8944     138F                     l2635:	
  8945                           ;incstack = 0
  8946                           ; Regs used in _I2C_WaitIdle: [wreg+status,2+status,0]
  8947                           
  8948                           
  8949                           ;I2C.c: 81: I2C_Status_t I2C_WaitIdle(uint16_t timeout_ms);I2C.c: 82: {;I2C.c: 83:     w
      +                          hile (timeout_ms--)
  8950     138F  2BA5               	goto	l2647
  8951     1390                     l2637:
  8952                           
  8953                           ;I2C.c: 84:     {;I2C.c: 87:         if ((SSPCON2 & 0x1F) == 0 && SSPSTATbits.R_nW == 0)
  8954     1390  0024               	movlb	4	; select bank4
  8955     1391  0816               	movf	22,w	;volatile
  8956     1392  391F               	andlw	31
  8957     1393  1D03               	btfss	3,2
  8958     1394  2B96               	goto	u2751
  8959     1395  2B97               	goto	u2750
  8960     1396                     u2751:
  8961     1396  2B9D               	goto	l2645
  8962     1397                     u2750:
  8963     1397                     l2639:
  8964     1397  1914               	btfsc	20,2	;volatile
  8965     1398  2B9A               	goto	u2761
  8966     1399  2B9B               	goto	u2760
  8967     139A                     u2761:
  8968     139A  2B9D               	goto	l2645
  8969     139B                     u2760:
  8970     139B                     l2641:
  8971                           
  8972                           ;I2C.c: 88:             return I2C_OK;
  8973     139B  3000               	movlw	0
  8974     139C  2BB2               	goto	l41
  8975     139D                     l2645:
  8976                           
  8977                           ;I2C.c: 90:         _delay((unsigned long)((1)*(32000000/4000.0)));
  8978     139D  300B               	movlw	11
  8979     139E  00F2               	movwf	??_I2C_WaitIdle
  8980     139F  3062               	movlw	98
  8981     13A0                     u5497:
  8982     13A0  0B89               	decfsz	9,f
  8983     13A1  2BA0               	goto	u5497
  8984     13A2  0BF2               	decfsz	??_I2C_WaitIdle,f
  8985     13A3  2BA0               	goto	u5497
  8986     13A4  3200               	nop2
  8987     13A5                     l2647:
  8988                           
  8989                           ;I2C.c: 83:     while (timeout_ms--)
  8990     13A5  3001               	movlw	1
  8991     13A6  02F0               	subwf	I2C_WaitIdle@timeout_ms,f
  8992     13A7  3000               	movlw	0
  8993     13A8  3BF1               	subwfb	I2C_WaitIdle@timeout_ms+1,f
  8994     13A9  0A70               	incf	I2C_WaitIdle@timeout_ms,w
  8995     13AA  1D03               	skipz
  8996     13AB  2BB0               	goto	u2771
  8997     13AC  0A71               	incf	I2C_WaitIdle@timeout_ms+1,w
  8998     13AD  1D03               	btfss	3,2
  8999     13AE  2BB0               	goto	u2771
  9000     13AF  2BB1               	goto	u2770
  9001     13B0                     u2771:
  9002     13B0  2B90               	goto	l2637
  9003     13B1                     u2770:
  9004     13B1                     l2649:
  9005                           
  9006                           ;I2C.c: 92:     return I2C_TIMEOUT;
  9007     13B1  3002               	movlw	2
  9008     13B2                     l41:
  9009     13B2  0008               	return
  9010     13B3                     __end_of_I2C_WaitIdle:
  9011                           
  9012                           	psect	text34
  9013     12E9                     __ptext34:	
  9014 ;; *************** function _I2C_WaitIF *****************
  9015 ;; Defined at:
  9016 ;;		line 23 in file "I2C.c"
  9017 ;; Parameters:    Size  Location     Type
  9018 ;;  timeout_ms      2    0[COMMON] unsigned short 
  9019 ;; Auto vars:     Size  Location     Type
  9020 ;;		None
  9021 ;; Return value:  Size  Location     Type
  9022 ;;                  1    wreg      enum E6036
  9023 ;; Registers used:
  9024 ;;		wreg, status,2, status,0
  9025 ;; Tracked objects:
  9026 ;;		On entry : 0/0
  9027 ;;		On exit  : 0/0
  9028 ;;		Unchanged: 0/0
  9029 ;; Data sizes:     COMMON   BANK0   BANK1   BANK2   BANK3   BANK4   BANK5   BANK6   BANK7   BANK8   BANK9  BANK10  BANK1
      +1  BANK12  BANK13  BANK14  BANK15  BANK16  BANK17  BANK18  BANK19  BANK20  BANK21  BANK22  BANK23  BANK24  BANK25
  9030 ;;      Params:         2       0       0       0       0       0       0       0       0       0       0       0       
      +0       0       0       0       0       0       0       0       0       0       0       0       0       0       0
  9031 ;;      Locals:         0       0       0       0       0       0       0       0       0       0       0       0       
      +0       0       0       0       0       0       0       0       0       0       0       0       0       0       0
  9032 ;;      Temps:          1       0       0       0       0       0       0       0       0       0       0       0       
      +0       0       0       0       0       0       0       0       0       0       0       0       0       0       0
  9033 ;;      Totals:         3       0       0       0       0       0       0       0       0       0       0       0       
      +0       0       0       0       0       0       0       0       0       0       0       0       0       0       0
  9034 ;;Total ram usage:        3 bytes
  9035 ;; Hardware stack levels used: 1
  9036 ;; This function calls:
  9037 ;;		Nothing
  9038 ;; This function is called by:
  9039 ;;		_I2C_Start
  9040 ;;		_I2C_Stop
  9041 ;;		_I2C_WriteByte
  9042 ;;		_I2C_RepeatedStart
  9043 ;;		_I2C_ReadByte
  9044 ;; This function uses a non-reentrant model
  9045 ;;
  9046                           
  9047     12E9                     _I2C_WaitIF:	
  9048                           ;psect for function _I2C_WaitIF
  9049                           
  9050     12E9                     l2621:	
  9051                           ;incstack = 0
  9052                           ; Regs used in _I2C_WaitIF: [wreg+status,2+status,0]
  9053                           
  9054                           
  9055                           ;I2C.c: 23: static I2C_Status_t I2C_WaitIF(uint16_t timeout_ms);I2C.c: 24: {;I2C.c: 25: 
      +                              while (timeout_ms--)
  9056     12E9  2AF9               	goto	l2629
  9057     12EA                     l26:
  9058                           
  9059                           ;I2C.c: 26:     {;I2C.c: 27:         if (PIR1bits.SSP1IF)
  9060     12EA  0020               	movlb	0	; select bank0
  9061     12EB  1D91               	btfss	17,3	;volatile
  9062     12EC  2AEE               	goto	u2731
  9063     12ED  2AEF               	goto	u2730
  9064     12EE                     u2731:
  9065     12EE  2AF1               	goto	l2627
  9066     12EF                     u2730:
  9067     12EF                     l2623:
  9068                           
  9069                           ;I2C.c: 28:             return I2C_OK;
  9070     12EF  3000               	movlw	0
  9071     12F0  2B06               	goto	l28
  9072     12F1                     l2627:
  9073                           
  9074                           ;I2C.c: 30:         _delay((unsigned long)((1)*(32000000/4000.0)));
  9075     12F1  300B               	movlw	11
  9076     12F2  00F2               	movwf	??_I2C_WaitIF
  9077     12F3  3062               	movlw	98
  9078     12F4                     u5507:
  9079     12F4  0B89               	decfsz	9,f
  9080     12F5  2AF4               	goto	u5507
  9081     12F6  0BF2               	decfsz	??_I2C_WaitIF,f
  9082     12F7  2AF4               	goto	u5507
  9083     12F8  3200               	nop2
  9084     12F9                     l2629:
  9085                           
  9086                           ;I2C.c: 25:     while (timeout_ms--)
  9087     12F9  3001               	movlw	1
  9088     12FA  02F0               	subwf	I2C_WaitIF@timeout_ms,f
  9089     12FB  3000               	movlw	0
  9090     12FC  3BF1               	subwfb	I2C_WaitIF@timeout_ms+1,f
  9091     12FD  0A70               	incf	I2C_WaitIF@timeout_ms,w
  9092     12FE  1D03               	skipz
  9093     12FF  2B04               	goto	u2741
  9094     1300  0A71               	incf	I2C_WaitIF@timeout_ms+1,w
  9095     1301  1D03               	btfss	3,2
  9096     1302  2B04               	goto	u2741
  9097     1303  2B05               	goto	u2740
  9098     1304                     u2741:
  9099     1304  2AEA               	goto	l26
  9100     1305                     u2740:
  9101     1305                     l2631:
  9102                           
  9103                           ;I2C.c: 32:     return I2C_TIMEOUT;
  9104     1305  3002               	movlw	2
  9105     1306                     l28:
  9106     1306  0008               	return
  9107     1307                     __end_of_I2C_WaitIF:
  9108                           
  9109                           	psect	text35
  9110     14B7                     __ptext35:	
  9111 ;; *************** function _MAX6675_ReadTemp *****************
  9112 ;; Defined at:
  9113 ;;		line 185 in file "max6675.c"
  9114 ;; Parameters:    Size  Location     Type
  9115 ;;  temp            1    wreg     PTR float 
  9116 ;;		 -> main@temperature(4), 
  9117 ;;  unit            1   58[BANK0 ] unsigned char 
  9118 ;; Auto vars:     Size  Location     Type
  9119 ;;  temp            1   60[BANK0 ] PTR float 
  9120 ;;		 -> main@temperature(4), 
  9121 ;;  adc_value       2   61[BANK0 ] unsigned short 
  9122 ;;  status          1   59[BANK0 ] unsigned char 
  9123 ;; Return value:  Size  Location     Type
  9124 ;;                  1    wreg      unsigned char 
  9125 ;; Registers used:
  9126 ;;		wreg, fsr0l, fsr0h, fsr1l, fsr1h, status,2, status,0, pclath, cstack
  9127 ;; Tracked objects:
  9128 ;;		On entry : 0/0
  9129 ;;		On exit  : 0/0
  9130 ;;		Unchanged: 0/0
  9131 ;; Data sizes:     COMMON   BANK0   BANK1   BANK2   BANK3   BANK4   BANK5   BANK6   BANK7   BANK8   BANK9  BANK10  BANK1
      +1  BANK12  BANK13  BANK14  BANK15  BANK16  BANK17  BANK18  BANK19  BANK20  BANK21  BANK22  BANK23  BANK24  BANK25
  9132 ;;      Params:         0       1       0       0       0       0       0       0       0       0       0       0       
      +0       0       0       0       0       0       0       0       0       0       0       0       0       0       0
  9133 ;;      Locals:         0       4       0       0       0       0       0       0       0       0       0       0       
      +0       0       0       0       0       0       0       0       0       0       0       0       0       0       0
  9134 ;;      Temps:          0       0       0       0       0       0       0       0       0       0       0       0       
      +0       0       0       0       0       0       0       0       0       0       0       0       0       0       0
  9135 ;;      Totals:         0       5       0       0       0       0       0       0       0       0       0       0       
      +0       0       0       0       0       0       0       0       0       0       0       0       0       0       0
  9136 ;;Total ram usage:        5 bytes
  9137 ;; Hardware stack levels used: 1
  9138 ;; Hardware stack levels required when called: 3
  9139 ;; This function calls:
  9140 ;;		_MAX6675_ConvertTemp
  9141 ;;		_MAX6675_ReadADC
  9142 ;; This function is called by:
  9143 ;;		_main
  9144 ;; This function uses a non-reentrant model
  9145 ;;
  9146                           
  9147     14B7                     _MAX6675_ReadTemp:	
  9148                           ;psect for function _MAX6675_ReadTemp
  9149                           
  9150                           
  9151                           ;incstack = 0
  9152                           ; Regs used in _MAX6675_ReadTemp: [wreg-fsr1h+status,2+status,0+pclath+cstack]
  9153                           ;MAX6675_ReadTemp@temp stored from wreg
  9154     14B7  0020               	movlb	0	; select bank0
  9155     14B8  00DC               	movwf	MAX6675_ReadTemp@temp
  9156     14B9                     l4009:
  9157                           
  9158                           ;max6675.c: 185: uint8_t MAX6675_ReadTemp(float *temp, uint8_t unit);max6675.c: 186: {;m
      +                          ax6675.c: 187:     uint16_t adc_value;;max6675.c: 188:     uint8_t status;;max6675.c: 19
      +                          0:     status = MAX6675_ReadADC(&adc_value);
  9159     14B9  305D               	movlw	(low (MAX6675_ReadTemp@adc_value| 0))& (0+255)
  9160     14BA  3194  245B  3194   	fcall	_MAX6675_ReadADC
  9161     14BD  0020               	movlb	0	; select bank0
  9162     14BE  00DB               	movwf	MAX6675_ReadTemp@status
  9163     14BF                     l4011:
  9164                           
  9165                           ;max6675.c: 192:     if (status == 0x00)
  9166     14BF  085B               	movf	MAX6675_ReadTemp@status,w
  9167     14C0  1D03               	btfss	3,2
  9168     14C1  2CC3               	goto	u5071
  9169     14C2  2CC4               	goto	u5070
  9170     14C3                     u5071:
  9171     14C3  2CDA               	goto	l4015
  9172     14C4                     u5070:
  9173     14C4                     l4013:
  9174                           
  9175                           ;max6675.c: 193:     {;max6675.c: 194:         *temp = MAX6675_ConvertTemp(adc_value, un
      +                          it);
  9176     14C4  085E               	movf	MAX6675_ReadTemp@adc_value+1,w
  9177     14C5  00D3               	movwf	MAX6675_ConvertTemp@adc_value+1
  9178     14C6  085D               	movf	MAX6675_ReadTemp@adc_value,w
  9179     14C7  00D2               	movwf	MAX6675_ConvertTemp@adc_value
  9180     14C8  085A               	movf	MAX6675_ReadTemp@unit,w
  9181     14C9  00D4               	movwf	MAX6675_ConvertTemp@unit
  9182     14CA  318C  24DA  3194   	fcall	_MAX6675_ConvertTemp
  9183     14CD  0020               	movlb	0	; select bank0
  9184     14CE  085C               	movf	MAX6675_ReadTemp@temp,w
  9185     14CF  0086               	movwf	6
  9186     14D0  0187               	clrf	7
  9187     14D1  0852               	movf	?_MAX6675_ConvertTemp,w
  9188     14D2  3FC0               	movwi [0]fsr1
  9189     14D3  0853               	movf	?_MAX6675_ConvertTemp+1,w
  9190     14D4  3FC1               	movwi [1]fsr1
  9191     14D5  0854               	movf	?_MAX6675_ConvertTemp+2,w
  9192     14D6  3FC2               	movwi [2]fsr1
  9193     14D7  0855               	movf	?_MAX6675_ConvertTemp+3,w
  9194     14D8  3FC3               	movwi [3]fsr1
  9195                           
  9196                           ;max6675.c: 195:     }
  9197     14D9  2CE5               	goto	l4017
  9198     14DA                     l4015:
  9199                           
  9200                           ;max6675.c: 197:     {;max6675.c: 198:         *temp = 0.0f;
  9201     14DA  085C               	movf	MAX6675_ReadTemp@temp,w
  9202     14DB  0086               	movwf	6
  9203     14DC  0187               	clrf	7
  9204     14DD  3000               	movlw	0
  9205     14DE  3FC0               	movwi [0]fsr1
  9206     14DF  3000               	movlw	0
  9207     14E0  3FC1               	movwi [1]fsr1
  9208     14E1  3000               	movlw	0
  9209     14E2  3FC2               	movwi [2]fsr1
  9210     14E3  3000               	movlw	0
  9211     14E4  3FC3               	movwi [3]fsr1
  9212     14E5                     l4017:
  9213                           
  9214                           ;max6675.c: 201:     return status;
  9215     14E5  085B               	movf	MAX6675_ReadTemp@status,w
  9216     14E6                     l426:
  9217     14E6  0008               	return
  9218     14E7                     __end_of_MAX6675_ReadTemp:
  9219                           
  9220                           	psect	text36
  9221     145B                     __ptext36:	
  9222 ;; *************** function _MAX6675_ReadADC *****************
  9223 ;; Defined at:
  9224 ;;		line 89 in file "max6675.c"
  9225 ;; Parameters:    Size  Location     Type
  9226 ;;  adc_value       1    wreg     PTR unsigned short 
  9227 ;;		 -> MAX6675_ReadTemp@adc_value(2), MAX6675_ReadADC_Averaged@reading(2), 
  9228 ;; Auto vars:     Size  Location     Type
  9229 ;;  adc_value       1   12[COMMON] PTR unsigned short 
  9230 ;;		 -> MAX6675_ReadTemp@adc_value(2), MAX6675_ReadADC_Averaged@reading(2), 
  9231 ;;  raw_data        2   10[COMMON] unsigned short 
  9232 ;; Return value:  Size  Location     Type
  9233 ;;                  1    wreg      unsigned char 
  9234 ;; Registers used:
  9235 ;;		wreg, fsr1l, fsr1h, status,2, status,0, pclath, cstack
  9236 ;; Tracked objects:
  9237 ;;		On entry : 0/0
  9238 ;;		On exit  : 0/0
  9239 ;;		Unchanged: 0/0
  9240 ;; Data sizes:     COMMON   BANK0   BANK1   BANK2   BANK3   BANK4   BANK5   BANK6   BANK7   BANK8   BANK9  BANK10  BANK1
      +1  BANK12  BANK13  BANK14  BANK15  BANK16  BANK17  BANK18  BANK19  BANK20  BANK21  BANK22  BANK23  BANK24  BANK25
  9241 ;;      Params:         0       0       0       0       0       0       0       0       0       0       0       0       
      +0       0       0       0       0       0       0       0       0       0       0       0       0       0       0
  9242 ;;      Locals:         3       0       0       0       0       0       0       0       0       0       0       0       
      +0       0       0       0       0       0       0       0       0       0       0       0       0       0       0
  9243 ;;      Temps:          4       0       0       0       0       0       0       0       0       0       0       0       
      +0       0       0       0       0       0       0       0       0       0       0       0       0       0       0
  9244 ;;      Totals:         7       0       0       0       0       0       0       0       0       0       0       0       
      +0       0       0       0       0       0       0       0       0       0       0       0       0       0       0
  9245 ;;Total ram usage:        7 bytes
  9246 ;; Hardware stack levels used: 1
  9247 ;; Hardware stack levels required when called: 1
  9248 ;; This function calls:
  9249 ;;		_MAX6675_ReadRaw
  9250 ;; This function is called by:
  9251 ;;		_MAX6675_ReadTemp
  9252 ;;		_MAX6675_ReadADC_Averaged
  9253 ;; This function uses a non-reentrant model
  9254 ;;
  9255                           
  9256     145B                     _MAX6675_ReadADC:	
  9257                           ;psect for function _MAX6675_ReadADC
  9258                           
  9259                           
  9260                           ;incstack = 0
  9261                           ; Regs used in _MAX6675_ReadADC: [wreg+fsr1l+fsr1h+status,2+status,0+pclath+cstack]
  9262                           ;MAX6675_ReadADC@adc_value stored from wreg
  9263     145B  00FC               	movwf	MAX6675_ReadADC@adc_value
  9264     145C                     l3799:
  9265                           
  9266                           ;max6675.c: 89: uint8_t MAX6675_ReadADC(uint16_t *adc_value);max6675.c: 90: {;max6675.c:
      +                           91:     uint16_t raw_data;;max6675.c: 93:     raw_data = MAX6675_ReadRaw();
  9267     145C  3194  24E7  3194   	fcall	_MAX6675_ReadRaw
  9268     145F  0871               	movf	?_MAX6675_ReadRaw+1,w
  9269     1460  00FB               	movwf	MAX6675_ReadADC@raw_data+1
  9270     1461  0870               	movf	?_MAX6675_ReadRaw,w
  9271     1462  00FA               	movwf	MAX6675_ReadADC@raw_data
  9272     1463                     l3801:
  9273                           
  9274                           ;max6675.c: 96:     if (raw_data & 0x0004)
  9275     1463  1D7A               	btfss	MAX6675_ReadADC@raw_data,2
  9276     1464  2C66               	goto	u4951
  9277     1465  2C67               	goto	u4950
  9278     1466                     u4951:
  9279     1466  2C70               	goto	l3809
  9280     1467                     u4950:
  9281     1467                     l3803:
  9282                           
  9283                           ;max6675.c: 97:     {;max6675.c: 98:         *adc_value = 0xFFFF;
  9284     1467  087C               	movf	MAX6675_ReadADC@adc_value,w
  9285     1468  0086               	movwf	6
  9286     1469  0187               	clrf	7
  9287     146A  30FF               	movlw	255
  9288     146B  3FC0               	movwi [0]fsr1
  9289     146C  30FF               	movlw	255
  9290     146D  3FC1               	movwi [1]fsr1
  9291     146E                     l3805:
  9292                           
  9293                           ;max6675.c: 99:         return 0x04;
  9294     146E  3004               	movlw	4
  9295     146F  2C88               	goto	l398
  9296     1470                     l3809:
  9297                           
  9298                           ;max6675.c: 104:     *adc_value = (raw_data >> 3) & 0x0FFF;
  9299     1470  087B               	movf	MAX6675_ReadADC@raw_data+1,w
  9300     1471  00F7               	movwf	??_MAX6675_ReadADC+1
  9301     1472  087A               	movf	MAX6675_ReadADC@raw_data,w
  9302     1473  00F6               	movwf	??_MAX6675_ReadADC
  9303     1474  36F7               	lsrf	??_MAX6675_ReadADC+1,f
  9304     1475  0CF6               	rrf	??_MAX6675_ReadADC,f
  9305     1476  36F7               	lsrf	??_MAX6675_ReadADC+1,f
  9306     1477  0CF6               	rrf	??_MAX6675_ReadADC,f
  9307     1478  36F7               	lsrf	??_MAX6675_ReadADC+1,f
  9308     1479  0CF6               	rrf	??_MAX6675_ReadADC,f
  9309     147A  30FF               	movlw	255
  9310     147B  0576               	andwf	??_MAX6675_ReadADC,w
  9311     147C  00F8               	movwf	??_MAX6675_ReadADC+2
  9312     147D  300F               	movlw	15
  9313     147E  0577               	andwf	??_MAX6675_ReadADC+1,w
  9314     147F  00F9               	movwf	??_MAX6675_ReadADC+3
  9315     1480  087C               	movf	MAX6675_ReadADC@adc_value,w
  9316     1481  0086               	movwf	6
  9317     1482  0187               	clrf	7
  9318     1483  0878               	movf	??_MAX6675_ReadADC+2,w
  9319     1484  3FC0               	movwi [0]fsr1
  9320     1485  0879               	movf	??_MAX6675_ReadADC+3,w
  9321     1486  3FC1               	movwi [1]fsr1
  9322     1487                     l3811:
  9323                           
  9324                           ;max6675.c: 106:     return 0x00;
  9325     1487  3000               	movlw	0
  9326     1488                     l398:
  9327     1488  0008               	return
  9328     1489                     __end_of_MAX6675_ReadADC:
  9329                           
  9330                           	psect	text37
  9331     14E7                     __ptext37:	
  9332 ;; *************** function _MAX6675_ReadRaw *****************
  9333 ;; Defined at:
  9334 ;;		line 49 in file "max6675.c"
  9335 ;; Parameters:    Size  Location     Type
  9336 ;;		None
  9337 ;; Auto vars:     Size  Location     Type
  9338 ;;  data            2    3[COMMON] unsigned short 
  9339 ;;  i               1    5[COMMON] unsigned char 
  9340 ;; Return value:  Size  Location     Type
  9341 ;;                  2    0[COMMON] unsigned short 
  9342 ;; Registers used:
  9343 ;;		wreg, status,2, status,0
  9344 ;; Tracked objects:
  9345 ;;		On entry : 0/0
  9346 ;;		On exit  : 0/0
  9347 ;;		Unchanged: 0/0
  9348 ;; Data sizes:     COMMON   BANK0   BANK1   BANK2   BANK3   BANK4   BANK5   BANK6   BANK7   BANK8   BANK9  BANK10  BANK1
      +1  BANK12  BANK13  BANK14  BANK15  BANK16  BANK17  BANK18  BANK19  BANK20  BANK21  BANK22  BANK23  BANK24  BANK25
  9349 ;;      Params:         2       0       0       0       0       0       0       0       0       0       0       0       
      +0       0       0       0       0       0       0       0       0       0       0       0       0       0       0
  9350 ;;      Locals:         3       0       0       0       0       0       0       0       0       0       0       0       
      +0       0       0       0       0       0       0       0       0       0       0       0       0       0       0
  9351 ;;      Temps:          1       0       0       0       0       0       0       0       0       0       0       0       
      +0       0       0       0       0       0       0       0       0       0       0       0       0       0       0
  9352 ;;      Totals:         6       0       0       0       0       0       0       0       0       0       0       0       
      +0       0       0       0       0       0       0       0       0       0       0       0       0       0       0
  9353 ;;Total ram usage:        6 bytes
  9354 ;; Hardware stack levels used: 1
  9355 ;; This function calls:
  9356 ;;		Nothing
  9357 ;; This function is called by:
  9358 ;;		_MAX6675_ReadADC
  9359 ;; This function uses a non-reentrant model
  9360 ;;
  9361                           
  9362     14E7                     _MAX6675_ReadRaw:	
  9363                           ;psect for function _MAX6675_ReadRaw
  9364                           
  9365     14E7                     l2851:	
  9366                           ;incstack = 0
  9367                           ; Regs used in _MAX6675_ReadRaw: [wreg+status,2+status,0]
  9368                           
  9369                           
  9370                           ;max6675.c: 51:     uint16_t data = 0;
  9371     14E7  01F3               	clrf	MAX6675_ReadRaw@data
  9372     14E8  01F4               	clrf	MAX6675_ReadRaw@data+1
  9373     14E9                     l2853:
  9374                           
  9375                           ;max6675.c: 52:     uint8_t i;;max6675.c: 55:     LATBbits.LATB0 = 0;
  9376     14E9  0022               	movlb	2	; select bank2
  9377     14EA  100D               	bcf	13,0	;volatile
  9378     14EB                     l2855:
  9379                           
  9380                           ;max6675.c: 56:     _delay((unsigned long)((1)*(32000000/4000000.0)));
  9381     14EB  3200               	nop2	;2 cycle nop
  9382     14EC  3200               	nop2	;2 cycle nop
  9383     14ED  3200               	nop2	;2 cycle nop
  9384     14EE  3200               	nop2	;2 cycle nop
  9385                           
  9386                           ;max6675.c: 60:     for (i = 0; i < 16; i++)
  9387     14EF  01F5               	clrf	MAX6675_ReadRaw@i
  9388     14F0                     l2861:
  9389                           
  9390                           ;max6675.c: 61:     {;max6675.c: 63:         data <<= 1;
  9391     14F0  3001               	movlw	1
  9392     14F1                     u3065:
  9393     14F1  35F3               	lslf	MAX6675_ReadRaw@data,f
  9394     14F2  0DF4               	rlf	MAX6675_ReadRaw@data+1,f
  9395     14F3  0B89               	decfsz	9,f
  9396     14F4  2CF1               	goto	u3065
  9397     14F5                     l2863:
  9398                           
  9399                           ;max6675.c: 67:         if (PORTBbits.RB2)
  9400     14F5  0020               	movlb	0	; select bank0
  9401     14F6  1D0D               	btfss	13,2	;volatile
  9402     14F7  2CF9               	goto	u3071
  9403     14F8  2CFA               	goto	u3070
  9404     14F9                     u3071:
  9405     14F9  2CFB               	goto	l393
  9406     14FA                     u3070:
  9407     14FA                     l2865:
  9408                           
  9409                           ;max6675.c: 68:         {;max6675.c: 69:             data |= 0x0001;
  9410     14FA  1473               	bsf	MAX6675_ReadRaw@data,0
  9411     14FB                     l393:	
  9412                           ;max6675.c: 70:         }
  9413                           
  9414                           
  9415                           ;max6675.c: 73:         LATBbits.LATB1 = 1;
  9416     14FB  0022               	movlb	2	; select bank2
  9417     14FC  148D               	bsf	13,1	;volatile
  9418                           
  9419                           ;max6675.c: 74:         _delay((unsigned long)((1)*(32000000/4000000.0)));
  9420     14FD  3200               	nop2	;2 cycle nop
  9421     14FE  3200               	nop2	;2 cycle nop
  9422     14FF  3200               	nop2	;2 cycle nop
  9423     1500  3200               	nop2	;2 cycle nop
  9424                           
  9425                           ;max6675.c: 75:         LATBbits.LATB1 = 0;
  9426     1501  0022               	movlb	2	; select bank2
  9427     1502  108D               	bcf	13,1	;volatile
  9428                           
  9429                           ;max6675.c: 76:         _delay((unsigned long)((1)*(32000000/4000000.0)));
  9430     1503  3200               	nop2	;2 cycle nop
  9431     1504  3200               	nop2	;2 cycle nop
  9432     1505  3200               	nop2	;2 cycle nop
  9433     1506  3200               	nop2	;2 cycle nop
  9434     1507                     l2867:
  9435                           
  9436                           ;max6675.c: 77:     }
  9437     1507  3001               	movlw	1
  9438     1508  00F2               	movwf	??_MAX6675_ReadRaw
  9439     1509  0872               	movf	??_MAX6675_ReadRaw,w
  9440     150A  07F5               	addwf	MAX6675_ReadRaw@i,f
  9441     150B                     l2869:
  9442     150B  3010               	movlw	16
  9443     150C  0275               	subwf	MAX6675_ReadRaw@i,w
  9444     150D  1C03               	skipc
  9445     150E  2D10               	goto	u3081
  9446     150F  2D11               	goto	u3080
  9447     1510                     u3081:
  9448     1510  2CF0               	goto	l2861
  9449     1511                     u3080:
  9450     1511                     l392:
  9451                           
  9452                           ;max6675.c: 80:     LATBbits.LATB0 = 1;
  9453     1511  0022               	movlb	2	; select bank2
  9454     1512  140D               	bsf	13,0	;volatile
  9455     1513                     l2871:
  9456                           
  9457                           ;max6675.c: 82:     return data;
  9458     1513  0874               	movf	MAX6675_ReadRaw@data+1,w
  9459     1514  00F1               	movwf	?_MAX6675_ReadRaw+1
  9460     1515  0873               	movf	MAX6675_ReadRaw@data,w
  9461     1516  00F0               	movwf	?_MAX6675_ReadRaw
  9462     1517                     l394:
  9463     1517  0008               	return
  9464     1518                     __end_of_MAX6675_ReadRaw:
  9465                           
  9466                           	psect	text38
  9467     0CDA                     __ptext38:	
  9468 ;; *************** function _MAX6675_ConvertTemp *****************
  9469 ;; Defined at:
  9470 ;;		line 153 in file "max6675.c"
  9471 ;; Parameters:    Size  Location     Type
  9472 ;;  adc_value       2   50[BANK0 ] unsigned short 
  9473 ;;  unit            1   52[BANK0 ] unsigned char 
  9474 ;; Auto vars:     Size  Location     Type
  9475 ;;  temp            4   54[BANK0 ] float 
  9476 ;; Return value:  Size  Location     Type
  9477 ;;                  4   50[BANK0 ] float 
  9478 ;; Registers used:
  9479 ;;		wreg, fsr0l, fsr0h, status,2, status,0, pclath, cstack
  9480 ;; Tracked objects:
  9481 ;;		On entry : 0/0
  9482 ;;		On exit  : 0/0
  9483 ;;		Unchanged: 0/0
  9484 ;; Data sizes:     COMMON   BANK0   BANK1   BANK2   BANK3   BANK4   BANK5   BANK6   BANK7   BANK8   BANK9  BANK10  BANK1
      +1  BANK12  BANK13  BANK14  BANK15  BANK16  BANK17  BANK18  BANK19  BANK20  BANK21  BANK22  BANK23  BANK24  BANK25
  9485 ;;      Params:         0       4       0       0       0       0       0       0       0       0       0       0       
      +0       0       0       0       0       0       0       0       0       0       0       0       0       0       0
  9486 ;;      Locals:         0       4       0       0       0       0       0       0       0       0       0       0       
      +0       0       0       0       0       0       0       0       0       0       0       0       0       0       0
  9487 ;;      Temps:          0       0       0       0       0       0       0       0       0       0       0       0       
      +0       0       0       0       0       0       0       0       0       0       0       0       0       0       0
  9488 ;;      Totals:         0       8       0       0       0       0       0       0       0       0       0       0       
      +0       0       0       0       0       0       0       0       0       0       0       0       0       0       0
  9489 ;;Total ram usage:        8 bytes
  9490 ;; Hardware stack levels used: 1
  9491 ;; Hardware stack levels required when called: 2
  9492 ;; This function calls:
  9493 ;;		___fladd
  9494 ;;		___flmul
  9495 ;;		___xxtofl
  9496 ;; This function is called by:
  9497 ;;		_MAX6675_ReadTemp
  9498 ;;		_MAX6675_ReadTemp_Averaged
  9499 ;; This function uses a non-reentrant model
  9500 ;;
  9501                           
  9502     0CDA                     _MAX6675_ConvertTemp:	
  9503                           ;psect for function _MAX6675_ConvertTemp
  9504                           
  9505     0CDA                     l3815:	
  9506                           ;incstack = 0
  9507                           ; Regs used in _MAX6675_ConvertTemp: [wreg-fsr0h+status,2+status,0+pclath+cstack]
  9508                           
  9509                           
  9510                           ;max6675.c: 153: float MAX6675_ConvertTemp(uint16_t adc_value, uint8_t unit);max6675.c: 
      +                          154: {;max6675.c: 155:     float temp;;max6675.c: 158:     temp = (float)adc_value * 0.2
      +                          5f;
  9511     0CDA  303E               	movlw	62
  9512     0CDB  0020               	movlb	0	; select bank0
  9513     0CDC  00BB               	movwf	___flmul@b+3
  9514     0CDD  3080               	movlw	128
  9515     0CDE  00BA               	movwf	___flmul@b+2
  9516     0CDF  3000               	movlw	0
  9517     0CE0  00B9               	movwf	___flmul@b+1
  9518     0CE1  3000               	movlw	0
  9519     0CE2  00B8               	movwf	___flmul@b
  9520     0CE3  0852               	movf	MAX6675_ConvertTemp@adc_value,w
  9521     0CE4  00F0               	movwf	___xxtofl@val
  9522     0CE5  0853               	movf	MAX6675_ConvertTemp@adc_value+1,w
  9523     0CE6  00F1               	movwf	___xxtofl@val+1
  9524     0CE7  01F2               	clrf	___xxtofl@val+2
  9525     0CE8  01F3               	clrf	___xxtofl@val+3
  9526     0CE9  3000               	movlw	0
  9527     0CEA  3180  2040  318C   	fcall	___xxtofl
  9528     0CED  0873               	movf	?___xxtofl+3,w
  9529     0CEE  0020               	movlb	0	; select bank0
  9530     0CEF  00BF               	movwf	___flmul@a+3
  9531     0CF0  0872               	movf	?___xxtofl+2,w
  9532     0CF1  00BE               	movwf	___flmul@a+2
  9533     0CF2  0871               	movf	?___xxtofl+1,w
  9534     0CF3  00BD               	movwf	___flmul@a+1
  9535     0CF4  0870               	movf	?___xxtofl,w
  9536     0CF5  00BC               	movwf	___flmul@a
  9537     0CF6  3181  21A4  318C   	fcall	___flmul
  9538     0CF9  0020               	movlb	0	; select bank0
  9539     0CFA  083B               	movf	?___flmul+3,w
  9540     0CFB  00D9               	movwf	MAX6675_ConvertTemp@temp+3
  9541     0CFC  083A               	movf	?___flmul+2,w
  9542     0CFD  00D8               	movwf	MAX6675_ConvertTemp@temp+2
  9543     0CFE  0839               	movf	?___flmul+1,w
  9544     0CFF  00D7               	movwf	MAX6675_ConvertTemp@temp+1
  9545     0D00  0838               	movf	?___flmul,w
  9546     0D01  00D6               	movwf	MAX6675_ConvertTemp@temp
  9547                           
  9548                           ;max6675.c: 160:     switch (unit)
  9549     0D02  2D51               	goto	l3823
  9550     0D03                     l3817:
  9551                           
  9552                           ;max6675.c: 164:             temp = (temp * 1.8f) + 32.0f;
  9553     0D03  3042               	movlw	66
  9554     0D04  00A3               	movwf	___fladd@b+3
  9555     0D05  3000               	movlw	0
  9556     0D06  00A2               	movwf	___fladd@b+2
  9557     0D07  3000               	movlw	0
  9558     0D08  00A1               	movwf	___fladd@b+1
  9559     0D09  3000               	movlw	0
  9560     0D0A  00A0               	movwf	___fladd@b
  9561     0D0B  303F               	movlw	63
  9562     0D0C  00BB               	movwf	___flmul@b+3
  9563     0D0D  30E6               	movlw	230
  9564     0D0E  00BA               	movwf	___flmul@b+2
  9565     0D0F  3066               	movlw	102
  9566     0D10  00B9               	movwf	___flmul@b+1
  9567     0D11  3066               	movlw	102
  9568     0D12  00B8               	movwf	___flmul@b
  9569     0D13  0859               	movf	MAX6675_ConvertTemp@temp+3,w
  9570     0D14  00BF               	movwf	___flmul@a+3
  9571     0D15  0858               	movf	MAX6675_ConvertTemp@temp+2,w
  9572     0D16  00BE               	movwf	___flmul@a+2
  9573     0D17  0857               	movf	MAX6675_ConvertTemp@temp+1,w
  9574     0D18  00BD               	movwf	___flmul@a+1
  9575     0D19  0856               	movf	MAX6675_ConvertTemp@temp,w
  9576     0D1A  00BC               	movwf	___flmul@a
  9577     0D1B  3181  21A4  318C   	fcall	___flmul
  9578     0D1E  0020               	movlb	0	; select bank0
  9579     0D1F  083B               	movf	?___flmul+3,w
  9580     0D20  00A7               	movwf	___fladd@a+3
  9581     0D21  083A               	movf	?___flmul+2,w
  9582     0D22  00A6               	movwf	___fladd@a+2
  9583     0D23  0839               	movf	?___flmul+1,w
  9584     0D24  00A5               	movwf	___fladd@a+1
  9585     0D25  0838               	movf	?___flmul,w
  9586     0D26  00A4               	movwf	___fladd@a
  9587     0D27  318D  25F5  318C   	fcall	___fladd
  9588     0D2A  0020               	movlb	0	; select bank0
  9589     0D2B  0823               	movf	?___fladd+3,w
  9590     0D2C  00D9               	movwf	MAX6675_ConvertTemp@temp+3
  9591     0D2D  0822               	movf	?___fladd+2,w
  9592     0D2E  00D8               	movwf	MAX6675_ConvertTemp@temp+2
  9593     0D2F  0821               	movf	?___fladd+1,w
  9594     0D30  00D7               	movwf	MAX6675_ConvertTemp@temp+1
  9595     0D31  0820               	movf	?___fladd,w
  9596     0D32  00D6               	movwf	MAX6675_ConvertTemp@temp
  9597                           
  9598                           ;max6675.c: 165:             break;
  9599     0D33  2D5C               	goto	l3825
  9600     0D34                     l3819:
  9601                           
  9602                           ;max6675.c: 169:             temp = temp + 273.15f;
  9603     0D34  3043               	movlw	67
  9604     0D35  00A3               	movwf	___fladd@b+3
  9605     0D36  3088               	movlw	136
  9606     0D37  00A2               	movwf	___fladd@b+2
  9607     0D38  3093               	movlw	147
  9608     0D39  00A1               	movwf	___fladd@b+1
  9609     0D3A  3033               	movlw	51
  9610     0D3B  00A0               	movwf	___fladd@b
  9611     0D3C  0859               	movf	MAX6675_ConvertTemp@temp+3,w
  9612     0D3D  00A7               	movwf	___fladd@a+3
  9613     0D3E  0858               	movf	MAX6675_ConvertTemp@temp+2,w
  9614     0D3F  00A6               	movwf	___fladd@a+2
  9615     0D40  0857               	movf	MAX6675_ConvertTemp@temp+1,w
  9616     0D41  00A5               	movwf	___fladd@a+1
  9617     0D42  0856               	movf	MAX6675_ConvertTemp@temp,w
  9618     0D43  00A4               	movwf	___fladd@a
  9619     0D44  318D  25F5  318C   	fcall	___fladd
  9620     0D47  0020               	movlb	0	; select bank0
  9621     0D48  0823               	movf	?___fladd+3,w
  9622     0D49  00D9               	movwf	MAX6675_ConvertTemp@temp+3
  9623     0D4A  0822               	movf	?___fladd+2,w
  9624     0D4B  00D8               	movwf	MAX6675_ConvertTemp@temp+2
  9625     0D4C  0821               	movf	?___fladd+1,w
  9626     0D4D  00D7               	movwf	MAX6675_ConvertTemp@temp+1
  9627     0D4E  0820               	movf	?___fladd,w
  9628     0D4F  00D6               	movwf	MAX6675_ConvertTemp@temp
  9629                           
  9630                           ;max6675.c: 170:             break;
  9631     0D50  2D5C               	goto	l3825
  9632     0D51                     l3823:
  9633     0D51  0854               	movf	MAX6675_ConvertTemp@unit,w
  9634                           
  9635                           ; Switch size 1, requested type "simple"
  9636                           ; Number of cases is 3, Range of values is 0 to 2
  9637                           ; switch strategies available:
  9638                           ; Name         Instructions Cycles
  9639                           ; simple_byte           10     6 (average)
  9640                           ; direct_byte           12     6 (fixed)
  9641                           ; jumptable            260     6 (fixed)
  9642                           ;	Chosen strategy is simple_byte
  9643     0D52  3A00               	xorlw	0	; case 0
  9644     0D53  1903               	skipnz
  9645     0D54  2D5C               	goto	l3825
  9646     0D55  3A01               	xorlw	1	; case 1
  9647     0D56  1903               	skipnz
  9648     0D57  2D03               	goto	l3817
  9649     0D58  3A03               	xorlw	3	; case 2
  9650     0D59  1903               	skipnz
  9651     0D5A  2D34               	goto	l3819
  9652     0D5B  2D5C               	goto	l3825
  9653     0D5C                     l3825:
  9654                           
  9655                           ;max6675.c: 178:     return temp;
  9656     0D5C  0859               	movf	MAX6675_ConvertTemp@temp+3,w
  9657     0D5D  00D5               	movwf	?_MAX6675_ConvertTemp+3
  9658     0D5E  0858               	movf	MAX6675_ConvertTemp@temp+2,w
  9659     0D5F  00D4               	movwf	?_MAX6675_ConvertTemp+2
  9660     0D60  0857               	movf	MAX6675_ConvertTemp@temp+1,w
  9661     0D61  00D3               	movwf	?_MAX6675_ConvertTemp+1
  9662     0D62  0856               	movf	MAX6675_ConvertTemp@temp,w
  9663     0D63  00D2               	movwf	?_MAX6675_ConvertTemp
  9664     0D64                     l421:
  9665     0D64  0008               	return
  9666     0D65                     __end_of_MAX6675_ConvertTemp:
  9667                           
  9668                           	psect	text39
  9669     0040                     __ptext39:	
  9670 ;; *************** function ___xxtofl *****************
  9671 ;; Defined at:
  9672 ;;		line 10 in file "C:\Program Files\Microchip\xc8\v2.46\pic\sources\c99\common\xxtofl.c"
  9673 ;; Parameters:    Size  Location     Type
  9674 ;;  sign            1    wreg     unsigned char 
  9675 ;;  val             4    0[COMMON] long 
  9676 ;; Auto vars:     Size  Location     Type
  9677 ;;  sign            1    8[COMMON] unsigned char 
  9678 ;;  arg             4   10[COMMON] unsigned long 
  9679 ;;  exp             1    9[COMMON] unsigned char 
  9680 ;; Return value:  Size  Location     Type
  9681 ;;                  4    0[COMMON] unsigned char 
  9682 ;; Registers used:
  9683 ;;		wreg, status,2, status,0
  9684 ;; Tracked objects:
  9685 ;;		On entry : 0/0
  9686 ;;		On exit  : 0/0
  9687 ;;		Unchanged: 0/0
  9688 ;; Data sizes:     COMMON   BANK0   BANK1   BANK2   BANK3   BANK4   BANK5   BANK6   BANK7   BANK8   BANK9  BANK10  BANK1
      +1  BANK12  BANK13  BANK14  BANK15  BANK16  BANK17  BANK18  BANK19  BANK20  BANK21  BANK22  BANK23  BANK24  BANK25
  9689 ;;      Params:         4       0       0       0       0       0       0       0       0       0       0       0       
      +0       0       0       0       0       0       0       0       0       0       0       0       0       0       0
  9690 ;;      Locals:         6       0       0       0       0       0       0       0       0       0       0       0       
      +0       0       0       0       0       0       0       0       0       0       0       0       0       0       0
  9691 ;;      Temps:          4       0       0       0       0       0       0       0       0       0       0       0       
      +0       0       0       0       0       0       0       0       0       0       0       0       0       0       0
  9692 ;;      Totals:        14       0       0       0       0       0       0       0       0       0       0       0       
      +0       0       0       0       0       0       0       0       0       0       0       0       0       0       0
  9693 ;;Total ram usage:       14 bytes
  9694 ;; Hardware stack levels used: 1
  9695 ;; This function calls:
  9696 ;;		Nothing
  9697 ;; This function is called by:
  9698 ;;		_displayTemperature
  9699 ;;		_MAX6675_ConvertTemp
  9700 ;; This function uses a non-reentrant model
  9701 ;;
  9702                           
  9703     0040                     ___xxtofl:	
  9704                           ;psect for function ___xxtofl
  9705                           
  9706                           
  9707                           ;incstack = 0
  9708                           ; Regs used in ___xxtofl: [wreg+status,2+status,0]
  9709                           ;___xxtofl@sign stored from wreg
  9710     0040  00F8               	movwf	___xxtofl@sign
  9711     0041                     l3455:
  9712     0041  0878               	movf	___xxtofl@sign,w
  9713     0042  1903               	btfsc	3,2
  9714     0043  2845               	goto	u4421
  9715     0044  2846               	goto	u4420
  9716     0045                     u4421:
  9717     0045  285A               	goto	l3461
  9718     0046                     u4420:
  9719     0046                     l3457:
  9720     0046  1FF3               	btfss	___xxtofl@val+3,7
  9721     0047  2849               	goto	u4431
  9722     0048  284A               	goto	u4430
  9723     0049                     u4431:
  9724     0049  285A               	goto	l3461
  9725     004A                     u4430:
  9726     004A                     l3459:
  9727     004A  0970               	comf	___xxtofl@val,w
  9728     004B  00FA               	movwf	___xxtofl@arg
  9729     004C  0971               	comf	___xxtofl@val+1,w
  9730     004D  00FB               	movwf	___xxtofl@arg+1
  9731     004E  0972               	comf	___xxtofl@val+2,w
  9732     004F  00FC               	movwf	___xxtofl@arg+2
  9733     0050  0973               	comf	___xxtofl@val+3,w
  9734     0051  00FD               	movwf	___xxtofl@arg+3
  9735     0052  0AFA               	incf	___xxtofl@arg,f
  9736     0053  1903               	skipnz
  9737     0054  0AFB               	incf	___xxtofl@arg+1,f
  9738     0055  1903               	skipnz
  9739     0056  0AFC               	incf	___xxtofl@arg+2,f
  9740     0057  1903               	skipnz
  9741     0058  0AFD               	incf	___xxtofl@arg+3,f
  9742     0059  2862               	goto	l942
  9743     005A                     l3461:
  9744     005A  0873               	movf	___xxtofl@val+3,w
  9745     005B  00FD               	movwf	___xxtofl@arg+3
  9746     005C  0872               	movf	___xxtofl@val+2,w
  9747     005D  00FC               	movwf	___xxtofl@arg+2
  9748     005E  0871               	movf	___xxtofl@val+1,w
  9749     005F  00FB               	movwf	___xxtofl@arg+1
  9750     0060  0870               	movf	___xxtofl@val,w
  9751     0061  00FA               	movwf	___xxtofl@arg
  9752     0062                     l942:
  9753     0062  0873               	movf	___xxtofl@val+3,w
  9754     0063  0472               	iorwf	___xxtofl@val+2,w
  9755     0064  0471               	iorwf	___xxtofl@val+1,w
  9756     0065  0470               	iorwf	___xxtofl@val,w
  9757     0066  1D03               	skipz
  9758     0067  2869               	goto	u4441
  9759     0068  286A               	goto	u4440
  9760     0069                     u4441:
  9761     0069  2873               	goto	l3467
  9762     006A                     u4440:
  9763     006A                     l3463:
  9764     006A  3000               	movlw	0
  9765     006B  00F3               	movwf	?___xxtofl+3
  9766     006C  3000               	movlw	0
  9767     006D  00F2               	movwf	?___xxtofl+2
  9768     006E  3000               	movlw	0
  9769     006F  00F1               	movwf	?___xxtofl+1
  9770     0070  3000               	movlw	0
  9771     0071  00F0               	movwf	?___xxtofl
  9772     0072  28E9               	goto	l944
  9773     0073                     l3467:
  9774     0073  3096               	movlw	150
  9775     0074  00F9               	movwf	___xxtofl@exp
  9776     0075  2881               	goto	l3471
  9777     0076                     l3469:
  9778     0076  3001               	movlw	1
  9779     0077  00F4               	movwf	??___xxtofl
  9780     0078  0874               	movf	??___xxtofl,w
  9781     0079  07F9               	addwf	___xxtofl@exp,f
  9782     007A  3001               	movlw	1
  9783     007B                     u4455:
  9784     007B  36FD               	lsrf	___xxtofl@arg+3,f
  9785     007C  0CFC               	rrf	___xxtofl@arg+2,f
  9786     007D  0CFB               	rrf	___xxtofl@arg+1,f
  9787     007E  0CFA               	rrf	___xxtofl@arg,f
  9788     007F  0B89               	decfsz	9,f
  9789     0080  287B               	goto	u4455
  9790     0081                     l3471:
  9791     0081  30FE               	movlw	254
  9792     0082  057D               	andwf	___xxtofl@arg+3,w
  9793     0083  1D03               	btfss	3,2
  9794     0084  2886               	goto	u4461
  9795     0085  2887               	goto	u4460
  9796     0086                     u4461:
  9797     0086  2876               	goto	l3469
  9798     0087                     u4460:
  9799     0087  289B               	goto	l948
  9800     0088                     l3473:
  9801     0088  3001               	movlw	1
  9802     0089  00F4               	movwf	??___xxtofl
  9803     008A  0874               	movf	??___xxtofl,w
  9804     008B  07F9               	addwf	___xxtofl@exp,f
  9805     008C                     l3475:
  9806     008C  3001               	movlw	1
  9807     008D  07FA               	addwf	___xxtofl@arg,f
  9808     008E  3000               	movlw	0
  9809     008F  3DFB               	addwfc	___xxtofl@arg+1,f
  9810     0090  3000               	movlw	0
  9811     0091  3DFC               	addwfc	___xxtofl@arg+2,f
  9812     0092  3000               	movlw	0
  9813     0093  3DFD               	addwfc	___xxtofl@arg+3,f
  9814     0094                     l3477:
  9815     0094  3001               	movlw	1
  9816     0095                     u4475:
  9817     0095  36FD               	lsrf	___xxtofl@arg+3,f
  9818     0096  0CFC               	rrf	___xxtofl@arg+2,f
  9819     0097  0CFB               	rrf	___xxtofl@arg+1,f
  9820     0098  0CFA               	rrf	___xxtofl@arg,f
  9821     0099  0B89               	decfsz	9,f
  9822     009A  2895               	goto	u4475
  9823     009B                     l948:
  9824     009B  30FF               	movlw	255
  9825     009C  057D               	andwf	___xxtofl@arg+3,w
  9826     009D  1D03               	btfss	3,2
  9827     009E  28A0               	goto	u4481
  9828     009F  28A1               	goto	u4480
  9829     00A0                     u4481:
  9830     00A0  2888               	goto	l3473
  9831     00A1                     u4480:
  9832     00A1  28AB               	goto	l3481
  9833     00A2                     l3479:
  9834     00A2  3001               	movlw	1
  9835     00A3  02F9               	subwf	___xxtofl@exp,f
  9836     00A4  3001               	movlw	1
  9837     00A5                     u4495:
  9838     00A5  35FA               	lslf	___xxtofl@arg,f
  9839     00A6  0DFB               	rlf	___xxtofl@arg+1,f
  9840     00A7  0DFC               	rlf	___xxtofl@arg+2,f
  9841     00A8  0DFD               	rlf	___xxtofl@arg+3,f
  9842     00A9  0B89               	decfsz	9,f
  9843     00AA  28A5               	goto	u4495
  9844     00AB                     l3481:
  9845     00AB  1BFC               	btfsc	___xxtofl@arg+2,7
  9846     00AC  28AE               	goto	u4501
  9847     00AD  28AF               	goto	u4500
  9848     00AE                     u4501:
  9849     00AE  28B5               	goto	l955
  9850     00AF                     u4500:
  9851     00AF                     l3483:
  9852     00AF  3002               	movlw	2
  9853     00B0  0279               	subwf	___xxtofl@exp,w
  9854     00B1  1803               	skipnc
  9855     00B2  28B4               	goto	u4511
  9856     00B3  28B5               	goto	u4510
  9857     00B4                     u4511:
  9858     00B4  28A2               	goto	l3479
  9859     00B5                     u4510:
  9860     00B5                     l955:
  9861     00B5  1879               	btfsc	___xxtofl@exp,0
  9862     00B6  28B8               	goto	u4521
  9863     00B7  28B9               	goto	u4520
  9864     00B8                     u4521:
  9865     00B8  28C1               	goto	l956
  9866     00B9                     u4520:
  9867     00B9                     l3485:
  9868     00B9  30FF               	movlw	255
  9869     00BA  05FA               	andwf	___xxtofl@arg,f
  9870     00BB  30FF               	movlw	255
  9871     00BC  05FB               	andwf	___xxtofl@arg+1,f
  9872     00BD  307F               	movlw	127
  9873     00BE  05FC               	andwf	___xxtofl@arg+2,f
  9874     00BF  30FF               	movlw	255
  9875     00C0  05FD               	andwf	___xxtofl@arg+3,f
  9876     00C1                     l956:
  9877     00C1  1003               	clrc
  9878     00C2  0CF9               	rrf	___xxtofl@exp,f
  9879     00C3                     l3487:
  9880     00C3  0879               	movf	___xxtofl@exp,w
  9881     00C4  00F4               	movwf	??___xxtofl
  9882     00C5  01F5               	clrf	??___xxtofl+1
  9883     00C6  01F6               	clrf	??___xxtofl+2
  9884     00C7  01F7               	clrf	??___xxtofl+3
  9885     00C8  3018               	movlw	24
  9886     00C9                     u4535:
  9887     00C9  35F4               	lslf	??___xxtofl,f
  9888     00CA  0DF5               	rlf	??___xxtofl+1,f
  9889     00CB  0DF6               	rlf	??___xxtofl+2,f
  9890     00CC  0DF7               	rlf	??___xxtofl+3,f
  9891     00CD                     u4530:
  9892     00CD  0B89               	decfsz	9,f
  9893     00CE  28C9               	goto	u4535
  9894     00CF  0874               	movf	??___xxtofl,w
  9895     00D0  04FA               	iorwf	___xxtofl@arg,f
  9896     00D1  0875               	movf	??___xxtofl+1,w
  9897     00D2  04FB               	iorwf	___xxtofl@arg+1,f
  9898     00D3  0876               	movf	??___xxtofl+2,w
  9899     00D4  04FC               	iorwf	___xxtofl@arg+2,f
  9900     00D5  0877               	movf	??___xxtofl+3,w
  9901     00D6  04FD               	iorwf	___xxtofl@arg+3,f
  9902     00D7                     l3489:
  9903     00D7  0878               	movf	___xxtofl@sign,w
  9904     00D8  1903               	btfsc	3,2
  9905     00D9  28DB               	goto	u4541
  9906     00DA  28DC               	goto	u4540
  9907     00DB                     u4541:
  9908     00DB  28E1               	goto	l3495
  9909     00DC                     u4540:
  9910     00DC                     l3491:
  9911     00DC  1FF3               	btfss	___xxtofl@val+3,7
  9912     00DD  28DF               	goto	u4551
  9913     00DE  28E0               	goto	u4550
  9914     00DF                     u4551:
  9915     00DF  28E1               	goto	l3495
  9916     00E0                     u4550:
  9917     00E0                     l3493:
  9918     00E0  17FD               	bsf	___xxtofl@arg+3,7
  9919     00E1                     l3495:
  9920     00E1  087D               	movf	___xxtofl@arg+3,w
  9921     00E2  00F3               	movwf	?___xxtofl+3
  9922     00E3  087C               	movf	___xxtofl@arg+2,w
  9923     00E4  00F2               	movwf	?___xxtofl+2
  9924     00E5  087B               	movf	___xxtofl@arg+1,w
  9925     00E6  00F1               	movwf	?___xxtofl+1
  9926     00E7  087A               	movf	___xxtofl@arg,w
  9927     00E8  00F0               	movwf	?___xxtofl
  9928     00E9                     l944:
  9929     00E9  0008               	return
  9930     00EA                     __end_of___xxtofl:
  9931                           
  9932                           	psect	text40
  9933     01A4                     __ptext40:	
  9934 ;; *************** function ___flmul *****************
  9935 ;; Defined at:
  9936 ;;		line 8 in file "C:\Program Files\Microchip\xc8\v2.46\pic\sources\c99\common\sprcmul.c"
  9937 ;; Parameters:    Size  Location     Type
  9938 ;;  b               4   24[BANK0 ] unsigned char 
  9939 ;;  a               4   28[BANK0 ] unsigned char 
  9940 ;; Auto vars:     Size  Location     Type
  9941 ;;  prod            4   44[BANK0 ] struct .
  9942 ;;  grs             4   38[BANK0 ] unsigned long 
  9943 ;;  temp            2   48[BANK0 ] struct .
  9944 ;;  bexp            1   43[BANK0 ] unsigned char 
  9945 ;;  aexp            1   42[BANK0 ] unsigned char 
  9946 ;;  sign            1   37[BANK0 ] unsigned char 
  9947 ;; Return value:  Size  Location     Type
  9948 ;;                  4   24[BANK0 ] unsigned char 
  9949 ;; Registers used:
  9950 ;;		wreg, status,2, status,0, pclath, cstack
  9951 ;; Tracked objects:
  9952 ;;		On entry : 0/0
  9953 ;;		On exit  : 0/0
  9954 ;;		Unchanged: 0/0
  9955 ;; Data sizes:     COMMON   BANK0   BANK1   BANK2   BANK3   BANK4   BANK5   BANK6   BANK7   BANK8   BANK9  BANK10  BANK1
      +1  BANK12  BANK13  BANK14  BANK15  BANK16  BANK17  BANK18  BANK19  BANK20  BANK21  BANK22  BANK23  BANK24  BANK25
  9956 ;;      Params:         0       8       0       0       0       0       0       0       0       0       0       0       
      +0       0       0       0       0       0       0       0       0       0       0       0       0       0       0
  9957 ;;      Locals:         0      13       0       0       0       0       0       0       0       0       0       0       
      +0       0       0       0       0       0       0       0       0       0       0       0       0       0       0
  9958 ;;      Temps:          0       5       0       0       0       0       0       0       0       0       0       0       
      +0       0       0       0       0       0       0       0       0       0       0       0       0       0       0
  9959 ;;      Totals:         0      26       0       0       0       0       0       0       0       0       0       0       
      +0       0       0       0       0       0       0       0       0       0       0       0       0       0       0
  9960 ;;Total ram usage:       26 bytes
  9961 ;; Hardware stack levels used: 1
  9962 ;; Hardware stack levels required when called: 1
  9963 ;; This function calls:
  9964 ;;		__Umul8_16
  9965 ;; This function is called by:
  9966 ;;		_displayTemperature
  9967 ;;		_MAX6675_ConvertTemp
  9968 ;; This function uses a non-reentrant model
  9969 ;;
  9970                           
  9971     01A4                     ___flmul:	
  9972                           ;psect for function ___flmul
  9973                           
  9974     01A4                     l3315:	
  9975                           ;incstack = 0
  9976                           ; Regs used in ___flmul: [wreg+status,2+status,0+pclath+cstack]
  9977                           
  9978     01A4  0020               	movlb	0	; select bank0
  9979     01A5  083B               	movf	___flmul@b+3,w
  9980     01A6  3980               	andlw	128
  9981     01A7  00C5               	movwf	___flmul@sign
  9982     01A8                     l3317:
  9983     01A8  353B               	lslf	___flmul@b+3,w
  9984     01A9  00CB               	movwf	___flmul@bexp
  9985     01AA                     l3319:
  9986     01AA  1FBA               	btfss	___flmul@b+2,7
  9987     01AB  29AD               	goto	u4161
  9988     01AC  29AE               	goto	u4160
  9989     01AD                     u4161:
  9990     01AD  29AF               	goto	l3323
  9991     01AE                     u4160:
  9992     01AE                     l3321:
  9993     01AE  144B               	bsf	___flmul@bexp,0
  9994     01AF                     l3323:
  9995     01AF  084B               	movf	___flmul@bexp,w
  9996     01B0  1903               	btfsc	3,2
  9997     01B1  29B3               	goto	u4171
  9998     01B2  29B4               	goto	u4170
  9999     01B3                     u4171:
 10000     01B3  29C3               	goto	l3331
 10001     01B4                     u4170:
 10002     01B4                     l3325:
 10003     01B4  0A4B               	incf	___flmul@bexp,w
 10004     01B5  1D03               	btfss	3,2
 10005     01B6  29B8               	goto	u4181
 10006     01B7  29B9               	goto	u4180
 10007     01B8                     u4181:
 10008     01B8  29C1               	goto	l3329
 10009     01B9                     u4180:
 10010     01B9                     l3327:
 10011     01B9  3000               	movlw	0
 10012     01BA  00BB               	movwf	___flmul@b+3
 10013     01BB  3000               	movlw	0
 10014     01BC  00BA               	movwf	___flmul@b+2
 10015     01BD  3000               	movlw	0
 10016     01BE  00B9               	movwf	___flmul@b+1
 10017     01BF  3000               	movlw	0
 10018     01C0  00B8               	movwf	___flmul@b
 10019     01C1                     l3329:
 10020     01C1  17BA               	bsf	___flmul@b+2,7
 10021     01C2  29CB               	goto	l3333
 10022     01C3                     l3331:
 10023     01C3  3000               	movlw	0
 10024     01C4  00BB               	movwf	___flmul@b+3
 10025     01C5  3000               	movlw	0
 10026     01C6  00BA               	movwf	___flmul@b+2
 10027     01C7  3000               	movlw	0
 10028     01C8  00B9               	movwf	___flmul@b+1
 10029     01C9  3000               	movlw	0
 10030     01CA  00B8               	movwf	___flmul@b
 10031     01CB                     l3333:
 10032     01CB  083F               	movf	___flmul@a+3,w
 10033     01CC  3980               	andlw	128
 10034     01CD  00C0               	movwf	??___flmul
 10035     01CE  0840               	movf	??___flmul,w
 10036     01CF  06C5               	xorwf	___flmul@sign,f
 10037     01D0                     l3335:
 10038     01D0  353F               	lslf	___flmul@a+3,w
 10039     01D1  00CA               	movwf	___flmul@aexp
 10040     01D2                     l3337:
 10041     01D2  1FBE               	btfss	___flmul@a+2,7
 10042     01D3  29D5               	goto	u4191
 10043     01D4  29D6               	goto	u4190
 10044     01D5                     u4191:
 10045     01D5  29D7               	goto	l3341
 10046     01D6                     u4190:
 10047     01D6                     l3339:
 10048     01D6  144A               	bsf	___flmul@aexp,0
 10049     01D7                     l3341:
 10050     01D7  084A               	movf	___flmul@aexp,w
 10051     01D8  1903               	btfsc	3,2
 10052     01D9  29DB               	goto	u4201
 10053     01DA  29DC               	goto	u4200
 10054     01DB                     u4201:
 10055     01DB  29EB               	goto	l3349
 10056     01DC                     u4200:
 10057     01DC                     l3343:
 10058     01DC  0A4A               	incf	___flmul@aexp,w
 10059     01DD  1D03               	btfss	3,2
 10060     01DE  29E0               	goto	u4211
 10061     01DF  29E1               	goto	u4210
 10062     01E0                     u4211:
 10063     01E0  29E9               	goto	l3347
 10064     01E1                     u4210:
 10065     01E1                     l3345:
 10066     01E1  3000               	movlw	0
 10067     01E2  00BF               	movwf	___flmul@a+3
 10068     01E3  3000               	movlw	0
 10069     01E4  00BE               	movwf	___flmul@a+2
 10070     01E5  3000               	movlw	0
 10071     01E6  00BD               	movwf	___flmul@a+1
 10072     01E7  3000               	movlw	0
 10073     01E8  00BC               	movwf	___flmul@a
 10074     01E9                     l3347:
 10075     01E9  17BE               	bsf	___flmul@a+2,7
 10076     01EA  29F3               	goto	l3351
 10077     01EB                     l3349:
 10078     01EB  3000               	movlw	0
 10079     01EC  00BF               	movwf	___flmul@a+3
 10080     01ED  3000               	movlw	0
 10081     01EE  00BE               	movwf	___flmul@a+2
 10082     01EF  3000               	movlw	0
 10083     01F0  00BD               	movwf	___flmul@a+1
 10084     01F1  3000               	movlw	0
 10085     01F2  00BC               	movwf	___flmul@a
 10086     01F3                     l3351:
 10087     01F3  084A               	movf	___flmul@aexp,w
 10088     01F4  1903               	btfsc	3,2
 10089     01F5  29F7               	goto	u4221
 10090     01F6  29F8               	goto	u4220
 10091     01F7                     u4221:
 10092     01F7  29FD               	goto	l3355
 10093     01F8                     u4220:
 10094     01F8                     l3353:
 10095     01F8  084B               	movf	___flmul@bexp,w
 10096     01F9  1D03               	btfss	3,2
 10097     01FA  29FC               	goto	u4231
 10098     01FB  29FD               	goto	u4230
 10099     01FC                     u4231:
 10100     01FC  2A06               	goto	l3359
 10101     01FD                     u4230:
 10102     01FD                     l3355:
 10103     01FD  3000               	movlw	0
 10104     01FE  00BB               	movwf	?___flmul+3
 10105     01FF  3000               	movlw	0
 10106     0200  00BA               	movwf	?___flmul+2
 10107     0201  3000               	movlw	0
 10108     0202  00B9               	movwf	?___flmul+1
 10109     0203  3000               	movlw	0
 10110     0204  00B8               	movwf	?___flmul
 10111     0205  2BDE               	goto	l898
 10112     0206                     l3359:
 10113     0206  0838               	movf	___flmul@b,w
 10114     0207  00F0               	movwf	__Umul8_16@multiplicand
 10115     0208  083E               	movf	___flmul@a+2,w
 10116     0209  3193  2349  3181   	fcall	__Umul8_16
 10117     020C  0871               	movf	?__Umul8_16+1,w
 10118     020D  0020               	movlb	0	; select bank0
 10119     020E  00D1               	movwf	___flmul@temp+1
 10120     020F  0870               	movf	?__Umul8_16,w
 10121     0210  00D0               	movwf	___flmul@temp
 10122     0211                     l3361:
 10123     0211  0850               	movf	___flmul@temp,w
 10124     0212  00C0               	movwf	??___flmul
 10125     0213  01C1               	clrf	??___flmul+1
 10126     0214  01C2               	clrf	??___flmul+2
 10127     0215  01C3               	clrf	??___flmul+3
 10128     0216  0843               	movf	??___flmul+3,w
 10129     0217  00C9               	movwf	___flmul@grs+3
 10130     0218  0842               	movf	??___flmul+2,w
 10131     0219  00C8               	movwf	___flmul@grs+2
 10132     021A  0841               	movf	??___flmul+1,w
 10133     021B  00C7               	movwf	___flmul@grs+1
 10134     021C  0840               	movf	??___flmul,w
 10135     021D  00C6               	movwf	___flmul@grs
 10136     021E                     l3363:
 10137     021E  0851               	movf	___flmul@temp+1,w
 10138     021F  00C0               	movwf	??___flmul
 10139     0220  01C1               	clrf	??___flmul+1
 10140     0221  01C2               	clrf	??___flmul+2
 10141     0222  01C3               	clrf	??___flmul+3
 10142     0223  0843               	movf	??___flmul+3,w
 10143     0224  00CF               	movwf	___flmul@prod+3
 10144     0225  0842               	movf	??___flmul+2,w
 10145     0226  00CE               	movwf	___flmul@prod+2
 10146     0227  0841               	movf	??___flmul+1,w
 10147     0228  00CD               	movwf	___flmul@prod+1
 10148     0229  0840               	movf	??___flmul,w
 10149     022A  00CC               	movwf	___flmul@prod
 10150     022B  0839               	movf	___flmul@b+1,w
 10151     022C  00F0               	movwf	__Umul8_16@multiplicand
 10152     022D  083D               	movf	___flmul@a+1,w
 10153     022E  3193  2349  3181   	fcall	__Umul8_16
 10154     0231  0871               	movf	?__Umul8_16+1,w
 10155     0232  0020               	movlb	0	; select bank0
 10156     0233  00D1               	movwf	___flmul@temp+1
 10157     0234  0870               	movf	?__Umul8_16,w
 10158     0235  00D0               	movwf	___flmul@temp
 10159     0236                     l3365:
 10160     0236  0850               	movf	___flmul@temp,w
 10161     0237  00C0               	movwf	??___flmul
 10162     0238  01C1               	clrf	??___flmul+1
 10163     0239  01C2               	clrf	??___flmul+2
 10164     023A  01C3               	clrf	??___flmul+3
 10165     023B  0840               	movf	??___flmul,w
 10166     023C  07C6               	addwf	___flmul@grs,f
 10167     023D  0841               	movf	??___flmul+1,w
 10168     023E  3DC7               	addwfc	___flmul@grs+1,f
 10169     023F  0842               	movf	??___flmul+2,w
 10170     0240  3DC8               	addwfc	___flmul@grs+2,f
 10171     0241  0843               	movf	??___flmul+3,w
 10172     0242  3DC9               	addwfc	___flmul@grs+3,f
 10173     0243                     l3367:
 10174     0243  0851               	movf	___flmul@temp+1,w
 10175     0244  00C0               	movwf	??___flmul
 10176     0245  01C1               	clrf	??___flmul+1
 10177     0246  01C2               	clrf	??___flmul+2
 10178     0247  01C3               	clrf	??___flmul+3
 10179     0248  0840               	movf	??___flmul,w
 10180     0249  07CC               	addwf	___flmul@prod,f
 10181     024A  0841               	movf	??___flmul+1,w
 10182     024B  3DCD               	addwfc	___flmul@prod+1,f
 10183     024C  0842               	movf	??___flmul+2,w
 10184     024D  3DCE               	addwfc	___flmul@prod+2,f
 10185     024E  0843               	movf	??___flmul+3,w
 10186     024F  3DCF               	addwfc	___flmul@prod+3,f
 10187     0250  083A               	movf	___flmul@b+2,w
 10188     0251  00F0               	movwf	__Umul8_16@multiplicand
 10189     0252  083C               	movf	___flmul@a,w
 10190     0253  3193  2349  3181   	fcall	__Umul8_16
 10191     0256  0871               	movf	?__Umul8_16+1,w
 10192     0257  0020               	movlb	0	; select bank0
 10193     0258  00D1               	movwf	___flmul@temp+1
 10194     0259  0870               	movf	?__Umul8_16,w
 10195     025A  00D0               	movwf	___flmul@temp
 10196     025B                     l3369:
 10197     025B  0850               	movf	___flmul@temp,w
 10198     025C  00C0               	movwf	??___flmul
 10199     025D  01C1               	clrf	??___flmul+1
 10200     025E  01C2               	clrf	??___flmul+2
 10201     025F  01C3               	clrf	??___flmul+3
 10202     0260  0840               	movf	??___flmul,w
 10203     0261  07C6               	addwf	___flmul@grs,f
 10204     0262  0841               	movf	??___flmul+1,w
 10205     0263  3DC7               	addwfc	___flmul@grs+1,f
 10206     0264  0842               	movf	??___flmul+2,w
 10207     0265  3DC8               	addwfc	___flmul@grs+2,f
 10208     0266  0843               	movf	??___flmul+3,w
 10209     0267  3DC9               	addwfc	___flmul@grs+3,f
 10210     0268                     l3371:
 10211     0268  0851               	movf	___flmul@temp+1,w
 10212     0269  00C0               	movwf	??___flmul
 10213     026A  01C1               	clrf	??___flmul+1
 10214     026B  01C2               	clrf	??___flmul+2
 10215     026C  01C3               	clrf	??___flmul+3
 10216     026D  0840               	movf	??___flmul,w
 10217     026E  07CC               	addwf	___flmul@prod,f
 10218     026F  0841               	movf	??___flmul+1,w
 10219     0270  3DCD               	addwfc	___flmul@prod+1,f
 10220     0271  0842               	movf	??___flmul+2,w
 10221     0272  3DCE               	addwfc	___flmul@prod+2,f
 10222     0273  0843               	movf	??___flmul+3,w
 10223     0274  3DCF               	addwfc	___flmul@prod+3,f
 10224     0275                     l3373:
 10225     0275  3008               	movlw	8
 10226     0276                     u4245:
 10227     0276  35C6               	lslf	___flmul@grs,f
 10228     0277  0DC7               	rlf	___flmul@grs+1,f
 10229     0278  0DC8               	rlf	___flmul@grs+2,f
 10230     0279  0DC9               	rlf	___flmul@grs+3,f
 10231     027A  0B89               	decfsz	9,f
 10232     027B  2A76               	goto	u4245
 10233     027C                     l3375:
 10234     027C  0839               	movf	___flmul@b+1,w
 10235     027D  00F0               	movwf	__Umul8_16@multiplicand
 10236     027E  083C               	movf	___flmul@a,w
 10237     027F  3193  2349  3181   	fcall	__Umul8_16
 10238     0282  0871               	movf	?__Umul8_16+1,w
 10239     0283  0020               	movlb	0	; select bank0
 10240     0284  00D1               	movwf	___flmul@temp+1
 10241     0285  0870               	movf	?__Umul8_16,w
 10242     0286  00D0               	movwf	___flmul@temp
 10243     0287                     l3377:
 10244     0287  0850               	movf	___flmul@temp,w
 10245     0288  07C6               	addwf	___flmul@grs,f
 10246     0289  0851               	movf	___flmul@temp+1,w
 10247     028A  3DC7               	addwfc	___flmul@grs+1,f
 10248     028B  3000               	movlw	0
 10249     028C  3DC8               	addwfc	___flmul@grs+2,f
 10250     028D  3DC9               	addwfc	___flmul@grs+3,f
 10251     028E                     l3379:
 10252     028E  0838               	movf	___flmul@b,w
 10253     028F  00F0               	movwf	__Umul8_16@multiplicand
 10254     0290  083D               	movf	___flmul@a+1,w
 10255     0291  3193  2349  3181   	fcall	__Umul8_16
 10256     0294  0871               	movf	?__Umul8_16+1,w
 10257     0295  0020               	movlb	0	; select bank0
 10258     0296  00D1               	movwf	___flmul@temp+1
 10259     0297  0870               	movf	?__Umul8_16,w
 10260     0298  00D0               	movwf	___flmul@temp
 10261     0299                     l3381:
 10262     0299  0850               	movf	___flmul@temp,w
 10263     029A  07C6               	addwf	___flmul@grs,f
 10264     029B  0851               	movf	___flmul@temp+1,w
 10265     029C  3DC7               	addwfc	___flmul@grs+1,f
 10266     029D  3000               	movlw	0
 10267     029E  3DC8               	addwfc	___flmul@grs+2,f
 10268     029F  3DC9               	addwfc	___flmul@grs+3,f
 10269     02A0                     l3383:
 10270     02A0  3008               	movlw	8
 10271     02A1                     u4255:
 10272     02A1  35C6               	lslf	___flmul@grs,f
 10273     02A2  0DC7               	rlf	___flmul@grs+1,f
 10274     02A3  0DC8               	rlf	___flmul@grs+2,f
 10275     02A4  0DC9               	rlf	___flmul@grs+3,f
 10276     02A5  0B89               	decfsz	9,f
 10277     02A6  2AA1               	goto	u4255
 10278     02A7  0838               	movf	___flmul@b,w
 10279     02A8  00F0               	movwf	__Umul8_16@multiplicand
 10280     02A9  083C               	movf	___flmul@a,w
 10281     02AA  3193  2349  3181   	fcall	__Umul8_16
 10282     02AD  0871               	movf	?__Umul8_16+1,w
 10283     02AE  0020               	movlb	0	; select bank0
 10284     02AF  00D1               	movwf	___flmul@temp+1
 10285     02B0  0870               	movf	?__Umul8_16,w
 10286     02B1  00D0               	movwf	___flmul@temp
 10287     02B2                     l3385:
 10288     02B2  0850               	movf	___flmul@temp,w
 10289     02B3  07C6               	addwf	___flmul@grs,f
 10290     02B4  0851               	movf	___flmul@temp+1,w
 10291     02B5  3DC7               	addwfc	___flmul@grs+1,f
 10292     02B6  3000               	movlw	0
 10293     02B7  3DC8               	addwfc	___flmul@grs+2,f
 10294     02B8  3DC9               	addwfc	___flmul@grs+3,f
 10295     02B9                     l3387:
 10296     02B9  0839               	movf	___flmul@b+1,w
 10297     02BA  00F0               	movwf	__Umul8_16@multiplicand
 10298     02BB  083E               	movf	___flmul@a+2,w
 10299     02BC  3193  2349  3181   	fcall	__Umul8_16
 10300     02BF  0871               	movf	?__Umul8_16+1,w
 10301     02C0  0020               	movlb	0	; select bank0
 10302     02C1  00D1               	movwf	___flmul@temp+1
 10303     02C2  0870               	movf	?__Umul8_16,w
 10304     02C3  00D0               	movwf	___flmul@temp
 10305     02C4  0850               	movf	___flmul@temp,w
 10306     02C5  07CC               	addwf	___flmul@prod,f
 10307     02C6  0851               	movf	___flmul@temp+1,w
 10308     02C7  3DCD               	addwfc	___flmul@prod+1,f
 10309     02C8  3000               	movlw	0
 10310     02C9  3DCE               	addwfc	___flmul@prod+2,f
 10311     02CA  3DCF               	addwfc	___flmul@prod+3,f
 10312     02CB                     l3389:
 10313     02CB  083A               	movf	___flmul@b+2,w
 10314     02CC  00F0               	movwf	__Umul8_16@multiplicand
 10315     02CD  083D               	movf	___flmul@a+1,w
 10316     02CE  3193  2349  3181   	fcall	__Umul8_16
 10317     02D1  0871               	movf	?__Umul8_16+1,w
 10318     02D2  0020               	movlb	0	; select bank0
 10319     02D3  00D1               	movwf	___flmul@temp+1
 10320     02D4  0870               	movf	?__Umul8_16,w
 10321     02D5  00D0               	movwf	___flmul@temp
 10322     02D6                     l3391:
 10323     02D6  0850               	movf	___flmul@temp,w
 10324     02D7  07CC               	addwf	___flmul@prod,f
 10325     02D8  0851               	movf	___flmul@temp+1,w
 10326     02D9  3DCD               	addwfc	___flmul@prod+1,f
 10327     02DA  3000               	movlw	0
 10328     02DB  3DCE               	addwfc	___flmul@prod+2,f
 10329     02DC  3DCF               	addwfc	___flmul@prod+3,f
 10330     02DD  083A               	movf	___flmul@b+2,w
 10331     02DE  00F0               	movwf	__Umul8_16@multiplicand
 10332     02DF  083E               	movf	___flmul@a+2,w
 10333     02E0  3193  2349  3181   	fcall	__Umul8_16
 10334     02E3  0871               	movf	?__Umul8_16+1,w
 10335     02E4  0020               	movlb	0	; select bank0
 10336     02E5  00D1               	movwf	___flmul@temp+1
 10337     02E6  0870               	movf	?__Umul8_16,w
 10338     02E7  00D0               	movwf	___flmul@temp
 10339     02E8                     l3393:
 10340     02E8  0850               	movf	___flmul@temp,w
 10341     02E9  00C0               	movwf	??___flmul
 10342     02EA  0851               	movf	___flmul@temp+1,w
 10343     02EB  00C1               	movwf	??___flmul+1
 10344     02EC  01C2               	clrf	??___flmul+2
 10345     02ED  01C3               	clrf	??___flmul+3
 10346     02EE  3008               	movlw	8
 10347     02EF                     u4265:
 10348     02EF  35C0               	lslf	??___flmul,f
 10349     02F0  0DC1               	rlf	??___flmul+1,f
 10350     02F1  0DC2               	rlf	??___flmul+2,f
 10351     02F2  0DC3               	rlf	??___flmul+3,f
 10352     02F3                     u4260:
 10353     02F3  0B89               	decfsz	9,f
 10354     02F4  2AEF               	goto	u4265
 10355     02F5  0840               	movf	??___flmul,w
 10356     02F6  07CC               	addwf	___flmul@prod,f
 10357     02F7  0841               	movf	??___flmul+1,w
 10358     02F8  3DCD               	addwfc	___flmul@prod+1,f
 10359     02F9  0842               	movf	??___flmul+2,w
 10360     02FA  3DCE               	addwfc	___flmul@prod+2,f
 10361     02FB  0843               	movf	??___flmul+3,w
 10362     02FC  3DCF               	addwfc	___flmul@prod+3,f
 10363     02FD                     l3395:
 10364     02FD  0846               	movf	___flmul@grs,w
 10365     02FE  00C0               	movwf	??___flmul
 10366     02FF  0847               	movf	___flmul@grs+1,w
 10367     0300  00C1               	movwf	??___flmul+1
 10368     0301  0848               	movf	___flmul@grs+2,w
 10369     0302  00C2               	movwf	??___flmul+2
 10370     0303  0849               	movf	___flmul@grs+3,w
 10371     0304  00C3               	movwf	??___flmul+3
 10372     0305  3018               	movlw	24
 10373     0306                     u4275:
 10374     0306  36C3               	lsrf	??___flmul+3,f
 10375     0307  0CC2               	rrf	??___flmul+2,f
 10376     0308  0CC1               	rrf	??___flmul+1,f
 10377     0309  0CC0               	rrf	??___flmul,f
 10378     030A                     u4270:
 10379     030A  0B89               	decfsz	9,f
 10380     030B  2B06               	goto	u4275
 10381     030C  0840               	movf	??___flmul,w
 10382     030D  07CC               	addwf	___flmul@prod,f
 10383     030E  0841               	movf	??___flmul+1,w
 10384     030F  3DCD               	addwfc	___flmul@prod+1,f
 10385     0310  0842               	movf	??___flmul+2,w
 10386     0311  3DCE               	addwfc	___flmul@prod+2,f
 10387     0312  0843               	movf	??___flmul+3,w
 10388     0313  3DCF               	addwfc	___flmul@prod+3,f
 10389     0314                     l3397:
 10390     0314  3008               	movlw	8
 10391     0315                     u4285:
 10392     0315  35C6               	lslf	___flmul@grs,f
 10393     0316  0DC7               	rlf	___flmul@grs+1,f
 10394     0317  0DC8               	rlf	___flmul@grs+2,f
 10395     0318  0DC9               	rlf	___flmul@grs+3,f
 10396     0319  0B89               	decfsz	9,f
 10397     031A  2B15               	goto	u4285
 10398     031B                     l3399:
 10399     031B  084B               	movf	___flmul@bexp,w
 10400     031C  074A               	addwf	___flmul@aexp,w
 10401     031D  00C0               	movwf	??___flmul
 10402     031E  01C1               	clrf	??___flmul+1
 10403     031F  0DC1               	rlf	??___flmul+1,f
 10404     0320  0840               	movf	??___flmul,w
 10405     0321  3E82               	addlw	130
 10406     0322  00D0               	movwf	___flmul@temp
 10407     0323  30FF               	movlw	255
 10408     0324  3D41               	addwfc	??___flmul+1,w
 10409     0325  00D1               	movwf	___flmul@temp+1
 10410     0326  2B3E               	goto	l3411
 10411     0327                     l3401:
 10412     0327  3001               	movlw	1
 10413     0328                     u4295:
 10414     0328  35CC               	lslf	___flmul@prod,f
 10415     0329  0DCD               	rlf	___flmul@prod+1,f
 10416     032A  0DCE               	rlf	___flmul@prod+2,f
 10417     032B  0DCF               	rlf	___flmul@prod+3,f
 10418     032C  0B89               	decfsz	9,f
 10419     032D  2B28               	goto	u4295
 10420     032E                     l3403:
 10421     032E  1FC9               	btfss	___flmul@grs+3,7
 10422     032F  2B31               	goto	u4301
 10423     0330  2B32               	goto	u4300
 10424     0331                     u4301:
 10425     0331  2B33               	goto	l3407
 10426     0332                     u4300:
 10427     0332                     l3405:
 10428     0332  144C               	bsf	___flmul@prod,0
 10429     0333                     l3407:
 10430     0333  3001               	movlw	1
 10431     0334                     u4315:
 10432     0334  35C6               	lslf	___flmul@grs,f
 10433     0335  0DC7               	rlf	___flmul@grs+1,f
 10434     0336  0DC8               	rlf	___flmul@grs+2,f
 10435     0337  0DC9               	rlf	___flmul@grs+3,f
 10436     0338  0B89               	decfsz	9,f
 10437     0339  2B34               	goto	u4315
 10438     033A                     l3409:
 10439     033A  30FF               	movlw	255
 10440     033B  07D0               	addwf	___flmul@temp,f
 10441     033C  30FF               	movlw	255
 10442     033D  3DD1               	addwfc	___flmul@temp+1,f
 10443     033E                     l3411:
 10444     033E  1FCE               	btfss	___flmul@prod+2,7
 10445     033F  2B41               	goto	u4321
 10446     0340  2B42               	goto	u4320
 10447     0341                     u4321:
 10448     0341  2B27               	goto	l3401
 10449     0342                     u4320:
 10450     0342                     l3413:
 10451     0342  01CA               	clrf	___flmul@aexp
 10452     0343                     l3415:
 10453     0343  1FC9               	btfss	___flmul@grs+3,7
 10454     0344  2B46               	goto	u4331
 10455     0345  2B47               	goto	u4330
 10456     0346                     u4331:
 10457     0346  2B63               	goto	l3423
 10458     0347                     u4330:
 10459     0347                     l3417:
 10460     0347  30FF               	movlw	255
 10461     0348  0546               	andwf	___flmul@grs,w
 10462     0349  00C0               	movwf	??___flmul
 10463     034A  30FF               	movlw	255
 10464     034B  0547               	andwf	___flmul@grs+1,w
 10465     034C  00C1               	movwf	??___flmul+1
 10466     034D  30FF               	movlw	255
 10467     034E  0548               	andwf	___flmul@grs+2,w
 10468     034F  00C2               	movwf	??___flmul+2
 10469     0350  307F               	movlw	127
 10470     0351  0549               	andwf	___flmul@grs+3,w
 10471     0352  00C3               	movwf	??___flmul+3
 10472     0353  0843               	movf	??___flmul+3,w
 10473     0354  0442               	iorwf	??___flmul+2,w
 10474     0355  0441               	iorwf	??___flmul+1,w
 10475     0356  0440               	iorwf	??___flmul,w
 10476     0357  1903               	skipnz
 10477     0358  2B5A               	goto	u4341
 10478     0359  2B5B               	goto	u4340
 10479     035A                     u4341:
 10480     035A  2B5E               	goto	l904
 10481     035B                     u4340:
 10482     035B                     l3419:
 10483     035B  01CA               	clrf	___flmul@aexp
 10484     035C  0ACA               	incf	___flmul@aexp,f
 10485     035D  2B63               	goto	l3423
 10486     035E                     l904:
 10487     035E  1C4C               	btfss	___flmul@prod,0
 10488     035F  2B61               	goto	u4351
 10489     0360  2B62               	goto	u4350
 10490     0361                     u4351:
 10491     0361  2B63               	goto	l3423
 10492     0362                     u4350:
 10493     0362  2B5B               	goto	l3419
 10494     0363                     l3423:
 10495     0363  084A               	movf	___flmul@aexp,w
 10496     0364  1903               	btfsc	3,2
 10497     0365  2B67               	goto	u4361
 10498     0366  2B68               	goto	u4360
 10499     0367                     u4361:
 10500     0367  2B90               	goto	l3433
 10501     0368                     u4360:
 10502     0368                     l3425:
 10503     0368  3001               	movlw	1
 10504     0369  07CC               	addwf	___flmul@prod,f
 10505     036A  3000               	movlw	0
 10506     036B  3DCD               	addwfc	___flmul@prod+1,f
 10507     036C  3000               	movlw	0
 10508     036D  3DCE               	addwfc	___flmul@prod+2,f
 10509     036E  3000               	movlw	0
 10510     036F  3DCF               	addwfc	___flmul@prod+3,f
 10511     0370                     l3427:
 10512     0370  1C4F               	btfss	___flmul@prod+3,0
 10513     0371  2B73               	goto	u4371
 10514     0372  2B74               	goto	u4370
 10515     0373                     u4371:
 10516     0373  2B90               	goto	l3433
 10517     0374                     u4370:
 10518     0374                     l3429:
 10519     0374  084C               	movf	___flmul@prod,w
 10520     0375  00C0               	movwf	??___flmul
 10521     0376  084D               	movf	___flmul@prod+1,w
 10522     0377  00C1               	movwf	??___flmul+1
 10523     0378  084E               	movf	___flmul@prod+2,w
 10524     0379  00C2               	movwf	??___flmul+2
 10525     037A  084F               	movf	___flmul@prod+3,w
 10526     037B  00C3               	movwf	??___flmul+3
 10527     037C  3001               	movlw	1
 10528     037D  00C4               	movwf	??___flmul+4
 10529     037E                     u4385:
 10530     037E  37C3               	asrf	??___flmul+3,f
 10531     037F  0CC2               	rrf	??___flmul+2,f
 10532     0380  0CC1               	rrf	??___flmul+1,f
 10533     0381  0CC0               	rrf	??___flmul,f
 10534     0382                     u4380:
 10535     0382  0BC4               	decfsz	??___flmul+4,f
 10536     0383  2B7E               	goto	u4385
 10537     0384  0843               	movf	??___flmul+3,w
 10538     0385  00CF               	movwf	___flmul@prod+3
 10539     0386  0842               	movf	??___flmul+2,w
 10540     0387  00CE               	movwf	___flmul@prod+2
 10541     0388  0841               	movf	??___flmul+1,w
 10542     0389  00CD               	movwf	___flmul@prod+1
 10543     038A  0840               	movf	??___flmul,w
 10544     038B  00CC               	movwf	___flmul@prod
 10545     038C                     l3431:
 10546     038C  3001               	movlw	1
 10547     038D  07D0               	addwf	___flmul@temp,f
 10548     038E  3000               	movlw	0
 10549     038F  3DD1               	addwfc	___flmul@temp+1,f
 10550     0390                     l3433:
 10551     0390  0851               	movf	___flmul@temp+1,w
 10552     0391  3A80               	xorlw	128
 10553     0392  00C0               	movwf	??___flmul
 10554     0393  3080               	movlw	128
 10555     0394  0240               	subwf	??___flmul,w
 10556     0395  1D03               	skipz
 10557     0396  2B99               	goto	u4395
 10558     0397  30FF               	movlw	255
 10559     0398  0250               	subwf	___flmul@temp,w
 10560     0399                     u4395:
 10561     0399  1C03               	skipc
 10562     039A  2B9C               	goto	u4391
 10563     039B  2B9D               	goto	u4390
 10564     039C                     u4391:
 10565     039C  2BA7               	goto	l3437
 10566     039D                     u4390:
 10567     039D                     l3435:
 10568     039D  307F               	movlw	127
 10569     039E  0020               	movlb	0	; select bank0
 10570     039F  00CF               	movwf	___flmul@prod+3
 10571     03A0  3080               	movlw	128
 10572     03A1  00CE               	movwf	___flmul@prod+2
 10573     03A2  3000               	movlw	0
 10574     03A3  00CD               	movwf	___flmul@prod+1
 10575     03A4  3000               	movlw	0
 10576     03A5  00CC               	movwf	___flmul@prod
 10577     03A6  2BD2               	goto	l910
 10578     03A7                     l3437:
 10579     03A7  0020               	movlb	0	; select bank0
 10580     03A8  0851               	movf	___flmul@temp+1,w
 10581     03A9  3A80               	xorlw	128
 10582     03AA  00C0               	movwf	??___flmul
 10583     03AB  3080               	movlw	128
 10584     03AC  0240               	subwf	??___flmul,w
 10585     03AD  1D03               	skipz
 10586     03AE  2BB1               	goto	u4405
 10587     03AF  3001               	movlw	1
 10588     03B0  0250               	subwf	___flmul@temp,w
 10589     03B1                     u4405:
 10590     03B1  1803               	skipnc
 10591     03B2  2BB4               	goto	u4401
 10592     03B3  2BB5               	goto	u4400
 10593     03B4                     u4401:
 10594     03B4  2BC0               	goto	l3443
 10595     03B5                     u4400:
 10596     03B5                     l3439:
 10597     03B5  3000               	movlw	0
 10598     03B6  0020               	movlb	0	; select bank0
 10599     03B7  00CF               	movwf	___flmul@prod+3
 10600     03B8  3000               	movlw	0
 10601     03B9  00CE               	movwf	___flmul@prod+2
 10602     03BA  3000               	movlw	0
 10603     03BB  00CD               	movwf	___flmul@prod+1
 10604     03BC  3000               	movlw	0
 10605     03BD  00CC               	movwf	___flmul@prod
 10606     03BE                     l3441:
 10607     03BE  01C5               	clrf	___flmul@sign
 10608     03BF  2BD2               	goto	l910
 10609     03C0                     l3443:
 10610     03C0  0020               	movlb	0	; select bank0
 10611     03C1  0850               	movf	___flmul@temp,w
 10612     03C2  00CB               	movwf	___flmul@bexp
 10613     03C3  30FF               	movlw	255
 10614     03C4  05CC               	andwf	___flmul@prod,f
 10615     03C5  30FF               	movlw	255
 10616     03C6  05CD               	andwf	___flmul@prod+1,f
 10617     03C7  307F               	movlw	127
 10618     03C8  05CE               	andwf	___flmul@prod+2,f
 10619     03C9  3000               	movlw	0
 10620     03CA  05CF               	andwf	___flmul@prod+3,f
 10621     03CB                     l3445:
 10622     03CB  1C4B               	btfss	___flmul@bexp,0
 10623     03CC  2BCE               	goto	u4411
 10624     03CD  2BCF               	goto	u4410
 10625     03CE                     u4411:
 10626     03CE  2BD0               	goto	l3449
 10627     03CF                     u4410:
 10628     03CF                     l3447:
 10629     03CF  17CE               	bsf	___flmul@prod+2,7
 10630     03D0                     l3449:
 10631     03D0  364B               	lsrf	___flmul@bexp,w
 10632     03D1  00CF               	movwf	___flmul@prod+3
 10633     03D2                     l910:
 10634     03D2  0845               	movf	___flmul@sign,w
 10635     03D3  00C0               	movwf	??___flmul
 10636     03D4  0840               	movf	??___flmul,w
 10637     03D5  04CF               	iorwf	___flmul@prod+3,f
 10638     03D6                     l3451:
 10639     03D6  084F               	movf	___flmul@prod+3,w
 10640     03D7  00BB               	movwf	?___flmul+3
 10641     03D8  084E               	movf	___flmul@prod+2,w
 10642     03D9  00BA               	movwf	?___flmul+2
 10643     03DA  084D               	movf	___flmul@prod+1,w
 10644     03DB  00B9               	movwf	?___flmul+1
 10645     03DC  084C               	movf	___flmul@prod,w
 10646     03DD  00B8               	movwf	?___flmul
 10647     03DE                     l898:
 10648     03DE  0008               	return
 10649     03DF                     __end_of___flmul:
 10650                           
 10651                           	psect	text41
 10652     1349                     __ptext41:	
 10653 ;; *************** function __Umul8_16 *****************
 10654 ;; Defined at:
 10655 ;;		line 4 in file "C:\Program Files\Microchip\xc8\v2.46\pic\sources\c99\common\Umul8_16.c"
 10656 ;; Parameters:    Size  Location     Type
 10657 ;;  multiplier      1    wreg     unsigned char 
 10658 ;;  multiplicand    1    0[COMMON] unsigned char 
 10659 ;; Auto vars:     Size  Location     Type
 10660 ;;  multiplier      1    8[COMMON] unsigned char 
 10661 ;;  word_mpld       2    6[COMMON] unsigned short 
 10662 ;;  product         2    4[COMMON] unsigned short 
 10663 ;; Return value:  Size  Location     Type
 10664 ;;                  2    0[COMMON] unsigned int 
 10665 ;; Registers used:
 10666 ;;		wreg, status,2, status,0
 10667 ;; Tracked objects:
 10668 ;;		On entry : 0/0
 10669 ;;		On exit  : 0/0
 10670 ;;		Unchanged: 0/0
 10671 ;; Data sizes:     COMMON   BANK0   BANK1   BANK2   BANK3   BANK4   BANK5   BANK6   BANK7   BANK8   BANK9  BANK10  BANK1
      +1  BANK12  BANK13  BANK14  BANK15  BANK16  BANK17  BANK18  BANK19  BANK20  BANK21  BANK22  BANK23  BANK24  BANK25
 10672 ;;      Params:         2       0       0       0       0       0       0       0       0       0       0       0       
      +0       0       0       0       0       0       0       0       0       0       0       0       0       0       0
 10673 ;;      Locals:         5       0       0       0       0       0       0       0       0       0       0       0       
      +0       0       0       0       0       0       0       0       0       0       0       0       0       0       0
 10674 ;;      Temps:          2       0       0       0       0       0       0       0       0       0       0       0       
      +0       0       0       0       0       0       0       0       0       0       0       0       0       0       0
 10675 ;;      Totals:         9       0       0       0       0       0       0       0       0       0       0       0       
      +0       0       0       0       0       0       0       0       0       0       0       0       0       0       0
 10676 ;;Total ram usage:        9 bytes
 10677 ;; Hardware stack levels used: 1
 10678 ;; This function calls:
 10679 ;;		Nothing
 10680 ;; This function is called by:
 10681 ;;		___flmul
 10682 ;; This function uses a non-reentrant model
 10683 ;;
 10684                           
 10685     1349                     __Umul8_16:	
 10686                           ;psect for function __Umul8_16
 10687                           
 10688                           
 10689                           ;incstack = 0
 10690                           ; Regs used in __Umul8_16: [wreg+status,2+status,0]
 10691                           ;__Umul8_16@multiplier stored from wreg
 10692     1349  00F8               	movwf	__Umul8_16@multiplier
 10693     134A                     l2793:
 10694     134A  01F4               	clrf	__Umul8_16@product
 10695     134B  01F5               	clrf	__Umul8_16@product+1
 10696     134C                     l2795:
 10697     134C  0870               	movf	__Umul8_16@multiplicand,w
 10698     134D  00F2               	movwf	??__Umul8_16
 10699     134E  01F3               	clrf	??__Umul8_16+1
 10700     134F  0872               	movf	??__Umul8_16,w
 10701     1350  00F6               	movwf	__Umul8_16@word_mpld
 10702     1351  0873               	movf	??__Umul8_16+1,w
 10703     1352  00F7               	movwf	__Umul8_16@word_mpld+1
 10704     1353                     l2797:
 10705     1353  1C78               	btfss	__Umul8_16@multiplier,0
 10706     1354  2B56               	goto	u2961
 10707     1355  2B57               	goto	u2960
 10708     1356                     u2961:
 10709     1356  2B5B               	goto	l917
 10710     1357                     u2960:
 10711     1357                     l2799:
 10712     1357  0876               	movf	__Umul8_16@word_mpld,w
 10713     1358  07F4               	addwf	__Umul8_16@product,f
 10714     1359  0877               	movf	__Umul8_16@word_mpld+1,w
 10715     135A  3DF5               	addwfc	__Umul8_16@product+1,f
 10716     135B                     l917:
 10717     135B  3001               	movlw	1
 10718     135C                     u2975:
 10719     135C  35F6               	lslf	__Umul8_16@word_mpld,f
 10720     135D  0DF7               	rlf	__Umul8_16@word_mpld+1,f
 10721     135E  0B89               	decfsz	9,f
 10722     135F  2B5C               	goto	u2975
 10723     1360  1003               	clrc
 10724     1361  0CF8               	rrf	__Umul8_16@multiplier,f
 10725     1362                     l2801:
 10726     1362  0878               	movf	__Umul8_16@multiplier,w
 10727     1363  1D03               	btfss	3,2
 10728     1364  2B66               	goto	u2981
 10729     1365  2B67               	goto	u2980
 10730     1366                     u2981:
 10731     1366  2B53               	goto	l2797
 10732     1367                     u2980:
 10733     1367                     l2803:
 10734     1367  0875               	movf	__Umul8_16@product+1,w
 10735     1368  00F1               	movwf	?__Umul8_16+1
 10736     1369  0874               	movf	__Umul8_16@product,w
 10737     136A  00F0               	movwf	?__Umul8_16
 10738     136B                     l919:
 10739     136B  0008               	return
 10740     136C                     __end_of__Umul8_16:
 10741                           
 10742                           	psect	text42
 10743     0DF5                     __ptext42:	
 10744 ;; *************** function ___fladd *****************
 10745 ;; Defined at:
 10746 ;;		line 10 in file "C:\Program Files\Microchip\xc8\v2.46\pic\sources\c99\common\sprcadd.c"
 10747 ;; Parameters:    Size  Location     Type
 10748 ;;  b               4    0[BANK0 ] unsigned int 
 10749 ;;  a               4    4[BANK0 ] unsigned int 
 10750 ;; Auto vars:     Size  Location     Type
 10751 ;;  grs             1   12[COMMON] unsigned char 
 10752 ;;  bexp            1   11[COMMON] unsigned char 
 10753 ;;  aexp            1   10[COMMON] unsigned char 
 10754 ;;  signs           1    9[COMMON] unsigned char 
 10755 ;; Return value:  Size  Location     Type
 10756 ;;                  4    0[BANK0 ] unsigned char 
 10757 ;; Registers used:
 10758 ;;		wreg, status,2, status,0
 10759 ;; Tracked objects:
 10760 ;;		On entry : 0/0
 10761 ;;		On exit  : 0/0
 10762 ;;		Unchanged: 0/0
 10763 ;; Data sizes:     COMMON   BANK0   BANK1   BANK2   BANK3   BANK4   BANK5   BANK6   BANK7   BANK8   BANK9  BANK10  BANK1
      +1  BANK12  BANK13  BANK14  BANK15  BANK16  BANK17  BANK18  BANK19  BANK20  BANK21  BANK22  BANK23  BANK24  BANK25
 10764 ;;      Params:         0       8       0       0       0       0       0       0       0       0       0       0       
      +0       0       0       0       0       0       0       0       0       0       0       0       0       0       0
 10765 ;;      Locals:         4       0       0       0       0       0       0       0       0       0       0       0       
      +0       0       0       0       0       0       0       0       0       0       0       0       0       0       0
 10766 ;;      Temps:          0       8       0       0       0       0       0       0       0       0       0       0       
      +0       0       0       0       0       0       0       0       0       0       0       0       0       0       0
 10767 ;;      Totals:         4      16       0       0       0       0       0       0       0       0       0       0       
      +0       0       0       0       0       0       0       0       0       0       0       0       0       0       0
 10768 ;;Total ram usage:       20 bytes
 10769 ;; Hardware stack levels used: 1
 10770 ;; This function calls:
 10771 ;;		Nothing
 10772 ;; This function is called by:
 10773 ;;		_MAX6675_ConvertTemp
 10774 ;;		___flsub
 10775 ;; This function uses a non-reentrant model
 10776 ;;
 10777                           
 10778     0DF5                     ___fladd:	
 10779                           ;psect for function ___fladd
 10780                           
 10781     0DF5                     l3121:	
 10782                           ;incstack = 0
 10783                           ; Regs used in ___fladd: [wreg+status,2+status,0]
 10784                           
 10785     0DF5  0020               	movlb	0	; select bank0
 10786     0DF6  0823               	movf	___fladd@b+3,w
 10787     0DF7  3980               	andlw	128
 10788     0DF8  00F9               	movwf	___fladd@signs
 10789     0DF9                     l3123:
 10790     0DF9  3523               	lslf	___fladd@b+3,w
 10791     0DFA  00FB               	movwf	___fladd@bexp
 10792     0DFB                     l3125:
 10793     0DFB  1FA2               	btfss	___fladd@b+2,7
 10794     0DFC  2DFE               	goto	u3731
 10795     0DFD  2DFF               	goto	u3730
 10796     0DFE                     u3731:
 10797     0DFE  2E00               	goto	l3129
 10798     0DFF                     u3730:
 10799     0DFF                     l3127:
 10800     0DFF  147B               	bsf	___fladd@bexp,0
 10801     0E00                     l3129:
 10802     0E00  087B               	movf	___fladd@bexp,w
 10803     0E01  1903               	btfsc	3,2
 10804     0E02  2E04               	goto	u3741
 10805     0E03  2E05               	goto	u3740
 10806     0E04                     u3741:
 10807     0E04  2E15               	goto	l3139
 10808     0E05                     u3740:
 10809     0E05                     l3131:
 10810     0E05  0A7B               	incf	___fladd@bexp,w
 10811     0E06  1D03               	btfss	3,2
 10812     0E07  2E09               	goto	u3751
 10813     0E08  2E0A               	goto	u3750
 10814     0E09                     u3751:
 10815     0E09  2E12               	goto	l3135
 10816     0E0A                     u3750:
 10817     0E0A                     l3133:
 10818     0E0A  3000               	movlw	0
 10819     0E0B  00A3               	movwf	___fladd@b+3
 10820     0E0C  3000               	movlw	0
 10821     0E0D  00A2               	movwf	___fladd@b+2
 10822     0E0E  3000               	movlw	0
 10823     0E0F  00A1               	movwf	___fladd@b+1
 10824     0E10  3000               	movlw	0
 10825     0E11  00A0               	movwf	___fladd@b
 10826     0E12                     l3135:
 10827     0E12  17A2               	bsf	___fladd@b+2,7
 10828     0E13                     l3137:
 10829     0E13  01A3               	clrf	___fladd@b+3
 10830     0E14  2E1D               	goto	l3141
 10831     0E15                     l3139:
 10832     0E15  3000               	movlw	0
 10833     0E16  00A3               	movwf	___fladd@b+3
 10834     0E17  3000               	movlw	0
 10835     0E18  00A2               	movwf	___fladd@b+2
 10836     0E19  3000               	movlw	0
 10837     0E1A  00A1               	movwf	___fladd@b+1
 10838     0E1B  3000               	movlw	0
 10839     0E1C  00A0               	movwf	___fladd@b
 10840     0E1D                     l3141:
 10841     0E1D  0827               	movf	___fladd@a+3,w
 10842     0E1E  3980               	andlw	128
 10843     0E1F  00FA               	movwf	___fladd@aexp
 10844     0E20                     l3143:
 10845     0E20  087A               	movf	___fladd@aexp,w
 10846     0E21  0679               	xorwf	___fladd@signs,w
 10847     0E22  1903               	skipnz
 10848     0E23  2E25               	goto	u3761
 10849     0E24  2E26               	goto	u3760
 10850     0E25                     u3761:
 10851     0E25  2E27               	goto	l3147
 10852     0E26                     u3760:
 10853     0E26                     l3145:
 10854     0E26  1779               	bsf	___fladd@signs,6
 10855     0E27                     l3147:
 10856     0E27  3527               	lslf	___fladd@a+3,w
 10857     0E28  00FA               	movwf	___fladd@aexp
 10858     0E29                     l3149:
 10859     0E29  1FA6               	btfss	___fladd@a+2,7
 10860     0E2A  2E2C               	goto	u3771
 10861     0E2B  2E2D               	goto	u3770
 10862     0E2C                     u3771:
 10863     0E2C  2E2E               	goto	l3153
 10864     0E2D                     u3770:
 10865     0E2D                     l3151:
 10866     0E2D  147A               	bsf	___fladd@aexp,0
 10867     0E2E                     l3153:
 10868     0E2E  087A               	movf	___fladd@aexp,w
 10869     0E2F  1903               	btfsc	3,2
 10870     0E30  2E32               	goto	u3781
 10871     0E31  2E33               	goto	u3780
 10872     0E32                     u3781:
 10873     0E32  2E43               	goto	l3163
 10874     0E33                     u3780:
 10875     0E33                     l3155:
 10876     0E33  0A7A               	incf	___fladd@aexp,w
 10877     0E34  1D03               	btfss	3,2
 10878     0E35  2E37               	goto	u3791
 10879     0E36  2E38               	goto	u3790
 10880     0E37                     u3791:
 10881     0E37  2E40               	goto	l3159
 10882     0E38                     u3790:
 10883     0E38                     l3157:
 10884     0E38  3000               	movlw	0
 10885     0E39  00A7               	movwf	___fladd@a+3
 10886     0E3A  3000               	movlw	0
 10887     0E3B  00A6               	movwf	___fladd@a+2
 10888     0E3C  3000               	movlw	0
 10889     0E3D  00A5               	movwf	___fladd@a+1
 10890     0E3E  3000               	movlw	0
 10891     0E3F  00A4               	movwf	___fladd@a
 10892     0E40                     l3159:
 10893     0E40  17A6               	bsf	___fladd@a+2,7
 10894     0E41                     l3161:
 10895     0E41  01A7               	clrf	___fladd@a+3
 10896     0E42  2E4B               	goto	l802
 10897     0E43                     l3163:
 10898     0E43  3000               	movlw	0
 10899     0E44  00A7               	movwf	___fladd@a+3
 10900     0E45  3000               	movlw	0
 10901     0E46  00A6               	movwf	___fladd@a+2
 10902     0E47  3000               	movlw	0
 10903     0E48  00A5               	movwf	___fladd@a+1
 10904     0E49  3000               	movlw	0
 10905     0E4A  00A4               	movwf	___fladd@a
 10906     0E4B                     l802:
 10907     0E4B  087B               	movf	___fladd@bexp,w
 10908     0E4C  027A               	subwf	___fladd@aexp,w
 10909     0E4D  1803               	skipnc
 10910     0E4E  2E50               	goto	u3801
 10911     0E4F  2E51               	goto	u3800
 10912     0E50                     u3801:
 10913     0E50  2E77               	goto	l3199
 10914     0E51                     u3800:
 10915     0E51                     l3165:
 10916     0E51  1F79               	btfss	___fladd@signs,6
 10917     0E52  2E54               	goto	u3811
 10918     0E53  2E55               	goto	u3810
 10919     0E54                     u3811:
 10920     0E54  2E59               	goto	l3169
 10921     0E55                     u3810:
 10922     0E55                     l3167:
 10923     0E55  3080               	movlw	128
 10924     0E56  00A8               	movwf	??___fladd
 10925     0E57  0828               	movf	??___fladd,w
 10926     0E58  06F9               	xorwf	___fladd@signs,f
 10927     0E59                     l3169:
 10928     0E59  087B               	movf	___fladd@bexp,w
 10929     0E5A  00FC               	movwf	___fladd@grs
 10930     0E5B                     l3171:
 10931     0E5B  087A               	movf	___fladd@aexp,w
 10932     0E5C  00FB               	movwf	___fladd@bexp
 10933     0E5D                     l3173:
 10934     0E5D  087C               	movf	___fladd@grs,w
 10935     0E5E  00FA               	movwf	___fladd@aexp
 10936     0E5F                     l3175:
 10937     0E5F  0820               	movf	___fladd@b,w
 10938     0E60  00FC               	movwf	___fladd@grs
 10939     0E61                     l3177:
 10940     0E61  0824               	movf	___fladd@a,w
 10941     0E62  00A0               	movwf	___fladd@b
 10942     0E63                     l3179:
 10943     0E63  087C               	movf	___fladd@grs,w
 10944     0E64  00A4               	movwf	___fladd@a
 10945     0E65                     l3181:
 10946     0E65  0821               	movf	___fladd@b+1,w
 10947     0E66  00FC               	movwf	___fladd@grs
 10948     0E67                     l3183:
 10949     0E67  0825               	movf	___fladd@a+1,w
 10950     0E68  00A1               	movwf	___fladd@b+1
 10951     0E69                     l3185:
 10952     0E69  087C               	movf	___fladd@grs,w
 10953     0E6A  00A5               	movwf	___fladd@a+1
 10954     0E6B                     l3187:
 10955     0E6B  0822               	movf	___fladd@b+2,w
 10956     0E6C  00FC               	movwf	___fladd@grs
 10957     0E6D                     l3189:
 10958     0E6D  0826               	movf	___fladd@a+2,w
 10959     0E6E  00A2               	movwf	___fladd@b+2
 10960     0E6F                     l3191:
 10961     0E6F  087C               	movf	___fladd@grs,w
 10962     0E70  00A6               	movwf	___fladd@a+2
 10963     0E71                     l3193:
 10964     0E71  0823               	movf	___fladd@b+3,w
 10965     0E72  00FC               	movwf	___fladd@grs
 10966     0E73                     l3195:
 10967     0E73  0827               	movf	___fladd@a+3,w
 10968     0E74  00A3               	movwf	___fladd@b+3
 10969     0E75                     l3197:
 10970     0E75  087C               	movf	___fladd@grs,w
 10971     0E76  00A7               	movwf	___fladd@a+3
 10972     0E77                     l3199:
 10973     0E77  01FC               	clrf	___fladd@grs
 10974     0E78                     l3201:
 10975     0E78  087A               	movf	___fladd@aexp,w
 10976     0E79  00A8               	movwf	??___fladd
 10977     0E7A  01A9               	clrf	??___fladd+1
 10978     0E7B  0829               	movf	??___fladd+1,w
 10979     0E7C  00AB               	movwf	??___fladd+3
 10980     0E7D  087B               	movf	___fladd@bexp,w
 10981     0E7E  0228               	subwf	??___fladd,w
 10982     0E7F  00AA               	movwf	??___fladd+2
 10983     0E80  1C03               	skipc
 10984     0E81  03AB               	decf	??___fladd+3,f
 10985     0E82  082B               	movf	??___fladd+3,w
 10986     0E83  3A80               	xorlw	128
 10987     0E84  00AC               	movwf	??___fladd+4
 10988     0E85  3080               	movlw	128
 10989     0E86  022C               	subwf	??___fladd+4,w
 10990     0E87  1D03               	skipz
 10991     0E88  2E8B               	goto	u3825
 10992     0E89  301A               	movlw	26
 10993     0E8A  022A               	subwf	??___fladd+2,w
 10994     0E8B                     u3825:
 10995     0E8B  1C03               	skipc
 10996     0E8C  2E8E               	goto	u3821
 10997     0E8D  2E8F               	goto	u3820
 10998     0E8E                     u3821:
 10999     0E8E  2EC2               	goto	l3217
 11000     0E8F                     u3820:
 11001     0E8F                     l3203:
 11002     0E8F  0020               	movlb	0	; select bank0
 11003     0E90  0823               	movf	___fladd@b+3,w
 11004     0E91  0422               	iorwf	___fladd@b+2,w
 11005     0E92  0421               	iorwf	___fladd@b+1,w
 11006     0E93  0420               	iorwf	___fladd@b,w
 11007     0E94  1D03               	skipz
 11008     0E95  2E97               	goto	u3831
 11009     0E96  2E99               	goto	u3830
 11010     0E97                     u3831:
 11011     0E97  3001               	movlw	1
 11012     0E98  2E9A               	goto	u3840
 11013     0E99                     u3830:
 11014     0E99  3000               	movlw	0
 11015     0E9A                     u3840:
 11016     0E9A  00FC               	movwf	___fladd@grs
 11017     0E9B  3000               	movlw	0
 11018     0E9C  00A3               	movwf	___fladd@b+3
 11019     0E9D  3000               	movlw	0
 11020     0E9E  00A2               	movwf	___fladd@b+2
 11021     0E9F  3000               	movlw	0
 11022     0EA0  00A1               	movwf	___fladd@b+1
 11023     0EA1  3000               	movlw	0
 11024     0EA2  00A0               	movwf	___fladd@b
 11025     0EA3  087A               	movf	___fladd@aexp,w
 11026     0EA4  00FB               	movwf	___fladd@bexp
 11027     0EA5  2EC8               	goto	l806
 11028     0EA6                     l808:
 11029     0EA6  1C7C               	btfss	___fladd@grs,0
 11030     0EA7  2EA9               	goto	u3851
 11031     0EA8  2EAA               	goto	u3850
 11032     0EA9                     u3851:
 11033     0EA9  2EAE               	goto	l3207
 11034     0EAA                     u3850:
 11035     0EAA                     l3205:
 11036     0EAA  367C               	lsrf	___fladd@grs,w
 11037     0EAB  3801               	iorlw	1
 11038     0EAC  00FC               	movwf	___fladd@grs
 11039     0EAD  2EB0               	goto	l3209
 11040     0EAE                     l3207:
 11041     0EAE  1003               	clrc
 11042     0EAF  0CFC               	rrf	___fladd@grs,f
 11043     0EB0                     l3209:
 11044     0EB0  0020               	movlb	0	; select bank0
 11045     0EB1  1C20               	btfss	___fladd@b,0
 11046     0EB2  2EB4               	goto	u3861
 11047     0EB3  2EB5               	goto	u3860
 11048     0EB4                     u3861:
 11049     0EB4  2EB6               	goto	l3213
 11050     0EB5                     u3860:
 11051     0EB5                     l3211:
 11052     0EB5  17FC               	bsf	___fladd@grs,7
 11053     0EB6                     l3213:
 11054     0EB6  3001               	movlw	1
 11055     0EB7  00A8               	movwf	??___fladd
 11056     0EB8                     u3875:
 11057     0EB8  37A3               	asrf	___fladd@b+3,f
 11058     0EB9  0CA2               	rrf	___fladd@b+2,f
 11059     0EBA  0CA1               	rrf	___fladd@b+1,f
 11060     0EBB  0CA0               	rrf	___fladd@b,f
 11061     0EBC  0BA8               	decfsz	??___fladd& (0+127),f
 11062     0EBD  2EB8               	goto	u3875
 11063     0EBE                     l3215:
 11064     0EBE  3001               	movlw	1
 11065     0EBF  00A8               	movwf	??___fladd
 11066     0EC0  0828               	movf	??___fladd,w
 11067     0EC1  07FB               	addwf	___fladd@bexp,f
 11068     0EC2                     l3217:
 11069     0EC2  087A               	movf	___fladd@aexp,w
 11070     0EC3  027B               	subwf	___fladd@bexp,w
 11071     0EC4  1C03               	skipc
 11072     0EC5  2EC7               	goto	u3881
 11073     0EC6  2EC8               	goto	u3880
 11074     0EC7                     u3881:
 11075     0EC7  2EA6               	goto	l808
 11076     0EC8                     u3880:
 11077     0EC8                     l806:
 11078     0EC8  1B79               	btfsc	___fladd@signs,6
 11079     0EC9  2ECB               	goto	u3891
 11080     0ECA  2ECC               	goto	u3890
 11081     0ECB                     u3891:
 11082     0ECB  2F04               	goto	l3243
 11083     0ECC                     u3890:
 11084     0ECC                     l3219:
 11085     0ECC  087B               	movf	___fladd@bexp,w
 11086     0ECD  1D03               	btfss	3,2
 11087     0ECE  2ED0               	goto	u3901
 11088     0ECF  2ED1               	goto	u3900
 11089     0ED0                     u3901:
 11090     0ED0  2EDB               	goto	l3225
 11091     0ED1                     u3900:
 11092     0ED1                     l3221:
 11093     0ED1  3000               	movlw	0
 11094     0ED2  0020               	movlb	0	; select bank0
 11095     0ED3  00A3               	movwf	?___fladd+3
 11096     0ED4  3000               	movlw	0
 11097     0ED5  00A2               	movwf	?___fladd+2
 11098     0ED6  3000               	movlw	0
 11099     0ED7  00A1               	movwf	?___fladd+1
 11100     0ED8  3000               	movlw	0
 11101     0ED9  00A0               	movwf	?___fladd
 11102     0EDA  2FFF               	goto	l815
 11103     0EDB                     l3225:
 11104     0EDB  0020               	movlb	0	; select bank0
 11105     0EDC  0824               	movf	___fladd@a,w
 11106     0EDD  07A0               	addwf	___fladd@b,f
 11107     0EDE  0825               	movf	___fladd@a+1,w
 11108     0EDF  3DA1               	addwfc	___fladd@b+1,f
 11109     0EE0  0826               	movf	___fladd@a+2,w
 11110     0EE1  3DA2               	addwfc	___fladd@b+2,f
 11111     0EE2  0827               	movf	___fladd@a+3,w
 11112     0EE3  3DA3               	addwfc	___fladd@b+3,f
 11113     0EE4                     l3227:
 11114     0EE4  1C23               	btfss	___fladd@b+3,0
 11115     0EE5  2EE7               	goto	u3911
 11116     0EE6  2EE8               	goto	u3910
 11117     0EE7                     u3911:
 11118     0EE7  2F91               	goto	l3277
 11119     0EE8                     u3910:
 11120     0EE8                     l3229:
 11121     0EE8  1C7C               	btfss	___fladd@grs,0
 11122     0EE9  2EEB               	goto	u3921
 11123     0EEA  2EEC               	goto	u3920
 11124     0EEB                     u3921:
 11125     0EEB  2EF0               	goto	l3233
 11126     0EEC                     u3920:
 11127     0EEC                     l3231:
 11128     0EEC  367C               	lsrf	___fladd@grs,w
 11129     0EED  3801               	iorlw	1
 11130     0EEE  00FC               	movwf	___fladd@grs
 11131     0EEF  2EF2               	goto	l3235
 11132     0EF0                     l3233:
 11133     0EF0  1003               	clrc
 11134     0EF1  0CFC               	rrf	___fladd@grs,f
 11135     0EF2                     l3235:
 11136     0EF2  1C20               	btfss	___fladd@b,0
 11137     0EF3  2EF5               	goto	u3931
 11138     0EF4  2EF6               	goto	u3930
 11139     0EF5                     u3931:
 11140     0EF5  2EF7               	goto	l3239
 11141     0EF6                     u3930:
 11142     0EF6                     l3237:
 11143     0EF6  17FC               	bsf	___fladd@grs,7
 11144     0EF7                     l3239:
 11145     0EF7  3001               	movlw	1
 11146     0EF8  00A8               	movwf	??___fladd
 11147     0EF9                     u3945:
 11148     0EF9  37A3               	asrf	___fladd@b+3,f
 11149     0EFA  0CA2               	rrf	___fladd@b+2,f
 11150     0EFB  0CA1               	rrf	___fladd@b+1,f
 11151     0EFC  0CA0               	rrf	___fladd@b,f
 11152     0EFD  0BA8               	decfsz	??___fladd& (0+127),f
 11153     0EFE  2EF9               	goto	u3945
 11154     0EFF                     l3241:
 11155     0EFF  3001               	movlw	1
 11156     0F00  00A8               	movwf	??___fladd
 11157     0F01  0828               	movf	??___fladd,w
 11158     0F02  07FB               	addwf	___fladd@bexp,f
 11159     0F03  2F91               	goto	l3277
 11160     0F04                     l3243:
 11161     0F04  0020               	movlb	0	; select bank0
 11162     0F05  0823               	movf	___fladd@b+3,w
 11163     0F06  3A80               	xorlw	128
 11164     0F07  00A8               	movwf	??___fladd
 11165     0F08  0827               	movf	___fladd@a+3,w
 11166     0F09  3A80               	xorlw	128
 11167     0F0A  0228               	subwf	??___fladd,w
 11168     0F0B  1D03               	skipz
 11169     0F0C  2F17               	goto	u3953
 11170     0F0D  0826               	movf	___fladd@a+2,w
 11171     0F0E  0222               	subwf	___fladd@b+2,w
 11172     0F0F  1D03               	skipz
 11173     0F10  2F17               	goto	u3953
 11174     0F11  0825               	movf	___fladd@a+1,w
 11175     0F12  0221               	subwf	___fladd@b+1,w
 11176     0F13  1D03               	skipz
 11177     0F14  2F17               	goto	u3953
 11178     0F15  0824               	movf	___fladd@a,w
 11179     0F16  0220               	subwf	___fladd@b,w
 11180     0F17                     u3953:
 11181     0F17  1803               	skipnc
 11182     0F18  2F1A               	goto	u3951
 11183     0F19  2F1B               	goto	u3950
 11184     0F1A                     u3951:
 11185     0F1A  2F53               	goto	l3253
 11186     0F1B                     u3950:
 11187     0F1B                     l3245:
 11188     0F1B  30FF               	movlw	255
 11189     0F1C  00A8               	movwf	??___fladd
 11190     0F1D  30FF               	movlw	255
 11191     0F1E  00A9               	movwf	??___fladd+1
 11192     0F1F  30FF               	movlw	255
 11193     0F20  00AA               	movwf	??___fladd+2
 11194     0F21  30FF               	movlw	255
 11195     0F22  00AB               	movwf	??___fladd+3
 11196     0F23  0820               	movf	___fladd@b,w
 11197     0F24  0224               	subwf	___fladd@a,w
 11198     0F25  00AC               	movwf	??___fladd+4
 11199     0F26  0821               	movf	___fladd@b+1,w
 11200     0F27  3B25               	subwfb	___fladd@a+1,w
 11201     0F28  00AD               	movwf	??___fladd+5
 11202     0F29  0822               	movf	___fladd@b+2,w
 11203     0F2A  3B26               	subwfb	___fladd@a+2,w
 11204     0F2B  00AE               	movwf	??___fladd+6
 11205     0F2C  0823               	movf	___fladd@b+3,w
 11206     0F2D  3B27               	subwfb	___fladd@a+3,w
 11207     0F2E  00AF               	movwf	??___fladd+7
 11208     0F2F  082C               	movf	??___fladd+4,w
 11209     0F30  07A8               	addwf	??___fladd,f
 11210     0F31  082D               	movf	??___fladd+5,w
 11211     0F32  3DA9               	addwfc	??___fladd+1,f
 11212     0F33  082E               	movf	??___fladd+6,w
 11213     0F34  3DAA               	addwfc	??___fladd+2,f
 11214     0F35  082F               	movf	??___fladd+7,w
 11215     0F36  3DAB               	addwfc	??___fladd+3,f
 11216     0F37  082B               	movf	??___fladd+3,w
 11217     0F38  00A3               	movwf	___fladd@b+3
 11218     0F39  082A               	movf	??___fladd+2,w
 11219     0F3A  00A2               	movwf	___fladd@b+2
 11220     0F3B  0829               	movf	??___fladd+1,w
 11221     0F3C  00A1               	movwf	___fladd@b+1
 11222     0F3D  0828               	movf	??___fladd,w
 11223     0F3E  00A0               	movwf	___fladd@b
 11224     0F3F                     l3247:
 11225     0F3F  3080               	movlw	128
 11226     0F40  00A8               	movwf	??___fladd
 11227     0F41  0828               	movf	??___fladd,w
 11228     0F42  06F9               	xorwf	___fladd@signs,f
 11229     0F43  09FC               	comf	___fladd@grs,f
 11230     0F44  0AFC               	incf	___fladd@grs,f
 11231     0F45                     l3249:
 11232     0F45  087C               	movf	___fladd@grs,w
 11233     0F46  1D03               	btfss	3,2
 11234     0F47  2F49               	goto	u3961
 11235     0F48  2F4A               	goto	u3960
 11236     0F49                     u3961:
 11237     0F49  2F5B               	goto	l823
 11238     0F4A                     u3960:
 11239     0F4A                     l3251:
 11240     0F4A  3001               	movlw	1
 11241     0F4B  07A0               	addwf	___fladd@b,f
 11242     0F4C  3000               	movlw	0
 11243     0F4D  3DA1               	addwfc	___fladd@b+1,f
 11244     0F4E  3000               	movlw	0
 11245     0F4F  3DA2               	addwfc	___fladd@b+2,f
 11246     0F50  3000               	movlw	0
 11247     0F51  3DA3               	addwfc	___fladd@b+3,f
 11248     0F52  2F5B               	goto	l823
 11249     0F53                     l3253:
 11250     0F53  0824               	movf	___fladd@a,w
 11251     0F54  02A0               	subwf	___fladd@b,f
 11252     0F55  0825               	movf	___fladd@a+1,w
 11253     0F56  3BA1               	subwfb	___fladd@b+1,f
 11254     0F57  0826               	movf	___fladd@a+2,w
 11255     0F58  3BA2               	subwfb	___fladd@b+2,f
 11256     0F59  0827               	movf	___fladd@a+3,w
 11257     0F5A  3BA3               	subwfb	___fladd@b+3,f
 11258     0F5B                     l823:
 11259     0F5B  0823               	movf	___fladd@b+3,w
 11260     0F5C  0422               	iorwf	___fladd@b+2,w
 11261     0F5D  0421               	iorwf	___fladd@b+1,w
 11262     0F5E  0420               	iorwf	___fladd@b,w
 11263     0F5F  1D03               	skipz
 11264     0F60  2F62               	goto	u3971
 11265     0F61  2F63               	goto	u3970
 11266     0F62                     u3971:
 11267     0F62  2F8D               	goto	l3275
 11268     0F63                     u3970:
 11269     0F63                     l3255:
 11270     0F63  087C               	movf	___fladd@grs,w
 11271     0F64  1D03               	btfss	3,2
 11272     0F65  2F67               	goto	u3981
 11273     0F66  2F68               	goto	u3980
 11274     0F67                     u3981:
 11275     0F67  2F8D               	goto	l3275
 11276     0F68                     u3980:
 11277     0F68                     l3257:
 11278     0F68  3000               	movlw	0
 11279     0F69  00A3               	movwf	?___fladd+3
 11280     0F6A  3000               	movlw	0
 11281     0F6B  00A2               	movwf	?___fladd+2
 11282     0F6C  3000               	movlw	0
 11283     0F6D  00A1               	movwf	?___fladd+1
 11284     0F6E  3000               	movlw	0
 11285     0F6F  00A0               	movwf	?___fladd
 11286     0F70  2FFF               	goto	l815
 11287     0F71                     l3261:
 11288     0F71  3001               	movlw	1
 11289     0F72                     u3995:
 11290     0F72  35A0               	lslf	___fladd@b,f
 11291     0F73  0DA1               	rlf	___fladd@b+1,f
 11292     0F74  0DA2               	rlf	___fladd@b+2,f
 11293     0F75  0DA3               	rlf	___fladd@b+3,f
 11294     0F76  0B89               	decfsz	9,f
 11295     0F77  2F72               	goto	u3995
 11296     0F78                     l3263:
 11297     0F78  1FFC               	btfss	___fladd@grs,7
 11298     0F79  2F7B               	goto	u4001
 11299     0F7A  2F7C               	goto	u4000
 11300     0F7B                     u4001:
 11301     0F7B  2F7D               	goto	l827
 11302     0F7C                     u4000:
 11303     0F7C                     l3265:
 11304     0F7C  1420               	bsf	___fladd@b,0
 11305     0F7D                     l827:
 11306     0F7D  1C7C               	btfss	___fladd@grs,0
 11307     0F7E  2F80               	goto	u4011
 11308     0F7F  2F81               	goto	u4010
 11309     0F80                     u4011:
 11310     0F80  2F84               	goto	l3269
 11311     0F81                     u4010:
 11312     0F81                     l3267:
 11313     0F81  1403               	setc
 11314     0F82  0DFC               	rlf	___fladd@grs,f
 11315     0F83  2F86               	goto	l3271
 11316     0F84                     l3269:
 11317     0F84  1003               	clrc
 11318     0F85  0DFC               	rlf	___fladd@grs,f
 11319     0F86                     l3271:
 11320     0F86  087B               	movf	___fladd@bexp,w
 11321     0F87  1903               	btfsc	3,2
 11322     0F88  2F8A               	goto	u4021
 11323     0F89  2F8B               	goto	u4020
 11324     0F8A                     u4021:
 11325     0F8A  2F8D               	goto	l3275
 11326     0F8B                     u4020:
 11327     0F8B                     l3273:
 11328     0F8B  3001               	movlw	1
 11329     0F8C  02FB               	subwf	___fladd@bexp,f
 11330     0F8D                     l3275:
 11331     0F8D  1FA2               	btfss	___fladd@b+2,7
 11332     0F8E  2F90               	goto	u4031
 11333     0F8F  2F91               	goto	u4030
 11334     0F90                     u4031:
 11335     0F90  2F71               	goto	l3261
 11336     0F91                     u4030:
 11337     0F91                     l3277:
 11338     0F91  01FA               	clrf	___fladd@aexp
 11339     0F92                     l3279:
 11340     0F92  1FFC               	btfss	___fladd@grs,7
 11341     0F93  2F95               	goto	u4041
 11342     0F94  2F96               	goto	u4040
 11343     0F95                     u4041:
 11344     0F95  2FA4               	goto	l3287
 11345     0F96                     u4040:
 11346     0F96                     l3281:
 11347     0F96  087C               	movf	___fladd@grs,w
 11348     0F97  397F               	andlw	127
 11349     0F98  1903               	btfsc	3,2
 11350     0F99  2F9B               	goto	u4051
 11351     0F9A  2F9C               	goto	u4050
 11352     0F9B                     u4051:
 11353     0F9B  2F9F               	goto	l833
 11354     0F9C                     u4050:
 11355     0F9C                     l3283:
 11356     0F9C  01FA               	clrf	___fladd@aexp
 11357     0F9D  0AFA               	incf	___fladd@aexp,f
 11358     0F9E  2FA4               	goto	l3287
 11359     0F9F                     l833:
 11360     0F9F  1C20               	btfss	___fladd@b,0
 11361     0FA0  2FA2               	goto	u4061
 11362     0FA1  2FA3               	goto	u4060
 11363     0FA2                     u4061:
 11364     0FA2  2FA4               	goto	l3287
 11365     0FA3                     u4060:
 11366     0FA3  2F9C               	goto	l3283
 11367     0FA4                     l3287:
 11368     0FA4  087A               	movf	___fladd@aexp,w
 11369     0FA5  1903               	btfsc	3,2
 11370     0FA6  2FA8               	goto	u4071
 11371     0FA7  2FA9               	goto	u4070
 11372     0FA8                     u4071:
 11373     0FA8  2FD6               	goto	l836
 11374     0FA9                     u4070:
 11375     0FA9                     l3289:
 11376     0FA9  3001               	movlw	1
 11377     0FAA  07A0               	addwf	___fladd@b,f
 11378     0FAB  3000               	movlw	0
 11379     0FAC  3DA1               	addwfc	___fladd@b+1,f
 11380     0FAD  3000               	movlw	0
 11381     0FAE  3DA2               	addwfc	___fladd@b+2,f
 11382     0FAF  3000               	movlw	0
 11383     0FB0  3DA3               	addwfc	___fladd@b+3,f
 11384     0FB1                     l3291:
 11385     0FB1  1C23               	btfss	___fladd@b+3,0
 11386     0FB2  2FB4               	goto	u4081
 11387     0FB3  2FB5               	goto	u4080
 11388     0FB4                     u4081:
 11389     0FB4  2FD6               	goto	l836
 11390     0FB5                     u4080:
 11391     0FB5                     l3293:
 11392     0FB5  0820               	movf	___fladd@b,w
 11393     0FB6  00A8               	movwf	??___fladd
 11394     0FB7  0821               	movf	___fladd@b+1,w
 11395     0FB8  00A9               	movwf	??___fladd+1
 11396     0FB9  0822               	movf	___fladd@b+2,w
 11397     0FBA  00AA               	movwf	??___fladd+2
 11398     0FBB  0823               	movf	___fladd@b+3,w
 11399     0FBC  00AB               	movwf	??___fladd+3
 11400     0FBD  3001               	movlw	1
 11401     0FBE  00AC               	movwf	??___fladd+4
 11402     0FBF                     u4095:
 11403     0FBF  37AB               	asrf	??___fladd+3,f
 11404     0FC0  0CAA               	rrf	??___fladd+2,f
 11405     0FC1  0CA9               	rrf	??___fladd+1,f
 11406     0FC2  0CA8               	rrf	??___fladd,f
 11407     0FC3                     u4090:
 11408     0FC3  0BAC               	decfsz	??___fladd+4,f
 11409     0FC4  2FBF               	goto	u4095
 11410     0FC5  082B               	movf	??___fladd+3,w
 11411     0FC6  00A3               	movwf	___fladd@b+3
 11412     0FC7  082A               	movf	??___fladd+2,w
 11413     0FC8  00A2               	movwf	___fladd@b+2
 11414     0FC9  0829               	movf	??___fladd+1,w
 11415     0FCA  00A1               	movwf	___fladd@b+1
 11416     0FCB  0828               	movf	??___fladd,w
 11417     0FCC  00A0               	movwf	___fladd@b
 11418     0FCD  0A7B               	incf	___fladd@bexp,w
 11419     0FCE  1903               	btfsc	3,2
 11420     0FCF  2FD1               	goto	u4101
 11421     0FD0  2FD2               	goto	u4100
 11422     0FD1                     u4101:
 11423     0FD1  2FD6               	goto	l836
 11424     0FD2                     u4100:
 11425     0FD2                     l3295:
 11426     0FD2  3001               	movlw	1
 11427     0FD3  00A8               	movwf	??___fladd
 11428     0FD4  0828               	movf	??___fladd,w
 11429     0FD5  07FB               	addwf	___fladd@bexp,f
 11430     0FD6                     l836:
 11431     0FD6  0A7B               	incf	___fladd@bexp,w
 11432     0FD7  1903               	btfsc	3,2
 11433     0FD8  2FDA               	goto	u4111
 11434     0FD9  2FDB               	goto	u4110
 11435     0FDA                     u4111:
 11436     0FDA  2FE0               	goto	l3299
 11437     0FDB                     u4110:
 11438     0FDB                     l3297:
 11439     0FDB  087B               	movf	___fladd@bexp,w
 11440     0FDC  1D03               	btfss	3,2
 11441     0FDD  2FDF               	goto	u4121
 11442     0FDE  2FE0               	goto	u4120
 11443     0FDF                     u4121:
 11444     0FDF  2FEE               	goto	l3305
 11445     0FE0                     u4120:
 11446     0FE0                     l3299:
 11447     0FE0  3000               	movlw	0
 11448     0FE1  00A3               	movwf	___fladd@b+3
 11449     0FE2  3000               	movlw	0
 11450     0FE3  00A2               	movwf	___fladd@b+2
 11451     0FE4  3000               	movlw	0
 11452     0FE5  00A1               	movwf	___fladd@b+1
 11453     0FE6  3000               	movlw	0
 11454     0FE7  00A0               	movwf	___fladd@b
 11455     0FE8                     l3301:
 11456     0FE8  087B               	movf	___fladd@bexp,w
 11457     0FE9  1D03               	btfss	3,2
 11458     0FEA  2FEC               	goto	u4131
 11459     0FEB  2FED               	goto	u4130
 11460     0FEC                     u4131:
 11461     0FEC  2FEE               	goto	l3305
 11462     0FED                     u4130:
 11463     0FED                     l3303:
 11464     0FED  01F9               	clrf	___fladd@signs
 11465     0FEE                     l3305:
 11466     0FEE  1C7B               	btfss	___fladd@bexp,0
 11467     0FEF  2FF1               	goto	u4141
 11468     0FF0  2FF2               	goto	u4140
 11469     0FF1                     u4141:
 11470     0FF1  2FF4               	goto	l3309
 11471     0FF2                     u4140:
 11472     0FF2                     l3307:
 11473     0FF2  17A2               	bsf	___fladd@b+2,7
 11474     0FF3  2FF8               	goto	l844
 11475     0FF4                     l3309:
 11476     0FF4  307F               	movlw	127
 11477     0FF5  00A8               	movwf	??___fladd
 11478     0FF6  0828               	movf	??___fladd,w
 11479     0FF7  05A2               	andwf	___fladd@b+2,f
 11480     0FF8                     l844:
 11481     0FF8  367B               	lsrf	___fladd@bexp,w
 11482     0FF9  00A3               	movwf	___fladd@b+3
 11483     0FFA                     l3311:
 11484     0FFA  1FF9               	btfss	___fladd@signs,7
 11485     0FFB  2FFD               	goto	u4151
 11486     0FFC  2FFE               	goto	u4150
 11487     0FFD                     u4151:
 11488     0FFD  2FFF               	goto	l845
 11489     0FFE                     u4150:
 11490     0FFE                     l3313:
 11491     0FFE  17A3               	bsf	___fladd@b+3,7
 11492     0FFF                     l845:
 11493     0FFF                     l815:
 11494     0FFF  0008               	return
 11495     1000                     __end_of___fladd:
 11496                           
 11497                           	psect	text43
 11498     1264                     __ptext43:	
 11499 ;; *************** function _I2C_Init *****************
 11500 ;; Defined at:
 11501 ;;		line 41 in file "I2C.c"
 11502 ;; Parameters:    Size  Location     Type
 11503 ;;		None
 11504 ;; Auto vars:     Size  Location     Type
 11505 ;;		None
 11506 ;; Return value:  Size  Location     Type
 11507 ;;                  1    wreg      void 
 11508 ;; Registers used:
 11509 ;;		wreg, status,2, status,0, pclath, cstack
 11510 ;; Tracked objects:
 11511 ;;		On entry : 0/0
 11512 ;;		On exit  : 0/0
 11513 ;;		Unchanged: 0/0
 11514 ;; Data sizes:     COMMON   BANK0   BANK1   BANK2   BANK3   BANK4   BANK5   BANK6   BANK7   BANK8   BANK9  BANK10  BANK1
      +1  BANK12  BANK13  BANK14  BANK15  BANK16  BANK17  BANK18  BANK19  BANK20  BANK21  BANK22  BANK23  BANK24  BANK25
 11515 ;;      Params:         0       0       0       0       0       0       0       0       0       0       0       0       
      +0       0       0       0       0       0       0       0       0       0       0       0       0       0       0
 11516 ;;      Locals:         0       0       0       0       0       0       0       0       0       0       0       0       
      +0       0       0       0       0       0       0       0       0       0       0       0       0       0       0
 11517 ;;      Temps:          1       0       0       0       0       0       0       0       0       0       0       0       
      +0       0       0       0       0       0       0       0       0       0       0       0       0       0       0
 11518 ;;      Totals:         1       0       0       0       0       0       0       0       0       0       0       0       
      +0       0       0       0       0       0       0       0       0       0       0       0       0       0       0
 11519 ;;Total ram usage:        1 bytes
 11520 ;; Hardware stack levels used: 1
 11521 ;; Hardware stack levels required when called: 1
 11522 ;; This function calls:
 11523 ;;		_I2C_ClearErrors
 11524 ;; This function is called by:
 11525 ;;		_main
 11526 ;; This function uses a non-reentrant model
 11527 ;;
 11528                           
 11529     1264                     _I2C_Init:	
 11530                           ;psect for function _I2C_Init
 11531                           
 11532     1264                     l3871:	
 11533                           ;incstack = 0
 11534                           ; Regs used in _I2C_Init: [wreg+status,2+status,0+pclath+cstack]
 11535                           
 11536                           
 11537                           ;I2C.c: 44:     SSPCONbits.SSPM = 0x08;
 11538     1264  0024               	movlb	4	; select bank4
 11539     1265  0815               	movf	21,w	;volatile
 11540     1266  39F0               	andlw	-16
 11541     1267  3808               	iorlw	8
 11542     1268  0095               	movwf	21	;volatile
 11543     1269                     l3873:
 11544                           
 11545                           ;I2C.c: 47:     SSPCONbits.SSPEN = 1;
 11546     1269  1695               	bsf	21,5	;volatile
 11547     126A                     l3875:
 11548                           
 11549                           ;I2C.c: 50:     SSPADD = 79;
 11550     126A  304F               	movlw	79
 11551     126B  0092               	movwf	18	;volatile
 11552     126C                     l3877:
 11553                           
 11554                           ;I2C.c: 52:     I2C_ClearErrors();
 11555     126C  3192  223C  3192   	fcall	_I2C_ClearErrors
 11556     126F                     l3879:
 11557                           
 11558                           ;I2C.c: 53:     _delay((unsigned long)((10)*(32000000/4000.0)));
 11559     126F  3068               	movlw	104
 11560     1270  00F0               	movwf	??_I2C_Init
 11561     1271  30E4               	movlw	228
 11562     1272                     u5517:
 11563     1272  0B89               	decfsz	9,f
 11564     1273  2A72               	goto	u5517
 11565     1274  0BF0               	decfsz	??_I2C_Init,f
 11566     1275  2A72               	goto	u5517
 11567     1276  3200               	nop2
 11568     1277                     l32:
 11569     1277  0008               	return
 11570     1278                     __end_of_I2C_Init:
 11571                           
 11572                           	psect	text44
 11573     123C                     __ptext44:	
 11574 ;; *************** function _I2C_ClearErrors *****************
 11575 ;; Defined at:
 11576 ;;		line 62 in file "I2C.c"
 11577 ;; Parameters:    Size  Location     Type
 11578 ;;		None
 11579 ;; Auto vars:     Size  Location     Type
 11580 ;;		None
 11581 ;; Return value:  Size  Location     Type
 11582 ;;                  1    wreg      void 
 11583 ;; Registers used:
 11584 ;;		None
 11585 ;; Tracked objects:
 11586 ;;		On entry : 0/0
 11587 ;;		On exit  : 0/0
 11588 ;;		Unchanged: 0/0
 11589 ;; Data sizes:     COMMON   BANK0   BANK1   BANK2   BANK3   BANK4   BANK5   BANK6   BANK7   BANK8   BANK9  BANK10  BANK1
      +1  BANK12  BANK13  BANK14  BANK15  BANK16  BANK17  BANK18  BANK19  BANK20  BANK21  BANK22  BANK23  BANK24  BANK25
 11590 ;;      Params:         0       0       0       0       0       0       0       0       0       0       0       0       
      +0       0       0       0       0       0       0       0       0       0       0       0       0       0       0
 11591 ;;      Locals:         0       0       0       0       0       0       0       0       0       0       0       0       
      +0       0       0       0       0       0       0       0       0       0       0       0       0       0       0
 11592 ;;      Temps:          0       0       0       0       0       0       0       0       0       0       0       0       
      +0       0       0       0       0       0       0       0       0       0       0       0       0       0       0
 11593 ;;      Totals:         0       0       0       0       0       0       0       0       0       0       0       0       
      +0       0       0       0       0       0       0       0       0       0       0       0       0       0       0
 11594 ;;Total ram usage:        0 bytes
 11595 ;; Hardware stack levels used: 1
 11596 ;; This function calls:
 11597 ;;		Nothing
 11598 ;; This function is called by:
 11599 ;;		_I2C_Init
 11600 ;; This function uses a non-reentrant model
 11601 ;;
 11602                           
 11603     123C                     _I2C_ClearErrors:	
 11604                           ;psect for function _I2C_ClearErrors
 11605                           
 11606     123C                     l3499:	
 11607                           ;incstack = 0
 11608                           ; Regs used in _I2C_ClearErrors: []
 11609                           
 11610                           
 11611                           ;I2C.c: 65:     SSPCON1bits.SSPOV = 0;
 11612     123C  0024               	movlb	4	; select bank4
 11613     123D  1315               	bcf	21,6	;volatile
 11614                           
 11615                           ;I2C.c: 66:     SSPCON1bits.WCOL = 0;
 11616     123E  1395               	bcf	21,7	;volatile
 11617                           
 11618                           ;I2C.c: 69:     PIR2bits.BCL1IF = 0;
 11619     123F  0020               	movlb	0	; select bank0
 11620     1240  1192               	bcf	18,3	;volatile
 11621                           
 11622                           ;I2C.c: 72:     PIR1bits.SSP1IF = 0;
 11623     1241  1191               	bcf	17,3	;volatile
 11624     1242                     l35:
 11625     1242  0008               	return
 11626     1243                     __end_of_I2C_ClearErrors:
 11627     007E                     btemp	set	126	;btemp
 11628     007E                     wtemp0	set	126
 11629     24F0                     
 11630                           	psect	config
 11631                           
 11632                           ;Config register CONFIG1 @ 0x8007
 11633                           ;	Oscillator Selection Bits
 11634                           ;	FOSC = INTOSC, INTOSC oscillator: I/O function on CLKIN pin
 11635                           ;	Watchdog Timer Enable
 11636                           ;	WDTE = OFF, WDT disabled
 11637                           ;	Power-up Timer Enable
 11638                           ;	PWRTE = OFF, PWRT disabled
 11639                           ;	MCLR Pin Function Select
 11640                           ;	MCLRE = OFF, MCLR/VPP pin function is digital input if LVP bit is also 0.
 11641                           ;	Flash Program Memory Code Protection
 11642                           ;	CP = OFF, Program memory code protection is disabled
 11643                           ;	Brown-out Reset Enable
 11644                           ;	BOREN = OFF, Brown-out Reset disabled
 11645                           ;	Clock Out Enable
 11646                           ;	CLKOUTEN = OFF, CLKOUT function is disabled. I/O or oscillator function on the CLKOUT 
      +                          pin
 11647                           ;	Internal/External Switchover Mode
 11648                           ;	IESO = ON, Internal/External Switchover Mode is enabled
 11649                           ;	Fail-Safe Clock Monitor Enable
 11650                           ;	FCMEN = OFF, Fail-Safe Clock Monitor is disabled
 11651     8007                     	org	32775
 11652     8007  19A4               	dw	6564
 11653                           
 11654                           ;Config register CONFIG2 @ 0x8008
 11655                           ;	Flash Memory Self-Write Protection
 11656                           ;	WRT = OFF, Write protection off
 11657                           ;	Peripheral Pin Select one-way control
 11658                           ;	PPS1WAY = ON, The PPSLOCK bit cannot be cleared once it is set by software
 11659                           ;	Zero-cross detect disable
 11660                           ;	ZCDDIS = ON, ZCD disabled. ZCD can be enabled by setting the ZCDSEN bit of ZCDCON
 11661                           ;	Phase Lock Loop enable
 11662                           ;	PLLEN = OFF, 4x PLL is disabled
 11663                           ;	Stack Overflow/Underflow Reset Enable
 11664                           ;	STVREN = ON, Stack Overflow or Underflow will cause a Reset
 11665                           ;	Brown-out Reset Voltage Selection
 11666                           ;	BORV = LO, Brown-out Reset Voltage (Vbor), low trip point selected.
 11667                           ;	Low-Power Brown Out Reset
 11668                           ;	LPBOR = OFF, Low-Power BOR is disabled
 11669                           ;	In-Circuit Debugger Mode
 11670                           ;	DEBUG = 0x1, unprogrammed default
 11671                           ;	Low-Voltage Programming Enable
 11672                           ;	LVP = OFF, High-voltage on MCLR/VPP must be used for programming
 11673     8008                     	org	32776
 11674     8008  1EFF               	dw	7935

Data Sizes:
    Strings     89
    Constant    778
    Data        0
    BSS         0
    Persistent  32
    Stack       0

Auto Spaces:
    Space          Size  Autos    Used
    COMMON           14     14      14
    BANK0            80     80      80
    BANK1            80     69      69
    BANK2            80      0       0
    BANK3            80      0       0
    BANK4            80      0       0
    BANK5            80      0       0
    BANK6            80      0       0
    BANK7            80      0       0
    BANK8            80      0       0
    BANK9            80      0       0
    BANK10           80      0       0
    BANK11           80      0       0
    BANK12           80      0       0
    BANK13           80      0       0
    BANK14           80      0       0
    BANK15           64      0       0
    BANK16            0      0       0
    BANK17            0      0       0
    BANK18            0      0       0
    BANK19            0      0       0
    BANK20            0      0       0
    BANK21            0      0       0
    BANK22            0      0       0
    BANK23            0      0       0
    BANK24            0      0       0
    BANK25            0      0       0

Pointer List with Targets:

    MAX6675_ReadADC@adc_value	PTR unsigned short  size(1) Largest target is 2
		 -> MAX6675_ReadADC_Averaged@reading(COMMON[2]), MAX6675_ReadTemp@adc_value(BANK0[2]), 

    MAX6675_ReadTemp@temp	PTR float  size(1) Largest target is 4
		 -> main@temperature(BANK1[4]), 

    memcpy@d	PTR unsigned char  size(2) Largest target is 512
		 -> screen_buffer(BIGRAM[512]), 

    memcpy@d1	PTR void  size(2) Largest target is 512
		 -> screen_buffer(BIGRAM[512]), 

    memcpy@s	PTR const unsigned char  size(2) Largest target is 768
		 -> OledFont(CODE[768]), 

    memcpy@s1	PTR const void  size(2) Largest target is 768
		 -> OledFont(CODE[768]), 

    memset@dest	PTR void  size(2) Largest target is 512
		 -> screen_buffer(BIGRAM[512]), 

    memset@p	PTR unsigned char  size(2) Largest target is 512
		 -> screen_buffer(BIGRAM[512]), 

    OLED_Printf_Line@ap	PTR void [1] size(1) Largest target is 1
		 -> ?_OLED_Printf_Line(BANK0[1]), 

    OLED_Printf_Line@dst	PTR unsigned char  size(1) Largest target is 32
		 -> OLED_Printf_Line@buf(BANK0[32]), 

    OLED_Printf_Line@fmt	PTR const unsigned char  size(2) Largest target is 15
		 -> STR_10(CODE[13]), STR_11(CODE[13]), STR_7(CODE[15]), STR_8(CODE[9]), 
		 -> STR_9(CODE[9]), 

    OLED_Printf_Line@p	PTR const unsigned char  size(1) Largest target is 32
		 -> OLED_Printf_Line@buf(BANK0[32]), 

    OLED_Printf_Line@src	PTR const unsigned char  size(2) Largest target is 15
		 -> STR_10(CODE[13]), STR_11(CODE[13]), STR_7(CODE[15]), STR_8(CODE[9]), 
		 -> STR_9(CODE[9]), 

    OLED_Printf_Line@str	PTR const unsigned char  size(2) Largest target is 11
		 -> ?_OLED_Printf_Line(BANK0[1]), STR_1(CODE[11]), STR_2(CODE[7]), STR_3(CODE[8]), 
		 -> STR_4(CODE[2]), STR_5(CODE[2]), STR_6(CODE[2]), 

    OLED_WriteData@data	PTR const unsigned char  size(2) Largest target is 768
		 -> OledFont(CODE[768]), screen_buffer(BIGRAM[512]), 

    sp__getUnitString	PTR const unsigned char  size(2) Largest target is 11
		 -> STR_1(CODE[11]), STR_2(CODE[7]), STR_3(CODE[8]), 

    sp__getUnitSymbol	PTR const unsigned char  size(2) Largest target is 2
		 -> STR_4(CODE[2]), STR_5(CODE[2]), STR_6(CODE[2]), 

    sp__memcpy	PTR void  size(2) Largest target is 512
		 -> screen_buffer(BIGRAM[512]), 

    sp__memset	PTR void  size(2) Largest target is 512
		 -> screen_buffer(BIGRAM[512]), 

    sp__strcpy	PTR unsigned char  size(2) Largest target is 256
		 -> OLED_Printf_Line@last_text(BIGRAM[256]), 

    strcmp@l	PTR const unsigned char  size(1) Largest target is 32
		 -> OLED_Printf_Line@buf(BANK0[32]), 

    strcmp@r	PTR const unsigned char  size(2) Largest target is 256
		 -> OLED_Printf_Line@last_text(BIGRAM[256]), 

    strcpy@d	PTR unsigned char  size(2) Largest target is 256
		 -> OLED_Printf_Line@last_text(BIGRAM[256]), 

    strcpy@dest	PTR unsigned char  size(2) Largest target is 256
		 -> OLED_Printf_Line@last_text(BIGRAM[256]), 

    strcpy@src	PTR const unsigned char  size(1) Largest target is 32
		 -> OLED_Printf_Line@buf(BANK0[32]), 


Critical Paths under _main in COMMON

    _main->_OLED_Init
    _displayTemperature->___xxtofl
    ___fltol->___xxtofl
    ___flsub->___xxtofl
    _OLED_Printf_Line->___lldiv
    _OLED_UpdateLine->_OLED_WriteData
    _OLED_SetOrientation->_OLED_Command
    _OLED_Init->_OLED_Clear
    _OLED_Clear->_OLED_WriteData
    _OLED_YX->_OLED_Command
    _OLED_Command->_I2C_WriteByte
    _OLED_WriteData->_I2C_WriteByte
    _I2C_WriteByte->_I2C_WaitIF
    _I2C_WriteByte->_I2C_WaitIdle
    _I2C_Stop->_I2C_WaitIF
    _I2C_Stop->_I2C_WaitIdle
    _I2C_Start->_I2C_WaitIF
    _I2C_Start->_I2C_WaitIdle
    _MAX6675_ReadADC->_MAX6675_ReadRaw
    _MAX6675_ConvertTemp->___xxtofl
    ___flmul->___xxtofl
    ___fladd->__Umul8_16

Critical Paths under _main in BANK0

    _main->_OLED_Printf_Line
    _displayTemperature->_OLED_Printf_Line
    ___fltol->___flmul
    ___flsub->___fladd
    _OLED_Printf_Line->_OLED_UpdateLine
    _OLED_Printf_Line->___aldiv
    _OLED_Init->_OLED_Clear
    _MAX6675_ReadTemp->_MAX6675_ConvertTemp
    _MAX6675_ConvertTemp->___flmul
    ___flmul->___flsub

Critical Paths under _main in BANK1

    _main->_displayTemperature
    _displayTemperature->_OLED_Printf_Line

Critical Paths under _main in BANK2

    None.

Critical Paths under _main in BANK3

    None.

Critical Paths under _main in BANK4

    None.

Critical Paths under _main in BANK5

    None.

Critical Paths under _main in BANK6

    None.

Critical Paths under _main in BANK7

    None.

Critical Paths under _main in BANK8

    None.

Critical Paths under _main in BANK9

    None.

Critical Paths under _main in BANK10

    None.

Critical Paths under _main in BANK11

    None.

Critical Paths under _main in BANK12

    None.

Critical Paths under _main in BANK13

    None.

Critical Paths under _main in BANK14

    None.

Critical Paths under _main in BANK15

    None.

Critical Paths under _main in BANK16

    None.

Critical Paths under _main in BANK17

    None.

Critical Paths under _main in BANK18

    None.

Critical Paths under _main in BANK19

    None.

Critical Paths under _main in BANK20

    None.

Critical Paths under _main in BANK21

    None.

Critical Paths under _main in BANK22

    None.

Critical Paths under _main in BANK23

    None.

Critical Paths under _main in BANK24

    None.

Critical Paths under _main in BANK25

    None.

Call Graph Tables:

 ---------------------------------------------------------------------------------
 (Depth) Function   	        Calls       Base Space   Used Autos Params    Refs
 ---------------------------------------------------------------------------------
 (0) _main                                                 9     9      0   64384
                                             60 BANK1      9     9      0
                           _I2C_Init
                   _MAX6675_ReadTemp
                         _OLED_Clear
                          _OLED_Init
                   _OLED_Printf_Line
                _OLED_SetOrientation
                 _displayTemperature
                           _initMain
 ---------------------------------------------------------------------------------
 (1) _initMain                                             1     1      0       0
                                              0 COMMON     1     1      0
                       _MAX6675_Init
                        _internal_32
 ---------------------------------------------------------------------------------
 (2) _internal_32                                          0     0      0       0
 ---------------------------------------------------------------------------------
 (2) _MAX6675_Init                                         0     0      0       0
 ---------------------------------------------------------------------------------
 (1) _displayTemperature                                  11     5      6   21419
                                             49 BANK1     11     5      6
                   _OLED_Printf_Line
                            ___flmul
                            ___flsub
                            ___fltol
                           ___xxtofl
                      _getUnitString
                      _getUnitSymbol
 ---------------------------------------------------------------------------------
 (2) _getUnitSymbol                                        3     1      2      22
                                              0 COMMON     3     1      2
 ---------------------------------------------------------------------------------
 (2) _getUnitString                                        3     1      2      22
                                              0 COMMON     3     1      2
 ---------------------------------------------------------------------------------
 (2) ___fltol                                             10     6      4     381
                                             50 BANK0     10     6      4
                            ___flmul (ARG)
                            ___flsub (ARG)
                           ___xxtofl (ARG)
 ---------------------------------------------------------------------------------
 (2) ___flsub                                              8     0      8    2637
                                             16 BANK0      8     0      8
                            ___fladd
                           ___xxtofl (ARG)
 ---------------------------------------------------------------------------------
 (2) _OLED_Printf_Line                                   123   115      8   14733
                                              6 BANK0     74    66      8
                                              0 BANK1     49    49      0
                    _OLED_UpdateLine
                            ___aldiv
                            ___almod
                            ___awdiv
                            ___awmod
                            ___lldiv
                            ___llmod
                            ___lwdiv
                            ___lwmod
                      _getUnitString (ARG)
                      _getUnitSymbol (ARG)
                             _memcpy
                             _memset
                             _strcmp
                             _strcpy
 ---------------------------------------------------------------------------------
 (3) _strcpy                                               7     4      3     225
                                              0 COMMON     7     4      3
 ---------------------------------------------------------------------------------
 (3) _strcmp                                               4     2      2     221
                                              0 COMMON     4     2      2
 ---------------------------------------------------------------------------------
 (3) _memcpy                                              11     5      6     371
                                              0 COMMON    11     5      6
 ---------------------------------------------------------------------------------
 (3) ___lwmod                                              6     2      4     311
                                              0 COMMON     6     2      4
 ---------------------------------------------------------------------------------
 (3) ___lwdiv                                              8     4      4     314
                                              0 COMMON     8     4      4
 ---------------------------------------------------------------------------------
 (3) ___llmod                                             10     2      8     311
                                              0 COMMON    10     2      8
 ---------------------------------------------------------------------------------
 (3) ___lldiv                                             14     6      8     466
                                              0 COMMON    14     6      8
 ---------------------------------------------------------------------------------
 (3) ___awmod                                              7     3      4     448
                                              0 COMMON     7     3      4
 ---------------------------------------------------------------------------------
 (3) ___awdiv                                              9     5      4     604
                                              0 COMMON     9     5      4
 ---------------------------------------------------------------------------------
 (3) ___almod                                             11     3      8     448
                                              0 COMMON    11     3      8
 ---------------------------------------------------------------------------------
 (3) ___aldiv                                             15     7      8     452
                                              0 COMMON     9     1      8
                                              0 BANK0      6     6      0
 ---------------------------------------------------------------------------------
 (3) _OLED_UpdateLine                                      7     7      0    7135
                                             12 COMMON     1     1      0
                                              0 BANK0      6     6      0
                     _OLED_WriteData
                            _OLED_YX
 ---------------------------------------------------------------------------------
 (1) _OLED_SetOrientation                                  3     3      0    3038
                                              7 COMMON     3     3      0
                       _OLED_Command
 ---------------------------------------------------------------------------------
 (1) _OLED_Init                                            1     1      0   10749
                                             13 COMMON     1     1      0
                         _OLED_Clear
                       _OLED_Command
 ---------------------------------------------------------------------------------
 (2) _OLED_Clear                                           7     7      0    7733
                                             12 COMMON     1     1      0
                                              0 BANK0      6     6      0
                     _OLED_WriteData
                            _OLED_YX
                             _memset
 ---------------------------------------------------------------------------------
 (3) _memset                                               8     2      6     552
                                              0 COMMON     8     2      6
 ---------------------------------------------------------------------------------
 (4) _OLED_YX                                              4     3      1    3333
                                              7 COMMON     4     3      1
                       _OLED_Command
 ---------------------------------------------------------------------------------
 (5) _OLED_Command                                         2     2      0    3016
                                              5 COMMON     2     2      0
                          _I2C_Start
                           _I2C_Stop
                      _I2C_WriteByte
                      _SSD1306_CtrlW
 ---------------------------------------------------------------------------------
 (4) _OLED_WriteData                                       7     3      4    3736
                                              5 COMMON     7     3      4
                          _I2C_Start
                           _I2C_Stop
                      _I2C_WriteByte
                      _SSD1306_CtrlW
 ---------------------------------------------------------------------------------
 (6) _SSD1306_CtrlW                                        0     0      0       0
 ---------------------------------------------------------------------------------
 (6) _I2C_WriteByte                                        2     2      0     992
                                              3 COMMON     2     2      0
                         _I2C_WaitIF
                       _I2C_WaitIdle
 ---------------------------------------------------------------------------------
 (6) _I2C_Stop                                             1     1      0     938
                                              3 COMMON     1     1      0
                         _I2C_WaitIF
                       _I2C_WaitIdle
 ---------------------------------------------------------------------------------
 (6) _I2C_Start                                            1     1      0     970
                                              3 COMMON     1     1      0
                         _I2C_WaitIF
                       _I2C_WaitIdle
 ---------------------------------------------------------------------------------
 (7) _I2C_WaitIdle                                         3     1      2     402
                                              0 COMMON     3     1      2
 ---------------------------------------------------------------------------------
 (7) _I2C_WaitIF                                           3     1      2     478
                                              0 COMMON     3     1      2
 ---------------------------------------------------------------------------------
 (1) _MAX6675_ReadTemp                                     5     4      1    6546
                                             58 BANK0      5     4      1
                _MAX6675_ConvertTemp
                    _MAX6675_ReadADC
 ---------------------------------------------------------------------------------
 (2) _MAX6675_ReadADC                                      7     7      0     226
                                              6 COMMON     7     7      0
                    _MAX6675_ReadRaw
 ---------------------------------------------------------------------------------
 (3) _MAX6675_ReadRaw                                      6     4      2      71
                                              0 COMMON     6     4      2
 ---------------------------------------------------------------------------------
 (2) _MAX6675_ConvertTemp                                  8     4      4    6052
                                             50 BANK0      8     4      4
                            ___fladd
                            ___flmul
                           ___xxtofl
 ---------------------------------------------------------------------------------
 (2) ___xxtofl                                            14    10      4     474
                                              0 COMMON    14    10      4
 ---------------------------------------------------------------------------------
 (2) ___flmul                                             26    18      8    2721
                                             24 BANK0     26    18      8
                          __Umul8_16
                            ___fladd (ARG)
                            ___flsub (ARG)
                           ___xxtofl (ARG)
 ---------------------------------------------------------------------------------
 (3) __Umul8_16                                            9     7      2     799
                                              0 COMMON     9     7      2
 ---------------------------------------------------------------------------------
 (3) ___fladd                                             20    12      8    2440
                                              9 COMMON     4     4      0
                                              0 BANK0     16     8      8
                          __Umul8_16 (ARG)
 ---------------------------------------------------------------------------------
 (1) _I2C_Init                                             1     1      0       0
                                              0 COMMON     1     1      0
                    _I2C_ClearErrors
 ---------------------------------------------------------------------------------
 (2) _I2C_ClearErrors                                      0     0      0       0
 ---------------------------------------------------------------------------------
 Estimated maximum stack depth 7
 ---------------------------------------------------------------------------------

 Call Graph Graphs:

 _main (ROOT)
   _I2C_Init
     _I2C_ClearErrors
   _MAX6675_ReadTemp
     _MAX6675_ConvertTemp
       ___fladd
         __Umul8_16 (ARG)
       ___flmul
         __Umul8_16
         ___fladd (ARG)
         ___flsub (ARG)
           ___fladd
           ___xxtofl (ARG)
         ___xxtofl (ARG)
       ___xxtofl
     _MAX6675_ReadADC
       _MAX6675_ReadRaw
   _OLED_Clear
     _OLED_WriteData
       _I2C_Start
         _I2C_WaitIF
         _I2C_WaitIdle
       _I2C_Stop
         _I2C_WaitIF
         _I2C_WaitIdle
       _I2C_WriteByte
         _I2C_WaitIF
         _I2C_WaitIdle
       _SSD1306_CtrlW
     _OLED_YX
       _OLED_Command
         _I2C_Start
         _I2C_Stop
         _I2C_WriteByte
         _SSD1306_CtrlW
     _memset
   _OLED_Init
     _OLED_Clear
     _OLED_Command
   _OLED_Printf_Line
     _OLED_UpdateLine
       _OLED_WriteData
       _OLED_YX
     ___aldiv
     ___almod
     ___awdiv
     ___awmod
     ___lldiv
     ___llmod
     ___lwdiv
     ___lwmod
     _getUnitString (ARG)
     _getUnitSymbol (ARG)
     _memcpy (ARG)
     _memset (ARG)
     _strcmp (ARG)
     _strcpy (ARG)
   _OLED_SetOrientation
     _OLED_Command
   _displayTemperature
     _OLED_Printf_Line
     ___flmul
     ___flsub
     ___fltol
       ___flmul (ARG)
       ___flsub (ARG)
       ___xxtofl (ARG)
     ___xxtofl
     _getUnitString
     _getUnitSymbol
   _initMain
     _MAX6675_Init
     _internal_32

 Address spaces:
Name               Size   Autos  Total    Cost      Usage
BIGRAM             7F0      0       0       0        0.0%
NULL                 0      0       0       0        0.0%
CODE                 0      0       0       0        0.0%
BITCOMMON            E      0       0       1        0.0%
BITSFR0              0      0       0       1        0.0%
SFR0                 0      0       0       1        0.0%
COMMON               E      E       E       2      100.0%
BITSFR1              0      0       0       2        0.0%
SFR1                 0      0       0       2        0.0%
BITSFR2              0      0       0       3        0.0%
SFR2                 0      0       0       3        0.0%
STACK                0      0       0       3        0.0%
BITBANK0            50      0       0       4        0.0%
BITSFR3              0      0       0       4        0.0%
SFR3                 0      0       0       4        0.0%
BANK0               50     50      50       5      100.0%
BITSFR4              0      0       0       5        0.0%
SFR4                 0      0       0       5        0.0%
BITBANK1            50      0       0       6        0.0%
BITSFR5              0      0       0       6        0.0%
SFR5                 0      0       0       6        0.0%
BANK1               50     45      45       7       86.2%
BITSFR6              0      0       0       7        0.0%
SFR6                 0      0       0       7        0.0%
BITBANK2            50      0       0       8        0.0%
BITSFR7              0      0       0       8        0.0%
SFR7                 0      0       0       8        0.0%
BANK2               50      0       0       9        0.0%
BITSFR8              0      0       0       9        0.0%
SFR8                 0      0       0       9        0.0%
BITBANK3            50      0       0      10        0.0%
BITSFR9              0      0       0      10        0.0%
SFR9                 0      0       0      10        0.0%
BANK3               50      0       0      11        0.0%
BITSFR10             0      0       0      11        0.0%
SFR10                0      0       0      11        0.0%
BITBANK4            50      0       0      12        0.0%
BITSFR11             0      0       0      12        0.0%
SFR11                0      0       0      12        0.0%
BANK4               50      0       0      13        0.0%
BITSFR12             0      0       0      13        0.0%
SFR12                0      0       0      13        0.0%
BITSFR13             0      0       0      14        0.0%
SFR13                0      0       0      14        0.0%
ABS                  0      0       0      14        0.0%
BITBANK5            50      0       0      15        0.0%
BITSFR14             0      0       0      15        0.0%
SFR14                0      0       0      15        0.0%
BANK5               50      0       0      16        0.0%
BITSFR15             0      0       0      16        0.0%
SFR15                0      0       0      16        0.0%
BITBANK6            50      0       0      17        0.0%
BITSFR16             0      0       0      17        0.0%
SFR16                0      0       0      17        0.0%
BANK6               50      0       0      18        0.0%
BITSFR17             0      0       0      18        0.0%
SFR17                0      0       0      18        0.0%
BITBANK7            50      0       0      19        0.0%
BITSFR18             0      0       0      19        0.0%
SFR18                0      0       0      19        0.0%
BANK7               50      0       0      20        0.0%
BITSFR19             0      0       0      20        0.0%
SFR19                0      0       0      20        0.0%
BITBANK8            50      0       0      21        0.0%
BITSFR20             0      0       0      21        0.0%
SFR20                0      0       0      21        0.0%
BANK8               50      0       0      22        0.0%
BITSFR21             0      0       0      22        0.0%
SFR21                0      0       0      22        0.0%
BITBANK9            50      0       0      23        0.0%
BITSFR22             0      0       0      23        0.0%
SFR22                0      0       0      23        0.0%
BANK9               50      0       0      24        0.0%
BITSFR23             0      0       0      24        0.0%
SFR23                0      0       0      24        0.0%
BITBANK10           50      0       0      25        0.0%
BITSFR24             0      0       0      25        0.0%
SFR24                0      0       0      25        0.0%
BANK10              50      0       0      26        0.0%
BITSFR25             0      0       0      26        0.0%
SFR25                0      0       0      26        0.0%
BITBANK11           50      0       0      27        0.0%
BITSFR26             0      0       0      27        0.0%
SFR26                0      0       0      27        0.0%
BITSFR27             0      0       0      28        0.0%
SFR27                0      0       0      28        0.0%
DATA                 0      0       0      28        0.0%
BANK11              50      0       0      29        0.0%
BITSFR28             0      0       0      29        0.0%
SFR28                0      0       0      29        0.0%
BITBANK12           50      0       0      30        0.0%
BITSFR29             0      0       0      30        0.0%
SFR29                0      0       0      30        0.0%
BANK12              50      0       0      31        0.0%
BITSFR30             0      0       0      31        0.0%
SFR30                0      0       0      31        0.0%
BITBANK13           50      0       0      32        0.0%
BITSFR31             0      0       0      32        0.0%
SFR31                0      0       0      32        0.0%
BANK13              50      0       0      33        0.0%
BITBANK14           50      0       0      34        0.0%
BANK14              50      0       0      35        0.0%
BITBANK15           50      0       0      36        0.0%
BANK15              40      0       0      37        0.0%
BITBANK16           50      0       0      38        0.0%
BANK16               0      0       0      39        0.0%
BITBANK17           50      0       0      40        0.0%
BANK17               0      0       0      41        0.0%
BITBANK18           50      0       0      42        0.0%
BANK18               0      0       0      43        0.0%
BITBANK19           50      0       0      44        0.0%
BANK19               0      0       0      45        0.0%
BITBANK20           50      0       0      46        0.0%
BANK20               0      0       0      47        0.0%
BITBANK21           50      0       0      48        0.0%
BANK21               0      0       0      49        0.0%
BITBANK22           50      0       0      50        0.0%
BANK22               0      0       0      51        0.0%
BITBANK23           50      0       0      52        0.0%
BANK23               0      0       0      53        0.0%
BITBANK24           50      0       0      54        0.0%
BANK24               0      0       0      55        0.0%
BITBANK25           20      0       0      56        0.0%
BANK25               0      0       0      57        0.0%


Microchip Technology PIC Macro Assembler V2.46 build 20240104201356 
Symbol Table                                                                                   Fri Jan 30 23:08:31 2026

                 _SSPSTATbits 0214                            l32 1277                            l41 13B2  
                          l26 12EA                            l35 1242                            l28 1306  
                          l60 1528                            l45 13C2                            l61 1549  
                          l46 13D7                            l62 153B                            l47 13D4  
                          l55 137A                            l63 1543                            l56 138E  
                          l57 138C                  ___awdiv@sign 0076       __end_of_MAX6675_ReadADC 1489  
     __end_of_MAX6675_ReadRaw 1518           __Umul8_16@word_mpld 0076     OLED_Printf_Line@last_text 26F0  
                         l101 0B11                           l111 16E1                           l105 14B6  
                         l115 16D6                           l131 1348                           l134 0BE4  
                         l143 142D                           l128 15FA                           l139 1691  
                         l421 0D64                           l166 07F1                           l343 12CB  
                         l352 12E8                           l273 124B                           l426 14E6  
                         l362 01A3                           l338 003F                           l702 17EA  
                         l392 1511                           l393 14FB                           l537 178E  
                         l705 17FF                           l802 0E4B                           l394 1517  
                         l731 1644                           l388 1257                           l806 0EC8  
                         l910 03D2                           l398 1488                           l566 0D78  
                         l654 0B70                           l823 0F5B                           l815 0FFF  
                         l808 0EA6                           l904 035E                           l576 0DF4  
                         l833 0F9F                           l827 0F7D                           l579 0C71  
                         l667 1734                           l844 0FF8                           l836 0FD6  
                         l845 0FFF                           l917 135B                           l589 0CD9  
                         l781 15B9                           l942 0062                           l919 136B  
                         l791 157D                           l695 17FF                           l944 00E9  
                         l848 1326                           l955 00B5                           l963 1401  
                         l956 00C1                           l948 009B                           l983 1292  
                         l969 12AE                           l977 145A                           l898 03DE  
                ___awmod@sign 0076                           wreg 0009                  ___flmul@aexp 004A  
                ___flmul@bexp 004B      __end_of_MAX6675_ReadTemp 14E7                  ___flmul@sign 0045  
                ___flmul@temp 0050                  ___flmul@prod 004C                  ___fltol@exp1 005B  
                        l3001 0B56                          l3011 0B6C                          l3003 0B57  
                        l3005 0B5C                          l3021 16EC                          l3101 1550  
                        l3007 0B62                          l3031 1700                          l3023 16EE  
                        l3015 16E2                          l3111 156A                          l3103 1553  
                        l3201 0E78                          l3121 0DF5                          l3009 0B67  
                        l3041 171B                          l3033 1705                          l3025 16F2  
                        l3017 16E3                          l3113 156E                          l3105 1558  
                        l3211 0EB5                          l3203 0E8F                          l3131 0E05  
                        l3123 0DF9                          l4011 14BF                          l3043 1720  
                        l3035 1709                          l3027 16F7                          l3019 16E7  
                        l3115 1573                          l3107 155C                          l4003 0157  
                        l3301 0FE8                          l3221 0ED1                          l3213 0EB6  
                        l3205 0EAA                          l3141 0E1D                          l3133 0E0A  
                        l3125 0DFB                          l4013 14C4                          l3037 170D  
                        l3029 16FD                          l3045 1726                          l3061 1615  
                        l3053 15FB                          l3109 1560                          l3117 1579  
                        l4005 017D                          l3311 0FFA                          l3303 0FED  
                        l3231 0EEC                          l3215 0EBE                          l3207 0EAE  
                        l3151 0E2D                          l3143 0E20                          l3135 0E12  
                        l3127 0DFF                          l4015 14DA                          l3047 172B  
                        l3039 1717                          l3063 1627                          l3055 1603  
                        l4007 0191                          l3313 0FFE                          l3305 0FEE  
                        l3241 0EFF                          l3233 0EF0                          l3225 0EDB  
                        l3209 0EB0                          l3217 0EC2                          l3161 0E41  
                        l3153 0E2E                          l3145 0E26                          l3137 0E13  
                        l3129 0E00                          l3401 0327                          l3321 01AE  
                        l4017 14E5                          l4009 14B9                          l3049 1730  
                        l3065 162F                          l3057 1606                          l3081 158E  
                        l3073 157E                          l4201 0C30                          l3307 0FF2  
                        l3251 0F4A                          l3235 0EF2                          l3227 0EE4  
                        l3219 0ECC                          l3243 0F04                          l3171 0E5B  
                        l3155 0E33                          l3163 0E43                          l3147 0E27  
                        l3139 0E15                          l3403 032E                          l3411 033E  
                        l3331 01C3                          l3323 01AF                          l3315 01A4  
                        l3067 1636                          l3059 1611                          l3091 15AA  
                        l3083 1592                          l3075 1580                          l4211 0C4F  
                        l4203 0C31                          l3309 0FF4                          l3261 0F71  
                        l3245 0F1B                          l3253 0F53                          l3237 0EF6  
                        l3229 0EE8                          l3181 0E65                          l3173 0E5D  
                        l3165 0E51                          l3157 0E38                          l3149 0E29  
                        l3413 0342                          l3405 0332                          l3341 01D7  
                        l3333 01CB                          l3325 01B4                          l3317 01A8  
                        l2621 12E9                          l3501 1645                          l3069 163C  
                        l3093 15AF                          l3085 1596                          l3077 1586  
                        l4205 0C34                          l3271 0F86                          l3263 0F78  
                        l3255 0F63                          l3247 0F3F                          l3239 0EF7  
                        l3191 0E6F                          l3183 0E67                          l3175 0E5F  
                        l3167 0E55                          l3159 0E40                          l3431 038C  
                        l3423 0363                          l3415 0343                          l3407 0333  
                        l3351 01F3                          l3343 01DC                          l3335 01D0  
                        l3327 01B9                          l3319 01AA                          l2631 1305  
                        l2623 12EF                          l2703 1540                          l3511 1668  
                        l3087 15A5                          l3079 1589                          l3095 15B5  
                        l4207 0C36                          l3281 0F96                          l3273 0F8B  
                        l3265 0F7C                          l3257 0F68                          l3249 0F45  
                        l3193 0E71                          l3185 0E69                          l3177 0E61  
                        l3169 0E59                          l2801 1362                          l3441 03BE  
                        l3425 0368                          l3433 0390                          l3417 0347  
                        l3409 033A                          l3361 0211                          l3353 01F8  
                        l3345 01E1                          l3337 01D2                          l3329 01C1  
                        l2641 139B                          l2705 1541                          l2713 0B10  
                        l3513 1686                          l3089 15A9                          l3601 0544  
                        l3521 03F2                          l4209 0C40                          l3291 0FB1  
                        l3283 0F9C                          l3267 0F81                          l3275 0F8D  
                        l3195 0E73                          l3187 0E6B                          l3179 0E63  
                        l2803 1367                          l3451 03D6                          l3443 03C0  
                        l3435 039D                          l3427 0370                          l3419 035B  
                        l3371 0268                          l3363 021E                          l3355 01FD  
                        l3347 01E9                          l3339 01D6                          l2627 12F1  
                        l2635 138F                          l2731 14A4                          l2723 1494  
                        l2811 129E                          l3515 168B                          l3507 1646  
                        l3099 154A                          l3611 057E                          l3603 054A  
                        l3531 0411                          l3523 03F5                          l3293 0FB5  
                        l3269 0F84                          l3277 0F91                          l3197 0E75  
                        l3189 0E6D                          l3445 03CB                          l3437 03A7  
                        l3429 0374                          l3381 0299                          l3373 0275  
                        l3365 0236                          l3349 01EB                          l3461 005A  
                        l2629 12F9                          l2645 139D                          l2637 1390  
                        l2661 13C6                          l2653 13B3                          l2709 1544  
                        l2733 14A9                          l2725 149B                          l2717 148A  
                        l2813 12A2                          l3509 1663                          l4245 15EC  
                        l2821 140F                          l2901 0D67                          l3621 05A2  
                        l3613 0584                          l3605 0566                          l3541 0426  
                        l3533 0415                          l3525 03FF                          l3517 03E1  
                        l4181 0BF5                          l4173 0BE5                          l3295 0FD2  
                        l3287 0FA4                          l3279 0F92                          l3199 0E77  
                        l3447 03CF                          l3439 03B5                          l3391 02D6  
                        l3383 02A0                          l3375 027C                          l3367 0243  
                        l3359 0206                          l3471 0081                          l3463 006A  
                        l3455 0041                          l2639 1397                          l2647 13A5  
                        l2663 13CE                          l2655 13BB                          l2743 1692  
                        l2727 14A0                          l2719 148E                          l2807 1293  
                        l2815 1403                          l2911 0D93                          l2903 0D6B  
                        l2831 144D                          l2823 142F                          l3703 06B9  
                        l3631 05C3                          l3623 05AB                          l3607 056E  
                        l3615 058C                          l3551 045B                          l3543 0438  
                        l3535 041A                          l3527 0404                          l3711 06CE  
                        l4191 0C0E                          l4183 0BFE                          l4175 0BEB  
                        l3297 0FDB                          l3289 0FA9                          l3449 03D0  
                        l3393 02E8                          l3385 02B2                          l3377 0287  
                        l3369 025B                          l3481 00AB                          l3473 0088  
                        l3457 0046                          l3801 1463                          l2649 13B1  
                        l2657 13C0                          l2681 1386                          l2673 136C  
                        l2761 16B3                          l2753 16A3                          l2809 1298  
                        l2921 0DB4                          l2913 0D9B                          l2905 0D7C  
                        l2841 13E1                          l2825 1430                          l3705 06BE  
                        l3641 05F2                          l3633 05C4                          l3617 0591  
                        l3609 0575                          l3625 05B1                          l3561 0480  
                        l3713 06E9                          l3553 0464                          l3545 043E  
                        l3537 0420                          l3529 040B                          l3721 0701  
                        l4193 0C14                          l4185 0C00                          l4177 0BEE  
                        l3299 0FE0                          l3395 02FD                          l3387 02B9  
                        l3379 028E                          l3491 00DC                          l3483 00AF  
                        l3475 008C                          l3467 0073                          l3459 004A  
                        l2851 14E7                          l3811 1487                          l3803 1467  
                        l2675 1374                          l2771 16C1                          l2763 16B8  
                        l2755 16AA                          l2747 1699                          l2739 14AF  
                        l2819 140A                          l2923 0DC6                          l2915 0D9E  
                        l2931 0DDC                          l2907 0D87                          l2843 13E7  
                        l2827 1438                          l2835 1278                          l3731 0738  
                        l3723 070A                          l3707 06C4                          l3651 0617  
                        l3643 05F9                          l3635 05D6                          l3627 05B6  
                        l3619 0597                          l3571 04B2                          l3563 048B  
                        l3555 046A                          l3547 044E                          l3539 0425  
                        l3715 06EE                          l4195 0C20                          l4187 0C08  
                        l4179 0BF2                          l3397 0314                          l3389 02CB  
                        l3493 00E0                          l3485 00B9                          l3477 0094  
                        l3469 0076                          l2861 14F0                          l2853 14E9  
                        l3805 146E                          l2669 13D6                          l2693 152A  
                        l2685 1519                          l2773 16CC                          l2757 16AF  
                        l2749 169D                          l3901 0B79                          l2933 0DE1  
                        l2925 0DCE                          l2917 0DA9                          l2909 0D8B  
                        l2941 0C60                          l2845 13EB                          l2829 1445  
                        l2837 127C                          l3741 077A                          l3733 0751  
                        l3725 0712                          l3717 06F7                          l3661 062F  
                        l3653 061D                          l3645 0602                          l3637 05DC  
                        l3629 05BD                          l3581 04EC                          l3573 04CE  
                        l3565 0491                          l3557 0472                          l3549 0454  
                        l4197 0C25                          l4189 0C09                          l3399 031B  
                        l3495 00E1                          l3487 00C3                          l3479 00A2  
                        l3823 0D51                          l3815 0CDA                          l2871 1513  
                        l2863 14F5                          l2855 14EB                          l2679 137E  
                        l2695 152D                          l2687 1521                          l2791 133C  
                        l3911 0B8D                          l3903 0B7D                          l2935 0DEC  
                        l2927 0DCF                          l2919 0DAD                          l2951 0C8B  
                        l2943 0C64                          l2847 13F1                          l2839 13D8  
                        l3751 07C9                          l3743 0780                          l3735 076F  
                        l3727 0716                          l3719 06FB                          l3671 064D  
                        l3663 0636                          l3655 061E                          l3647 0608  
                        l3639 05EC                          l3591 0513                          l3575 04D6  
                        l3567 0492                          l3583 04F4                          l3559 0476  
                        l3831 1799                          l4199 0C2A                          l2793 134A  
                        l3489 00D7                          l3825 0D5C                          l3817 0D03  
                        l2865 14FA                          l3809 1470                          l2697 1535  
                        l2689 1526                          l2769 16BE                          l2785 1328  
                        l3921 0BA1                          l3913 0B91                          l3905 0B81  
                        l2929 0DD6                          l2961 0CBB                          l2953 0C96  
                        l2945 0C75                          l2881 1753                          l2849 13F5  
                        l3745 0786                          l3753 07CF                          l3737 0771  
                        l3681 0672                          l3673 0654                          l3665 063C  
                        l3657 0621                          l3649 0610                          l3593 0518  
                        l3585 04FE                          l3577 04DD                          l3569 04AC  
                        l3841 17BC                          l3761 124C                          l3499 123C  
                        l2795 134C                          l3819 0D34                          l2867 1507  
                        l2779 16D2                          l2787 1331                          l3931 0BB5  
                        l3923 0BA5                          l3915 0B95                          l3907 0B85  
                        l2955 0C9A                          l2963 0CC1                          l2947 0C80  
                        l2939 0C5F                          l2971 0B12                          l2891 1779  
                        l2883 1757                          l2875 1735                          l3755 07D7  
                        l3747 0788                          l3739 0774                          l3691 0695  
                        l3683 0679                          l3675 065D                          l3667 0642  
                        l3659 0627                          l3595 051E                          l3587 0509  
                        l3579 04E6                          l3851 17CA                          l3843 17BE  
                        l3835 17A2                          l3763 12B0                          l2797 1353  
                        l2869 150B                          l2789 1337                          l3941 0BC9  
                        l3933 0BB9                          l3925 0BA9                          l3917 0B99  
                        l3909 0B89                          l2965 0CC6                          l2957 0CAC  
                        l2949 0C88                          l2981 0B22                          l2973 0B13  
                        l2893 1780                          l2885 175E                          l2877 1745  
                        l3757 07EC                          l3749 07C3                          l3693 069E  
                        l3685 0682                          l3677 0663                          l3669 0647  
                        l3597 0529                          l3589 050F                          l3861 17EF  
                        l3845 17C2                          l3853 17DA                          l3837 17B3  
                        l3829 178F                          l3773 12BB                          l3765 12B1  
                        l3781 12CD                          l3871 1264                          l2799 1357  
                        l3951 0BDD                          l3943 0BCD                          l3935 0BBD  
                        l3927 0BAD                          l3919 0B9D                          l2967 0CD1  
                        l2959 0CB4                          l2991 0B36                          l2983 0B27  
                        l2975 0B17                          l2887 1770                          l2879 1748  
                        l2895 1786                          l3695 06A6                          l3687 0686  
                        l3679 066B                          l3599 052A                          l3863 17F4  
                        l3839 17B4                          l3791 12D8                          l3783 12CE  
                        l3759 1243                          l3873 1269                          l3953 0BE1  
                        l3945 0BD1                          l3937 0BC1                          l3929 0BB1  
                        l3881 15BB                          l2993 0B3B                          l2985 0B2B  
                        l2977 0B1C                          l2889 1778                          l3697 06AC  
                        l3689 068C                          l3865 1307                          l3769 12B6  
                        l3961 0011                          l3875 126A                          l3947 0BD5  
                        l3939 0BC5                          l3883 15C0                          l2899 0D65  
                        l2995 0B3F                          l2987 0B2D                          l2979 0B1E  
                        l3699 06B3                          l3867 130A                          l3859 17E1  
                        l3779 12C0                          l3787 12D3                          l3971 001A  
                        l3963 0012                          l3955 0004                          l3877 126C  
                        l3949 0BD9                          l3885 15C9                          l3893 15E4  
                        l2997 0B43                          l2989 0B33                          l3797 12DD  
                        l3981 002E                          l3973 001B                          l3965 0014  
                        l3957 0007                          l3879 126F                          l3799 145C  
                        l3887 15D2                          l2999 0B52                          l3991 0038  
                        l3983 0031                          l3975 0020                          l3967 0015  
                        l3959 000F                          l3889 15DB                          l3993 003A  
                        l3985 0033                          l3977 0025                          l3969 0018  
                        l3899 0B71                          l3995 003C                          l3987 0034  
                        l3979 0029                          l3997 00EA                          l3989 0036  
                        l3999 00F0                          STR_1 181A                          STR_2 1849  
                        STR_3 1841                          STR_4 1850                          STR_5 1852  
                        STR_6 180B                          STR_7 0B00                          STR_8 1838  
                        STR_9 182F               __end_of_OLED_YX 1349               ??_getUnitString 0072  
             ??_getUnitSymbol 0072                   ?_OLED_Clear 0070                          u3000 1409  
                        u3001 1408                          u3020 1445                          u3021 1444  
                        u3110 1757                          u3030 144D                          u3015 1414  
                        u3111 1756                          u3031 144C                          u4000 0F7C  
                        u3200 0DAD                          u3040 1292                          u4001 0F7B  
                        u3201 0DAC                          u3105 1749                          u3041 1291  
                        u4010 0F81                          u3130 1770                          u3050 1401  
                        u4011 0F80                          u3131 176F                          u3051 1400  
                        u4100 0FD2                          u4020 0F8B                          u3220 0DC6  
                        u3300 0C9A                          u4101 0FD1                          u4021 0F8A  
                        u3221 0DC5                          u3301 0C99                          u3125 1758  
                        u4110 0FDB                          u4030 0F91                          u3070 14FA  
                        u3310 0CAC                          u3150 1786                          u4111 0FDA  
                        u4031 0F90                          u3071 14F9                          u3215 0DAE  
                        u3311 0CAB                          u3151 1785                          u3135 176C  
                        u4120 0FE0                          u4040 0F96                          u4200 01DC  
                        u3080 1511                          u3240 0DDC                          u3160 0D6B  
                        u4121 0FDF                          u4041 0F95                          u4201 01DB  
                        u3081 1510                          u3065 14F1                          u3241 0DDB  
                        u3225 0DC2                          u3161 0D6A                          u3145 177A  
                        u4130 0FED                          u4050 0F9C                          u4210 01E1  
                        u3250 0DE1                          u3170 0D7C                          u3330 0CC1  
                        u3410 0B52                          u3090 1745                          u5010 17D9  
                        u4131 0FEC                          u4051 0F9B                          u4211 01E0  
                        u3251 0DE0                          u3235 0DD0                          u3171 0D7B  
                        u3331 0CC0                          u3315 0CA8                          u3411 0B51  
                        u3091 1744                          u5011 17D8                          u4140 0FF2  
                        u4060 0FA3                          u4300 0332                          u4220 01F8  
                        u3180 0D9B                          u3340 0CC6                          u3260 0C64  
                        u3500 1717                          u5020 17E0                          u4141 0FF1  
                        u4061 0FA2                          u4301 0331                          u4221 01F7  
                        u3181 0D9A                          u3341 0CC5                          u3325 0CB5  
                        u3261 0C63                          u3405 0B44                          u3501 1716  
                        u5021 17DF                          u5005 17CB                          u4150 0FFE  
                        u4070 0FA9                          u4230 01FD                          u3270 0C75  
                        u3430 0B62                          u3350 0B17                          u4151 0FFD  
                        u4071 0FA8                          u4231 01FC                          u3271 0C74  
                        u3431 0B61                          u3415 0B4E                          u3351 0B16  
                        u4080 0FB5                          u4400 03B5                          u4320 0342  
                        u4160 01AE                          u2800 1379                          u3280 0C88  
                        u3440 0B67                          u3360 0B22                          u3520 1726  
                        u3600 1586                          u5040 17EF                          u4081 0FB4  
                        u4401 03B4                          u4321 0341                          u4161 01AD  
                        u2801 1378                          u3281 0C87                          u3441 0B66  
                        u3425 0B58                          u3361 0B21                          u3521 1725  
                        u3505 1713                          u3601 1585                          u5041 17EE  
                        u4090 0FC3                          u4410 03CF                          u4330 0347  
                        u4170 01B4                          u2730 12EF                          u2810 138B  
                        u3370 0B33                          u3530 172B                          u3450 16E7  
                        u5050 17F4                          u4411 03CE                          u4331 0346  
                        u4315 0334                          u4171 01B3                          u2731 12EE  
                        u2811 138A                          u3195 0D9F                          u3371 0B32  
                        u3531 172A                          u3515 171C                          u3451 16E6  
                        u5051 17F3                          u5035 17E2                          u4340 035B  
                        u4260 02F3                          u4180 01B9                          u4500 00AF  
                        u4420 0046                          u2740 1305                          u2820 1526  
                        u2900 16AF                          u3460 16F2                          u3540 1603  
                        u3620 1596                          u3700 156A                          u5060 00F0  
                        u4405 03B1                          u4341 035A                          u4245 0276  
                        u4181 01B8                          u4501 00AE                          u4421 0045  
                        u2741 1304                          u2821 1525                          u2901 16AE  
                        u3461 16F1                          u3541 1602                          u3621 1595  
                        u3701 1569                          u5061 00EF                          u4350 0362  
                        u4270 030A                          u4190 01D6                          u4510 00B5  
                        u4430 004A                          u5070 14C4                          u2750 1397  
                        u2830 153A                          u2910 16BD                          u3390 0B43  
                        u3470 16FD                          u4095 0FBF                          u4351 0361  
                        u4255 02A1                          u4191 01D5                          u4511 00B4  
                        u4431 0049                          u5071 14C3                          u2751 1396  
                        u2831 1539                          u2911 16BC                          u3295 0C8C  
                        u3391 0B42                          u3471 16FC                          u3615 158A  
                        u3800 0E51                          u4360 0368                          u4520 00B9  
                        u4440 006A                          u2760 139B                          u2840 1540  
                        u2920 16D1                          u3560 1615                          u3640 15A5  
                        u3720 1579                          u4600 03FF                          u5400 0C14  
                        u3801 0E50                          u4361 0367                          u4265 02EF  
                        u4521 00B8                          u4441 0069                          u2761 139A  
                        u2841 153F                          u2921 16D0                          u3385 0B37  
                        u3561 1614                          u3641 15A4                          u3721 1578  
                        u3705 1566                          u4601 03FE                          u5401 0C13  
                        u3810 0E55                          u3730 0DFF                          u4370 0374  
                        u4530 00CD                          u2770 13B1                          u2930 16E0  
                        u2850 1493                          u3490 170D                          u3570 1627  
                        u4610 0415                          u5410 0C25                          u3811 0E54  
                        u3731 0DFE                          u4371 0373                          u4275 0306  
                        u2771 13B0                          u2931 16DF                          u2851 1492  
                        u3491 170C                          u3571 1626                          u3555 1607  
                        u3635 1597                          u3715 156F                          u4611 0414  
                        u5411 0C24                          u3900 0ED1                          u3820 0E8F  
                        u3740 0E05                          u4380 0382                          u4540 00DC  
                        u4460 0087                          u2780 13C0                          u2860 14A0  
                        u3660 15B5                          u4700 0513                          u4620 0454  
                        u5420 0C30                          u3901 0ED0                          u3821 0E8E  
                        u3741 0E04                          u4285 0315                          u4541 00DB  
                        u4461 0086                          u2781 13BF                          u2861 149F  
                        u3485 1701                          u3661 15B4                          u3645 15A1  
                        u4701 0512                          u4621 0453                          u5421 0C2F  
                        u3910 0EE8                          u3830 0E99                          u3750 0E0A  
                        u4390 039D                          u4550 00E0                          u2790 13D3  
                        u2870 14AE                          u3590 163C                          u3670 1550  
                        u4710 056E                          u4630 045A                          u3911 0EE7  
                        u3831 0E97                          u3751 0E09                          u4391 039C  
                        u4295 0328                          u4551 00DF                          u4535 00C9  
                        u4455 007B                          u2791 13D2                          u2935 16DC  
                        u2871 14AD                          u3591 163B                          u3575 1623  
                        u3655 15AB                          u3671 154F                          u4711 056D  
                        u4631 0459                          u3920 0EEC                          u3840 0E9A  
                        u3760 0E26                          u2960 1357                          u4480 00A1  
                        u2880 1698                          u4800 0653                          u4720 0574  
                        u4640 0471                          u3921 0EEB                          u3825 0E8B  
                        u3761 0E25                          u2961 1356                          u4385 037E  
                        u4481 00A0                          u2881 1697                          u2945 132B  
                        u3585 1630                          u4801 0652                          u4721 0573  
                        u4641 0470                          u3930 0EF6                          u3850 0EAA  
                        u3770 0E2D                          u2890 16A2                          u3690 1560  
                        u4810 066A                          u4730 058B                          u4650 0480  
                        u3931 0EF5                          u3851 0EA9                          u3771 0E2C  
                        u4395 0399                          u4475 0095                          u5507 12F4  
                        u2891 16A1                          u2955 133F                          u3691 155F  
                        u4811 0669                          u4731 058A                          u4651 047F  
                        u3860 0EB5                          u3780 0E33                          u2980 1367  
                        u4580 1691                          u4900 0780                          u4820 0695  
                        u4740 05F2                          u4660 04D6                          u5517 1272  
                        u3861 0EB4                          u3781 0E32                          u2981 1366  
                        u4581 1690                          u4565 164B                          u3685 1554  
                        u4901 077F                          u4821 0694                          u4741 05F1  
                        u4661 04D5                          u3950 0F1B                          u3790 0E38  
                        u2990 12AE                          u4910 0786                          u4830 069D  
                        u4750 05F8                          u4670 04DC                          u4590 03F1  
                        u5390 0C0E                          u3951 0F1A                          u3791 0E37  
                        u2975 135C                          u4495 00A5                          u2991 12AD  
                        u4575 166D                          u4911 0785                          u4831 069C  
                        u4751 05F7                          u4671 04DB                          u4591 03F0  
                        u5391 0C0D                          u3960 0F4A                          u3880 0EC8  
                        u4840 070A                          u4760 060F                          u4680 04F3  
                        u3961 0F49                          u3953 0F17                          u3945 0EF9  
                        u3881 0EC7                          u4841 0709                          u4761 060E  
                        u4681 04F2                          u5457 0C1A                          u3970 0F63  
                        u3890 0ECC                          u4930 07D7                          u4850 0712  
                        u4770 0627                          u4690 04FE                          _SCS0 04C8  
                        u3971 0F62                          u3891 0ECB                          u3875 0EB8  
                        u4931 07D6                          u4851 0711                          u4771 0626  
                        u4691 04FD                          u5467 0C55                          _SCS1 04C9  
                        u3980 0F68                          u4940 07EC                          u3981 0F67  
                        u4941 07EB                          u4925 0792                          u5477 000A  
                        u4950 1467                          u4870 0737                          u4790 064D  
                        u4951 1466                          u5487 0B74                          u4871 0736  
                        u4791 064C                          u4960 1799                          u5497 13A0  
                        u4945 07E8                          u4865 071B                          u4785 0643  
                        u4961 1798                          u4970 17AF                          u3995 0F72  
                        u4980 17C2                          u4885 073E                          u4981 17C1  
                        u4990 17C9                          u4895 0757                          u4991 17C8  
                        u4975 17AB             OLED_Printf_Line@i 00C1             OLED_Printf_Line@p 00B8  
                        _main 0BE5              __end_of_I2C_Init 1278                          fsr0h 0005  
                        fsr1h 0007                          indf0 0000                          fsr0l 0004  
                        indf1 0001                          fsr1l 0006                          btemp 007E  
            __end_of_I2C_Stop 138F                          start 0002           MAX6675_ReadRaw@data 0073  
            ??_OLED_WriteData 0079                 ___fltol@sign1 005A               __end_of___aldiv 0DF5  
             __end_of___almod 0CDA               __end_of___fladd 1000                         ?_main 0070  
             __end_of___awdiv 0B71                         STR_10 180D                         STR_11 1800  
             __end_of___awmod 1735    displayTemperature@temp_int 00D9               __end_of___flmul 03DF  
             __end_of___flsub 1327               __end_of___fltol 1800               __end_of___lldiv 178F  
             ___awdiv@divisor 0070               __end_of___llmod 1645                         _IRCF0 04CB  
                       _IRCF1 04CC                         _IRCF2 04CD                         _IRCF3 04CE  
             __end_of___lwdiv 15BA               __end_of___lwmod 157E               ___awdiv@counter 0075  
          OLED_Printf_Line@ch 00C0            OLED_Printf_Line@ap 00CD             ??_OLED_UpdateLine 0020  
           __end_of_I2C_Start 13D8                   _BatteryIcon 1825                  _I2C_WaitIdle 138F  
        I2C_WaitIF@timeout_ms 0070                         status 0003          OLED_SetOrientation@o 0079  
                       wtemp0 007E                  ?_internal_32 0070          __end_of_MAX6675_Init 1258  
             __initialization 07F2                  __end_of_main 0C5F              __end_of_OledFont 0B00  
            ?_MAX6675_ReadADC 0070              ?_MAX6675_ReadRaw 0070                        ??_main 00DC  
                   ??_OLED_YX 0078          MAX6675_ReadTemp@temp 005C          MAX6675_ReadTemp@unit 005A  
            ___llmod@dividend 0074   displayTemperature@temp_frac 00DB              ___awdiv@dividend 0072  
                ??_I2C_WaitIF 0072             __end_of_OLED_Init 0BE5                 ?_OLED_Command 0070  
                      _SPLLEN 04CF                        _SSPADD 0212                        _SSPBUF 0211  
           ?_OLED_Printf_Line 0026              __end_of___xxtofl 00EA            ??_OLED_Printf_Line 002E  
                   ??___aldiv 0078                     ??___almod 0078                     ??___fladd 0028  
                   ??___awdiv 0074                     ??___awmod 0074                     ??___flmul 0040  
                   ??___flsub 007E                     ??___fltol 0056                     ??___lldiv 0078  
                   ??___llmod 0078           OLED_Printf_Line@col 00B7           OLED_Printf_Line@buf 0050  
                   ??___lwdiv 0074           OLED_Printf_Line@fmt 0026           OLED_Printf_Line@dst 00D0  
                   ??___lwmod 0074           OLED_Printf_Line@val 00CA           OLED_Printf_Line@src 00CE  
            __end_of_initMain 0040           OLED_Printf_Line@str 00B5                        _memcpy 13D8  
                      _memset 1293                   OLED_Clear@p 007C              ___awdiv@quotient 0077  
             ___awmod@divisor 0070               ___awmod@counter 0075                   OLED_YX@page 0079  
          __end_of_I2C_WaitIF 1307            _displayTemperature 00EA                        _strcmp 142E  
                      _strcpy 1278                     ?_I2C_Init 0070                     ?_I2C_Stop 0070  
         ?_displayTemperature 00D1                ??_OLED_Command 0075                  ___xxtofl@arg 007A  
                ___xxtofl@exp 0079               I2C_WriteByte@st 0074                  ___xxtofl@val 0070  
    MAX6675_ReadADC@adc_value 007C       __end_of__initialization 07FD                    ___fltol@f1 0052  
        ??_displayTemperature 00D7                __pcstackCOMMON 0070                 _I2C_WriteByte 1518  
                  ??_I2C_Init 0070                _OPTION_REGbits 0095                    ??_I2C_Stop 0073  
 __end_of_OLED_SetOrientation 15FB             ?_MAX6675_ReadTemp 005A                  ??_OLED_Clear 0020  
          ??_MAX6675_ReadTemp 007E             __end_of__Umul8_16 136C      displayTemperature@status 00D6  
      displayTemperature@temp 00D1                 _SSD1306_CtrlW 0B10        displayTemperature@unit 00D5  
                  __pmaintext 0BE5                ?_I2C_WriteByte 0070                       ?_memcpy 0070  
                     ?_memset 0070           _MAX6675_ConvertTemp 0CDA                    I2C_Stop@st 0073  
             _OLED_UpdateLine 1402            __end_of_OLED_Clear 1692                       ?_strcmp 0070  
                     ?_strcpy 0070       OLED_Printf_Line@val_350 00B9       OLED_Printf_Line@val_353 00C6  
     OLED_Printf_Line@val_356 00BD       OLED_Printf_Line@val_359 00B3                     ?___xxtofl 0070  
                _MAX6675_Init 124C                       _OLED_YX 1327                       _PPSLOCK 0E0F  
                     _SSPCON2 0216        I2C_WaitIdle@timeout_ms 0070          ?_MAX6675_ConvertTemp 0052  
                   ?_initMain 0070         __end_of_getUnitString 12CC         __end_of_getUnitSymbol 12E9  
                   _I2C_Start 13B3                ?_SSD1306_CtrlW 0070                       ___aldiv 0D65  
                     ___almod 0C5F                       ___fladd 0DF5                       ___awdiv 0B12  
                     ___awmod 16E2                       ___flmul 01A4                       ___flsub 1307  
                     ___fltol 178F                       ___lldiv 1735                       ___llmod 15FB  
           ??_I2C_ClearErrors 0070                       ___lwdiv 157E                       ___lwmod 154A  
        __end_of_OLED_Command 14B7                       __ptext1 0004                       __ptext2 1243  
                     __ptext3 124C                       __ptext4 00EA                       __ptext5 12CC  
                     __ptext6 12AF                       __ptext7 178F                       __ptext8 1307  
                     __ptext9 03DF          OLED_Printf_Line@line 00CC          OLED_Printf_Line@temp 00A0  
                  ??___xxtofl 0074              ___awmod@dividend 0072              ___aldiv@dividend 0074  
                     clrloop0 1259          end_of_initialization 07FD         ??_MAX6675_ConvertTemp 007E  
                     memcpy@d 0076                       memcpy@n 0074                       memcpy@s 0078  
                  ??_initMain 0070                       memset@c 0072                       memset@n 0074  
                     memset@p 0076                     _OLED_Init 0B71                    ?_I2C_Start 0070  
           OLED_WriteData@len 0077               ??_I2C_WriteByte 0073               ___lldiv@divisor 0070  
             ___lldiv@counter 007D       __end_of_OLED_UpdateLine 142E              ___aldiv@quotient 0022  
                     strcmp@l 0073                       strcmp@r 0070                       strcpy@d 0075  
         OLED_UpdateLine@page 007C                     _PORTBbits 000D                   ___fladd@grs 007C  
               ___xxtofl@sign 0078                     _TRISBbits 008D                     _TRISCbits 008E  
             OLED_YX@col_char 0077               OLED_Command@cmd 0075                   ___flmul@grs 0046  
             ??_SSD1306_CtrlW 0070                    ?_OLED_Init 0070                    main@status 00DE  
              __end_of_memcpy 1402                __end_of_memset 12AF                __end_of_strcmp 145B  
              __end_of_strcpy 1293           start_initialization 07F2               ___llmod@divisor 0070  
                 ??_I2C_Start 0073               ___llmod@counter 0079              ?_OLED_UpdateLine 0070  
                  OLED_YX@col 007A                     __Umul8_16 1349                      ??_memcpy 0076  
                    ??_memset 0076                    memset@dest 0070                      ??_strcmp 0072  
                    ??_strcpy 0073                     ___fladd@a 0024                     ___fladd@b 0020  
                 __pbssBIGRAM 24F0                     ___flmul@a 003C                     ___flmul@b 0038  
                   ___flsub@a 0030                     ___flsub@b 0034                     ___latbits 0003  
                    ?_OLED_YX 0077                 __pcstackBANK0 0020                 __pcstackBANK1 00A0  
MAX6675_ConvertTemp@adc_value 0052                 ?_I2C_WaitIdle 0070                  _OLED_Command 1489  
           ??_MAX6675_ReadADC 0076               _I2C_ClearErrors 123C                 ??_internal_32 0070  
           ??_MAX6675_ReadRaw 0072                   ??_OLED_Init 007D                 _screen_buffer 24F0  
            ___lwdiv@dividend 0072       MAX6675_ReadADC@raw_data 007A        MAX6675_ReadTemp@status 005B  
                    ?___aldiv 0070                      ?___almod 0070                      ?___fladd 0020  
                    ?___awdiv 0070                      ?___awmod 0070                      ?___flmul 0038  
                    ?___flsub 0030                      ?___fltol 0052                      ?___lldiv 0070  
                    ?___llmod 0070                    ?__Umul8_16 0070                      ?___lwdiv 0070  
                    ?___lwmod 0070        OLED_Printf_Line@nibble 00BF              _OLED_Printf_Line 03DF  
            ___almod@dividend 0074             getUnitString@unit 0072                   I2C_Start@st 0073  
                    _I2C_Init 1264                      _I2C_Stop 136C                _OLED_WriteData 1692  
     MAX6675_ConvertTemp@temp 0056       MAX6675_ConvertTemp@unit 0054             getUnitSymbol@unit 0072  
            ___lwdiv@quotient 0075                ??_I2C_WaitIdle 0072               ___aldiv@divisor 0070  
             ___aldiv@counter 0020                      _LATBbits 010D                     clear_ram0 1258  
    OLED_Printf_Line@temp_351 003A      OLED_Printf_Line@temp_360 00AC      OLED_Printf_Line@temp_354 0045  
    OLED_Printf_Line@temp_357 00A6              OLED_WriteData@st 007B                      _PIR1bits 0011  
                    _PIR2bits 0012           __end_of_internal_32 124C        __end_of_OLED_WriteData 16E2  
              OLED_Command@st 0076              MAX6675_ReadRaw@i 0075                      _WPUBbits 020D  
 __end_of_MAX6675_ConvertTemp 0D65       __end_of_I2C_ClearErrors 1243                    _I2C_WaitIF 12E9  
                    _OledFont 0800                     memcpy@tmp 007A              _MAX6675_ReadTemp 14B7  
       __end_of_I2C_WriteByte 154A                   ??__Umul8_16 0072                    _ANSELBbits 018D  
                  _ANSELCbits 018E               ?_OLED_WriteData 0075                      ___xxtofl 0040  
       OLED_Printf_Line@i_352 00C2         OLED_Printf_Line@i_361 00C5         OLED_Printf_Line@i_355 00C3  
       OLED_Printf_Line@i_358 00C4               ___lwdiv@divisor 0070               ___lwdiv@counter 0077  
                    __ptext10 1278                      __ptext11 142E                      __ptext20 0D65  
                    __ptext12 13D8                      __ptext21 1402                      __ptext13 154A  
                    __ptext30 1518                      __ptext22 15BA                      __ptext14 157E  
                    __ptext31 136C                      __ptext23 0B71                      __ptext15 15FB  
                    __ptext40 01A4                      __ptext32 13B3                      __ptext24 1645  
                    __ptext16 1735                      __ptext41 1349                      __ptext33 138F  
                    __ptext25 1293                      __ptext17 16E2                      __ptext42 0DF5  
                    __ptext34 12E9                      __ptext26 1327                      __ptext18 0B12  
                    __ptext43 1264                      __ptext35 14B7                      __ptext27 1489  
                    __ptext19 0C5F                      __ptext44 123C                      __ptext36 145B  
                    __ptext28 1692                      __ptext37 14E7                      __ptext29 0B10  
                    __ptext38 0CDA     MAX6675_ReadTemp@adc_value 005D                      __ptext39 0040  
             ___almod@divisor 0070               ___almod@counter 0079                    strcpy@dest 0070  
                    _initMain 0004                 _SSPDATPPSbits 0E21                 _getUnitString 12AF  
               _getUnitSymbol 12CC                   _internal_32 1243         __end_of_SSD1306_CtrlW 0B12  
             OLED_WriteData@i 0079                    _RC4PPSbits 0EA4                 _SSPCLKPPSbits 0E20  
                  _RC5PPSbits 0EA5        main@button_was_pressed 00DF          __end_of_I2C_WaitIdle 13B3  
                    main@unit 00E4           _OLED_SetOrientation 15BA               main@temperature 00E0  
               ?_MAX6675_Init 0070               _MAX6675_ReadADC 145B                      memcpy@d1 0070  
                    memcpy@s1 0072               _MAX6675_ReadRaw 14E7                __pstringtext10 1850  
              __pstringtext11 1852                __pstringtext12 0000              ?_I2C_ClearErrors 0070  
                 ?_I2C_WaitIF 0070                    _OLED_Clear 1645          _OLED_Printf_Line$363 00B1  
          OLED_WriteData@data 0075      __end_of_OLED_Printf_Line 07F2              ___lwmod@dividend 0072  
              ?_getUnitString 0070                ?_getUnitSymbol 0070          ?_OLED_SetOrientation 0070  
            ___lldiv@dividend 0074                     strcpy@src 0072                   _PPSLOCKbits 0E0F  
  __end_of_displayTemperature 01A4                 __pstringtext1 1825                 __pstringtext2 0800  
               __pstringtext3 1800                 __pstringtext4 180D                 __pstringtext5 181A  
               __pstringtext6 182F                 __pstringtext7 1838                 __pstringtext8 1841  
               __pstringtext9 1849        __Umul8_16@multiplicand 0070                ??_MAX6675_Init 0070  
            ___lldiv@quotient 0079               ___lwmod@divisor 0070               ___lwmod@counter 0075  
                ___aldiv@sign 0021                   _SSPCON1bits 0215                   _SSPCON2bits 0216  
               ___fladd@signs 0079                  ___almod@sign 007A         ??_OLED_SetOrientation 0077  
                ___fladd@aexp 007A                  ___fladd@bexp 007B          __Umul8_16@multiplier 0078  
           I2C_WriteByte@data 0073                    _SSPCONbits 0215           __end_of_BatteryIcon 182F  
           __Umul8_16@product 0074  
