

Microchip Technology PIC LITE Macro Assembler V1.41 build -162212810 
                                                                                               Wed Mar 22 11:43:22 2017

Microchip Technology Omniscient Code Generator v1.41 (Free mode) build 201701250102
     1                           	processor	16F1717
     2                           	opt	pw 120
     3                           	opt	lm
     4                           	psect	stringtext,global,class=STRCODE,delta=2
     5                           	psect	cinit,global,class=CODE,merge=1,delta=2
     6                           	psect	bssBANK0,global,class=BANK0,space=1,delta=1
     7                           	psect	clrtext,global,class=CODE,delta=2
     8                           	psect	cstackCOMMON,global,class=COMMON,space=1,delta=1
     9                           	psect	cstackBANK0,global,class=BANK0,space=1,delta=1
    10                           	psect	maintext,global,class=CODE,merge=1,split=1,delta=2
    11                           	psect	text1,local,class=CODE,merge=1,delta=2
    12                           	psect	text2,local,class=CODE,merge=1,delta=2
    13                           	psect	text3,local,class=CODE,merge=1,delta=2
    14                           	psect	text4,local,class=CODE,merge=1,delta=2
    15                           	psect	text5,local,class=CODE,merge=1,delta=2
    16                           	psect	text6,local,class=CODE,merge=1,delta=2
    17                           	psect	text7,local,class=CODE,merge=1,delta=2
    18                           	psect	text8,local,class=CODE,merge=1,delta=2
    19                           	psect	text9,local,class=CODE,merge=1,delta=2,group=1
    20                           	psect	text10,local,class=CODE,merge=1,delta=2
    21                           	psect	text11,local,class=CODE,merge=1,delta=2
    22                           	psect	text12,local,class=CODE,merge=1,delta=2
    23                           	psect	text13,local,class=CODE,merge=1,delta=2
    24                           	dabs	1,0x7E,2
    25  0000                     
    26                           ; Version 1.41
    27                           ; Generated 25/01/2017 GMT
    28                           ; 
    29                           ; Copyright © 2017, Microchip Technology Inc. and its subsidiaries ("Microchip")
    30                           ; All rights reserved.
    31                           ; 
    32                           ; This software is developed by Microchip Technology Inc. and its subsidiaries ("Microch
      +                          ip").
    33                           ; 
    34                           ; Redistribution and use in source and binary forms, with or without modification, are
    35                           ; permitted provided that the following conditions are met:
    36                           ; 
    37                           ;     1. Redistributions of source code must retain the above copyright notice, this lis
      +                          t of
    38                           ;        conditions and the following disclaimer.
    39                           ; 
    40                           ;     2. Redistributions in binary form must reproduce the above copyright notice, this 
      +                          list
    41                           ;        of conditions and the following disclaimer in the documentation and/or other
    42                           ;        materials provided with the distribution.
    43                           ; 
    44                           ;     3. Microchip's name may not be used to endorse or promote products derived from th
      +                          is
    45                           ;        software without specific prior written permission.
    46                           ; 
    47                           ; THIS SOFTWARE IS PROVIDED BY MICROCHIP "AS IS" AND ANY EXPRESS OR IMPLIED WARRANTIES,
    48                           ; INCLUDING, BUT NOT LIMITED TO, THE IMPLIED WARRANTIES OF MERCHANTABILITY AND FITNESS F
      +                          OR
    49                           ; PURPOSE ARE DISCLAIMED.  IN NO EVENT SHALL MICROCHIP BE LIABLE FOR ANY DIRECT, INDIREC
      +                          T,
    50                           ; INCIDENTAL, SPECIAL, EXEMPLARY, OR CONSEQUENTIAL DAMAGES (INCLUDING BUT NOT LIMITED TO
    51                           ; PROCUREMENT OF SUBSTITUTE GOODS OR SERVICES; LOSS OF USE, DATA OR PROFITS; OR BUSINESS
    52                           ; INTERRUPTION) HOWSOEVER CAUSED AND ON ANY THEORY OF LIABILITY, WHETHER IN CONTRACT, ST
      +                          RICT
    53                           ; LIABILITY, OR TORT (INCLUDING NEGLIGENCE OR OTHERWISE) ARISING IN ANY WAY OUT OF THE U
      +                          SE OF
    54                           ; THIS SOFTWARE, EVEN IF ADVISED OF THE POSSIBILITY OF SUCH DAMAGE.
    55                           ; 
    56                           ; 
    57                           ; Code-generator required, PIC16F1717 Definitions
    58                           ; 
    59                           ; SFR Addresses
    60  0000                     	;# 
    61  0001                     	;# 
    62  0002                     	;# 
    63  0003                     	;# 
    64  0004                     	;# 
    65  0005                     	;# 
    66  0006                     	;# 
    67  0007                     	;# 
    68  0008                     	;# 
    69  0009                     	;# 
    70  000A                     	;# 
    71  000B                     	;# 
    72  000C                     	;# 
    73  000D                     	;# 
    74  000E                     	;# 
    75  000F                     	;# 
    76  0010                     	;# 
    77  0011                     	;# 
    78  0012                     	;# 
    79  0013                     	;# 
    80  0015                     	;# 
    81  0016                     	;# 
    82  0016                     	;# 
    83  0017                     	;# 
    84  0018                     	;# 
    85  0019                     	;# 
    86  001A                     	;# 
    87  001B                     	;# 
    88  001C                     	;# 
    89  008C                     	;# 
    90  008D                     	;# 
    91  008E                     	;# 
    92  008F                     	;# 
    93  0090                     	;# 
    94  0091                     	;# 
    95  0092                     	;# 
    96  0093                     	;# 
    97  0095                     	;# 
    98  0096                     	;# 
    99  0097                     	;# 
   100  0098                     	;# 
   101  0099                     	;# 
   102  009A                     	;# 
   103  009B                     	;# 
   104  009B                     	;# 
   105  009C                     	;# 
   106  009D                     	;# 
   107  009E                     	;# 
   108  009F                     	;# 
   109  010C                     	;# 
   110  010D                     	;# 
   111  010E                     	;# 
   112  010F                     	;# 
   113  0110                     	;# 
   114  0111                     	;# 
   115  0112                     	;# 
   116  0113                     	;# 
   117  0114                     	;# 
   118  0115                     	;# 
   119  0116                     	;# 
   120  0117                     	;# 
   121  0118                     	;# 
   122  0119                     	;# 
   123  011A                     	;# 
   124  011B                     	;# 
   125  011B                     	;# 
   126  011C                     	;# 
   127  018C                     	;# 
   128  018D                     	;# 
   129  018E                     	;# 
   130  018F                     	;# 
   131  0190                     	;# 
   132  0191                     	;# 
   133  0191                     	;# 
   134  0192                     	;# 
   135  0193                     	;# 
   136  0193                     	;# 
   137  0194                     	;# 
   138  0195                     	;# 
   139  0196                     	;# 
   140  0197                     	;# 
   141  0199                     	;# 
   142  0199                     	;# 
   143  0199                     	;# 
   144  019A                     	;# 
   145  019A                     	;# 
   146  019A                     	;# 
   147  019B                     	;# 
   148  019B                     	;# 
   149  019B                     	;# 
   150  019B                     	;# 
   151  019B                     	;# 
   152  019C                     	;# 
   153  019C                     	;# 
   154  019C                     	;# 
   155  019D                     	;# 
   156  019D                     	;# 
   157  019D                     	;# 
   158  019E                     	;# 
   159  019E                     	;# 
   160  019E                     	;# 
   161  019F                     	;# 
   162  019F                     	;# 
   163  019F                     	;# 
   164  019F                     	;# 
   165  019F                     	;# 
   166  020C                     	;# 
   167  020D                     	;# 
   168  020E                     	;# 
   169  020F                     	;# 
   170  0210                     	;# 
   171  0211                     	;# 
   172  0211                     	;# 
   173  0212                     	;# 
   174  0212                     	;# 
   175  0213                     	;# 
   176  0213                     	;# 
   177  0214                     	;# 
   178  0214                     	;# 
   179  0215                     	;# 
   180  0215                     	;# 
   181  0215                     	;# 
   182  0215                     	;# 
   183  0216                     	;# 
   184  0216                     	;# 
   185  0217                     	;# 
   186  0217                     	;# 
   187  028C                     	;# 
   188  028D                     	;# 
   189  028E                     	;# 
   190  028F                     	;# 
   191  0290                     	;# 
   192  0291                     	;# 
   193  0291                     	;# 
   194  0292                     	;# 
   195  0293                     	;# 
   196  0293                     	;# 
   197  0298                     	;# 
   198  0298                     	;# 
   199  0299                     	;# 
   200  029A                     	;# 
   201  029A                     	;# 
   202  029E                     	;# 
   203  030C                     	;# 
   204  030D                     	;# 
   205  030E                     	;# 
   206  030F                     	;# 
   207  0310                     	;# 
   208  038C                     	;# 
   209  038D                     	;# 
   210  038E                     	;# 
   211  038F                     	;# 
   212  0390                     	;# 
   213  0391                     	;# 
   214  0392                     	;# 
   215  0393                     	;# 
   216  0394                     	;# 
   217  0395                     	;# 
   218  0396                     	;# 
   219  0397                     	;# 
   220  0398                     	;# 
   221  0399                     	;# 
   222  039D                     	;# 
   223  039E                     	;# 
   224  039F                     	;# 
   225  0415                     	;# 
   226  0416                     	;# 
   227  0417                     	;# 
   228  041C                     	;# 
   229  041D                     	;# 
   230  041E                     	;# 
   231  0498                     	;# 
   232  0498                     	;# 
   233  0499                     	;# 
   234  049A                     	;# 
   235  049B                     	;# 
   236  049B                     	;# 
   237  049C                     	;# 
   238  049D                     	;# 
   239  049E                     	;# 
   240  049F                     	;# 
   241  0511                     	;# 
   242  0515                     	;# 
   243  0617                     	;# 
   244  0618                     	;# 
   245  0619                     	;# 
   246  0619                     	;# 
   247  061A                     	;# 
   248  061B                     	;# 
   249  061C                     	;# 
   250  061C                     	;# 
   251  0691                     	;# 
   252  0692                     	;# 
   253  0693                     	;# 
   254  0694                     	;# 
   255  0695                     	;# 
   256  0696                     	;# 
   257  0697                     	;# 
   258  0698                     	;# 
   259  0699                     	;# 
   260  069A                     	;# 
   261  069B                     	;# 
   262  069C                     	;# 
   263  069D                     	;# 
   264  069E                     	;# 
   265  069F                     	;# 
   266  0E0F                     	;# 
   267  0E10                     	;# 
   268  0E11                     	;# 
   269  0E12                     	;# 
   270  0E13                     	;# 
   271  0E14                     	;# 
   272  0E15                     	;# 
   273  0E17                     	;# 
   274  0E20                     	;# 
   275  0E21                     	;# 
   276  0E22                     	;# 
   277  0E24                     	;# 
   278  0E25                     	;# 
   279  0E28                     	;# 
   280  0E29                     	;# 
   281  0E2A                     	;# 
   282  0E2B                     	;# 
   283  0E90                     	;# 
   284  0E91                     	;# 
   285  0E92                     	;# 
   286  0E93                     	;# 
   287  0E94                     	;# 
   288  0E95                     	;# 
   289  0E96                     	;# 
   290  0E97                     	;# 
   291  0E98                     	;# 
   292  0E99                     	;# 
   293  0E9A                     	;# 
   294  0E9B                     	;# 
   295  0E9C                     	;# 
   296  0E9D                     	;# 
   297  0E9E                     	;# 
   298  0E9F                     	;# 
   299  0EA0                     	;# 
   300  0EA1                     	;# 
   301  0EA2                     	;# 
   302  0EA3                     	;# 
   303  0EA4                     	;# 
   304  0EA5                     	;# 
   305  0EA6                     	;# 
   306  0EA7                     	;# 
   307  0EA8                     	;# 
   308  0EA9                     	;# 
   309  0EAA                     	;# 
   310  0EAB                     	;# 
   311  0EAC                     	;# 
   312  0EAD                     	;# 
   313  0EAE                     	;# 
   314  0EAF                     	;# 
   315  0EB0                     	;# 
   316  0EB1                     	;# 
   317  0EB2                     	;# 
   318  0F0F                     	;# 
   319  0F10                     	;# 
   320  0F11                     	;# 
   321  0F12                     	;# 
   322  0F13                     	;# 
   323  0F14                     	;# 
   324  0F15                     	;# 
   325  0F16                     	;# 
   326  0F17                     	;# 
   327  0F18                     	;# 
   328  0F19                     	;# 
   329  0F1A                     	;# 
   330  0F1B                     	;# 
   331  0F1C                     	;# 
   332  0F1D                     	;# 
   333  0F1E                     	;# 
   334  0F1F                     	;# 
   335  0F20                     	;# 
   336  0F21                     	;# 
   337  0F22                     	;# 
   338  0F23                     	;# 
   339  0F24                     	;# 
   340  0F25                     	;# 
   341  0F26                     	;# 
   342  0F27                     	;# 
   343  0F28                     	;# 
   344  0F29                     	;# 
   345  0F2A                     	;# 
   346  0F2B                     	;# 
   347  0F2C                     	;# 
   348  0F2D                     	;# 
   349  0F2E                     	;# 
   350  0F2F                     	;# 
   351  0F30                     	;# 
   352  0F31                     	;# 
   353  0F32                     	;# 
   354  0F33                     	;# 
   355  0F34                     	;# 
   356  0F35                     	;# 
   357  0F36                     	;# 
   358  0F37                     	;# 
   359  0FE4                     	;# 
   360  0FE5                     	;# 
   361  0FE6                     	;# 
   362  0FE7                     	;# 
   363  0FE8                     	;# 
   364  0FE9                     	;# 
   365  0FEA                     	;# 
   366  0FEB                     	;# 
   367  0FED                     	;# 
   368  0FEE                     	;# 
   369  0FEF                     	;# 
   370  0000                     	;# 
   371  0001                     	;# 
   372  0002                     	;# 
   373  0003                     	;# 
   374  0004                     	;# 
   375  0005                     	;# 
   376  0006                     	;# 
   377  0007                     	;# 
   378  0008                     	;# 
   379  0009                     	;# 
   380  000A                     	;# 
   381  000B                     	;# 
   382  000C                     	;# 
   383  000D                     	;# 
   384  000E                     	;# 
   385  000F                     	;# 
   386  0010                     	;# 
   387  0011                     	;# 
   388  0012                     	;# 
   389  0013                     	;# 
   390  0015                     	;# 
   391  0016                     	;# 
   392  0016                     	;# 
   393  0017                     	;# 
   394  0018                     	;# 
   395  0019                     	;# 
   396  001A                     	;# 
   397  001B                     	;# 
   398  001C                     	;# 
   399  008C                     	;# 
   400  008D                     	;# 
   401  008E                     	;# 
   402  008F                     	;# 
   403  0090                     	;# 
   404  0091                     	;# 
   405  0092                     	;# 
   406  0093                     	;# 
   407  0095                     	;# 
   408  0096                     	;# 
   409  0097                     	;# 
   410  0098                     	;# 
   411  0099                     	;# 
   412  009A                     	;# 
   413  009B                     	;# 
   414  009B                     	;# 
   415  009C                     	;# 
   416  009D                     	;# 
   417  009E                     	;# 
   418  009F                     	;# 
   419  010C                     	;# 
   420  010D                     	;# 
   421  010E                     	;# 
   422  010F                     	;# 
   423  0110                     	;# 
   424  0111                     	;# 
   425  0112                     	;# 
   426  0113                     	;# 
   427  0114                     	;# 
   428  0115                     	;# 
   429  0116                     	;# 
   430  0117                     	;# 
   431  0118                     	;# 
   432  0119                     	;# 
   433  011A                     	;# 
   434  011B                     	;# 
   435  011B                     	;# 
   436  011C                     	;# 
   437  018C                     	;# 
   438  018D                     	;# 
   439  018E                     	;# 
   440  018F                     	;# 
   441  0190                     	;# 
   442  0191                     	;# 
   443  0191                     	;# 
   444  0192                     	;# 
   445  0193                     	;# 
   446  0193                     	;# 
   447  0194                     	;# 
   448  0195                     	;# 
   449  0196                     	;# 
   450  0197                     	;# 
   451  0199                     	;# 
   452  0199                     	;# 
   453  0199                     	;# 
   454  019A                     	;# 
   455  019A                     	;# 
   456  019A                     	;# 
   457  019B                     	;# 
   458  019B                     	;# 
   459  019B                     	;# 
   460  019B                     	;# 
   461  019B                     	;# 
   462  019C                     	;# 
   463  019C                     	;# 
   464  019C                     	;# 
   465  019D                     	;# 
   466  019D                     	;# 
   467  019D                     	;# 
   468  019E                     	;# 
   469  019E                     	;# 
   470  019E                     	;# 
   471  019F                     	;# 
   472  019F                     	;# 
   473  019F                     	;# 
   474  019F                     	;# 
   475  019F                     	;# 
   476  020C                     	;# 
   477  020D                     	;# 
   478  020E                     	;# 
   479  020F                     	;# 
   480  0210                     	;# 
   481  0211                     	;# 
   482  0211                     	;# 
   483  0212                     	;# 
   484  0212                     	;# 
   485  0213                     	;# 
   486  0213                     	;# 
   487  0214                     	;# 
   488  0214                     	;# 
   489  0215                     	;# 
   490  0215                     	;# 
   491  0215                     	;# 
   492  0215                     	;# 
   493  0216                     	;# 
   494  0216                     	;# 
   495  0217                     	;# 
   496  0217                     	;# 
   497  028C                     	;# 
   498  028D                     	;# 
   499  028E                     	;# 
   500  028F                     	;# 
   501  0290                     	;# 
   502  0291                     	;# 
   503  0291                     	;# 
   504  0292                     	;# 
   505  0293                     	;# 
   506  0293                     	;# 
   507  0298                     	;# 
   508  0298                     	;# 
   509  0299                     	;# 
   510  029A                     	;# 
   511  029A                     	;# 
   512  029E                     	;# 
   513  030C                     	;# 
   514  030D                     	;# 
   515  030E                     	;# 
   516  030F                     	;# 
   517  0310                     	;# 
   518  038C                     	;# 
   519  038D                     	;# 
   520  038E                     	;# 
   521  038F                     	;# 
   522  0390                     	;# 
   523  0391                     	;# 
   524  0392                     	;# 
   525  0393                     	;# 
   526  0394                     	;# 
   527  0395                     	;# 
   528  0396                     	;# 
   529  0397                     	;# 
   530  0398                     	;# 
   531  0399                     	;# 
   532  039D                     	;# 
   533  039E                     	;# 
   534  039F                     	;# 
   535  0415                     	;# 
   536  0416                     	;# 
   537  0417                     	;# 
   538  041C                     	;# 
   539  041D                     	;# 
   540  041E                     	;# 
   541  0498                     	;# 
   542  0498                     	;# 
   543  0499                     	;# 
   544  049A                     	;# 
   545  049B                     	;# 
   546  049B                     	;# 
   547  049C                     	;# 
   548  049D                     	;# 
   549  049E                     	;# 
   550  049F                     	;# 
   551  0511                     	;# 
   552  0515                     	;# 
   553  0617                     	;# 
   554  0618                     	;# 
   555  0619                     	;# 
   556  0619                     	;# 
   557  061A                     	;# 
   558  061B                     	;# 
   559  061C                     	;# 
   560  061C                     	;# 
   561  0691                     	;# 
   562  0692                     	;# 
   563  0693                     	;# 
   564  0694                     	;# 
   565  0695                     	;# 
   566  0696                     	;# 
   567  0697                     	;# 
   568  0698                     	;# 
   569  0699                     	;# 
   570  069A                     	;# 
   571  069B                     	;# 
   572  069C                     	;# 
   573  069D                     	;# 
   574  069E                     	;# 
   575  069F                     	;# 
   576  0E0F                     	;# 
   577  0E10                     	;# 
   578  0E11                     	;# 
   579  0E12                     	;# 
   580  0E13                     	;# 
   581  0E14                     	;# 
   582  0E15                     	;# 
   583  0E17                     	;# 
   584  0E20                     	;# 
   585  0E21                     	;# 
   586  0E22                     	;# 
   587  0E24                     	;# 
   588  0E25                     	;# 
   589  0E28                     	;# 
   590  0E29                     	;# 
   591  0E2A                     	;# 
   592  0E2B                     	;# 
   593  0E90                     	;# 
   594  0E91                     	;# 
   595  0E92                     	;# 
   596  0E93                     	;# 
   597  0E94                     	;# 
   598  0E95                     	;# 
   599  0E96                     	;# 
   600  0E97                     	;# 
   601  0E98                     	;# 
   602  0E99                     	;# 
   603  0E9A                     	;# 
   604  0E9B                     	;# 
   605  0E9C                     	;# 
   606  0E9D                     	;# 
   607  0E9E                     	;# 
   608  0E9F                     	;# 
   609  0EA0                     	;# 
   610  0EA1                     	;# 
   611  0EA2                     	;# 
   612  0EA3                     	;# 
   613  0EA4                     	;# 
   614  0EA5                     	;# 
   615  0EA6                     	;# 
   616  0EA7                     	;# 
   617  0EA8                     	;# 
   618  0EA9                     	;# 
   619  0EAA                     	;# 
   620  0EAB                     	;# 
   621  0EAC                     	;# 
   622  0EAD                     	;# 
   623  0EAE                     	;# 
   624  0EAF                     	;# 
   625  0EB0                     	;# 
   626  0EB1                     	;# 
   627  0EB2                     	;# 
   628  0F0F                     	;# 
   629  0F10                     	;# 
   630  0F11                     	;# 
   631  0F12                     	;# 
   632  0F13                     	;# 
   633  0F14                     	;# 
   634  0F15                     	;# 
   635  0F16                     	;# 
   636  0F17                     	;# 
   637  0F18                     	;# 
   638  0F19                     	;# 
   639  0F1A                     	;# 
   640  0F1B                     	;# 
   641  0F1C                     	;# 
   642  0F1D                     	;# 
   643  0F1E                     	;# 
   644  0F1F                     	;# 
   645  0F20                     	;# 
   646  0F21                     	;# 
   647  0F22                     	;# 
   648  0F23                     	;# 
   649  0F24                     	;# 
   650  0F25                     	;# 
   651  0F26                     	;# 
   652  0F27                     	;# 
   653  0F28                     	;# 
   654  0F29                     	;# 
   655  0F2A                     	;# 
   656  0F2B                     	;# 
   657  0F2C                     	;# 
   658  0F2D                     	;# 
   659  0F2E                     	;# 
   660  0F2F                     	;# 
   661  0F30                     	;# 
   662  0F31                     	;# 
   663  0F32                     	;# 
   664  0F33                     	;# 
   665  0F34                     	;# 
   666  0F35                     	;# 
   667  0F36                     	;# 
   668  0F37                     	;# 
   669  0FE4                     	;# 
   670  0FE5                     	;# 
   671  0FE6                     	;# 
   672  0FE7                     	;# 
   673  0FE8                     	;# 
   674  0FE9                     	;# 
   675  0FEA                     	;# 
   676  0FEB                     	;# 
   677  0FED                     	;# 
   678  0FEE                     	;# 
   679  0FEF                     	;# 
   680  0000                     	;# 
   681  0001                     	;# 
   682  0002                     	;# 
   683  0003                     	;# 
   684  0004                     	;# 
   685  0005                     	;# 
   686  0006                     	;# 
   687  0007                     	;# 
   688  0008                     	;# 
   689  0009                     	;# 
   690  000A                     	;# 
   691  000B                     	;# 
   692  000C                     	;# 
   693  000D                     	;# 
   694  000E                     	;# 
   695  000F                     	;# 
   696  0010                     	;# 
   697  0011                     	;# 
   698  0012                     	;# 
   699  0013                     	;# 
   700  0015                     	;# 
   701  0016                     	;# 
   702  0016                     	;# 
   703  0017                     	;# 
   704  0018                     	;# 
   705  0019                     	;# 
   706  001A                     	;# 
   707  001B                     	;# 
   708  001C                     	;# 
   709  008C                     	;# 
   710  008D                     	;# 
   711  008E                     	;# 
   712  008F                     	;# 
   713  0090                     	;# 
   714  0091                     	;# 
   715  0092                     	;# 
   716  0093                     	;# 
   717  0095                     	;# 
   718  0096                     	;# 
   719  0097                     	;# 
   720  0098                     	;# 
   721  0099                     	;# 
   722  009A                     	;# 
   723  009B                     	;# 
   724  009B                     	;# 
   725  009C                     	;# 
   726  009D                     	;# 
   727  009E                     	;# 
   728  009F                     	;# 
   729  010C                     	;# 
   730  010D                     	;# 
   731  010E                     	;# 
   732  010F                     	;# 
   733  0110                     	;# 
   734  0111                     	;# 
   735  0112                     	;# 
   736  0113                     	;# 
   737  0114                     	;# 
   738  0115                     	;# 
   739  0116                     	;# 
   740  0117                     	;# 
   741  0118                     	;# 
   742  0119                     	;# 
   743  011A                     	;# 
   744  011B                     	;# 
   745  011B                     	;# 
   746  011C                     	;# 
   747  018C                     	;# 
   748  018D                     	;# 
   749  018E                     	;# 
   750  018F                     	;# 
   751  0190                     	;# 
   752  0191                     	;# 
   753  0191                     	;# 
   754  0192                     	;# 
   755  0193                     	;# 
   756  0193                     	;# 
   757  0194                     	;# 
   758  0195                     	;# 
   759  0196                     	;# 
   760  0197                     	;# 
   761  0199                     	;# 
   762  0199                     	;# 
   763  0199                     	;# 
   764  019A                     	;# 
   765  019A                     	;# 
   766  019A                     	;# 
   767  019B                     	;# 
   768  019B                     	;# 
   769  019B                     	;# 
   770  019B                     	;# 
   771  019B                     	;# 
   772  019C                     	;# 
   773  019C                     	;# 
   774  019C                     	;# 
   775  019D                     	;# 
   776  019D                     	;# 
   777  019D                     	;# 
   778  019E                     	;# 
   779  019E                     	;# 
   780  019E                     	;# 
   781  019F                     	;# 
   782  019F                     	;# 
   783  019F                     	;# 
   784  019F                     	;# 
   785  019F                     	;# 
   786  020C                     	;# 
   787  020D                     	;# 
   788  020E                     	;# 
   789  020F                     	;# 
   790  0210                     	;# 
   791  0211                     	;# 
   792  0211                     	;# 
   793  0212                     	;# 
   794  0212                     	;# 
   795  0213                     	;# 
   796  0213                     	;# 
   797  0214                     	;# 
   798  0214                     	;# 
   799  0215                     	;# 
   800  0215                     	;# 
   801  0215                     	;# 
   802  0215                     	;# 
   803  0216                     	;# 
   804  0216                     	;# 
   805  0217                     	;# 
   806  0217                     	;# 
   807  028C                     	;# 
   808  028D                     	;# 
   809  028E                     	;# 
   810  028F                     	;# 
   811  0290                     	;# 
   812  0291                     	;# 
   813  0291                     	;# 
   814  0292                     	;# 
   815  0293                     	;# 
   816  0293                     	;# 
   817  0298                     	;# 
   818  0298                     	;# 
   819  0299                     	;# 
   820  029A                     	;# 
   821  029A                     	;# 
   822  029E                     	;# 
   823  030C                     	;# 
   824  030D                     	;# 
   825  030E                     	;# 
   826  030F                     	;# 
   827  0310                     	;# 
   828  038C                     	;# 
   829  038D                     	;# 
   830  038E                     	;# 
   831  038F                     	;# 
   832  0390                     	;# 
   833  0391                     	;# 
   834  0392                     	;# 
   835  0393                     	;# 
   836  0394                     	;# 
   837  0395                     	;# 
   838  0396                     	;# 
   839  0397                     	;# 
   840  0398                     	;# 
   841  0399                     	;# 
   842  039D                     	;# 
   843  039E                     	;# 
   844  039F                     	;# 
   845  0415                     	;# 
   846  0416                     	;# 
   847  0417                     	;# 
   848  041C                     	;# 
   849  041D                     	;# 
   850  041E                     	;# 
   851  0498                     	;# 
   852  0498                     	;# 
   853  0499                     	;# 
   854  049A                     	;# 
   855  049B                     	;# 
   856  049B                     	;# 
   857  049C                     	;# 
   858  049D                     	;# 
   859  049E                     	;# 
   860  049F                     	;# 
   861  0511                     	;# 
   862  0515                     	;# 
   863  0617                     	;# 
   864  0618                     	;# 
   865  0619                     	;# 
   866  0619                     	;# 
   867  061A                     	;# 
   868  061B                     	;# 
   869  061C                     	;# 
   870  061C                     	;# 
   871  0691                     	;# 
   872  0692                     	;# 
   873  0693                     	;# 
   874  0694                     	;# 
   875  0695                     	;# 
   876  0696                     	;# 
   877  0697                     	;# 
   878  0698                     	;# 
   879  0699                     	;# 
   880  069A                     	;# 
   881  069B                     	;# 
   882  069C                     	;# 
   883  069D                     	;# 
   884  069E                     	;# 
   885  069F                     	;# 
   886  0E0F                     	;# 
   887  0E10                     	;# 
   888  0E11                     	;# 
   889  0E12                     	;# 
   890  0E13                     	;# 
   891  0E14                     	;# 
   892  0E15                     	;# 
   893  0E17                     	;# 
   894  0E20                     	;# 
   895  0E21                     	;# 
   896  0E22                     	;# 
   897  0E24                     	;# 
   898  0E25                     	;# 
   899  0E28                     	;# 
   900  0E29                     	;# 
   901  0E2A                     	;# 
   902  0E2B                     	;# 
   903  0E90                     	;# 
   904  0E91                     	;# 
   905  0E92                     	;# 
   906  0E93                     	;# 
   907  0E94                     	;# 
   908  0E95                     	;# 
   909  0E96                     	;# 
   910  0E97                     	;# 
   911  0E98                     	;# 
   912  0E99                     	;# 
   913  0E9A                     	;# 
   914  0E9B                     	;# 
   915  0E9C                     	;# 
   916  0E9D                     	;# 
   917  0E9E                     	;# 
   918  0E9F                     	;# 
   919  0EA0                     	;# 
   920  0EA1                     	;# 
   921  0EA2                     	;# 
   922  0EA3                     	;# 
   923  0EA4                     	;# 
   924  0EA5                     	;# 
   925  0EA6                     	;# 
   926  0EA7                     	;# 
   927  0EA8                     	;# 
   928  0EA9                     	;# 
   929  0EAA                     	;# 
   930  0EAB                     	;# 
   931  0EAC                     	;# 
   932  0EAD                     	;# 
   933  0EAE                     	;# 
   934  0EAF                     	;# 
   935  0EB0                     	;# 
   936  0EB1                     	;# 
   937  0EB2                     	;# 
   938  0F0F                     	;# 
   939  0F10                     	;# 
   940  0F11                     	;# 
   941  0F12                     	;# 
   942  0F13                     	;# 
   943  0F14                     	;# 
   944  0F15                     	;# 
   945  0F16                     	;# 
   946  0F17                     	;# 
   947  0F18                     	;# 
   948  0F19                     	;# 
   949  0F1A                     	;# 
   950  0F1B                     	;# 
   951  0F1C                     	;# 
   952  0F1D                     	;# 
   953  0F1E                     	;# 
   954  0F1F                     	;# 
   955  0F20                     	;# 
   956  0F21                     	;# 
   957  0F22                     	;# 
   958  0F23                     	;# 
   959  0F24                     	;# 
   960  0F25                     	;# 
   961  0F26                     	;# 
   962  0F27                     	;# 
   963  0F28                     	;# 
   964  0F29                     	;# 
   965  0F2A                     	;# 
   966  0F2B                     	;# 
   967  0F2C                     	;# 
   968  0F2D                     	;# 
   969  0F2E                     	;# 
   970  0F2F                     	;# 
   971  0F30                     	;# 
   972  0F31                     	;# 
   973  0F32                     	;# 
   974  0F33                     	;# 
   975  0F34                     	;# 
   976  0F35                     	;# 
   977  0F36                     	;# 
   978  0F37                     	;# 
   979  0FE4                     	;# 
   980  0FE5                     	;# 
   981  0FE6                     	;# 
   982  0FE7                     	;# 
   983  0FE8                     	;# 
   984  0FE9                     	;# 
   985  0FEA                     	;# 
   986  0FEB                     	;# 
   987  0FED                     	;# 
   988  0FEE                     	;# 
   989  0FEF                     	;# 
   990  0000                     	;# 
   991  0001                     	;# 
   992  0002                     	;# 
   993  0003                     	;# 
   994  0004                     	;# 
   995  0005                     	;# 
   996  0006                     	;# 
   997  0007                     	;# 
   998  0008                     	;# 
   999  0009                     	;# 
  1000  000A                     	;# 
  1001  000B                     	;# 
  1002  000C                     	;# 
  1003  000D                     	;# 
  1004  000E                     	;# 
  1005  000F                     	;# 
  1006  0010                     	;# 
  1007  0011                     	;# 
  1008  0012                     	;# 
  1009  0013                     	;# 
  1010  0015                     	;# 
  1011  0016                     	;# 
  1012  0016                     	;# 
  1013  0017                     	;# 
  1014  0018                     	;# 
  1015  0019                     	;# 
  1016  001A                     	;# 
  1017  001B                     	;# 
  1018  001C                     	;# 
  1019  008C                     	;# 
  1020  008D                     	;# 
  1021  008E                     	;# 
  1022  008F                     	;# 
  1023  0090                     	;# 
  1024  0091                     	;# 
  1025  0092                     	;# 
  1026  0093                     	;# 
  1027  0095                     	;# 
  1028  0096                     	;# 
  1029  0097                     	;# 
  1030  0098                     	;# 
  1031  0099                     	;# 
  1032  009A                     	;# 
  1033  009B                     	;# 
  1034  009B                     	;# 
  1035  009C                     	;# 
  1036  009D                     	;# 
  1037  009E                     	;# 
  1038  009F                     	;# 
  1039  010C                     	;# 
  1040  010D                     	;# 
  1041  010E                     	;# 
  1042  010F                     	;# 
  1043  0110                     	;# 
  1044  0111                     	;# 
  1045  0112                     	;# 
  1046  0113                     	;# 
  1047  0114                     	;# 
  1048  0115                     	;# 
  1049  0116                     	;# 
  1050  0117                     	;# 
  1051  0118                     	;# 
  1052  0119                     	;# 
  1053  011A                     	;# 
  1054  011B                     	;# 
  1055  011B                     	;# 
  1056  011C                     	;# 
  1057  018C                     	;# 
  1058  018D                     	;# 
  1059  018E                     	;# 
  1060  018F                     	;# 
  1061  0190                     	;# 
  1062  0191                     	;# 
  1063  0191                     	;# 
  1064  0192                     	;# 
  1065  0193                     	;# 
  1066  0193                     	;# 
  1067  0194                     	;# 
  1068  0195                     	;# 
  1069  0196                     	;# 
  1070  0197                     	;# 
  1071  0199                     	;# 
  1072  0199                     	;# 
  1073  0199                     	;# 
  1074  019A                     	;# 
  1075  019A                     	;# 
  1076  019A                     	;# 
  1077  019B                     	;# 
  1078  019B                     	;# 
  1079  019B                     	;# 
  1080  019B                     	;# 
  1081  019B                     	;# 
  1082  019C                     	;# 
  1083  019C                     	;# 
  1084  019C                     	;# 
  1085  019D                     	;# 
  1086  019D                     	;# 
  1087  019D                     	;# 
  1088  019E                     	;# 
  1089  019E                     	;# 
  1090  019E                     	;# 
  1091  019F                     	;# 
  1092  019F                     	;# 
  1093  019F                     	;# 
  1094  019F                     	;# 
  1095  019F                     	;# 
  1096  020C                     	;# 
  1097  020D                     	;# 
  1098  020E                     	;# 
  1099  020F                     	;# 
  1100  0210                     	;# 
  1101  0211                     	;# 
  1102  0211                     	;# 
  1103  0212                     	;# 
  1104  0212                     	;# 
  1105  0213                     	;# 
  1106  0213                     	;# 
  1107  0214                     	;# 
  1108  0214                     	;# 
  1109  0215                     	;# 
  1110  0215                     	;# 
  1111  0215                     	;# 
  1112  0215                     	;# 
  1113  0216                     	;# 
  1114  0216                     	;# 
  1115  0217                     	;# 
  1116  0217                     	;# 
  1117  028C                     	;# 
  1118  028D                     	;# 
  1119  028E                     	;# 
  1120  028F                     	;# 
  1121  0290                     	;# 
  1122  0291                     	;# 
  1123  0291                     	;# 
  1124  0292                     	;# 
  1125  0293                     	;# 
  1126  0293                     	;# 
  1127  0298                     	;# 
  1128  0298                     	;# 
  1129  0299                     	;# 
  1130  029A                     	;# 
  1131  029A                     	;# 
  1132  029E                     	;# 
  1133  030C                     	;# 
  1134  030D                     	;# 
  1135  030E                     	;# 
  1136  030F                     	;# 
  1137  0310                     	;# 
  1138  038C                     	;# 
  1139  038D                     	;# 
  1140  038E                     	;# 
  1141  038F                     	;# 
  1142  0390                     	;# 
  1143  0391                     	;# 
  1144  0392                     	;# 
  1145  0393                     	;# 
  1146  0394                     	;# 
  1147  0395                     	;# 
  1148  0396                     	;# 
  1149  0397                     	;# 
  1150  0398                     	;# 
  1151  0399                     	;# 
  1152  039D                     	;# 
  1153  039E                     	;# 
  1154  039F                     	;# 
  1155  0415                     	;# 
  1156  0416                     	;# 
  1157  0417                     	;# 
  1158  041C                     	;# 
  1159  041D                     	;# 
  1160  041E                     	;# 
  1161  0498                     	;# 
  1162  0498                     	;# 
  1163  0499                     	;# 
  1164  049A                     	;# 
  1165  049B                     	;# 
  1166  049B                     	;# 
  1167  049C                     	;# 
  1168  049D                     	;# 
  1169  049E                     	;# 
  1170  049F                     	;# 
  1171  0511                     	;# 
  1172  0515                     	;# 
  1173  0617                     	;# 
  1174  0618                     	;# 
  1175  0619                     	;# 
  1176  0619                     	;# 
  1177  061A                     	;# 
  1178  061B                     	;# 
  1179  061C                     	;# 
  1180  061C                     	;# 
  1181  0691                     	;# 
  1182  0692                     	;# 
  1183  0693                     	;# 
  1184  0694                     	;# 
  1185  0695                     	;# 
  1186  0696                     	;# 
  1187  0697                     	;# 
  1188  0698                     	;# 
  1189  0699                     	;# 
  1190  069A                     	;# 
  1191  069B                     	;# 
  1192  069C                     	;# 
  1193  069D                     	;# 
  1194  069E                     	;# 
  1195  069F                     	;# 
  1196  0E0F                     	;# 
  1197  0E10                     	;# 
  1198  0E11                     	;# 
  1199  0E12                     	;# 
  1200  0E13                     	;# 
  1201  0E14                     	;# 
  1202  0E15                     	;# 
  1203  0E17                     	;# 
  1204  0E20                     	;# 
  1205  0E21                     	;# 
  1206  0E22                     	;# 
  1207  0E24                     	;# 
  1208  0E25                     	;# 
  1209  0E28                     	;# 
  1210  0E29                     	;# 
  1211  0E2A                     	;# 
  1212  0E2B                     	;# 
  1213  0E90                     	;# 
  1214  0E91                     	;# 
  1215  0E92                     	;# 
  1216  0E93                     	;# 
  1217  0E94                     	;# 
  1218  0E95                     	;# 
  1219  0E96                     	;# 
  1220  0E97                     	;# 
  1221  0E98                     	;# 
  1222  0E99                     	;# 
  1223  0E9A                     	;# 
  1224  0E9B                     	;# 
  1225  0E9C                     	;# 
  1226  0E9D                     	;# 
  1227  0E9E                     	;# 
  1228  0E9F                     	;# 
  1229  0EA0                     	;# 
  1230  0EA1                     	;# 
  1231  0EA2                     	;# 
  1232  0EA3                     	;# 
  1233  0EA4                     	;# 
  1234  0EA5                     	;# 
  1235  0EA6                     	;# 
  1236  0EA7                     	;# 
  1237  0EA8                     	;# 
  1238  0EA9                     	;# 
  1239  0EAA                     	;# 
  1240  0EAB                     	;# 
  1241  0EAC                     	;# 
  1242  0EAD                     	;# 
  1243  0EAE                     	;# 
  1244  0EAF                     	;# 
  1245  0EB0                     	;# 
  1246  0EB1                     	;# 
  1247  0EB2                     	;# 
  1248  0F0F                     	;# 
  1249  0F10                     	;# 
  1250  0F11                     	;# 
  1251  0F12                     	;# 
  1252  0F13                     	;# 
  1253  0F14                     	;# 
  1254  0F15                     	;# 
  1255  0F16                     	;# 
  1256  0F17                     	;# 
  1257  0F18                     	;# 
  1258  0F19                     	;# 
  1259  0F1A                     	;# 
  1260  0F1B                     	;# 
  1261  0F1C                     	;# 
  1262  0F1D                     	;# 
  1263  0F1E                     	;# 
  1264  0F1F                     	;# 
  1265  0F20                     	;# 
  1266  0F21                     	;# 
  1267  0F22                     	;# 
  1268  0F23                     	;# 
  1269  0F24                     	;# 
  1270  0F25                     	;# 
  1271  0F26                     	;# 
  1272  0F27                     	;# 
  1273  0F28                     	;# 
  1274  0F29                     	;# 
  1275  0F2A                     	;# 
  1276  0F2B                     	;# 
  1277  0F2C                     	;# 
  1278  0F2D                     	;# 
  1279  0F2E                     	;# 
  1280  0F2F                     	;# 
  1281  0F30                     	;# 
  1282  0F31                     	;# 
  1283  0F32                     	;# 
  1284  0F33                     	;# 
  1285  0F34                     	;# 
  1286  0F35                     	;# 
  1287  0F36                     	;# 
  1288  0F37                     	;# 
  1289  0FE4                     	;# 
  1290  0FE5                     	;# 
  1291  0FE6                     	;# 
  1292  0FE7                     	;# 
  1293  0FE8                     	;# 
  1294  0FE9                     	;# 
  1295  0FEA                     	;# 
  1296  0FEB                     	;# 
  1297  0FED                     	;# 
  1298  0FEE                     	;# 
  1299  0FEF                     	;# 
  1300                           
  1301                           	psect	stringtext
  1302  0800                     __pstringtext:	
  1303  0800                     _dpowers:	
  1304  0800  3401               	retlw	1
  1305  0801  3400               	retlw	0
  1306  0802  3400               	retlw	0
  1307  0803  3400               	retlw	0
  1308  0804  340A               	retlw	10
  1309  0805  3400               	retlw	0
  1310  0806  3400               	retlw	0
  1311  0807  3400               	retlw	0
  1312  0808  3464               	retlw	100
  1313  0809  3400               	retlw	0
  1314  080A  3400               	retlw	0
  1315  080B  3400               	retlw	0
  1316  080C  34E8               	retlw	232
  1317  080D  3403               	retlw	3
  1318  080E  3400               	retlw	0
  1319  080F  3400               	retlw	0
  1320  0810  3410               	retlw	16
  1321  0811  3427               	retlw	39
  1322  0812  3400               	retlw	0
  1323  0813  3400               	retlw	0
  1324  0814  34A0               	retlw	160
  1325  0815  3486               	retlw	134
  1326  0816  3401               	retlw	1
  1327  0817  3400               	retlw	0
  1328  0818  3440               	retlw	64
  1329  0819  3442               	retlw	66
  1330  081A  340F               	retlw	15
  1331  081B  3400               	retlw	0
  1332  081C  3480               	retlw	128
  1333  081D  3496               	retlw	150
  1334  081E  3498               	retlw	152
  1335  081F  3400               	retlw	0
  1336  0820  3400               	retlw	0
  1337  0821  34E1               	retlw	225
  1338  0822  34F5               	retlw	245
  1339  0823  3405               	retlw	5
  1340  0824  3400               	retlw	0
  1341  0825  34CA               	retlw	202
  1342  0826  349A               	retlw	154
  1343  0827  343B               	retlw	59
  1344  0828                     __end_of_dpowers:	
  1345  0828                     _OledFont:	
  1346  0828  3400               	retlw	0
  1347  0829  3400               	retlw	0
  1348  082A  3400               	retlw	0
  1349  082B  3400               	retlw	0
  1350  082C  3400               	retlw	0
  1351  082D  3400               	retlw	0
  1352  082E  3400               	retlw	0
  1353  082F  3400               	retlw	0
  1354  0830  3400               	retlw	0
  1355  0831  3400               	retlw	0
  1356  0832  345F               	retlw	95
  1357  0833  3400               	retlw	0
  1358  0834  3400               	retlw	0
  1359  0835  3400               	retlw	0
  1360  0836  3400               	retlw	0
  1361  0837  3400               	retlw	0
  1362  0838  3400               	retlw	0
  1363  0839  3400               	retlw	0
  1364  083A  3407               	retlw	7
  1365  083B  3400               	retlw	0
  1366  083C  3407               	retlw	7
  1367  083D  3400               	retlw	0
  1368  083E  3400               	retlw	0
  1369  083F  3400               	retlw	0
  1370  0840  3400               	retlw	0
  1371  0841  3414               	retlw	20
  1372  0842  347F               	retlw	127
  1373  0843  3414               	retlw	20
  1374  0844  347F               	retlw	127
  1375  0845  3414               	retlw	20
  1376  0846  3400               	retlw	0
  1377  0847  3400               	retlw	0
  1378  0848  3400               	retlw	0
  1379  0849  3424               	retlw	36
  1380  084A  342A               	retlw	42
  1381  084B  347F               	retlw	127
  1382  084C  342A               	retlw	42
  1383  084D  3412               	retlw	18
  1384  084E  3400               	retlw	0
  1385  084F  3400               	retlw	0
  1386  0850  3400               	retlw	0
  1387  0851  3423               	retlw	35
  1388  0852  3413               	retlw	19
  1389  0853  3408               	retlw	8
  1390  0854  3464               	retlw	100
  1391  0855  3462               	retlw	98
  1392  0856  3400               	retlw	0
  1393  0857  3400               	retlw	0
  1394  0858  3400               	retlw	0
  1395  0859  3436               	retlw	54
  1396  085A  3449               	retlw	73
  1397  085B  3455               	retlw	85
  1398  085C  3422               	retlw	34
  1399  085D  3450               	retlw	80
  1400  085E  3400               	retlw	0
  1401  085F  3400               	retlw	0
  1402  0860  3400               	retlw	0
  1403  0861  3400               	retlw	0
  1404  0862  3405               	retlw	5
  1405  0863  3403               	retlw	3
  1406  0864  3400               	retlw	0
  1407  0865  3400               	retlw	0
  1408  0866  3400               	retlw	0
  1409  0867  3400               	retlw	0
  1410  0868  3400               	retlw	0
  1411  0869  341C               	retlw	28
  1412  086A  3422               	retlw	34
  1413  086B  3441               	retlw	65
  1414  086C  3400               	retlw	0
  1415  086D  3400               	retlw	0
  1416  086E  3400               	retlw	0
  1417  086F  3400               	retlw	0
  1418  0870  3400               	retlw	0
  1419  0871  3441               	retlw	65
  1420  0872  3422               	retlw	34
  1421  0873  341C               	retlw	28
  1422  0874  3400               	retlw	0
  1423  0875  3400               	retlw	0
  1424  0876  3400               	retlw	0
  1425  0877  3400               	retlw	0
  1426  0878  3400               	retlw	0
  1427  0879  3408               	retlw	8
  1428  087A  342A               	retlw	42
  1429  087B  341C               	retlw	28
  1430  087C  342A               	retlw	42
  1431  087D  3408               	retlw	8
  1432  087E  3400               	retlw	0
  1433  087F  3400               	retlw	0
  1434  0880  3400               	retlw	0
  1435  0881  3408               	retlw	8
  1436  0882  3408               	retlw	8
  1437  0883  343E               	retlw	62
  1438  0884  3408               	retlw	8
  1439  0885  3408               	retlw	8
  1440  0886  3400               	retlw	0
  1441  0887  3400               	retlw	0
  1442  0888  3400               	retlw	0
  1443  0889  34A0               	retlw	160
  1444  088A  3460               	retlw	96
  1445  088B  3400               	retlw	0
  1446  088C  3400               	retlw	0
  1447  088D  3400               	retlw	0
  1448  088E  3400               	retlw	0
  1449  088F  3400               	retlw	0
  1450  0890  3400               	retlw	0
  1451  0891  3408               	retlw	8
  1452  0892  3408               	retlw	8
  1453  0893  3408               	retlw	8
  1454  0894  3408               	retlw	8
  1455  0895  3408               	retlw	8
  1456  0896  3400               	retlw	0
  1457  0897  3400               	retlw	0
  1458  0898  3400               	retlw	0
  1459  0899  3460               	retlw	96
  1460  089A  3460               	retlw	96
  1461  089B  3400               	retlw	0
  1462  089C  3400               	retlw	0
  1463  089D  3400               	retlw	0
  1464  089E  3400               	retlw	0
  1465  089F  3400               	retlw	0
  1466  08A0  3400               	retlw	0
  1467  08A1  3420               	retlw	32
  1468  08A2  3410               	retlw	16
  1469  08A3  3408               	retlw	8
  1470  08A4  3404               	retlw	4
  1471  08A5  3402               	retlw	2
  1472  08A6  3400               	retlw	0
  1473  08A7  3400               	retlw	0
  1474  08A8  3400               	retlw	0
  1475  08A9  343E               	retlw	62
  1476  08AA  3451               	retlw	81
  1477  08AB  3449               	retlw	73
  1478  08AC  3445               	retlw	69
  1479  08AD  343E               	retlw	62
  1480  08AE  3400               	retlw	0
  1481  08AF  3400               	retlw	0
  1482  08B0  3400               	retlw	0
  1483  08B1  3400               	retlw	0
  1484  08B2  3442               	retlw	66
  1485  08B3  347F               	retlw	127
  1486  08B4  3440               	retlw	64
  1487  08B5  3400               	retlw	0
  1488  08B6  3400               	retlw	0
  1489  08B7  3400               	retlw	0
  1490  08B8  3400               	retlw	0
  1491  08B9  3462               	retlw	98
  1492  08BA  3451               	retlw	81
  1493  08BB  3449               	retlw	73
  1494  08BC  3449               	retlw	73
  1495  08BD  3446               	retlw	70
  1496  08BE  3400               	retlw	0
  1497  08BF  3400               	retlw	0
  1498  08C0  3400               	retlw	0
  1499  08C1  3422               	retlw	34
  1500  08C2  3441               	retlw	65
  1501  08C3  3449               	retlw	73
  1502  08C4  3449               	retlw	73
  1503  08C5  3436               	retlw	54
  1504  08C6  3400               	retlw	0
  1505  08C7  3400               	retlw	0
  1506  08C8  3400               	retlw	0
  1507  08C9  3418               	retlw	24
  1508  08CA  3414               	retlw	20
  1509  08CB  3412               	retlw	18
  1510  08CC  347F               	retlw	127
  1511  08CD  3410               	retlw	16
  1512  08CE  3400               	retlw	0
  1513  08CF  3400               	retlw	0
  1514  08D0  3400               	retlw	0
  1515  08D1  3427               	retlw	39
  1516  08D2  3445               	retlw	69
  1517  08D3  3445               	retlw	69
  1518  08D4  3445               	retlw	69
  1519  08D5  3439               	retlw	57
  1520  08D6  3400               	retlw	0
  1521  08D7  3400               	retlw	0
  1522  08D8  3400               	retlw	0
  1523  08D9  343C               	retlw	60
  1524  08DA  344A               	retlw	74
  1525  08DB  3449               	retlw	73
  1526  08DC  3449               	retlw	73
  1527  08DD  3430               	retlw	48
  1528  08DE  3400               	retlw	0
  1529  08DF  3400               	retlw	0
  1530  08E0  3400               	retlw	0
  1531  08E1  3401               	retlw	1
  1532  08E2  3471               	retlw	113
  1533  08E3  3409               	retlw	9
  1534  08E4  3405               	retlw	5
  1535  08E5  3403               	retlw	3
  1536  08E6  3400               	retlw	0
  1537  08E7  3400               	retlw	0
  1538  08E8  3400               	retlw	0
  1539  08E9  3436               	retlw	54
  1540  08EA  3449               	retlw	73
  1541  08EB  3449               	retlw	73
  1542  08EC  3449               	retlw	73
  1543  08ED  3436               	retlw	54
  1544  08EE  3400               	retlw	0
  1545  08EF  3400               	retlw	0
  1546  08F0  3400               	retlw	0
  1547  08F1  3406               	retlw	6
  1548  08F2  3449               	retlw	73
  1549  08F3  3449               	retlw	73
  1550  08F4  3429               	retlw	41
  1551  08F5  341E               	retlw	30
  1552  08F6  3400               	retlw	0
  1553  08F7  3400               	retlw	0
  1554  08F8  3400               	retlw	0
  1555  08F9  3400               	retlw	0
  1556  08FA  3436               	retlw	54
  1557  08FB  3436               	retlw	54
  1558  08FC  3400               	retlw	0
  1559  08FD  3400               	retlw	0
  1560  08FE  3400               	retlw	0
  1561  08FF  3400               	retlw	0
  1562  0900  3400               	retlw	0
  1563  0901  3400               	retlw	0
  1564  0902  34AC               	retlw	172
  1565  0903  346C               	retlw	108
  1566  0904  3400               	retlw	0
  1567  0905  3400               	retlw	0
  1568  0906  3400               	retlw	0
  1569  0907  3400               	retlw	0
  1570  0908  3400               	retlw	0
  1571  0909  3408               	retlw	8
  1572  090A  3414               	retlw	20
  1573  090B  3422               	retlw	34
  1574  090C  3441               	retlw	65
  1575  090D  3400               	retlw	0
  1576  090E  3400               	retlw	0
  1577  090F  3400               	retlw	0
  1578  0910  3400               	retlw	0
  1579  0911  3414               	retlw	20
  1580  0912  3414               	retlw	20
  1581  0913  3414               	retlw	20
  1582  0914  3414               	retlw	20
  1583  0915  3414               	retlw	20
  1584  0916  3400               	retlw	0
  1585  0917  3400               	retlw	0
  1586  0918  3400               	retlw	0
  1587  0919  3441               	retlw	65
  1588  091A  3422               	retlw	34
  1589  091B  3414               	retlw	20
  1590  091C  3408               	retlw	8
  1591  091D  3400               	retlw	0
  1592  091E  3400               	retlw	0
  1593  091F  3400               	retlw	0
  1594  0920  3400               	retlw	0
  1595  0921  3402               	retlw	2
  1596  0922  3401               	retlw	1
  1597  0923  3451               	retlw	81
  1598  0924  3409               	retlw	9
  1599  0925  3406               	retlw	6
  1600  0926  3400               	retlw	0
  1601  0927  3400               	retlw	0
  1602  0928  3400               	retlw	0
  1603  0929  3432               	retlw	50
  1604  092A  3449               	retlw	73
  1605  092B  3479               	retlw	121
  1606  092C  3441               	retlw	65
  1607  092D  343E               	retlw	62
  1608  092E  3400               	retlw	0
  1609  092F  3400               	retlw	0
  1610  0930  3400               	retlw	0
  1611  0931  347E               	retlw	126
  1612  0932  3409               	retlw	9
  1613  0933  3409               	retlw	9
  1614  0934  3409               	retlw	9
  1615  0935  347E               	retlw	126
  1616  0936  3400               	retlw	0
  1617  0937  3400               	retlw	0
  1618  0938  3400               	retlw	0
  1619  0939  347F               	retlw	127
  1620  093A  3449               	retlw	73
  1621  093B  3449               	retlw	73
  1622  093C  3449               	retlw	73
  1623  093D  3436               	retlw	54
  1624  093E  3400               	retlw	0
  1625  093F  3400               	retlw	0
  1626  0940  3400               	retlw	0
  1627  0941  343E               	retlw	62
  1628  0942  3441               	retlw	65
  1629  0943  3441               	retlw	65
  1630  0944  3441               	retlw	65
  1631  0945  3422               	retlw	34
  1632  0946  3400               	retlw	0
  1633  0947  3400               	retlw	0
  1634  0948  3400               	retlw	0
  1635  0949  347F               	retlw	127
  1636  094A  3441               	retlw	65
  1637  094B  3441               	retlw	65
  1638  094C  3422               	retlw	34
  1639  094D  341C               	retlw	28
  1640  094E  3400               	retlw	0
  1641  094F  3400               	retlw	0
  1642  0950  3400               	retlw	0
  1643  0951  347F               	retlw	127
  1644  0952  3449               	retlw	73
  1645  0953  3449               	retlw	73
  1646  0954  3449               	retlw	73
  1647  0955  3441               	retlw	65
  1648  0956  3400               	retlw	0
  1649  0957  3400               	retlw	0
  1650  0958  3400               	retlw	0
  1651  0959  347F               	retlw	127
  1652  095A  3409               	retlw	9
  1653  095B  3409               	retlw	9
  1654  095C  3409               	retlw	9
  1655  095D  3401               	retlw	1
  1656  095E  3400               	retlw	0
  1657  095F  3400               	retlw	0
  1658  0960  3400               	retlw	0
  1659  0961  343E               	retlw	62
  1660  0962  3441               	retlw	65
  1661  0963  3441               	retlw	65
  1662  0964  3451               	retlw	81
  1663  0965  3472               	retlw	114
  1664  0966  3400               	retlw	0
  1665  0967  3400               	retlw	0
  1666  0968  3400               	retlw	0
  1667  0969  347F               	retlw	127
  1668  096A  3408               	retlw	8
  1669  096B  3408               	retlw	8
  1670  096C  3408               	retlw	8
  1671  096D  347F               	retlw	127
  1672  096E  3400               	retlw	0
  1673  096F  3400               	retlw	0
  1674  0970  3400               	retlw	0
  1675  0971  3441               	retlw	65
  1676  0972  347F               	retlw	127
  1677  0973  3441               	retlw	65
  1678  0974  3400               	retlw	0
  1679  0975  3400               	retlw	0
  1680  0976  3400               	retlw	0
  1681  0977  3400               	retlw	0
  1682  0978  3400               	retlw	0
  1683  0979  3420               	retlw	32
  1684  097A  3440               	retlw	64
  1685  097B  3441               	retlw	65
  1686  097C  343F               	retlw	63
  1687  097D  3401               	retlw	1
  1688  097E  3400               	retlw	0
  1689  097F  3400               	retlw	0
  1690  0980  3400               	retlw	0
  1691  0981  347F               	retlw	127
  1692  0982  3408               	retlw	8
  1693  0983  3414               	retlw	20
  1694  0984  3422               	retlw	34
  1695  0985  3441               	retlw	65
  1696  0986  3400               	retlw	0
  1697  0987  3400               	retlw	0
  1698  0988  3400               	retlw	0
  1699  0989  347F               	retlw	127
  1700  098A  3440               	retlw	64
  1701  098B  3440               	retlw	64
  1702  098C  3440               	retlw	64
  1703  098D  3440               	retlw	64
  1704  098E  3400               	retlw	0
  1705  098F  3400               	retlw	0
  1706  0990  3400               	retlw	0
  1707  0991  347F               	retlw	127
  1708  0992  3402               	retlw	2
  1709  0993  340C               	retlw	12
  1710  0994  3402               	retlw	2
  1711  0995  347F               	retlw	127
  1712  0996  3400               	retlw	0
  1713  0997  3400               	retlw	0
  1714  0998  3400               	retlw	0
  1715  0999  347F               	retlw	127
  1716  099A  3404               	retlw	4
  1717  099B  3408               	retlw	8
  1718  099C  3410               	retlw	16
  1719  099D  347F               	retlw	127
  1720  099E  3400               	retlw	0
  1721  099F  3400               	retlw	0
  1722  09A0  3400               	retlw	0
  1723  09A1  343E               	retlw	62
  1724  09A2  3441               	retlw	65
  1725  09A3  3441               	retlw	65
  1726  09A4  3441               	retlw	65
  1727  09A5  343E               	retlw	62
  1728  09A6  3400               	retlw	0
  1729  09A7  3400               	retlw	0
  1730  09A8  3400               	retlw	0
  1731  09A9  347F               	retlw	127
  1732  09AA  3409               	retlw	9
  1733  09AB  3409               	retlw	9
  1734  09AC  3409               	retlw	9
  1735  09AD  3406               	retlw	6
  1736  09AE  3400               	retlw	0
  1737  09AF  3400               	retlw	0
  1738  09B0  3400               	retlw	0
  1739  09B1  343E               	retlw	62
  1740  09B2  3441               	retlw	65
  1741  09B3  3451               	retlw	81
  1742  09B4  3421               	retlw	33
  1743  09B5  345E               	retlw	94
  1744  09B6  3400               	retlw	0
  1745  09B7  3400               	retlw	0
  1746  09B8  3400               	retlw	0
  1747  09B9  347F               	retlw	127
  1748  09BA  3409               	retlw	9
  1749  09BB  3419               	retlw	25
  1750  09BC  3429               	retlw	41
  1751  09BD  3446               	retlw	70
  1752  09BE  3400               	retlw	0
  1753  09BF  3400               	retlw	0
  1754  09C0  3400               	retlw	0
  1755  09C1  3426               	retlw	38
  1756  09C2  3449               	retlw	73
  1757  09C3  3449               	retlw	73
  1758  09C4  3449               	retlw	73
  1759  09C5  3432               	retlw	50
  1760  09C6  3400               	retlw	0
  1761  09C7  3400               	retlw	0
  1762  09C8  3400               	retlw	0
  1763  09C9  3401               	retlw	1
  1764  09CA  3401               	retlw	1
  1765  09CB  347F               	retlw	127
  1766  09CC  3401               	retlw	1
  1767  09CD  3401               	retlw	1
  1768  09CE  3400               	retlw	0
  1769  09CF  3400               	retlw	0
  1770  09D0  3400               	retlw	0
  1771  09D1  343F               	retlw	63
  1772  09D2  3440               	retlw	64
  1773  09D3  3440               	retlw	64
  1774  09D4  3440               	retlw	64
  1775  09D5  343F               	retlw	63
  1776  09D6  3400               	retlw	0
  1777  09D7  3400               	retlw	0
  1778  09D8  3400               	retlw	0
  1779  09D9  341F               	retlw	31
  1780  09DA  3420               	retlw	32
  1781  09DB  3440               	retlw	64
  1782  09DC  3420               	retlw	32
  1783  09DD  341F               	retlw	31
  1784  09DE  3400               	retlw	0
  1785  09DF  3400               	retlw	0
  1786  09E0  3400               	retlw	0
  1787  09E1  343F               	retlw	63
  1788  09E2  3440               	retlw	64
  1789  09E3  3438               	retlw	56
  1790  09E4  3440               	retlw	64
  1791  09E5  343F               	retlw	63
  1792  09E6  3400               	retlw	0
  1793  09E7  3400               	retlw	0
  1794  09E8  3400               	retlw	0
  1795  09E9  3463               	retlw	99
  1796  09EA  3414               	retlw	20
  1797  09EB  3408               	retlw	8
  1798  09EC  3414               	retlw	20
  1799  09ED  3463               	retlw	99
  1800  09EE  3400               	retlw	0
  1801  09EF  3400               	retlw	0
  1802  09F0  3400               	retlw	0
  1803  09F1  3403               	retlw	3
  1804  09F2  3404               	retlw	4
  1805  09F3  3478               	retlw	120
  1806  09F4  3404               	retlw	4
  1807  09F5  3403               	retlw	3
  1808  09F6  3400               	retlw	0
  1809  09F7  3400               	retlw	0
  1810  09F8  3400               	retlw	0
  1811  09F9  3461               	retlw	97
  1812  09FA  3451               	retlw	81
  1813  09FB  3449               	retlw	73
  1814  09FC  3445               	retlw	69
  1815  09FD  3443               	retlw	67
  1816  09FE  3400               	retlw	0
  1817  09FF  3400               	retlw	0
  1818  0A00  3400               	retlw	0
  1819  0A01  347F               	retlw	127
  1820  0A02  3441               	retlw	65
  1821  0A03  3441               	retlw	65
  1822  0A04  3400               	retlw	0
  1823  0A05  3400               	retlw	0
  1824  0A06  3400               	retlw	0
  1825  0A07  3400               	retlw	0
  1826  0A08  3400               	retlw	0
  1827  0A09  3402               	retlw	2
  1828  0A0A  3404               	retlw	4
  1829  0A0B  3408               	retlw	8
  1830  0A0C  3410               	retlw	16
  1831  0A0D  3420               	retlw	32
  1832  0A0E  3400               	retlw	0
  1833  0A0F  3400               	retlw	0
  1834  0A10  3400               	retlw	0
  1835  0A11  3441               	retlw	65
  1836  0A12  3441               	retlw	65
  1837  0A13  347F               	retlw	127
  1838  0A14  3400               	retlw	0
  1839  0A15  3400               	retlw	0
  1840  0A16  3400               	retlw	0
  1841  0A17  3400               	retlw	0
  1842  0A18  3400               	retlw	0
  1843  0A19  3404               	retlw	4
  1844  0A1A  3402               	retlw	2
  1845  0A1B  3401               	retlw	1
  1846  0A1C  3402               	retlw	2
  1847  0A1D  3404               	retlw	4
  1848  0A1E  3400               	retlw	0
  1849  0A1F  3400               	retlw	0
  1850  0A20  3400               	retlw	0
  1851  0A21  3480               	retlw	128
  1852  0A22  3480               	retlw	128
  1853  0A23  3480               	retlw	128
  1854  0A24  3480               	retlw	128
  1855  0A25  3480               	retlw	128
  1856  0A26  3400               	retlw	0
  1857  0A27  3400               	retlw	0
  1858  0A28  3400               	retlw	0
  1859  0A29  3401               	retlw	1
  1860  0A2A  3402               	retlw	2
  1861  0A2B  3404               	retlw	4
  1862  0A2C  3400               	retlw	0
  1863  0A2D  3400               	retlw	0
  1864  0A2E  3400               	retlw	0
  1865  0A2F  3400               	retlw	0
  1866  0A30  3400               	retlw	0
  1867  0A31  3420               	retlw	32
  1868  0A32  3454               	retlw	84
  1869  0A33  3454               	retlw	84
  1870  0A34  3454               	retlw	84
  1871  0A35  3478               	retlw	120
  1872  0A36  3400               	retlw	0
  1873  0A37  3400               	retlw	0
  1874  0A38  3400               	retlw	0
  1875  0A39  347F               	retlw	127
  1876  0A3A  3448               	retlw	72
  1877  0A3B  3444               	retlw	68
  1878  0A3C  3444               	retlw	68
  1879  0A3D  3438               	retlw	56
  1880  0A3E  3400               	retlw	0
  1881  0A3F  3400               	retlw	0
  1882  0A40  3400               	retlw	0
  1883  0A41  3438               	retlw	56
  1884  0A42  3444               	retlw	68
  1885  0A43  3444               	retlw	68
  1886  0A44  3428               	retlw	40
  1887  0A45  3400               	retlw	0
  1888  0A46  3400               	retlw	0
  1889  0A47  3400               	retlw	0
  1890  0A48  3400               	retlw	0
  1891  0A49  3438               	retlw	56
  1892  0A4A  3444               	retlw	68
  1893  0A4B  3444               	retlw	68
  1894  0A4C  3448               	retlw	72
  1895  0A4D  347F               	retlw	127
  1896  0A4E  3400               	retlw	0
  1897  0A4F  3400               	retlw	0
  1898  0A50  3400               	retlw	0
  1899  0A51  3438               	retlw	56
  1900  0A52  3454               	retlw	84
  1901  0A53  3454               	retlw	84
  1902  0A54  3454               	retlw	84
  1903  0A55  3418               	retlw	24
  1904  0A56  3400               	retlw	0
  1905  0A57  3400               	retlw	0
  1906  0A58  3400               	retlw	0
  1907  0A59  3408               	retlw	8
  1908  0A5A  347E               	retlw	126
  1909  0A5B  3409               	retlw	9
  1910  0A5C  3402               	retlw	2
  1911  0A5D  3400               	retlw	0
  1912  0A5E  3400               	retlw	0
  1913  0A5F  3400               	retlw	0
  1914  0A60  3400               	retlw	0
  1915  0A61  3418               	retlw	24
  1916  0A62  34A4               	retlw	164
  1917  0A63  34A4               	retlw	164
  1918  0A64  34A4               	retlw	164
  1919  0A65  347C               	retlw	124
  1920  0A66  3400               	retlw	0
  1921  0A67  3400               	retlw	0
  1922  0A68  3400               	retlw	0
  1923  0A69  347F               	retlw	127
  1924  0A6A  3408               	retlw	8
  1925  0A6B  3404               	retlw	4
  1926  0A6C  3404               	retlw	4
  1927  0A6D  3478               	retlw	120
  1928  0A6E  3400               	retlw	0
  1929  0A6F  3400               	retlw	0
  1930  0A70  3400               	retlw	0
  1931  0A71  3400               	retlw	0
  1932  0A72  347D               	retlw	125
  1933  0A73  3400               	retlw	0
  1934  0A74  3400               	retlw	0
  1935  0A75  3400               	retlw	0
  1936  0A76  3400               	retlw	0
  1937  0A77  3400               	retlw	0
  1938  0A78  3400               	retlw	0
  1939  0A79  3480               	retlw	128
  1940  0A7A  3484               	retlw	132
  1941  0A7B  347D               	retlw	125
  1942  0A7C  3400               	retlw	0
  1943  0A7D  3400               	retlw	0
  1944  0A7E  3400               	retlw	0
  1945  0A7F  3400               	retlw	0
  1946  0A80  3400               	retlw	0
  1947  0A81  347F               	retlw	127
  1948  0A82  3410               	retlw	16
  1949  0A83  3428               	retlw	40
  1950  0A84  3444               	retlw	68
  1951  0A85  3400               	retlw	0
  1952  0A86  3400               	retlw	0
  1953  0A87  3400               	retlw	0
  1954  0A88  3400               	retlw	0
  1955  0A89  3441               	retlw	65
  1956  0A8A  347F               	retlw	127
  1957  0A8B  3440               	retlw	64
  1958  0A8C  3400               	retlw	0
  1959  0A8D  3400               	retlw	0
  1960  0A8E  3400               	retlw	0
  1961  0A8F  3400               	retlw	0
  1962  0A90  3400               	retlw	0
  1963  0A91  347C               	retlw	124
  1964  0A92  3404               	retlw	4
  1965  0A93  3418               	retlw	24
  1966  0A94  3404               	retlw	4
  1967  0A95  3478               	retlw	120
  1968  0A96  3400               	retlw	0
  1969  0A97  3400               	retlw	0
  1970  0A98  3400               	retlw	0
  1971  0A99  347C               	retlw	124
  1972  0A9A  3408               	retlw	8
  1973  0A9B  3404               	retlw	4
  1974  0A9C  347C               	retlw	124
  1975  0A9D  3400               	retlw	0
  1976  0A9E  3400               	retlw	0
  1977  0A9F  3400               	retlw	0
  1978  0AA0  3400               	retlw	0
  1979  0AA1  3438               	retlw	56
  1980  0AA2  3444               	retlw	68
  1981  0AA3  3444               	retlw	68
  1982  0AA4  3438               	retlw	56
  1983  0AA5  3400               	retlw	0
  1984  0AA6  3400               	retlw	0
  1985  0AA7  3400               	retlw	0
  1986  0AA8  3400               	retlw	0
  1987  0AA9  34FC               	retlw	252
  1988  0AAA  3424               	retlw	36
  1989  0AAB  3424               	retlw	36
  1990  0AAC  3418               	retlw	24
  1991  0AAD  3400               	retlw	0
  1992  0AAE  3400               	retlw	0
  1993  0AAF  3400               	retlw	0
  1994  0AB0  3400               	retlw	0
  1995  0AB1  3418               	retlw	24
  1996  0AB2  3424               	retlw	36
  1997  0AB3  3424               	retlw	36
  1998  0AB4  34FC               	retlw	252
  1999  0AB5  3400               	retlw	0
  2000  0AB6  3400               	retlw	0
  2001  0AB7  3400               	retlw	0
  2002  0AB8  3400               	retlw	0
  2003  0AB9  3400               	retlw	0
  2004  0ABA  347C               	retlw	124
  2005  0ABB  3408               	retlw	8
  2006  0ABC  3404               	retlw	4
  2007  0ABD  3400               	retlw	0
  2008  0ABE  3400               	retlw	0
  2009  0ABF  3400               	retlw	0
  2010  0AC0  3400               	retlw	0
  2011  0AC1  3448               	retlw	72
  2012  0AC2  3454               	retlw	84
  2013  0AC3  3454               	retlw	84
  2014  0AC4  3424               	retlw	36
  2015  0AC5  3400               	retlw	0
  2016  0AC6  3400               	retlw	0
  2017  0AC7  3400               	retlw	0
  2018  0AC8  3400               	retlw	0
  2019  0AC9  3404               	retlw	4
  2020  0ACA  347F               	retlw	127
  2021  0ACB  3444               	retlw	68
  2022  0ACC  3400               	retlw	0
  2023  0ACD  3400               	retlw	0
  2024  0ACE  3400               	retlw	0
  2025  0ACF  3400               	retlw	0
  2026  0AD0  3400               	retlw	0
  2027  0AD1  343C               	retlw	60
  2028  0AD2  3440               	retlw	64
  2029  0AD3  3440               	retlw	64
  2030  0AD4  347C               	retlw	124
  2031  0AD5  3400               	retlw	0
  2032  0AD6  3400               	retlw	0
  2033  0AD7  3400               	retlw	0
  2034  0AD8  3400               	retlw	0
  2035  0AD9  341C               	retlw	28
  2036  0ADA  3420               	retlw	32
  2037  0ADB  3440               	retlw	64
  2038  0ADC  3420               	retlw	32
  2039  0ADD  341C               	retlw	28
  2040  0ADE  3400               	retlw	0
  2041  0ADF  3400               	retlw	0
  2042  0AE0  3400               	retlw	0
  2043  0AE1  343C               	retlw	60
  2044  0AE2  3440               	retlw	64
  2045  0AE3  3430               	retlw	48
  2046  0AE4  3440               	retlw	64
  2047  0AE5  343C               	retlw	60
  2048  0AE6  3400               	retlw	0
  2049  0AE7  3400               	retlw	0
  2050  0AE8  3400               	retlw	0
  2051  0AE9  3444               	retlw	68
  2052  0AEA  3428               	retlw	40
  2053  0AEB  3410               	retlw	16
  2054  0AEC  3428               	retlw	40
  2055  0AED  3444               	retlw	68
  2056  0AEE  3400               	retlw	0
  2057  0AEF  3400               	retlw	0
  2058  0AF0  3400               	retlw	0
  2059  0AF1  341C               	retlw	28
  2060  0AF2  34A0               	retlw	160
  2061  0AF3  34A0               	retlw	160
  2062  0AF4  347C               	retlw	124
  2063  0AF5  3400               	retlw	0
  2064  0AF6  3400               	retlw	0
  2065  0AF7  3400               	retlw	0
  2066  0AF8  3400               	retlw	0
  2067  0AF9  3444               	retlw	68
  2068  0AFA  3464               	retlw	100
  2069  0AFB  3454               	retlw	84
  2070  0AFC  344C               	retlw	76
  2071  0AFD  3444               	retlw	68
  2072  0AFE  3400               	retlw	0
  2073  0AFF  3400               	retlw	0
  2074  0B00  3400               	retlw	0
  2075  0B01  3408               	retlw	8
  2076  0B02  3436               	retlw	54
  2077  0B03  3441               	retlw	65
  2078  0B04  3400               	retlw	0
  2079  0B05  3400               	retlw	0
  2080  0B06  3400               	retlw	0
  2081  0B07  3400               	retlw	0
  2082  0B08  3400               	retlw	0
  2083  0B09  3400               	retlw	0
  2084  0B0A  347F               	retlw	127
  2085  0B0B  3400               	retlw	0
  2086  0B0C  3400               	retlw	0
  2087  0B0D  3400               	retlw	0
  2088  0B0E  3400               	retlw	0
  2089  0B0F  3400               	retlw	0
  2090  0B10  3400               	retlw	0
  2091  0B11  3441               	retlw	65
  2092  0B12  3436               	retlw	54
  2093  0B13  3408               	retlw	8
  2094  0B14  3400               	retlw	0
  2095  0B15  3400               	retlw	0
  2096  0B16  3400               	retlw	0
  2097  0B17  3400               	retlw	0
  2098  0B18  3400               	retlw	0
  2099  0B19  3402               	retlw	2
  2100  0B1A  3401               	retlw	1
  2101  0B1B  3401               	retlw	1
  2102  0B1C  3402               	retlw	2
  2103  0B1D  3401               	retlw	1
  2104  0B1E  3400               	retlw	0
  2105  0B1F  3400               	retlw	0
  2106  0B20  3400               	retlw	0
  2107  0B21  3402               	retlw	2
  2108  0B22  3405               	retlw	5
  2109  0B23  3405               	retlw	5
  2110  0B24  3402               	retlw	2
  2111  0B25  3400               	retlw	0
  2112  0B26  3400               	retlw	0
  2113  0B27  3400               	retlw	0
  2114  0B28                     __end_of_OledFont:	
  2115  0011                     _PIR1bits	set	17
  2116  008E                     _TRISCbits	set	142
  2117  04CF                     _SPLLEN	set	1231
  2118  04CE                     _IRCF3	set	1230
  2119  04CD                     _IRCF2	set	1229
  2120  04CC                     _IRCF1	set	1228
  2121  04CB                     _IRCF0	set	1227
  2122  04C9                     _SCS1	set	1225
  2123  04C8                     _SCS0	set	1224
  2124  018E                     _ANSELCbits	set	398
  2125  0216                     _SSPCON2bits	set	534
  2126  0211                     _SSPBUF	set	529
  2127  0212                     _SSPADD	set	530
  2128  0215                     _SSPCONbits	set	533
  2129  0E20                     _SSPCLKPPSbits	set	3616
  2130  0E21                     _SSPDATPPSbits	set	3617
  2131  0E0F                     _PPSLOCKbits	set	3599
  2132  0E0F                     _PPSLOCK	set	3599
  2133  0EA5                     _RC5PPSbits	set	3749
  2134  0EA4                     _RC4PPSbits	set	3748
  2135  0B28                     STR_4:	
  2136  0B28  3425               	retlw	37	;'%'
  2137  0B29  346C               	retlw	108	;'l'
  2138  0B2A  3475               	retlw	117	;'u'
  2139  0B2B  342E               	retlw	46	;'.'
  2140  0B2C  3425               	retlw	37	;'%'
  2141  0B2D  3436               	retlw	54	;'6'
  2142  0B2E  342E               	retlw	46	;'.'
  2143  0B2F  3436               	retlw	54	;'6'
  2144  0B30  346C               	retlw	108	;'l'
  2145  0B31  3475               	retlw	117	;'u'
  2146  0B32  3400               	retlw	0
  2147  0B33                     STR_2:	
  2148  0B33  3420               	retlw	32	;' '
  2149  0B34  3420               	retlw	32	;' '
  2150  0B35  3420               	retlw	32	;' '
  2151  0B36  3420               	retlw	32	;' '
  2152  0B37  3420               	retlw	32	;' '
  2153  0B38  3400               	retlw	0
  2154  0B39                     STR_1:	
  2155  0B39  3454               	retlw	84	;'T'
  2156  0B3A  3465               	retlw	101	;'e'
  2157  0B3B  3473               	retlw	115	;'s'
  2158  0B3C  3474               	retlw	116	;'t'
  2159  0B3D  343A               	retlw	58	;':'
  2160  0B3E  3400               	retlw	0
  2161  0B33                     
  2162                           ; #config settings
  2163  0000                     
  2164                           	psect	cinit
  2165  07F6                     start_initialization:	
  2166  07F6                     __initialization:	
  2167                           
  2168                           ; Clear objects allocated to BANK0
  2169  07F6  303A               	movlw	low __pbssBANK0
  2170  07F7  0084               	movwf	4
  2171  07F8  3000               	movlw	high __pbssBANK0
  2172  07F9  0085               	movwf	5
  2173  07FA  3011               	movlw	17
  2174  07FB  3185  2597         	fcall	clear_ram0
  2175  07FD                     end_of_initialization:	
  2176                           ;End of C runtime variable initialization code
  2177                           
  2178  07FD                     __end_of__initialization:	
  2179  07FD  0020               	movlb	0
  2180  07FE  3186  2E81         	ljmp	_main	;jump to C main() function
  2181                           
  2182                           	psect	bssBANK0
  2183  003A                     __pbssBANK0:	
  2184  003A                     ftoa@buf:	
  2185  003A                     	ds	17
  2186                           
  2187                           	psect	clrtext
  2188  0597                     clear_ram0:	
  2189                           ;	Called with FSR0 containing the base address, and
  2190                           ;	WREG with the size to clear
  2191                           
  2192  0597  0064               	clrwdt	;clear the watchdog before getting into this loop
  2193  0598                     clrloop0:	
  2194  0598  0180               	clrf	0	;clear RAM location pointed to by FSR
  2195  0599  3101               	addfsr 0,1
  2196  059A  0B89               	decfsz	9,f	;Have we reached the end of clearing yet?
  2197  059B  2D98               	goto	clrloop0	;have we reached the end yet?
  2198  059C  3400               	retlw	0	;all done for this memory range, return
  2199                           
  2200                           	psect	cstackCOMMON
  2201  0070                     __pcstackCOMMON:	
  2202  0070                     ?_OLED_Init:	
  2203  0070                     ?_OLED_Clear:	
  2204                           ; 1 bytes @ 0x0
  2205                           
  2206  0070                     ?_memmove:	
  2207                           ; 1 bytes @ 0x0
  2208                           
  2209  0070                     ?_internal_16:	
  2210                           ; 1 bytes @ 0x0
  2211                           
  2212  0070                     ??_internal_16:	
  2213                           ; 1 bytes @ 0x0
  2214                           
  2215  0070                     ?_I2C_Init:	
  2216                           ; 1 bytes @ 0x0
  2217                           
  2218  0070                     ??_I2C_Init:	
  2219                           ; 1 bytes @ 0x0
  2220                           
  2221  0070                     ?_Send_I2C_Data:	
  2222                           ; 1 bytes @ 0x0
  2223                           
  2224  0070                     ?_Send_I2C_StartBit:	
  2225                           ; 1 bytes @ 0x0
  2226                           
  2227  0070                     ??_Send_I2C_StartBit:	
  2228                           ; 1 bytes @ 0x0
  2229                           
  2230  0070                     ?_Send_I2C_StopBit:	
  2231                           ; 1 bytes @ 0x0
  2232                           
  2233  0070                     ??_Send_I2C_StopBit:	
  2234                           ; 1 bytes @ 0x0
  2235                           
  2236  0070                     ?_initMain:	
  2237                           ; 1 bytes @ 0x0
  2238                           
  2239  0070                     ??_initMain:	
  2240                           ; 1 bytes @ 0x0
  2241                           
  2242  0070                     ?_main:	
  2243                           ; 1 bytes @ 0x0
  2244                           
  2245  0070                     ?_OLED_Command:	
  2246                           ; 1 bytes @ 0x0
  2247                           
  2248  0070                     ?_OLED_PutChar:	
  2249                           ; 1 bytes @ 0x0
  2250                           
  2251  0070                     Send_I2C_Data@databyte:	
  2252                           ; 1 bytes @ 0x0
  2253                           
  2254  0070                     memmove@s1:	
  2255                           ; 2 bytes @ 0x0
  2256                           
  2257                           
  2258                           ; 2 bytes @ 0x0
  2259  0070                     	ds	2
  2260  0072                     ??_Send_I2C_Data:	
  2261  0072                     ??_OLED_Command:	
  2262                           ; 1 bytes @ 0x2
  2263                           
  2264  0072                     memmove@n:	
  2265                           ; 1 bytes @ 0x2
  2266                           
  2267                           
  2268                           ; 2 bytes @ 0x2
  2269  0072                     	ds	2
  2270  0074                     ??_memmove:	
  2271  0074                     OLED_Command@temp:	
  2272                           ; 1 bytes @ 0x4
  2273                           
  2274                           
  2275                           ; 1 bytes @ 0x4
  2276  0074                     	ds	1
  2277  0075                     ??_OLED_Init:	
  2278  0075                     ?_OLED_YX:	
  2279                           ; 1 bytes @ 0x5
  2280                           
  2281  0075                     OLED_YX@Column:	
  2282                           ; 1 bytes @ 0x5
  2283                           
  2284                           
  2285                           ; 1 bytes @ 0x5
  2286  0075                     	ds	1
  2287  0076                     ??_OLED_YX:	
  2288                           
  2289                           ; 1 bytes @ 0x6
  2290  0076                     	ds	2
  2291  0078                     memmove@d1:	
  2292                           
  2293                           ; 1 bytes @ 0x8
  2294  0078                     	ds	1
  2295  0079                     OLED_YX@Row:	
  2296  0079                     memmove@s:	
  2297                           ; 1 bytes @ 0x9
  2298                           
  2299                           
  2300                           ; 2 bytes @ 0x9
  2301  0079                     	ds	2
  2302  007B                     memmove@d:	
  2303                           
  2304                           ; 1 bytes @ 0xB
  2305  007B                     	ds	1
  2306  007C                     ??_OLED_Clear:	
  2307  007C                     ?_OLED_Write_String:	
  2308                           ; 1 bytes @ 0xC
  2309                           
  2310  007C                     OLED_Write_String@s:	
  2311                           ; 1 bytes @ 0xC
  2312                           
  2313                           
  2314                           ; 2 bytes @ 0xC
  2315  007C                     	ds	2
  2316                           
  2317                           	psect	cstackBANK0
  2318  0020                     __pcstackBANK0:	
  2319  0020                     ??_OLED_PutChar:	
  2320                           
  2321                           ; 1 bytes @ 0x0
  2322  0020                     	ds	6
  2323  0026                     OLED_PutChar@bytes:	
  2324                           
  2325                           ; 9 bytes @ 0x6
  2326  0026                     	ds	9
  2327  002F                     OLED_PutChar@base:	
  2328                           
  2329                           ; 2 bytes @ 0xF
  2330  002F                     	ds	2
  2331  0031                     OLED_PutChar@i:	
  2332                           
  2333                           ; 2 bytes @ 0x11
  2334  0031                     	ds	2
  2335  0033                     OLED_PutChar@ch:	
  2336                           
  2337                           ; 1 bytes @ 0x13
  2338  0033                     	ds	1
  2339  0034                     ??_OLED_Write_String:	
  2340  0034                     OLED_Clear@row:	
  2341                           ; 1 bytes @ 0x14
  2342                           
  2343                           
  2344                           ; 2 bytes @ 0x14
  2345  0034                     	ds	2
  2346  0036                     OLED_Clear@col:	
  2347                           
  2348                           ; 2 bytes @ 0x16
  2349  0036                     	ds	2
  2350  0038                     ??_main:	
  2351                           
  2352                           ; 1 bytes @ 0x18
  2353  0038                     	ds	2
  2354                           
  2355                           	psect	maintext
  2356  0681                     __pmaintext:	
  2357 ;;
  2358 ;;Main: autosize = 0, tempsize = 2, incstack = 0, save=0
  2359 ;;
  2360 ;; *************** function _main *****************
  2361 ;; Defined at:
  2362 ;;		line 78 in file "../25_Temperature_Indicator.X/Main.c"
  2363 ;; Parameters:    Size  Location     Type
  2364 ;;		None
  2365 ;; Auto vars:     Size  Location     Type
  2366 ;;		None
  2367 ;; Return value:  Size  Location     Type
  2368 ;;                  1    wreg      void 
  2369 ;; Registers used:
  2370 ;;		wreg, fsr0l, fsr0h, fsr1l, fsr1h, status,2, status,0, pclath, cstack
  2371 ;; Tracked objects:
  2372 ;;		On entry : B1F/0
  2373 ;;		On exit  : 0/0
  2374 ;;		Unchanged: 0/0
  2375 ;; Data sizes:     COMMON   BANK0   BANK1   BANK2   BANK3   BANK4   BANK5   BANK6   BANK7   BANK8   BANK9  BANK10  BANK1
      +1  BANK12
  2376 ;;      Params:         0       0       0       0       0       0       0       0       0       0       0       0       
      +0       0
  2377 ;;      Locals:         0       0       0       0       0       0       0       0       0       0       0       0       
      +0       0
  2378 ;;      Temps:          0       2       0       0       0       0       0       0       0       0       0       0       
      +0       0
  2379 ;;      Totals:         0       2       0       0       0       0       0       0       0       0       0       0       
      +0       0
  2380 ;;Total ram usage:        2 bytes
  2381 ;; Hardware stack levels required when called:    4
  2382 ;; This function calls:
  2383 ;;		_I2C_Init
  2384 ;;		_OLED_Clear
  2385 ;;		_OLED_Init
  2386 ;;		_OLED_Write_String
  2387 ;;		_OLED_YX
  2388 ;;		_initMain
  2389 ;; This function is called by:
  2390 ;;		Startup code after reset
  2391 ;; This function uses a non-reentrant model
  2392 ;;
  2393                           
  2394                           
  2395                           ;psect for function _main
  2396  0681                     _main:	
  2397                           
  2398                           ;Main.c: 79: initMain();
  2399                           
  2400                           ;incstack = 0
  2401                           ; Regs used in _main: [wreg-fsr1h+status,2+status,0+pclath+cstack]
  2402  0681  3186  2629  3186   	fcall	_initMain
  2403                           
  2404                           ;Main.c: 82: I2C_Init();
  2405  0684  3185  25BF  3186   	fcall	_I2C_Init
  2406                           
  2407                           ;Main.c: 84: _delay((unsigned long)((100)*(16000000/4000.0)));
  2408  0687  3003               	movlw	3
  2409  0688  0020               	movlb	0	; select bank0
  2410  0689  00B9               	movwf	??_main+1
  2411  068A  3008               	movlw	8
  2412  068B  00B8               	movwf	??_main
  2413  068C  3077               	movlw	119
  2414  068D                     u437:	
  2415  068D  0B89               	decfsz	9,f
  2416  068E  2E8D               	goto	u437
  2417  068F  0BB8               	decfsz	??_main,f
  2418  0690  2E8D               	goto	u437
  2419  0691  0BB9               	decfsz	??_main+1,f
  2420  0692  2E8D               	goto	u437
  2421                           
  2422                           ;Main.c: 87: OLED_Init();
  2423  0693  3186  26B3  3186   	fcall	_OLED_Init
  2424                           
  2425                           ;Main.c: 90: OLED_Clear();
  2426  0696  3186  2651  3186   	fcall	_OLED_Clear
  2427  0699                     l971:	
  2428                           ;Main.c: 93: while(1){
  2429                           
  2430                           
  2431                           ;Main.c: 95: OLED_YX( 0, 0 );
  2432  0699  01F5               	clrf	OLED_YX@Column
  2433  069A  3000               	movlw	0
  2434  069B  3186  2601  3186   	fcall	_OLED_YX
  2435                           
  2436                           ;Main.c: 96: OLED_Write_String("Test:" );
  2437  069E  3039               	movlw	low (STR_1| (0+32768))
  2438  069F  00FC               	movwf	OLED_Write_String@s
  2439  06A0  308B               	movlw	high (STR_1| (0+32768))
  2440  06A1  00FD               	movwf	OLED_Write_String@s+1
  2441  06A2  3185  25CF  3186   	fcall	_OLED_Write_String
  2442                           
  2443                           ;Main.c: 98: _delay((unsigned long)((1000)*(16000000/4000.0)));
  2444  06A5  3015               	movlw	21
  2445  06A6  0020               	movlb	0	; select bank0
  2446  06A7  00B9               	movwf	??_main+1
  2447  06A8  304B               	movlw	75
  2448  06A9  00B8               	movwf	??_main
  2449  06AA  30BE               	movlw	190
  2450  06AB                     u447:	
  2451  06AB  0B89               	decfsz	9,f
  2452  06AC  2EAB               	goto	u447
  2453  06AD  0BB8               	decfsz	??_main,f
  2454  06AE  2EAB               	goto	u447
  2455  06AF  0BB9               	decfsz	??_main+1,f
  2456  06B0  2EAB               	goto	u447
  2457  06B1  0000               	nop
  2458  06B2  2E99               	goto	l971
  2459  06B3                     __end_of_main:	
  2460                           ;Main.c: 100: }
  2461                           ;Main.c: 102: return;
  2462                           
  2463                           
  2464                           	psect	text1
  2465  0629                     __ptext1:	
  2466 ;; *************** function _initMain *****************
  2467 ;; Defined at:
  2468 ;;		line 39 in file "../25_Temperature_Indicator.X/Main.c"
  2469 ;; Parameters:    Size  Location     Type
  2470 ;;		None
  2471 ;; Auto vars:     Size  Location     Type
  2472 ;;		None
  2473 ;; Return value:  Size  Location     Type
  2474 ;;                  1    wreg      void 
  2475 ;; Registers used:
  2476 ;;		wreg, status,2, status,0, pclath, cstack
  2477 ;; Tracked objects:
  2478 ;;		On entry : 0/0
  2479 ;;		On exit  : 0/0
  2480 ;;		Unchanged: 0/0
  2481 ;; Data sizes:     COMMON   BANK0   BANK1   BANK2   BANK3   BANK4   BANK5   BANK6   BANK7   BANK8   BANK9  BANK10  BANK1
      +1  BANK12
  2482 ;;      Params:         0       0       0       0       0       0       0       0       0       0       0       0       
      +0       0
  2483 ;;      Locals:         0       0       0       0       0       0       0       0       0       0       0       0       
      +0       0
  2484 ;;      Temps:          0       0       0       0       0       0       0       0       0       0       0       0       
      +0       0
  2485 ;;      Totals:         0       0       0       0       0       0       0       0       0       0       0       0       
      +0       0
  2486 ;;Total ram usage:        0 bytes
  2487 ;; Hardware stack levels used:    1
  2488 ;; Hardware stack levels required when called:    1
  2489 ;; This function calls:
  2490 ;;		_internal_16
  2491 ;; This function is called by:
  2492 ;;		_main
  2493 ;; This function uses a non-reentrant model
  2494 ;;
  2495                           
  2496                           
  2497                           ;psect for function _initMain
  2498  0629                     _initMain:	
  2499                           
  2500                           ;Main.c: 41: internal_16();
  2501                           
  2502                           ;incstack = 0
  2503                           ; Regs used in _initMain: [wreg+status,2+status,0+pclath+cstack]
  2504  0629  3185  25B6         	fcall	_internal_16
  2505                           
  2506                           ;Main.c: 49: ANSELCbits.ANSC4 = 0;
  2507  062B  0023               	movlb	3	; select bank3
  2508  062C  120E               	bcf	14,4	;volatile
  2509                           
  2510                           ;Main.c: 50: ANSELCbits.ANSC5 = 0;
  2511  062D  128E               	bcf	14,5	;volatile
  2512                           
  2513                           ;Main.c: 52: TRISCbits.TRISC4 = 1;
  2514  062E  0021               	movlb	1	; select bank1
  2515  062F  160E               	bsf	14,4	;volatile
  2516                           
  2517                           ;Main.c: 53: TRISCbits.TRISC5 = 1;
  2518  0630  168E               	bsf	14,5	;volatile
  2519                           
  2520                           ;Main.c: 55: PPSLOCK = 0x55;
  2521  0631  3055               	movlw	85
  2522  0632  003C               	movlb	28	; select bank28
  2523  0633  008F               	movwf	15	;volatile
  2524                           
  2525                           ;Main.c: 56: PPSLOCK = 0xAA;
  2526  0634  30AA               	movlw	170
  2527  0635  008F               	movwf	15	;volatile
  2528                           
  2529                           ;Main.c: 57: PPSLOCKbits.PPSLOCKED = 0x00;
  2530  0636  100F               	bcf	15,0	;volatile
  2531                           
  2532                           ;Main.c: 59: RC4PPSbits.RC4PPS = 0x0011;
  2533  0637  003D               	movlb	29	; select bank29
  2534  0638  0824               	movf	36,w	;volatile
  2535  0639  39E0               	andlw	-32
  2536  063A  3811               	iorlw	17
  2537  063B  00A4               	movwf	36	;volatile
  2538                           
  2539                           ;Main.c: 60: SSPDATPPSbits.SSPDATPPS = 0x0014;
  2540  063C  003C               	movlb	28	; select bank28
  2541  063D  0821               	movf	33,w	;volatile
  2542  063E  39E0               	andlw	-32
  2543  063F  3814               	iorlw	20
  2544  0640  00A1               	movwf	33	;volatile
  2545                           
  2546                           ;Main.c: 61: SSPCLKPPSbits.SSPCLKPPS = 0x0015;
  2547  0641  0820               	movf	32,w	;volatile
  2548  0642  39E0               	andlw	-32
  2549  0643  3815               	iorlw	21
  2550  0644  00A0               	movwf	32	;volatile
  2551                           
  2552                           ;Main.c: 62: RC5PPSbits.RC5PPS = 0x0010;
  2553  0645  003D               	movlb	29	; select bank29
  2554  0646  0825               	movf	37,w	;volatile
  2555  0647  39E0               	andlw	-32
  2556  0648  3810               	iorlw	16
  2557  0649  00A5               	movwf	37	;volatile
  2558                           
  2559                           ;Main.c: 64: PPSLOCK = 0x55;
  2560  064A  3055               	movlw	85
  2561  064B  003C               	movlb	28	; select bank28
  2562  064C  008F               	movwf	15	;volatile
  2563                           
  2564                           ;Main.c: 65: PPSLOCK = 0xAA;
  2565  064D  30AA               	movlw	170
  2566  064E  008F               	movwf	15	;volatile
  2567                           
  2568                           ;Main.c: 66: PPSLOCKbits.PPSLOCKED = 0x01;
  2569  064F  140F               	bsf	15,0	;volatile
  2570  0650  0008               	return
  2571  0651                     __end_of_initMain:	
  2572                           
  2573                           	psect	text2
  2574  05B6                     __ptext2:	
  2575 ;; *************** function _internal_16 *****************
  2576 ;; Defined at:
  2577 ;;		line 56 in file "../25_Temperature_Indicator.X/16F1717_Internal.c"
  2578 ;; Parameters:    Size  Location     Type
  2579 ;;		None
  2580 ;; Auto vars:     Size  Location     Type
  2581 ;;		None
  2582 ;; Return value:  Size  Location     Type
  2583 ;;                  1    wreg      void 
  2584 ;; Registers used:
  2585 ;;		None
  2586 ;; Tracked objects:
  2587 ;;		On entry : 0/0
  2588 ;;		On exit  : 0/0
  2589 ;;		Unchanged: 0/0
  2590 ;; Data sizes:     COMMON   BANK0   BANK1   BANK2   BANK3   BANK4   BANK5   BANK6   BANK7   BANK8   BANK9  BANK10  BANK1
      +1  BANK12
  2591 ;;      Params:         0       0       0       0       0       0       0       0       0       0       0       0       
      +0       0
  2592 ;;      Locals:         0       0       0       0       0       0       0       0       0       0       0       0       
      +0       0
  2593 ;;      Temps:          0       0       0       0       0       0       0       0       0       0       0       0       
      +0       0
  2594 ;;      Totals:         0       0       0       0       0       0       0       0       0       0       0       0       
      +0       0
  2595 ;;Total ram usage:        0 bytes
  2596 ;; Hardware stack levels used:    1
  2597 ;; This function calls:
  2598 ;;		Nothing
  2599 ;; This function is called by:
  2600 ;;		_initMain
  2601 ;; This function uses a non-reentrant model
  2602 ;;
  2603                           
  2604                           
  2605                           ;psect for function _internal_16
  2606  05B6                     _internal_16:	
  2607                           
  2608                           ;16F1717_Internal.c: 58: SCS0 = 0;
  2609                           
  2610                           ;incstack = 0
  2611                           ; Regs used in _internal_16: []
  2612  05B6  0021               	movlb	1	; select bank1
  2613  05B7  1019               	bcf	25,0	;volatile
  2614                           
  2615                           ;16F1717_Internal.c: 59: SCS1 = 0;
  2616  05B8  1099               	bcf	25,1	;volatile
  2617                           
  2618                           ;16F1717_Internal.c: 62: IRCF0 = 1;
  2619  05B9  1599               	bsf	25,3	;volatile
  2620                           
  2621                           ;16F1717_Internal.c: 63: IRCF1 = 1;
  2622  05BA  1619               	bsf	25,4	;volatile
  2623                           
  2624                           ;16F1717_Internal.c: 64: IRCF2 = 1;
  2625  05BB  1699               	bsf	25,5	;volatile
  2626                           
  2627                           ;16F1717_Internal.c: 65: IRCF3 = 1;
  2628  05BC  1719               	bsf	25,6	;volatile
  2629                           
  2630                           ;16F1717_Internal.c: 68: SPLLEN = 0;
  2631  05BD  1399               	bcf	25,7	;volatile
  2632  05BE  0008               	return
  2633  05BF                     __end_of_internal_16:	
  2634                           
  2635                           	psect	text3
  2636  05CF                     __ptext3:	
  2637 ;; *************** function _OLED_Write_String *****************
  2638 ;; Defined at:
  2639 ;;		line 284 in file "../25_Temperature_Indicator.X/oled.c"
  2640 ;; Parameters:    Size  Location     Type
  2641 ;;  s               2   12[COMMON] PTR unsigned char 
  2642 ;;		 -> ftoa@buf(17), STR_3(6), STR_2(6), OLED_Write_Integer@s(20), 
  2643 ;;		 -> STR_1(6), 
  2644 ;; Auto vars:     Size  Location     Type
  2645 ;;		None
  2646 ;; Return value:  Size  Location     Type
  2647 ;;                  1    wreg      void 
  2648 ;; Registers used:
  2649 ;;		wreg, fsr0l, fsr0h, fsr1l, fsr1h, status,2, status,0, pclath, cstack
  2650 ;; Tracked objects:
  2651 ;;		On entry : 0/0
  2652 ;;		On exit  : 0/0
  2653 ;;		Unchanged: 0/0
  2654 ;; Data sizes:     COMMON   BANK0   BANK1   BANK2   BANK3   BANK4   BANK5   BANK6   BANK7   BANK8   BANK9  BANK10  BANK1
      +1  BANK12
  2655 ;;      Params:         2       0       0       0       0       0       0       0       0       0       0       0       
      +0       0
  2656 ;;      Locals:         0       0       0       0       0       0       0       0       0       0       0       0       
      +0       0
  2657 ;;      Temps:          0       1       0       0       0       0       0       0       0       0       0       0       
      +0       0
  2658 ;;      Totals:         2       1       0       0       0       0       0       0       0       0       0       0       
      +0       0
  2659 ;;Total ram usage:        3 bytes
  2660 ;; Hardware stack levels used:    1
  2661 ;; Hardware stack levels required when called:    2
  2662 ;; This function calls:
  2663 ;;		_OLED_PutChar
  2664 ;; This function is called by:
  2665 ;;		_main
  2666 ;;		_OLED_Write_Integer
  2667 ;;		_OLED_Write_Float
  2668 ;; This function uses a non-reentrant model
  2669 ;;
  2670                           
  2671                           
  2672                           ;psect for function _OLED_Write_String
  2673  05CF                     _OLED_Write_String:	
  2674  05CF                     l961:	
  2675                           ;oled.c: 286: while (*s) OLED_PutChar( *s++);
  2676                           
  2677                           ;incstack = 0
  2678                           ; Regs used in _OLED_Write_String: [wreg-fsr1h+status,2+status,0+pclath+cstack]
  2679                           
  2680  05CF  087C               	movf	OLED_Write_String@s,w
  2681  05D0  0084               	movwf	4
  2682  05D1  087D               	movf	OLED_Write_String@s+1,w
  2683  05D2  0085               	movwf	5
  2684  05D3  0012               	moviw fsr0++
  2685  05D4  1903               	btfsc	3,2
  2686  05D5  0008               	return
  2687  05D6  087C               	movf	OLED_Write_String@s,w
  2688  05D7  0084               	movwf	4
  2689  05D8  087D               	movf	OLED_Write_String@s+1,w
  2690  05D9  0085               	movwf	5
  2691  05DA  0800               	movf	0,w	;code access
  2692  05DB  3187  277C  3185   	fcall	_OLED_PutChar
  2693  05DE  3001               	movlw	1
  2694  05DF  07FC               	addwf	OLED_Write_String@s,f
  2695  05E0  3000               	movlw	0
  2696  05E1  3DFD               	addwfc	OLED_Write_String@s+1,f
  2697  05E2  2DCF               	goto	l961
  2698  05E3                     __end_of_OLED_Write_String:	
  2699                           
  2700                           	psect	text4
  2701  06B3                     __ptext4:	
  2702 ;; *************** function _OLED_Init *****************
  2703 ;; Defined at:
  2704 ;;		line 174 in file "../25_Temperature_Indicator.X/oled.c"
  2705 ;; Parameters:    Size  Location     Type
  2706 ;;		None
  2707 ;; Auto vars:     Size  Location     Type
  2708 ;;		None
  2709 ;; Return value:  Size  Location     Type
  2710 ;;                  1    wreg      void 
  2711 ;; Registers used:
  2712 ;;		wreg, status,2, status,0, pclath, cstack
  2713 ;; Tracked objects:
  2714 ;;		On entry : 0/0
  2715 ;;		On exit  : 0/0
  2716 ;;		Unchanged: 0/0
  2717 ;; Data sizes:     COMMON   BANK0   BANK1   BANK2   BANK3   BANK4   BANK5   BANK6   BANK7   BANK8   BANK9  BANK10  BANK1
      +1  BANK12
  2718 ;;      Params:         0       0       0       0       0       0       0       0       0       0       0       0       
      +0       0
  2719 ;;      Locals:         0       0       0       0       0       0       0       0       0       0       0       0       
      +0       0
  2720 ;;      Temps:          0       0       0       0       0       0       0       0       0       0       0       0       
      +0       0
  2721 ;;      Totals:         0       0       0       0       0       0       0       0       0       0       0       0       
      +0       0
  2722 ;;Total ram usage:        0 bytes
  2723 ;; Hardware stack levels used:    1
  2724 ;; Hardware stack levels required when called:    2
  2725 ;; This function calls:
  2726 ;;		_OLED_Command
  2727 ;; This function is called by:
  2728 ;;		_main
  2729 ;; This function uses a non-reentrant model
  2730 ;;
  2731                           
  2732                           
  2733                           ;psect for function _OLED_Init
  2734  06B3                     _OLED_Init:	
  2735                           
  2736                           ;oled.c: 176: OLED_Command(0xAE);
  2737                           
  2738                           ;incstack = 0
  2739                           ; Regs used in _OLED_Init: [wreg+status,2+status,0+pclath+cstack]
  2740  06B3  30AE               	movlw	174
  2741  06B4  3185  25E3  3186   	fcall	_OLED_Command
  2742                           
  2743                           ;oled.c: 177: OLED_Command(0xD5);
  2744  06B7  30D5               	movlw	213
  2745  06B8  3185  25E3  3186   	fcall	_OLED_Command
  2746                           
  2747                           ;oled.c: 178: OLED_Command(0x80);
  2748  06BB  3080               	movlw	128
  2749  06BC  3185  25E3  3186   	fcall	_OLED_Command
  2750                           
  2751                           ;oled.c: 179: OLED_Command(0xA8);
  2752  06BF  30A8               	movlw	168
  2753  06C0  3185  25E3  3186   	fcall	_OLED_Command
  2754                           
  2755                           ;oled.c: 180: OLED_Command(0x1F);
  2756  06C3  301F               	movlw	31
  2757  06C4  3185  25E3  3186   	fcall	_OLED_Command
  2758                           
  2759                           ;oled.c: 181: OLED_Command(0xD3);
  2760  06C7  30D3               	movlw	211
  2761  06C8  3185  25E3  3186   	fcall	_OLED_Command
  2762                           
  2763                           ;oled.c: 182: OLED_Command(0x0);
  2764  06CB  3000               	movlw	0
  2765  06CC  3185  25E3  3186   	fcall	_OLED_Command
  2766                           
  2767                           ;oled.c: 183: OLED_Command(0x40 | 0x0);
  2768  06CF  3040               	movlw	64
  2769  06D0  3185  25E3  3186   	fcall	_OLED_Command
  2770                           
  2771                           ;oled.c: 184: OLED_Command(0x8D);
  2772  06D3  308D               	movlw	141
  2773  06D4  3185  25E3  3186   	fcall	_OLED_Command
  2774                           
  2775                           ;oled.c: 185: OLED_Command(0xAF);
  2776  06D7  30AF               	movlw	175
  2777  06D8  3185  25E3  3186   	fcall	_OLED_Command
  2778                           
  2779                           ;oled.c: 186: OLED_Command(0x20);
  2780  06DB  3020               	movlw	32
  2781  06DC  3185  25E3  3186   	fcall	_OLED_Command
  2782                           
  2783                           ;oled.c: 187: OLED_Command(0x00);
  2784  06DF  3000               	movlw	0
  2785  06E0  3185  25E3  3186   	fcall	_OLED_Command
  2786                           
  2787                           ;oled.c: 188: OLED_Command(0xA0 | 0x1);
  2788  06E3  30A1               	movlw	161
  2789  06E4  3185  25E3  3186   	fcall	_OLED_Command
  2790                           
  2791                           ;oled.c: 189: OLED_Command(0xC8);
  2792  06E7  30C8               	movlw	200
  2793  06E8  3185  25E3  3186   	fcall	_OLED_Command
  2794                           
  2795                           ;oled.c: 190: OLED_Command(0xDA);
  2796  06EB  30DA               	movlw	218
  2797  06EC  3185  25E3  3186   	fcall	_OLED_Command
  2798                           
  2799                           ;oled.c: 191: OLED_Command(0x02);
  2800  06EF  3002               	movlw	2
  2801  06F0  3185  25E3  3186   	fcall	_OLED_Command
  2802                           
  2803                           ;oled.c: 192: OLED_Command(0x81);
  2804  06F3  3081               	movlw	129
  2805  06F4  3185  25E3  3186   	fcall	_OLED_Command
  2806                           
  2807                           ;oled.c: 193: OLED_Command(0x8F);
  2808  06F7  308F               	movlw	143
  2809  06F8  3185  25E3  3186   	fcall	_OLED_Command
  2810                           
  2811                           ;oled.c: 194: OLED_Command(0xD9);
  2812  06FB  30D9               	movlw	217
  2813  06FC  3185  25E3  3186   	fcall	_OLED_Command
  2814                           
  2815                           ;oled.c: 195: OLED_Command(0xF1);
  2816  06FF  30F1               	movlw	241
  2817  0700  3185  25E3  3186   	fcall	_OLED_Command
  2818                           
  2819                           ;oled.c: 196: OLED_Command(0xDB);
  2820  0703  30DB               	movlw	219
  2821  0704  3185  25E3  3186   	fcall	_OLED_Command
  2822                           
  2823                           ;oled.c: 197: OLED_Command(0x40);
  2824  0707  3040               	movlw	64
  2825  0708  3185  25E3  3186   	fcall	_OLED_Command
  2826                           
  2827                           ;oled.c: 198: OLED_Command(0xA4);
  2828  070B  30A4               	movlw	164
  2829  070C  3185  25E3  3186   	fcall	_OLED_Command
  2830                           
  2831                           ;oled.c: 199: OLED_Command(0xA6);
  2832  070F  30A6               	movlw	166
  2833  0710  3185  25E3  3186   	fcall	_OLED_Command
  2834                           
  2835                           ;oled.c: 200: OLED_Command(0xAF);
  2836  0713  30AF               	movlw	175
  2837  0714  3185  25E3         	fcall	_OLED_Command
  2838  0716  0008               	return
  2839  0717                     __end_of_OLED_Init:	
  2840                           
  2841                           	psect	text5
  2842  0651                     __ptext5:	
  2843 ;; *************** function _OLED_Clear *****************
  2844 ;; Defined at:
  2845 ;;		line 264 in file "../25_Temperature_Indicator.X/oled.c"
  2846 ;; Parameters:    Size  Location     Type
  2847 ;;		None
  2848 ;; Auto vars:     Size  Location     Type
  2849 ;;  col             2   22[BANK0 ] unsigned int 
  2850 ;;  row             2   20[BANK0 ] unsigned int 
  2851 ;; Return value:  Size  Location     Type
  2852 ;;                  1    wreg      void 
  2853 ;; Registers used:
  2854 ;;		wreg, fsr0l, fsr0h, fsr1l, fsr1h, status,2, status,0, pclath, cstack
  2855 ;; Tracked objects:
  2856 ;;		On entry : 0/0
  2857 ;;		On exit  : 0/0
  2858 ;;		Unchanged: 0/0
  2859 ;; Data sizes:     COMMON   BANK0   BANK1   BANK2   BANK3   BANK4   BANK5   BANK6   BANK7   BANK8   BANK9  BANK10  BANK1
      +1  BANK12
  2860 ;;      Params:         0       0       0       0       0       0       0       0       0       0       0       0       
      +0       0
  2861 ;;      Locals:         0       4       0       0       0       0       0       0       0       0       0       0       
      +0       0
  2862 ;;      Temps:          1       0       0       0       0       0       0       0       0       0       0       0       
      +0       0
  2863 ;;      Totals:         1       4       0       0       0       0       0       0       0       0       0       0       
      +0       0
  2864 ;;Total ram usage:        5 bytes
  2865 ;; Hardware stack levels used:    1
  2866 ;; Hardware stack levels required when called:    3
  2867 ;; This function calls:
  2868 ;;		_OLED_PutChar
  2869 ;;		_OLED_YX
  2870 ;; This function is called by:
  2871 ;;		_main
  2872 ;; This function uses a non-reentrant model
  2873 ;;
  2874                           
  2875                           
  2876                           ;psect for function _OLED_Clear
  2877  0651                     _OLED_Clear:	
  2878                           
  2879                           ;oled.c: 266: for ( uint16_t row = 0; row < 8; row++ ) {
  2880                           
  2881                           ;incstack = 0
  2882                           ; Regs used in _OLED_Clear: [wreg-fsr1h+status,2+status,0+pclath+cstack]
  2883  0651  0020               	movlb	0	; select bank0
  2884  0652  01B4               	clrf	OLED_Clear@row
  2885  0653  01B5               	clrf	OLED_Clear@row+1
  2886  0654                     L1:	
  2887  0654  3000               	movlw	0
  2888  0655  0235               	subwf	OLED_Clear@row+1,w
  2889  0656  3008               	movlw	8
  2890  0657  1903               	skipnz
  2891  0658  0234               	subwf	OLED_Clear@row,w
  2892  0659  1803               	btfsc	3,0
  2893  065A  0008               	return
  2894                           
  2895                           ;oled.c: 267: for ( uint16_t col = 0; col < 16; col++ ) {
  2896  065B  01B6               	clrf	OLED_Clear@col
  2897  065C  01B7               	clrf	OLED_Clear@col+1
  2898  065D  3000               	movlw	0
  2899  065E  0237               	subwf	OLED_Clear@col+1,w
  2900  065F  3010               	movlw	16
  2901  0660  1903               	skipnz
  2902  0661  0236               	subwf	OLED_Clear@col,w
  2903  0662  1803               	btfsc	3,0
  2904  0663  2E7C               	goto	l953
  2905  0664                     l945:	
  2906                           
  2907                           ;oled.c: 268: OLED_YX( row, col );
  2908  0664  0836               	movf	OLED_Clear@col,w
  2909  0665  00FC               	movwf	??_OLED_Clear
  2910  0666  087C               	movf	??_OLED_Clear,w
  2911  0667  00F5               	movwf	OLED_YX@Column
  2912  0668  0834               	movf	OLED_Clear@row,w
  2913  0669  3186  2601  3186   	fcall	_OLED_YX
  2914                           
  2915                           ;oled.c: 269: OLED_PutChar(' ');
  2916  066C  3020               	movlw	32
  2917  066D  3187  277C  3186   	fcall	_OLED_PutChar
  2918  0670  3001               	movlw	1
  2919  0671  0020               	movlb	0	; select bank0
  2920  0672  07B6               	addwf	OLED_Clear@col,f
  2921  0673  3000               	movlw	0
  2922  0674  3DB7               	addwfc	OLED_Clear@col+1,f
  2923  0675  3000               	movlw	0
  2924  0676  0237               	subwf	OLED_Clear@col+1,w
  2925  0677  3010               	movlw	16
  2926  0678  1903               	skipnz
  2927  0679  0236               	subwf	OLED_Clear@col,w
  2928  067A  1C03               	skipc
  2929  067B  2E64               	goto	l945
  2930  067C                     l953:	
  2931  067C  3001               	movlw	1
  2932  067D  07B4               	addwf	OLED_Clear@row,f
  2933  067E  3000               	movlw	0
  2934  067F  3DB5               	addwfc	OLED_Clear@row+1,f
  2935  0680  2E54               	goto	L1
  2936  0681                     __end_of_OLED_Clear:	
  2937                           
  2938                           	psect	text6
  2939  0601                     __ptext6:	
  2940 ;; *************** function _OLED_YX *****************
  2941 ;; Defined at:
  2942 ;;		line 213 in file "../25_Temperature_Indicator.X/oled.c"
  2943 ;; Parameters:    Size  Location     Type
  2944 ;;  Row             1    wreg     unsigned char 
  2945 ;;  Column          1    5[COMMON] unsigned char 
  2946 ;; Auto vars:     Size  Location     Type
  2947 ;;  Row             1    9[COMMON] unsigned char 
  2948 ;; Return value:  Size  Location     Type
  2949 ;;                  1    wreg      void 
  2950 ;; Registers used:
  2951 ;;		wreg, status,2, status,0, pclath, cstack
  2952 ;; Tracked objects:
  2953 ;;		On entry : 0/0
  2954 ;;		On exit  : 0/0
  2955 ;;		Unchanged: 0/0
  2956 ;; Data sizes:     COMMON   BANK0   BANK1   BANK2   BANK3   BANK4   BANK5   BANK6   BANK7   BANK8   BANK9  BANK10  BANK1
      +1  BANK12
  2957 ;;      Params:         1       0       0       0       0       0       0       0       0       0       0       0       
      +0       0
  2958 ;;      Locals:         1       0       0       0       0       0       0       0       0       0       0       0       
      +0       0
  2959 ;;      Temps:          3       0       0       0       0       0       0       0       0       0       0       0       
      +0       0
  2960 ;;      Totals:         5       0       0       0       0       0       0       0       0       0       0       0       
      +0       0
  2961 ;;Total ram usage:        5 bytes
  2962 ;; Hardware stack levels used:    1
  2963 ;; Hardware stack levels required when called:    2
  2964 ;; This function calls:
  2965 ;;		_OLED_Command
  2966 ;; This function is called by:
  2967 ;;		_main
  2968 ;;		_OLED_Clear
  2969 ;; This function uses a non-reentrant model
  2970 ;;
  2971                           
  2972                           
  2973                           ;psect for function _OLED_YX
  2974  0601                     _OLED_YX:	
  2975                           
  2976                           ;incstack = 0
  2977                           ; Regs used in _OLED_YX: [wreg+status,2+status,0+pclath+cstack]
  2978                           ;OLED_YX@Row stored from wreg
  2979  0601  00F9               	movwf	OLED_YX@Row
  2980                           
  2981                           ;oled.c: 215: OLED_Command( 0xB0 + Row);
  2982  0602  0879               	movf	OLED_YX@Row,w
  2983  0603  3EB0               	addlw	176
  2984  0604  3185  25E3  3186   	fcall	_OLED_Command
  2985                           
  2986                           ;oled.c: 216: OLED_Command( 0x00 + (8*Column & 0x0F) );
  2987  0607  0875               	movf	OLED_YX@Column,w
  2988  0608  00F6               	movwf	??_OLED_YX
  2989  0609  3002               	movlw	2
  2990  060A                     u325:	
  2991  060A  35F6               	lslf	??_OLED_YX,f
  2992  060B  3EFF               	addlw	-1
  2993  060C  1D03               	skipz
  2994  060D  2E0A               	goto	u325
  2995  060E  3576               	lslf	??_OLED_YX,w
  2996  060F  390F               	andlw	15
  2997  0610  3185  25E3  3186   	fcall	_OLED_Command
  2998                           
  2999                           ;oled.c: 217: OLED_Command( 0x10 + ((8*Column>>4)&0x0F) );
  3000  0613  0875               	movf	OLED_YX@Column,w
  3001  0614  00F6               	movwf	??_OLED_YX
  3002  0615  01F7               	clrf	??_OLED_YX+1
  3003  0616  35F6               	lslf	??_OLED_YX,f
  3004  0617  0DF7               	rlf	??_OLED_YX+1,f
  3005  0618  35F6               	lslf	??_OLED_YX,f
  3006  0619  0DF7               	rlf	??_OLED_YX+1,f
  3007  061A  35F6               	lslf	??_OLED_YX,f
  3008  061B  0DF7               	rlf	??_OLED_YX+1,f
  3009  061C  3004               	movlw	4
  3010  061D  00F8               	movwf	??_OLED_YX+2
  3011  061E                     u335:	
  3012  061E  0D77               	rlf	??_OLED_YX+1,w
  3013  061F  0CF7               	rrf	??_OLED_YX+1,f
  3014  0620  0CF6               	rrf	??_OLED_YX,f
  3015  0621  0BF8               	decfsz	??_OLED_YX+2,f
  3016  0622  2E1E               	goto	u335
  3017  0623  0876               	movf	??_OLED_YX,w
  3018  0624  390F               	andlw	15
  3019  0625  3E10               	addlw	16
  3020  0626  3185  25E3         	fcall	_OLED_Command
  3021  0628  0008               	return
  3022  0629                     __end_of_OLED_YX:	
  3023                           
  3024                           	psect	text7
  3025  05E3                     __ptext7:	
  3026 ;; *************** function _OLED_Command *****************
  3027 ;; Defined at:
  3028 ;;		line 138 in file "../25_Temperature_Indicator.X/oled.c"
  3029 ;; Parameters:    Size  Location     Type
  3030 ;;  temp            1    wreg     unsigned char 
  3031 ;; Auto vars:     Size  Location     Type
  3032 ;;  temp            1    4[COMMON] unsigned char 
  3033 ;; Return value:  Size  Location     Type
  3034 ;;                  1    wreg      void 
  3035 ;; Registers used:
  3036 ;;		wreg, status,2, status,0, pclath, cstack
  3037 ;; Tracked objects:
  3038 ;;		On entry : 0/0
  3039 ;;		On exit  : 0/0
  3040 ;;		Unchanged: 0/0
  3041 ;; Data sizes:     COMMON   BANK0   BANK1   BANK2   BANK3   BANK4   BANK5   BANK6   BANK7   BANK8   BANK9  BANK10  BANK1
      +1  BANK12
  3042 ;;      Params:         0       0       0       0       0       0       0       0       0       0       0       0       
      +0       0
  3043 ;;      Locals:         1       0       0       0       0       0       0       0       0       0       0       0       
      +0       0
  3044 ;;      Temps:          2       0       0       0       0       0       0       0       0       0       0       0       
      +0       0
  3045 ;;      Totals:         3       0       0       0       0       0       0       0       0       0       0       0       
      +0       0
  3046 ;;Total ram usage:        3 bytes
  3047 ;; Hardware stack levels used:    1
  3048 ;; Hardware stack levels required when called:    1
  3049 ;; This function calls:
  3050 ;;		_Send_I2C_Data
  3051 ;;		_Send_I2C_StartBit
  3052 ;;		_Send_I2C_StopBit
  3053 ;; This function is called by:
  3054 ;;		_OLED_Init
  3055 ;;		_OLED_YX
  3056 ;; This function uses a non-reentrant model
  3057 ;;
  3058                           
  3059                           
  3060                           ;psect for function _OLED_Command
  3061  05E3                     _OLED_Command:	
  3062                           
  3063                           ;incstack = 0
  3064                           ; Regs used in _OLED_Command: [wreg+status,2+status,0+pclath+cstack]
  3065                           ;OLED_Command@temp stored from wreg
  3066  05E3  00F4               	movwf	OLED_Command@temp
  3067                           
  3068                           ;oled.c: 140: Send_I2C_StartBit();
  3069  05E4  3185  259D  3185   	fcall	_Send_I2C_StartBit
  3070                           
  3071                           ;oled.c: 141: Send_I2C_Data(0x3C << 1);
  3072  05E7  3078               	movlw	120
  3073  05E8  00F0               	movwf	Send_I2C_Data@databyte
  3074  05E9  3000               	movlw	0
  3075  05EA  00F1               	movwf	Send_I2C_Data@databyte+1
  3076  05EB  3185  25AD  3185   	fcall	_Send_I2C_Data
  3077                           
  3078                           ;oled.c: 142: Send_I2C_Data(0x00);
  3079  05EE  3000               	movlw	0
  3080  05EF  00F0               	movwf	Send_I2C_Data@databyte
  3081  05F0  00F1               	movwf	Send_I2C_Data@databyte+1
  3082  05F1  3185  25AD  3185   	fcall	_Send_I2C_Data
  3083                           
  3084                           ;oled.c: 143: Send_I2C_Data(temp);
  3085  05F4  0874               	movf	OLED_Command@temp,w
  3086  05F5  00F2               	movwf	??_OLED_Command
  3087  05F6  01F3               	clrf	??_OLED_Command+1
  3088  05F7  0872               	movf	??_OLED_Command,w
  3089  05F8  00F0               	movwf	Send_I2C_Data@databyte
  3090  05F9  0873               	movf	??_OLED_Command+1,w
  3091  05FA  00F1               	movwf	Send_I2C_Data@databyte+1
  3092  05FB  3185  25AD  3185   	fcall	_Send_I2C_Data
  3093                           
  3094                           ;oled.c: 144: Send_I2C_StopBit();
  3095  05FE  3185  25A5         	fcall	_Send_I2C_StopBit
  3096  0600  0008               	return
  3097  0601                     __end_of_OLED_Command:	
  3098                           
  3099                           	psect	text8
  3100  077C                     __ptext8:	
  3101 ;; *************** function _OLED_PutChar *****************
  3102 ;; Defined at:
  3103 ;;		line 229 in file "../25_Temperature_Indicator.X/oled.c"
  3104 ;; Parameters:    Size  Location     Type
  3105 ;;  ch              1    wreg     unsigned char 
  3106 ;; Auto vars:     Size  Location     Type
  3107 ;;  ch              1   19[BANK0 ] unsigned char 
  3108 ;;  bytes           9    6[BANK0 ] unsigned char [9]
  3109 ;;  i               2   17[BANK0 ] int 
  3110 ;;  base            2   15[BANK0 ] PTR const unsigned char 
  3111 ;;		 -> OledFont(768), 
  3112 ;; Return value:  Size  Location     Type
  3113 ;;                  1    wreg      void 
  3114 ;; Registers used:
  3115 ;;		wreg, fsr0l, fsr0h, fsr1l, fsr1h, status,2, status,0, pclath, cstack
  3116 ;; Tracked objects:
  3117 ;;		On entry : 0/0
  3118 ;;		On exit  : 0/0
  3119 ;;		Unchanged: 0/0
  3120 ;; Data sizes:     COMMON   BANK0   BANK1   BANK2   BANK3   BANK4   BANK5   BANK6   BANK7   BANK8   BANK9  BANK10  BANK1
      +1  BANK12
  3121 ;;      Params:         0       0       0       0       0       0       0       0       0       0       0       0       
      +0       0
  3122 ;;      Locals:         0      14       0       0       0       0       0       0       0       0       0       0       
      +0       0
  3123 ;;      Temps:          0       6       0       0       0       0       0       0       0       0       0       0       
      +0       0
  3124 ;;      Totals:         0      20       0       0       0       0       0       0       0       0       0       0       
      +0       0
  3125 ;;Total ram usage:       20 bytes
  3126 ;; Hardware stack levels used:    1
  3127 ;; Hardware stack levels required when called:    1
  3128 ;; This function calls:
  3129 ;;		_Send_I2C_Data
  3130 ;;		_Send_I2C_StartBit
  3131 ;;		_Send_I2C_StopBit
  3132 ;;		_memmove
  3133 ;; This function is called by:
  3134 ;;		_OLED_Clear
  3135 ;;		_OLED_Write_String
  3136 ;; This function uses a non-reentrant model
  3137 ;;
  3138                           
  3139                           
  3140                           ;psect for function _OLED_PutChar
  3141  077C                     _OLED_PutChar:	
  3142                           
  3143                           ;incstack = 0
  3144                           ; Regs used in _OLED_PutChar: [wreg-fsr1h+status,2+status,0+pclath+cstack]
  3145                           ;OLED_PutChar@ch stored from wreg
  3146  077C  0020               	movlb	0	; select bank0
  3147  077D  00B3               	movwf	OLED_PutChar@ch
  3148                           
  3149                           ;oled.c: 231: if ( ( ch < 32 ) || ( ch > 127 ) ){
  3150  077E  3020               	movlw	32
  3151  077F  0233               	subwf	OLED_PutChar@ch,w
  3152  0780  1C03               	skipc
  3153  0781  2F86               	goto	l903
  3154  0782  3080               	movlw	128
  3155  0783  0233               	subwf	OLED_PutChar@ch,w
  3156  0784  1C03               	skipc
  3157  0785  2F8A               	goto	l905
  3158  0786                     l903:	
  3159                           
  3160                           ;oled.c: 232: ch = ' ';
  3161  0786  3020               	movlw	32
  3162  0787  00A0               	movwf	??_OLED_PutChar
  3163  0788  0820               	movf	??_OLED_PutChar,w
  3164  0789  00B3               	movwf	OLED_PutChar@ch
  3165  078A                     l905:	
  3166                           
  3167                           ;oled.c: 233: }
  3168                           ;oled.c: 235: const uint8_t *base = &OledFont[ch - 32][0];
  3169  078A  0833               	movf	OLED_PutChar@ch,w
  3170  078B  00A0               	movwf	??_OLED_PutChar
  3171  078C  01A1               	clrf	??_OLED_PutChar+1
  3172  078D  35A0               	lslf	??_OLED_PutChar,f
  3173  078E  0DA1               	rlf	??_OLED_PutChar+1,f
  3174  078F  35A0               	lslf	??_OLED_PutChar,f
  3175  0790  0DA1               	rlf	??_OLED_PutChar+1,f
  3176  0791  35A0               	lslf	??_OLED_PutChar,f
  3177  0792  0DA1               	rlf	??_OLED_PutChar+1,f
  3178  0793  0820               	movf	??_OLED_PutChar,w
  3179  0794  3E00               	addlw	0
  3180  0795  00A2               	movwf	??_OLED_PutChar+2
  3181  0796  30FF               	movlw	255
  3182  0797  3D21               	addwfc	??_OLED_PutChar+1,w
  3183  0798  00A3               	movwf	??_OLED_PutChar+3
  3184  0799  3028               	movlw	low (_OledFont| (0+32768))
  3185  079A  00A4               	movwf	??_OLED_PutChar+4
  3186  079B  3088               	movlw	high (_OledFont| (0+32768))
  3187  079C  00A5               	movwf	??_OLED_PutChar+5
  3188  079D  0822               	movf	??_OLED_PutChar+2,w
  3189  079E  0724               	addwf	??_OLED_PutChar+4,w
  3190  079F  00AF               	movwf	OLED_PutChar@base
  3191  07A0  0823               	movf	??_OLED_PutChar+3,w
  3192  07A1  3D25               	addwfc	??_OLED_PutChar+5,w
  3193  07A2  00B0               	movwf	OLED_PutChar@base+1
  3194                           
  3195                           ;oled.c: 237: uint8_t bytes[9];
  3196                           ;oled.c: 238: bytes[0] = 0x40;
  3197  07A3  3040               	movlw	64
  3198  07A4  00A0               	movwf	??_OLED_PutChar
  3199  07A5  0820               	movf	??_OLED_PutChar,w
  3200  07A6  00A6               	movwf	OLED_PutChar@bytes
  3201                           
  3202                           ;oled.c: 239: memmove( bytes + 1, base, 8 );
  3203  07A7  0830               	movf	OLED_PutChar@base+1,w
  3204  07A8  00F1               	movwf	memmove@s1+1
  3205  07A9  082F               	movf	OLED_PutChar@base,w
  3206  07AA  00F0               	movwf	memmove@s1
  3207  07AB  3008               	movlw	8
  3208  07AC  00F2               	movwf	memmove@n
  3209  07AD  3000               	movlw	0
  3210  07AE  00F3               	movwf	memmove@n+1
  3211  07AF  3027               	movlw	(low ((OLED_PutChar@bytes| 0+1)))& (0+255)
  3212  07B0  3187  2717  3187   	fcall	_memmove
  3213                           
  3214                           ;oled.c: 241: Send_I2C_StartBit();
  3215  07B3  3185  259D  3187   	fcall	_Send_I2C_StartBit
  3216                           
  3217                           ;oled.c: 242: Send_I2C_Data(0x3C << 1);
  3218  07B6  3078               	movlw	120
  3219  07B7  00F0               	movwf	Send_I2C_Data@databyte
  3220  07B8  3000               	movlw	0
  3221  07B9  00F1               	movwf	Send_I2C_Data@databyte+1
  3222  07BA  3185  25AD  3187   	fcall	_Send_I2C_Data
  3223                           
  3224                           ;oled.c: 243: Send_I2C_Data(0x40);
  3225  07BD  3040               	movlw	64
  3226  07BE  00F0               	movwf	Send_I2C_Data@databyte
  3227  07BF  3000               	movlw	0
  3228  07C0  00F1               	movwf	Send_I2C_Data@databyte+1
  3229  07C1  3185  25AD  3187   	fcall	_Send_I2C_Data
  3230                           
  3231                           ;oled.c: 245: int i;
  3232                           ;oled.c: 247: for (i = 1; i <= 8; i++){
  3233  07C4  3001               	movlw	1
  3234  07C5  0020               	movlb	0	; select bank0
  3235  07C6  00B1               	movwf	OLED_PutChar@i
  3236  07C7  3000               	movlw	0
  3237  07C8  00B2               	movwf	OLED_PutChar@i+1
  3238  07C9  0832               	movf	OLED_PutChar@i+1,w
  3239  07CA  3A80               	xorlw	128
  3240  07CB  00A0               	movwf	??_OLED_PutChar
  3241  07CC  3080               	movlw	128
  3242  07CD  0220               	subwf	??_OLED_PutChar,w
  3243  07CE  1D03               	skipz
  3244  07CF  2FD2               	goto	u365
  3245  07D0  3009               	movlw	9
  3246  07D1  0231               	subwf	OLED_PutChar@i,w
  3247  07D2                     u365:	
  3248  07D2  1803               	btfsc	3,0
  3249  07D3  2FF3               	goto	l929
  3250  07D4                     l923:	
  3251                           
  3252                           ;oled.c: 248: Send_I2C_Data(bytes[i]);
  3253  07D4  0020               	movlb	0	; select bank0
  3254  07D5  0831               	movf	OLED_PutChar@i,w
  3255  07D6  3E26               	addlw	(low (OLED_PutChar@bytes| 0))& (0+255)
  3256  07D7  0086               	movwf	6
  3257  07D8  0187               	clrf	7
  3258  07D9  0801               	movf	1,w
  3259  07DA  00A0               	movwf	??_OLED_PutChar
  3260  07DB  01A1               	clrf	??_OLED_PutChar+1
  3261  07DC  0820               	movf	??_OLED_PutChar,w
  3262  07DD  00F0               	movwf	Send_I2C_Data@databyte
  3263  07DE  0821               	movf	??_OLED_PutChar+1,w
  3264  07DF  00F1               	movwf	Send_I2C_Data@databyte+1
  3265  07E0  3185  25AD  3187   	fcall	_Send_I2C_Data
  3266  07E3  3001               	movlw	1
  3267  07E4  0020               	movlb	0	; select bank0
  3268  07E5  07B1               	addwf	OLED_PutChar@i,f
  3269  07E6  3000               	movlw	0
  3270  07E7  3DB2               	addwfc	OLED_PutChar@i+1,f
  3271  07E8  0832               	movf	OLED_PutChar@i+1,w
  3272  07E9  3A80               	xorlw	128
  3273  07EA  00A0               	movwf	??_OLED_PutChar
  3274  07EB  3080               	movlw	128
  3275  07EC  0220               	subwf	??_OLED_PutChar,w
  3276  07ED  1D03               	skipz
  3277  07EE  2FF1               	goto	u375
  3278  07EF  3009               	movlw	9
  3279  07F0  0231               	subwf	OLED_PutChar@i,w
  3280  07F1                     u375:	
  3281  07F1  1C03               	skipc
  3282  07F2  2FD4               	goto	l923
  3283  07F3                     l929:	
  3284                           
  3285                           ;oled.c: 249: }
  3286                           ;oled.c: 251: Send_I2C_StopBit();
  3287  07F3  3185  25A5         	fcall	_Send_I2C_StopBit
  3288  07F5  0008               	return
  3289  07F6                     __end_of_OLED_PutChar:	
  3290                           
  3291                           	psect	text9
  3292  0717                     __ptext9:	
  3293 ;; *************** function _memmove *****************
  3294 ;; Defined at:
  3295 ;;		line 8 in file "C:\Program Files (x86)\Microchip\xc8\v1.41\sources\common\memmove.c"
  3296 ;; Parameters:    Size  Location     Type
  3297 ;;  d1              1    wreg     PTR void 
  3298 ;;		 -> OLED_PutChar@bytes(9), 
  3299 ;;  s1              2    0[COMMON] PTR const void 
  3300 ;;		 -> OledFont(768), 
  3301 ;;  n               2    2[COMMON] unsigned int 
  3302 ;; Auto vars:     Size  Location     Type
  3303 ;;  d1              1    8[COMMON] PTR void 
  3304 ;;		 -> OLED_PutChar@bytes(9), 
  3305 ;;  s               2    9[COMMON] PTR const unsigned char 
  3306 ;;		 -> OledFont(768), 
  3307 ;;  d               1   11[COMMON] PTR unsigned char 
  3308 ;;		 -> OLED_PutChar@bytes(9), 
  3309 ;; Return value:  Size  Location     Type
  3310 ;;                  1    wreg      PTR void 
  3311 ;; Registers used:
  3312 ;;		wreg, fsr0l, fsr0h, fsr1l, fsr1h, status,2, status,0, pclath
  3313 ;; Tracked objects:
  3314 ;;		On entry : 0/0
  3315 ;;		On exit  : 0/0
  3316 ;;		Unchanged: 0/0
  3317 ;; Data sizes:     COMMON   BANK0   BANK1   BANK2   BANK3   BANK4   BANK5   BANK6   BANK7   BANK8   BANK9  BANK10  BANK1
      +1  BANK12
  3318 ;;      Params:         4       0       0       0       0       0       0       0       0       0       0       0       
      +0       0
  3319 ;;      Locals:         4       0       0       0       0       0       0       0       0       0       0       0       
      +0       0
  3320 ;;      Temps:          4       0       0       0       0       0       0       0       0       0       0       0       
      +0       0
  3321 ;;      Totals:        12       0       0       0       0       0       0       0       0       0       0       0       
      +0       0
  3322 ;;Total ram usage:       12 bytes
  3323 ;; Hardware stack levels used:    1
  3324 ;; This function calls:
  3325 ;;		Nothing
  3326 ;; This function is called by:
  3327 ;;		_OLED_PutChar
  3328 ;; This function uses a non-reentrant model
  3329 ;;
  3330                           
  3331                           
  3332                           ;psect for function _memmove
  3333  0717                     _memmove:	
  3334                           
  3335                           ;incstack = 0
  3336                           ; Regs used in _memmove: [wreg-fsr1h+status,2+status,0+pclath]
  3337                           ;memmove@d1 stored from wreg
  3338  0717  00F8               	movwf	memmove@d1
  3339  0718  0871               	movf	memmove@s1+1,w
  3340  0719  00FA               	movwf	memmove@s+1
  3341  071A  0870               	movf	memmove@s1,w
  3342  071B  00F9               	movwf	memmove@s
  3343  071C  0878               	movf	memmove@d1,w
  3344  071D  00F4               	movwf	??_memmove
  3345  071E  0874               	movf	??_memmove,w
  3346  071F  00FB               	movwf	memmove@d
  3347  0720  087B               	movf	memmove@d,w
  3348  0721  00F4               	movwf	??_memmove
  3349  0722  3000               	movlw	0
  3350  0723  00F5               	movwf	??_memmove+1
  3351  0724  0875               	movf	??_memmove+1,w
  3352  0725  027A               	subwf	memmove@s+1,w
  3353  0726  1D03               	skipz
  3354  0727  2F2A               	goto	u275
  3355  0728  0874               	movf	??_memmove,w
  3356  0729  0279               	subwf	memmove@s,w
  3357  072A                     u275:	
  3358  072A  1803               	skipnc
  3359  072B  2F60               	goto	l887
  3360  072C  0872               	movf	memmove@n,w
  3361  072D  0779               	addwf	memmove@s,w
  3362  072E  00F4               	movwf	??_memmove
  3363  072F  0873               	movf	memmove@n+1,w
  3364  0730  3D7A               	addwfc	memmove@s+1,w
  3365  0731  00F5               	movwf	??_memmove+1
  3366  0732  087B               	movf	memmove@d,w
  3367  0733  00F6               	movwf	??_memmove+2
  3368  0734  3000               	movlw	0
  3369  0735  00F7               	movwf	??_memmove+3
  3370  0736  0875               	movf	??_memmove+1,w
  3371  0737  0277               	subwf	??_memmove+3,w
  3372  0738  1D03               	skipz
  3373  0739  2F3C               	goto	u285
  3374  073A  0874               	movf	??_memmove,w
  3375  073B  0276               	subwf	??_memmove+2,w
  3376  073C                     u285:	
  3377  073C  1803               	skipnc
  3378  073D  2F60               	goto	l887
  3379  073E  0872               	movf	memmove@n,w
  3380  073F  07F9               	addwf	memmove@s,f
  3381  0740  0873               	movf	memmove@n+1,w
  3382  0741  3DFA               	addwfc	memmove@s+1,f
  3383  0742  0872               	movf	memmove@n,w
  3384  0743  00F4               	movwf	??_memmove
  3385  0744  0874               	movf	??_memmove,w
  3386  0745  07FB               	addwf	memmove@d,f
  3387  0746                     l883:	
  3388  0746  3001               	movlw	1
  3389  0747  02F9               	subwf	memmove@s,f
  3390  0748  3000               	movlw	0
  3391  0749  3BFA               	subwfb	memmove@s+1,f
  3392  074A  0879               	movf	memmove@s,w
  3393  074B  0084               	movwf	4
  3394  074C  087A               	movf	memmove@s+1,w
  3395  074D  0085               	movwf	5
  3396  074E  0800               	movf	0,w	;code access
  3397  074F  00F4               	movwf	??_memmove
  3398  0750  3001               	movlw	1
  3399  0751  02FB               	subwf	memmove@d,f
  3400  0752  087B               	movf	memmove@d,w
  3401  0753  0086               	movwf	6
  3402  0754  0187               	clrf	7
  3403  0755  0874               	movf	??_memmove,w
  3404  0756  0081               	movwf	1
  3405  0757  3001               	movlw	1
  3406  0758  02F2               	subwf	memmove@n,f
  3407  0759  3000               	movlw	0
  3408  075A  3BF3               	subwfb	memmove@n+1,f
  3409  075B  0872               	movf	memmove@n,w
  3410  075C  0473               	iorwf	memmove@n+1,w
  3411  075D  1903               	btfsc	3,2
  3412  075E  0008               	return
  3413  075F  2F46               	goto	l883
  3414  0760                     l887:	
  3415  0760  0872               	movf	memmove@n,w
  3416  0761  0473               	iorwf	memmove@n+1,w
  3417  0762  1903               	btfsc	3,2
  3418  0763  0008               	return
  3419  0764  0879               	movf	memmove@s,w
  3420  0765  0084               	movwf	4
  3421  0766  087A               	movf	memmove@s+1,w
  3422  0767  0085               	movwf	5
  3423  0768  0800               	movf	0,w	;code access
  3424  0769  00F4               	movwf	??_memmove
  3425  076A  087B               	movf	memmove@d,w
  3426  076B  0086               	movwf	6
  3427  076C  0187               	clrf	7
  3428  076D  0874               	movf	??_memmove,w
  3429  076E  0081               	movwf	1
  3430  076F  3001               	movlw	1
  3431  0770  07F9               	addwf	memmove@s,f
  3432  0771  3000               	movlw	0
  3433  0772  3DFA               	addwfc	memmove@s+1,f
  3434  0773  3001               	movlw	1
  3435  0774  00F4               	movwf	??_memmove
  3436  0775  0874               	movf	??_memmove,w
  3437  0776  07FB               	addwf	memmove@d,f
  3438  0777  3001               	movlw	1
  3439  0778  02F2               	subwf	memmove@n,f
  3440  0779  3000               	movlw	0
  3441  077A  3BF3               	subwfb	memmove@n+1,f
  3442  077B  2F60               	goto	l887
  3443  077C                     __end_of_memmove:	
  3444                           ;	Return value of _memmove is never used
  3445                           
  3446                           
  3447                           	psect	text10
  3448  05A5                     __ptext10:	
  3449 ;; *************** function _Send_I2C_StopBit *****************
  3450 ;; Defined at:
  3451 ;;		line 106 in file "../25_Temperature_Indicator.X/I2C.c"
  3452 ;; Parameters:    Size  Location     Type
  3453 ;;		None
  3454 ;; Auto vars:     Size  Location     Type
  3455 ;;		None
  3456 ;; Return value:  Size  Location     Type
  3457 ;;                  1    wreg      void 
  3458 ;; Registers used:
  3459 ;;		None
  3460 ;; Tracked objects:
  3461 ;;		On entry : 0/0
  3462 ;;		On exit  : 0/0
  3463 ;;		Unchanged: 0/0
  3464 ;; Data sizes:     COMMON   BANK0   BANK1   BANK2   BANK3   BANK4   BANK5   BANK6   BANK7   BANK8   BANK9  BANK10  BANK1
      +1  BANK12
  3465 ;;      Params:         0       0       0       0       0       0       0       0       0       0       0       0       
      +0       0
  3466 ;;      Locals:         0       0       0       0       0       0       0       0       0       0       0       0       
      +0       0
  3467 ;;      Temps:          0       0       0       0       0       0       0       0       0       0       0       0       
      +0       0
  3468 ;;      Totals:         0       0       0       0       0       0       0       0       0       0       0       0       
      +0       0
  3469 ;;Total ram usage:        0 bytes
  3470 ;; Hardware stack levels used:    1
  3471 ;; This function calls:
  3472 ;;		Nothing
  3473 ;; This function is called by:
  3474 ;;		_OLED_Command
  3475 ;;		_OLED_PutChar
  3476 ;;		_OLED_Data
  3477 ;; This function uses a non-reentrant model
  3478 ;;
  3479                           
  3480                           
  3481                           ;psect for function _Send_I2C_StopBit
  3482  05A5                     _Send_I2C_StopBit:	
  3483                           
  3484                           ;I2C.c: 108: PIR1bits.SSP1IF=0;
  3485                           
  3486                           ;incstack = 0
  3487                           ; Regs used in _Send_I2C_StopBit: []
  3488  05A5  0020               	movlb	0	; select bank0
  3489  05A6  1191               	bcf	17,3	;volatile
  3490                           
  3491                           ;I2C.c: 109: SSPCON2bits.PEN=1;
  3492  05A7  0024               	movlb	4	; select bank4
  3493  05A8  1516               	bsf	22,2	;volatile
  3494  05A9                     l77:	
  3495                           ;I2C.c: 110: while(!PIR1bits.SSP1IF);
  3496                           
  3497  05A9  0020               	movlb	0	; select bank0
  3498  05AA  1991               	btfsc	17,3	;volatile
  3499  05AB  0008               	return
  3500  05AC  2DA9               	goto	l77
  3501  05AD                     __end_of_Send_I2C_StopBit:	
  3502                           
  3503                           	psect	text11
  3504  059D                     __ptext11:	
  3505 ;; *************** function _Send_I2C_StartBit *****************
  3506 ;; Defined at:
  3507 ;;		line 96 in file "../25_Temperature_Indicator.X/I2C.c"
  3508 ;; Parameters:    Size  Location     Type
  3509 ;;		None
  3510 ;; Auto vars:     Size  Location     Type
  3511 ;;		None
  3512 ;; Return value:  Size  Location     Type
  3513 ;;                  1    wreg      void 
  3514 ;; Registers used:
  3515 ;;		None
  3516 ;; Tracked objects:
  3517 ;;		On entry : 0/0
  3518 ;;		On exit  : 0/0
  3519 ;;		Unchanged: 0/0
  3520 ;; Data sizes:     COMMON   BANK0   BANK1   BANK2   BANK3   BANK4   BANK5   BANK6   BANK7   BANK8   BANK9  BANK10  BANK1
      +1  BANK12
  3521 ;;      Params:         0       0       0       0       0       0       0       0       0       0       0       0       
      +0       0
  3522 ;;      Locals:         0       0       0       0       0       0       0       0       0       0       0       0       
      +0       0
  3523 ;;      Temps:          0       0       0       0       0       0       0       0       0       0       0       0       
      +0       0
  3524 ;;      Totals:         0       0       0       0       0       0       0       0       0       0       0       0       
      +0       0
  3525 ;;Total ram usage:        0 bytes
  3526 ;; Hardware stack levels used:    1
  3527 ;; This function calls:
  3528 ;;		Nothing
  3529 ;; This function is called by:
  3530 ;;		_OLED_Command
  3531 ;;		_OLED_PutChar
  3532 ;;		_OLED_Data
  3533 ;; This function uses a non-reentrant model
  3534 ;;
  3535                           
  3536                           
  3537                           ;psect for function _Send_I2C_StartBit
  3538  059D                     _Send_I2C_StartBit:	
  3539                           
  3540                           ;I2C.c: 98: PIR1bits.SSP1IF=0;
  3541                           
  3542                           ;incstack = 0
  3543                           ; Regs used in _Send_I2C_StartBit: []
  3544  059D  0020               	movlb	0	; select bank0
  3545  059E  1191               	bcf	17,3	;volatile
  3546                           
  3547                           ;I2C.c: 99: SSPCON2bits.SEN=1;
  3548  059F  0024               	movlb	4	; select bank4
  3549  05A0  1416               	bsf	22,0	;volatile
  3550  05A1                     l71:	
  3551                           ;I2C.c: 100: while(!PIR1bits.SSP1IF);
  3552                           
  3553  05A1  0020               	movlb	0	; select bank0
  3554  05A2  1991               	btfsc	17,3	;volatile
  3555  05A3  0008               	return
  3556  05A4  2DA1               	goto	l71
  3557  05A5                     __end_of_Send_I2C_StartBit:	
  3558                           
  3559                           	psect	text12
  3560  05AD                     __ptext12:	
  3561 ;; *************** function _Send_I2C_Data *****************
  3562 ;; Defined at:
  3563 ;;		line 48 in file "../25_Temperature_Indicator.X/I2C.c"
  3564 ;; Parameters:    Size  Location     Type
  3565 ;;  databyte        2    0[COMMON] unsigned int 
  3566 ;; Auto vars:     Size  Location     Type
  3567 ;;		None
  3568 ;; Return value:  Size  Location     Type
  3569 ;;                  1    wreg      void 
  3570 ;; Registers used:
  3571 ;;		wreg
  3572 ;; Tracked objects:
  3573 ;;		On entry : 0/0
  3574 ;;		On exit  : 0/0
  3575 ;;		Unchanged: 0/0
  3576 ;; Data sizes:     COMMON   BANK0   BANK1   BANK2   BANK3   BANK4   BANK5   BANK6   BANK7   BANK8   BANK9  BANK10  BANK1
      +1  BANK12
  3577 ;;      Params:         2       0       0       0       0       0       0       0       0       0       0       0       
      +0       0
  3578 ;;      Locals:         0       0       0       0       0       0       0       0       0       0       0       0       
      +0       0
  3579 ;;      Temps:          0       0       0       0       0       0       0       0       0       0       0       0       
      +0       0
  3580 ;;      Totals:         2       0       0       0       0       0       0       0       0       0       0       0       
      +0       0
  3581 ;;Total ram usage:        2 bytes
  3582 ;; Hardware stack levels used:    1
  3583 ;; This function calls:
  3584 ;;		Nothing
  3585 ;; This function is called by:
  3586 ;;		_OLED_Command
  3587 ;;		_OLED_PutChar
  3588 ;;		_OLED_Data
  3589 ;; This function uses a non-reentrant model
  3590 ;;
  3591                           
  3592                           
  3593                           ;psect for function _Send_I2C_Data
  3594  05AD                     _Send_I2C_Data:	
  3595                           
  3596                           ;I2C.c: 50: PIR1bits.SSP1IF=0;
  3597                           
  3598                           ;incstack = 0
  3599                           ; Regs used in _Send_I2C_Data: [wreg]
  3600  05AD  0020               	movlb	0	; select bank0
  3601  05AE  1191               	bcf	17,3	;volatile
  3602                           
  3603                           ;I2C.c: 51: SSPBUF = databyte;
  3604  05AF  0870               	movf	Send_I2C_Data@databyte,w
  3605  05B0  0024               	movlb	4	; select bank4
  3606  05B1  0091               	movwf	17	;volatile
  3607  05B2                     l53:	
  3608                           ;I2C.c: 52: while(!PIR1bits.SSP1IF);
  3609                           
  3610  05B2  0020               	movlb	0	; select bank0
  3611  05B3  1991               	btfsc	17,3	;volatile
  3612  05B4  0008               	return
  3613  05B5  2DB2               	goto	l53
  3614  05B6                     __end_of_Send_I2C_Data:	
  3615                           
  3616                           	psect	text13
  3617  05BF                     __ptext13:	
  3618 ;; *************** function _I2C_Init *****************
  3619 ;; Defined at:
  3620 ;;		line 19 in file "../25_Temperature_Indicator.X/I2C.c"
  3621 ;; Parameters:    Size  Location     Type
  3622 ;;		None
  3623 ;; Auto vars:     Size  Location     Type
  3624 ;;		None
  3625 ;; Return value:  Size  Location     Type
  3626 ;;                  1    wreg      void 
  3627 ;; Registers used:
  3628 ;;		wreg, status,2, status,0
  3629 ;; Tracked objects:
  3630 ;;		On entry : 0/0
  3631 ;;		On exit  : 0/0
  3632 ;;		Unchanged: 0/0
  3633 ;; Data sizes:     COMMON   BANK0   BANK1   BANK2   BANK3   BANK4   BANK5   BANK6   BANK7   BANK8   BANK9  BANK10  BANK1
      +1  BANK12
  3634 ;;      Params:         0       0       0       0       0       0       0       0       0       0       0       0       
      +0       0
  3635 ;;      Locals:         0       0       0       0       0       0       0       0       0       0       0       0       
      +0       0
  3636 ;;      Temps:          1       0       0       0       0       0       0       0       0       0       0       0       
      +0       0
  3637 ;;      Totals:         1       0       0       0       0       0       0       0       0       0       0       0       
      +0       0
  3638 ;;Total ram usage:        1 bytes
  3639 ;; Hardware stack levels used:    1
  3640 ;; This function calls:
  3641 ;;		Nothing
  3642 ;; This function is called by:
  3643 ;;		_main
  3644 ;; This function uses a non-reentrant model
  3645 ;;
  3646                           
  3647                           
  3648                           ;psect for function _I2C_Init
  3649  05BF                     _I2C_Init:	
  3650                           
  3651                           ;I2C.c: 25: SSPCONbits.SSPM=0x08;
  3652                           
  3653                           ;incstack = 0
  3654                           ; Regs used in _I2C_Init: [wreg+status,2+status,0]
  3655  05BF  0024               	movlb	4	; select bank4
  3656  05C0  0815               	movf	21,w	;volatile
  3657  05C1  39F0               	andlw	-16
  3658  05C2  3808               	iorlw	8
  3659  05C3  0095               	movwf	21	;volatile
  3660                           
  3661                           ;I2C.c: 26: SSPCONbits.SSPEN=1;
  3662  05C4  1695               	bsf	21,5	;volatile
  3663                           
  3664                           ;I2C.c: 38: SSPADD = 39;
  3665  05C5  3027               	movlw	39
  3666  05C6  0092               	movwf	18	;volatile
  3667                           
  3668                           ;I2C.c: 42: _delay((unsigned long)((10)*(16000000/4000.0)));
  3669  05C7  3034               	movlw	52
  3670  05C8  00F0               	movwf	??_I2C_Init
  3671  05C9  30F2               	movlw	242
  3672  05CA                     u457:	
  3673  05CA  0B89               	decfsz	9,f
  3674  05CB  2DCA               	goto	u457
  3675  05CC  0BF0               	decfsz	??_I2C_Init,f
  3676  05CD  2DCA               	goto	u457
  3677  05CE  0008               	return
  3678  05CF                     __end_of_I2C_Init:	
  3679  007E                     btemp	set	126	;btemp
  3680  007E                     wtemp0	set	126


Data Sizes:
    Strings     23
    Constant    808
    Data        0
    BSS         17
    Persistent  0
    Stack       0

Auto Spaces:
    Space          Size  Autos    Used
    COMMON           14     14      14
    BANK0            80     26      43
    BANK1            80      0       0
    BANK2            80      0       0
    BANK3            80      0       0
    BANK4            80      0       0
    BANK5            80      0       0
    BANK6            80      0       0
    BANK7            80      0       0
    BANK8            80      0       0
    BANK9            80      0       0
    BANK10           80      0       0
    BANK11           80      0       0
    BANK12           48      0       0

Pointer List with Targets:

    memmove@d1	PTR void  size(1) Largest target is 9
		 -> OLED_PutChar@bytes(BANK0[9]), 

    memmove@d	PTR unsigned char  size(1) Largest target is 9
		 -> OLED_PutChar@bytes(BANK0[9]), 

    memmove@s1	PTR const void  size(2) Largest target is 768
		 -> OledFont(CODE[768]), 

    memmove@s	PTR const unsigned char  size(2) Largest target is 768
		 -> OledFont(CODE[768]), 

    sp__utoa	PTR unsigned char  size(1) Largest target is 20
		 -> OLED_Write_Integer@s(BANK0[20]), 

    sp__ftoa	PTR unsigned char  size(1) Largest target is 17
		 -> ftoa@buf(BANK0[17]), 

    sp__itoa	PTR unsigned char  size(1) Largest target is 20
		 -> OLED_Write_Integer@s(BANK0[20]), 

    OLED_Write_String@s	PTR unsigned char  size(2) Largest target is 20
		 -> ftoa@buf(BANK0[17]), STR_3(CODE[6]), STR_2(CODE[6]), OLED_Write_Integer@s(BANK0[20]), 
		 -> STR_1(CODE[6]), 

    sp__memmove	PTR void  size(1) Largest target is 9
		 -> OLED_PutChar@bytes(BANK0[9]), 

    OLED_PutChar@base	PTR const unsigned char  size(2) Largest target is 768
		 -> OledFont(CODE[768]), 


Critical Paths under _main in COMMON

    _main->_OLED_Write_String
    _OLED_Init->_OLED_Command
    _OLED_YX->_OLED_Command
    _OLED_Command->_Send_I2C_Data
    _OLED_PutChar->_memmove

Critical Paths under _main in BANK0

    _main->_OLED_Clear
    _OLED_Write_String->_OLED_PutChar
    _OLED_Clear->_OLED_PutChar

Critical Paths under _main in BANK1

    None.

Critical Paths under _main in BANK2

    None.

Critical Paths under _main in BANK3

    None.

Critical Paths under _main in BANK4

    None.

Critical Paths under _main in BANK5

    None.

Critical Paths under _main in BANK6

    None.

Critical Paths under _main in BANK7

    None.

Critical Paths under _main in BANK8

    None.

Critical Paths under _main in BANK9

    None.

Critical Paths under _main in BANK10

    None.

Critical Paths under _main in BANK11

    None.

Critical Paths under _main in BANK12

    None.

Call Graph Tables:

 ---------------------------------------------------------------------------------
 (Depth) Function   	        Calls       Base Space   Used Autos Params    Refs
 ---------------------------------------------------------------------------------
 (0) _main                                                 2     2      0    4761
                                             24 BANK0      2     2      0
                           _I2C_Init
                         _OLED_Clear
                          _OLED_Init
                  _OLED_Write_String
                            _OLED_YX
                           _initMain
 ---------------------------------------------------------------------------------
 (1) _initMain                                             0     0      0       0
                        _internal_16
 ---------------------------------------------------------------------------------
 (2) _internal_16                                          0     0      0       0
 ---------------------------------------------------------------------------------
 (1) _OLED_Write_String                                    3     1      2    1514
                                             12 COMMON     2     0      2
                                             20 BANK0      1     1      0
                       _OLED_PutChar
 ---------------------------------------------------------------------------------
 (1) _OLED_Init                                            0     0      0     521
                       _OLED_Command
 ---------------------------------------------------------------------------------
 (1) _OLED_Clear                                           5     5      0    2033
                                             12 COMMON     1     1      0
                                             20 BANK0      4     4      0
                       _OLED_PutChar
                            _OLED_YX
 ---------------------------------------------------------------------------------
 (1) _OLED_YX                                              5     4      1     693
                                              5 COMMON     5     4      1
                       _OLED_Command
 ---------------------------------------------------------------------------------
 (2) _OLED_Command                                         3     3      0     521
                                              2 COMMON     3     3      0
                      _Send_I2C_Data
                  _Send_I2C_StartBit
                   _Send_I2C_StopBit
 ---------------------------------------------------------------------------------
 (2) _OLED_PutChar                                        20    20      0    1204
                                              0 BANK0     20    20      0
                      _Send_I2C_Data
                  _Send_I2C_StartBit
                   _Send_I2C_StopBit
                            _memmove
 ---------------------------------------------------------------------------------
 (3) _memmove                                             12     8      4     497
                                              0 COMMON    12     8      4
 ---------------------------------------------------------------------------------
 (3) _Send_I2C_StopBit                                     0     0      0       0
 ---------------------------------------------------------------------------------
 (3) _Send_I2C_StartBit                                    0     0      0       0
 ---------------------------------------------------------------------------------
 (3) _Send_I2C_Data                                        2     0      2     499
                                              0 COMMON     2     0      2
 ---------------------------------------------------------------------------------
 (1) _I2C_Init                                             1     1      0       0
                                              0 COMMON     1     1      0
 ---------------------------------------------------------------------------------
 Estimated maximum stack depth 3
 ---------------------------------------------------------------------------------

 Call Graph Graphs:

 _main (ROOT)
   _I2C_Init
   _OLED_Clear
     _OLED_PutChar
       _Send_I2C_Data
       _Send_I2C_StartBit
       _Send_I2C_StopBit
       _memmove
     _OLED_YX
       _OLED_Command
         _Send_I2C_Data
         _Send_I2C_StartBit
         _Send_I2C_StopBit
   _OLED_Init
     _OLED_Command
       _Send_I2C_Data
       _Send_I2C_StartBit
       _Send_I2C_StopBit
   _OLED_Write_String
     _OLED_PutChar
       _Send_I2C_Data
       _Send_I2C_StartBit
       _Send_I2C_StopBit
       _memmove
   _OLED_YX
     _OLED_Command
       _Send_I2C_Data
       _Send_I2C_StartBit
       _Send_I2C_StopBit
   _initMain
     _internal_16

 Address spaces:
Name               Size   Autos  Total    Cost      Usage
BIGRAM             3F0      0       0       0        0.0%
NULL                 0      0       0       0        0.0%
CODE                 0      0       0       0        0.0%
BITCOMMON            E      0       0       1        0.0%
BITSFR0              0      0       0       1        0.0%
SFR0                 0      0       0       1        0.0%
COMMON               E      E       E       2      100.0%
BITSFR1              0      0       0       2        0.0%
SFR1                 0      0       0       2        0.0%
BITSFR2              0      0       0       3        0.0%
SFR2                 0      0       0       3        0.0%
STACK                0      0       0       3        0.0%
BITBANK0            50      0       0       4        0.0%
BITSFR3              0      0       0       4        0.0%
SFR3                 0      0       0       4        0.0%
BANK0               50     1A      2B       5       53.8%
BITSFR4              0      0       0       5        0.0%
SFR4                 0      0       0       5        0.0%
BITBANK1            50      0       0       6        0.0%
BITSFR5              0      0       0       6        0.0%
SFR5                 0      0       0       6        0.0%
BANK1               50      0       0       7        0.0%
BITSFR6              0      0       0       7        0.0%
SFR6                 0      0       0       7        0.0%
BITBANK2            50      0       0       8        0.0%
BITSFR7              0      0       0       8        0.0%
SFR7                 0      0       0       8        0.0%
BANK2               50      0       0       9        0.0%
BITSFR8              0      0       0       9        0.0%
SFR8                 0      0       0       9        0.0%
BITBANK3            50      0       0      10        0.0%
BITSFR9              0      0       0      10        0.0%
SFR9                 0      0       0      10        0.0%
BANK3               50      0       0      11        0.0%
BITSFR10             0      0       0      11        0.0%
SFR10                0      0       0      11        0.0%
BITBANK4            50      0       0      12        0.0%
BITSFR11             0      0       0      12        0.0%
SFR11                0      0       0      12        0.0%
BANK4               50      0       0      13        0.0%
BITSFR12             0      0       0      13        0.0%
SFR12                0      0       0      13        0.0%
BITBANK5            50      0       0      14        0.0%
BITSFR13             0      0       0      14        0.0%
SFR13                0      0       0      14        0.0%
BANK5               50      0       0      15        0.0%
BITSFR14             0      0       0      15        0.0%
SFR14                0      0       0      15        0.0%
BITBANK6            50      0       0      16        0.0%
BITSFR15             0      0       0      16        0.0%
SFR15                0      0       0      16        0.0%
BANK6               50      0       0      17        0.0%
BITSFR16             0      0       0      17        0.0%
SFR16                0      0       0      17        0.0%
BITBANK7            50      0       0      18        0.0%
BITSFR17             0      0       0      18        0.0%
SFR17                0      0       0      18        0.0%
BANK7               50      0       0      19        0.0%
BITSFR18             0      0       0      19        0.0%
SFR18                0      0       0      19        0.0%
BITSFR19             0      0       0      20        0.0%
SFR19                0      0       0      20        0.0%
ABS                  0      0      39      20        0.0%
BITBANK8            50      0       0      21        0.0%
BITSFR20             0      0       0      21        0.0%
SFR20                0      0       0      21        0.0%
BANK8               50      0       0      22        0.0%
BITSFR21             0      0       0      22        0.0%
SFR21                0      0       0      22        0.0%
BITBANK9            50      0       0      23        0.0%
BITSFR22             0      0       0      23        0.0%
SFR22                0      0       0      23        0.0%
BANK9               50      0       0      24        0.0%
BITSFR23             0      0       0      24        0.0%
SFR23                0      0       0      24        0.0%
BITBANK10           50      0       0      25        0.0%
BITSFR24             0      0       0      25        0.0%
SFR24                0      0       0      25        0.0%
BANK10              50      0       0      26        0.0%
BITSFR25             0      0       0      26        0.0%
SFR25                0      0       0      26        0.0%
BITBANK11           50      0       0      27        0.0%
BITSFR26             0      0       0      27        0.0%
SFR26                0      0       0      27        0.0%
BANK11              50      0       0      28        0.0%
BITSFR27             0      0       0      28        0.0%
SFR27                0      0       0      28        0.0%
BITBANK12           30      0       0      29        0.0%
BITSFR28             0      0       0      29        0.0%
SFR28                0      0       0      29        0.0%
BANK12              30      0       0      30        0.0%
BITSFR29             0      0       0      30        0.0%
SFR29                0      0       0      30        0.0%
BITSFR30             0      0       0      31        0.0%
SFR30                0      0       0      31        0.0%
DATA                 0      0      39      31        0.0%
BITSFR31             0      0       0      32        0.0%
SFR31                0      0       0      32        0.0%


Microchip Technology PIC Macro Assembler V1.41 build -162212810 
Symbol Table                                                                                   Wed Mar 22 11:43:22 2017

               __CFG_CP$OFF 0000                          l53 05B2                          l71 05A1  
                        l77 05A9          OLED_Write_String@s 007C                         l903 0786  
                       l905 078A                         l923 07D4                         l929 07F3  
                       l953 067C                         l945 0664                         l961 05CF  
                       l883 0746                         l971 0699                         l887 0760  
                       u325 060A                         u335 061E                         u275 072A  
                       u285 073C                         u365 07D2                         u437 068D  
                       u375 07F1                         u447 06AB                         u457 05CA  
              __CFG_BORV$LO 0000                         wreg 0009                __CFG_IESO$ON 0000  
          OLED_Command@temp 0074                __CFG_LVP$OFF 0000                        STR_1 0B39  
                      STR_2 0B33                        STR_4 0B28             __end_of_OLED_YX 0629  
               ?_OLED_Clear 0070                        _SCS0 04C8                        _SCS1 04C9  
              __CFG_WRT$OFF 0000                        _main 0681            __end_of_I2C_Init 05CF  
                      fsr0h 0005                        fsr1h 0007                        indf0 0000  
                      fsr0l 0004                        indf1 0001                        fsr1l 0006  
                      btemp 007E                        start 0002          __size_of_OLED_Init 0064  
                     ?_main 0070               __CFG_WDTE$OFF 0000                       _IRCF0 04CB  
                     _IRCF1 04CC                       _IRCF2 04CD                       _IRCF3 04CE  
            __CFG_FCMEN$OFF 0000             __end_of_dpowers 0828             __end_of_memmove 077C  
            __CFG_BOREN$OFF 0000                       status 0003                       wtemp0 007E  
__size_of_Send_I2C_StartBit 0008                ?_internal_16 0070              __CFG_MCLRE$OFF 0000  
           __initialization 07F6                __end_of_main 06B3              __CFG_LPBOR$OFF 0000  
          __end_of_OledFont 0B28         __size_of_OLED_Clear 0030                      ??_main 0038  
            __CFG_PLLEN$OFF 0000                   ??_OLED_YX 0076              __CFG_ZCDDIS$ON 0000  
         __end_of_OLED_Init 0717               ?_OLED_Command 0070                      _SPLLEN 04CF  
                    _SSPADD 0212                      _SSPBUF 0211              __CFG_PWRTE$OFF 0000  
             ?_OLED_PutChar 0070      __size_of_Send_I2C_Data 0009              __CFG_STVREN$ON 0000  
          __end_of_initMain 0651                   ?_I2C_Init 0070                   ??_memmove 0074  
     Send_I2C_Data@databyte 0070              ??_OLED_Command 0072     __end_of__initialization 07FD  
            ??_OLED_PutChar 0020   __size_of_Send_I2C_StopBit 0008              __pcstackCOMMON 0070  
                ??_I2C_Init 0070               _Send_I2C_Data 05AD                ??_OLED_Clear 007C  
                __pbssBANK0 003A                  __pmaintext 0681        __size_of_internal_16 0009  
           __CFG_PPS1WAY$ON 0000          __end_of_OLED_Clear 0681                     _OLED_YX 0601  
            ?_Send_I2C_Data 0070                     _PPSLOCK 0E0F                   ?_initMain 0070  
      __end_of_OLED_Command 0601                     __ptext1 0629                     __ptext2 05B6  
                   __ptext3 05CF                     __ptext4 06B3                     __ptext5 0651  
                   __ptext6 0601                     __ptext7 05E3                     __ptext8 077C  
                   __ptext9 0717                     _dpowers 0800                     _memmove 0717  
      __end_of_OLED_PutChar 07F6                     clrloop0 0598        end_of_initialization 07FD  
                   ftoa@buf 003A                  ??_initMain 0070                   _OLED_Init 06B3  
          OLED_PutChar@base 002F            _Send_I2C_StopBit 05A5                __pstringtext 0800  
           ??_Send_I2C_Data 0072            __CFG_FOSC$INTOSC 0000                   _TRISCbits 008E  
         __size_of_I2C_Init 0010                  ?_OLED_Init 0070         start_initialization 07F6  
         _OLED_Write_String 05CF          ?_OLED_Write_String 007C       __size_of_OLED_Command 001E  
                OLED_YX@Row 0079       __size_of_OLED_PutChar 007A         ??_OLED_Write_String 0034  
                 ___latbits 0002                    ?_OLED_YX 0075               __pcstackBANK0 0020  
              _OLED_Command 05E3   __end_of_OLED_Write_String 05E3               ??_internal_16 0070  
               ??_OLED_Init 0075           __size_of_initMain 0028                _OLED_PutChar 077C  
                  _I2C_Init 05BF                    ?_memmove 0070    __end_of_Send_I2C_StopBit 05AD  
                 clear_ram0 0597                    _PIR1bits 0011         __end_of_internal_16 05BF  
          __size_of_OLED_YX 0028  __size_of_OLED_Write_String 0014                    _OledFont 0828  
                 memmove@d1 0078                   memmove@s1 0070                  _ANSELCbits 018E  
          __size_of_memmove 0065       __end_of_Send_I2C_Data 05B6                    __ptext10 05A5  
                  __ptext11 059D                    __ptext12 05AD                    __ptext13 05BF  
                  _initMain 0629               __size_of_main 0032               _SSPDATPPSbits 0E21  
             OLED_Clear@col 0036                 _internal_16 05B6               OLED_Clear@row 0034  
             OLED_YX@Column 0075              OLED_PutChar@ch 0033                  _RC4PPSbits 0EA4  
             _SSPCLKPPSbits 0E20                  _RC5PPSbits 0EA5                    memmove@d 007B  
                  memmove@n 0072                    memmove@s 0079                  _OLED_Clear 0651  
         __CFG_CLKOUTEN$OFF 0000                 _PPSLOCKbits 0E0F           _Send_I2C_StartBit 059D  
         OLED_PutChar@bytes 0026               OLED_PutChar@i 0031          ?_Send_I2C_StartBit 0070  
       ??_Send_I2C_StartBit 0070                 _SSPCON2bits 0216           ?_Send_I2C_StopBit 0070  
        ??_Send_I2C_StopBit 0070   __end_of_Send_I2C_StartBit 05A5                  _SSPCONbits 0215  
