

Microchip Technology PIC LITE Macro Assembler V1.41 build -162212810 
                                                                                               Mon May 15 14:00:26 2017

Microchip Technology Omniscient Code Generator v1.41 (Free mode) build 201701250102
     1                           	processor	16F1717
     2                           	opt	pw 120
     3                           	opt	lm
     4                           	psect	stringtext,global,class=STRCODE,delta=2
     5                           	psect	cinit,global,class=CODE,merge=1,delta=2
     6                           	psect	bssBANK0,global,class=BANK0,space=1,delta=1
     7                           	psect	clrtext,global,class=CODE,delta=2
     8                           	psect	cstackCOMMON,global,class=COMMON,space=1,delta=1
     9                           	psect	cstackBANK0,global,class=BANK0,space=1,delta=1
    10                           	psect	maintext,global,class=CODE,merge=1,split=1,delta=2
    11                           	psect	text1,local,class=CODE,merge=1,delta=2,group=1
    12                           	psect	text2,local,class=CODE,merge=1,delta=2,group=1
    13                           	psect	text3,local,class=CODE,merge=1,delta=2,group=1
    14                           	psect	text4,local,class=CODE,merge=1,delta=2,group=1
    15                           	psect	text5,local,class=CODE,merge=1,delta=2
    16                           	psect	text6,local,class=CODE,merge=1,delta=2
    17                           	psect	text7,local,class=CODE,merge=1,delta=2
    18                           	psect	text8,local,class=CODE,merge=1,delta=2
    19                           	psect	text9,local,class=CODE,merge=1,delta=2
    20                           	psect	text10,local,class=CODE,merge=1,delta=2
    21                           	psect	text11,local,class=CODE,merge=1,delta=2
    22                           	psect	text12,local,class=CODE,merge=1,delta=2,group=1
    23                           	dabs	1,0x7E,2
    24  0000                     
    25                           ; Version 1.41
    26                           ; Generated 25/01/2017 GMT
    27                           ; 
    28                           ; Copyright © 2017, Microchip Technology Inc. and its subsidiaries ("Microchip")
    29                           ; All rights reserved.
    30                           ; 
    31                           ; This software is developed by Microchip Technology Inc. and its subsidiaries ("Microch
      +                          ip").
    32                           ; 
    33                           ; Redistribution and use in source and binary forms, with or without modification, are
    34                           ; permitted provided that the following conditions are met:
    35                           ; 
    36                           ;     1. Redistributions of source code must retain the above copyright notice, this lis
      +                          t of
    37                           ;        conditions and the following disclaimer.
    38                           ; 
    39                           ;     2. Redistributions in binary form must reproduce the above copyright notice, this 
      +                          list
    40                           ;        of conditions and the following disclaimer in the documentation and/or other
    41                           ;        materials provided with the distribution.
    42                           ; 
    43                           ;     3. Microchip's name may not be used to endorse or promote products derived from th
      +                          is
    44                           ;        software without specific prior written permission.
    45                           ; 
    46                           ; THIS SOFTWARE IS PROVIDED BY MICROCHIP "AS IS" AND ANY EXPRESS OR IMPLIED WARRANTIES,
    47                           ; INCLUDING, BUT NOT LIMITED TO, THE IMPLIED WARRANTIES OF MERCHANTABILITY AND FITNESS F
      +                          OR
    48                           ; PURPOSE ARE DISCLAIMED.  IN NO EVENT SHALL MICROCHIP BE LIABLE FOR ANY DIRECT, INDIREC
      +                          T,
    49                           ; INCIDENTAL, SPECIAL, EXEMPLARY, OR CONSEQUENTIAL DAMAGES (INCLUDING BUT NOT LIMITED TO
    50                           ; PROCUREMENT OF SUBSTITUTE GOODS OR SERVICES; LOSS OF USE, DATA OR PROFITS; OR BUSINESS
    51                           ; INTERRUPTION) HOWSOEVER CAUSED AND ON ANY THEORY OF LIABILITY, WHETHER IN CONTRACT, ST
      +                          RICT
    52                           ; LIABILITY, OR TORT (INCLUDING NEGLIGENCE OR OTHERWISE) ARISING IN ANY WAY OUT OF THE U
      +                          SE OF
    53                           ; THIS SOFTWARE, EVEN IF ADVISED OF THE POSSIBILITY OF SUCH DAMAGE.
    54                           ; 
    55                           ; 
    56                           ; Code-generator required, PIC16F1717 Definitions
    57                           ; 
    58                           ; SFR Addresses
    59  0000                     	;# 
    60  0001                     	;# 
    61  0002                     	;# 
    62  0003                     	;# 
    63  0004                     	;# 
    64  0005                     	;# 
    65  0006                     	;# 
    66  0007                     	;# 
    67  0008                     	;# 
    68  0009                     	;# 
    69  000A                     	;# 
    70  000B                     	;# 
    71  000C                     	;# 
    72  000D                     	;# 
    73  000E                     	;# 
    74  000F                     	;# 
    75  0010                     	;# 
    76  0011                     	;# 
    77  0012                     	;# 
    78  0013                     	;# 
    79  0015                     	;# 
    80  0016                     	;# 
    81  0016                     	;# 
    82  0017                     	;# 
    83  0018                     	;# 
    84  0019                     	;# 
    85  001A                     	;# 
    86  001B                     	;# 
    87  001C                     	;# 
    88  008C                     	;# 
    89  008D                     	;# 
    90  008E                     	;# 
    91  008F                     	;# 
    92  0090                     	;# 
    93  0091                     	;# 
    94  0092                     	;# 
    95  0093                     	;# 
    96  0095                     	;# 
    97  0096                     	;# 
    98  0097                     	;# 
    99  0098                     	;# 
   100  0099                     	;# 
   101  009A                     	;# 
   102  009B                     	;# 
   103  009B                     	;# 
   104  009C                     	;# 
   105  009D                     	;# 
   106  009E                     	;# 
   107  009F                     	;# 
   108  010C                     	;# 
   109  010D                     	;# 
   110  010E                     	;# 
   111  010F                     	;# 
   112  0110                     	;# 
   113  0111                     	;# 
   114  0112                     	;# 
   115  0113                     	;# 
   116  0114                     	;# 
   117  0115                     	;# 
   118  0116                     	;# 
   119  0117                     	;# 
   120  0118                     	;# 
   121  0119                     	;# 
   122  011A                     	;# 
   123  011B                     	;# 
   124  011B                     	;# 
   125  011C                     	;# 
   126  018C                     	;# 
   127  018D                     	;# 
   128  018E                     	;# 
   129  018F                     	;# 
   130  0190                     	;# 
   131  0191                     	;# 
   132  0191                     	;# 
   133  0192                     	;# 
   134  0193                     	;# 
   135  0193                     	;# 
   136  0194                     	;# 
   137  0195                     	;# 
   138  0196                     	;# 
   139  0197                     	;# 
   140  0199                     	;# 
   141  0199                     	;# 
   142  0199                     	;# 
   143  019A                     	;# 
   144  019A                     	;# 
   145  019A                     	;# 
   146  019B                     	;# 
   147  019B                     	;# 
   148  019B                     	;# 
   149  019B                     	;# 
   150  019B                     	;# 
   151  019C                     	;# 
   152  019C                     	;# 
   153  019C                     	;# 
   154  019D                     	;# 
   155  019D                     	;# 
   156  019D                     	;# 
   157  019E                     	;# 
   158  019E                     	;# 
   159  019E                     	;# 
   160  019F                     	;# 
   161  019F                     	;# 
   162  019F                     	;# 
   163  019F                     	;# 
   164  019F                     	;# 
   165  020C                     	;# 
   166  020D                     	;# 
   167  020E                     	;# 
   168  020F                     	;# 
   169  0210                     	;# 
   170  0211                     	;# 
   171  0211                     	;# 
   172  0212                     	;# 
   173  0212                     	;# 
   174  0213                     	;# 
   175  0213                     	;# 
   176  0214                     	;# 
   177  0214                     	;# 
   178  0215                     	;# 
   179  0215                     	;# 
   180  0215                     	;# 
   181  0215                     	;# 
   182  0216                     	;# 
   183  0216                     	;# 
   184  0217                     	;# 
   185  0217                     	;# 
   186  028C                     	;# 
   187  028D                     	;# 
   188  028E                     	;# 
   189  028F                     	;# 
   190  0290                     	;# 
   191  0291                     	;# 
   192  0291                     	;# 
   193  0292                     	;# 
   194  0293                     	;# 
   195  0293                     	;# 
   196  0298                     	;# 
   197  0298                     	;# 
   198  0299                     	;# 
   199  029A                     	;# 
   200  029A                     	;# 
   201  029E                     	;# 
   202  030C                     	;# 
   203  030D                     	;# 
   204  030E                     	;# 
   205  030F                     	;# 
   206  0310                     	;# 
   207  038C                     	;# 
   208  038D                     	;# 
   209  038E                     	;# 
   210  038F                     	;# 
   211  0390                     	;# 
   212  0391                     	;# 
   213  0392                     	;# 
   214  0393                     	;# 
   215  0394                     	;# 
   216  0395                     	;# 
   217  0396                     	;# 
   218  0397                     	;# 
   219  0398                     	;# 
   220  0399                     	;# 
   221  039D                     	;# 
   222  039E                     	;# 
   223  039F                     	;# 
   224  0415                     	;# 
   225  0416                     	;# 
   226  0417                     	;# 
   227  041C                     	;# 
   228  041D                     	;# 
   229  041E                     	;# 
   230  0498                     	;# 
   231  0498                     	;# 
   232  0499                     	;# 
   233  049A                     	;# 
   234  049B                     	;# 
   235  049B                     	;# 
   236  049C                     	;# 
   237  049D                     	;# 
   238  049E                     	;# 
   239  049F                     	;# 
   240  0511                     	;# 
   241  0515                     	;# 
   242  0617                     	;# 
   243  0618                     	;# 
   244  0619                     	;# 
   245  0619                     	;# 
   246  061A                     	;# 
   247  061B                     	;# 
   248  061C                     	;# 
   249  061C                     	;# 
   250  0691                     	;# 
   251  0692                     	;# 
   252  0693                     	;# 
   253  0694                     	;# 
   254  0695                     	;# 
   255  0696                     	;# 
   256  0697                     	;# 
   257  0698                     	;# 
   258  0699                     	;# 
   259  069A                     	;# 
   260  069B                     	;# 
   261  069C                     	;# 
   262  069D                     	;# 
   263  069E                     	;# 
   264  069F                     	;# 
   265  0E0F                     	;# 
   266  0E10                     	;# 
   267  0E11                     	;# 
   268  0E12                     	;# 
   269  0E13                     	;# 
   270  0E14                     	;# 
   271  0E15                     	;# 
   272  0E17                     	;# 
   273  0E20                     	;# 
   274  0E21                     	;# 
   275  0E22                     	;# 
   276  0E24                     	;# 
   277  0E25                     	;# 
   278  0E28                     	;# 
   279  0E29                     	;# 
   280  0E2A                     	;# 
   281  0E2B                     	;# 
   282  0E90                     	;# 
   283  0E91                     	;# 
   284  0E92                     	;# 
   285  0E93                     	;# 
   286  0E94                     	;# 
   287  0E95                     	;# 
   288  0E96                     	;# 
   289  0E97                     	;# 
   290  0E98                     	;# 
   291  0E99                     	;# 
   292  0E9A                     	;# 
   293  0E9B                     	;# 
   294  0E9C                     	;# 
   295  0E9D                     	;# 
   296  0E9E                     	;# 
   297  0E9F                     	;# 
   298  0EA0                     	;# 
   299  0EA1                     	;# 
   300  0EA2                     	;# 
   301  0EA3                     	;# 
   302  0EA4                     	;# 
   303  0EA5                     	;# 
   304  0EA6                     	;# 
   305  0EA7                     	;# 
   306  0EA8                     	;# 
   307  0EA9                     	;# 
   308  0EAA                     	;# 
   309  0EAB                     	;# 
   310  0EAC                     	;# 
   311  0EAD                     	;# 
   312  0EAE                     	;# 
   313  0EAF                     	;# 
   314  0EB0                     	;# 
   315  0EB1                     	;# 
   316  0EB2                     	;# 
   317  0F0F                     	;# 
   318  0F10                     	;# 
   319  0F11                     	;# 
   320  0F12                     	;# 
   321  0F13                     	;# 
   322  0F14                     	;# 
   323  0F15                     	;# 
   324  0F16                     	;# 
   325  0F17                     	;# 
   326  0F18                     	;# 
   327  0F19                     	;# 
   328  0F1A                     	;# 
   329  0F1B                     	;# 
   330  0F1C                     	;# 
   331  0F1D                     	;# 
   332  0F1E                     	;# 
   333  0F1F                     	;# 
   334  0F20                     	;# 
   335  0F21                     	;# 
   336  0F22                     	;# 
   337  0F23                     	;# 
   338  0F24                     	;# 
   339  0F25                     	;# 
   340  0F26                     	;# 
   341  0F27                     	;# 
   342  0F28                     	;# 
   343  0F29                     	;# 
   344  0F2A                     	;# 
   345  0F2B                     	;# 
   346  0F2C                     	;# 
   347  0F2D                     	;# 
   348  0F2E                     	;# 
   349  0F2F                     	;# 
   350  0F30                     	;# 
   351  0F31                     	;# 
   352  0F32                     	;# 
   353  0F33                     	;# 
   354  0F34                     	;# 
   355  0F35                     	;# 
   356  0F36                     	;# 
   357  0F37                     	;# 
   358  0FE4                     	;# 
   359  0FE5                     	;# 
   360  0FE6                     	;# 
   361  0FE7                     	;# 
   362  0FE8                     	;# 
   363  0FE9                     	;# 
   364  0FEA                     	;# 
   365  0FEB                     	;# 
   366  0FED                     	;# 
   367  0FEE                     	;# 
   368  0FEF                     	;# 
   369  0000                     	;# 
   370  0001                     	;# 
   371  0002                     	;# 
   372  0003                     	;# 
   373  0004                     	;# 
   374  0005                     	;# 
   375  0006                     	;# 
   376  0007                     	;# 
   377  0008                     	;# 
   378  0009                     	;# 
   379  000A                     	;# 
   380  000B                     	;# 
   381  000C                     	;# 
   382  000D                     	;# 
   383  000E                     	;# 
   384  000F                     	;# 
   385  0010                     	;# 
   386  0011                     	;# 
   387  0012                     	;# 
   388  0013                     	;# 
   389  0015                     	;# 
   390  0016                     	;# 
   391  0016                     	;# 
   392  0017                     	;# 
   393  0018                     	;# 
   394  0019                     	;# 
   395  001A                     	;# 
   396  001B                     	;# 
   397  001C                     	;# 
   398  008C                     	;# 
   399  008D                     	;# 
   400  008E                     	;# 
   401  008F                     	;# 
   402  0090                     	;# 
   403  0091                     	;# 
   404  0092                     	;# 
   405  0093                     	;# 
   406  0095                     	;# 
   407  0096                     	;# 
   408  0097                     	;# 
   409  0098                     	;# 
   410  0099                     	;# 
   411  009A                     	;# 
   412  009B                     	;# 
   413  009B                     	;# 
   414  009C                     	;# 
   415  009D                     	;# 
   416  009E                     	;# 
   417  009F                     	;# 
   418  010C                     	;# 
   419  010D                     	;# 
   420  010E                     	;# 
   421  010F                     	;# 
   422  0110                     	;# 
   423  0111                     	;# 
   424  0112                     	;# 
   425  0113                     	;# 
   426  0114                     	;# 
   427  0115                     	;# 
   428  0116                     	;# 
   429  0117                     	;# 
   430  0118                     	;# 
   431  0119                     	;# 
   432  011A                     	;# 
   433  011B                     	;# 
   434  011B                     	;# 
   435  011C                     	;# 
   436  018C                     	;# 
   437  018D                     	;# 
   438  018E                     	;# 
   439  018F                     	;# 
   440  0190                     	;# 
   441  0191                     	;# 
   442  0191                     	;# 
   443  0192                     	;# 
   444  0193                     	;# 
   445  0193                     	;# 
   446  0194                     	;# 
   447  0195                     	;# 
   448  0196                     	;# 
   449  0197                     	;# 
   450  0199                     	;# 
   451  0199                     	;# 
   452  0199                     	;# 
   453  019A                     	;# 
   454  019A                     	;# 
   455  019A                     	;# 
   456  019B                     	;# 
   457  019B                     	;# 
   458  019B                     	;# 
   459  019B                     	;# 
   460  019B                     	;# 
   461  019C                     	;# 
   462  019C                     	;# 
   463  019C                     	;# 
   464  019D                     	;# 
   465  019D                     	;# 
   466  019D                     	;# 
   467  019E                     	;# 
   468  019E                     	;# 
   469  019E                     	;# 
   470  019F                     	;# 
   471  019F                     	;# 
   472  019F                     	;# 
   473  019F                     	;# 
   474  019F                     	;# 
   475  020C                     	;# 
   476  020D                     	;# 
   477  020E                     	;# 
   478  020F                     	;# 
   479  0210                     	;# 
   480  0211                     	;# 
   481  0211                     	;# 
   482  0212                     	;# 
   483  0212                     	;# 
   484  0213                     	;# 
   485  0213                     	;# 
   486  0214                     	;# 
   487  0214                     	;# 
   488  0215                     	;# 
   489  0215                     	;# 
   490  0215                     	;# 
   491  0215                     	;# 
   492  0216                     	;# 
   493  0216                     	;# 
   494  0217                     	;# 
   495  0217                     	;# 
   496  028C                     	;# 
   497  028D                     	;# 
   498  028E                     	;# 
   499  028F                     	;# 
   500  0290                     	;# 
   501  0291                     	;# 
   502  0291                     	;# 
   503  0292                     	;# 
   504  0293                     	;# 
   505  0293                     	;# 
   506  0298                     	;# 
   507  0298                     	;# 
   508  0299                     	;# 
   509  029A                     	;# 
   510  029A                     	;# 
   511  029E                     	;# 
   512  030C                     	;# 
   513  030D                     	;# 
   514  030E                     	;# 
   515  030F                     	;# 
   516  0310                     	;# 
   517  038C                     	;# 
   518  038D                     	;# 
   519  038E                     	;# 
   520  038F                     	;# 
   521  0390                     	;# 
   522  0391                     	;# 
   523  0392                     	;# 
   524  0393                     	;# 
   525  0394                     	;# 
   526  0395                     	;# 
   527  0396                     	;# 
   528  0397                     	;# 
   529  0398                     	;# 
   530  0399                     	;# 
   531  039D                     	;# 
   532  039E                     	;# 
   533  039F                     	;# 
   534  0415                     	;# 
   535  0416                     	;# 
   536  0417                     	;# 
   537  041C                     	;# 
   538  041D                     	;# 
   539  041E                     	;# 
   540  0498                     	;# 
   541  0498                     	;# 
   542  0499                     	;# 
   543  049A                     	;# 
   544  049B                     	;# 
   545  049B                     	;# 
   546  049C                     	;# 
   547  049D                     	;# 
   548  049E                     	;# 
   549  049F                     	;# 
   550  0511                     	;# 
   551  0515                     	;# 
   552  0617                     	;# 
   553  0618                     	;# 
   554  0619                     	;# 
   555  0619                     	;# 
   556  061A                     	;# 
   557  061B                     	;# 
   558  061C                     	;# 
   559  061C                     	;# 
   560  0691                     	;# 
   561  0692                     	;# 
   562  0693                     	;# 
   563  0694                     	;# 
   564  0695                     	;# 
   565  0696                     	;# 
   566  0697                     	;# 
   567  0698                     	;# 
   568  0699                     	;# 
   569  069A                     	;# 
   570  069B                     	;# 
   571  069C                     	;# 
   572  069D                     	;# 
   573  069E                     	;# 
   574  069F                     	;# 
   575  0E0F                     	;# 
   576  0E10                     	;# 
   577  0E11                     	;# 
   578  0E12                     	;# 
   579  0E13                     	;# 
   580  0E14                     	;# 
   581  0E15                     	;# 
   582  0E17                     	;# 
   583  0E20                     	;# 
   584  0E21                     	;# 
   585  0E22                     	;# 
   586  0E24                     	;# 
   587  0E25                     	;# 
   588  0E28                     	;# 
   589  0E29                     	;# 
   590  0E2A                     	;# 
   591  0E2B                     	;# 
   592  0E90                     	;# 
   593  0E91                     	;# 
   594  0E92                     	;# 
   595  0E93                     	;# 
   596  0E94                     	;# 
   597  0E95                     	;# 
   598  0E96                     	;# 
   599  0E97                     	;# 
   600  0E98                     	;# 
   601  0E99                     	;# 
   602  0E9A                     	;# 
   603  0E9B                     	;# 
   604  0E9C                     	;# 
   605  0E9D                     	;# 
   606  0E9E                     	;# 
   607  0E9F                     	;# 
   608  0EA0                     	;# 
   609  0EA1                     	;# 
   610  0EA2                     	;# 
   611  0EA3                     	;# 
   612  0EA4                     	;# 
   613  0EA5                     	;# 
   614  0EA6                     	;# 
   615  0EA7                     	;# 
   616  0EA8                     	;# 
   617  0EA9                     	;# 
   618  0EAA                     	;# 
   619  0EAB                     	;# 
   620  0EAC                     	;# 
   621  0EAD                     	;# 
   622  0EAE                     	;# 
   623  0EAF                     	;# 
   624  0EB0                     	;# 
   625  0EB1                     	;# 
   626  0EB2                     	;# 
   627  0F0F                     	;# 
   628  0F10                     	;# 
   629  0F11                     	;# 
   630  0F12                     	;# 
   631  0F13                     	;# 
   632  0F14                     	;# 
   633  0F15                     	;# 
   634  0F16                     	;# 
   635  0F17                     	;# 
   636  0F18                     	;# 
   637  0F19                     	;# 
   638  0F1A                     	;# 
   639  0F1B                     	;# 
   640  0F1C                     	;# 
   641  0F1D                     	;# 
   642  0F1E                     	;# 
   643  0F1F                     	;# 
   644  0F20                     	;# 
   645  0F21                     	;# 
   646  0F22                     	;# 
   647  0F23                     	;# 
   648  0F24                     	;# 
   649  0F25                     	;# 
   650  0F26                     	;# 
   651  0F27                     	;# 
   652  0F28                     	;# 
   653  0F29                     	;# 
   654  0F2A                     	;# 
   655  0F2B                     	;# 
   656  0F2C                     	;# 
   657  0F2D                     	;# 
   658  0F2E                     	;# 
   659  0F2F                     	;# 
   660  0F30                     	;# 
   661  0F31                     	;# 
   662  0F32                     	;# 
   663  0F33                     	;# 
   664  0F34                     	;# 
   665  0F35                     	;# 
   666  0F36                     	;# 
   667  0F37                     	;# 
   668  0FE4                     	;# 
   669  0FE5                     	;# 
   670  0FE6                     	;# 
   671  0FE7                     	;# 
   672  0FE8                     	;# 
   673  0FE9                     	;# 
   674  0FEA                     	;# 
   675  0FEB                     	;# 
   676  0FED                     	;# 
   677  0FEE                     	;# 
   678  0FEF                     	;# 
   679  0000                     	;# 
   680  0001                     	;# 
   681  0002                     	;# 
   682  0003                     	;# 
   683  0004                     	;# 
   684  0005                     	;# 
   685  0006                     	;# 
   686  0007                     	;# 
   687  0008                     	;# 
   688  0009                     	;# 
   689  000A                     	;# 
   690  000B                     	;# 
   691  000C                     	;# 
   692  000D                     	;# 
   693  000E                     	;# 
   694  000F                     	;# 
   695  0010                     	;# 
   696  0011                     	;# 
   697  0012                     	;# 
   698  0013                     	;# 
   699  0015                     	;# 
   700  0016                     	;# 
   701  0016                     	;# 
   702  0017                     	;# 
   703  0018                     	;# 
   704  0019                     	;# 
   705  001A                     	;# 
   706  001B                     	;# 
   707  001C                     	;# 
   708  008C                     	;# 
   709  008D                     	;# 
   710  008E                     	;# 
   711  008F                     	;# 
   712  0090                     	;# 
   713  0091                     	;# 
   714  0092                     	;# 
   715  0093                     	;# 
   716  0095                     	;# 
   717  0096                     	;# 
   718  0097                     	;# 
   719  0098                     	;# 
   720  0099                     	;# 
   721  009A                     	;# 
   722  009B                     	;# 
   723  009B                     	;# 
   724  009C                     	;# 
   725  009D                     	;# 
   726  009E                     	;# 
   727  009F                     	;# 
   728  010C                     	;# 
   729  010D                     	;# 
   730  010E                     	;# 
   731  010F                     	;# 
   732  0110                     	;# 
   733  0111                     	;# 
   734  0112                     	;# 
   735  0113                     	;# 
   736  0114                     	;# 
   737  0115                     	;# 
   738  0116                     	;# 
   739  0117                     	;# 
   740  0118                     	;# 
   741  0119                     	;# 
   742  011A                     	;# 
   743  011B                     	;# 
   744  011B                     	;# 
   745  011C                     	;# 
   746  018C                     	;# 
   747  018D                     	;# 
   748  018E                     	;# 
   749  018F                     	;# 
   750  0190                     	;# 
   751  0191                     	;# 
   752  0191                     	;# 
   753  0192                     	;# 
   754  0193                     	;# 
   755  0193                     	;# 
   756  0194                     	;# 
   757  0195                     	;# 
   758  0196                     	;# 
   759  0197                     	;# 
   760  0199                     	;# 
   761  0199                     	;# 
   762  0199                     	;# 
   763  019A                     	;# 
   764  019A                     	;# 
   765  019A                     	;# 
   766  019B                     	;# 
   767  019B                     	;# 
   768  019B                     	;# 
   769  019B                     	;# 
   770  019B                     	;# 
   771  019C                     	;# 
   772  019C                     	;# 
   773  019C                     	;# 
   774  019D                     	;# 
   775  019D                     	;# 
   776  019D                     	;# 
   777  019E                     	;# 
   778  019E                     	;# 
   779  019E                     	;# 
   780  019F                     	;# 
   781  019F                     	;# 
   782  019F                     	;# 
   783  019F                     	;# 
   784  019F                     	;# 
   785  020C                     	;# 
   786  020D                     	;# 
   787  020E                     	;# 
   788  020F                     	;# 
   789  0210                     	;# 
   790  0211                     	;# 
   791  0211                     	;# 
   792  0212                     	;# 
   793  0212                     	;# 
   794  0213                     	;# 
   795  0213                     	;# 
   796  0214                     	;# 
   797  0214                     	;# 
   798  0215                     	;# 
   799  0215                     	;# 
   800  0215                     	;# 
   801  0215                     	;# 
   802  0216                     	;# 
   803  0216                     	;# 
   804  0217                     	;# 
   805  0217                     	;# 
   806  028C                     	;# 
   807  028D                     	;# 
   808  028E                     	;# 
   809  028F                     	;# 
   810  0290                     	;# 
   811  0291                     	;# 
   812  0291                     	;# 
   813  0292                     	;# 
   814  0293                     	;# 
   815  0293                     	;# 
   816  0298                     	;# 
   817  0298                     	;# 
   818  0299                     	;# 
   819  029A                     	;# 
   820  029A                     	;# 
   821  029E                     	;# 
   822  030C                     	;# 
   823  030D                     	;# 
   824  030E                     	;# 
   825  030F                     	;# 
   826  0310                     	;# 
   827  038C                     	;# 
   828  038D                     	;# 
   829  038E                     	;# 
   830  038F                     	;# 
   831  0390                     	;# 
   832  0391                     	;# 
   833  0392                     	;# 
   834  0393                     	;# 
   835  0394                     	;# 
   836  0395                     	;# 
   837  0396                     	;# 
   838  0397                     	;# 
   839  0398                     	;# 
   840  0399                     	;# 
   841  039D                     	;# 
   842  039E                     	;# 
   843  039F                     	;# 
   844  0415                     	;# 
   845  0416                     	;# 
   846  0417                     	;# 
   847  041C                     	;# 
   848  041D                     	;# 
   849  041E                     	;# 
   850  0498                     	;# 
   851  0498                     	;# 
   852  0499                     	;# 
   853  049A                     	;# 
   854  049B                     	;# 
   855  049B                     	;# 
   856  049C                     	;# 
   857  049D                     	;# 
   858  049E                     	;# 
   859  049F                     	;# 
   860  0511                     	;# 
   861  0515                     	;# 
   862  0617                     	;# 
   863  0618                     	;# 
   864  0619                     	;# 
   865  0619                     	;# 
   866  061A                     	;# 
   867  061B                     	;# 
   868  061C                     	;# 
   869  061C                     	;# 
   870  0691                     	;# 
   871  0692                     	;# 
   872  0693                     	;# 
   873  0694                     	;# 
   874  0695                     	;# 
   875  0696                     	;# 
   876  0697                     	;# 
   877  0698                     	;# 
   878  0699                     	;# 
   879  069A                     	;# 
   880  069B                     	;# 
   881  069C                     	;# 
   882  069D                     	;# 
   883  069E                     	;# 
   884  069F                     	;# 
   885  0E0F                     	;# 
   886  0E10                     	;# 
   887  0E11                     	;# 
   888  0E12                     	;# 
   889  0E13                     	;# 
   890  0E14                     	;# 
   891  0E15                     	;# 
   892  0E17                     	;# 
   893  0E20                     	;# 
   894  0E21                     	;# 
   895  0E22                     	;# 
   896  0E24                     	;# 
   897  0E25                     	;# 
   898  0E28                     	;# 
   899  0E29                     	;# 
   900  0E2A                     	;# 
   901  0E2B                     	;# 
   902  0E90                     	;# 
   903  0E91                     	;# 
   904  0E92                     	;# 
   905  0E93                     	;# 
   906  0E94                     	;# 
   907  0E95                     	;# 
   908  0E96                     	;# 
   909  0E97                     	;# 
   910  0E98                     	;# 
   911  0E99                     	;# 
   912  0E9A                     	;# 
   913  0E9B                     	;# 
   914  0E9C                     	;# 
   915  0E9D                     	;# 
   916  0E9E                     	;# 
   917  0E9F                     	;# 
   918  0EA0                     	;# 
   919  0EA1                     	;# 
   920  0EA2                     	;# 
   921  0EA3                     	;# 
   922  0EA4                     	;# 
   923  0EA5                     	;# 
   924  0EA6                     	;# 
   925  0EA7                     	;# 
   926  0EA8                     	;# 
   927  0EA9                     	;# 
   928  0EAA                     	;# 
   929  0EAB                     	;# 
   930  0EAC                     	;# 
   931  0EAD                     	;# 
   932  0EAE                     	;# 
   933  0EAF                     	;# 
   934  0EB0                     	;# 
   935  0EB1                     	;# 
   936  0EB2                     	;# 
   937  0F0F                     	;# 
   938  0F10                     	;# 
   939  0F11                     	;# 
   940  0F12                     	;# 
   941  0F13                     	;# 
   942  0F14                     	;# 
   943  0F15                     	;# 
   944  0F16                     	;# 
   945  0F17                     	;# 
   946  0F18                     	;# 
   947  0F19                     	;# 
   948  0F1A                     	;# 
   949  0F1B                     	;# 
   950  0F1C                     	;# 
   951  0F1D                     	;# 
   952  0F1E                     	;# 
   953  0F1F                     	;# 
   954  0F20                     	;# 
   955  0F21                     	;# 
   956  0F22                     	;# 
   957  0F23                     	;# 
   958  0F24                     	;# 
   959  0F25                     	;# 
   960  0F26                     	;# 
   961  0F27                     	;# 
   962  0F28                     	;# 
   963  0F29                     	;# 
   964  0F2A                     	;# 
   965  0F2B                     	;# 
   966  0F2C                     	;# 
   967  0F2D                     	;# 
   968  0F2E                     	;# 
   969  0F2F                     	;# 
   970  0F30                     	;# 
   971  0F31                     	;# 
   972  0F32                     	;# 
   973  0F33                     	;# 
   974  0F34                     	;# 
   975  0F35                     	;# 
   976  0F36                     	;# 
   977  0F37                     	;# 
   978  0FE4                     	;# 
   979  0FE5                     	;# 
   980  0FE6                     	;# 
   981  0FE7                     	;# 
   982  0FE8                     	;# 
   983  0FE9                     	;# 
   984  0FEA                     	;# 
   985  0FEB                     	;# 
   986  0FED                     	;# 
   987  0FEE                     	;# 
   988  0FEF                     	;# 
   989  0000                     	;# 
   990  0001                     	;# 
   991  0002                     	;# 
   992  0003                     	;# 
   993  0004                     	;# 
   994  0005                     	;# 
   995  0006                     	;# 
   996  0007                     	;# 
   997  0008                     	;# 
   998  0009                     	;# 
   999  000A                     	;# 
  1000  000B                     	;# 
  1001  000C                     	;# 
  1002  000D                     	;# 
  1003  000E                     	;# 
  1004  000F                     	;# 
  1005  0010                     	;# 
  1006  0011                     	;# 
  1007  0012                     	;# 
  1008  0013                     	;# 
  1009  0015                     	;# 
  1010  0016                     	;# 
  1011  0016                     	;# 
  1012  0017                     	;# 
  1013  0018                     	;# 
  1014  0019                     	;# 
  1015  001A                     	;# 
  1016  001B                     	;# 
  1017  001C                     	;# 
  1018  008C                     	;# 
  1019  008D                     	;# 
  1020  008E                     	;# 
  1021  008F                     	;# 
  1022  0090                     	;# 
  1023  0091                     	;# 
  1024  0092                     	;# 
  1025  0093                     	;# 
  1026  0095                     	;# 
  1027  0096                     	;# 
  1028  0097                     	;# 
  1029  0098                     	;# 
  1030  0099                     	;# 
  1031  009A                     	;# 
  1032  009B                     	;# 
  1033  009B                     	;# 
  1034  009C                     	;# 
  1035  009D                     	;# 
  1036  009E                     	;# 
  1037  009F                     	;# 
  1038  010C                     	;# 
  1039  010D                     	;# 
  1040  010E                     	;# 
  1041  010F                     	;# 
  1042  0110                     	;# 
  1043  0111                     	;# 
  1044  0112                     	;# 
  1045  0113                     	;# 
  1046  0114                     	;# 
  1047  0115                     	;# 
  1048  0116                     	;# 
  1049  0117                     	;# 
  1050  0118                     	;# 
  1051  0119                     	;# 
  1052  011A                     	;# 
  1053  011B                     	;# 
  1054  011B                     	;# 
  1055  011C                     	;# 
  1056  018C                     	;# 
  1057  018D                     	;# 
  1058  018E                     	;# 
  1059  018F                     	;# 
  1060  0190                     	;# 
  1061  0191                     	;# 
  1062  0191                     	;# 
  1063  0192                     	;# 
  1064  0193                     	;# 
  1065  0193                     	;# 
  1066  0194                     	;# 
  1067  0195                     	;# 
  1068  0196                     	;# 
  1069  0197                     	;# 
  1070  0199                     	;# 
  1071  0199                     	;# 
  1072  0199                     	;# 
  1073  019A                     	;# 
  1074  019A                     	;# 
  1075  019A                     	;# 
  1076  019B                     	;# 
  1077  019B                     	;# 
  1078  019B                     	;# 
  1079  019B                     	;# 
  1080  019B                     	;# 
  1081  019C                     	;# 
  1082  019C                     	;# 
  1083  019C                     	;# 
  1084  019D                     	;# 
  1085  019D                     	;# 
  1086  019D                     	;# 
  1087  019E                     	;# 
  1088  019E                     	;# 
  1089  019E                     	;# 
  1090  019F                     	;# 
  1091  019F                     	;# 
  1092  019F                     	;# 
  1093  019F                     	;# 
  1094  019F                     	;# 
  1095  020C                     	;# 
  1096  020D                     	;# 
  1097  020E                     	;# 
  1098  020F                     	;# 
  1099  0210                     	;# 
  1100  0211                     	;# 
  1101  0211                     	;# 
  1102  0212                     	;# 
  1103  0212                     	;# 
  1104  0213                     	;# 
  1105  0213                     	;# 
  1106  0214                     	;# 
  1107  0214                     	;# 
  1108  0215                     	;# 
  1109  0215                     	;# 
  1110  0215                     	;# 
  1111  0215                     	;# 
  1112  0216                     	;# 
  1113  0216                     	;# 
  1114  0217                     	;# 
  1115  0217                     	;# 
  1116  028C                     	;# 
  1117  028D                     	;# 
  1118  028E                     	;# 
  1119  028F                     	;# 
  1120  0290                     	;# 
  1121  0291                     	;# 
  1122  0291                     	;# 
  1123  0292                     	;# 
  1124  0293                     	;# 
  1125  0293                     	;# 
  1126  0298                     	;# 
  1127  0298                     	;# 
  1128  0299                     	;# 
  1129  029A                     	;# 
  1130  029A                     	;# 
  1131  029E                     	;# 
  1132  030C                     	;# 
  1133  030D                     	;# 
  1134  030E                     	;# 
  1135  030F                     	;# 
  1136  0310                     	;# 
  1137  038C                     	;# 
  1138  038D                     	;# 
  1139  038E                     	;# 
  1140  038F                     	;# 
  1141  0390                     	;# 
  1142  0391                     	;# 
  1143  0392                     	;# 
  1144  0393                     	;# 
  1145  0394                     	;# 
  1146  0395                     	;# 
  1147  0396                     	;# 
  1148  0397                     	;# 
  1149  0398                     	;# 
  1150  0399                     	;# 
  1151  039D                     	;# 
  1152  039E                     	;# 
  1153  039F                     	;# 
  1154  0415                     	;# 
  1155  0416                     	;# 
  1156  0417                     	;# 
  1157  041C                     	;# 
  1158  041D                     	;# 
  1159  041E                     	;# 
  1160  0498                     	;# 
  1161  0498                     	;# 
  1162  0499                     	;# 
  1163  049A                     	;# 
  1164  049B                     	;# 
  1165  049B                     	;# 
  1166  049C                     	;# 
  1167  049D                     	;# 
  1168  049E                     	;# 
  1169  049F                     	;# 
  1170  0511                     	;# 
  1171  0515                     	;# 
  1172  0617                     	;# 
  1173  0618                     	;# 
  1174  0619                     	;# 
  1175  0619                     	;# 
  1176  061A                     	;# 
  1177  061B                     	;# 
  1178  061C                     	;# 
  1179  061C                     	;# 
  1180  0691                     	;# 
  1181  0692                     	;# 
  1182  0693                     	;# 
  1183  0694                     	;# 
  1184  0695                     	;# 
  1185  0696                     	;# 
  1186  0697                     	;# 
  1187  0698                     	;# 
  1188  0699                     	;# 
  1189  069A                     	;# 
  1190  069B                     	;# 
  1191  069C                     	;# 
  1192  069D                     	;# 
  1193  069E                     	;# 
  1194  069F                     	;# 
  1195  0E0F                     	;# 
  1196  0E10                     	;# 
  1197  0E11                     	;# 
  1198  0E12                     	;# 
  1199  0E13                     	;# 
  1200  0E14                     	;# 
  1201  0E15                     	;# 
  1202  0E17                     	;# 
  1203  0E20                     	;# 
  1204  0E21                     	;# 
  1205  0E22                     	;# 
  1206  0E24                     	;# 
  1207  0E25                     	;# 
  1208  0E28                     	;# 
  1209  0E29                     	;# 
  1210  0E2A                     	;# 
  1211  0E2B                     	;# 
  1212  0E90                     	;# 
  1213  0E91                     	;# 
  1214  0E92                     	;# 
  1215  0E93                     	;# 
  1216  0E94                     	;# 
  1217  0E95                     	;# 
  1218  0E96                     	;# 
  1219  0E97                     	;# 
  1220  0E98                     	;# 
  1221  0E99                     	;# 
  1222  0E9A                     	;# 
  1223  0E9B                     	;# 
  1224  0E9C                     	;# 
  1225  0E9D                     	;# 
  1226  0E9E                     	;# 
  1227  0E9F                     	;# 
  1228  0EA0                     	;# 
  1229  0EA1                     	;# 
  1230  0EA2                     	;# 
  1231  0EA3                     	;# 
  1232  0EA4                     	;# 
  1233  0EA5                     	;# 
  1234  0EA6                     	;# 
  1235  0EA7                     	;# 
  1236  0EA8                     	;# 
  1237  0EA9                     	;# 
  1238  0EAA                     	;# 
  1239  0EAB                     	;# 
  1240  0EAC                     	;# 
  1241  0EAD                     	;# 
  1242  0EAE                     	;# 
  1243  0EAF                     	;# 
  1244  0EB0                     	;# 
  1245  0EB1                     	;# 
  1246  0EB2                     	;# 
  1247  0F0F                     	;# 
  1248  0F10                     	;# 
  1249  0F11                     	;# 
  1250  0F12                     	;# 
  1251  0F13                     	;# 
  1252  0F14                     	;# 
  1253  0F15                     	;# 
  1254  0F16                     	;# 
  1255  0F17                     	;# 
  1256  0F18                     	;# 
  1257  0F19                     	;# 
  1258  0F1A                     	;# 
  1259  0F1B                     	;# 
  1260  0F1C                     	;# 
  1261  0F1D                     	;# 
  1262  0F1E                     	;# 
  1263  0F1F                     	;# 
  1264  0F20                     	;# 
  1265  0F21                     	;# 
  1266  0F22                     	;# 
  1267  0F23                     	;# 
  1268  0F24                     	;# 
  1269  0F25                     	;# 
  1270  0F26                     	;# 
  1271  0F27                     	;# 
  1272  0F28                     	;# 
  1273  0F29                     	;# 
  1274  0F2A                     	;# 
  1275  0F2B                     	;# 
  1276  0F2C                     	;# 
  1277  0F2D                     	;# 
  1278  0F2E                     	;# 
  1279  0F2F                     	;# 
  1280  0F30                     	;# 
  1281  0F31                     	;# 
  1282  0F32                     	;# 
  1283  0F33                     	;# 
  1284  0F34                     	;# 
  1285  0F35                     	;# 
  1286  0F36                     	;# 
  1287  0F37                     	;# 
  1288  0FE4                     	;# 
  1289  0FE5                     	;# 
  1290  0FE6                     	;# 
  1291  0FE7                     	;# 
  1292  0FE8                     	;# 
  1293  0FE9                     	;# 
  1294  0FEA                     	;# 
  1295  0FEB                     	;# 
  1296  0FED                     	;# 
  1297  0FEE                     	;# 
  1298  0FEF                     	;# 
  1299  0000                     	;# 
  1300  0001                     	;# 
  1301  0002                     	;# 
  1302  0003                     	;# 
  1303  0004                     	;# 
  1304  0005                     	;# 
  1305  0006                     	;# 
  1306  0007                     	;# 
  1307  0008                     	;# 
  1308  0009                     	;# 
  1309  000A                     	;# 
  1310  000B                     	;# 
  1311  000C                     	;# 
  1312  000D                     	;# 
  1313  000E                     	;# 
  1314  000F                     	;# 
  1315  0010                     	;# 
  1316  0011                     	;# 
  1317  0012                     	;# 
  1318  0013                     	;# 
  1319  0015                     	;# 
  1320  0016                     	;# 
  1321  0016                     	;# 
  1322  0017                     	;# 
  1323  0018                     	;# 
  1324  0019                     	;# 
  1325  001A                     	;# 
  1326  001B                     	;# 
  1327  001C                     	;# 
  1328  008C                     	;# 
  1329  008D                     	;# 
  1330  008E                     	;# 
  1331  008F                     	;# 
  1332  0090                     	;# 
  1333  0091                     	;# 
  1334  0092                     	;# 
  1335  0093                     	;# 
  1336  0095                     	;# 
  1337  0096                     	;# 
  1338  0097                     	;# 
  1339  0098                     	;# 
  1340  0099                     	;# 
  1341  009A                     	;# 
  1342  009B                     	;# 
  1343  009B                     	;# 
  1344  009C                     	;# 
  1345  009D                     	;# 
  1346  009E                     	;# 
  1347  009F                     	;# 
  1348  010C                     	;# 
  1349  010D                     	;# 
  1350  010E                     	;# 
  1351  010F                     	;# 
  1352  0110                     	;# 
  1353  0111                     	;# 
  1354  0112                     	;# 
  1355  0113                     	;# 
  1356  0114                     	;# 
  1357  0115                     	;# 
  1358  0116                     	;# 
  1359  0117                     	;# 
  1360  0118                     	;# 
  1361  0119                     	;# 
  1362  011A                     	;# 
  1363  011B                     	;# 
  1364  011B                     	;# 
  1365  011C                     	;# 
  1366  018C                     	;# 
  1367  018D                     	;# 
  1368  018E                     	;# 
  1369  018F                     	;# 
  1370  0190                     	;# 
  1371  0191                     	;# 
  1372  0191                     	;# 
  1373  0192                     	;# 
  1374  0193                     	;# 
  1375  0193                     	;# 
  1376  0194                     	;# 
  1377  0195                     	;# 
  1378  0196                     	;# 
  1379  0197                     	;# 
  1380  0199                     	;# 
  1381  0199                     	;# 
  1382  0199                     	;# 
  1383  019A                     	;# 
  1384  019A                     	;# 
  1385  019A                     	;# 
  1386  019B                     	;# 
  1387  019B                     	;# 
  1388  019B                     	;# 
  1389  019B                     	;# 
  1390  019B                     	;# 
  1391  019C                     	;# 
  1392  019C                     	;# 
  1393  019C                     	;# 
  1394  019D                     	;# 
  1395  019D                     	;# 
  1396  019D                     	;# 
  1397  019E                     	;# 
  1398  019E                     	;# 
  1399  019E                     	;# 
  1400  019F                     	;# 
  1401  019F                     	;# 
  1402  019F                     	;# 
  1403  019F                     	;# 
  1404  019F                     	;# 
  1405  020C                     	;# 
  1406  020D                     	;# 
  1407  020E                     	;# 
  1408  020F                     	;# 
  1409  0210                     	;# 
  1410  0211                     	;# 
  1411  0211                     	;# 
  1412  0212                     	;# 
  1413  0212                     	;# 
  1414  0213                     	;# 
  1415  0213                     	;# 
  1416  0214                     	;# 
  1417  0214                     	;# 
  1418  0215                     	;# 
  1419  0215                     	;# 
  1420  0215                     	;# 
  1421  0215                     	;# 
  1422  0216                     	;# 
  1423  0216                     	;# 
  1424  0217                     	;# 
  1425  0217                     	;# 
  1426  028C                     	;# 
  1427  028D                     	;# 
  1428  028E                     	;# 
  1429  028F                     	;# 
  1430  0290                     	;# 
  1431  0291                     	;# 
  1432  0291                     	;# 
  1433  0292                     	;# 
  1434  0293                     	;# 
  1435  0293                     	;# 
  1436  0298                     	;# 
  1437  0298                     	;# 
  1438  0299                     	;# 
  1439  029A                     	;# 
  1440  029A                     	;# 
  1441  029E                     	;# 
  1442  030C                     	;# 
  1443  030D                     	;# 
  1444  030E                     	;# 
  1445  030F                     	;# 
  1446  0310                     	;# 
  1447  038C                     	;# 
  1448  038D                     	;# 
  1449  038E                     	;# 
  1450  038F                     	;# 
  1451  0390                     	;# 
  1452  0391                     	;# 
  1453  0392                     	;# 
  1454  0393                     	;# 
  1455  0394                     	;# 
  1456  0395                     	;# 
  1457  0396                     	;# 
  1458  0397                     	;# 
  1459  0398                     	;# 
  1460  0399                     	;# 
  1461  039D                     	;# 
  1462  039E                     	;# 
  1463  039F                     	;# 
  1464  0415                     	;# 
  1465  0416                     	;# 
  1466  0417                     	;# 
  1467  041C                     	;# 
  1468  041D                     	;# 
  1469  041E                     	;# 
  1470  0498                     	;# 
  1471  0498                     	;# 
  1472  0499                     	;# 
  1473  049A                     	;# 
  1474  049B                     	;# 
  1475  049B                     	;# 
  1476  049C                     	;# 
  1477  049D                     	;# 
  1478  049E                     	;# 
  1479  049F                     	;# 
  1480  0511                     	;# 
  1481  0515                     	;# 
  1482  0617                     	;# 
  1483  0618                     	;# 
  1484  0619                     	;# 
  1485  0619                     	;# 
  1486  061A                     	;# 
  1487  061B                     	;# 
  1488  061C                     	;# 
  1489  061C                     	;# 
  1490  0691                     	;# 
  1491  0692                     	;# 
  1492  0693                     	;# 
  1493  0694                     	;# 
  1494  0695                     	;# 
  1495  0696                     	;# 
  1496  0697                     	;# 
  1497  0698                     	;# 
  1498  0699                     	;# 
  1499  069A                     	;# 
  1500  069B                     	;# 
  1501  069C                     	;# 
  1502  069D                     	;# 
  1503  069E                     	;# 
  1504  069F                     	;# 
  1505  0E0F                     	;# 
  1506  0E10                     	;# 
  1507  0E11                     	;# 
  1508  0E12                     	;# 
  1509  0E13                     	;# 
  1510  0E14                     	;# 
  1511  0E15                     	;# 
  1512  0E17                     	;# 
  1513  0E20                     	;# 
  1514  0E21                     	;# 
  1515  0E22                     	;# 
  1516  0E24                     	;# 
  1517  0E25                     	;# 
  1518  0E28                     	;# 
  1519  0E29                     	;# 
  1520  0E2A                     	;# 
  1521  0E2B                     	;# 
  1522  0E90                     	;# 
  1523  0E91                     	;# 
  1524  0E92                     	;# 
  1525  0E93                     	;# 
  1526  0E94                     	;# 
  1527  0E95                     	;# 
  1528  0E96                     	;# 
  1529  0E97                     	;# 
  1530  0E98                     	;# 
  1531  0E99                     	;# 
  1532  0E9A                     	;# 
  1533  0E9B                     	;# 
  1534  0E9C                     	;# 
  1535  0E9D                     	;# 
  1536  0E9E                     	;# 
  1537  0E9F                     	;# 
  1538  0EA0                     	;# 
  1539  0EA1                     	;# 
  1540  0EA2                     	;# 
  1541  0EA3                     	;# 
  1542  0EA4                     	;# 
  1543  0EA5                     	;# 
  1544  0EA6                     	;# 
  1545  0EA7                     	;# 
  1546  0EA8                     	;# 
  1547  0EA9                     	;# 
  1548  0EAA                     	;# 
  1549  0EAB                     	;# 
  1550  0EAC                     	;# 
  1551  0EAD                     	;# 
  1552  0EAE                     	;# 
  1553  0EAF                     	;# 
  1554  0EB0                     	;# 
  1555  0EB1                     	;# 
  1556  0EB2                     	;# 
  1557  0F0F                     	;# 
  1558  0F10                     	;# 
  1559  0F11                     	;# 
  1560  0F12                     	;# 
  1561  0F13                     	;# 
  1562  0F14                     	;# 
  1563  0F15                     	;# 
  1564  0F16                     	;# 
  1565  0F17                     	;# 
  1566  0F18                     	;# 
  1567  0F19                     	;# 
  1568  0F1A                     	;# 
  1569  0F1B                     	;# 
  1570  0F1C                     	;# 
  1571  0F1D                     	;# 
  1572  0F1E                     	;# 
  1573  0F1F                     	;# 
  1574  0F20                     	;# 
  1575  0F21                     	;# 
  1576  0F22                     	;# 
  1577  0F23                     	;# 
  1578  0F24                     	;# 
  1579  0F25                     	;# 
  1580  0F26                     	;# 
  1581  0F27                     	;# 
  1582  0F28                     	;# 
  1583  0F29                     	;# 
  1584  0F2A                     	;# 
  1585  0F2B                     	;# 
  1586  0F2C                     	;# 
  1587  0F2D                     	;# 
  1588  0F2E                     	;# 
  1589  0F2F                     	;# 
  1590  0F30                     	;# 
  1591  0F31                     	;# 
  1592  0F32                     	;# 
  1593  0F33                     	;# 
  1594  0F34                     	;# 
  1595  0F35                     	;# 
  1596  0F36                     	;# 
  1597  0F37                     	;# 
  1598  0FE4                     	;# 
  1599  0FE5                     	;# 
  1600  0FE6                     	;# 
  1601  0FE7                     	;# 
  1602  0FE8                     	;# 
  1603  0FE9                     	;# 
  1604  0FEA                     	;# 
  1605  0FEB                     	;# 
  1606  0FED                     	;# 
  1607  0FEE                     	;# 
  1608  0FEF                     	;# 
  1609                           
  1610                           	psect	stringtext
  1611  0800                     __pstringtext:	
  1612  0800                     _dpowers:	
  1613  0800  3401               	retlw	1
  1614  0801  3400               	retlw	0
  1615  0802  3400               	retlw	0
  1616  0803  3400               	retlw	0
  1617  0804  340A               	retlw	10
  1618  0805  3400               	retlw	0
  1619  0806  3400               	retlw	0
  1620  0807  3400               	retlw	0
  1621  0808  3464               	retlw	100
  1622  0809  3400               	retlw	0
  1623  080A  3400               	retlw	0
  1624  080B  3400               	retlw	0
  1625  080C  34E8               	retlw	232
  1626  080D  3403               	retlw	3
  1627  080E  3400               	retlw	0
  1628  080F  3400               	retlw	0
  1629  0810  3410               	retlw	16
  1630  0811  3427               	retlw	39
  1631  0812  3400               	retlw	0
  1632  0813  3400               	retlw	0
  1633  0814  34A0               	retlw	160
  1634  0815  3486               	retlw	134
  1635  0816  3401               	retlw	1
  1636  0817  3400               	retlw	0
  1637  0818  3440               	retlw	64
  1638  0819  3442               	retlw	66
  1639  081A  340F               	retlw	15
  1640  081B  3400               	retlw	0
  1641  081C  3480               	retlw	128
  1642  081D  3496               	retlw	150
  1643  081E  3498               	retlw	152
  1644  081F  3400               	retlw	0
  1645  0820  3400               	retlw	0
  1646  0821  34E1               	retlw	225
  1647  0822  34F5               	retlw	245
  1648  0823  3405               	retlw	5
  1649  0824  3400               	retlw	0
  1650  0825  34CA               	retlw	202
  1651  0826  349A               	retlw	154
  1652  0827  343B               	retlw	59
  1653  0828                     __end_of_dpowers:	
  1654  0828                     _OledFont:	
  1655  0828  3400               	retlw	0
  1656  0829  3400               	retlw	0
  1657  082A  3400               	retlw	0
  1658  082B  3400               	retlw	0
  1659  082C  3400               	retlw	0
  1660  082D  3400               	retlw	0
  1661  082E  3400               	retlw	0
  1662  082F  3400               	retlw	0
  1663  0830  3400               	retlw	0
  1664  0831  3400               	retlw	0
  1665  0832  345F               	retlw	95
  1666  0833  3400               	retlw	0
  1667  0834  3400               	retlw	0
  1668  0835  3400               	retlw	0
  1669  0836  3400               	retlw	0
  1670  0837  3400               	retlw	0
  1671  0838  3400               	retlw	0
  1672  0839  3400               	retlw	0
  1673  083A  3407               	retlw	7
  1674  083B  3400               	retlw	0
  1675  083C  3407               	retlw	7
  1676  083D  3400               	retlw	0
  1677  083E  3400               	retlw	0
  1678  083F  3400               	retlw	0
  1679  0840  3400               	retlw	0
  1680  0841  3414               	retlw	20
  1681  0842  347F               	retlw	127
  1682  0843  3414               	retlw	20
  1683  0844  347F               	retlw	127
  1684  0845  3414               	retlw	20
  1685  0846  3400               	retlw	0
  1686  0847  3400               	retlw	0
  1687  0848  3400               	retlw	0
  1688  0849  3424               	retlw	36
  1689  084A  342A               	retlw	42
  1690  084B  347F               	retlw	127
  1691  084C  342A               	retlw	42
  1692  084D  3412               	retlw	18
  1693  084E  3400               	retlw	0
  1694  084F  3400               	retlw	0
  1695  0850  3400               	retlw	0
  1696  0851  3423               	retlw	35
  1697  0852  3413               	retlw	19
  1698  0853  3408               	retlw	8
  1699  0854  3464               	retlw	100
  1700  0855  3462               	retlw	98
  1701  0856  3400               	retlw	0
  1702  0857  3400               	retlw	0
  1703  0858  3400               	retlw	0
  1704  0859  3436               	retlw	54
  1705  085A  3449               	retlw	73
  1706  085B  3455               	retlw	85
  1707  085C  3422               	retlw	34
  1708  085D  3450               	retlw	80
  1709  085E  3400               	retlw	0
  1710  085F  3400               	retlw	0
  1711  0860  3400               	retlw	0
  1712  0861  3400               	retlw	0
  1713  0862  3405               	retlw	5
  1714  0863  3403               	retlw	3
  1715  0864  3400               	retlw	0
  1716  0865  3400               	retlw	0
  1717  0866  3400               	retlw	0
  1718  0867  3400               	retlw	0
  1719  0868  3400               	retlw	0
  1720  0869  341C               	retlw	28
  1721  086A  3422               	retlw	34
  1722  086B  3441               	retlw	65
  1723  086C  3400               	retlw	0
  1724  086D  3400               	retlw	0
  1725  086E  3400               	retlw	0
  1726  086F  3400               	retlw	0
  1727  0870  3400               	retlw	0
  1728  0871  3441               	retlw	65
  1729  0872  3422               	retlw	34
  1730  0873  341C               	retlw	28
  1731  0874  3400               	retlw	0
  1732  0875  3400               	retlw	0
  1733  0876  3400               	retlw	0
  1734  0877  3400               	retlw	0
  1735  0878  3400               	retlw	0
  1736  0879  3408               	retlw	8
  1737  087A  342A               	retlw	42
  1738  087B  341C               	retlw	28
  1739  087C  342A               	retlw	42
  1740  087D  3408               	retlw	8
  1741  087E  3400               	retlw	0
  1742  087F  3400               	retlw	0
  1743  0880  3400               	retlw	0
  1744  0881  3408               	retlw	8
  1745  0882  3408               	retlw	8
  1746  0883  343E               	retlw	62
  1747  0884  3408               	retlw	8
  1748  0885  3408               	retlw	8
  1749  0886  3400               	retlw	0
  1750  0887  3400               	retlw	0
  1751  0888  3400               	retlw	0
  1752  0889  34A0               	retlw	160
  1753  088A  3460               	retlw	96
  1754  088B  3400               	retlw	0
  1755  088C  3400               	retlw	0
  1756  088D  3400               	retlw	0
  1757  088E  3400               	retlw	0
  1758  088F  3400               	retlw	0
  1759  0890  3400               	retlw	0
  1760  0891  3408               	retlw	8
  1761  0892  3408               	retlw	8
  1762  0893  3408               	retlw	8
  1763  0894  3408               	retlw	8
  1764  0895  3408               	retlw	8
  1765  0896  3400               	retlw	0
  1766  0897  3400               	retlw	0
  1767  0898  3400               	retlw	0
  1768  0899  3460               	retlw	96
  1769  089A  3460               	retlw	96
  1770  089B  3400               	retlw	0
  1771  089C  3400               	retlw	0
  1772  089D  3400               	retlw	0
  1773  089E  3400               	retlw	0
  1774  089F  3400               	retlw	0
  1775  08A0  3400               	retlw	0
  1776  08A1  3420               	retlw	32
  1777  08A2  3410               	retlw	16
  1778  08A3  3408               	retlw	8
  1779  08A4  3404               	retlw	4
  1780  08A5  3402               	retlw	2
  1781  08A6  3400               	retlw	0
  1782  08A7  3400               	retlw	0
  1783  08A8  3400               	retlw	0
  1784  08A9  343E               	retlw	62
  1785  08AA  3451               	retlw	81
  1786  08AB  3449               	retlw	73
  1787  08AC  3445               	retlw	69
  1788  08AD  343E               	retlw	62
  1789  08AE  3400               	retlw	0
  1790  08AF  3400               	retlw	0
  1791  08B0  3400               	retlw	0
  1792  08B1  3400               	retlw	0
  1793  08B2  3442               	retlw	66
  1794  08B3  347F               	retlw	127
  1795  08B4  3440               	retlw	64
  1796  08B5  3400               	retlw	0
  1797  08B6  3400               	retlw	0
  1798  08B7  3400               	retlw	0
  1799  08B8  3400               	retlw	0
  1800  08B9  3462               	retlw	98
  1801  08BA  3451               	retlw	81
  1802  08BB  3449               	retlw	73
  1803  08BC  3449               	retlw	73
  1804  08BD  3446               	retlw	70
  1805  08BE  3400               	retlw	0
  1806  08BF  3400               	retlw	0
  1807  08C0  3400               	retlw	0
  1808  08C1  3422               	retlw	34
  1809  08C2  3441               	retlw	65
  1810  08C3  3449               	retlw	73
  1811  08C4  3449               	retlw	73
  1812  08C5  3436               	retlw	54
  1813  08C6  3400               	retlw	0
  1814  08C7  3400               	retlw	0
  1815  08C8  3400               	retlw	0
  1816  08C9  3418               	retlw	24
  1817  08CA  3414               	retlw	20
  1818  08CB  3412               	retlw	18
  1819  08CC  347F               	retlw	127
  1820  08CD  3410               	retlw	16
  1821  08CE  3400               	retlw	0
  1822  08CF  3400               	retlw	0
  1823  08D0  3400               	retlw	0
  1824  08D1  3427               	retlw	39
  1825  08D2  3445               	retlw	69
  1826  08D3  3445               	retlw	69
  1827  08D4  3445               	retlw	69
  1828  08D5  3439               	retlw	57
  1829  08D6  3400               	retlw	0
  1830  08D7  3400               	retlw	0
  1831  08D8  3400               	retlw	0
  1832  08D9  343C               	retlw	60
  1833  08DA  344A               	retlw	74
  1834  08DB  3449               	retlw	73
  1835  08DC  3449               	retlw	73
  1836  08DD  3430               	retlw	48
  1837  08DE  3400               	retlw	0
  1838  08DF  3400               	retlw	0
  1839  08E0  3400               	retlw	0
  1840  08E1  3401               	retlw	1
  1841  08E2  3471               	retlw	113
  1842  08E3  3409               	retlw	9
  1843  08E4  3405               	retlw	5
  1844  08E5  3403               	retlw	3
  1845  08E6  3400               	retlw	0
  1846  08E7  3400               	retlw	0
  1847  08E8  3400               	retlw	0
  1848  08E9  3436               	retlw	54
  1849  08EA  3449               	retlw	73
  1850  08EB  3449               	retlw	73
  1851  08EC  3449               	retlw	73
  1852  08ED  3436               	retlw	54
  1853  08EE  3400               	retlw	0
  1854  08EF  3400               	retlw	0
  1855  08F0  3400               	retlw	0
  1856  08F1  3406               	retlw	6
  1857  08F2  3449               	retlw	73
  1858  08F3  3449               	retlw	73
  1859  08F4  3429               	retlw	41
  1860  08F5  341E               	retlw	30
  1861  08F6  3400               	retlw	0
  1862  08F7  3400               	retlw	0
  1863  08F8  3400               	retlw	0
  1864  08F9  3400               	retlw	0
  1865  08FA  3436               	retlw	54
  1866  08FB  3436               	retlw	54
  1867  08FC  3400               	retlw	0
  1868  08FD  3400               	retlw	0
  1869  08FE  3400               	retlw	0
  1870  08FF  3400               	retlw	0
  1871  0900  3400               	retlw	0
  1872  0901  3400               	retlw	0
  1873  0902  34AC               	retlw	172
  1874  0903  346C               	retlw	108
  1875  0904  3400               	retlw	0
  1876  0905  3400               	retlw	0
  1877  0906  3400               	retlw	0
  1878  0907  3400               	retlw	0
  1879  0908  3400               	retlw	0
  1880  0909  3408               	retlw	8
  1881  090A  3414               	retlw	20
  1882  090B  3422               	retlw	34
  1883  090C  3441               	retlw	65
  1884  090D  3400               	retlw	0
  1885  090E  3400               	retlw	0
  1886  090F  3400               	retlw	0
  1887  0910  3400               	retlw	0
  1888  0911  3414               	retlw	20
  1889  0912  3414               	retlw	20
  1890  0913  3414               	retlw	20
  1891  0914  3414               	retlw	20
  1892  0915  3414               	retlw	20
  1893  0916  3400               	retlw	0
  1894  0917  3400               	retlw	0
  1895  0918  3400               	retlw	0
  1896  0919  3441               	retlw	65
  1897  091A  3422               	retlw	34
  1898  091B  3414               	retlw	20
  1899  091C  3408               	retlw	8
  1900  091D  3400               	retlw	0
  1901  091E  3400               	retlw	0
  1902  091F  3400               	retlw	0
  1903  0920  3400               	retlw	0
  1904  0921  3402               	retlw	2
  1905  0922  3401               	retlw	1
  1906  0923  3451               	retlw	81
  1907  0924  3409               	retlw	9
  1908  0925  3406               	retlw	6
  1909  0926  3400               	retlw	0
  1910  0927  3400               	retlw	0
  1911  0928  3400               	retlw	0
  1912  0929  3432               	retlw	50
  1913  092A  3449               	retlw	73
  1914  092B  3479               	retlw	121
  1915  092C  3441               	retlw	65
  1916  092D  343E               	retlw	62
  1917  092E  3400               	retlw	0
  1918  092F  3400               	retlw	0
  1919  0930  3400               	retlw	0
  1920  0931  347E               	retlw	126
  1921  0932  3409               	retlw	9
  1922  0933  3409               	retlw	9
  1923  0934  3409               	retlw	9
  1924  0935  347E               	retlw	126
  1925  0936  3400               	retlw	0
  1926  0937  3400               	retlw	0
  1927  0938  3400               	retlw	0
  1928  0939  347F               	retlw	127
  1929  093A  3449               	retlw	73
  1930  093B  3449               	retlw	73
  1931  093C  3449               	retlw	73
  1932  093D  3436               	retlw	54
  1933  093E  3400               	retlw	0
  1934  093F  3400               	retlw	0
  1935  0940  3400               	retlw	0
  1936  0941  343E               	retlw	62
  1937  0942  3441               	retlw	65
  1938  0943  3441               	retlw	65
  1939  0944  3441               	retlw	65
  1940  0945  3422               	retlw	34
  1941  0946  3400               	retlw	0
  1942  0947  3400               	retlw	0
  1943  0948  3400               	retlw	0
  1944  0949  347F               	retlw	127
  1945  094A  3441               	retlw	65
  1946  094B  3441               	retlw	65
  1947  094C  3422               	retlw	34
  1948  094D  341C               	retlw	28
  1949  094E  3400               	retlw	0
  1950  094F  3400               	retlw	0
  1951  0950  3400               	retlw	0
  1952  0951  347F               	retlw	127
  1953  0952  3449               	retlw	73
  1954  0953  3449               	retlw	73
  1955  0954  3449               	retlw	73
  1956  0955  3441               	retlw	65
  1957  0956  3400               	retlw	0
  1958  0957  3400               	retlw	0
  1959  0958  3400               	retlw	0
  1960  0959  347F               	retlw	127
  1961  095A  3409               	retlw	9
  1962  095B  3409               	retlw	9
  1963  095C  3409               	retlw	9
  1964  095D  3401               	retlw	1
  1965  095E  3400               	retlw	0
  1966  095F  3400               	retlw	0
  1967  0960  3400               	retlw	0
  1968  0961  343E               	retlw	62
  1969  0962  3441               	retlw	65
  1970  0963  3441               	retlw	65
  1971  0964  3451               	retlw	81
  1972  0965  3472               	retlw	114
  1973  0966  3400               	retlw	0
  1974  0967  3400               	retlw	0
  1975  0968  3400               	retlw	0
  1976  0969  347F               	retlw	127
  1977  096A  3408               	retlw	8
  1978  096B  3408               	retlw	8
  1979  096C  3408               	retlw	8
  1980  096D  347F               	retlw	127
  1981  096E  3400               	retlw	0
  1982  096F  3400               	retlw	0
  1983  0970  3400               	retlw	0
  1984  0971  3441               	retlw	65
  1985  0972  347F               	retlw	127
  1986  0973  3441               	retlw	65
  1987  0974  3400               	retlw	0
  1988  0975  3400               	retlw	0
  1989  0976  3400               	retlw	0
  1990  0977  3400               	retlw	0
  1991  0978  3400               	retlw	0
  1992  0979  3420               	retlw	32
  1993  097A  3440               	retlw	64
  1994  097B  3441               	retlw	65
  1995  097C  343F               	retlw	63
  1996  097D  3401               	retlw	1
  1997  097E  3400               	retlw	0
  1998  097F  3400               	retlw	0
  1999  0980  3400               	retlw	0
  2000  0981  347F               	retlw	127
  2001  0982  3408               	retlw	8
  2002  0983  3414               	retlw	20
  2003  0984  3422               	retlw	34
  2004  0985  3441               	retlw	65
  2005  0986  3400               	retlw	0
  2006  0987  3400               	retlw	0
  2007  0988  3400               	retlw	0
  2008  0989  347F               	retlw	127
  2009  098A  3440               	retlw	64
  2010  098B  3440               	retlw	64
  2011  098C  3440               	retlw	64
  2012  098D  3440               	retlw	64
  2013  098E  3400               	retlw	0
  2014  098F  3400               	retlw	0
  2015  0990  3400               	retlw	0
  2016  0991  347F               	retlw	127
  2017  0992  3402               	retlw	2
  2018  0993  340C               	retlw	12
  2019  0994  3402               	retlw	2
  2020  0995  347F               	retlw	127
  2021  0996  3400               	retlw	0
  2022  0997  3400               	retlw	0
  2023  0998  3400               	retlw	0
  2024  0999  347F               	retlw	127
  2025  099A  3404               	retlw	4
  2026  099B  3408               	retlw	8
  2027  099C  3410               	retlw	16
  2028  099D  347F               	retlw	127
  2029  099E  3400               	retlw	0
  2030  099F  3400               	retlw	0
  2031  09A0  3400               	retlw	0
  2032  09A1  343E               	retlw	62
  2033  09A2  3441               	retlw	65
  2034  09A3  3441               	retlw	65
  2035  09A4  3441               	retlw	65
  2036  09A5  343E               	retlw	62
  2037  09A6  3400               	retlw	0
  2038  09A7  3400               	retlw	0
  2039  09A8  3400               	retlw	0
  2040  09A9  347F               	retlw	127
  2041  09AA  3409               	retlw	9
  2042  09AB  3409               	retlw	9
  2043  09AC  3409               	retlw	9
  2044  09AD  3406               	retlw	6
  2045  09AE  3400               	retlw	0
  2046  09AF  3400               	retlw	0
  2047  09B0  3400               	retlw	0
  2048  09B1  343E               	retlw	62
  2049  09B2  3441               	retlw	65
  2050  09B3  3451               	retlw	81
  2051  09B4  3421               	retlw	33
  2052  09B5  345E               	retlw	94
  2053  09B6  3400               	retlw	0
  2054  09B7  3400               	retlw	0
  2055  09B8  3400               	retlw	0
  2056  09B9  347F               	retlw	127
  2057  09BA  3409               	retlw	9
  2058  09BB  3419               	retlw	25
  2059  09BC  3429               	retlw	41
  2060  09BD  3446               	retlw	70
  2061  09BE  3400               	retlw	0
  2062  09BF  3400               	retlw	0
  2063  09C0  3400               	retlw	0
  2064  09C1  3426               	retlw	38
  2065  09C2  3449               	retlw	73
  2066  09C3  3449               	retlw	73
  2067  09C4  3449               	retlw	73
  2068  09C5  3432               	retlw	50
  2069  09C6  3400               	retlw	0
  2070  09C7  3400               	retlw	0
  2071  09C8  3400               	retlw	0
  2072  09C9  3401               	retlw	1
  2073  09CA  3401               	retlw	1
  2074  09CB  347F               	retlw	127
  2075  09CC  3401               	retlw	1
  2076  09CD  3401               	retlw	1
  2077  09CE  3400               	retlw	0
  2078  09CF  3400               	retlw	0
  2079  09D0  3400               	retlw	0
  2080  09D1  343F               	retlw	63
  2081  09D2  3440               	retlw	64
  2082  09D3  3440               	retlw	64
  2083  09D4  3440               	retlw	64
  2084  09D5  343F               	retlw	63
  2085  09D6  3400               	retlw	0
  2086  09D7  3400               	retlw	0
  2087  09D8  3400               	retlw	0
  2088  09D9  341F               	retlw	31
  2089  09DA  3420               	retlw	32
  2090  09DB  3440               	retlw	64
  2091  09DC  3420               	retlw	32
  2092  09DD  341F               	retlw	31
  2093  09DE  3400               	retlw	0
  2094  09DF  3400               	retlw	0
  2095  09E0  3400               	retlw	0
  2096  09E1  343F               	retlw	63
  2097  09E2  3440               	retlw	64
  2098  09E3  3438               	retlw	56
  2099  09E4  3440               	retlw	64
  2100  09E5  343F               	retlw	63
  2101  09E6  3400               	retlw	0
  2102  09E7  3400               	retlw	0
  2103  09E8  3400               	retlw	0
  2104  09E9  3463               	retlw	99
  2105  09EA  3414               	retlw	20
  2106  09EB  3408               	retlw	8
  2107  09EC  3414               	retlw	20
  2108  09ED  3463               	retlw	99
  2109  09EE  3400               	retlw	0
  2110  09EF  3400               	retlw	0
  2111  09F0  3400               	retlw	0
  2112  09F1  3403               	retlw	3
  2113  09F2  3404               	retlw	4
  2114  09F3  3478               	retlw	120
  2115  09F4  3404               	retlw	4
  2116  09F5  3403               	retlw	3
  2117  09F6  3400               	retlw	0
  2118  09F7  3400               	retlw	0
  2119  09F8  3400               	retlw	0
  2120  09F9  3461               	retlw	97
  2121  09FA  3451               	retlw	81
  2122  09FB  3449               	retlw	73
  2123  09FC  3445               	retlw	69
  2124  09FD  3443               	retlw	67
  2125  09FE  3400               	retlw	0
  2126  09FF  3400               	retlw	0
  2127  0A00  3400               	retlw	0
  2128  0A01  347F               	retlw	127
  2129  0A02  3441               	retlw	65
  2130  0A03  3441               	retlw	65
  2131  0A04  3400               	retlw	0
  2132  0A05  3400               	retlw	0
  2133  0A06  3400               	retlw	0
  2134  0A07  3400               	retlw	0
  2135  0A08  3400               	retlw	0
  2136  0A09  3402               	retlw	2
  2137  0A0A  3404               	retlw	4
  2138  0A0B  3408               	retlw	8
  2139  0A0C  3410               	retlw	16
  2140  0A0D  3420               	retlw	32
  2141  0A0E  3400               	retlw	0
  2142  0A0F  3400               	retlw	0
  2143  0A10  3400               	retlw	0
  2144  0A11  3441               	retlw	65
  2145  0A12  3441               	retlw	65
  2146  0A13  347F               	retlw	127
  2147  0A14  3400               	retlw	0
  2148  0A15  3400               	retlw	0
  2149  0A16  3400               	retlw	0
  2150  0A17  3400               	retlw	0
  2151  0A18  3400               	retlw	0
  2152  0A19  3404               	retlw	4
  2153  0A1A  3402               	retlw	2
  2154  0A1B  3401               	retlw	1
  2155  0A1C  3402               	retlw	2
  2156  0A1D  3404               	retlw	4
  2157  0A1E  3400               	retlw	0
  2158  0A1F  3400               	retlw	0
  2159  0A20  3400               	retlw	0
  2160  0A21  3480               	retlw	128
  2161  0A22  3480               	retlw	128
  2162  0A23  3480               	retlw	128
  2163  0A24  3480               	retlw	128
  2164  0A25  3480               	retlw	128
  2165  0A26  3400               	retlw	0
  2166  0A27  3400               	retlw	0
  2167  0A28  3400               	retlw	0
  2168  0A29  3401               	retlw	1
  2169  0A2A  3402               	retlw	2
  2170  0A2B  3404               	retlw	4
  2171  0A2C  3400               	retlw	0
  2172  0A2D  3400               	retlw	0
  2173  0A2E  3400               	retlw	0
  2174  0A2F  3400               	retlw	0
  2175  0A30  3400               	retlw	0
  2176  0A31  3420               	retlw	32
  2177  0A32  3454               	retlw	84
  2178  0A33  3454               	retlw	84
  2179  0A34  3454               	retlw	84
  2180  0A35  3478               	retlw	120
  2181  0A36  3400               	retlw	0
  2182  0A37  3400               	retlw	0
  2183  0A38  3400               	retlw	0
  2184  0A39  347F               	retlw	127
  2185  0A3A  3448               	retlw	72
  2186  0A3B  3444               	retlw	68
  2187  0A3C  3444               	retlw	68
  2188  0A3D  3438               	retlw	56
  2189  0A3E  3400               	retlw	0
  2190  0A3F  3400               	retlw	0
  2191  0A40  3400               	retlw	0
  2192  0A41  3438               	retlw	56
  2193  0A42  3444               	retlw	68
  2194  0A43  3444               	retlw	68
  2195  0A44  3428               	retlw	40
  2196  0A45  3400               	retlw	0
  2197  0A46  3400               	retlw	0
  2198  0A47  3400               	retlw	0
  2199  0A48  3400               	retlw	0
  2200  0A49  3438               	retlw	56
  2201  0A4A  3444               	retlw	68
  2202  0A4B  3444               	retlw	68
  2203  0A4C  3448               	retlw	72
  2204  0A4D  347F               	retlw	127
  2205  0A4E  3400               	retlw	0
  2206  0A4F  3400               	retlw	0
  2207  0A50  3400               	retlw	0
  2208  0A51  3438               	retlw	56
  2209  0A52  3454               	retlw	84
  2210  0A53  3454               	retlw	84
  2211  0A54  3454               	retlw	84
  2212  0A55  3418               	retlw	24
  2213  0A56  3400               	retlw	0
  2214  0A57  3400               	retlw	0
  2215  0A58  3400               	retlw	0
  2216  0A59  3408               	retlw	8
  2217  0A5A  347E               	retlw	126
  2218  0A5B  3409               	retlw	9
  2219  0A5C  3402               	retlw	2
  2220  0A5D  3400               	retlw	0
  2221  0A5E  3400               	retlw	0
  2222  0A5F  3400               	retlw	0
  2223  0A60  3400               	retlw	0
  2224  0A61  3418               	retlw	24
  2225  0A62  34A4               	retlw	164
  2226  0A63  34A4               	retlw	164
  2227  0A64  34A4               	retlw	164
  2228  0A65  347C               	retlw	124
  2229  0A66  3400               	retlw	0
  2230  0A67  3400               	retlw	0
  2231  0A68  3400               	retlw	0
  2232  0A69  347F               	retlw	127
  2233  0A6A  3408               	retlw	8
  2234  0A6B  3404               	retlw	4
  2235  0A6C  3404               	retlw	4
  2236  0A6D  3478               	retlw	120
  2237  0A6E  3400               	retlw	0
  2238  0A6F  3400               	retlw	0
  2239  0A70  3400               	retlw	0
  2240  0A71  3400               	retlw	0
  2241  0A72  347D               	retlw	125
  2242  0A73  3400               	retlw	0
  2243  0A74  3400               	retlw	0
  2244  0A75  3400               	retlw	0
  2245  0A76  3400               	retlw	0
  2246  0A77  3400               	retlw	0
  2247  0A78  3400               	retlw	0
  2248  0A79  3480               	retlw	128
  2249  0A7A  3484               	retlw	132
  2250  0A7B  347D               	retlw	125
  2251  0A7C  3400               	retlw	0
  2252  0A7D  3400               	retlw	0
  2253  0A7E  3400               	retlw	0
  2254  0A7F  3400               	retlw	0
  2255  0A80  3400               	retlw	0
  2256  0A81  347F               	retlw	127
  2257  0A82  3410               	retlw	16
  2258  0A83  3428               	retlw	40
  2259  0A84  3444               	retlw	68
  2260  0A85  3400               	retlw	0
  2261  0A86  3400               	retlw	0
  2262  0A87  3400               	retlw	0
  2263  0A88  3400               	retlw	0
  2264  0A89  3441               	retlw	65
  2265  0A8A  347F               	retlw	127
  2266  0A8B  3440               	retlw	64
  2267  0A8C  3400               	retlw	0
  2268  0A8D  3400               	retlw	0
  2269  0A8E  3400               	retlw	0
  2270  0A8F  3400               	retlw	0
  2271  0A90  3400               	retlw	0
  2272  0A91  347C               	retlw	124
  2273  0A92  3404               	retlw	4
  2274  0A93  3418               	retlw	24
  2275  0A94  3404               	retlw	4
  2276  0A95  3478               	retlw	120
  2277  0A96  3400               	retlw	0
  2278  0A97  3400               	retlw	0
  2279  0A98  3400               	retlw	0
  2280  0A99  347C               	retlw	124
  2281  0A9A  3408               	retlw	8
  2282  0A9B  3404               	retlw	4
  2283  0A9C  347C               	retlw	124
  2284  0A9D  3400               	retlw	0
  2285  0A9E  3400               	retlw	0
  2286  0A9F  3400               	retlw	0
  2287  0AA0  3400               	retlw	0
  2288  0AA1  3438               	retlw	56
  2289  0AA2  3444               	retlw	68
  2290  0AA3  3444               	retlw	68
  2291  0AA4  3438               	retlw	56
  2292  0AA5  3400               	retlw	0
  2293  0AA6  3400               	retlw	0
  2294  0AA7  3400               	retlw	0
  2295  0AA8  3400               	retlw	0
  2296  0AA9  34FC               	retlw	252
  2297  0AAA  3424               	retlw	36
  2298  0AAB  3424               	retlw	36
  2299  0AAC  3418               	retlw	24
  2300  0AAD  3400               	retlw	0
  2301  0AAE  3400               	retlw	0
  2302  0AAF  3400               	retlw	0
  2303  0AB0  3400               	retlw	0
  2304  0AB1  3418               	retlw	24
  2305  0AB2  3424               	retlw	36
  2306  0AB3  3424               	retlw	36
  2307  0AB4  34FC               	retlw	252
  2308  0AB5  3400               	retlw	0
  2309  0AB6  3400               	retlw	0
  2310  0AB7  3400               	retlw	0
  2311  0AB8  3400               	retlw	0
  2312  0AB9  3400               	retlw	0
  2313  0ABA  347C               	retlw	124
  2314  0ABB  3408               	retlw	8
  2315  0ABC  3404               	retlw	4
  2316  0ABD  3400               	retlw	0
  2317  0ABE  3400               	retlw	0
  2318  0ABF  3400               	retlw	0
  2319  0AC0  3400               	retlw	0
  2320  0AC1  3448               	retlw	72
  2321  0AC2  3454               	retlw	84
  2322  0AC3  3454               	retlw	84
  2323  0AC4  3424               	retlw	36
  2324  0AC5  3400               	retlw	0
  2325  0AC6  3400               	retlw	0
  2326  0AC7  3400               	retlw	0
  2327  0AC8  3400               	retlw	0
  2328  0AC9  3404               	retlw	4
  2329  0ACA  347F               	retlw	127
  2330  0ACB  3444               	retlw	68
  2331  0ACC  3400               	retlw	0
  2332  0ACD  3400               	retlw	0
  2333  0ACE  3400               	retlw	0
  2334  0ACF  3400               	retlw	0
  2335  0AD0  3400               	retlw	0
  2336  0AD1  343C               	retlw	60
  2337  0AD2  3440               	retlw	64
  2338  0AD3  3440               	retlw	64
  2339  0AD4  347C               	retlw	124
  2340  0AD5  3400               	retlw	0
  2341  0AD6  3400               	retlw	0
  2342  0AD7  3400               	retlw	0
  2343  0AD8  3400               	retlw	0
  2344  0AD9  341C               	retlw	28
  2345  0ADA  3420               	retlw	32
  2346  0ADB  3440               	retlw	64
  2347  0ADC  3420               	retlw	32
  2348  0ADD  341C               	retlw	28
  2349  0ADE  3400               	retlw	0
  2350  0ADF  3400               	retlw	0
  2351  0AE0  3400               	retlw	0
  2352  0AE1  343C               	retlw	60
  2353  0AE2  3440               	retlw	64
  2354  0AE3  3430               	retlw	48
  2355  0AE4  3440               	retlw	64
  2356  0AE5  343C               	retlw	60
  2357  0AE6  3400               	retlw	0
  2358  0AE7  3400               	retlw	0
  2359  0AE8  3400               	retlw	0
  2360  0AE9  3444               	retlw	68
  2361  0AEA  3428               	retlw	40
  2362  0AEB  3410               	retlw	16
  2363  0AEC  3428               	retlw	40
  2364  0AED  3444               	retlw	68
  2365  0AEE  3400               	retlw	0
  2366  0AEF  3400               	retlw	0
  2367  0AF0  3400               	retlw	0
  2368  0AF1  341C               	retlw	28
  2369  0AF2  34A0               	retlw	160
  2370  0AF3  34A0               	retlw	160
  2371  0AF4  347C               	retlw	124
  2372  0AF5  3400               	retlw	0
  2373  0AF6  3400               	retlw	0
  2374  0AF7  3400               	retlw	0
  2375  0AF8  3400               	retlw	0
  2376  0AF9  3444               	retlw	68
  2377  0AFA  3464               	retlw	100
  2378  0AFB  3454               	retlw	84
  2379  0AFC  344C               	retlw	76
  2380  0AFD  3444               	retlw	68
  2381  0AFE  3400               	retlw	0
  2382  0AFF  3400               	retlw	0
  2383  0B00  3400               	retlw	0
  2384  0B01  3408               	retlw	8
  2385  0B02  3436               	retlw	54
  2386  0B03  3441               	retlw	65
  2387  0B04  3400               	retlw	0
  2388  0B05  3400               	retlw	0
  2389  0B06  3400               	retlw	0
  2390  0B07  3400               	retlw	0
  2391  0B08  3400               	retlw	0
  2392  0B09  3400               	retlw	0
  2393  0B0A  347F               	retlw	127
  2394  0B0B  3400               	retlw	0
  2395  0B0C  3400               	retlw	0
  2396  0B0D  3400               	retlw	0
  2397  0B0E  3400               	retlw	0
  2398  0B0F  3400               	retlw	0
  2399  0B10  3400               	retlw	0
  2400  0B11  3441               	retlw	65
  2401  0B12  3436               	retlw	54
  2402  0B13  3408               	retlw	8
  2403  0B14  3400               	retlw	0
  2404  0B15  3400               	retlw	0
  2405  0B16  3400               	retlw	0
  2406  0B17  3400               	retlw	0
  2407  0B18  3400               	retlw	0
  2408  0B19  3402               	retlw	2
  2409  0B1A  3401               	retlw	1
  2410  0B1B  3401               	retlw	1
  2411  0B1C  3402               	retlw	2
  2412  0B1D  3401               	retlw	1
  2413  0B1E  3400               	retlw	0
  2414  0B1F  3400               	retlw	0
  2415  0B20  3400               	retlw	0
  2416  0B21  3402               	retlw	2
  2417  0B22  3405               	retlw	5
  2418  0B23  3405               	retlw	5
  2419  0B24  3402               	retlw	2
  2420  0B25  3400               	retlw	0
  2421  0B26  3400               	retlw	0
  2422  0B27  3400               	retlw	0
  2423  0B28                     __end_of_OledFont:	
  2424  0011                     _PIR1bits	set	17
  2425  008D                     _TRISBbits	set	141
  2426  008F                     _TRISD	set	143
  2427  008F                     _TRISDbits	set	143
  2428  0476                     _TRISC6	set	1142
  2429  0477                     _TRISC7	set	1143
  2430  04CF                     _SPLLEN	set	1231
  2431  04CE                     _IRCF3	set	1230
  2432  04CD                     _IRCF2	set	1229
  2433  04CC                     _IRCF1	set	1228
  2434  04CB                     _IRCF0	set	1227
  2435  04C9                     _SCS1	set	1225
  2436  04C8                     _SCS0	set	1224
  2437  010F                     _LATDbits	set	271
  2438  018D                     _ANSELBbits	set	397
  2439  018F                     _ANSELD	set	399
  2440  019A                     _TX1REG	set	410
  2441  0199                     _RC1REG	set	409
  2442  019D                     _RC1STAbits	set	413
  2443  019B                     _SPBRG	set	411
  2444  0CF5                     _TXEN	set	3317
  2445  0CEC                     _CREN	set	3308
  2446  0CEF                     _SPEN	set	3311
  2447  0CF4                     _SYNC	set	3316
  2448  0CF2                     _BRGH	set	3314
  2449  0216                     _SSPCON2bits	set	534
  2450  0211                     _SSPBUF	set	529
  2451  0212                     _SSPADD	set	530
  2452  0215                     _SSPCONbits	set	533
  2453  0E24                     _RXPPSbits	set	3620
  2454  0E0F                     _PPSLOCKbits	set	3599
  2455  0E0F                     _PPSLOCK	set	3599
  2456  0E9A                     _RB2PPSbits	set	3738
  2457  0B28                     STR_8:	
  2458  0B28  3425               	retlw	37	;'%'
  2459  0B29  346C               	retlw	108	;'l'
  2460  0B2A  3475               	retlw	117	;'u'
  2461  0B2B  342E               	retlw	46	;'.'
  2462  0B2C  3425               	retlw	37	;'%'
  2463  0B2D  3436               	retlw	54	;'6'
  2464  0B2E  342E               	retlw	46	;'.'
  2465  0B2F  3436               	retlw	54	;'6'
  2466  0B30  346C               	retlw	108	;'l'
  2467  0B31  3475               	retlw	117	;'u'
  2468  0B32  3400               	retlw	0
  2469  0B33                     STR_5:	
  2470  0B33  344C               	retlw	76	;'L'
  2471  0B34  3445               	retlw	69	;'E'
  2472  0B35  3444               	retlw	68	;'D'
  2473  0B36  3420               	retlw	32	;' '
  2474  0B37  344F               	retlw	79	;'O'
  2475  0B38  3446               	retlw	70	;'F'
  2476  0B39  3446               	retlw	70	;'F'
  2477  0B3A  3400               	retlw	0
  2478  0B3B                     STR_4:	
  2479  0B3B  344C               	retlw	76	;'L'
  2480  0B3C  3445               	retlw	69	;'E'
  2481  0B3D  3444               	retlw	68	;'D'
  2482  0B3E  3420               	retlw	32	;' '
  2483  0B3F  344F               	retlw	79	;'O'
  2484  0B40  344E               	retlw	78	;'N'
  2485  0B41  3400               	retlw	0
  2486  0B42                     STR_6:	
  2487  0B42  3420               	retlw	32	;' '
  2488  0B43  3420               	retlw	32	;' '
  2489  0B44  3420               	retlw	32	;' '
  2490  0B45  3420               	retlw	32	;' '
  2491  0B46  3420               	retlw	32	;' '
  2492  0B47  3400               	retlw	0
  2493  0B48                     STR_1:	
  2494  0B48  3453               	retlw	83	;'S'
  2495  0B49  3474               	retlw	116	;'t'
  2496  0B4A  3461               	retlw	97	;'a'
  2497  0B4B  3472               	retlw	114	;'r'
  2498  0B4C  3474               	retlw	116	;'t'
  2499  0B4D  3400               	retlw	0
  2500  0B42                     
  2501                           ; #config settings
  2502  0000                     
  2503                           	psect	cinit
  2504  07F6                     start_initialization:	
  2505  07F6                     __initialization:	
  2506                           
  2507                           ; Clear objects allocated to BANK0
  2508  07F6  3049               	movlw	low __pbssBANK0
  2509  07F7  0084               	movwf	4
  2510  07F8  3000               	movlw	high __pbssBANK0
  2511  07F9  0085               	movwf	5
  2512  07FA  3011               	movlw	17
  2513  07FB  3185  254E         	fcall	clear_ram0
  2514  07FD                     end_of_initialization:	
  2515                           ;End of C runtime variable initialization code
  2516                           
  2517  07FD                     __end_of__initialization:	
  2518  07FD  0020               	movlb	0
  2519  07FE  3186  2E7C         	ljmp	_main	;jump to C main() function
  2520                           
  2521                           	psect	bssBANK0
  2522  0049                     __pbssBANK0:	
  2523  0049                     ftoa@buf:	
  2524  0049                     	ds	17
  2525                           
  2526                           	psect	clrtext
  2527  054E                     clear_ram0:	
  2528                           ;	Called with FSR0 containing the base address, and
  2529                           ;	WREG with the size to clear
  2530                           
  2531  054E  0064               	clrwdt	;clear the watchdog before getting into this loop
  2532  054F                     clrloop0:	
  2533  054F  0180               	clrf	0	;clear RAM location pointed to by FSR
  2534  0550  3101               	addfsr 0,1
  2535  0551  0B89               	decfsz	9,f	;Have we reached the end of clearing yet?
  2536  0552  2D4F               	goto	clrloop0	;have we reached the end yet?
  2537  0553  3400               	retlw	0	;all done for this memory range, return
  2538                           
  2539                           	psect	cstackCOMMON
  2540  0070                     __pcstackCOMMON:	
  2541  0070                     ?_strchr:	
  2542  0070                     ?_internal_16:	
  2543                           ; 1 bytes @ 0x0
  2544                           
  2545  0070                     ??_internal_16:	
  2546                           ; 1 bytes @ 0x0
  2547                           
  2548  0070                     ?_EUSART_Read:	
  2549                           ; 1 bytes @ 0x0
  2550                           
  2551  0070                     ??_EUSART_Read:	
  2552                           ; 1 bytes @ 0x0
  2553                           
  2554  0070                     ?_EUSART_Write:	
  2555                           ; 1 bytes @ 0x0
  2556                           
  2557  0070                     ??_EUSART_Write:	
  2558                           ; 1 bytes @ 0x0
  2559                           
  2560  0070                     ?_EUSART_Read_Text:	
  2561                           ; 1 bytes @ 0x0
  2562                           
  2563  0070                     ?_initMain:	
  2564                           ; 1 bytes @ 0x0
  2565                           
  2566  0070                     ??_initMain:	
  2567                           ; 1 bytes @ 0x0
  2568                           
  2569  0070                     ?_main:	
  2570                           ; 1 bytes @ 0x0
  2571                           
  2572  0070                     ?_strlen:	
  2573                           ; 1 bytes @ 0x0
  2574                           
  2575  0070                     ?___aldiv:	
  2576                           ; 2 bytes @ 0x0
  2577                           
  2578  0070                     EUSART_Write@txData:	
  2579                           ; 4 bytes @ 0x0
  2580                           
  2581  0070                     EUSART_Read_Text@length:	
  2582                           ; 1 bytes @ 0x0
  2583                           
  2584  0070                     strchr@chr:	
  2585                           ; 2 bytes @ 0x0
  2586                           
  2587  0070                     strlen@s:	
  2588                           ; 2 bytes @ 0x0
  2589                           
  2590  0070                     ___aldiv@divisor:	
  2591                           ; 2 bytes @ 0x0
  2592                           
  2593                           
  2594                           ; 4 bytes @ 0x0
  2595  0070                     	ds	1
  2596  0071                     ?_EUSART_Write_Text:	
  2597  0071                     EUSART_Write_Text@text:	
  2598                           ; 1 bytes @ 0x1
  2599                           
  2600                           
  2601                           ; 2 bytes @ 0x1
  2602  0071                     	ds	1
  2603  0072                     ??_strlen:	
  2604  0072                     ??_strchr:	
  2605                           ; 1 bytes @ 0x2
  2606                           
  2607  0072                     ??_EUSART_Read_Text:	
  2608                           ; 1 bytes @ 0x2
  2609                           
  2610  0072                     strchr@ptr:	
  2611                           ; 1 bytes @ 0x2
  2612                           
  2613                           
  2614                           ; 1 bytes @ 0x2
  2615  0072                     	ds	1
  2616  0073                     ??_EUSART_Write_Text:	
  2617                           
  2618                           ; 1 bytes @ 0x3
  2619  0073                     	ds	1
  2620  0074                     EUSART_Read_Text@Output:	
  2621  0074                     EUSART_Write_Text@i:	
  2622                           ; 1 bytes @ 0x4
  2623                           
  2624  0074                     strlen@cp:	
  2625                           ; 2 bytes @ 0x4
  2626                           
  2627  0074                     ___aldiv@dividend:	
  2628                           ; 2 bytes @ 0x4
  2629                           
  2630                           
  2631                           ; 4 bytes @ 0x4
  2632  0074                     	ds	1
  2633  0075                     EUSART_Read_Text@i_111:	
  2634                           
  2635                           ; 2 bytes @ 0x5
  2636  0075                     	ds	1
  2637  0076                     ?_strncmp:	
  2638  0076                     strncmp@s2:	
  2639                           ; 2 bytes @ 0x6
  2640                           
  2641                           
  2642                           ; 2 bytes @ 0x6
  2643  0076                     	ds	2
  2644  0078                     ??___aldiv:	
  2645  0078                     strncmp@len:	
  2646                           ; 1 bytes @ 0x8
  2647                           
  2648                           
  2649                           ; 2 bytes @ 0x8
  2650  0078                     	ds	1
  2651  0079                     EUSART_Initialize@x:	
  2652                           
  2653                           ; 2 bytes @ 0x9
  2654  0079                     	ds	1
  2655  007A                     ??_strncmp:	
  2656                           
  2657                           ; 1 bytes @ 0xA
  2658  007A                     	ds	2
  2659  007C                     strncmp@s1:	
  2660                           
  2661                           ; 1 bytes @ 0xC
  2662  007C                     	ds	1
  2663  007D                     strstr@s1:	
  2664                           
  2665                           ; 1 bytes @ 0xD
  2666  007D                     	ds	1
  2667                           
  2668                           	psect	cstackBANK0
  2669  0020                     __pcstackBANK0:	
  2670  0020                     ?_strstr:	
  2671  0020                     ___aldiv@counter:	
  2672                           ; 1 bytes @ 0x0
  2673                           
  2674  0020                     strstr@s2:	
  2675                           ; 1 bytes @ 0x0
  2676                           
  2677                           
  2678                           ; 2 bytes @ 0x0
  2679  0020                     	ds	1
  2680  0021                     ___aldiv@sign:	
  2681                           
  2682                           ; 1 bytes @ 0x1
  2683  0021                     	ds	1
  2684  0022                     ??_strstr:	
  2685  0022                     ___aldiv@quotient:	
  2686                           ; 1 bytes @ 0x2
  2687                           
  2688                           
  2689                           ; 4 bytes @ 0x2
  2690  0022                     	ds	4
  2691  0026                     ?_EUSART_Initialize:	
  2692  0026                     EUSART_Initialize@baudrate:	
  2693                           ; 1 bytes @ 0x6
  2694                           
  2695                           
  2696                           ; 4 bytes @ 0x6
  2697  0026                     	ds	4
  2698  002A                     ??_EUSART_Initialize:	
  2699                           
  2700                           ; 1 bytes @ 0xA
  2701  002A                     	ds	8
  2702  0032                     ??_main:	
  2703                           
  2704                           ; 1 bytes @ 0x12
  2705  0032                     	ds	1
  2706  0033                     main@buf:	
  2707                           
  2708                           ; 20 bytes @ 0x13
  2709  0033                     	ds	20
  2710  0047                     main@ON:	
  2711                           
  2712                           ; 1 bytes @ 0x27
  2713  0047                     	ds	1
  2714  0048                     main@OFF:	
  2715                           
  2716                           ; 1 bytes @ 0x28
  2717  0048                     	ds	1
  2718                           
  2719                           	psect	maintext
  2720  067C                     __pmaintext:	
  2721 ;;
  2722 ;;Main: autosize = 0, tempsize = 1, incstack = 0, save=0
  2723 ;;
  2724 ;; *************** function _main *****************
  2725 ;; Defined at:
  2726 ;;		line 90 in file "Main.c"
  2727 ;; Parameters:    Size  Location     Type
  2728 ;;		None
  2729 ;; Auto vars:     Size  Location     Type
  2730 ;;  buf            20   19[BANK0 ] unsigned char [20]
  2731 ;;  OFF             1   40[BANK0 ] PTR unsigned char 
  2732 ;;		 -> NULL(0), main@buf(20), 
  2733 ;;  ON              1   39[BANK0 ] PTR unsigned char 
  2734 ;;		 -> NULL(0), main@buf(20), 
  2735 ;; Return value:  Size  Location     Type
  2736 ;;                  1    wreg      void 
  2737 ;; Registers used:
  2738 ;;		wreg, fsr0l, fsr0h, fsr1l, fsr1h, status,2, status,0, pclath, cstack
  2739 ;; Tracked objects:
  2740 ;;		On entry : B1F/0
  2741 ;;		On exit  : 0/0
  2742 ;;		Unchanged: 0/0
  2743 ;; Data sizes:     COMMON   BANK0   BANK1   BANK2   BANK3   BANK4   BANK5   BANK6   BANK7   BANK8   BANK9  BANK10  BANK1
      +1  BANK12
  2744 ;;      Params:         0       0       0       0       0       0       0       0       0       0       0       0       
      +0       0
  2745 ;;      Locals:         0      22       0       0       0       0       0       0       0       0       0       0       
      +0       0
  2746 ;;      Temps:          0       1       0       0       0       0       0       0       0       0       0       0       
      +0       0
  2747 ;;      Totals:         0      23       0       0       0       0       0       0       0       0       0       0       
      +0       0
  2748 ;;Total ram usage:       23 bytes
  2749 ;; Hardware stack levels required when called:    2
  2750 ;; This function calls:
  2751 ;;		_EUSART_Initialize
  2752 ;;		_EUSART_Read_Text
  2753 ;;		_EUSART_Write_Text
  2754 ;;		_initMain
  2755 ;;		_strstr
  2756 ;; This function is called by:
  2757 ;;		Startup code after reset
  2758 ;; This function uses a non-reentrant model
  2759 ;;
  2760                           
  2761                           
  2762                           ;psect for function _main
  2763  067C                     _main:	
  2764                           
  2765                           ;Main.c: 91: initMain();
  2766                           
  2767                           ;incstack = 0
  2768                           ; Regs used in _main: [wreg-fsr1h+status,2+status,0+pclath+cstack]
  2769  067C  3185  25D8  3186   	fcall	_initMain
  2770                           
  2771                           ;Main.c: 94: EUSART_Initialize(9600);
  2772  067F  3000               	movlw	0
  2773  0680  0020               	movlb	0	; select bank0
  2774  0681  00A9               	movwf	EUSART_Initialize@baudrate+3
  2775  0682  3000               	movlw	0
  2776  0683  00A8               	movwf	EUSART_Initialize@baudrate+2
  2777  0684  3025               	movlw	37
  2778  0685  00A7               	movwf	EUSART_Initialize@baudrate+1
  2779  0686  3080               	movlw	128
  2780  0687  00A6               	movwf	EUSART_Initialize@baudrate
  2781  0688  3187  2750  3186   	fcall	_EUSART_Initialize
  2782  068B  2E95               	goto	l1274
  2783  068C                     l1280:	
  2784                           
  2785                           ;Main.c: 114: {
  2786                           ;Main.c: 115: EUSART_Write_Text("LED ON");
  2787  068C  303B               	movlw	low (STR_4| (0+32768))
  2788  068D  00F1               	movwf	EUSART_Write_Text@text
  2789  068E  308B               	movlw	high (STR_4| (0+32768))
  2790  068F  00F2               	movwf	EUSART_Write_Text@text+1
  2791  0690  3185  2584  3186   	fcall	_EUSART_Write_Text
  2792                           
  2793                           ;Main.c: 116: LATDbits.LATD1 = 1;
  2794  0693  0022               	movlb	2	; select bank2
  2795  0694  148F               	bsf	15,1	;volatile
  2796  0695                     l1274:	
  2797                           ;Main.c: 96: char buf[20];
  2798                           ;Main.c: 97: char* ON;
  2799                           ;Main.c: 98: char* OFF;
  2800                           ;Main.c: 100: while(1){
  2801                           
  2802                           ;Main.c: 117: }
  2803                           
  2804                           
  2805                           ;Main.c: 103: EUSART_Write_Text("Start");
  2806  0695  3048               	movlw	low (STR_1| (0+32768))
  2807  0696  00F1               	movwf	EUSART_Write_Text@text
  2808  0697  308B               	movlw	high (STR_1| (0+32768))
  2809  0698  00F2               	movwf	EUSART_Write_Text@text+1
  2810  0699  3185  2584  3186   	fcall	_EUSART_Write_Text
  2811                           
  2812                           ;Main.c: 106: EUSART_Read_Text(buf, 4);
  2813  069C  3004               	movlw	4
  2814  069D  00F0               	movwf	EUSART_Read_Text@length
  2815  069E  3000               	movlw	0
  2816  069F  00F1               	movwf	EUSART_Read_Text@length+1
  2817  06A0  3033               	movlw	(low (main@buf| 0))& (0+255)
  2818  06A1  3185  259E  3186   	fcall	_EUSART_Read_Text
  2819                           
  2820                           ;Main.c: 109: ON = strstr(buf, "ON");
  2821  06A4  303F               	movlw	low ((STR_4+4)| (0+32768))
  2822  06A5  0020               	movlb	0	; select bank0
  2823  06A6  00A0               	movwf	strstr@s2
  2824  06A7  308B               	movlw	high ((STR_4+4)| (0+32768))
  2825  06A8  00A1               	movwf	strstr@s2+1
  2826  06A9  3033               	movlw	(low (main@buf| 0))& (0+255)
  2827  06AA  3186  2600  3186   	fcall	_strstr
  2828  06AD  0020               	movlb	0	; select bank0
  2829  06AE  00B2               	movwf	??_main
  2830  06AF  0832               	movf	??_main,w
  2831  06B0  00C7               	movwf	main@ON
  2832                           
  2833                           ;Main.c: 110: OFF = strstr(buf, "OFF");
  2834  06B1  3037               	movlw	low ((STR_5+4)| (0+32768))
  2835  06B2  00A0               	movwf	strstr@s2
  2836  06B3  308B               	movlw	high ((STR_5+4)| (0+32768))
  2837  06B4  00A1               	movwf	strstr@s2+1
  2838  06B5  3033               	movlw	(low (main@buf| 0))& (0+255)
  2839  06B6  3186  2600  3186   	fcall	_strstr
  2840  06B9  0020               	movlb	0	; select bank0
  2841  06BA  00B2               	movwf	??_main
  2842  06BB  0832               	movf	??_main,w
  2843  06BC  00C8               	movwf	main@OFF
  2844                           
  2845                           ;Main.c: 113: if (ON)
  2846  06BD  0847               	movf	main@ON,w
  2847  06BE  1D03               	btfss	3,2
  2848  06BF  2E8C               	goto	l1280
  2849                           
  2850                           ;Main.c: 120: else if(OFF)
  2851  06C0  0020               	movlb	0	; select bank0
  2852  06C1  0848               	movf	main@OFF,w
  2853  06C2  1903               	btfsc	3,2
  2854  06C3  2E95               	goto	l1274
  2855                           
  2856                           ;Main.c: 121: {
  2857                           ;Main.c: 122: EUSART_Write_Text("LED OFF");
  2858  06C4  3033               	movlw	low (STR_5| (0+32768))
  2859  06C5  00F1               	movwf	EUSART_Write_Text@text
  2860  06C6  308B               	movlw	high (STR_5| (0+32768))
  2861  06C7  00F2               	movwf	EUSART_Write_Text@text+1
  2862  06C8  3185  2584  3186   	fcall	_EUSART_Write_Text
  2863                           
  2864                           ;Main.c: 123: LATDbits.LATD1 = 0;
  2865  06CB  0022               	movlb	2	; select bank2
  2866  06CC  108F               	bcf	15,1	;volatile
  2867  06CD  2E95               	goto	l1274
  2868  06CE                     __end_of_main:	
  2869                           ;Main.c: 124: }
  2870                           ;Main.c: 125: }
  2871                           ;Main.c: 127: return;
  2872                           
  2873                           
  2874                           	psect	text1
  2875  0600                     __ptext1:	
  2876 ;; *************** function _strstr *****************
  2877 ;; Defined at:
  2878 ;;		line 4 in file "C:\Program Files (x86)\Microchip\xc8\v1.41\sources\common\strstr.c"
  2879 ;; Parameters:    Size  Location     Type
  2880 ;;  s1              1    wreg     PTR const unsigned char 
  2881 ;;		 -> NULL(0), main@buf(20), 
  2882 ;;  s2              2    0[BANK0 ] PTR const unsigned char 
  2883 ;;		 -> STR_3(4), STR_2(3), 
  2884 ;; Auto vars:     Size  Location     Type
  2885 ;;  s1              1   13[COMMON] PTR const unsigned char 
  2886 ;;		 -> NULL(0), main@buf(20), 
  2887 ;; Return value:  Size  Location     Type
  2888 ;;                  1    wreg      PTR unsigned char 
  2889 ;; Registers used:
  2890 ;;		wreg, fsr0l, fsr0h, fsr1l, fsr1h, status,2, status,0, pclath, cstack
  2891 ;; Tracked objects:
  2892 ;;		On entry : 0/0
  2893 ;;		On exit  : 0/0
  2894 ;;		Unchanged: 0/0
  2895 ;; Data sizes:     COMMON   BANK0   BANK1   BANK2   BANK3   BANK4   BANK5   BANK6   BANK7   BANK8   BANK9  BANK10  BANK1
      +1  BANK12
  2896 ;;      Params:         0       2       0       0       0       0       0       0       0       0       0       0       
      +0       0
  2897 ;;      Locals:         1       0       0       0       0       0       0       0       0       0       0       0       
      +0       0
  2898 ;;      Temps:          0       3       0       0       0       0       0       0       0       0       0       0       
      +0       0
  2899 ;;      Totals:         1       5       0       0       0       0       0       0       0       0       0       0       
      +0       0
  2900 ;;Total ram usage:        6 bytes
  2901 ;; Hardware stack levels used:    1
  2902 ;; Hardware stack levels required when called:    1
  2903 ;; This function calls:
  2904 ;;		_strchr
  2905 ;;		_strlen
  2906 ;;		_strncmp
  2907 ;; This function is called by:
  2908 ;;		_main
  2909 ;; This function uses a non-reentrant model
  2910 ;;
  2911                           
  2912                           
  2913                           ;psect for function _strstr
  2914  0600                     _strstr:	
  2915                           
  2916                           ;incstack = 0
  2917                           ; Regs used in _strstr: [wreg-fsr1h+status,2+status,0+pclath+cstack]
  2918                           ;strstr@s1 stored from wreg
  2919  0600  00FD               	movwf	strstr@s1
  2920  0601  2E31               	goto	l1264
  2921  0602                     l1256:	
  2922  0602  0020               	movlb	0	; select bank0
  2923  0603  0821               	movf	strstr@s2+1,w
  2924  0604  00F7               	movwf	strncmp@s2+1
  2925  0605  0820               	movf	strstr@s2,w
  2926  0606  00F6               	movwf	strncmp@s2
  2927  0607  0821               	movf	strstr@s2+1,w
  2928  0608  00F1               	movwf	strlen@s+1
  2929  0609  0820               	movf	strstr@s2,w
  2930  060A  00F0               	movwf	strlen@s
  2931  060B  3185  25BA  3186   	fcall	_strlen
  2932  060E  0871               	movf	?_strlen+1,w
  2933  060F  00F9               	movwf	strncmp@len+1
  2934  0610  0870               	movf	?_strlen,w
  2935  0611  00F8               	movwf	strncmp@len
  2936  0612  087D               	movf	strstr@s1,w
  2937  0613  3186  263C  3186   	fcall	_strncmp
  2938  0616  0876               	movf	?_strncmp,w
  2939  0617  0477               	iorwf	?_strncmp+1,w
  2940  0618  1D03               	btfss	3,2
  2941  0619  2E1C               	goto	l1262
  2942  061A  087D               	movf	strstr@s1,w
  2943  061B  0008               	return
  2944  061C                     l1262:	
  2945  061C  0020               	movlb	0	; select bank0
  2946  061D  0820               	movf	strstr@s2,w
  2947  061E  0084               	movwf	4
  2948  061F  0821               	movf	strstr@s2+1,w
  2949  0620  0085               	movwf	5
  2950  0621  0800               	movf	0,w	;code access
  2951  0622  00A2               	movwf	??_strstr
  2952  0623  01A3               	clrf	??_strstr+1
  2953  0624  0822               	movf	??_strstr,w
  2954  0625  00F0               	movwf	strchr@chr
  2955  0626  0823               	movf	??_strstr+1,w
  2956  0627  00F1               	movwf	strchr@chr+1
  2957  0628  087D               	movf	strstr@s1,w
  2958  0629  3E01               	addlw	1
  2959  062A  3185  2571  3186   	fcall	_strchr
  2960  062D  0020               	movlb	0	; select bank0
  2961  062E  00A4               	movwf	??_strstr+2
  2962  062F  0824               	movf	??_strstr+2,w
  2963  0630  00FD               	movwf	strstr@s1
  2964  0631                     l1264:	
  2965  0631  087D               	movf	strstr@s1,w
  2966  0632  1903               	btfsc	3,2
  2967  0633  2E3A               	goto	l1268
  2968  0634  087D               	movf	strstr@s1,w
  2969  0635  0086               	movwf	6
  2970  0636  0187               	clrf	7
  2971  0637  0801               	movf	1,w
  2972  0638  1D03               	btfss	3,2
  2973  0639  2E02               	goto	l1256
  2974  063A                     l1268:	
  2975  063A  3000               	movlw	0
  2976  063B  0008               	return
  2977  063C                     __end_of_strstr:	
  2978                           
  2979                           	psect	text2
  2980  063C                     __ptext2:	
  2981 ;; *************** function _strncmp *****************
  2982 ;; Defined at:
  2983 ;;		line 4 in file "C:\Program Files (x86)\Microchip\xc8\v1.41\sources\common\strncmp.c"
  2984 ;; Parameters:    Size  Location     Type
  2985 ;;  s1              1    wreg     PTR const unsigned char 
  2986 ;;		 -> NULL(0), main@buf(20), 
  2987 ;;  s2              2    6[COMMON] PTR const unsigned char 
  2988 ;;		 -> STR_3(4), STR_2(3), 
  2989 ;;  len             2    8[COMMON] unsigned int 
  2990 ;; Auto vars:     Size  Location     Type
  2991 ;;  s1              1   12[COMMON] PTR const unsigned char 
  2992 ;;		 -> NULL(0), main@buf(20), 
  2993 ;; Return value:  Size  Location     Type
  2994 ;;                  2    6[COMMON] int 
  2995 ;; Registers used:
  2996 ;;		wreg, fsr0l, fsr0h, fsr1l, fsr1h, status,2, status,0, pclath
  2997 ;; Tracked objects:
  2998 ;;		On entry : 0/0
  2999 ;;		On exit  : 0/0
  3000 ;;		Unchanged: 0/0
  3001 ;; Data sizes:     COMMON   BANK0   BANK1   BANK2   BANK3   BANK4   BANK5   BANK6   BANK7   BANK8   BANK9  BANK10  BANK1
      +1  BANK12
  3002 ;;      Params:         4       0       0       0       0       0       0       0       0       0       0       0       
      +0       0
  3003 ;;      Locals:         1       0       0       0       0       0       0       0       0       0       0       0       
      +0       0
  3004 ;;      Temps:          2       0       0       0       0       0       0       0       0       0       0       0       
      +0       0
  3005 ;;      Totals:         7       0       0       0       0       0       0       0       0       0       0       0       
      +0       0
  3006 ;;Total ram usage:        7 bytes
  3007 ;; Hardware stack levels used:    1
  3008 ;; This function calls:
  3009 ;;		Nothing
  3010 ;; This function is called by:
  3011 ;;		_strstr
  3012 ;; This function uses a non-reentrant model
  3013 ;;
  3014                           
  3015                           
  3016                           ;psect for function _strncmp
  3017  063C                     _strncmp:	
  3018                           
  3019                           ;incstack = 0
  3020                           ; Regs used in _strncmp: [wreg-fsr1h+status,2+status,0+pclath]
  3021                           ;strncmp@s1 stored from wreg
  3022  063C  00FC               	movwf	strncmp@s1
  3023  063D                     l1160:	
  3024  063D  3001               	movlw	1
  3025  063E  02F8               	subwf	strncmp@len,f
  3026  063F  3000               	movlw	0
  3027  0640  3BF9               	subwfb	strncmp@len+1,f
  3028  0641  0A78               	incf	strncmp@len,w
  3029  0642  1903               	btfsc	3,2
  3030  0643  0A79               	incf	strncmp@len+1,w
  3031  0644  1903               	btfsc	3,2
  3032  0645  2E79               	goto	l1162
  3033  0646  087C               	movf	strncmp@s1,w
  3034  0647  0086               	movwf	6
  3035  0648  0187               	clrf	7
  3036  0649  0801               	movf	1,w
  3037  064A  1903               	btfsc	3,2
  3038  064B  2E59               	goto	l1152
  3039  064C  0876               	movf	strncmp@s2,w
  3040  064D  0084               	movwf	4
  3041  064E  0877               	movf	strncmp@s2+1,w
  3042  064F  0085               	movwf	5
  3043  0650  0800               	movf	0,w	;code access
  3044  0651  00FA               	movwf	??_strncmp
  3045  0652  087C               	movf	strncmp@s1,w
  3046  0653  0086               	movwf	6
  3047  0654  0187               	clrf	7
  3048  0655  0801               	movf	1,w
  3049  0656  067A               	xorwf	??_strncmp,w
  3050  0657  1903               	skipnz
  3051  0658  2E70               	goto	l1156
  3052  0659                     l1152:	
  3053  0659  0876               	movf	strncmp@s2,w
  3054  065A  0084               	movwf	4
  3055  065B  0877               	movf	strncmp@s2+1,w
  3056  065C  0085               	movwf	5
  3057  065D  0800               	movf	0,w	;code access
  3058  065E  00FA               	movwf	??_strncmp
  3059  065F  01FB               	clrf	??_strncmp+1
  3060  0660  09FA               	comf	??_strncmp,f
  3061  0661  09FB               	comf	??_strncmp+1,f
  3062  0662  0AFA               	incf	??_strncmp,f
  3063  0663  1903               	skipnz
  3064  0664  0AFB               	incf	??_strncmp+1,f
  3065  0665  087C               	movf	strncmp@s1,w
  3066  0666  0086               	movwf	6
  3067  0667  0187               	clrf	7
  3068  0668  0801               	movf	1,w
  3069  0669  077A               	addwf	??_strncmp,w
  3070  066A  00F6               	movwf	?_strncmp
  3071  066B  087B               	movf	??_strncmp+1,w
  3072  066C  1803               	skipnc
  3073  066D  0A7B               	incf	??_strncmp+1,w
  3074  066E  00F7               	movwf	?_strncmp+1
  3075  066F  0008               	return
  3076  0670                     l1156:	
  3077  0670  3001               	movlw	1
  3078  0671  00FA               	movwf	??_strncmp
  3079  0672  087A               	movf	??_strncmp,w
  3080  0673  07FC               	addwf	strncmp@s1,f
  3081  0674  3001               	movlw	1
  3082  0675  07F6               	addwf	strncmp@s2,f
  3083  0676  3000               	movlw	0
  3084  0677  3DF7               	addwfc	strncmp@s2+1,f
  3085  0678  2E3D               	goto	l1160
  3086  0679                     l1162:	
  3087  0679  01F6               	clrf	?_strncmp
  3088  067A  01F7               	clrf	?_strncmp+1
  3089  067B  0008               	return
  3090  067C                     __end_of_strncmp:	
  3091                           
  3092                           	psect	text3
  3093  05BA                     __ptext3:	
  3094 ;; *************** function _strlen *****************
  3095 ;; Defined at:
  3096 ;;		line 4 in file "C:\Program Files (x86)\Microchip\xc8\v1.41\sources\common\strlen.c"
  3097 ;; Parameters:    Size  Location     Type
  3098 ;;  s               2    0[COMMON] PTR const unsigned char 
  3099 ;;		 -> STR_3(4), STR_2(3), 
  3100 ;; Auto vars:     Size  Location     Type
  3101 ;;  cp              2    4[COMMON] PTR const unsigned char 
  3102 ;;		 -> STR_3(4), STR_2(3), 
  3103 ;; Return value:  Size  Location     Type
  3104 ;;                  2    0[COMMON] unsigned int 
  3105 ;; Registers used:
  3106 ;;		wreg, fsr0l, fsr0h, status,2, status,0
  3107 ;; Tracked objects:
  3108 ;;		On entry : 0/0
  3109 ;;		On exit  : 0/0
  3110 ;;		Unchanged: 0/0
  3111 ;; Data sizes:     COMMON   BANK0   BANK1   BANK2   BANK3   BANK4   BANK5   BANK6   BANK7   BANK8   BANK9  BANK10  BANK1
      +1  BANK12
  3112 ;;      Params:         2       0       0       0       0       0       0       0       0       0       0       0       
      +0       0
  3113 ;;      Locals:         2       0       0       0       0       0       0       0       0       0       0       0       
      +0       0
  3114 ;;      Temps:          2       0       0       0       0       0       0       0       0       0       0       0       
      +0       0
  3115 ;;      Totals:         6       0       0       0       0       0       0       0       0       0       0       0       
      +0       0
  3116 ;;Total ram usage:        6 bytes
  3117 ;; Hardware stack levels used:    1
  3118 ;; This function calls:
  3119 ;;		Nothing
  3120 ;; This function is called by:
  3121 ;;		_strstr
  3122 ;; This function uses a non-reentrant model
  3123 ;;
  3124                           
  3125                           
  3126                           ;psect for function _strlen
  3127  05BA                     _strlen:	
  3128                           
  3129                           ;incstack = 0
  3130                           ; Regs used in _strlen: [wreg-fsr0h+status,2+status,0]
  3131  05BA  0871               	movf	strlen@s+1,w
  3132  05BB  00F5               	movwf	strlen@cp+1
  3133  05BC  0870               	movf	strlen@s,w
  3134  05BD  00F4               	movwf	strlen@cp
  3135  05BE                     l1140:	
  3136  05BE  0874               	movf	strlen@cp,w
  3137  05BF  0084               	movwf	4
  3138  05C0  0875               	movf	strlen@cp+1,w
  3139  05C1  0085               	movwf	5
  3140  05C2  0012               	moviw fsr0++
  3141  05C3  1903               	btfsc	3,2
  3142  05C4  2DCA               	goto	l1142
  3143  05C5  3001               	movlw	1
  3144  05C6  07F4               	addwf	strlen@cp,f
  3145  05C7  3000               	movlw	0
  3146  05C8  3DF5               	addwfc	strlen@cp+1,f
  3147  05C9  2DBE               	goto	l1140
  3148  05CA                     l1142:	
  3149  05CA  0970               	comf	strlen@s,w
  3150  05CB  00F2               	movwf	??_strlen
  3151  05CC  0971               	comf	strlen@s+1,w
  3152  05CD  00F3               	movwf	??_strlen+1
  3153  05CE  0AF2               	incf	??_strlen,f
  3154  05CF  1903               	skipnz
  3155  05D0  0AF3               	incf	??_strlen+1,f
  3156  05D1  0874               	movf	strlen@cp,w
  3157  05D2  0772               	addwf	??_strlen,w
  3158  05D3  00F0               	movwf	?_strlen
  3159  05D4  0875               	movf	strlen@cp+1,w
  3160  05D5  3D73               	addwfc	??_strlen+1,w
  3161  05D6  00F1               	movwf	?_strlen+1
  3162  05D7  0008               	return
  3163  05D8                     __end_of_strlen:	
  3164                           
  3165                           	psect	text4
  3166  0571                     __ptext4:	
  3167 ;; *************** function _strchr *****************
  3168 ;; Defined at:
  3169 ;;		line 4 in file "C:\Program Files (x86)\Microchip\xc8\v1.41\sources\common\strchr.c"
  3170 ;; Parameters:    Size  Location     Type
  3171 ;;  ptr             1    wreg     PTR const unsigned char 
  3172 ;;		 -> NULL(0), main@buf(20), 
  3173 ;;  chr             2    0[COMMON] int 
  3174 ;; Auto vars:     Size  Location     Type
  3175 ;;  ptr             1    2[COMMON] PTR const unsigned char 
  3176 ;;		 -> NULL(0), main@buf(20), 
  3177 ;; Return value:  Size  Location     Type
  3178 ;;                  1    wreg      PTR unsigned char 
  3179 ;; Registers used:
  3180 ;;		wreg, fsr1l, fsr1h, status,2, status,0
  3181 ;; Tracked objects:
  3182 ;;		On entry : 0/0
  3183 ;;		On exit  : 0/0
  3184 ;;		Unchanged: 0/0
  3185 ;; Data sizes:     COMMON   BANK0   BANK1   BANK2   BANK3   BANK4   BANK5   BANK6   BANK7   BANK8   BANK9  BANK10  BANK1
      +1  BANK12
  3186 ;;      Params:         2       0       0       0       0       0       0       0       0       0       0       0       
      +0       0
  3187 ;;      Locals:         1       0       0       0       0       0       0       0       0       0       0       0       
      +0       0
  3188 ;;      Temps:          0       0       0       0       0       0       0       0       0       0       0       0       
      +0       0
  3189 ;;      Totals:         3       0       0       0       0       0       0       0       0       0       0       0       
      +0       0
  3190 ;;Total ram usage:        3 bytes
  3191 ;; Hardware stack levels used:    1
  3192 ;; This function calls:
  3193 ;;		Nothing
  3194 ;; This function is called by:
  3195 ;;		_strstr
  3196 ;; This function uses a non-reentrant model
  3197 ;;
  3198                           
  3199                           
  3200                           ;psect for function _strchr
  3201  0571                     _strchr:	
  3202                           
  3203                           ;incstack = 0
  3204                           ; Regs used in _strchr: [wreg+fsr1l+fsr1h+status,2+status,0]
  3205                           ;strchr@ptr stored from wreg
  3206  0571  00F2               	movwf	strchr@ptr
  3207  0572                     l702:	
  3208  0572  0872               	movf	strchr@ptr,w
  3209  0573  0086               	movwf	6
  3210  0574  0187               	clrf	7
  3211  0575  0801               	movf	1,w
  3212  0576  0670               	xorwf	strchr@chr,w
  3213  0577  1D03               	skipz
  3214  0578  2D7B               	goto	l1172
  3215  0579  0872               	movf	strchr@ptr,w
  3216  057A  0008               	return
  3217  057B                     l1172:	
  3218  057B  0872               	movf	strchr@ptr,w
  3219  057C  0086               	movwf	6
  3220  057D  0187               	clrf	7
  3221  057E  0AF2               	incf	strchr@ptr,f
  3222  057F  0801               	movf	1,w
  3223  0580  1D03               	btfss	3,2
  3224  0581  2D72               	goto	l702
  3225  0582  3000               	movlw	0
  3226  0583  0008               	return
  3227  0584                     __end_of_strchr:	
  3228                           
  3229                           	psect	text5
  3230  05D8                     __ptext5:	
  3231 ;; *************** function _initMain *****************
  3232 ;; Defined at:
  3233 ;;		line 44 in file "Main.c"
  3234 ;; Parameters:    Size  Location     Type
  3235 ;;		None
  3236 ;; Auto vars:     Size  Location     Type
  3237 ;;		None
  3238 ;; Return value:  Size  Location     Type
  3239 ;;                  1    wreg      void 
  3240 ;; Registers used:
  3241 ;;		wreg, status,2, status,0, pclath, cstack
  3242 ;; Tracked objects:
  3243 ;;		On entry : 0/0
  3244 ;;		On exit  : 0/0
  3245 ;;		Unchanged: 0/0
  3246 ;; Data sizes:     COMMON   BANK0   BANK1   BANK2   BANK3   BANK4   BANK5   BANK6   BANK7   BANK8   BANK9  BANK10  BANK1
      +1  BANK12
  3247 ;;      Params:         0       0       0       0       0       0       0       0       0       0       0       0       
      +0       0
  3248 ;;      Locals:         0       0       0       0       0       0       0       0       0       0       0       0       
      +0       0
  3249 ;;      Temps:          0       0       0       0       0       0       0       0       0       0       0       0       
      +0       0
  3250 ;;      Totals:         0       0       0       0       0       0       0       0       0       0       0       0       
      +0       0
  3251 ;;Total ram usage:        0 bytes
  3252 ;; Hardware stack levels used:    1
  3253 ;; Hardware stack levels required when called:    1
  3254 ;; This function calls:
  3255 ;;		_internal_16
  3256 ;; This function is called by:
  3257 ;;		_main
  3258 ;; This function uses a non-reentrant model
  3259 ;;
  3260                           
  3261                           
  3262                           ;psect for function _initMain
  3263  05D8                     _initMain:	
  3264                           
  3265                           ;Main.c: 46: internal_16();
  3266                           
  3267                           ;incstack = 0
  3268                           ; Regs used in _initMain: [wreg+status,2+status,0+pclath+cstack]
  3269  05D8  3185  255C         	fcall	_internal_16
  3270                           
  3271                           ;Main.c: 49: TRISDbits.TRISD1 = 0;
  3272  05DA  0021               	movlb	1	; select bank1
  3273  05DB  108F               	bcf	15,1	;volatile
  3274                           
  3275                           ;Main.c: 52: LATDbits.LATD1 = 0;
  3276  05DC  0022               	movlb	2	; select bank2
  3277  05DD  108F               	bcf	15,1	;volatile
  3278                           
  3279                           ;Main.c: 55: TRISD = 0;
  3280  05DE  0021               	movlb	1	; select bank1
  3281  05DF  018F               	clrf	15	;volatile
  3282                           
  3283                           ;Main.c: 56: ANSELD = 0;
  3284  05E0  0023               	movlb	3	; select bank3
  3285  05E1  018F               	clrf	15	;volatile
  3286                           
  3287                           ;Main.c: 59: TRISBbits.TRISB2 = 0;
  3288  05E2  0021               	movlb	1	; select bank1
  3289  05E3  110D               	bcf	13,2	;volatile
  3290                           
  3291                           ;Main.c: 60: ANSELBbits.ANSB2 = 0;
  3292  05E4  0023               	movlb	3	; select bank3
  3293  05E5  110D               	bcf	13,2	;volatile
  3294                           
  3295                           ;Main.c: 62: TRISBbits.TRISB3 = 1;
  3296  05E6  0021               	movlb	1	; select bank1
  3297  05E7  158D               	bsf	13,3	;volatile
  3298                           
  3299                           ;Main.c: 63: ANSELBbits.ANSB3 = 0;
  3300  05E8  0023               	movlb	3	; select bank3
  3301  05E9  118D               	bcf	13,3	;volatile
  3302                           
  3303                           ;Main.c: 69: PPSLOCK = 0x55;
  3304  05EA  3055               	movlw	85
  3305  05EB  003C               	movlb	28	; select bank28
  3306  05EC  008F               	movwf	15	;volatile
  3307                           
  3308                           ;Main.c: 70: PPSLOCK = 0xAA;
  3309  05ED  30AA               	movlw	170
  3310  05EE  008F               	movwf	15	;volatile
  3311                           
  3312                           ;Main.c: 71: PPSLOCKbits.PPSLOCKED = 0x00;
  3313  05EF  100F               	bcf	15,0	;volatile
  3314                           
  3315                           ;Main.c: 73: RB2PPSbits.RB2PPS = 0x14;
  3316  05F0  003D               	movlb	29	; select bank29
  3317  05F1  081A               	movf	26,w	;volatile
  3318  05F2  39E0               	andlw	-32
  3319  05F3  3814               	iorlw	20
  3320  05F4  009A               	movwf	26	;volatile
  3321                           
  3322                           ;Main.c: 74: RXPPSbits.RXPPS = 0x0B;
  3323  05F5  003C               	movlb	28	; select bank28
  3324  05F6  0824               	movf	36,w	;volatile
  3325  05F7  39E0               	andlw	-32
  3326  05F8  380B               	iorlw	11
  3327  05F9  00A4               	movwf	36	;volatile
  3328                           
  3329                           ;Main.c: 76: PPSLOCK = 0x55;
  3330  05FA  3055               	movlw	85
  3331  05FB  008F               	movwf	15	;volatile
  3332                           
  3333                           ;Main.c: 77: PPSLOCK = 0xAA;
  3334  05FC  30AA               	movlw	170
  3335  05FD  008F               	movwf	15	;volatile
  3336                           
  3337                           ;Main.c: 78: PPSLOCKbits.PPSLOCKED = 0x01;
  3338  05FE  140F               	bsf	15,0	;volatile
  3339  05FF  0008               	return
  3340  0600                     __end_of_initMain:	
  3341                           
  3342                           	psect	text6
  3343  055C                     __ptext6:	
  3344 ;; *************** function _internal_16 *****************
  3345 ;; Defined at:
  3346 ;;		line 56 in file "16F1717_Internal.c"
  3347 ;; Parameters:    Size  Location     Type
  3348 ;;		None
  3349 ;; Auto vars:     Size  Location     Type
  3350 ;;		None
  3351 ;; Return value:  Size  Location     Type
  3352 ;;                  1    wreg      void 
  3353 ;; Registers used:
  3354 ;;		None
  3355 ;; Tracked objects:
  3356 ;;		On entry : 0/0
  3357 ;;		On exit  : 0/0
  3358 ;;		Unchanged: 0/0
  3359 ;; Data sizes:     COMMON   BANK0   BANK1   BANK2   BANK3   BANK4   BANK5   BANK6   BANK7   BANK8   BANK9  BANK10  BANK1
      +1  BANK12
  3360 ;;      Params:         0       0       0       0       0       0       0       0       0       0       0       0       
      +0       0
  3361 ;;      Locals:         0       0       0       0       0       0       0       0       0       0       0       0       
      +0       0
  3362 ;;      Temps:          0       0       0       0       0       0       0       0       0       0       0       0       
      +0       0
  3363 ;;      Totals:         0       0       0       0       0       0       0       0       0       0       0       0       
      +0       0
  3364 ;;Total ram usage:        0 bytes
  3365 ;; Hardware stack levels used:    1
  3366 ;; This function calls:
  3367 ;;		Nothing
  3368 ;; This function is called by:
  3369 ;;		_initMain
  3370 ;; This function uses a non-reentrant model
  3371 ;;
  3372                           
  3373                           
  3374                           ;psect for function _internal_16
  3375  055C                     _internal_16:	
  3376                           
  3377                           ;16F1717_Internal.c: 58: SCS0 = 0;
  3378                           
  3379                           ;incstack = 0
  3380                           ; Regs used in _internal_16: []
  3381  055C  0021               	movlb	1	; select bank1
  3382  055D  1019               	bcf	25,0	;volatile
  3383                           
  3384                           ;16F1717_Internal.c: 59: SCS1 = 0;
  3385  055E  1099               	bcf	25,1	;volatile
  3386                           
  3387                           ;16F1717_Internal.c: 62: IRCF0 = 1;
  3388  055F  1599               	bsf	25,3	;volatile
  3389                           
  3390                           ;16F1717_Internal.c: 63: IRCF1 = 1;
  3391  0560  1619               	bsf	25,4	;volatile
  3392                           
  3393                           ;16F1717_Internal.c: 64: IRCF2 = 1;
  3394  0561  1699               	bsf	25,5	;volatile
  3395                           
  3396                           ;16F1717_Internal.c: 65: IRCF3 = 1;
  3397  0562  1719               	bsf	25,6	;volatile
  3398                           
  3399                           ;16F1717_Internal.c: 68: SPLLEN = 0;
  3400  0563  1399               	bcf	25,7	;volatile
  3401  0564  0008               	return
  3402  0565                     __end_of_internal_16:	
  3403                           
  3404                           	psect	text7
  3405  0584                     __ptext7:	
  3406 ;; *************** function _EUSART_Write_Text *****************
  3407 ;; Defined at:
  3408 ;;		line 125 in file "EUSART.c"
  3409 ;; Parameters:    Size  Location     Type
  3410 ;;  text            2    1[COMMON] PTR unsigned char 
  3411 ;;		 -> STR_5(8), STR_4(7), STR_1(6), 
  3412 ;; Auto vars:     Size  Location     Type
  3413 ;;  i               2    4[COMMON] int 
  3414 ;; Return value:  Size  Location     Type
  3415 ;;                  1    wreg      void 
  3416 ;; Registers used:
  3417 ;;		wreg, fsr0l, fsr0h, status,2, status,0, pclath, cstack
  3418 ;; Tracked objects:
  3419 ;;		On entry : 0/0
  3420 ;;		On exit  : 0/0
  3421 ;;		Unchanged: 0/0
  3422 ;; Data sizes:     COMMON   BANK0   BANK1   BANK2   BANK3   BANK4   BANK5   BANK6   BANK7   BANK8   BANK9  BANK10  BANK1
      +1  BANK12
  3423 ;;      Params:         2       0       0       0       0       0       0       0       0       0       0       0       
      +0       0
  3424 ;;      Locals:         2       0       0       0       0       0       0       0       0       0       0       0       
      +0       0
  3425 ;;      Temps:          1       0       0       0       0       0       0       0       0       0       0       0       
      +0       0
  3426 ;;      Totals:         5       0       0       0       0       0       0       0       0       0       0       0       
      +0       0
  3427 ;;Total ram usage:        5 bytes
  3428 ;; Hardware stack levels used:    1
  3429 ;; Hardware stack levels required when called:    1
  3430 ;; This function calls:
  3431 ;;		_EUSART_Write
  3432 ;; This function is called by:
  3433 ;;		_main
  3434 ;; This function uses a non-reentrant model
  3435 ;;
  3436                           
  3437                           
  3438                           ;psect for function _EUSART_Write_Text
  3439  0584                     _EUSART_Write_Text:	
  3440                           
  3441                           ;EUSART.c: 127: int i;
  3442                           ;EUSART.c: 128: for(i=0;text[i]!='\0';i++)
  3443                           
  3444                           ;incstack = 0
  3445                           ; Regs used in _EUSART_Write_Text: [wreg-fsr0h+status,2+status,0+pclath+cstack]
  3446  0584  01F4               	clrf	EUSART_Write_Text@i
  3447  0585  01F5               	clrf	EUSART_Write_Text@i+1
  3448  0586                     l1218:	
  3449  0586  0871               	movf	EUSART_Write_Text@text,w
  3450  0587  0774               	addwf	EUSART_Write_Text@i,w
  3451  0588  0084               	movwf	4
  3452  0589  0872               	movf	EUSART_Write_Text@text+1,w
  3453  058A  3D75               	addwfc	EUSART_Write_Text@i+1,w
  3454  058B  0085               	movwf	5
  3455  058C  0012               	moviw fsr0++
  3456  058D  1903               	btfsc	3,2
  3457  058E  0008               	return
  3458                           
  3459                           ;EUSART.c: 129: EUSART_Write(text[i]);
  3460  058F  0871               	movf	EUSART_Write_Text@text,w
  3461  0590  0774               	addwf	EUSART_Write_Text@i,w
  3462  0591  0084               	movwf	4
  3463  0592  0872               	movf	EUSART_Write_Text@text+1,w
  3464  0593  3D75               	addwfc	EUSART_Write_Text@i+1,w
  3465  0594  0085               	movwf	5
  3466  0595  0800               	movf	0,w	;code access
  3467  0596  3185  2554  3185   	fcall	_EUSART_Write
  3468  0599  3001               	movlw	1
  3469  059A  07F4               	addwf	EUSART_Write_Text@i,f
  3470  059B  3000               	movlw	0
  3471  059C  3DF5               	addwfc	EUSART_Write_Text@i+1,f
  3472  059D  2D86               	goto	l1218
  3473  059E                     __end_of_EUSART_Write_Text:	
  3474                           
  3475                           	psect	text8
  3476  0554                     __ptext8:	
  3477 ;; *************** function _EUSART_Write *****************
  3478 ;; Defined at:
  3479 ;;		line 98 in file "EUSART.c"
  3480 ;; Parameters:    Size  Location     Type
  3481 ;;  txData          1    wreg     unsigned char 
  3482 ;; Auto vars:     Size  Location     Type
  3483 ;;  txData          1    0[COMMON] unsigned char 
  3484 ;; Return value:  Size  Location     Type
  3485 ;;                  1    wreg      void 
  3486 ;; Registers used:
  3487 ;;		wreg
  3488 ;; Tracked objects:
  3489 ;;		On entry : 0/0
  3490 ;;		On exit  : 0/0
  3491 ;;		Unchanged: 0/0
  3492 ;; Data sizes:     COMMON   BANK0   BANK1   BANK2   BANK3   BANK4   BANK5   BANK6   BANK7   BANK8   BANK9  BANK10  BANK1
      +1  BANK12
  3493 ;;      Params:         0       0       0       0       0       0       0       0       0       0       0       0       
      +0       0
  3494 ;;      Locals:         1       0       0       0       0       0       0       0       0       0       0       0       
      +0       0
  3495 ;;      Temps:          0       0       0       0       0       0       0       0       0       0       0       0       
      +0       0
  3496 ;;      Totals:         1       0       0       0       0       0       0       0       0       0       0       0       
      +0       0
  3497 ;;Total ram usage:        1 bytes
  3498 ;; Hardware stack levels used:    1
  3499 ;; This function calls:
  3500 ;;		Nothing
  3501 ;; This function is called by:
  3502 ;;		_EUSART_Write_Text
  3503 ;; This function uses a non-reentrant model
  3504 ;;
  3505                           
  3506                           
  3507                           ;psect for function _EUSART_Write
  3508  0554                     _EUSART_Write:	
  3509                           
  3510                           ;incstack = 0
  3511                           ; Regs used in _EUSART_Write: [wreg]
  3512                           ;EUSART_Write@txData stored from wreg
  3513  0554  00F0               	movwf	EUSART_Write@txData
  3514  0555                     l74:	
  3515                           ;EUSART.c: 101: {
  3516                           
  3517                           ;EUSART.c: 100: while(0 == PIR1bits.TXIF)
  3518                           
  3519  0555  0020               	movlb	0	; select bank0
  3520  0556  1E11               	btfss	17,4	;volatile
  3521  0557  2D55               	goto	l74
  3522                           
  3523                           ;EUSART.c: 102: }
  3524                           ;EUSART.c: 104: TX1REG = txData;
  3525  0558  0870               	movf	EUSART_Write@txData,w
  3526  0559  0023               	movlb	3	; select bank3
  3527  055A  009A               	movwf	26	;volatile
  3528  055B  0008               	return
  3529  055C                     __end_of_EUSART_Write:	
  3530                           
  3531                           	psect	text9
  3532  059E                     __ptext9:	
  3533 ;; *************** function _EUSART_Read_Text *****************
  3534 ;; Defined at:
  3535 ;;		line 107 in file "EUSART.c"
  3536 ;; Parameters:    Size  Location     Type
  3537 ;;  Output          1    wreg     PTR unsigned char 
  3538 ;;		 -> main@buf(20), 
  3539 ;;  length          2    0[COMMON] unsigned int 
  3540 ;; Auto vars:     Size  Location     Type
  3541 ;;  Output          1    4[COMMON] PTR unsigned char 
  3542 ;;		 -> main@buf(20), 
  3543 ;;  i               2    5[COMMON] int 
  3544 ;;  i               2    0        int 
  3545 ;; Return value:  Size  Location     Type
  3546 ;;                  1    wreg      void 
  3547 ;; Registers used:
  3548 ;;		wreg, fsr1l, fsr1h, status,2, status,0, pclath, cstack
  3549 ;; Tracked objects:
  3550 ;;		On entry : 0/0
  3551 ;;		On exit  : 0/0
  3552 ;;		Unchanged: 0/0
  3553 ;; Data sizes:     COMMON   BANK0   BANK1   BANK2   BANK3   BANK4   BANK5   BANK6   BANK7   BANK8   BANK9  BANK10  BANK1
      +1  BANK12
  3554 ;;      Params:         2       0       0       0       0       0       0       0       0       0       0       0       
      +0       0
  3555 ;;      Locals:         3       0       0       0       0       0       0       0       0       0       0       0       
      +0       0
  3556 ;;      Temps:          2       0       0       0       0       0       0       0       0       0       0       0       
      +0       0
  3557 ;;      Totals:         7       0       0       0       0       0       0       0       0       0       0       0       
      +0       0
  3558 ;;Total ram usage:        7 bytes
  3559 ;; Hardware stack levels used:    1
  3560 ;; Hardware stack levels required when called:    1
  3561 ;; This function calls:
  3562 ;;		_EUSART_Read
  3563 ;; This function is called by:
  3564 ;;		_main
  3565 ;; This function uses a non-reentrant model
  3566 ;;
  3567                           
  3568                           
  3569                           ;psect for function _EUSART_Read_Text
  3570  059E                     _EUSART_Read_Text:	
  3571                           
  3572                           ;incstack = 0
  3573                           ; Regs used in _EUSART_Read_Text: [wreg+fsr1l+fsr1h+status,2+status,0+pclath+cstack]
  3574                           ;EUSART_Read_Text@Output stored from wreg
  3575  059E  00F4               	movwf	EUSART_Read_Text@Output
  3576                           
  3577                           ;EUSART.c: 109: int i;
  3578                           ;EUSART.c: 110: for(int i=0;i<length;i++)
  3579  059F  01F5               	clrf	EUSART_Read_Text@i_111
  3580  05A0  01F6               	clrf	EUSART_Read_Text@i_111+1
  3581  05A1                     l1210:	
  3582  05A1  0871               	movf	EUSART_Read_Text@length+1,w
  3583  05A2  0276               	subwf	EUSART_Read_Text@i_111+1,w
  3584  05A3  1D03               	skipz
  3585  05A4  2DA7               	goto	u765
  3586  05A5  0870               	movf	EUSART_Read_Text@length,w
  3587  05A6  0275               	subwf	EUSART_Read_Text@i_111,w
  3588  05A7                     u765:	
  3589  05A7  1803               	btfsc	3,0
  3590  05A8  0008               	return
  3591                           
  3592                           ;EUSART.c: 111: Output[i] = EUSART_Read();
  3593  05A9  3185  2565  3185   	fcall	_EUSART_Read
  3594  05AC  00F2               	movwf	??_EUSART_Read_Text
  3595  05AD  0875               	movf	EUSART_Read_Text@i_111,w
  3596  05AE  0774               	addwf	EUSART_Read_Text@Output,w
  3597  05AF  00F3               	movwf	??_EUSART_Read_Text+1
  3598  05B0  0873               	movf	??_EUSART_Read_Text+1,w
  3599  05B1  0086               	movwf	6
  3600  05B2  0187               	clrf	7
  3601  05B3  0872               	movf	??_EUSART_Read_Text,w
  3602  05B4  0081               	movwf	1
  3603  05B5  3001               	movlw	1
  3604  05B6  07F5               	addwf	EUSART_Read_Text@i_111,f
  3605  05B7  3000               	movlw	0
  3606  05B8  3DF6               	addwfc	EUSART_Read_Text@i_111+1,f
  3607  05B9  2DA1               	goto	l1210
  3608  05BA                     __end_of_EUSART_Read_Text:	
  3609                           
  3610                           	psect	text10
  3611  0565                     __ptext10:	
  3612 ;; *************** function _EUSART_Read *****************
  3613 ;; Defined at:
  3614 ;;		line 68 in file "EUSART.c"
  3615 ;; Parameters:    Size  Location     Type
  3616 ;;		None
  3617 ;; Auto vars:     Size  Location     Type
  3618 ;;		None
  3619 ;; Return value:  Size  Location     Type
  3620 ;;                  1    wreg      unsigned char 
  3621 ;; Registers used:
  3622 ;;		wreg
  3623 ;; Tracked objects:
  3624 ;;		On entry : 0/0
  3625 ;;		On exit  : 0/0
  3626 ;;		Unchanged: 0/0
  3627 ;; Data sizes:     COMMON   BANK0   BANK1   BANK2   BANK3   BANK4   BANK5   BANK6   BANK7   BANK8   BANK9  BANK10  BANK1
      +1  BANK12
  3628 ;;      Params:         0       0       0       0       0       0       0       0       0       0       0       0       
      +0       0
  3629 ;;      Locals:         0       0       0       0       0       0       0       0       0       0       0       0       
      +0       0
  3630 ;;      Temps:          0       0       0       0       0       0       0       0       0       0       0       0       
      +0       0
  3631 ;;      Totals:         0       0       0       0       0       0       0       0       0       0       0       0       
      +0       0
  3632 ;;Total ram usage:        0 bytes
  3633 ;; Hardware stack levels used:    1
  3634 ;; This function calls:
  3635 ;;		Nothing
  3636 ;; This function is called by:
  3637 ;;		_EUSART_Read_Text
  3638 ;; This function uses a non-reentrant model
  3639 ;;
  3640                           
  3641                           
  3642                           ;psect for function _EUSART_Read
  3643  0565                     _EUSART_Read:	
  3644                           
  3645                           ;EUSART.c: 71: RC1STAbits.SREN = 1;
  3646                           
  3647                           ;incstack = 0
  3648                           ; Regs used in _EUSART_Read: [wreg]
  3649  0565  0023               	movlb	3	; select bank3
  3650  0566  169D               	bsf	29,5	;volatile
  3651  0567                     l67:	
  3652                           ;EUSART.c: 73: {
  3653                           
  3654                           ;EUSART.c: 72: while(!PIR1bits.RCIF)
  3655                           
  3656  0567  0020               	movlb	0	; select bank0
  3657  0568  1E91               	btfss	17,5	;volatile
  3658  0569  2D67               	goto	l67
  3659                           
  3660                           ;EUSART.c: 74: }
  3661                           ;EUSART.c: 77: if(1 == RC1STAbits.OERR)
  3662  056A  0023               	movlb	3	; select bank3
  3663  056B  1C9D               	btfss	29,1	;volatile
  3664  056C  2D6F               	goto	l1088
  3665                           
  3666                           ;EUSART.c: 78: {
  3667                           ;EUSART.c: 81: RC1STAbits.SPEN = 0;
  3668  056D  139D               	bcf	29,7	;volatile
  3669                           
  3670                           ;EUSART.c: 82: RC1STAbits.SPEN = 1;
  3671  056E  179D               	bsf	29,7	;volatile
  3672  056F                     l1088:	
  3673                           
  3674                           ;EUSART.c: 83: }
  3675                           ;EUSART.c: 85: return RC1REG;
  3676  056F  0819               	movf	25,w	;volatile
  3677  0570  0008               	return
  3678  0571                     __end_of_EUSART_Read:	
  3679                           
  3680                           	psect	text11
  3681  0750                     __ptext11:	
  3682 ;; *************** function _EUSART_Initialize *****************
  3683 ;; Defined at:
  3684 ;;		line 34 in file "EUSART.c"
  3685 ;; Parameters:    Size  Location     Type
  3686 ;;  baudrate        4    6[BANK0 ] const long 
  3687 ;; Auto vars:     Size  Location     Type
  3688 ;;  x               2    9[COMMON] unsigned int 
  3689 ;; Return value:  Size  Location     Type
  3690 ;;                  1    wreg      unsigned char 
  3691 ;; Registers used:
  3692 ;;		wreg, status,2, status,0, pclath, cstack
  3693 ;; Tracked objects:
  3694 ;;		On entry : 0/0
  3695 ;;		On exit  : 0/0
  3696 ;;		Unchanged: 0/0
  3697 ;; Data sizes:     COMMON   BANK0   BANK1   BANK2   BANK3   BANK4   BANK5   BANK6   BANK7   BANK8   BANK9  BANK10  BANK1
      +1  BANK12
  3698 ;;      Params:         0       4       0       0       0       0       0       0       0       0       0       0       
      +0       0
  3699 ;;      Locals:         2       0       0       0       0       0       0       0       0       0       0       0       
      +0       0
  3700 ;;      Temps:          0       8       0       0       0       0       0       0       0       0       0       0       
      +0       0
  3701 ;;      Totals:         2      12       0       0       0       0       0       0       0       0       0       0       
      +0       0
  3702 ;;Total ram usage:       14 bytes
  3703 ;; Hardware stack levels used:    1
  3704 ;; Hardware stack levels required when called:    1
  3705 ;; This function calls:
  3706 ;;		___aldiv
  3707 ;; This function is called by:
  3708 ;;		_main
  3709 ;; This function uses a non-reentrant model
  3710 ;;
  3711                           
  3712                           
  3713                           ;psect for function _EUSART_Initialize
  3714  0750                     _EUSART_Initialize:	
  3715                           
  3716                           ;EUSART.c: 36: unsigned int x;
  3717                           ;EUSART.c: 37: x = (16000000 - baudrate*64)/(baudrate*64);
  3718                           
  3719                           ;incstack = 0
  3720                           ; Regs used in _EUSART_Initialize: [wreg+status,2+status,0+pclath+cstack]
  3721  0750  0020               	movlb	0	; select bank0
  3722  0751  0826               	movf	EUSART_Initialize@baudrate,w
  3723  0752  00AA               	movwf	??_EUSART_Initialize
  3724  0753  0827               	movf	EUSART_Initialize@baudrate+1,w
  3725  0754  00AB               	movwf	??_EUSART_Initialize+1
  3726  0755  0828               	movf	EUSART_Initialize@baudrate+2,w
  3727  0756  00AC               	movwf	??_EUSART_Initialize+2
  3728  0757  0829               	movf	EUSART_Initialize@baudrate+3,w
  3729  0758  00AD               	movwf	??_EUSART_Initialize+3
  3730  0759  3006               	movlw	6
  3731  075A                     u705:	
  3732  075A  35AA               	lslf	??_EUSART_Initialize,f
  3733  075B  0DAB               	rlf	??_EUSART_Initialize+1,f
  3734  075C  0DAC               	rlf	??_EUSART_Initialize+2,f
  3735  075D  0DAD               	rlf	??_EUSART_Initialize+3,f
  3736  075E  0B89               	decfsz	9,f
  3737  075F  2F5A               	goto	u705
  3738  0760  082D               	movf	??_EUSART_Initialize+3,w
  3739  0761  00F3               	movwf	___aldiv@divisor+3
  3740  0762  082C               	movf	??_EUSART_Initialize+2,w
  3741  0763  00F2               	movwf	___aldiv@divisor+2
  3742  0764  082B               	movf	??_EUSART_Initialize+1,w
  3743  0765  00F1               	movwf	___aldiv@divisor+1
  3744  0766  082A               	movf	??_EUSART_Initialize,w
  3745  0767  00F0               	movwf	___aldiv@divisor
  3746  0768  0826               	movf	EUSART_Initialize@baudrate,w
  3747  0769  00AE               	movwf	??_EUSART_Initialize+4
  3748  076A  0827               	movf	EUSART_Initialize@baudrate+1,w
  3749  076B  00AF               	movwf	??_EUSART_Initialize+5
  3750  076C  0828               	movf	EUSART_Initialize@baudrate+2,w
  3751  076D  00B0               	movwf	??_EUSART_Initialize+6
  3752  076E  0829               	movf	EUSART_Initialize@baudrate+3,w
  3753  076F  00B1               	movwf	??_EUSART_Initialize+7
  3754  0770  3006               	movlw	6
  3755  0771                     u715:	
  3756  0771  35AE               	lslf	??_EUSART_Initialize+4,f
  3757  0772  0DAF               	rlf	??_EUSART_Initialize+5,f
  3758  0773  0DB0               	rlf	??_EUSART_Initialize+6,f
  3759  0774  0DB1               	rlf	??_EUSART_Initialize+7,f
  3760  0775  0B89               	decfsz	9,f
  3761  0776  2F71               	goto	u715
  3762  0777  09AE               	comf	??_EUSART_Initialize+4,f
  3763  0778  09AF               	comf	??_EUSART_Initialize+5,f
  3764  0779  09B0               	comf	??_EUSART_Initialize+6,f
  3765  077A  09B1               	comf	??_EUSART_Initialize+7,f
  3766  077B  0AAE               	incf	??_EUSART_Initialize+4,f
  3767  077C  1903               	skipnz
  3768  077D  0AAF               	incf	??_EUSART_Initialize+5,f
  3769  077E  1903               	skipnz
  3770  077F  0AB0               	incf	??_EUSART_Initialize+6,f
  3771  0780  1903               	skipnz
  3772  0781  0AB1               	incf	??_EUSART_Initialize+7,f
  3773  0782  3000               	movlw	0
  3774  0783  072E               	addwf	??_EUSART_Initialize+4,w
  3775  0784  00F4               	movwf	___aldiv@dividend
  3776  0785  3024               	movlw	36
  3777  0786  3D2F               	addwfc	??_EUSART_Initialize+5,w
  3778  0787  00F5               	movwf	___aldiv@dividend+1
  3779  0788  30F4               	movlw	244
  3780  0789  3D30               	addwfc	??_EUSART_Initialize+6,w
  3781  078A  00F6               	movwf	___aldiv@dividend+2
  3782  078B  3000               	movlw	0
  3783  078C  3D31               	addwfc	??_EUSART_Initialize+7,w
  3784  078D  00F7               	movwf	___aldiv@dividend+3
  3785  078E  3186  26CE  3187   	fcall	___aldiv
  3786  0791  0871               	movf	?___aldiv+1,w
  3787  0792  00FA               	movwf	EUSART_Initialize@x+1
  3788  0793  0870               	movf	?___aldiv,w
  3789  0794  00F9               	movwf	EUSART_Initialize@x
  3790                           
  3791                           ;EUSART.c: 38: if(x>255)
  3792  0795  3001               	movlw	1
  3793  0796  027A               	subwf	EUSART_Initialize@x+1,w
  3794  0797  3000               	movlw	0
  3795  0798  1903               	skipnz
  3796  0799  0279               	subwf	EUSART_Initialize@x,w
  3797  079A  1C03               	skipc
  3798  079B  2FE3               	goto	l1186
  3799                           
  3800                           ;EUSART.c: 39: {
  3801                           ;EUSART.c: 40: x = (16000000 - baudrate*16)/(baudrate*16);
  3802  079C  0020               	movlb	0	; select bank0
  3803  079D  0826               	movf	EUSART_Initialize@baudrate,w
  3804  079E  00AA               	movwf	??_EUSART_Initialize
  3805  079F  0827               	movf	EUSART_Initialize@baudrate+1,w
  3806  07A0  00AB               	movwf	??_EUSART_Initialize+1
  3807  07A1  0828               	movf	EUSART_Initialize@baudrate+2,w
  3808  07A2  00AC               	movwf	??_EUSART_Initialize+2
  3809  07A3  0829               	movf	EUSART_Initialize@baudrate+3,w
  3810  07A4  00AD               	movwf	??_EUSART_Initialize+3
  3811  07A5  3004               	movlw	4
  3812  07A6                     u735:	
  3813  07A6  35AA               	lslf	??_EUSART_Initialize,f
  3814  07A7  0DAB               	rlf	??_EUSART_Initialize+1,f
  3815  07A8  0DAC               	rlf	??_EUSART_Initialize+2,f
  3816  07A9  0DAD               	rlf	??_EUSART_Initialize+3,f
  3817  07AA  0B89               	decfsz	9,f
  3818  07AB  2FA6               	goto	u735
  3819  07AC  082D               	movf	??_EUSART_Initialize+3,w
  3820  07AD  00F3               	movwf	___aldiv@divisor+3
  3821  07AE  082C               	movf	??_EUSART_Initialize+2,w
  3822  07AF  00F2               	movwf	___aldiv@divisor+2
  3823  07B0  082B               	movf	??_EUSART_Initialize+1,w
  3824  07B1  00F1               	movwf	___aldiv@divisor+1
  3825  07B2  082A               	movf	??_EUSART_Initialize,w
  3826  07B3  00F0               	movwf	___aldiv@divisor
  3827  07B4  0826               	movf	EUSART_Initialize@baudrate,w
  3828  07B5  00AE               	movwf	??_EUSART_Initialize+4
  3829  07B6  0827               	movf	EUSART_Initialize@baudrate+1,w
  3830  07B7  00AF               	movwf	??_EUSART_Initialize+5
  3831  07B8  0828               	movf	EUSART_Initialize@baudrate+2,w
  3832  07B9  00B0               	movwf	??_EUSART_Initialize+6
  3833  07BA  0829               	movf	EUSART_Initialize@baudrate+3,w
  3834  07BB  00B1               	movwf	??_EUSART_Initialize+7
  3835  07BC  3004               	movlw	4
  3836  07BD                     u745:	
  3837  07BD  35AE               	lslf	??_EUSART_Initialize+4,f
  3838  07BE  0DAF               	rlf	??_EUSART_Initialize+5,f
  3839  07BF  0DB0               	rlf	??_EUSART_Initialize+6,f
  3840  07C0  0DB1               	rlf	??_EUSART_Initialize+7,f
  3841  07C1  0B89               	decfsz	9,f
  3842  07C2  2FBD               	goto	u745
  3843  07C3  09AE               	comf	??_EUSART_Initialize+4,f
  3844  07C4  09AF               	comf	??_EUSART_Initialize+5,f
  3845  07C5  09B0               	comf	??_EUSART_Initialize+6,f
  3846  07C6  09B1               	comf	??_EUSART_Initialize+7,f
  3847  07C7  0AAE               	incf	??_EUSART_Initialize+4,f
  3848  07C8  1903               	skipnz
  3849  07C9  0AAF               	incf	??_EUSART_Initialize+5,f
  3850  07CA  1903               	skipnz
  3851  07CB  0AB0               	incf	??_EUSART_Initialize+6,f
  3852  07CC  1903               	skipnz
  3853  07CD  0AB1               	incf	??_EUSART_Initialize+7,f
  3854  07CE  3000               	movlw	0
  3855  07CF  072E               	addwf	??_EUSART_Initialize+4,w
  3856  07D0  00F4               	movwf	___aldiv@dividend
  3857  07D1  3024               	movlw	36
  3858  07D2  3D2F               	addwfc	??_EUSART_Initialize+5,w
  3859  07D3  00F5               	movwf	___aldiv@dividend+1
  3860  07D4  30F4               	movlw	244
  3861  07D5  3D30               	addwfc	??_EUSART_Initialize+6,w
  3862  07D6  00F6               	movwf	___aldiv@dividend+2
  3863  07D7  3000               	movlw	0
  3864  07D8  3D31               	addwfc	??_EUSART_Initialize+7,w
  3865  07D9  00F7               	movwf	___aldiv@dividend+3
  3866  07DA  3186  26CE  3187   	fcall	___aldiv
  3867  07DD  0871               	movf	?___aldiv+1,w
  3868  07DE  00FA               	movwf	EUSART_Initialize@x+1
  3869  07DF  0870               	movf	?___aldiv,w
  3870  07E0  00F9               	movwf	EUSART_Initialize@x
  3871                           
  3872                           ;EUSART.c: 41: BRGH = 1;
  3873  07E1  0023               	movlb	3	; select bank3
  3874  07E2  151E               	bsf	30,2	;volatile
  3875  07E3                     l1186:	
  3876                           
  3877                           ;EUSART.c: 42: }
  3878                           ;EUSART.c: 43: if(x<256)
  3879  07E3  3001               	movlw	1
  3880  07E4  027A               	subwf	EUSART_Initialize@x+1,w
  3881  07E5  3000               	movlw	0
  3882  07E6  1903               	skipnz
  3883  07E7  0279               	subwf	EUSART_Initialize@x,w
  3884  07E8  1803               	skipnc
  3885  07E9  0008               	return
  3886                           
  3887                           ;EUSART.c: 44: {
  3888                           ;EUSART.c: 45: SPBRG = x;
  3889  07EA  0879               	movf	EUSART_Initialize@x,w
  3890  07EB  0023               	movlb	3	; select bank3
  3891  07EC  009B               	movwf	27	;volatile
  3892                           
  3893                           ;EUSART.c: 46: SYNC = 0;
  3894  07ED  121E               	bcf	30,4	;volatile
  3895                           
  3896                           ;EUSART.c: 47: SPEN = 1;
  3897  07EE  179D               	bsf	29,7	;volatile
  3898                           
  3899                           ;EUSART.c: 48: TRISC7 = 1;
  3900  07EF  0021               	movlb	1	; select bank1
  3901  07F0  178E               	bsf	14,7	;volatile
  3902                           
  3903                           ;EUSART.c: 49: TRISC6 = 1;
  3904  07F1  170E               	bsf	14,6	;volatile
  3905                           
  3906                           ;EUSART.c: 50: CREN = 1;
  3907  07F2  0023               	movlb	3	; select bank3
  3908  07F3  161D               	bsf	29,4	;volatile
  3909                           
  3910                           ;EUSART.c: 51: TXEN = 1;
  3911  07F4  169E               	bsf	30,5	;volatile
  3912                           
  3913                           ;EUSART.c: 52: return 1;
  3914                           ;	Return value of _EUSART_Initialize is never used
  3915  07F5  0008               	return
  3916  07F6                     __end_of_EUSART_Initialize:	
  3917                           ;EUSART.c: 53: }
  3918                           ;EUSART.c: 54: return 0;
  3919                           ;	Return value of _EUSART_Initialize is never used
  3920                           
  3921                           
  3922                           	psect	text12
  3923  06CE                     __ptext12:	
  3924 ;; *************** function ___aldiv *****************
  3925 ;; Defined at:
  3926 ;;		line 6 in file "C:\Program Files (x86)\Microchip\xc8\v1.41\sources\common\aldiv.c"
  3927 ;; Parameters:    Size  Location     Type
  3928 ;;  divisor         4    0[COMMON] long 
  3929 ;;  dividend        4    4[COMMON] long 
  3930 ;; Auto vars:     Size  Location     Type
  3931 ;;  quotient        4    2[BANK0 ] long 
  3932 ;;  sign            1    1[BANK0 ] unsigned char 
  3933 ;;  counter         1    0[BANK0 ] unsigned char 
  3934 ;; Return value:  Size  Location     Type
  3935 ;;                  4    0[COMMON] long 
  3936 ;; Registers used:
  3937 ;;		wreg, status,2, status,0
  3938 ;; Tracked objects:
  3939 ;;		On entry : 0/0
  3940 ;;		On exit  : 0/0
  3941 ;;		Unchanged: 0/0
  3942 ;; Data sizes:     COMMON   BANK0   BANK1   BANK2   BANK3   BANK4   BANK5   BANK6   BANK7   BANK8   BANK9  BANK10  BANK1
      +1  BANK12
  3943 ;;      Params:         8       0       0       0       0       0       0       0       0       0       0       0       
      +0       0
  3944 ;;      Locals:         0       6       0       0       0       0       0       0       0       0       0       0       
      +0       0
  3945 ;;      Temps:          1       0       0       0       0       0       0       0       0       0       0       0       
      +0       0
  3946 ;;      Totals:         9       6       0       0       0       0       0       0       0       0       0       0       
      +0       0
  3947 ;;Total ram usage:       15 bytes
  3948 ;; Hardware stack levels used:    1
  3949 ;; This function calls:
  3950 ;;		Nothing
  3951 ;; This function is called by:
  3952 ;;		_EUSART_Initialize
  3953 ;; This function uses a non-reentrant model
  3954 ;;
  3955                           
  3956                           
  3957                           ;psect for function ___aldiv
  3958  06CE                     ___aldiv:	
  3959                           
  3960                           ;incstack = 0
  3961                           ; Regs used in ___aldiv: [wreg+status,2+status,0]
  3962  06CE  0020               	movlb	0	; select bank0
  3963  06CF  01A1               	clrf	___aldiv@sign
  3964  06D0  1FF3               	btfss	___aldiv@divisor+3,7
  3965  06D1  2EDF               	goto	l348
  3966  06D2  09F0               	comf	___aldiv@divisor,f
  3967  06D3  09F1               	comf	___aldiv@divisor+1,f
  3968  06D4  09F2               	comf	___aldiv@divisor+2,f
  3969  06D5  09F3               	comf	___aldiv@divisor+3,f
  3970  06D6  0AF0               	incf	___aldiv@divisor,f
  3971  06D7  1903               	skipnz
  3972  06D8  0AF1               	incf	___aldiv@divisor+1,f
  3973  06D9  1903               	skipnz
  3974  06DA  0AF2               	incf	___aldiv@divisor+2,f
  3975  06DB  1903               	skipnz
  3976  06DC  0AF3               	incf	___aldiv@divisor+3,f
  3977  06DD  01A1               	clrf	___aldiv@sign
  3978  06DE  0AA1               	incf	___aldiv@sign,f
  3979  06DF                     l348:	
  3980  06DF  1FF7               	btfss	___aldiv@dividend+3,7
  3981  06E0  2EF0               	goto	l1106
  3982  06E1  09F4               	comf	___aldiv@dividend,f
  3983  06E2  09F5               	comf	___aldiv@dividend+1,f
  3984  06E3  09F6               	comf	___aldiv@dividend+2,f
  3985  06E4  09F7               	comf	___aldiv@dividend+3,f
  3986  06E5  0AF4               	incf	___aldiv@dividend,f
  3987  06E6  1903               	skipnz
  3988  06E7  0AF5               	incf	___aldiv@dividend+1,f
  3989  06E8  1903               	skipnz
  3990  06E9  0AF6               	incf	___aldiv@dividend+2,f
  3991  06EA  1903               	skipnz
  3992  06EB  0AF7               	incf	___aldiv@dividend+3,f
  3993  06EC  3001               	movlw	1
  3994  06ED  00F8               	movwf	??___aldiv
  3995  06EE  0878               	movf	??___aldiv,w
  3996  06EF  06A1               	xorwf	___aldiv@sign,f
  3997  06F0                     l1106:	
  3998  06F0  3000               	movlw	0
  3999  06F1  00A5               	movwf	___aldiv@quotient+3
  4000  06F2  3000               	movlw	0
  4001  06F3  00A4               	movwf	___aldiv@quotient+2
  4002  06F4  3000               	movlw	0
  4003  06F5  00A3               	movwf	___aldiv@quotient+1
  4004  06F6  3000               	movlw	0
  4005  06F7  00A2               	movwf	___aldiv@quotient
  4006  06F8  0873               	movf	___aldiv@divisor+3,w
  4007  06F9  0472               	iorwf	___aldiv@divisor+2,w
  4008  06FA  0471               	iorwf	___aldiv@divisor+1,w
  4009  06FB  0470               	iorwf	___aldiv@divisor,w
  4010  06FC  1903               	skipnz
  4011  06FD  2F39               	goto	l1128
  4012  06FE  01A0               	clrf	___aldiv@counter
  4013  06FF  0AA0               	incf	___aldiv@counter,f
  4014  0700                     l1114:	
  4015  0700  1BF3               	btfsc	___aldiv@divisor+3,7
  4016  0701  2F0E               	goto	l1116
  4017  0702  3001               	movlw	1
  4018  0703                     u575:	
  4019  0703  35F0               	lslf	___aldiv@divisor,f
  4020  0704  0DF1               	rlf	___aldiv@divisor+1,f
  4021  0705  0DF2               	rlf	___aldiv@divisor+2,f
  4022  0706  0DF3               	rlf	___aldiv@divisor+3,f
  4023  0707  0B89               	decfsz	9,f
  4024  0708  2F03               	goto	u575
  4025  0709  3001               	movlw	1
  4026  070A  00F8               	movwf	??___aldiv
  4027  070B  0878               	movf	??___aldiv,w
  4028  070C  07A0               	addwf	___aldiv@counter,f
  4029  070D  2F00               	goto	l1114
  4030  070E                     l1116:	
  4031  070E  3001               	movlw	1
  4032  070F                     u595:	
  4033  070F  35A2               	lslf	___aldiv@quotient,f
  4034  0710  0DA3               	rlf	___aldiv@quotient+1,f
  4035  0711  0DA4               	rlf	___aldiv@quotient+2,f
  4036  0712  0DA5               	rlf	___aldiv@quotient+3,f
  4037  0713  0B89               	decfsz	9,f
  4038  0714  2F0F               	goto	u595
  4039  0715  0873               	movf	___aldiv@divisor+3,w
  4040  0716  0277               	subwf	___aldiv@dividend+3,w
  4041  0717  1D03               	skipz
  4042  0718  2F23               	goto	u605
  4043  0719  0872               	movf	___aldiv@divisor+2,w
  4044  071A  0276               	subwf	___aldiv@dividend+2,w
  4045  071B  1D03               	skipz
  4046  071C  2F23               	goto	u605
  4047  071D  0871               	movf	___aldiv@divisor+1,w
  4048  071E  0275               	subwf	___aldiv@dividend+1,w
  4049  071F  1D03               	skipz
  4050  0720  2F23               	goto	u605
  4051  0721  0870               	movf	___aldiv@divisor,w
  4052  0722  0274               	subwf	___aldiv@dividend,w
  4053  0723                     u605:	
  4054  0723  1C03               	skipc
  4055  0724  2F2E               	goto	l1124
  4056  0725  0870               	movf	___aldiv@divisor,w
  4057  0726  02F4               	subwf	___aldiv@dividend,f
  4058  0727  0871               	movf	___aldiv@divisor+1,w
  4059  0728  3BF5               	subwfb	___aldiv@dividend+1,f
  4060  0729  0872               	movf	___aldiv@divisor+2,w
  4061  072A  3BF6               	subwfb	___aldiv@dividend+2,f
  4062  072B  0873               	movf	___aldiv@divisor+3,w
  4063  072C  3BF7               	subwfb	___aldiv@dividend+3,f
  4064  072D  1422               	bsf	___aldiv@quotient,0
  4065  072E                     l1124:	
  4066  072E  3001               	movlw	1
  4067  072F                     u615:	
  4068  072F  36F3               	lsrf	___aldiv@divisor+3,f
  4069  0730  0CF2               	rrf	___aldiv@divisor+2,f
  4070  0731  0CF1               	rrf	___aldiv@divisor+1,f
  4071  0732  0CF0               	rrf	___aldiv@divisor,f
  4072  0733  0B89               	decfsz	9,f
  4073  0734  2F2F               	goto	u615
  4074  0735  3001               	movlw	1
  4075  0736  02A0               	subwf	___aldiv@counter,f
  4076  0737  1D03               	btfss	3,2
  4077  0738  2F0E               	goto	l1116
  4078  0739                     l1128:	
  4079  0739  0821               	movf	___aldiv@sign,w
  4080  073A  1903               	btfsc	3,2
  4081  073B  2F47               	goto	l1132
  4082  073C  09A2               	comf	___aldiv@quotient,f
  4083  073D  09A3               	comf	___aldiv@quotient+1,f
  4084  073E  09A4               	comf	___aldiv@quotient+2,f
  4085  073F  09A5               	comf	___aldiv@quotient+3,f
  4086  0740  0AA2               	incf	___aldiv@quotient,f
  4087  0741  1903               	skipnz
  4088  0742  0AA3               	incf	___aldiv@quotient+1,f
  4089  0743  1903               	skipnz
  4090  0744  0AA4               	incf	___aldiv@quotient+2,f
  4091  0745  1903               	skipnz
  4092  0746  0AA5               	incf	___aldiv@quotient+3,f
  4093  0747                     l1132:	
  4094  0747  0825               	movf	___aldiv@quotient+3,w
  4095  0748  00F3               	movwf	?___aldiv+3
  4096  0749  0824               	movf	___aldiv@quotient+2,w
  4097  074A  00F2               	movwf	?___aldiv+2
  4098  074B  0823               	movf	___aldiv@quotient+1,w
  4099  074C  00F1               	movwf	?___aldiv+1
  4100  074D  0822               	movf	___aldiv@quotient,w
  4101  074E  00F0               	movwf	?___aldiv
  4102  074F  0008               	return
  4103  0750                     __end_of___aldiv:	
  4104  007E                     btemp	set	126	;btemp
  4105  007E                     wtemp0	set	126


Data Sizes:
    Strings     38
    Constant    808
    Data        0
    BSS         17
    Persistent  0
    Stack       0

Auto Spaces:
    Space          Size  Autos    Used
    COMMON           14     14      14
    BANK0            80     41      58
    BANK1            80      0       0
    BANK2            80      0       0
    BANK3            80      0       0
    BANK4            80      0       0
    BANK5            80      0       0
    BANK6            80      0       0
    BANK7            80      0       0
    BANK8            80      0       0
    BANK9            80      0       0
    BANK10           80      0       0
    BANK11           80      0       0
    BANK12           48      0       0

Pointer List with Targets:

    strncmp@s2	PTR const unsigned char  size(2) Largest target is 4
		 -> STR_3(CODE[4]), STR_2(CODE[3]), 

    strncmp@s1	PTR const unsigned char  size(1) Largest target is 20
		 -> NULL(NULL[0]), main@buf(BANK0[20]), 

    strlen@s	PTR const unsigned char  size(2) Largest target is 4
		 -> STR_3(CODE[4]), STR_2(CODE[3]), 

    strlen@cp	PTR const unsigned char  size(2) Largest target is 4
		 -> STR_3(CODE[4]), STR_2(CODE[3]), 

    strchr@ptr	PTR const unsigned char  size(1) Largest target is 20
		 -> NULL(NULL[0]), main@buf(BANK0[20]), 

    sp__strchr	PTR unsigned char  size(1) Largest target is 20
		 -> NULL(NULL[0]), main@buf(BANK0[20]), 

    strstr@s2	PTR const unsigned char  size(2) Largest target is 4
		 -> STR_3(CODE[4]), STR_2(CODE[3]), 

    strstr@s1	PTR const unsigned char  size(1) Largest target is 20
		 -> NULL(NULL[0]), main@buf(BANK0[20]), 

    sp__utoa	PTR unsigned char  size(1) Largest target is 20
		 -> OLED_Write_Integer@s(BANK0[20]), 

    sp__ftoa	PTR unsigned char  size(1) Largest target is 17
		 -> ftoa@buf(BANK0[17]), 

    sp__itoa	PTR unsigned char  size(1) Largest target is 20
		 -> OLED_Write_Integer@s(BANK0[20]), 

    sp__memmove	PTR void  size(1) Largest target is 9
		 -> OLED_PutChar@bytes(COMMON[9]), 

    main@OFF	PTR unsigned char  size(1) Largest target is 20
		 -> NULL(NULL[0]), main@buf(BANK0[20]), 

    sp__strstr	PTR unsigned char  size(1) Largest target is 20
		 -> NULL(NULL[0]), main@buf(BANK0[20]), 

    main@ON	PTR unsigned char  size(1) Largest target is 20
		 -> NULL(NULL[0]), main@buf(BANK0[20]), 

    EUSART_Write_Text@text	PTR unsigned char  size(2) Largest target is 8
		 -> STR_5(CODE[8]), STR_4(CODE[7]), STR_1(CODE[6]), 

    EUSART_Read_Text@Output	PTR unsigned char  size(1) Largest target is 20
		 -> main@buf(BANK0[20]), 


Critical Paths under _main in COMMON

    _main->_strstr
    _strstr->_strncmp
    _strncmp->_strlen
    _EUSART_Write_Text->_EUSART_Write
    _EUSART_Initialize->___aldiv

Critical Paths under _main in BANK0

    _main->_EUSART_Initialize
    _EUSART_Initialize->___aldiv

Critical Paths under _main in BANK1

    None.

Critical Paths under _main in BANK2

    None.

Critical Paths under _main in BANK3

    None.

Critical Paths under _main in BANK4

    None.

Critical Paths under _main in BANK5

    None.

Critical Paths under _main in BANK6

    None.

Critical Paths under _main in BANK7

    None.

Critical Paths under _main in BANK8

    None.

Critical Paths under _main in BANK9

    None.

Critical Paths under _main in BANK10

    None.

Critical Paths under _main in BANK11

    None.

Critical Paths under _main in BANK12

    None.

Call Graph Tables:

 ---------------------------------------------------------------------------------
 (Depth) Function   	        Calls       Base Space   Used Autos Params    Refs
 ---------------------------------------------------------------------------------
 (0) _main                                                23    23      0    2197
                                             18 BANK0     23    23      0
                  _EUSART_Initialize
                   _EUSART_Read_Text
                  _EUSART_Write_Text
                           _initMain
                             _strstr
 ---------------------------------------------------------------------------------
 (1) _strstr                                               6     4      2     915
                                             13 COMMON     1     1      0
                                              0 BANK0      5     3      2
                             _strchr
                             _strlen
                            _strncmp
 ---------------------------------------------------------------------------------
 (2) _strncmp                                              7     3      4     267
                                              6 COMMON     7     3      4
                             _strlen (ARG)
 ---------------------------------------------------------------------------------
 (2) _strlen                                               6     4      2     143
                                              0 COMMON     6     4      2
 ---------------------------------------------------------------------------------
 (2) _strchr                                               3     1      2     168
                                              0 COMMON     3     1      2
 ---------------------------------------------------------------------------------
 (1) _initMain                                             0     0      0       0
                        _internal_16
 ---------------------------------------------------------------------------------
 (2) _internal_16                                          0     0      0       0
 ---------------------------------------------------------------------------------
 (1) _EUSART_Write_Text                                    5     3      2     271
                                              1 COMMON     5     3      2
                       _EUSART_Write
 ---------------------------------------------------------------------------------
 (2) _EUSART_Write                                         1     1      0      22
                                              0 COMMON     1     1      0
 ---------------------------------------------------------------------------------
 (1) _EUSART_Read_Text                                     9     7      2     170
                                              0 COMMON     7     5      2
                        _EUSART_Read
 ---------------------------------------------------------------------------------
 (2) _EUSART_Read                                          0     0      0       0
 ---------------------------------------------------------------------------------
 (1) _EUSART_Initialize                                   14    10      4     721
                                              9 COMMON     2     2      0
                                              6 BANK0     12     8      4
                            ___aldiv
 ---------------------------------------------------------------------------------
 (2) ___aldiv                                             15     7      8     512
                                              0 COMMON     9     1      8
                                              0 BANK0      6     6      0
 ---------------------------------------------------------------------------------
 Estimated maximum stack depth 2
 ---------------------------------------------------------------------------------

 Call Graph Graphs:

 _main (ROOT)
   _EUSART_Initialize
     ___aldiv
   _EUSART_Read_Text
     _EUSART_Read
   _EUSART_Write_Text
     _EUSART_Write
   _initMain
     _internal_16
   _strstr
     _strchr
     _strlen
     _strncmp
       _strlen (ARG)

 Address spaces:
Name               Size   Autos  Total    Cost      Usage
BIGRAM             3F0      0       0       0        0.0%
NULL                 0      0       0       0        0.0%
CODE                 0      0       0       0        0.0%
BITCOMMON            E      0       0       1        0.0%
BITSFR0              0      0       0       1        0.0%
SFR0                 0      0       0       1        0.0%
COMMON               E      E       E       2      100.0%
BITSFR1              0      0       0       2        0.0%
SFR1                 0      0       0       2        0.0%
BITSFR2              0      0       0       3        0.0%
SFR2                 0      0       0       3        0.0%
STACK                0      0       0       3        0.0%
BITBANK0            50      0       0       4        0.0%
BITSFR3              0      0       0       4        0.0%
SFR3                 0      0       0       4        0.0%
BANK0               50     29      3A       5       72.5%
BITSFR4              0      0       0       5        0.0%
SFR4                 0      0       0       5        0.0%
BITBANK1            50      0       0       6        0.0%
BITSFR5              0      0       0       6        0.0%
SFR5                 0      0       0       6        0.0%
BANK1               50      0       0       7        0.0%
BITSFR6              0      0       0       7        0.0%
SFR6                 0      0       0       7        0.0%
BITBANK2            50      0       0       8        0.0%
BITSFR7              0      0       0       8        0.0%
SFR7                 0      0       0       8        0.0%
BANK2               50      0       0       9        0.0%
BITSFR8              0      0       0       9        0.0%
SFR8                 0      0       0       9        0.0%
BITBANK3            50      0       0      10        0.0%
BITSFR9              0      0       0      10        0.0%
SFR9                 0      0       0      10        0.0%
BANK3               50      0       0      11        0.0%
BITSFR10             0      0       0      11        0.0%
SFR10                0      0       0      11        0.0%
BITBANK4            50      0       0      12        0.0%
BITSFR11             0      0       0      12        0.0%
SFR11                0      0       0      12        0.0%
BANK4               50      0       0      13        0.0%
BITSFR12             0      0       0      13        0.0%
SFR12                0      0       0      13        0.0%
BITBANK5            50      0       0      14        0.0%
BITSFR13             0      0       0      14        0.0%
SFR13                0      0       0      14        0.0%
BANK5               50      0       0      15        0.0%
BITSFR14             0      0       0      15        0.0%
SFR14                0      0       0      15        0.0%
BITBANK6            50      0       0      16        0.0%
BITSFR15             0      0       0      16        0.0%
SFR15                0      0       0      16        0.0%
BANK6               50      0       0      17        0.0%
BITSFR16             0      0       0      17        0.0%
SFR16                0      0       0      17        0.0%
BITBANK7            50      0       0      18        0.0%
BITSFR17             0      0       0      18        0.0%
SFR17                0      0       0      18        0.0%
BANK7               50      0       0      19        0.0%
BITSFR18             0      0       0      19        0.0%
SFR18                0      0       0      19        0.0%
BITSFR19             0      0       0      20        0.0%
SFR19                0      0       0      20        0.0%
ABS                  0      0      48      20        0.0%
BITBANK8            50      0       0      21        0.0%
BITSFR20             0      0       0      21        0.0%
SFR20                0      0       0      21        0.0%
BANK8               50      0       0      22        0.0%
BITSFR21             0      0       0      22        0.0%
SFR21                0      0       0      22        0.0%
BITBANK9            50      0       0      23        0.0%
BITSFR22             0      0       0      23        0.0%
SFR22                0      0       0      23        0.0%
BANK9               50      0       0      24        0.0%
BITSFR23             0      0       0      24        0.0%
SFR23                0      0       0      24        0.0%
BITBANK10           50      0       0      25        0.0%
BITSFR24             0      0       0      25        0.0%
SFR24                0      0       0      25        0.0%
BANK10              50      0       0      26        0.0%
BITSFR25             0      0       0      26        0.0%
SFR25                0      0       0      26        0.0%
BITBANK11           50      0       0      27        0.0%
BITSFR26             0      0       0      27        0.0%
SFR26                0      0       0      27        0.0%
BANK11              50      0       0      28        0.0%
BITSFR27             0      0       0      28        0.0%
SFR27                0      0       0      28        0.0%
BITBANK12           30      0       0      29        0.0%
BITSFR28             0      0       0      29        0.0%
SFR28                0      0       0      29        0.0%
BANK12              30      0       0      30        0.0%
BITSFR29             0      0       0      30        0.0%
SFR29                0      0       0      30        0.0%
BITSFR30             0      0       0      31        0.0%
SFR30                0      0       0      31        0.0%
DATA                 0      0      48      31        0.0%
BITSFR31             0      0       0      32        0.0%
SFR31                0      0       0      32        0.0%


Microchip Technology PIC Macro Assembler V1.41 build -162212810 
Symbol Table                                                                                   Mon May 15 14:00:26 2017

               __CFG_CP$OFF 0000                          l74 0555                          l67 0567  
                       l348 06DF                         l702 0572                         u605 0723  
                       u615 072F                         u705 075A                         u715 0771  
                       u575 0703                         u735 07A6                         u745 07BD  
                       u595 070F                         u765 05A7                __CFG_BORV$LO 0000  
                       wreg 0009                __CFG_IESO$ON 0000                ?_EUSART_Read 0070  
              __CFG_LVP$OFF 0000                        l1114 0700                        l1106 06F0  
                      l1210 05A1                        l1132 0747                        l1124 072E  
                      l1116 070E                        l1140 05BE                        l1142 05CA  
                      l1128 0739                        l1152 0659                        l1160 063D  
                      l1218 0586                        l1162 0679                        l1172 057B  
                      l1156 0670                        l1262 061C                        l1088 056F  
                      l1256 0602                        l1264 0631                        l1280 068C  
                      l1186 07E3                        l1274 0695                        l1268 063A  
                      STR_1 0B48                        STR_2 0B3F                        STR_3 0B37  
                      STR_4 0B3B                        STR_5 0B33                        STR_6 0B42  
                      STR_8 0B28                        _BRGH 0CF2                        _CREN 0CEC  
                      _SCS0 04C8                        _SCS1 04C9                        _SPEN 0CEF  
                      _TXEN 0CF5                        _SYNC 0CF4                __CFG_WRT$OFF 0000  
                      _main 067C                        fsr0h 0005                        fsr1h 0007  
                      indf0 0000                        fsr0l 0004                        indf1 0001  
                      fsr1l 0006                        btemp 007E                        start 0002  
             ?_EUSART_Write 0070             __end_of___aldiv 0750                       ?_main 0070  
             __CFG_WDTE$OFF 0000                       _IRCF0 04CB                       _IRCF1 04CC  
                     _IRCF2 04CD                       _IRCF3 04CE                       _SPBRG 019B  
                     _TRISD 008F              __CFG_FCMEN$OFF 0000             __end_of_dpowers 0828  
            __CFG_BOREN$OFF 0000                       status 0003                       wtemp0 007E  
           __end_of_strncmp 067C                ?_internal_16 0070              __CFG_MCLRE$OFF 0000  
           __initialization 07F6                __end_of_main 06CE              ??_EUSART_Write 0070  
            __CFG_LPBOR$OFF 0000            __end_of_OledFont 0B28                      ??_main 0032  
            __CFG_PLLEN$OFF 0000              __CFG_ZCDDIS$ON 0000                      _ANSELD 018F  
                    _RC1REG 0199                      _TX1REG 019A                      _SPLLEN 04CF  
                    _SSPADD 0212                      _TRISC6 0476                      _TRISC7 0477  
                    _SSPBUF 0211              __CFG_PWRTE$OFF 0000                   ??___aldiv 0078  
            __CFG_STVREN$ON 0000            __end_of_initMain 0600                      main@ON 0047  
                    _strchr 0571                      _strlen 05BA                      _strstr 0600  
         ?_EUSART_Read_Text 0070          ??_EUSART_Read_Text 0072                   ??_strncmp 007A  
      __size_of_EUSART_Read 000C     __end_of__initialization 07FD              __pcstackCOMMON 0070  
                __pbssBANK0 0049        __end_of_EUSART_Write 055C      EUSART_Read_Text@Output 0074  
    EUSART_Read_Text@length 0070                  __pmaintext 067C        __size_of_internal_16 0009  
           __CFG_PPS1WAY$ON 0000                     ?_strchr 0070                     ?_strlen 0070  
                   ?_strstr 0020                     _PPSLOCK 0E0F                   ?_initMain 0070  
                   ___aldiv 06CE                     __ptext1 0600                     __ptext2 063C  
                   __ptext3 05BA                     __ptext4 0571                     __ptext5 05D8  
                   __ptext6 055C                     __ptext7 0584                     __ptext8 0554  
                   __ptext9 059E             __size_of_strchr 0013             __size_of_strlen 001E  
           __size_of_strstr 003C                     _dpowers 0800            ___aldiv@dividend 0074  
                   main@OFF 0048                     main@buf 0033                     clrloop0 054F  
                   _strncmp 063C        end_of_initialization 07FD                     ftoa@buf 0049  
                ??_initMain 0070           _EUSART_Initialize 0750          ?_EUSART_Initialize 0026  
          ___aldiv@quotient 0022                __pstringtext 0800          EUSART_Initialize@x 0079  
                   strlen@s 0070         ??_EUSART_Initialize 002A            __CFG_FOSC$INTOSC 0000  
                 _TRISBbits 008D                   _TRISDbits 008F       __size_of_EUSART_Write 0008  
                 _RXPPSbits 0E24   __end_of_EUSART_Initialize 07F6   __size_of_EUSART_Read_Text 001C  
              _EUSART_Write 0554              __end_of_strchr 0584              __end_of_strlen 05D8  
            __end_of_strstr 063C         start_initialization 07F6               ??_EUSART_Read 0070  
         _EUSART_Write_Text 0584          ?_EUSART_Write_Text 0071         ??_EUSART_Write_Text 0073  
                  ??_strchr 0072                    ??_strlen 0072                    ??_strstr 0022  
                 ___latbits 0002               __pcstackBANK0 0020   __end_of_EUSART_Write_Text 059E  
__size_of_EUSART_Initialize 00A6       EUSART_Read_Text@i_111 0075         __end_of_EUSART_Read 0571  
             ??_internal_16 0070           __size_of_initMain 0028                    ?___aldiv 0070  
 EUSART_Initialize@baudrate 0026                    ?_strncmp 0076             ___aldiv@divisor 0070  
           ___aldiv@counter 0020                    _LATDbits 010F                   clear_ram0 054E  
          _EUSART_Read_Text 059E                    _PIR1bits 0011         __end_of_internal_16 0565  
               _EUSART_Read 0565  __size_of_EUSART_Write_Text 001A                    _OledFont 0828  
          __size_of___aldiv 0082                  _ANSELBbits 018D                    __ptext10 0565  
                  __ptext11 0750                    __ptext12 06CE            __size_of_strncmp 0040  
                  _initMain 05D8               __size_of_main 0052                  strncmp@len 0078  
               _internal_16 055C                  _RB2PPSbits 0E9A                  _RC1STAbits 019D  
                 strchr@chr 0070                   strchr@ptr 0072           __CFG_CLKOUTEN$OFF 0000  
               _PPSLOCKbits 0E0F                   strncmp@s1 007C                   strncmp@s2 0076  
  __end_of_EUSART_Read_Text 05BA                    strlen@cp 0074       EUSART_Write_Text@text 0071  
              ___aldiv@sign 0021                 _SSPCON2bits 0216                    strstr@s1 007D  
                  strstr@s2 0020          EUSART_Write@txData 0070                  _SSPCONbits 0215  
        EUSART_Write_Text@i 0074  
