

Microchip MPLAB XC8 Assembler V2.46 build 20240104201356 
                                                                                               Sat Feb 07 13:56:43 2026

Microchip MPLAB XC8 C Compiler v2.46 (Free license) build 20240104201356 Og1 
     1                           	processor	16F1718
     2                           	pagewidth 120
     3                           	opt	flic
     4                           	psect	idataBANK2,global,class=CODE,delta=2,noexec
     5                           	psect	stringtext1,global,class=STRCODE,delta=2,noexec
     6                           	psect	stringtext2,global,class=STRCODE,delta=2,noexec
     7                           	psect	stringtext3,global,class=STRCODE,delta=2,noexec
     8                           	psect	stringtext4,global,class=STRCODE,delta=2,noexec
     9                           	psect	stringtext5,global,class=STRCODE,delta=2,noexec
    10                           	psect	stringtext6,global,class=STRCODE,delta=2,noexec
    11                           	psect	stringtext7,global,class=STRCODE,delta=2,noexec
    12                           	psect	stringtext8,global,class=STRCODE,delta=2,noexec
    13                           	psect	stringtext9,global,class=STRCODE,delta=2,noexec
    14                           	psect	stringtext10,global,class=STRCODE,delta=2,noexec
    15                           	psect	cinit,global,class=CODE,merge=1,delta=2
    16                           	psect	bssBANK1,global,class=BANK1,space=1,delta=1,noexec
    17                           	psect	bssBANK2,global,class=BANK2,space=1,delta=1,noexec
    18                           	psect	dataBANK2,global,class=BANK2,space=1,delta=1,noexec
    19                           	psect	inittext,global,class=CODE,delta=2
    20                           	psect	cstackBANK1,global,class=BANK1,space=1,delta=1,noexec
    21                           	psect	cstackCOMMON,global,class=COMMON,space=1,delta=1,noexec
    22                           	psect	cstackBANK0,global,class=BANK0,space=1,delta=1,noexec
    23                           	psect	maintext,global,class=CODE,merge=1,split=1,delta=2
    24                           	psect	text1,local,class=CODE,merge=1,delta=2
    25                           	psect	text2,local,class=CODE,merge=1,delta=2
    26                           	psect	text3,local,class=CODE,merge=1,delta=2
    27                           	psect	text4,local,class=CODE,merge=1,delta=2
    28                           	psect	text5,local,class=CODE,merge=1,delta=2
    29                           	psect	text6,local,class=CODE,merge=1,delta=2
    30                           	psect	text7,local,class=CODE,merge=1,delta=2
    31                           	psect	text8,local,class=CODE,merge=1,delta=2
    32                           	psect	text9,local,class=CODE,merge=1,delta=2
    33                           	psect	text10,local,class=CODE,merge=1,delta=2
    34                           	psect	text11,local,class=CODE,merge=1,delta=2
    35                           	psect	text12,local,class=CODE,merge=1,delta=2
    36                           	psect	text13,local,class=CODE,merge=1,delta=2
    37                           	psect	text14,local,class=CODE,merge=1,delta=2
    38                           	psect	text15,local,class=CODE,merge=1,delta=2
    39                           	psect	text16,local,class=CODE,merge=1,delta=2
    40                           	psect	text17,local,class=CODE,merge=1,delta=2
    41                           	psect	text18,local,class=CODE,merge=1,delta=2
    42                           	psect	text19,local,class=CODE,merge=1,delta=2
    43                           	psect	text20,local,class=CODE,merge=1,delta=2
    44                           	psect	text21,local,class=CODE,merge=1,delta=2
    45                           	psect	text22,local,class=CODE,merge=1,delta=2
    46                           	psect	text23,local,class=CODE,merge=1,delta=2
    47                           	psect	text24,local,class=CODE,merge=1,delta=2,group=1
    48                           	psect	text25,local,class=CODE,merge=1,delta=2,group=1
    49                           	psect	text26,local,class=CODE,merge=1,delta=2
    50                           	psect	text27,local,class=CODE,merge=1,delta=2
    51                           	psect	text28,local,class=CODE,merge=1,delta=2
    52                           	psect	text29,local,class=CODE,merge=1,delta=2
    53                           	psect	text30,local,class=CODE,merge=1,delta=2
    54                           	psect	text31,local,class=CODE,merge=1,delta=2
    55                           	psect	text32,local,class=CODE,merge=1,delta=2
    56                           	psect	text33,local,class=CODE,merge=1,delta=2
    57                           	psect	text34,local,class=CODE,merge=1,delta=2
    58                           	psect	text35,local,class=CODE,merge=1,delta=2
    59                           	psect	text36,local,class=CODE,merge=1,delta=2
    60                           	psect	text37,local,class=CODE,merge=1,delta=2
    61                           	psect	text38,local,class=CODE,merge=1,delta=2
    62                           	psect	text39,local,class=CODE,merge=1,delta=2
    63                           	psect	text40,local,class=CODE,merge=1,delta=2
    64                           	psect	text41,local,class=CODE,merge=1,delta=2
    65                           	psect	text42,local,class=CODE,merge=1,delta=2
    66                           	psect	text43,local,class=CODE,merge=1,delta=2
    67                           	psect	text44,local,class=CODE,merge=1,delta=2
    68                           	psect	text45,local,class=CODE,merge=1,delta=2,group=1
    69                           	psect	text46,local,class=CODE,merge=1,delta=2,group=1
    70                           	psect	text47,local,class=CODE,merge=1,delta=2,group=1
    71                           	psect	text48,local,class=CODE,merge=1,delta=2
    72                           	psect	text49,local,class=CODE,merge=1,delta=2
    73                           	psect	text50,local,class=CODE,merge=1,delta=2,group=1
    74                           	psect	intentry,global,class=CODE,delta=2
    75                           	psect	config,global,abs,ovrld,class=CONFIG,space=4,delta=2,noexec
    76                           	dabs	1,0x7E,2
    77     0000                     
    78                           ; Generated 07/09/2023 GMT
    79                           ; 
    80                           ; Copyright © 2023, Microchip Technology Inc. and its subsidiaries ("Microchip")
    81                           ; All rights reserved.
    82                           ; 
    83                           ; This software is developed by Microchip Technology Inc. and its subsidiaries ("Microch
      +                          ip").
    84                           ; 
    85                           ; Redistribution and use in source and binary forms, with or without modification, are
    86                           ; permitted provided that the following conditions are met:
    87                           ; 
    88                           ;     1. Redistributions of source code must retain the above copyright notice, this lis
      +                          t of
    89                           ;        conditions and the following disclaimer.
    90                           ; 
    91                           ;     2. Redistributions in binary form must reproduce the above copyright notice, this 
      +                          list
    92                           ;        of conditions and the following disclaimer in the documentation and/or other
    93                           ;        materials provided with the distribution. Publication is not required when
    94                           ;        this file is used in an embedded application.
    95                           ; 
    96                           ;     3. Microchip's name may not be used to endorse or promote products derived from th
      +                          is
    97                           ;        software without specific prior written permission.
    98                           ; 
    99                           ; THIS SOFTWARE IS PROVIDED BY MICROCHIP "AS IS" AND ANY EXPRESS OR IMPLIED WARRANTIES,
   100                           ; INCLUDING, BUT NOT LIMITED TO, THE IMPLIED WARRANTIES OF MERCHANTABILITY AND FITNESS F
      +                          OR
   101                           ; PURPOSE ARE DISCLAIMED.  IN NO EVENT SHALL MICROCHIP BE LIABLE FOR ANY DIRECT, INDIREC
      +                          T,
   102                           ; INCIDENTAL, SPECIAL, EXEMPLARY, OR CONSEQUENTIAL DAMAGES (INCLUDING BUT NOT LIMITED TO
   103                           ; PROCUREMENT OF SUBSTITUTE GOODS OR SERVICES; LOSS OF USE, DATA OR PROFITS; OR BUSINESS
   104                           ; INTERRUPTION) HOWSOEVER CAUSED AND ON ANY THEORY OF LIABILITY, WHETHER IN CONTRACT, ST
      +                          RICT
   105                           ; LIABILITY, OR TORT (INCLUDING NEGLIGENCE OR OTHERWISE) ARISING IN ANY WAY OUT OF THE U
      +                          SE OF
   106                           ; THIS SOFTWARE, EVEN IF ADVISED OF THE POSSIBILITY OF SUCH DAMAGE.
   107                           ; 
   108                           ; 
   109                           ; Code-generator required, PIC16F1718 Definitions
   110                           ; 
   111                           ; SFR Addresses
   112     0000                     	;# 
   113     0001                     	;# 
   114     0002                     	;# 
   115     0003                     	;# 
   116     0004                     	;# 
   117     0005                     	;# 
   118     0006                     	;# 
   119     0007                     	;# 
   120     0008                     	;# 
   121     0009                     	;# 
   122     000A                     	;# 
   123     000B                     	;# 
   124     000C                     	;# 
   125     000D                     	;# 
   126     000E                     	;# 
   127     0010                     	;# 
   128     0011                     	;# 
   129     0012                     	;# 
   130     0013                     	;# 
   131     0015                     	;# 
   132     0016                     	;# 
   133     0016                     	;# 
   134     0017                     	;# 
   135     0018                     	;# 
   136     0019                     	;# 
   137     001A                     	;# 
   138     001B                     	;# 
   139     001C                     	;# 
   140     008C                     	;# 
   141     008D                     	;# 
   142     008E                     	;# 
   143     0090                     	;# 
   144     0091                     	;# 
   145     0092                     	;# 
   146     0093                     	;# 
   147     0095                     	;# 
   148     0096                     	;# 
   149     0097                     	;# 
   150     0098                     	;# 
   151     0099                     	;# 
   152     009A                     	;# 
   153     009B                     	;# 
   154     009B                     	;# 
   155     009C                     	;# 
   156     009D                     	;# 
   157     009E                     	;# 
   158     009F                     	;# 
   159     010C                     	;# 
   160     010D                     	;# 
   161     010E                     	;# 
   162     0111                     	;# 
   163     0112                     	;# 
   164     0113                     	;# 
   165     0114                     	;# 
   166     0115                     	;# 
   167     0116                     	;# 
   168     0117                     	;# 
   169     0118                     	;# 
   170     0119                     	;# 
   171     011A                     	;# 
   172     011B                     	;# 
   173     011B                     	;# 
   174     011C                     	;# 
   175     018C                     	;# 
   176     018D                     	;# 
   177     018E                     	;# 
   178     0191                     	;# 
   179     0191                     	;# 
   180     0192                     	;# 
   181     0193                     	;# 
   182     0193                     	;# 
   183     0194                     	;# 
   184     0195                     	;# 
   185     0196                     	;# 
   186     0197                     	;# 
   187     0199                     	;# 
   188     0199                     	;# 
   189     0199                     	;# 
   190     019A                     	;# 
   191     019A                     	;# 
   192     019A                     	;# 
   193     019B                     	;# 
   194     019B                     	;# 
   195     019B                     	;# 
   196     019B                     	;# 
   197     019B                     	;# 
   198     019C                     	;# 
   199     019C                     	;# 
   200     019C                     	;# 
   201     019D                     	;# 
   202     019D                     	;# 
   203     019D                     	;# 
   204     019E                     	;# 
   205     019E                     	;# 
   206     019E                     	;# 
   207     019F                     	;# 
   208     019F                     	;# 
   209     019F                     	;# 
   210     019F                     	;# 
   211     019F                     	;# 
   212     020C                     	;# 
   213     020D                     	;# 
   214     020E                     	;# 
   215     0210                     	;# 
   216     0211                     	;# 
   217     0211                     	;# 
   218     0212                     	;# 
   219     0212                     	;# 
   220     0213                     	;# 
   221     0213                     	;# 
   222     0214                     	;# 
   223     0214                     	;# 
   224     0215                     	;# 
   225     0215                     	;# 
   226     0215                     	;# 
   227     0215                     	;# 
   228     0216                     	;# 
   229     0216                     	;# 
   230     0217                     	;# 
   231     0217                     	;# 
   232     028C                     	;# 
   233     028D                     	;# 
   234     028E                     	;# 
   235     0291                     	;# 
   236     0291                     	;# 
   237     0292                     	;# 
   238     0293                     	;# 
   239     0293                     	;# 
   240     0298                     	;# 
   241     0298                     	;# 
   242     0299                     	;# 
   243     029A                     	;# 
   244     029A                     	;# 
   245     029E                     	;# 
   246     030C                     	;# 
   247     030D                     	;# 
   248     030E                     	;# 
   249     038C                     	;# 
   250     038D                     	;# 
   251     038E                     	;# 
   252     0390                     	;# 
   253     0391                     	;# 
   254     0392                     	;# 
   255     0393                     	;# 
   256     0394                     	;# 
   257     0395                     	;# 
   258     0396                     	;# 
   259     0397                     	;# 
   260     0398                     	;# 
   261     0399                     	;# 
   262     039D                     	;# 
   263     039E                     	;# 
   264     039F                     	;# 
   265     0415                     	;# 
   266     0416                     	;# 
   267     0417                     	;# 
   268     041C                     	;# 
   269     041D                     	;# 
   270     041E                     	;# 
   271     0498                     	;# 
   272     0498                     	;# 
   273     0499                     	;# 
   274     049A                     	;# 
   275     049B                     	;# 
   276     049B                     	;# 
   277     049C                     	;# 
   278     049D                     	;# 
   279     049E                     	;# 
   280     049F                     	;# 
   281     0511                     	;# 
   282     0515                     	;# 
   283     0617                     	;# 
   284     0618                     	;# 
   285     0619                     	;# 
   286     0619                     	;# 
   287     061A                     	;# 
   288     061B                     	;# 
   289     061C                     	;# 
   290     061C                     	;# 
   291     0691                     	;# 
   292     0692                     	;# 
   293     0693                     	;# 
   294     0694                     	;# 
   295     0695                     	;# 
   296     0696                     	;# 
   297     0697                     	;# 
   298     0698                     	;# 
   299     0699                     	;# 
   300     069A                     	;# 
   301     069B                     	;# 
   302     069C                     	;# 
   303     069D                     	;# 
   304     069E                     	;# 
   305     069F                     	;# 
   306     0E0F                     	;# 
   307     0E10                     	;# 
   308     0E11                     	;# 
   309     0E12                     	;# 
   310     0E13                     	;# 
   311     0E14                     	;# 
   312     0E15                     	;# 
   313     0E17                     	;# 
   314     0E20                     	;# 
   315     0E21                     	;# 
   316     0E22                     	;# 
   317     0E24                     	;# 
   318     0E25                     	;# 
   319     0E28                     	;# 
   320     0E29                     	;# 
   321     0E2A                     	;# 
   322     0E2B                     	;# 
   323     0E90                     	;# 
   324     0E91                     	;# 
   325     0E92                     	;# 
   326     0E93                     	;# 
   327     0E94                     	;# 
   328     0E95                     	;# 
   329     0E96                     	;# 
   330     0E97                     	;# 
   331     0E98                     	;# 
   332     0E99                     	;# 
   333     0E9A                     	;# 
   334     0E9B                     	;# 
   335     0E9C                     	;# 
   336     0E9D                     	;# 
   337     0E9E                     	;# 
   338     0E9F                     	;# 
   339     0EA0                     	;# 
   340     0EA1                     	;# 
   341     0EA2                     	;# 
   342     0EA3                     	;# 
   343     0EA4                     	;# 
   344     0EA5                     	;# 
   345     0EA6                     	;# 
   346     0EA7                     	;# 
   347     0F0F                     	;# 
   348     0F10                     	;# 
   349     0F11                     	;# 
   350     0F12                     	;# 
   351     0F13                     	;# 
   352     0F14                     	;# 
   353     0F15                     	;# 
   354     0F16                     	;# 
   355     0F17                     	;# 
   356     0F18                     	;# 
   357     0F19                     	;# 
   358     0F1A                     	;# 
   359     0F1B                     	;# 
   360     0F1C                     	;# 
   361     0F1D                     	;# 
   362     0F1E                     	;# 
   363     0F1F                     	;# 
   364     0F20                     	;# 
   365     0F21                     	;# 
   366     0F22                     	;# 
   367     0F23                     	;# 
   368     0F24                     	;# 
   369     0F25                     	;# 
   370     0F26                     	;# 
   371     0F27                     	;# 
   372     0F28                     	;# 
   373     0F29                     	;# 
   374     0F2A                     	;# 
   375     0F2B                     	;# 
   376     0F2C                     	;# 
   377     0F2D                     	;# 
   378     0F2E                     	;# 
   379     0F2F                     	;# 
   380     0F30                     	;# 
   381     0F31                     	;# 
   382     0F32                     	;# 
   383     0F33                     	;# 
   384     0F34                     	;# 
   385     0F35                     	;# 
   386     0F36                     	;# 
   387     0F37                     	;# 
   388     0FE4                     	;# 
   389     0FE5                     	;# 
   390     0FE6                     	;# 
   391     0FE7                     	;# 
   392     0FE8                     	;# 
   393     0FE9                     	;# 
   394     0FEA                     	;# 
   395     0FEB                     	;# 
   396     0FED                     	;# 
   397     0FEE                     	;# 
   398     0FEF                     	;# 
   399     0000                     	;# 
   400     0001                     	;# 
   401     0002                     	;# 
   402     0003                     	;# 
   403     0004                     	;# 
   404     0005                     	;# 
   405     0006                     	;# 
   406     0007                     	;# 
   407     0008                     	;# 
   408     0009                     	;# 
   409     000A                     	;# 
   410     000B                     	;# 
   411     000C                     	;# 
   412     000D                     	;# 
   413     000E                     	;# 
   414     0010                     	;# 
   415     0011                     	;# 
   416     0012                     	;# 
   417     0013                     	;# 
   418     0015                     	;# 
   419     0016                     	;# 
   420     0016                     	;# 
   421     0017                     	;# 
   422     0018                     	;# 
   423     0019                     	;# 
   424     001A                     	;# 
   425     001B                     	;# 
   426     001C                     	;# 
   427     008C                     	;# 
   428     008D                     	;# 
   429     008E                     	;# 
   430     0090                     	;# 
   431     0091                     	;# 
   432     0092                     	;# 
   433     0093                     	;# 
   434     0095                     	;# 
   435     0096                     	;# 
   436     0097                     	;# 
   437     0098                     	;# 
   438     0099                     	;# 
   439     009A                     	;# 
   440     009B                     	;# 
   441     009B                     	;# 
   442     009C                     	;# 
   443     009D                     	;# 
   444     009E                     	;# 
   445     009F                     	;# 
   446     010C                     	;# 
   447     010D                     	;# 
   448     010E                     	;# 
   449     0111                     	;# 
   450     0112                     	;# 
   451     0113                     	;# 
   452     0114                     	;# 
   453     0115                     	;# 
   454     0116                     	;# 
   455     0117                     	;# 
   456     0118                     	;# 
   457     0119                     	;# 
   458     011A                     	;# 
   459     011B                     	;# 
   460     011B                     	;# 
   461     011C                     	;# 
   462     018C                     	;# 
   463     018D                     	;# 
   464     018E                     	;# 
   465     0191                     	;# 
   466     0191                     	;# 
   467     0192                     	;# 
   468     0193                     	;# 
   469     0193                     	;# 
   470     0194                     	;# 
   471     0195                     	;# 
   472     0196                     	;# 
   473     0197                     	;# 
   474     0199                     	;# 
   475     0199                     	;# 
   476     0199                     	;# 
   477     019A                     	;# 
   478     019A                     	;# 
   479     019A                     	;# 
   480     019B                     	;# 
   481     019B                     	;# 
   482     019B                     	;# 
   483     019B                     	;# 
   484     019B                     	;# 
   485     019C                     	;# 
   486     019C                     	;# 
   487     019C                     	;# 
   488     019D                     	;# 
   489     019D                     	;# 
   490     019D                     	;# 
   491     019E                     	;# 
   492     019E                     	;# 
   493     019E                     	;# 
   494     019F                     	;# 
   495     019F                     	;# 
   496     019F                     	;# 
   497     019F                     	;# 
   498     019F                     	;# 
   499     020C                     	;# 
   500     020D                     	;# 
   501     020E                     	;# 
   502     0210                     	;# 
   503     0211                     	;# 
   504     0211                     	;# 
   505     0212                     	;# 
   506     0212                     	;# 
   507     0213                     	;# 
   508     0213                     	;# 
   509     0214                     	;# 
   510     0214                     	;# 
   511     0215                     	;# 
   512     0215                     	;# 
   513     0215                     	;# 
   514     0215                     	;# 
   515     0216                     	;# 
   516     0216                     	;# 
   517     0217                     	;# 
   518     0217                     	;# 
   519     028C                     	;# 
   520     028D                     	;# 
   521     028E                     	;# 
   522     0291                     	;# 
   523     0291                     	;# 
   524     0292                     	;# 
   525     0293                     	;# 
   526     0293                     	;# 
   527     0298                     	;# 
   528     0298                     	;# 
   529     0299                     	;# 
   530     029A                     	;# 
   531     029A                     	;# 
   532     029E                     	;# 
   533     030C                     	;# 
   534     030D                     	;# 
   535     030E                     	;# 
   536     038C                     	;# 
   537     038D                     	;# 
   538     038E                     	;# 
   539     0390                     	;# 
   540     0391                     	;# 
   541     0392                     	;# 
   542     0393                     	;# 
   543     0394                     	;# 
   544     0395                     	;# 
   545     0396                     	;# 
   546     0397                     	;# 
   547     0398                     	;# 
   548     0399                     	;# 
   549     039D                     	;# 
   550     039E                     	;# 
   551     039F                     	;# 
   552     0415                     	;# 
   553     0416                     	;# 
   554     0417                     	;# 
   555     041C                     	;# 
   556     041D                     	;# 
   557     041E                     	;# 
   558     0498                     	;# 
   559     0498                     	;# 
   560     0499                     	;# 
   561     049A                     	;# 
   562     049B                     	;# 
   563     049B                     	;# 
   564     049C                     	;# 
   565     049D                     	;# 
   566     049E                     	;# 
   567     049F                     	;# 
   568     0511                     	;# 
   569     0515                     	;# 
   570     0617                     	;# 
   571     0618                     	;# 
   572     0619                     	;# 
   573     0619                     	;# 
   574     061A                     	;# 
   575     061B                     	;# 
   576     061C                     	;# 
   577     061C                     	;# 
   578     0691                     	;# 
   579     0692                     	;# 
   580     0693                     	;# 
   581     0694                     	;# 
   582     0695                     	;# 
   583     0696                     	;# 
   584     0697                     	;# 
   585     0698                     	;# 
   586     0699                     	;# 
   587     069A                     	;# 
   588     069B                     	;# 
   589     069C                     	;# 
   590     069D                     	;# 
   591     069E                     	;# 
   592     069F                     	;# 
   593     0E0F                     	;# 
   594     0E10                     	;# 
   595     0E11                     	;# 
   596     0E12                     	;# 
   597     0E13                     	;# 
   598     0E14                     	;# 
   599     0E15                     	;# 
   600     0E17                     	;# 
   601     0E20                     	;# 
   602     0E21                     	;# 
   603     0E22                     	;# 
   604     0E24                     	;# 
   605     0E25                     	;# 
   606     0E28                     	;# 
   607     0E29                     	;# 
   608     0E2A                     	;# 
   609     0E2B                     	;# 
   610     0E90                     	;# 
   611     0E91                     	;# 
   612     0E92                     	;# 
   613     0E93                     	;# 
   614     0E94                     	;# 
   615     0E95                     	;# 
   616     0E96                     	;# 
   617     0E97                     	;# 
   618     0E98                     	;# 
   619     0E99                     	;# 
   620     0E9A                     	;# 
   621     0E9B                     	;# 
   622     0E9C                     	;# 
   623     0E9D                     	;# 
   624     0E9E                     	;# 
   625     0E9F                     	;# 
   626     0EA0                     	;# 
   627     0EA1                     	;# 
   628     0EA2                     	;# 
   629     0EA3                     	;# 
   630     0EA4                     	;# 
   631     0EA5                     	;# 
   632     0EA6                     	;# 
   633     0EA7                     	;# 
   634     0F0F                     	;# 
   635     0F10                     	;# 
   636     0F11                     	;# 
   637     0F12                     	;# 
   638     0F13                     	;# 
   639     0F14                     	;# 
   640     0F15                     	;# 
   641     0F16                     	;# 
   642     0F17                     	;# 
   643     0F18                     	;# 
   644     0F19                     	;# 
   645     0F1A                     	;# 
   646     0F1B                     	;# 
   647     0F1C                     	;# 
   648     0F1D                     	;# 
   649     0F1E                     	;# 
   650     0F1F                     	;# 
   651     0F20                     	;# 
   652     0F21                     	;# 
   653     0F22                     	;# 
   654     0F23                     	;# 
   655     0F24                     	;# 
   656     0F25                     	;# 
   657     0F26                     	;# 
   658     0F27                     	;# 
   659     0F28                     	;# 
   660     0F29                     	;# 
   661     0F2A                     	;# 
   662     0F2B                     	;# 
   663     0F2C                     	;# 
   664     0F2D                     	;# 
   665     0F2E                     	;# 
   666     0F2F                     	;# 
   667     0F30                     	;# 
   668     0F31                     	;# 
   669     0F32                     	;# 
   670     0F33                     	;# 
   671     0F34                     	;# 
   672     0F35                     	;# 
   673     0F36                     	;# 
   674     0F37                     	;# 
   675     0FE4                     	;# 
   676     0FE5                     	;# 
   677     0FE6                     	;# 
   678     0FE7                     	;# 
   679     0FE8                     	;# 
   680     0FE9                     	;# 
   681     0FEA                     	;# 
   682     0FEB                     	;# 
   683     0FED                     	;# 
   684     0FEE                     	;# 
   685     0FEF                     	;# 
   686     0000                     	;# 
   687     0001                     	;# 
   688     0002                     	;# 
   689     0003                     	;# 
   690     0004                     	;# 
   691     0005                     	;# 
   692     0006                     	;# 
   693     0007                     	;# 
   694     0008                     	;# 
   695     0009                     	;# 
   696     000A                     	;# 
   697     000B                     	;# 
   698     000C                     	;# 
   699     000D                     	;# 
   700     000E                     	;# 
   701     0010                     	;# 
   702     0011                     	;# 
   703     0012                     	;# 
   704     0013                     	;# 
   705     0015                     	;# 
   706     0016                     	;# 
   707     0016                     	;# 
   708     0017                     	;# 
   709     0018                     	;# 
   710     0019                     	;# 
   711     001A                     	;# 
   712     001B                     	;# 
   713     001C                     	;# 
   714     008C                     	;# 
   715     008D                     	;# 
   716     008E                     	;# 
   717     0090                     	;# 
   718     0091                     	;# 
   719     0092                     	;# 
   720     0093                     	;# 
   721     0095                     	;# 
   722     0096                     	;# 
   723     0097                     	;# 
   724     0098                     	;# 
   725     0099                     	;# 
   726     009A                     	;# 
   727     009B                     	;# 
   728     009B                     	;# 
   729     009C                     	;# 
   730     009D                     	;# 
   731     009E                     	;# 
   732     009F                     	;# 
   733     010C                     	;# 
   734     010D                     	;# 
   735     010E                     	;# 
   736     0111                     	;# 
   737     0112                     	;# 
   738     0113                     	;# 
   739     0114                     	;# 
   740     0115                     	;# 
   741     0116                     	;# 
   742     0117                     	;# 
   743     0118                     	;# 
   744     0119                     	;# 
   745     011A                     	;# 
   746     011B                     	;# 
   747     011B                     	;# 
   748     011C                     	;# 
   749     018C                     	;# 
   750     018D                     	;# 
   751     018E                     	;# 
   752     0191                     	;# 
   753     0191                     	;# 
   754     0192                     	;# 
   755     0193                     	;# 
   756     0193                     	;# 
   757     0194                     	;# 
   758     0195                     	;# 
   759     0196                     	;# 
   760     0197                     	;# 
   761     0199                     	;# 
   762     0199                     	;# 
   763     0199                     	;# 
   764     019A                     	;# 
   765     019A                     	;# 
   766     019A                     	;# 
   767     019B                     	;# 
   768     019B                     	;# 
   769     019B                     	;# 
   770     019B                     	;# 
   771     019B                     	;# 
   772     019C                     	;# 
   773     019C                     	;# 
   774     019C                     	;# 
   775     019D                     	;# 
   776     019D                     	;# 
   777     019D                     	;# 
   778     019E                     	;# 
   779     019E                     	;# 
   780     019E                     	;# 
   781     019F                     	;# 
   782     019F                     	;# 
   783     019F                     	;# 
   784     019F                     	;# 
   785     019F                     	;# 
   786     020C                     	;# 
   787     020D                     	;# 
   788     020E                     	;# 
   789     0210                     	;# 
   790     0211                     	;# 
   791     0211                     	;# 
   792     0212                     	;# 
   793     0212                     	;# 
   794     0213                     	;# 
   795     0213                     	;# 
   796     0214                     	;# 
   797     0214                     	;# 
   798     0215                     	;# 
   799     0215                     	;# 
   800     0215                     	;# 
   801     0215                     	;# 
   802     0216                     	;# 
   803     0216                     	;# 
   804     0217                     	;# 
   805     0217                     	;# 
   806     028C                     	;# 
   807     028D                     	;# 
   808     028E                     	;# 
   809     0291                     	;# 
   810     0291                     	;# 
   811     0292                     	;# 
   812     0293                     	;# 
   813     0293                     	;# 
   814     0298                     	;# 
   815     0298                     	;# 
   816     0299                     	;# 
   817     029A                     	;# 
   818     029A                     	;# 
   819     029E                     	;# 
   820     030C                     	;# 
   821     030D                     	;# 
   822     030E                     	;# 
   823     038C                     	;# 
   824     038D                     	;# 
   825     038E                     	;# 
   826     0390                     	;# 
   827     0391                     	;# 
   828     0392                     	;# 
   829     0393                     	;# 
   830     0394                     	;# 
   831     0395                     	;# 
   832     0396                     	;# 
   833     0397                     	;# 
   834     0398                     	;# 
   835     0399                     	;# 
   836     039D                     	;# 
   837     039E                     	;# 
   838     039F                     	;# 
   839     0415                     	;# 
   840     0416                     	;# 
   841     0417                     	;# 
   842     041C                     	;# 
   843     041D                     	;# 
   844     041E                     	;# 
   845     0498                     	;# 
   846     0498                     	;# 
   847     0499                     	;# 
   848     049A                     	;# 
   849     049B                     	;# 
   850     049B                     	;# 
   851     049C                     	;# 
   852     049D                     	;# 
   853     049E                     	;# 
   854     049F                     	;# 
   855     0511                     	;# 
   856     0515                     	;# 
   857     0617                     	;# 
   858     0618                     	;# 
   859     0619                     	;# 
   860     0619                     	;# 
   861     061A                     	;# 
   862     061B                     	;# 
   863     061C                     	;# 
   864     061C                     	;# 
   865     0691                     	;# 
   866     0692                     	;# 
   867     0693                     	;# 
   868     0694                     	;# 
   869     0695                     	;# 
   870     0696                     	;# 
   871     0697                     	;# 
   872     0698                     	;# 
   873     0699                     	;# 
   874     069A                     	;# 
   875     069B                     	;# 
   876     069C                     	;# 
   877     069D                     	;# 
   878     069E                     	;# 
   879     069F                     	;# 
   880     0E0F                     	;# 
   881     0E10                     	;# 
   882     0E11                     	;# 
   883     0E12                     	;# 
   884     0E13                     	;# 
   885     0E14                     	;# 
   886     0E15                     	;# 
   887     0E17                     	;# 
   888     0E20                     	;# 
   889     0E21                     	;# 
   890     0E22                     	;# 
   891     0E24                     	;# 
   892     0E25                     	;# 
   893     0E28                     	;# 
   894     0E29                     	;# 
   895     0E2A                     	;# 
   896     0E2B                     	;# 
   897     0E90                     	;# 
   898     0E91                     	;# 
   899     0E92                     	;# 
   900     0E93                     	;# 
   901     0E94                     	;# 
   902     0E95                     	;# 
   903     0E96                     	;# 
   904     0E97                     	;# 
   905     0E98                     	;# 
   906     0E99                     	;# 
   907     0E9A                     	;# 
   908     0E9B                     	;# 
   909     0E9C                     	;# 
   910     0E9D                     	;# 
   911     0E9E                     	;# 
   912     0E9F                     	;# 
   913     0EA0                     	;# 
   914     0EA1                     	;# 
   915     0EA2                     	;# 
   916     0EA3                     	;# 
   917     0EA4                     	;# 
   918     0EA5                     	;# 
   919     0EA6                     	;# 
   920     0EA7                     	;# 
   921     0F0F                     	;# 
   922     0F10                     	;# 
   923     0F11                     	;# 
   924     0F12                     	;# 
   925     0F13                     	;# 
   926     0F14                     	;# 
   927     0F15                     	;# 
   928     0F16                     	;# 
   929     0F17                     	;# 
   930     0F18                     	;# 
   931     0F19                     	;# 
   932     0F1A                     	;# 
   933     0F1B                     	;# 
   934     0F1C                     	;# 
   935     0F1D                     	;# 
   936     0F1E                     	;# 
   937     0F1F                     	;# 
   938     0F20                     	;# 
   939     0F21                     	;# 
   940     0F22                     	;# 
   941     0F23                     	;# 
   942     0F24                     	;# 
   943     0F25                     	;# 
   944     0F26                     	;# 
   945     0F27                     	;# 
   946     0F28                     	;# 
   947     0F29                     	;# 
   948     0F2A                     	;# 
   949     0F2B                     	;# 
   950     0F2C                     	;# 
   951     0F2D                     	;# 
   952     0F2E                     	;# 
   953     0F2F                     	;# 
   954     0F30                     	;# 
   955     0F31                     	;# 
   956     0F32                     	;# 
   957     0F33                     	;# 
   958     0F34                     	;# 
   959     0F35                     	;# 
   960     0F36                     	;# 
   961     0F37                     	;# 
   962     0FE4                     	;# 
   963     0FE5                     	;# 
   964     0FE6                     	;# 
   965     0FE7                     	;# 
   966     0FE8                     	;# 
   967     0FE9                     	;# 
   968     0FEA                     	;# 
   969     0FEB                     	;# 
   970     0FED                     	;# 
   971     0FEE                     	;# 
   972     0FEF                     	;# 
   973     0000                     	;# 
   974     0001                     	;# 
   975     0002                     	;# 
   976     0003                     	;# 
   977     0004                     	;# 
   978     0005                     	;# 
   979     0006                     	;# 
   980     0007                     	;# 
   981     0008                     	;# 
   982     0009                     	;# 
   983     000A                     	;# 
   984     000B                     	;# 
   985     000C                     	;# 
   986     000D                     	;# 
   987     000E                     	;# 
   988     0010                     	;# 
   989     0011                     	;# 
   990     0012                     	;# 
   991     0013                     	;# 
   992     0015                     	;# 
   993     0016                     	;# 
   994     0016                     	;# 
   995     0017                     	;# 
   996     0018                     	;# 
   997     0019                     	;# 
   998     001A                     	;# 
   999     001B                     	;# 
  1000     001C                     	;# 
  1001     008C                     	;# 
  1002     008D                     	;# 
  1003     008E                     	;# 
  1004     0090                     	;# 
  1005     0091                     	;# 
  1006     0092                     	;# 
  1007     0093                     	;# 
  1008     0095                     	;# 
  1009     0096                     	;# 
  1010     0097                     	;# 
  1011     0098                     	;# 
  1012     0099                     	;# 
  1013     009A                     	;# 
  1014     009B                     	;# 
  1015     009B                     	;# 
  1016     009C                     	;# 
  1017     009D                     	;# 
  1018     009E                     	;# 
  1019     009F                     	;# 
  1020     010C                     	;# 
  1021     010D                     	;# 
  1022     010E                     	;# 
  1023     0111                     	;# 
  1024     0112                     	;# 
  1025     0113                     	;# 
  1026     0114                     	;# 
  1027     0115                     	;# 
  1028     0116                     	;# 
  1029     0117                     	;# 
  1030     0118                     	;# 
  1031     0119                     	;# 
  1032     011A                     	;# 
  1033     011B                     	;# 
  1034     011B                     	;# 
  1035     011C                     	;# 
  1036     018C                     	;# 
  1037     018D                     	;# 
  1038     018E                     	;# 
  1039     0191                     	;# 
  1040     0191                     	;# 
  1041     0192                     	;# 
  1042     0193                     	;# 
  1043     0193                     	;# 
  1044     0194                     	;# 
  1045     0195                     	;# 
  1046     0196                     	;# 
  1047     0197                     	;# 
  1048     0199                     	;# 
  1049     0199                     	;# 
  1050     0199                     	;# 
  1051     019A                     	;# 
  1052     019A                     	;# 
  1053     019A                     	;# 
  1054     019B                     	;# 
  1055     019B                     	;# 
  1056     019B                     	;# 
  1057     019B                     	;# 
  1058     019B                     	;# 
  1059     019C                     	;# 
  1060     019C                     	;# 
  1061     019C                     	;# 
  1062     019D                     	;# 
  1063     019D                     	;# 
  1064     019D                     	;# 
  1065     019E                     	;# 
  1066     019E                     	;# 
  1067     019E                     	;# 
  1068     019F                     	;# 
  1069     019F                     	;# 
  1070     019F                     	;# 
  1071     019F                     	;# 
  1072     019F                     	;# 
  1073     020C                     	;# 
  1074     020D                     	;# 
  1075     020E                     	;# 
  1076     0210                     	;# 
  1077     0211                     	;# 
  1078     0211                     	;# 
  1079     0212                     	;# 
  1080     0212                     	;# 
  1081     0213                     	;# 
  1082     0213                     	;# 
  1083     0214                     	;# 
  1084     0214                     	;# 
  1085     0215                     	;# 
  1086     0215                     	;# 
  1087     0215                     	;# 
  1088     0215                     	;# 
  1089     0216                     	;# 
  1090     0216                     	;# 
  1091     0217                     	;# 
  1092     0217                     	;# 
  1093     028C                     	;# 
  1094     028D                     	;# 
  1095     028E                     	;# 
  1096     0291                     	;# 
  1097     0291                     	;# 
  1098     0292                     	;# 
  1099     0293                     	;# 
  1100     0293                     	;# 
  1101     0298                     	;# 
  1102     0298                     	;# 
  1103     0299                     	;# 
  1104     029A                     	;# 
  1105     029A                     	;# 
  1106     029E                     	;# 
  1107     030C                     	;# 
  1108     030D                     	;# 
  1109     030E                     	;# 
  1110     038C                     	;# 
  1111     038D                     	;# 
  1112     038E                     	;# 
  1113     0390                     	;# 
  1114     0391                     	;# 
  1115     0392                     	;# 
  1116     0393                     	;# 
  1117     0394                     	;# 
  1118     0395                     	;# 
  1119     0396                     	;# 
  1120     0397                     	;# 
  1121     0398                     	;# 
  1122     0399                     	;# 
  1123     039D                     	;# 
  1124     039E                     	;# 
  1125     039F                     	;# 
  1126     0415                     	;# 
  1127     0416                     	;# 
  1128     0417                     	;# 
  1129     041C                     	;# 
  1130     041D                     	;# 
  1131     041E                     	;# 
  1132     0498                     	;# 
  1133     0498                     	;# 
  1134     0499                     	;# 
  1135     049A                     	;# 
  1136     049B                     	;# 
  1137     049B                     	;# 
  1138     049C                     	;# 
  1139     049D                     	;# 
  1140     049E                     	;# 
  1141     049F                     	;# 
  1142     0511                     	;# 
  1143     0515                     	;# 
  1144     0617                     	;# 
  1145     0618                     	;# 
  1146     0619                     	;# 
  1147     0619                     	;# 
  1148     061A                     	;# 
  1149     061B                     	;# 
  1150     061C                     	;# 
  1151     061C                     	;# 
  1152     0691                     	;# 
  1153     0692                     	;# 
  1154     0693                     	;# 
  1155     0694                     	;# 
  1156     0695                     	;# 
  1157     0696                     	;# 
  1158     0697                     	;# 
  1159     0698                     	;# 
  1160     0699                     	;# 
  1161     069A                     	;# 
  1162     069B                     	;# 
  1163     069C                     	;# 
  1164     069D                     	;# 
  1165     069E                     	;# 
  1166     069F                     	;# 
  1167     0E0F                     	;# 
  1168     0E10                     	;# 
  1169     0E11                     	;# 
  1170     0E12                     	;# 
  1171     0E13                     	;# 
  1172     0E14                     	;# 
  1173     0E15                     	;# 
  1174     0E17                     	;# 
  1175     0E20                     	;# 
  1176     0E21                     	;# 
  1177     0E22                     	;# 
  1178     0E24                     	;# 
  1179     0E25                     	;# 
  1180     0E28                     	;# 
  1181     0E29                     	;# 
  1182     0E2A                     	;# 
  1183     0E2B                     	;# 
  1184     0E90                     	;# 
  1185     0E91                     	;# 
  1186     0E92                     	;# 
  1187     0E93                     	;# 
  1188     0E94                     	;# 
  1189     0E95                     	;# 
  1190     0E96                     	;# 
  1191     0E97                     	;# 
  1192     0E98                     	;# 
  1193     0E99                     	;# 
  1194     0E9A                     	;# 
  1195     0E9B                     	;# 
  1196     0E9C                     	;# 
  1197     0E9D                     	;# 
  1198     0E9E                     	;# 
  1199     0E9F                     	;# 
  1200     0EA0                     	;# 
  1201     0EA1                     	;# 
  1202     0EA2                     	;# 
  1203     0EA3                     	;# 
  1204     0EA4                     	;# 
  1205     0EA5                     	;# 
  1206     0EA6                     	;# 
  1207     0EA7                     	;# 
  1208     0F0F                     	;# 
  1209     0F10                     	;# 
  1210     0F11                     	;# 
  1211     0F12                     	;# 
  1212     0F13                     	;# 
  1213     0F14                     	;# 
  1214     0F15                     	;# 
  1215     0F16                     	;# 
  1216     0F17                     	;# 
  1217     0F18                     	;# 
  1218     0F19                     	;# 
  1219     0F1A                     	;# 
  1220     0F1B                     	;# 
  1221     0F1C                     	;# 
  1222     0F1D                     	;# 
  1223     0F1E                     	;# 
  1224     0F1F                     	;# 
  1225     0F20                     	;# 
  1226     0F21                     	;# 
  1227     0F22                     	;# 
  1228     0F23                     	;# 
  1229     0F24                     	;# 
  1230     0F25                     	;# 
  1231     0F26                     	;# 
  1232     0F27                     	;# 
  1233     0F28                     	;# 
  1234     0F29                     	;# 
  1235     0F2A                     	;# 
  1236     0F2B                     	;# 
  1237     0F2C                     	;# 
  1238     0F2D                     	;# 
  1239     0F2E                     	;# 
  1240     0F2F                     	;# 
  1241     0F30                     	;# 
  1242     0F31                     	;# 
  1243     0F32                     	;# 
  1244     0F33                     	;# 
  1245     0F34                     	;# 
  1246     0F35                     	;# 
  1247     0F36                     	;# 
  1248     0F37                     	;# 
  1249     0FE4                     	;# 
  1250     0FE5                     	;# 
  1251     0FE6                     	;# 
  1252     0FE7                     	;# 
  1253     0FE8                     	;# 
  1254     0FE9                     	;# 
  1255     0FEA                     	;# 
  1256     0FEB                     	;# 
  1257     0FED                     	;# 
  1258     0FEE                     	;# 
  1259     0FEF                     	;# 
  1260                           
  1261                           	psect	idataBANK2
  1262     141A                     __pidataBANK2:
  1263                           
  1264                           ;initializer for main@F6439
  1265     141A  3429               	retlw	41
  1266     141B  3400               	retlw	0
  1267     141C  3400               	retlw	0
  1268     141D  3400               	retlw	0
  1269     141E  34F4               	retlw	244
  1270     141F  3401               	retlw	1
  1271     1420  3400               	retlw	0
  1272     1421  3400               	retlw	0
  1273     1422  3400               	retlw	0
  1274     1423  3400               	retlw	0
  1275     1424  3400               	retlw	0
  1276     1425  3400               	retlw	0
  1277     1426  3400               	retlw	0
  1278     1427  3400               	retlw	0
  1279     1428  3400               	retlw	0
  1280     1429  3400               	retlw	0
  1281     000B                     _INTCONbits	set	11
  1282     0015                     _TMR0	set	21
  1283     0012                     _PIR2bits	set	18
  1284     0011                     _PIR1bits	set	17
  1285     008E                     _TRISCbits	set	142
  1286     008D                     _TRISBbits	set	141
  1287     0095                     _OPTION_REGbits	set	149
  1288     04CF                     _SPLLEN	set	1231
  1289     04CE                     _IRCF3	set	1230
  1290     04CD                     _IRCF2	set	1229
  1291     04CC                     _IRCF1	set	1228
  1292     04CB                     _IRCF0	set	1227
  1293     04C9                     _SCS1	set	1225
  1294     04C8                     _SCS0	set	1224
  1295     010D                     _LATBbits	set	269
  1296     018E                     _ANSELCbits	set	398
  1297     018D                     _ANSELBbits	set	397
  1298     019A                     _TX1REG	set	410
  1299     0199                     _RC1REG	set	409
  1300     019D                     _RC1STAbits	set	413
  1301     019B                     _SPBRGL	set	411
  1302     0CF5                     _TXEN	set	3317
  1303     0CEC                     _CREN	set	3308
  1304     0CEF                     _SPEN	set	3311
  1305     0CF4                     _SYNC	set	3316
  1306     0CFB                     _BRG16	set	3323
  1307     0CF2                     _BRGH	set	3314
  1308     0211                     _SSPBUF	set	529
  1309     0216                     _SSPCON2bits	set	534
  1310     0214                     _SSPSTATbits	set	532
  1311     0216                     _SSPCON2	set	534
  1312     0215                     _SSPCON1bits	set	533
  1313     0212                     _SSPADD	set	530
  1314     0215                     _SSPCONbits	set	533
  1315     0E20                     _SSPCLKPPSbits	set	3616
  1316     0E21                     _SSPDATPPSbits	set	3617
  1317     0E24                     _RXPPSbits	set	3620
  1318     0E0F                     _PPSLOCKbits	set	3599
  1319     0E0F                     _PPSLOCK	set	3599
  1320     0EA5                     _RC5PPSbits	set	3749
  1321     0EA4                     _RC4PPSbits	set	3748
  1322     0E9A                     _RB2PPSbits	set	3738
  1323                           
  1324                           	psect	stringtext1
  1325     1800                     __pstringtext1:
  1326     1800                     STR_1:
  1327     1800  340D               	retlw	13
  1328     1801  340A               	retlw	10
  1329     1802  3456               	retlw	86	;'V'
  1330     1803  344C               	retlw	76	;'L'
  1331     1804  3435               	retlw	53	;'5'
  1332     1805  3433               	retlw	51	;'3'
  1333     1806  344C               	retlw	76	;'L'
  1334     1807  3430               	retlw	48	;'0'
  1335     1808  3458               	retlw	88	;'X'
  1336     1809  3420               	retlw	32	;' '
  1337     180A  346F               	retlw	111	;'o'
  1338     180B  346E               	retlw	110	;'n'
  1339     180C  3420               	retlw	32	;' '
  1340     180D  3450               	retlw	80	;'P'
  1341     180E  3449               	retlw	73	;'I'
  1342     180F  3443               	retlw	67	;'C'
  1343     1810  3431               	retlw	49	;'1'
  1344     1811  3436               	retlw	54	;'6'
  1345     1812  3446               	retlw	70	;'F'
  1346     1813  3431               	retlw	49	;'1'
  1347     1814  3437               	retlw	55	;'7'
  1348     1815  3431               	retlw	49	;'1'
  1349     1816  3438               	retlw	56	;'8'
  1350     1817  340D               	retlw	13
  1351     1818  340A               	retlw	10
  1352     1819  3400               	retlw	0
  1353                           
  1354                           	psect	stringtext2
  1355     181A                     __pstringtext2:
  1356     181A                     STR_2:
  1357     181A  342D               	retlw	45	;'-'
  1358     181B  342D               	retlw	45	;'-'
  1359     181C  342D               	retlw	45	;'-'
  1360     181D  342D               	retlw	45	;'-'
  1361     181E  342D               	retlw	45	;'-'
  1362     181F  342D               	retlw	45	;'-'
  1363     1820  342D               	retlw	45	;'-'
  1364     1821  342D               	retlw	45	;'-'
  1365     1822  342D               	retlw	45	;'-'
  1366     1823  342D               	retlw	45	;'-'
  1367     1824  342D               	retlw	45	;'-'
  1368     1825  342D               	retlw	45	;'-'
  1369     1826  342D               	retlw	45	;'-'
  1370     1827  342D               	retlw	45	;'-'
  1371     1828  342D               	retlw	45	;'-'
  1372     1829  342D               	retlw	45	;'-'
  1373     182A  342D               	retlw	45	;'-'
  1374     182B  342D               	retlw	45	;'-'
  1375     182C  342D               	retlw	45	;'-'
  1376     182D  342D               	retlw	45	;'-'
  1377     182E  342D               	retlw	45	;'-'
  1378     182F  340D               	retlw	13
  1379     1830  340A               	retlw	10
  1380     1831  3400               	retlw	0
  1381                           
  1382                           	psect	stringtext3
  1383     1832                     __pstringtext3:
  1384     1832                     STR_4:
  1385     1832  3449               	retlw	73	;'I'
  1386     1833  346E               	retlw	110	;'n'
  1387     1834  3469               	retlw	105	;'i'
  1388     1835  3474               	retlw	116	;'t'
  1389     1836  3420               	retlw	32	;' '
  1390     1837  3446               	retlw	70	;'F'
  1391     1838  3441               	retlw	65	;'A'
  1392     1839  3449               	retlw	73	;'I'
  1393     183A  344C               	retlw	76	;'L'
  1394     183B  3445               	retlw	69	;'E'
  1395     183C  3444               	retlw	68	;'D'
  1396     183D  340D               	retlw	13
  1397     183E  340A               	retlw	10
  1398     183F  3400               	retlw	0
  1399                           
  1400                           	psect	stringtext4
  1401     1840                     __pstringtext4:
  1402     1840                     STR_6:
  1403     1840  3452               	retlw	82	;'R'
  1404     1841  3461               	retlw	97	;'a'
  1405     1842  346E               	retlw	110	;'n'
  1406     1843  3467               	retlw	103	;'g'
  1407     1844  3469               	retlw	105	;'i'
  1408     1845  346E               	retlw	110	;'n'
  1409     1846  3467               	retlw	103	;'g'
  1410     1847  342E               	retlw	46	;'.'
  1411     1848  342E               	retlw	46	;'.'
  1412     1849  342E               	retlw	46	;'.'
  1413     184A  340D               	retlw	13
  1414     184B  340A               	retlw	10
  1415     184C  3400               	retlw	0
  1416                           
  1417                           	psect	stringtext5
  1418     184D                     __pstringtext5:
  1419     184D                     STR_5:
  1420     184D  3448               	retlw	72	;'H'
  1421     184E  3449               	retlw	73	;'I'
  1422     184F  3447               	retlw	71	;'G'
  1423     1850  3448               	retlw	72	;'H'
  1424     1851  3420               	retlw	32	;' '
  1425     1852  3453               	retlw	83	;'S'
  1426     1853  3450               	retlw	80	;'P'
  1427     1854  3445               	retlw	69	;'E'
  1428     1855  3445               	retlw	69	;'E'
  1429     1856  3444               	retlw	68	;'D'
  1430     1857  340D               	retlw	13
  1431     1858  340A               	retlw	10
  1432     1859  3400               	retlw	0
  1433                           
  1434                           	psect	stringtext6
  1435     185A                     __pstringtext6:
  1436     185A                     STR_3:
  1437     185A  3449               	retlw	73	;'I'
  1438     185B  346E               	retlw	110	;'n'
  1439     185C  3469               	retlw	105	;'i'
  1440     185D  3474               	retlw	116	;'t'
  1441     185E  3420               	retlw	32	;' '
  1442     185F  344F               	retlw	79	;'O'
  1443     1860  344B               	retlw	75	;'K'
  1444     1861  340D               	retlw	13
  1445     1862  340A               	retlw	10
  1446     1863  3400               	retlw	0
  1447                           
  1448                           	psect	stringtext7
  1449     1864                     __pstringtext7:
  1450     1864                     STR_7:
  1451     1864  3454               	retlw	84	;'T'
  1452     1865  3449               	retlw	73	;'I'
  1453     1866  344D               	retlw	77	;'M'
  1454     1867  3445               	retlw	69	;'E'
  1455     1868  344F               	retlw	79	;'O'
  1456     1869  3455               	retlw	85	;'U'
  1457     186A  3454               	retlw	84	;'T'
  1458     186B  340D               	retlw	13
  1459     186C  340A               	retlw	10
  1460     186D  3400               	retlw	0
  1461                           
  1462                           	psect	stringtext8
  1463     186E                     __pstringtext8:
  1464     186E                     STR_9:
  1465     186E  3409               	retlw	9
  1466     186F  346D               	retlw	109	;'m'
  1467     1870  346D               	retlw	109	;'m'
  1468     1871  340D               	retlw	13
  1469     1872  340A               	retlw	10
  1470     1873  3400               	retlw	0
  1471                           
  1472                           	psect	stringtext9
  1473     1874                     __pstringtext9:
  1474     1874                     STR_8:
  1475     1874  3409               	retlw	9
  1476     1875  3400               	retlw	0
  1477                           
  1478                           	psect	stringtext10
  1479     0000                     __pstringtext10:
  1480                           
  1481                           	psect	cinit
  1482     001B                     start_initialization:	
  1483                           ; #config settings
  1484                           
  1485     001B                     __initialization:
  1486                           
  1487                           ; Initialize objects allocated to BANK2
  1488     001B  301A               	movlw	low __pidataBANK2
  1489     001C  0084               	movwf	4
  1490     001D  3094               	movlw	(high __pidataBANK2)| (0+128)
  1491     001E  0085               	movwf	5
  1492     001F  3020               	movlw	low __pdataBANK2
  1493     0020  0086               	movwf	6
  1494     0021  3001               	movlw	high __pdataBANK2
  1495     0022  0087               	movwf	7
  1496     0023  3010               	movlw	16
  1497     0024  3193  23EF  3180   	fcall	init_ram
  1498                           
  1499                           ; Clear objects allocated to BANK1
  1500     0027  0021               	movlb	1	; select bank1
  1501     0028  01EA               	clrf	__pbssBANK1& (0+127)
  1502     0029  01EB               	clrf	(__pbssBANK1+1)& (0+127)
  1503     002A  01EC               	clrf	(__pbssBANK1+2)& (0+127)
  1504     002B  01ED               	clrf	(__pbssBANK1+3)& (0+127)
  1505     002C  01EE               	clrf	(__pbssBANK1+4)& (0+127)
  1506     002D  01EF               	clrf	(__pbssBANK1+5)& (0+127)
  1507                           
  1508                           ; Clear objects allocated to BANK2
  1509     002E  0022               	movlb	2	; select bank2
  1510     002F  01B0               	clrf	__pbssBANK2& (0+127)
  1511     0030  01B1               	clrf	(__pbssBANK2+1)& (0+127)
  1512     0031  01B2               	clrf	(__pbssBANK2+2)& (0+127)
  1513     0032  01B3               	clrf	(__pbssBANK2+3)& (0+127)
  1514     0033                     end_of_initialization:	
  1515                           ;End of C runtime variable initialization code
  1516                           
  1517     0033                     __end_of__initialization:
  1518     0033  107E               	bcf	int$flags,0	;clear compiler interrupt flag (level 1)
  1519     0034  0020               	movlb	0
  1520     0035  318D  2D89         	ljmp	_main	;jump to C main() function
  1521                           
  1522                           	psect	bssBANK1
  1523     00EA                     __pbssBANK1:
  1524     00EA                     _millis_counter:
  1525     00EA                     	ds	4
  1526     00EE                     readReg16@F6305:
  1527     00EE                     	ds	2
  1528                           
  1529                           	psect	bssBANK2
  1530     0130                     __pbssBANK2:
  1531     0130                     readReg32@F6310:
  1532     0130                     	ds	4
  1533                           
  1534                           	psect	dataBANK2
  1535     0120                     __pdataBANK2:
  1536     0120                     main@F6439:
  1537     0120                     	ds	16
  1538                           
  1539                           	psect	inittext
  1540     13EF                     init_ram:
  1541     13EF  00FE               	movwf	btemp
  1542     13F0                     initloop:
  1543     13F0  0012               	moviw fsr0++
  1544     13F1  001E               	movwi fsr1++
  1545     13F2  0BFE               	decfsz	btemp,f
  1546     13F3  2BF0               	goto	initloop
  1547     13F4  3400               	retlw	0
  1548                           
  1549                           	psect	cstackBANK1
  1550     00A0                     __pcstackBANK1:
  1551     00A0                     setMeasurementTimingBudget@fr_timeout_us:
  1552                           
  1553                           ; 4 bytes @ 0x0
  1554     00A0                     	ds	4
  1555     00A4                     setMeasurementTimingBudget@fr_timeout_mclks:
  1556                           
  1557                           ; 2 bytes @ 0x4
  1558     00A4                     	ds	2
  1559     00A6                     setMeasurementTimingBudget@used:
  1560                           
  1561                           ; 4 bytes @ 0x6
  1562     00A6                     	ds	4
  1563     00AA                     setMeasurementTimingBudget@dev:
  1564                           
  1565                           ; 1 bytes @ 0xA
  1566     00AA                     	ds	1
  1567     00AB                     setMeasurementTimingBudget@en:
  1568                           
  1569                           ; 5 bytes @ 0xB
  1570     00AB                     	ds	5
  1571     00B0                     setMeasurementTimingBudget@to:
  1572                           
  1573                           ; 22 bytes @ 0x10
  1574     00B0                     	ds	22
  1575     00C6                     ??_VL53L0X_Init:
  1576                           
  1577                           ; 1 bytes @ 0x26
  1578     00C6                     	ds	4
  1579     00CA                     VL53L0X_Init@ref_spad_map:
  1580                           
  1581                           ; 6 bytes @ 0x2A
  1582     00CA                     	ds	6
  1583     00D0                     _VL53L0X_Init$819:
  1584                           
  1585                           ; 2 bytes @ 0x30
  1586     00D0                     	ds	2
  1587     00D2                     VL53L0X_Init@first_spad:
  1588                           
  1589                           ; 1 bytes @ 0x32
  1590     00D2                     	ds	1
  1591     00D3                     VL53L0X_Init@spads_en:
  1592                           
  1593                           ; 1 bytes @ 0x33
  1594     00D3                     	ds	1
  1595     00D4                     VL53L0X_Init@spad_count:
  1596                           
  1597                           ; 1 bytes @ 0x34
  1598     00D4                     	ds	1
  1599     00D5                     VL53L0X_Init@spad_type_is_aperture:
  1600                           
  1601                           ; 1 bytes @ 0x35
  1602     00D5                     	ds	1
  1603     00D6                     VL53L0X_Init@i:
  1604                           
  1605                           ; 1 bytes @ 0x36
  1606     00D6                     	ds	1
  1607     00D7                     VL53L0X_Init@dev:
  1608                           
  1609                           ; 1 bytes @ 0x37
  1610     00D7                     	ds	1
  1611     00D8                     main@range:
  1612                           
  1613                           ; 2 bytes @ 0x38
  1614     00D8                     	ds	2
  1615     00DA                     main@sensor:
  1616                           
  1617                           ; 16 bytes @ 0x3A
  1618     00DA                     	ds	16
  1619                           
  1620                           	psect	cstackCOMMON
  1621     0070                     __pcstackCOMMON:
  1622     0070                     ?_I2C_ClearErrors:
  1623     0070                     ??_I2C_ClearErrors:	
  1624                           ; 1 bytes @ 0x0
  1625                           
  1626     0070                     ?_EUSART_Write:	
  1627                           ; 1 bytes @ 0x0
  1628                           
  1629     0070                     ??_EUSART_Write:	
  1630                           ; 1 bytes @ 0x0
  1631                           
  1632     0070                     ?_I2C_WaitIF:	
  1633                           ; 1 bytes @ 0x0
  1634                           
  1635     0070                     ?_I2C_Init:	
  1636                           ; 1 bytes @ 0x0
  1637                           
  1638     0070                     ??_I2C_Init:	
  1639                           ; 1 bytes @ 0x0
  1640                           
  1641     0070                     ?_I2C_WaitIdle:	
  1642                           ; 1 bytes @ 0x0
  1643                           
  1644     0070                     ?_I2C_Start:	
  1645                           ; 1 bytes @ 0x0
  1646                           
  1647     0070                     ?_I2C_RepeatedStart:	
  1648                           ; 1 bytes @ 0x0
  1649                           
  1650     0070                     ?_I2C_Stop:	
  1651                           ; 1 bytes @ 0x0
  1652                           
  1653     0070                     ?_I2C_WriteByte:	
  1654                           ; 1 bytes @ 0x0
  1655                           
  1656     0070                     ?_internal_32:	
  1657                           ; 1 bytes @ 0x0
  1658                           
  1659     0070                     ??_internal_32:	
  1660                           ; 1 bytes @ 0x0
  1661                           
  1662     0070                     ?_TMR0_Init:	
  1663                           ; 1 bytes @ 0x0
  1664                           
  1665     0070                     ??_TMR0_Init:	
  1666                           ; 1 bytes @ 0x0
  1667                           
  1668     0070                     ?_ISR:	
  1669                           ; 1 bytes @ 0x0
  1670                           
  1671     0070                     ??_ISR:	
  1672                           ; 1 bytes @ 0x0
  1673                           
  1674     0070                     ?_startTimeout:	
  1675                           ; 1 bytes @ 0x0
  1676                           
  1677     0070                     ?_checkTimeoutExpired:	
  1678                           ; 1 bytes @ 0x0
  1679                           
  1680     0070                     ?_VL53L0X_Init:	
  1681                           ; 1 bytes @ 0x0
  1682                           
  1683     0070                     ?_timeoutOccurred:	
  1684                           ; 1 bytes @ 0x0
  1685                           
  1686     0070                     ??_timeoutOccurred:	
  1687                           ; 1 bytes @ 0x0
  1688                           
  1689     0070                     ?_initMain:	
  1690                           ; 1 bytes @ 0x0
  1691                           
  1692     0070                     ??_initMain:	
  1693                           ; 1 bytes @ 0x0
  1694                           
  1695     0070                     ?_main:	
  1696                           ; 1 bytes @ 0x0
  1697                           
  1698     0070                     ?_encodeTimeout:	
  1699                           ; 1 bytes @ 0x0
  1700                           
  1701     0070                     ?___wmul:	
  1702                           ; 2 bytes @ 0x0
  1703                           
  1704     0070                     ?___awdiv:	
  1705                           ; 2 bytes @ 0x0
  1706                           
  1707     0070                     ?___awmod:	
  1708                           ; 2 bytes @ 0x0
  1709                           
  1710     0070                     ?_millis:	
  1711                           ; 2 bytes @ 0x0
  1712                           
  1713     0070                     ?___lmul:	
  1714                           ; 4 bytes @ 0x0
  1715                           
  1716     0070                     ?___aldiv:	
  1717                           ; 4 bytes @ 0x0
  1718                           
  1719     0070                     EUSART_Write@txData:	
  1720                           ; 4 bytes @ 0x0
  1721                           
  1722     0070                     timeoutOccurred@tmp:	
  1723                           ; 1 bytes @ 0x0
  1724                           
  1725     0070                     I2C_WaitIF@timeout_ms:	
  1726                           ; 1 bytes @ 0x0
  1727                           
  1728     0070                     I2C_WaitIdle@timeout_ms:	
  1729                           ; 2 bytes @ 0x0
  1730                           
  1731     0070                     encodeTimeout@timeout_mclks:	
  1732                           ; 2 bytes @ 0x0
  1733                           
  1734     0070                     ___wmul@multiplier:	
  1735                           ; 2 bytes @ 0x0
  1736                           
  1737     0070                     ___awdiv@divisor:	
  1738                           ; 2 bytes @ 0x0
  1739                           
  1740     0070                     ___awmod@divisor:	
  1741                           ; 2 bytes @ 0x0
  1742                           
  1743     0070                     ___lmul@multiplier:	
  1744                           ; 2 bytes @ 0x0
  1745                           
  1746     0070                     ___aldiv@divisor:	
  1747                           ; 4 bytes @ 0x0
  1748                           
  1749                           
  1750                           ; 4 bytes @ 0x0
  1751     0070                     	ds	1
  1752     0071                     ?_EUSART_Write_Text:
  1753     0071                     timeoutOccurred@dev:	
  1754                           ; 1 bytes @ 0x1
  1755                           
  1756     0071                     EUSART_Write_Text@text:	
  1757                           ; 1 bytes @ 0x1
  1758                           
  1759                           
  1760                           ; 2 bytes @ 0x1
  1761     0071                     	ds	1
  1762     0072                     ??_encodeTimeout:
  1763     0072                     ??_I2C_WaitIF:	
  1764                           ; 1 bytes @ 0x2
  1765                           
  1766     0072                     ??_I2C_WaitIdle:	
  1767                           ; 1 bytes @ 0x2
  1768                           
  1769     0072                     ___wmul@multiplicand:	
  1770                           ; 1 bytes @ 0x2
  1771                           
  1772     0072                     ___awdiv@dividend:	
  1773                           ; 2 bytes @ 0x2
  1774                           
  1775     0072                     ___awmod@dividend:	
  1776                           ; 2 bytes @ 0x2
  1777                           
  1778                           
  1779                           ; 2 bytes @ 0x2
  1780     0072                     	ds	1
  1781     0073                     ??_EUSART_Write_Text:
  1782     0073                     ??_I2C_Start:	
  1783                           ; 1 bytes @ 0x3
  1784                           
  1785     0073                     ??_I2C_RepeatedStart:	
  1786                           ; 1 bytes @ 0x3
  1787                           
  1788     0073                     ??_I2C_Stop:	
  1789                           ; 1 bytes @ 0x3
  1790                           
  1791     0073                     ??_I2C_WriteByte:	
  1792                           ; 1 bytes @ 0x3
  1793                           
  1794     0073                     ?_I2C_ReadByte:	
  1795                           ; 1 bytes @ 0x3
  1796                           
  1797     0073                     I2C_Start@st:	
  1798                           ; 1 bytes @ 0x3
  1799                           
  1800     0073                     I2C_RepeatedStart@st:	
  1801                           ; 1 bytes @ 0x3
  1802                           
  1803     0073                     I2C_Stop@st:	
  1804                           ; 1 bytes @ 0x3
  1805                           
  1806     0073                     I2C_WriteByte@data:	
  1807                           ; 1 bytes @ 0x3
  1808                           
  1809     0073                     I2C_ReadByte@ack:	
  1810                           ; 1 bytes @ 0x3
  1811                           
  1812                           
  1813                           ; 1 bytes @ 0x3
  1814     0073                     	ds	1
  1815     0074                     ??_I2C_ReadByte:
  1816     0074                     ??_millis:	
  1817                           ; 1 bytes @ 0x4
  1818                           
  1819     0074                     ??___wmul:	
  1820                           ; 1 bytes @ 0x4
  1821                           
  1822     0074                     ??___awdiv:	
  1823                           ; 1 bytes @ 0x4
  1824                           
  1825     0074                     ??___awmod:	
  1826                           ; 1 bytes @ 0x4
  1827                           
  1828     0074                     I2C_WriteByte@st:	
  1829                           ; 1 bytes @ 0x4
  1830                           
  1831     0074                     I2C_ReadByte@data:	
  1832                           ; 1 bytes @ 0x4
  1833                           
  1834     0074                     EUSART_Write_Text@i:	
  1835                           ; 1 bytes @ 0x4
  1836                           
  1837     0074                     ___wmul@product:	
  1838                           ; 2 bytes @ 0x4
  1839                           
  1840     0074                     millis@val:	
  1841                           ; 2 bytes @ 0x4
  1842                           
  1843     0074                     ___lmul@multiplicand:	
  1844                           ; 4 bytes @ 0x4
  1845                           
  1846     0074                     ___aldiv@dividend:	
  1847                           ; 4 bytes @ 0x4
  1848                           
  1849                           
  1850                           ; 4 bytes @ 0x4
  1851     0074                     	ds	1
  1852     0075                     ?_tof_i2c_write:
  1853     0075                     I2C_ReadByte@st:	
  1854                           ; 1 bytes @ 0x5
  1855                           
  1856     0075                     tof_i2c_write@reg:	
  1857                           ; 1 bytes @ 0x5
  1858                           
  1859     0075                     ___awdiv@counter:	
  1860                           ; 1 bytes @ 0x5
  1861                           
  1862     0075                     ___awmod@counter:	
  1863                           ; 1 bytes @ 0x5
  1864                           
  1865                           
  1866                           ; 1 bytes @ 0x5
  1867     0075                     	ds	1
  1868     0076                     ?_tof_i2c_read:
  1869     0076                     tof_i2c_write@src:	
  1870                           ; 1 bytes @ 0x6
  1871                           
  1872     0076                     tof_i2c_read@reg:	
  1873                           ; 1 bytes @ 0x6
  1874                           
  1875     0076                     ___awdiv@sign:	
  1876                           ; 1 bytes @ 0x6
  1877                           
  1878     0076                     ___awmod@sign:	
  1879                           ; 1 bytes @ 0x6
  1880                           
  1881     0076                     encodeTimeout@ms_byte:	
  1882                           ; 1 bytes @ 0x6
  1883                           
  1884                           
  1885                           ; 2 bytes @ 0x6
  1886     0076                     	ds	1
  1887     0077                     tof_i2c_write@len:
  1888     0077                     tof_i2c_read@dst:	
  1889                           ; 1 bytes @ 0x7
  1890                           
  1891     0077                     ___awdiv@quotient:	
  1892                           ; 1 bytes @ 0x7
  1893                           
  1894                           
  1895                           ; 2 bytes @ 0x7
  1896     0077                     	ds	1
  1897     0078                     ??_tof_i2c_write:
  1898     0078                     ??_startTimeout:	
  1899                           ; 1 bytes @ 0x8
  1900                           
  1901     0078                     ??___lmul:	
  1902                           ; 1 bytes @ 0x8
  1903                           
  1904     0078                     ??___aldiv:	
  1905                           ; 1 bytes @ 0x8
  1906                           
  1907     0078                     tof_i2c_read@len:	
  1908                           ; 1 bytes @ 0x8
  1909                           
  1910     0078                     startTimeout@dev:	
  1911                           ; 1 bytes @ 0x8
  1912                           
  1913     0078                     _checkTimeoutExpired$801:	
  1914                           ; 1 bytes @ 0x8
  1915                           
  1916     0078                     encodeTimeout@ls_byte:	
  1917                           ; 1 bytes @ 0x8
  1918                           
  1919     0078                     ___lmul@product:	
  1920                           ; 4 bytes @ 0x8
  1921                           
  1922                           
  1923                           ; 4 bytes @ 0x8
  1924     0078                     	ds	1
  1925     0079                     ?_itoa:
  1926     0079                     ??_tof_i2c_read:	
  1927                           ; 1 bytes @ 0x9
  1928                           
  1929     0079                     tof_i2c_write@addr:	
  1930                           ; 1 bytes @ 0x9
  1931                           
  1932     0079                     checkTimeoutExpired@dev:	
  1933                           ; 1 bytes @ 0x9
  1934                           
  1935     0079                     EUSART_Initialize@x:	
  1936                           ; 1 bytes @ 0x9
  1937                           
  1938     0079                     itoa@d:	
  1939                           ; 2 bytes @ 0x9
  1940                           
  1941                           
  1942                           ; 2 bytes @ 0x9
  1943     0079                     	ds	1
  1944     007A                     tof_i2c_write@i:
  1945                           
  1946                           ; 1 bytes @ 0xA
  1947     007A                     	ds	1
  1948     007B                     ??_itoa:
  1949     007B                     ?_EUSART_Write_Integer:	
  1950                           ; 1 bytes @ 0xB
  1951                           
  1952     007B                     ?_writeMulti:	
  1953                           ; 1 bytes @ 0xB
  1954                           
  1955     007B                     tof_i2c_read@ack:	
  1956                           ; 1 bytes @ 0xB
  1957                           
  1958     007B                     writeMulti@reg:	
  1959                           ; 1 bytes @ 0xB
  1960                           
  1961     007B                     EUSART_Write_Integer@value_to_send:	
  1962                           ; 1 bytes @ 0xB
  1963                           
  1964                           
  1965                           ; 2 bytes @ 0xB
  1966     007B                     	ds	1
  1967     007C                     ??_writeReg16:
  1968     007C                     ??___lldiv:	
  1969                           ; 1 bytes @ 0xC
  1970                           
  1971     007C                     tof_i2c_read@addr:	
  1972                           ; 1 bytes @ 0xC
  1973                           
  1974     007C                     writeMulti@src:	
  1975                           ; 1 bytes @ 0xC
  1976                           
  1977                           
  1978                           ; 1 bytes @ 0xC
  1979     007C                     	ds	1
  1980     007D                     ??_EUSART_Write_Integer:
  1981     007D                     tof_i2c_read@i:	
  1982                           ; 1 bytes @ 0xD
  1983                           
  1984     007D                     writeMulti@count:	
  1985                           ; 1 bytes @ 0xD
  1986                           
  1987                           
  1988                           ; 1 bytes @ 0xD
  1989     007D                     	ds	1
  1990     007E                     ??_performSingleRefCal:
  1991     007E                     ??_getVcselPulsePeriod:	
  1992                           ; 1 bytes @ 0xE
  1993                           
  1994     007E                     ??_startContinuous:	
  1995                           ; 1 bytes @ 0xE
  1996                           
  1997     007E                     ??_readRangeContinuousMm:	
  1998                           ; 1 bytes @ 0xE
  1999                           
  2000                           
  2001                           	psect	cstackBANK0
  2002     0020                     __pcstackBANK0:	
  2003                           ; 1 bytes @ 0xE
  2004                           
  2005     0020                     ?_writeReg16:
  2006     0020                     ?_writeReg32:	
  2007                           ; 1 bytes @ 0x0
  2008                           
  2009     0020                     ?_readReg:	
  2010                           ; 1 bytes @ 0x0
  2011                           
  2012     0020                     ??_writeMulti:	
  2013                           ; 1 bytes @ 0x0
  2014                           
  2015     0020                     ?_readMulti:	
  2016                           ; 1 bytes @ 0x0
  2017                           
  2018     0020                     ??_checkTimeoutExpired:	
  2019                           ; 1 bytes @ 0x0
  2020                           
  2021     0020                     ?_readReg16:	
  2022                           ; 1 bytes @ 0x0
  2023                           
  2024     0020                     ?___lldiv:	
  2025                           ; 2 bytes @ 0x0
  2026                           
  2027     0020                     writeReg16@reg:	
  2028                           ; 4 bytes @ 0x0
  2029                           
  2030     0020                     writeReg32@reg:	
  2031                           ; 1 bytes @ 0x0
  2032                           
  2033     0020                     readReg@reg:	
  2034                           ; 1 bytes @ 0x0
  2035                           
  2036     0020                     readReg16@reg:	
  2037                           ; 1 bytes @ 0x0
  2038                           
  2039     0020                     readMulti@reg:	
  2040                           ; 1 bytes @ 0x0
  2041                           
  2042     0020                     ___aldiv@counter:	
  2043                           ; 1 bytes @ 0x0
  2044                           
  2045     0020                     itoa@num:	
  2046                           ; 1 bytes @ 0x0
  2047                           
  2048     0020                     ___lldiv@divisor:	
  2049                           ; 2 bytes @ 0x0
  2050                           
  2051                           
  2052                           ; 4 bytes @ 0x0
  2053     0020                     	ds	1
  2054     0021                     ??_readReg:
  2055     0021                     writeMulti@dev:	
  2056                           ; 1 bytes @ 0x1
  2057                           
  2058     0021                     readMulti@dst:	
  2059                           ; 1 bytes @ 0x1
  2060                           
  2061     0021                     ___aldiv@sign:	
  2062                           ; 1 bytes @ 0x1
  2063                           
  2064     0021                     writeReg16@value:	
  2065                           ; 1 bytes @ 0x1
  2066                           
  2067     0021                     writeReg32@value:	
  2068                           ; 2 bytes @ 0x1
  2069                           
  2070                           
  2071                           ; 4 bytes @ 0x1
  2072     0021                     	ds	1
  2073     0022                     ??_readReg16:
  2074     0022                     readReg@val:	
  2075                           ; 1 bytes @ 0x2
  2076                           
  2077     0022                     readMulti@count:	
  2078                           ; 1 bytes @ 0x2
  2079                           
  2080     0022                     itoa@temp:	
  2081                           ; 1 bytes @ 0x2
  2082                           
  2083     0022                     ___aldiv@quotient:	
  2084                           ; 2 bytes @ 0x2
  2085                           
  2086                           
  2087                           ; 4 bytes @ 0x2
  2088     0022                     	ds	1
  2089     0023                     ??_readMulti:
  2090     0023                     readReg@dev:	
  2091                           ; 1 bytes @ 0x3
  2092                           
  2093     0023                     writeReg16@buf:	
  2094                           ; 1 bytes @ 0x3
  2095                           
  2096                           
  2097                           ; 2 bytes @ 0x3
  2098     0023                     	ds	1
  2099     0024                     ?_getSequenceStepEnables:
  2100     0024                     ?_writeReg:	
  2101                           ; 1 bytes @ 0x4
  2102                           
  2103     0024                     ?_getVcselPulsePeriod:	
  2104                           ; 1 bytes @ 0x4
  2105                           
  2106     0024                     itoa@buf:	
  2107                           ; 1 bytes @ 0x4
  2108                           
  2109     0024                     writeReg@reg:	
  2110                           ; 1 bytes @ 0x4
  2111                           
  2112     0024                     readMulti@dev:	
  2113                           ; 1 bytes @ 0x4
  2114                           
  2115     0024                     getVcselPulsePeriod@type:	
  2116                           ; 1 bytes @ 0x4
  2117                           
  2118     0024                     getSequenceStepEnables@en:	
  2119                           ; 1 bytes @ 0x4
  2120                           
  2121     0024                     ___lldiv@dividend:	
  2122                           ; 1 bytes @ 0x4
  2123                           
  2124                           
  2125                           ; 4 bytes @ 0x4
  2126     0024                     	ds	1
  2127     0025                     ??_getSequenceStepEnables:
  2128     0025                     ??_writeReg32:	
  2129                           ; 1 bytes @ 0x5
  2130                           
  2131     0025                     writeReg@value:	
  2132                           ; 1 bytes @ 0x5
  2133                           
  2134     0025                     writeReg16@dev:	
  2135                           ; 1 bytes @ 0x5
  2136                           
  2137     0025                     getVcselPulsePeriod@dev:	
  2138                           ; 1 bytes @ 0x5
  2139                           
  2140     0025                     itoa@div:	
  2141                           ; 1 bytes @ 0x5
  2142                           
  2143                           
  2144                           ; 2 bytes @ 0x5
  2145     0025                     	ds	1
  2146     0026                     ?_EUSART_Initialize:
  2147     0026                     ??_writeReg:	
  2148                           ; 1 bytes @ 0x6
  2149                           
  2150     0026                     getSequenceStepEnables@dev:	
  2151                           ; 1 bytes @ 0x6
  2152                           
  2153     0026                     EUSART_Initialize@baudrate:	
  2154                           ; 1 bytes @ 0x6
  2155                           
  2156                           
  2157                           ; 4 bytes @ 0x6
  2158     0026                     	ds	1
  2159     0027                     writeReg@dev:
  2160     0027                     getSequenceStepEnables@sc:	
  2161                           ; 1 bytes @ 0x7
  2162                           
  2163     0027                     readReg16@buf:	
  2164                           ; 1 bytes @ 0x7
  2165                           
  2166     0027                     EUSART_Write_Integer@buffer:	
  2167                           ; 2 bytes @ 0x7
  2168                           
  2169                           
  2170                           ; 20 bytes @ 0x7
  2171     0027                     	ds	1
  2172     0028                     ___lldiv@quotient:
  2173                           
  2174                           ; 4 bytes @ 0x8
  2175     0028                     	ds	1
  2176     0029                     readReg16@dev:
  2177     0029                     writeReg32@buf:	
  2178                           ; 1 bytes @ 0x9
  2179                           
  2180                           
  2181                           ; 4 bytes @ 0x9
  2182     0029                     	ds	1
  2183     002A                     ??_EUSART_Initialize:
  2184     002A                     ?_decodeTimeout:	
  2185                           ; 1 bytes @ 0xA
  2186                           
  2187     002A                     decodeTimeout@reg_val:	
  2188                           ; 2 bytes @ 0xA
  2189                           
  2190                           
  2191                           ; 2 bytes @ 0xA
  2192     002A                     	ds	2
  2193     002C                     ?_getSpadInfo:
  2194     002C                     ?_performSingleRefCal:	
  2195                           ; 1 bytes @ 0xC
  2196                           
  2197     002C                     ??_decodeTimeout:	
  2198                           ; 1 bytes @ 0xC
  2199                           
  2200     002C                     ?_readRangeContinuousMm:	
  2201                           ; 1 bytes @ 0xC
  2202                           
  2203     002C                     getSpadInfo@count:	
  2204                           ; 2 bytes @ 0xC
  2205                           
  2206     002C                     performSingleRefCal@vhv_init_byte:	
  2207                           ; 1 bytes @ 0xC
  2208                           
  2209     002C                     ___lldiv@counter:	
  2210                           ; 1 bytes @ 0xC
  2211                           
  2212                           
  2213                           ; 1 bytes @ 0xC
  2214     002C                     	ds	1
  2215     002D                     ?_timeoutUsToMclks:
  2216     002D                     ?_timeoutMclksToUs:	
  2217                           ; 4 bytes @ 0xD
  2218                           
  2219     002D                     writeReg32@dev:	
  2220                           ; 4 bytes @ 0xD
  2221                           
  2222     002D                     getSpadInfo@type_is_aperture:	
  2223                           ; 1 bytes @ 0xD
  2224                           
  2225     002D                     performSingleRefCal@dev:	
  2226                           ; 1 bytes @ 0xD
  2227                           
  2228     002D                     timeoutMclksToUs@mclks:	
  2229                           ; 1 bytes @ 0xD
  2230                           
  2231     002D                     timeoutUsToMclks@us:	
  2232                           ; 2 bytes @ 0xD
  2233                           
  2234                           
  2235                           ; 4 bytes @ 0xD
  2236     002D                     	ds	1
  2237     002E                     ??_getSpadInfo:
  2238     002E                     ?_startContinuous:	
  2239                           ; 1 bytes @ 0xE
  2240                           
  2241     002E                     readRangeContinuousMm@range:	
  2242                           ; 1 bytes @ 0xE
  2243                           
  2244     002E                     startContinuous@period_ms:	
  2245                           ; 2 bytes @ 0xE
  2246                           
  2247                           
  2248                           ; 4 bytes @ 0xE
  2249     002E                     	ds	1
  2250     002F                     getSpadInfo@tmp:
  2251     002F                     timeoutMclksToUs@vcsel_pclks:	
  2252                           ; 1 bytes @ 0xF
  2253                           
  2254                           
  2255                           ; 1 bytes @ 0xF
  2256     002F                     	ds	1
  2257     0030                     readRangeContinuousMm@dev:
  2258     0030                     getSpadInfo@dev:	
  2259                           ; 1 bytes @ 0x10
  2260                           
  2261                           
  2262                           ; 1 bytes @ 0x10
  2263     0030                     	ds	1
  2264     0031                     ??_timeoutMclksToUs:
  2265     0031                     timeoutUsToMclks@vcsel_pclks:	
  2266                           ; 1 bytes @ 0x11
  2267                           
  2268                           
  2269                           ; 1 bytes @ 0x11
  2270     0031                     	ds	1
  2271     0032                     ??_timeoutUsToMclks:
  2272     0032                     startContinuous@osc_cal:	
  2273                           ; 1 bytes @ 0x12
  2274                           
  2275                           
  2276                           ; 2 bytes @ 0x12
  2277     0032                     	ds	2
  2278     0034                     startContinuous@dev:
  2279                           
  2280                           ; 1 bytes @ 0x14
  2281     0034                     	ds	5
  2282     0039                     timeoutMclksToUs@macro_ns:
  2283                           
  2284                           ; 4 bytes @ 0x19
  2285     0039                     	ds	1
  2286     003A                     timeoutUsToMclks@macro_ns:
  2287                           
  2288                           ; 4 bytes @ 0x1A
  2289     003A                     	ds	1
  2290     003B                     EUSART_Write_Integer@ptr:
  2291                           
  2292                           ; 1 bytes @ 0x1B
  2293     003B                     	ds	1
  2294     003C                     EUSART_Write_Integer@temp_ptr:
  2295                           
  2296                           ; 1 bytes @ 0x1C
  2297     003C                     	ds	1
  2298     003D                     ?_getSequenceStepTimeouts:
  2299     003D                     getSequenceStepTimeouts@en:	
  2300                           ; 1 bytes @ 0x1D
  2301                           
  2302                           
  2303                           ; 1 bytes @ 0x1D
  2304     003D                     	ds	1
  2305     003E                     getSequenceStepTimeouts@to:
  2306                           
  2307                           ; 1 bytes @ 0x1E
  2308     003E                     	ds	1
  2309     003F                     ??_getSequenceStepTimeouts:
  2310                           
  2311                           ; 1 bytes @ 0x1F
  2312     003F                     	ds	2
  2313     0041                     getSequenceStepTimeouts@dev:
  2314                           
  2315                           ; 1 bytes @ 0x21
  2316     0041                     	ds	1
  2317     0042                     ?_setMeasurementTimingBudget:
  2318     0042                     ?_getMeasurementTimingBudget:	
  2319                           ; 1 bytes @ 0x22
  2320                           
  2321     0042                     setMeasurementTimingBudget@budget_us:	
  2322                           ; 4 bytes @ 0x22
  2323                           
  2324                           
  2325                           ; 4 bytes @ 0x22
  2326     0042                     	ds	4
  2327     0046                     ??_getMeasurementTimingBudget:
  2328     0046                     ??_setMeasurementTimingBudget:	
  2329                           ; 1 bytes @ 0x26
  2330                           
  2331                           
  2332                           ; 1 bytes @ 0x26
  2333     0046                     	ds	8
  2334     004E                     getMeasurementTimingBudget@budget:
  2335                           
  2336                           ; 4 bytes @ 0x2E
  2337     004E                     	ds	4
  2338     0052                     getMeasurementTimingBudget@dev:
  2339                           
  2340                           ; 1 bytes @ 0x32
  2341     0052                     	ds	1
  2342     0053                     getMeasurementTimingBudget@en:
  2343                           
  2344                           ; 5 bytes @ 0x33
  2345     0053                     	ds	5
  2346     0058                     getMeasurementTimingBudget@to:
  2347                           
  2348                           ; 22 bytes @ 0x38
  2349     0058                     	ds	22
  2350     006E                     ??_main:
  2351                           
  2352                           ; 1 bytes @ 0x4E
  2353     006E                     	ds	1
  2354                           
  2355                           	psect	maintext
  2356     0D89                     __pmaintext:	
  2357 ;;
  2358 ;;Main: autosize = 0, tempsize = 1, incstack = 0, save=0
  2359 ;;
  2360 ;; *************** function _main *****************
  2361 ;; Defined at:
  2362 ;;		line 905 in file "main.c"
  2363 ;; Parameters:    Size  Location     Type
  2364 ;;		None
  2365 ;; Auto vars:     Size  Location     Type
  2366 ;;  range           2   56[BANK1 ] unsigned short 
  2367 ;;  sensor         16   58[BANK1 ] struct .
  2368 ;; Return value:  Size  Location     Type
  2369 ;;                  1    wreg      void 
  2370 ;; Registers used:
  2371 ;;		wreg, fsr0l, fsr0h, fsr1l, fsr1h, status,2, status,0, pclath, cstack
  2372 ;; Tracked objects:
  2373 ;;		On entry : B1F/0
  2374 ;;		On exit  : 0/0
  2375 ;;		Unchanged: 0/0
  2376 ;; Data sizes:     COMMON   BANK0   BANK1   BANK2   BANK3   BANK4   BANK5   BANK6   BANK7   BANK8   BANK9  BANK10  BANK1
      +1  BANK12  BANK13  BANK14  BANK15  BANK16  BANK17  BANK18  BANK19  BANK20  BANK21  BANK22  BANK23  BANK24  BANK25
  2377 ;;      Params:         0       0       0       0       0       0       0       0       0       0       0       0       
      +0       0       0       0       0       0       0       0       0       0       0       0       0       0       0
  2378 ;;      Locals:         0       0      18       0       0       0       0       0       0       0       0       0       
      +0       0       0       0       0       0       0       0       0       0       0       0       0       0       0
  2379 ;;      Temps:          0       1       0       0       0       0       0       0       0       0       0       0       
      +0       0       0       0       0       0       0       0       0       0       0       0       0       0       0
  2380 ;;      Totals:         0       1      18       0       0       0       0       0       0       0       0       0       
      +0       0       0       0       0       0       0       0       0       0       0       0       0       0       0
  2381 ;;Total ram usage:       19 bytes
  2382 ;; Hardware stack levels required when called: 9
  2383 ;; This function calls:
  2384 ;;		_EUSART_Initialize
  2385 ;;		_EUSART_Write_Integer
  2386 ;;		_EUSART_Write_Text
  2387 ;;		_I2C_Init
  2388 ;;		_TMR0_Init
  2389 ;;		_VL53L0X_Init
  2390 ;;		_initMain
  2391 ;;		_readRangeContinuousMm
  2392 ;;		_setMeasurementTimingBudget
  2393 ;;		_startContinuous
  2394 ;;		_timeoutOccurred
  2395 ;; This function is called by:
  2396 ;;		Startup code after reset
  2397 ;; This function uses a non-reentrant model
  2398 ;;
  2399                           
  2400     0D89                     _main:	
  2401                           ;psect for function _main
  2402                           
  2403     0D89                     l3052:	
  2404                           ;incstack = 0
  2405                           ; Regs used in _main: [wreg-fsr1h+status,2+status,0+pclath+cstack]
  2406                           
  2407                           
  2408                           ;main.c: 907:     initMain();
  2409     0D89  3196  26ED  318D   	fcall	_initMain
  2410                           
  2411                           ;main.c: 910:     TMR0_Init();
  2412     0D8C  3194  240B  318D   	fcall	_TMR0_Init
  2413                           
  2414                           ;main.c: 913:     EUSART_Initialize(19200);
  2415     0D8F  3000               	movlw	0
  2416     0D90  0020               	movlb	0	; select bank0
  2417     0D91  00A9               	movwf	EUSART_Initialize@baudrate+3
  2418     0D92  3000               	movlw	0
  2419     0D93  00A8               	movwf	EUSART_Initialize@baudrate+2
  2420     0D94  304B               	movlw	75
  2421     0D95  00A7               	movwf	EUSART_Initialize@baudrate+1
  2422     0D96  3000               	movlw	0
  2423     0D97  00A6               	movwf	EUSART_Initialize@baudrate
  2424     0D98  3188  20A1  318D   	fcall	_EUSART_Initialize
  2425                           
  2426                           ;main.c: 916:     I2C_Init();
  2427     0D9B  3194  243B  318D   	fcall	_I2C_Init
  2428     0D9E                     l3054:
  2429                           
  2430                           ;main.c: 918:     EUSART_Write_Text("\r\nVL53L0X on PIC16F1718\r\n");
  2431     0D9E  3000               	movlw	low (STR_1| (0+32768))
  2432     0D9F  00F1               	movwf	EUSART_Write_Text@text
  2433     0DA0  3098               	movlw	high (STR_1| (0+32768))
  2434     0DA1  00F2               	movwf	EUSART_Write_Text@text+1
  2435     0DA2  3194  24F6  318D   	fcall	_EUSART_Write_Text
  2436     0DA5                     l3056:
  2437                           
  2438                           ;main.c: 919:     EUSART_Write_Text("---------------------\r\n");
  2439     0DA5  301A               	movlw	low (STR_2| (0+32768))
  2440     0DA6  00F1               	movwf	EUSART_Write_Text@text
  2441     0DA7  3098               	movlw	high (STR_2| (0+32768))
  2442     0DA8  00F2               	movwf	EUSART_Write_Text@text+1
  2443     0DA9  3194  24F6  318D   	fcall	_EUSART_Write_Text
  2444     0DAC                     l3058:
  2445                           
  2446                           ;main.c: 922:     LATBbits.LATB5 = 0;
  2447     0DAC  0022               	movlb	2	; select bank2
  2448     0DAD  128D               	bcf	13,5	;volatile
  2449     0DAE                     l3060:
  2450                           
  2451                           ;main.c: 923:     _delay((unsigned long)((2)*(32000000/4000.0)));
  2452     0DAE  3015               	movlw	21
  2453     0DAF  0020               	movlb	0	; select bank0
  2454     0DB0  00EE               	movwf	??_main
  2455     0DB1  30C6               	movlw	198
  2456     0DB2                     u3267:
  2457     0DB2  0B89               	decfsz	9,f
  2458     0DB3  2DB2               	goto	u3267
  2459     0DB4  0BEE               	decfsz	??_main,f
  2460     0DB5  2DB2               	goto	u3267
  2461     0DB6  0000               	nop
  2462     0DB7                     l3062:
  2463                           
  2464                           ;main.c: 924:     LATBbits.LATB5 = 1;
  2465     0DB7  0022               	movlb	2	; select bank2
  2466     0DB8  168D               	bsf	13,5	;volatile
  2467     0DB9                     l3064:
  2468                           
  2469                           ;main.c: 925:     _delay((unsigned long)((2)*(32000000/4000.0)));
  2470     0DB9  3015               	movlw	21
  2471     0DBA  0020               	movlb	0	; select bank0
  2472     0DBB  00EE               	movwf	??_main
  2473     0DBC  30C6               	movlw	198
  2474     0DBD                     u3277:
  2475     0DBD  0B89               	decfsz	9,f
  2476     0DBE  2DBD               	goto	u3277
  2477     0DBF  0BEE               	decfsz	??_main,f
  2478     0DC0  2DBD               	goto	u3277
  2479     0DC1  0000               	nop
  2480     0DC2                     l3066:
  2481                           
  2482                           ;main.c: 928:     VL53L0X_Dev_t sensor = {
  2483     0DC2  3020               	movlw	low main@F6439
  2484     0DC3  0086               	movwf	6
  2485     0DC4  3001               	movlw	high main@F6439
  2486     0DC5  0087               	movwf	7
  2487     0DC6  30DA               	movlw	low main@sensor
  2488     0DC7  0084               	movwf	4
  2489     0DC8  3000               	movlw	high main@sensor
  2490     0DC9  0085               	movwf	5
  2491     0DCA  3010               	movlw	16
  2492     0DCB  0020               	movlb	0	; select bank0
  2493     0DCC  00EE               	movwf	??_main
  2494     0DCD                     u3230:
  2495     0DCD  0016               	moviw fsr1++
  2496     0DCE  001A               	movwi fsr0++
  2497     0DCF  0BEE               	decfsz	??_main,f
  2498     0DD0  2DCD               	goto	u3230
  2499     0DD1                     l3068:
  2500                           
  2501                           ;main.c: 934:     if (VL53L0X_Init(&sensor))
  2502     0DD1  30DA               	movlw	(low (main@sensor| 0))& (0+255)
  2503     0DD2  3180  2037  318D   	fcall	_VL53L0X_Init
  2504     0DD5  3A00               	xorlw	0
  2505     0DD6  1903               	skipnz
  2506     0DD7  2DD9               	goto	u3241
  2507     0DD8  2DDA               	goto	u3240
  2508     0DD9                     u3241:
  2509     0DD9  2DE2               	goto	l3072
  2510     0DDA                     u3240:
  2511     0DDA                     l3070:
  2512                           
  2513                           ;main.c: 935:     {;main.c: 936:         EUSART_Write_Text("Init OK\r\n");
  2514     0DDA  305A               	movlw	low (STR_3| (0+32768))
  2515     0DDB  00F1               	movwf	EUSART_Write_Text@text
  2516     0DDC  3098               	movlw	high (STR_3| (0+32768))
  2517     0DDD  00F2               	movwf	EUSART_Write_Text@text+1
  2518     0DDE  3194  24F6  318D   	fcall	_EUSART_Write_Text
  2519                           
  2520                           ;main.c: 937:     }
  2521     0DE1  2DEA               	goto	l3074
  2522     0DE2                     l3072:
  2523                           
  2524                           ;main.c: 939:     {;main.c: 940:         EUSART_Write_Text("Init FAILED\r\n");
  2525     0DE2  3032               	movlw	low (STR_4| (0+32768))
  2526     0DE3  00F1               	movwf	EUSART_Write_Text@text
  2527     0DE4  3098               	movlw	high (STR_4| (0+32768))
  2528     0DE5  00F2               	movwf	EUSART_Write_Text@text+1
  2529     0DE6  3194  24F6  318D   	fcall	_EUSART_Write_Text
  2530     0DE9                     l462:	
  2531                           ;main.c: 941:         while (1);
  2532                           
  2533     0DE9                     l463:
  2534     0DE9  2DE9               	goto	l462
  2535     0DEA                     l3074:
  2536                           
  2537                           ;main.c: 953:     setMeasurementTimingBudget(&sensor, 20000);
  2538     0DEA  3000               	movlw	0
  2539     0DEB  0020               	movlb	0	; select bank0
  2540     0DEC  00C5               	movwf	setMeasurementTimingBudget@budget_us+3
  2541     0DED  3000               	movlw	0
  2542     0DEE  00C4               	movwf	setMeasurementTimingBudget@budget_us+2
  2543     0DEF  304E               	movlw	78
  2544     0DF0  00C3               	movwf	setMeasurementTimingBudget@budget_us+1
  2545     0DF1  3020               	movlw	32
  2546     0DF2  00C2               	movwf	setMeasurementTimingBudget@budget_us
  2547     0DF3  30DA               	movlw	(low (main@sensor| 0))& (0+255)
  2548     0DF4  3185  2517  318D   	fcall	_setMeasurementTimingBudget
  2549     0DF7                     l3076:
  2550                           
  2551                           ;main.c: 954:     EUSART_Write_Text("HIGH SPEED\r\n");
  2552     0DF7  304D               	movlw	low (STR_5| (0+32768))
  2553     0DF8  00F1               	movwf	EUSART_Write_Text@text
  2554     0DF9  3098               	movlw	high (STR_5| (0+32768))
  2555     0DFA  00F2               	movwf	EUSART_Write_Text@text+1
  2556     0DFB  3194  24F6  318D   	fcall	_EUSART_Write_Text
  2557     0DFE                     l3078:
  2558                           
  2559                           ;main.c: 961:     startContinuous(&sensor, 0);
  2560     0DFE  3000               	movlw	0
  2561     0DFF  0020               	movlb	0	; select bank0
  2562     0E00  00B1               	movwf	startContinuous@period_ms+3
  2563     0E01  3000               	movlw	0
  2564     0E02  00B0               	movwf	startContinuous@period_ms+2
  2565     0E03  3000               	movlw	0
  2566     0E04  00AF               	movwf	startContinuous@period_ms+1
  2567     0E05  3000               	movlw	0
  2568     0E06  00AE               	movwf	startContinuous@period_ms
  2569     0E07  30DA               	movlw	(low (main@sensor| 0))& (0+255)
  2570     0E08  318C  245F  318D   	fcall	_startContinuous
  2571                           
  2572                           ;main.c: 962:     EUSART_Write_Text("Ranging...\r\n");
  2573     0E0B  3040               	movlw	low (STR_6| (0+32768))
  2574     0E0C  00F1               	movwf	EUSART_Write_Text@text
  2575     0E0D  3098               	movlw	high (STR_6| (0+32768))
  2576     0E0E  00F2               	movwf	EUSART_Write_Text@text+1
  2577     0E0F  3194  24F6  318D   	fcall	_EUSART_Write_Text
  2578     0E12                     l3080:
  2579                           
  2580                           ;main.c: 965:     {;main.c: 966:         uint16_t range = readRangeContinuousMm(&sensor)
      +                          ;
  2581     0E12  30DA               	movlw	(low (main@sensor| 0))& (0+255)
  2582     0E13  3197  2771  318D   	fcall	_readRangeContinuousMm
  2583     0E16  0020               	movlb	0	; select bank0
  2584     0E17  082D               	movf	?_readRangeContinuousMm+1,w
  2585     0E18  0021               	movlb	1	; select bank1
  2586     0E19  00D9               	movwf	(main@range+1)^(0+128)
  2587     0E1A  0020               	movlb	0	; select bank0
  2588     0E1B  082C               	movf	?_readRangeContinuousMm,w
  2589     0E1C  0021               	movlb	1	; select bank1
  2590     0E1D  00D8               	movwf	main@range^(0+128)
  2591     0E1E                     l3082:
  2592                           
  2593                           ;main.c: 968:         if (timeoutOccurred(&sensor))
  2594     0E1E  30DA               	movlw	(low (main@sensor| 0))& (0+255)
  2595     0E1F  3193  23FE  318D   	fcall	_timeoutOccurred
  2596     0E22  3A00               	xorlw	0
  2597     0E23  1903               	skipnz
  2598     0E24  2E26               	goto	u3251
  2599     0E25  2E27               	goto	u3250
  2600     0E26                     u3251:
  2601     0E26  2E2F               	goto	l3086
  2602     0E27                     u3250:
  2603     0E27                     l3084:
  2604                           
  2605                           ;main.c: 969:         {;main.c: 970:             EUSART_Write_Text("TIMEOUT\r\n");
  2606     0E27  3064               	movlw	low (STR_7| (0+32768))
  2607     0E28  00F1               	movwf	EUSART_Write_Text@text
  2608     0E29  3098               	movlw	high (STR_7| (0+32768))
  2609     0E2A  00F2               	movwf	EUSART_Write_Text@text+1
  2610     0E2B  3194  24F6  318D   	fcall	_EUSART_Write_Text
  2611                           
  2612                           ;main.c: 971:         }
  2613     0E2E  2E12               	goto	l3080
  2614     0E2F                     l3086:
  2615                           
  2616                           ;main.c: 973:         {;main.c: 974:             EUSART_Write_Text("\t");
  2617     0E2F  3074               	movlw	low (STR_8| (0+32768))
  2618     0E30  00F1               	movwf	EUSART_Write_Text@text
  2619     0E31  3098               	movlw	high (STR_8| (0+32768))
  2620     0E32  00F2               	movwf	EUSART_Write_Text@text+1
  2621     0E33  3194  24F6  318D   	fcall	_EUSART_Write_Text
  2622     0E36                     l3088:
  2623                           
  2624                           ;main.c: 975:             EUSART_Write_Integer((int)range);
  2625     0E36  0021               	movlb	1	; select bank1
  2626     0E37  0859               	movf	(main@range+1)^(0+128),w
  2627     0E38  00FC               	movwf	EUSART_Write_Integer@value_to_send+1
  2628     0E39  0858               	movf	main@range^(0+128),w
  2629     0E3A  00FB               	movwf	EUSART_Write_Integer@value_to_send
  2630     0E3B  3195  2593  318D   	fcall	_EUSART_Write_Integer
  2631     0E3E                     l3090:
  2632                           
  2633                           ;main.c: 976:             EUSART_Write_Text("\tmm\r\n");
  2634     0E3E  306E               	movlw	low (STR_9| (0+32768))
  2635     0E3F  00F1               	movwf	EUSART_Write_Text@text
  2636     0E40  3098               	movlw	high (STR_9| (0+32768))
  2637     0E41  00F2               	movwf	EUSART_Write_Text@text+1
  2638     0E42  3194  24F6  318D   	fcall	_EUSART_Write_Text
  2639     0E45  2E12               	goto	l3080
  2640     0E46  3180  2819         	ljmp	start
  2641     0E48                     __end_of_main:
  2642                           
  2643                           	psect	text1
  2644     13FE                     __ptext1:	
  2645 ;; *************** function _timeoutOccurred *****************
  2646 ;; Defined at:
  2647 ;;		line 718 in file "main.c"
  2648 ;; Parameters:    Size  Location     Type
  2649 ;;  dev             1    wreg     PTR struct .
  2650 ;;		 -> main@sensor(16), 
  2651 ;; Auto vars:     Size  Location     Type
  2652 ;;  dev             1    1[COMMON] PTR struct .
  2653 ;;		 -> main@sensor(16), 
  2654 ;;  tmp             1    0[COMMON] _Bool 
  2655 ;; Return value:  Size  Location     Type
  2656 ;;                  1    wreg      _Bool 
  2657 ;; Registers used:
  2658 ;;		wreg, fsr1l, fsr1h, status,2, status,0
  2659 ;; Tracked objects:
  2660 ;;		On entry : 0/0
  2661 ;;		On exit  : 0/0
  2662 ;;		Unchanged: 0/0
  2663 ;; Data sizes:     COMMON   BANK0   BANK1   BANK2   BANK3   BANK4   BANK5   BANK6   BANK7   BANK8   BANK9  BANK10  BANK1
      +1  BANK12  BANK13  BANK14  BANK15  BANK16  BANK17  BANK18  BANK19  BANK20  BANK21  BANK22  BANK23  BANK24  BANK25
  2664 ;;      Params:         0       0       0       0       0       0       0       0       0       0       0       0       
      +0       0       0       0       0       0       0       0       0       0       0       0       0       0       0
  2665 ;;      Locals:         2       0       0       0       0       0       0       0       0       0       0       0       
      +0       0       0       0       0       0       0       0       0       0       0       0       0       0       0
  2666 ;;      Temps:          0       0       0       0       0       0       0       0       0       0       0       0       
      +0       0       0       0       0       0       0       0       0       0       0       0       0       0       0
  2667 ;;      Totals:         2       0       0       0       0       0       0       0       0       0       0       0       
      +0       0       0       0       0       0       0       0       0       0       0       0       0       0       0
  2668 ;;Total ram usage:        2 bytes
  2669 ;; Hardware stack levels used: 1
  2670 ;; Hardware stack levels required when called: 1
  2671 ;; This function calls:
  2672 ;;		Nothing
  2673 ;; This function is called by:
  2674 ;;		_main
  2675 ;; This function uses a non-reentrant model
  2676 ;;
  2677                           
  2678     13FE                     _timeoutOccurred:	
  2679                           ;psect for function _timeoutOccurred
  2680                           
  2681                           
  2682                           ;incstack = 0
  2683                           ; Regs used in _timeoutOccurred: [wreg+fsr1l+fsr1h+status,2+status,0]
  2684                           ;timeoutOccurred@dev stored from wreg
  2685     13FE  00F1               	movwf	timeoutOccurred@dev
  2686     13FF                     l2914:
  2687                           
  2688                           ;main.c: 718: static _Bool timeoutOccurred(VL53L0X_Dev_t *dev);main.c: 719: {;main.c: 72
      +                          0:     _Bool tmp = dev->did_timeout;
  2689     13FF  0871               	movf	timeoutOccurred@dev,w
  2690     1400  0086               	movwf	6
  2691     1401  0187               	clrf	7
  2692     1402  3F43               	moviw [3]fsr1
  2693     1403  00F0               	movwf	timeoutOccurred@tmp
  2694     1404                     l2916:
  2695                           
  2696                           ;main.c: 721:     dev->did_timeout = 0;
  2697     1404  0871               	movf	timeoutOccurred@dev,w
  2698     1405  3E03               	addlw	3
  2699     1406  0086               	movwf	6
  2700     1407  0187               	clrf	7
  2701     1408  0181               	clrf	1
  2702     1409                     l2918:
  2703                           
  2704                           ;main.c: 722:     return tmp;
  2705     1409  0870               	movf	timeoutOccurred@tmp,w
  2706     140A                     l413:
  2707     140A  0008               	return
  2708     140B                     __end_of_timeoutOccurred:
  2709                           
  2710                           	psect	text2
  2711     0C5F                     __ptext2:	
  2712 ;; *************** function _startContinuous *****************
  2713 ;; Defined at:
  2714 ;;		line 644 in file "main.c"
  2715 ;; Parameters:    Size  Location     Type
  2716 ;;  dev             1    wreg     PTR struct .
  2717 ;;		 -> main@sensor(16), 
  2718 ;;  period_ms       4   14[BANK0 ] unsigned long 
  2719 ;; Auto vars:     Size  Location     Type
  2720 ;;  dev             1   20[BANK0 ] PTR struct .
  2721 ;;		 -> main@sensor(16), 
  2722 ;;  osc_cal         2   18[BANK0 ] unsigned short 
  2723 ;; Return value:  Size  Location     Type
  2724 ;;                  1    wreg      void 
  2725 ;; Registers used:
  2726 ;;		wreg, fsr1l, fsr1h, status,2, status,0, pclath, cstack
  2727 ;; Tracked objects:
  2728 ;;		On entry : 0/0
  2729 ;;		On exit  : 0/0
  2730 ;;		Unchanged: 0/0
  2731 ;; Data sizes:     COMMON   BANK0   BANK1   BANK2   BANK3   BANK4   BANK5   BANK6   BANK7   BANK8   BANK9  BANK10  BANK1
      +1  BANK12  BANK13  BANK14  BANK15  BANK16  BANK17  BANK18  BANK19  BANK20  BANK21  BANK22  BANK23  BANK24  BANK25
  2732 ;;      Params:         0       4       0       0       0       0       0       0       0       0       0       0       
      +0       0       0       0       0       0       0       0       0       0       0       0       0       0       0
  2733 ;;      Locals:         0       3       0       0       0       0       0       0       0       0       0       0       
      +0       0       0       0       0       0       0       0       0       0       0       0       0       0       0
  2734 ;;      Temps:          0       0       0       0       0       0       0       0       0       0       0       0       
      +0       0       0       0       0       0       0       0       0       0       0       0       0       0       0
  2735 ;;      Totals:         0       7       0       0       0       0       0       0       0       0       0       0       
      +0       0       0       0       0       0       0       0       0       0       0       0       0       0       0
  2736 ;;Total ram usage:        7 bytes
  2737 ;; Hardware stack levels used: 1
  2738 ;; Hardware stack levels required when called: 5
  2739 ;; This function calls:
  2740 ;;		___lmul
  2741 ;;		_readReg16
  2742 ;;		_writeReg
  2743 ;;		_writeReg32
  2744 ;; This function is called by:
  2745 ;;		_main
  2746 ;; This function uses a non-reentrant model
  2747 ;;
  2748                           
  2749     0C5F                     _startContinuous:	
  2750                           ;psect for function _startContinuous
  2751                           
  2752                           
  2753                           ;incstack = 0
  2754                           ; Regs used in _startContinuous: [wreg+fsr1l+fsr1h+status,2+status,0+pclath+cstack]
  2755                           ;startContinuous@dev stored from wreg
  2756     0C5F  0020               	movlb	0	; select bank0
  2757     0C60  00B4               	movwf	startContinuous@dev
  2758     0C61                     l2880:
  2759                           
  2760                           ;main.c: 644: static void startContinuous(VL53L0X_Dev_t *dev, uint32_t period_ms);main.c
      +                          : 645: {;main.c: 646:     writeReg(dev, 0x80, 0x01);
  2761     0C61  3080               	movlw	128
  2762     0C62  00A4               	movwf	writeReg@reg
  2763     0C63  01A5               	clrf	writeReg@value
  2764     0C64  0AA5               	incf	writeReg@value,f
  2765     0C65  0834               	movf	startContinuous@dev,w
  2766     0C66  3194  2478  318C   	fcall	_writeReg
  2767                           
  2768                           ;main.c: 647:     writeReg(dev, 0xFF, 0x01);
  2769     0C69  30FF               	movlw	255
  2770     0C6A  0020               	movlb	0	; select bank0
  2771     0C6B  00A4               	movwf	writeReg@reg
  2772     0C6C  01A5               	clrf	writeReg@value
  2773     0C6D  0AA5               	incf	writeReg@value,f
  2774     0C6E  0834               	movf	startContinuous@dev,w
  2775     0C6F  3194  2478  318C   	fcall	_writeReg
  2776                           
  2777                           ;main.c: 648:     writeReg(dev, 0x00, 0x00);
  2778     0C72  0020               	movlb	0	; select bank0
  2779     0C73  01A4               	clrf	writeReg@reg
  2780     0C74  01A5               	clrf	writeReg@value
  2781     0C75  0834               	movf	startContinuous@dev,w
  2782     0C76  3194  2478  318C   	fcall	_writeReg
  2783                           
  2784                           ;main.c: 649:     writeReg(dev, 0x91, dev->stop_variable);
  2785     0C79  3091               	movlw	145
  2786     0C7A  0020               	movlb	0	; select bank0
  2787     0C7B  00A4               	movwf	writeReg@reg
  2788     0C7C  0834               	movf	startContinuous@dev,w
  2789     0C7D  0086               	movwf	6
  2790     0C7E  0187               	clrf	7
  2791     0C7F  3F41               	moviw [1]fsr1
  2792     0C80  00A5               	movwf	writeReg@value
  2793     0C81  0834               	movf	startContinuous@dev,w
  2794     0C82  3194  2478  318C   	fcall	_writeReg
  2795                           
  2796                           ;main.c: 650:     writeReg(dev, 0x00, 0x01);
  2797     0C85  0020               	movlb	0	; select bank0
  2798     0C86  01A4               	clrf	writeReg@reg
  2799     0C87  01A5               	clrf	writeReg@value
  2800     0C88  0AA5               	incf	writeReg@value,f
  2801     0C89  0834               	movf	startContinuous@dev,w
  2802     0C8A  3194  2478  318C   	fcall	_writeReg
  2803                           
  2804                           ;main.c: 651:     writeReg(dev, 0xFF, 0x00);
  2805     0C8D  30FF               	movlw	255
  2806     0C8E  0020               	movlb	0	; select bank0
  2807     0C8F  00A4               	movwf	writeReg@reg
  2808     0C90  01A5               	clrf	writeReg@value
  2809     0C91  0834               	movf	startContinuous@dev,w
  2810     0C92  3194  2478  318C   	fcall	_writeReg
  2811                           
  2812                           ;main.c: 652:     writeReg(dev, 0x80, 0x00);
  2813     0C95  3080               	movlw	128
  2814     0C96  0020               	movlb	0	; select bank0
  2815     0C97  00A4               	movwf	writeReg@reg
  2816     0C98  01A5               	clrf	writeReg@value
  2817     0C99  0834               	movf	startContinuous@dev,w
  2818     0C9A  3194  2478  318C   	fcall	_writeReg
  2819     0C9D                     l2882:
  2820                           
  2821                           ;main.c: 654:     if (period_ms != 0)
  2822     0C9D  0020               	movlb	0	; select bank0
  2823     0C9E  0831               	movf	startContinuous@period_ms+3,w
  2824     0C9F  0430               	iorwf	startContinuous@period_ms+2,w
  2825     0CA0  042F               	iorwf	startContinuous@period_ms+1,w
  2826     0CA1  042E               	iorwf	startContinuous@period_ms,w
  2827     0CA2  1903               	skipnz
  2828     0CA3  2CA5               	goto	u3121
  2829     0CA4  2CA6               	goto	u3120
  2830     0CA5                     u3121:
  2831     0CA5  2CE8               	goto	l2894
  2832     0CA6                     u3120:
  2833     0CA6                     l2884:
  2834                           
  2835                           ;main.c: 655:     {;main.c: 656:         uint16_t osc_cal = readReg16(dev, 0xF8);
  2836     0CA6  30F8               	movlw	248
  2837     0CA7  00A0               	movwf	readReg16@reg
  2838     0CA8  0834               	movf	startContinuous@dev,w
  2839     0CA9  3196  2625  318C   	fcall	_readReg16
  2840     0CAC  0020               	movlb	0	; select bank0
  2841     0CAD  0821               	movf	?_readReg16+1,w
  2842     0CAE  00B3               	movwf	startContinuous@osc_cal+1
  2843     0CAF  0820               	movf	?_readReg16,w
  2844     0CB0  00B2               	movwf	startContinuous@osc_cal
  2845     0CB1                     l2886:
  2846                           
  2847                           ;main.c: 657:         if (osc_cal != 0) period_ms *= osc_cal;
  2848     0CB1  0832               	movf	startContinuous@osc_cal,w
  2849     0CB2  0433               	iorwf	startContinuous@osc_cal+1,w
  2850     0CB3  1903               	btfsc	3,2
  2851     0CB4  2CB6               	goto	u3131
  2852     0CB5  2CB7               	goto	u3130
  2853     0CB6                     u3131:
  2854     0CB6  2CD1               	goto	l2890
  2855     0CB7                     u3130:
  2856     0CB7                     l2888:
  2857     0CB7  0832               	movf	startContinuous@osc_cal,w
  2858     0CB8  00F0               	movwf	___lmul@multiplier
  2859     0CB9  0833               	movf	startContinuous@osc_cal+1,w
  2860     0CBA  00F1               	movwf	___lmul@multiplier+1
  2861     0CBB  01F2               	clrf	___lmul@multiplier+2
  2862     0CBC  01F3               	clrf	___lmul@multiplier+3
  2863     0CBD  0831               	movf	startContinuous@period_ms+3,w
  2864     0CBE  00F7               	movwf	___lmul@multiplicand+3
  2865     0CBF  0830               	movf	startContinuous@period_ms+2,w
  2866     0CC0  00F6               	movwf	___lmul@multiplicand+2
  2867     0CC1  082F               	movf	startContinuous@period_ms+1,w
  2868     0CC2  00F5               	movwf	___lmul@multiplicand+1
  2869     0CC3  082E               	movf	startContinuous@period_ms,w
  2870     0CC4  00F4               	movwf	___lmul@multiplicand
  2871     0CC5  3196  2680  318C   	fcall	___lmul
  2872     0CC8  0873               	movf	?___lmul+3,w
  2873     0CC9  0020               	movlb	0	; select bank0
  2874     0CCA  00B1               	movwf	startContinuous@period_ms+3
  2875     0CCB  0872               	movf	?___lmul+2,w
  2876     0CCC  00B0               	movwf	startContinuous@period_ms+2
  2877     0CCD  0871               	movf	?___lmul+1,w
  2878     0CCE  00AF               	movwf	startContinuous@period_ms+1
  2879     0CCF  0870               	movf	?___lmul,w
  2880     0CD0  00AE               	movwf	startContinuous@period_ms
  2881     0CD1                     l2890:
  2882                           
  2883                           ;main.c: 658:         writeReg32(dev, 0x04, period_ms);
  2884     0CD1  3004               	movlw	4
  2885     0CD2  00A0               	movwf	writeReg32@reg
  2886     0CD3  0831               	movf	startContinuous@period_ms+3,w
  2887     0CD4  00A4               	movwf	writeReg32@value+3
  2888     0CD5  0830               	movf	startContinuous@period_ms+2,w
  2889     0CD6  00A3               	movwf	writeReg32@value+2
  2890     0CD7  082F               	movf	startContinuous@period_ms+1,w
  2891     0CD8  00A2               	movwf	writeReg32@value+1
  2892     0CD9  082E               	movf	startContinuous@period_ms,w
  2893     0CDA  00A1               	movwf	writeReg32@value
  2894     0CDB  0834               	movf	startContinuous@dev,w
  2895     0CDC  3188  2054  318C   	fcall	_writeReg32
  2896     0CDF                     l2892:
  2897                           
  2898                           ;main.c: 659:         writeReg(dev, 0x00, 0x04);
  2899     0CDF  0020               	movlb	0	; select bank0
  2900     0CE0  01A4               	clrf	writeReg@reg
  2901     0CE1  3004               	movlw	4
  2902     0CE2  00A5               	movwf	writeReg@value
  2903     0CE3  0834               	movf	startContinuous@dev,w
  2904     0CE4  3194  2478  318C   	fcall	_writeReg
  2905                           
  2906                           ;main.c: 660:     }
  2907     0CE7  2CEF               	goto	l393
  2908     0CE8                     l2894:
  2909                           
  2910                           ;main.c: 662:     {;main.c: 663:         writeReg(dev, 0x00, 0x02);
  2911     0CE8  01A4               	clrf	writeReg@reg
  2912     0CE9  3002               	movlw	2
  2913     0CEA  00A5               	movwf	writeReg@value
  2914     0CEB  0834               	movf	startContinuous@dev,w
  2915     0CEC  3194  2478  318C   	fcall	_writeReg
  2916     0CEF                     l393:
  2917     0CEF  0008               	return
  2918     0CF0                     __end_of_startContinuous:
  2919                           
  2920                           	psect	text3
  2921     0854                     __ptext3:	
  2922 ;; *************** function _writeReg32 *****************
  2923 ;; Defined at:
  2924 ;;		line 257 in file "main.c"
  2925 ;; Parameters:    Size  Location     Type
  2926 ;;  dev             1    wreg     PTR struct .
  2927 ;;		 -> main@sensor(16), 
  2928 ;;  reg             1    0[BANK0 ] unsigned char 
  2929 ;;  value           4    1[BANK0 ] unsigned long 
  2930 ;; Auto vars:     Size  Location     Type
  2931 ;;  dev             1   13[BANK0 ] PTR struct .
  2932 ;;		 -> main@sensor(16), 
  2933 ;;  buf             4    9[BANK0 ] unsigned char [4]
  2934 ;; Return value:  Size  Location     Type
  2935 ;;                  1    wreg      void 
  2936 ;; Registers used:
  2937 ;;		wreg, fsr1l, fsr1h, status,2, status,0, pclath, cstack
  2938 ;; Tracked objects:
  2939 ;;		On entry : 0/0
  2940 ;;		On exit  : 0/0
  2941 ;;		Unchanged: 0/0
  2942 ;; Data sizes:     COMMON   BANK0   BANK1   BANK2   BANK3   BANK4   BANK5   BANK6   BANK7   BANK8   BANK9  BANK10  BANK1
      +1  BANK12  BANK13  BANK14  BANK15  BANK16  BANK17  BANK18  BANK19  BANK20  BANK21  BANK22  BANK23  BANK24  BANK25
  2943 ;;      Params:         0       5       0       0       0       0       0       0       0       0       0       0       
      +0       0       0       0       0       0       0       0       0       0       0       0       0       0       0
  2944 ;;      Locals:         0       5       0       0       0       0       0       0       0       0       0       0       
      +0       0       0       0       0       0       0       0       0       0       0       0       0       0       0
  2945 ;;      Temps:          0       4       0       0       0       0       0       0       0       0       0       0       
      +0       0       0       0       0       0       0       0       0       0       0       0       0       0       0
  2946 ;;      Totals:         0      14       0       0       0       0       0       0       0       0       0       0       
      +0       0       0       0       0       0       0       0       0       0       0       0       0       0       0
  2947 ;;Total ram usage:       14 bytes
  2948 ;; Hardware stack levels used: 1
  2949 ;; Hardware stack levels required when called: 4
  2950 ;; This function calls:
  2951 ;;		_tof_i2c_write
  2952 ;; This function is called by:
  2953 ;;		_startContinuous
  2954 ;; This function uses a non-reentrant model
  2955 ;;
  2956                           
  2957     0854                     _writeReg32:	
  2958                           ;psect for function _writeReg32
  2959                           
  2960                           
  2961                           ;incstack = 0
  2962                           ; Regs used in _writeReg32: [wreg+fsr1l+fsr1h+status,2+status,0+pclath+cstack]
  2963                           ;writeReg32@dev stored from wreg
  2964     0854  0020               	movlb	0	; select bank0
  2965     0855  00AD               	movwf	writeReg32@dev
  2966     0856                     l2592:
  2967                           
  2968                           ;main.c: 257: static void writeReg32(VL53L0X_Dev_t *dev, uint8_t reg, uint32_t value);ma
      +                          in.c: 258: {;main.c: 259:     uint8_t buf[4];;main.c: 260:     buf[0] = (uint8_t)(value 
      +                          >> 24);
  2969     0856  0821               	movf	writeReg32@value,w
  2970     0857  00A5               	movwf	??_writeReg32
  2971     0858  0822               	movf	writeReg32@value+1,w
  2972     0859  00A6               	movwf	??_writeReg32+1
  2973     085A  0823               	movf	writeReg32@value+2,w
  2974     085B  00A7               	movwf	??_writeReg32+2
  2975     085C  0824               	movf	writeReg32@value+3,w
  2976     085D  00A8               	movwf	??_writeReg32+3
  2977     085E  3018               	movlw	24
  2978     085F                     u2635:
  2979     085F  36A8               	lsrf	??_writeReg32+3,f
  2980     0860  0CA7               	rrf	??_writeReg32+2,f
  2981     0861  0CA6               	rrf	??_writeReg32+1,f
  2982     0862  0CA5               	rrf	??_writeReg32,f
  2983     0863                     u2630:
  2984     0863  0B89               	decfsz	9,f
  2985     0864  285F               	goto	u2635
  2986     0865  0825               	movf	??_writeReg32,w
  2987     0866  00A9               	movwf	writeReg32@buf
  2988                           
  2989                           ;main.c: 261:     buf[1] = (uint8_t)(value >> 16);
  2990     0867  0821               	movf	writeReg32@value,w
  2991     0868  00A5               	movwf	??_writeReg32
  2992     0869  0822               	movf	writeReg32@value+1,w
  2993     086A  00A6               	movwf	??_writeReg32+1
  2994     086B  0823               	movf	writeReg32@value+2,w
  2995     086C  00A7               	movwf	??_writeReg32+2
  2996     086D  0824               	movf	writeReg32@value+3,w
  2997     086E  00A8               	movwf	??_writeReg32+3
  2998     086F  3010               	movlw	16
  2999     0870                     u2645:
  3000     0870  36A8               	lsrf	??_writeReg32+3,f
  3001     0871  0CA7               	rrf	??_writeReg32+2,f
  3002     0872  0CA6               	rrf	??_writeReg32+1,f
  3003     0873  0CA5               	rrf	??_writeReg32,f
  3004     0874                     u2640:
  3005     0874  0B89               	decfsz	9,f
  3006     0875  2870               	goto	u2645
  3007     0876  0825               	movf	??_writeReg32,w
  3008     0877  00AA               	movwf	writeReg32@buf+1
  3009                           
  3010                           ;main.c: 262:     buf[2] = (uint8_t)(value >> 8);
  3011     0878  0821               	movf	writeReg32@value,w
  3012     0879  00A5               	movwf	??_writeReg32
  3013     087A  0822               	movf	writeReg32@value+1,w
  3014     087B  00A6               	movwf	??_writeReg32+1
  3015     087C  0823               	movf	writeReg32@value+2,w
  3016     087D  00A7               	movwf	??_writeReg32+2
  3017     087E  0824               	movf	writeReg32@value+3,w
  3018     087F  00A8               	movwf	??_writeReg32+3
  3019     0880  3008               	movlw	8
  3020     0881                     u2655:
  3021     0881  36A8               	lsrf	??_writeReg32+3,f
  3022     0882  0CA7               	rrf	??_writeReg32+2,f
  3023     0883  0CA6               	rrf	??_writeReg32+1,f
  3024     0884  0CA5               	rrf	??_writeReg32,f
  3025     0885                     u2650:
  3026     0885  0B89               	decfsz	9,f
  3027     0886  2881               	goto	u2655
  3028     0887  0825               	movf	??_writeReg32,w
  3029     0888  00AB               	movwf	writeReg32@buf+2
  3030     0889                     l2594:
  3031                           
  3032                           ;main.c: 263:     buf[3] = (uint8_t)(value & 0xFF);
  3033     0889  0821               	movf	writeReg32@value,w
  3034     088A  00AC               	movwf	writeReg32@buf+3
  3035     088B                     l2596:
  3036                           
  3037                           ;main.c: 264:     dev->last_status = tof_i2c_write(dev->address, reg, buf, 4);
  3038     088B  0820               	movf	writeReg32@reg,w
  3039     088C  00F5               	movwf	tof_i2c_write@reg
  3040     088D  3029               	movlw	(low (writeReg32@buf| 0))& (0+255)
  3041     088E  00F6               	movwf	tof_i2c_write@src
  3042     088F  3004               	movlw	4
  3043     0890  00F7               	movwf	tof_i2c_write@len
  3044     0891  082D               	movf	writeReg32@dev,w
  3045     0892  0086               	movwf	6
  3046     0893  0187               	clrf	7
  3047     0894  0801               	movf	1,w
  3048     0895  3197  27B4  3188   	fcall	_tof_i2c_write
  3049     0898  0020               	movlb	0	; select bank0
  3050     0899  00A5               	movwf	??_writeReg32
  3051     089A  082D               	movf	writeReg32@dev,w
  3052     089B  3E02               	addlw	2
  3053     089C  0086               	movwf	6
  3054     089D  0187               	clrf	7
  3055     089E  0825               	movf	??_writeReg32,w
  3056     089F  0081               	movwf	1
  3057     08A0                     l290:
  3058     08A0  0008               	return
  3059     08A1                     __end_of_writeReg32:
  3060                           
  3061                           	psect	text4
  3062     1771                     __ptext4:	
  3063 ;; *************** function _readRangeContinuousMm *****************
  3064 ;; Defined at:
  3065 ;;		line 677 in file "main.c"
  3066 ;; Parameters:    Size  Location     Type
  3067 ;;  dev             1    wreg     PTR struct .
  3068 ;;		 -> main@sensor(16), 
  3069 ;; Auto vars:     Size  Location     Type
  3070 ;;  dev             1   16[BANK0 ] PTR struct .
  3071 ;;		 -> main@sensor(16), 
  3072 ;;  range           2   14[BANK0 ] unsigned short 
  3073 ;; Return value:  Size  Location     Type
  3074 ;;                  2   12[BANK0 ] unsigned short 
  3075 ;; Registers used:
  3076 ;;		wreg, fsr1l, fsr1h, status,2, status,0, pclath, cstack
  3077 ;; Tracked objects:
  3078 ;;		On entry : 0/0
  3079 ;;		On exit  : 0/0
  3080 ;;		Unchanged: 0/0
  3081 ;; Data sizes:     COMMON   BANK0   BANK1   BANK2   BANK3   BANK4   BANK5   BANK6   BANK7   BANK8   BANK9  BANK10  BANK1
      +1  BANK12  BANK13  BANK14  BANK15  BANK16  BANK17  BANK18  BANK19  BANK20  BANK21  BANK22  BANK23  BANK24  BANK25
  3082 ;;      Params:         0       2       0       0       0       0       0       0       0       0       0       0       
      +0       0       0       0       0       0       0       0       0       0       0       0       0       0       0
  3083 ;;      Locals:         0       3       0       0       0       0       0       0       0       0       0       0       
      +0       0       0       0       0       0       0       0       0       0       0       0       0       0       0
  3084 ;;      Temps:          0       0       0       0       0       0       0       0       0       0       0       0       
      +0       0       0       0       0       0       0       0       0       0       0       0       0       0       0
  3085 ;;      Totals:         0       5       0       0       0       0       0       0       0       0       0       0       
      +0       0       0       0       0       0       0       0       0       0       0       0       0       0       0
  3086 ;;Total ram usage:        5 bytes
  3087 ;; Hardware stack levels used: 1
  3088 ;; Hardware stack levels required when called: 5
  3089 ;; This function calls:
  3090 ;;		_checkTimeoutExpired
  3091 ;;		_readReg
  3092 ;;		_readReg16
  3093 ;;		_startTimeout
  3094 ;;		_writeReg
  3095 ;; This function is called by:
  3096 ;;		_main
  3097 ;;		_readRangeSingleMm
  3098 ;; This function uses a non-reentrant model
  3099 ;;
  3100                           
  3101     1771                     _readRangeContinuousMm:	
  3102                           ;psect for function _readRangeContinuousMm
  3103                           
  3104                           
  3105                           ;incstack = 0
  3106                           ; Regs used in _readRangeContinuousMm: [wreg+fsr1l+fsr1h+status,2+status,0+pclath+cstack
      +                          ]
  3107                           ;readRangeContinuousMm@dev stored from wreg
  3108     1771  0020               	movlb	0	; select bank0
  3109     1772  00B0               	movwf	readRangeContinuousMm@dev
  3110     1773                     l2896:
  3111                           
  3112                           ;main.c: 677: static uint16_t readRangeContinuousMm(VL53L0X_Dev_t *dev);main.c: 678: {;m
      +                          ain.c: 679:     startTimeout(dev);
  3113     1773  0830               	movf	readRangeContinuousMm@dev,w
  3114     1774  3194  242A  3197   	fcall	_startTimeout
  3115                           
  3116                           ;main.c: 680:     while ((readReg(dev, 0x13) & 0x07) == 0)
  3117     1777  2F8E               	goto	l2906
  3118     1778                     l2898:
  3119                           
  3120                           ;main.c: 681:     {;main.c: 682:         if (checkTimeoutExpired(dev))
  3121     1778  0020               	movlb	0	; select bank0
  3122     1779  0830               	movf	readRangeContinuousMm@dev,w
  3123     177A  3189  2144  3197   	fcall	_checkTimeoutExpired
  3124     177D  3A00               	xorlw	0
  3125     177E  1903               	skipnz
  3126     177F  2F81               	goto	u3141
  3127     1780  2F82               	goto	u3140
  3128     1781                     u3141:
  3129     1781  2F8E               	goto	l2906
  3130     1782                     u3140:
  3131     1782                     l2900:
  3132                           
  3133                           ;main.c: 683:         {;main.c: 684:             dev->did_timeout = 1;
  3134     1782  0020               	movlb	0	; select bank0
  3135     1783  0830               	movf	readRangeContinuousMm@dev,w
  3136     1784  3E03               	addlw	3
  3137     1785  0086               	movwf	6
  3138     1786  0187               	clrf	7
  3139     1787  0181               	clrf	1
  3140     1788  0A81               	incf	1,f
  3141     1789                     l2902:
  3142                           
  3143                           ;main.c: 685:             return 65535;
  3144     1789  30FF               	movlw	255
  3145     178A  00AC               	movwf	?_readRangeContinuousMm
  3146     178B  30FF               	movlw	255
  3147     178C  00AD               	movwf	?_readRangeContinuousMm+1
  3148     178D  2FB3               	goto	l402
  3149     178E                     l2906:
  3150                           
  3151                           ;main.c: 680:     while ((readReg(dev, 0x13) & 0x07) == 0)
  3152     178E  3013               	movlw	19
  3153     178F  0020               	movlb	0	; select bank0
  3154     1790  00A0               	movwf	readReg@reg
  3155     1791  0830               	movf	readRangeContinuousMm@dev,w
  3156     1792  3194  24C0  3197   	fcall	_readReg
  3157     1795  3907               	andlw	7
  3158     1796  1903               	btfsc	3,2
  3159     1797  2F99               	goto	u3151
  3160     1798  2F9A               	goto	u3150
  3161     1799                     u3151:
  3162     1799  2F78               	goto	l2898
  3163     179A                     u3150:
  3164     179A                     l2908:
  3165                           
  3166                           ;main.c: 689:     uint16_t range = readReg16(dev, 0x14 + 10);
  3167     179A  301E               	movlw	30
  3168     179B  0020               	movlb	0	; select bank0
  3169     179C  00A0               	movwf	readReg16@reg
  3170     179D  0830               	movf	readRangeContinuousMm@dev,w
  3171     179E  3196  2625  3197   	fcall	_readReg16
  3172     17A1  0020               	movlb	0	; select bank0
  3173     17A2  0821               	movf	?_readReg16+1,w
  3174     17A3  00AF               	movwf	readRangeContinuousMm@range+1
  3175     17A4  0820               	movf	?_readReg16,w
  3176     17A5  00AE               	movwf	readRangeContinuousMm@range
  3177                           
  3178                           ;main.c: 690:     writeReg(dev, 0x0B, 0x01);
  3179     17A6  300B               	movlw	11
  3180     17A7  00A4               	movwf	writeReg@reg
  3181     17A8  01A5               	clrf	writeReg@value
  3182     17A9  0AA5               	incf	writeReg@value,f
  3183     17AA  0830               	movf	readRangeContinuousMm@dev,w
  3184     17AB  3194  2478  3197   	fcall	_writeReg
  3185     17AE                     l2910:
  3186                           
  3187                           ;main.c: 691:     return range;
  3188     17AE  0020               	movlb	0	; select bank0
  3189     17AF  082F               	movf	readRangeContinuousMm@range+1,w
  3190     17B0  00AD               	movwf	?_readRangeContinuousMm+1
  3191     17B1  082E               	movf	readRangeContinuousMm@range,w
  3192     17B2  00AC               	movwf	?_readRangeContinuousMm
  3193     17B3                     l402:
  3194     17B3  0008               	return
  3195     17B4                     __end_of_readRangeContinuousMm:
  3196                           
  3197                           	psect	text5
  3198     16ED                     __ptext5:	
  3199 ;; *************** function _initMain *****************
  3200 ;; Defined at:
  3201 ;;		line 860 in file "main.c"
  3202 ;; Parameters:    Size  Location     Type
  3203 ;;		None
  3204 ;; Auto vars:     Size  Location     Type
  3205 ;;		None
  3206 ;; Return value:  Size  Location     Type
  3207 ;;                  1    wreg      void 
  3208 ;; Registers used:
  3209 ;;		wreg, status,2, status,0, pclath, cstack
  3210 ;; Tracked objects:
  3211 ;;		On entry : 0/0
  3212 ;;		On exit  : 0/0
  3213 ;;		Unchanged: 0/0
  3214 ;; Data sizes:     COMMON   BANK0   BANK1   BANK2   BANK3   BANK4   BANK5   BANK6   BANK7   BANK8   BANK9  BANK10  BANK1
      +1  BANK12  BANK13  BANK14  BANK15  BANK16  BANK17  BANK18  BANK19  BANK20  BANK21  BANK22  BANK23  BANK24  BANK25
  3215 ;;      Params:         0       0       0       0       0       0       0       0       0       0       0       0       
      +0       0       0       0       0       0       0       0       0       0       0       0       0       0       0
  3216 ;;      Locals:         0       0       0       0       0       0       0       0       0       0       0       0       
      +0       0       0       0       0       0       0       0       0       0       0       0       0       0       0
  3217 ;;      Temps:          1       0       0       0       0       0       0       0       0       0       0       0       
      +0       0       0       0       0       0       0       0       0       0       0       0       0       0       0
  3218 ;;      Totals:         1       0       0       0       0       0       0       0       0       0       0       0       
      +0       0       0       0       0       0       0       0       0       0       0       0       0       0       0
  3219 ;;Total ram usage:        1 bytes
  3220 ;; Hardware stack levels used: 1
  3221 ;; Hardware stack levels required when called: 2
  3222 ;; This function calls:
  3223 ;;		_internal_32
  3224 ;; This function is called by:
  3225 ;;		_main
  3226 ;; This function uses a non-reentrant model
  3227 ;;
  3228                           
  3229     16ED                     _initMain:	
  3230                           ;psect for function _initMain
  3231                           
  3232     16ED                     l2922:	
  3233                           ;incstack = 0
  3234                           ; Regs used in _initMain: [wreg+status,2+status,0+pclath+cstack]
  3235                           
  3236                           
  3237                           ;main.c: 863:     internal_32();
  3238     16ED  3193  23F5  3196   	fcall	_internal_32
  3239     16F0                     l2924:
  3240                           
  3241                           ;main.c: 866:     _delay((unsigned long)((10)*(32000000/4000.0)));
  3242     16F0  3068               	movlw	104
  3243     16F1  00F0               	movwf	??_initMain
  3244     16F2  30E4               	movlw	228
  3245     16F3                     u3287:
  3246     16F3  0B89               	decfsz	9,f
  3247     16F4  2EF3               	goto	u3287
  3248     16F5  0BF0               	decfsz	??_initMain,f
  3249     16F6  2EF3               	goto	u3287
  3250     16F7  3200               	nop2
  3251     16F8                     l2926:
  3252                           
  3253                           ;main.c: 869:     TRISBbits.TRISB2 = 0;
  3254     16F8  0021               	movlb	1	; select bank1
  3255     16F9  110D               	bcf	13,2	;volatile
  3256     16FA                     l2928:
  3257                           
  3258                           ;main.c: 870:     ANSELBbits.ANSB2 = 0;
  3259     16FA  0023               	movlb	3	; select bank3
  3260     16FB  110D               	bcf	13,2	;volatile
  3261     16FC                     l2930:
  3262                           
  3263                           ;main.c: 873:     ANSELCbits.ANSC4 = 0;
  3264     16FC  120E               	bcf	14,4	;volatile
  3265     16FD                     l2932:
  3266                           
  3267                           ;main.c: 874:     ANSELCbits.ANSC5 = 0;
  3268     16FD  128E               	bcf	14,5	;volatile
  3269     16FE                     l2934:
  3270                           
  3271                           ;main.c: 875:     TRISCbits.TRISC4 = 1;
  3272     16FE  0021               	movlb	1	; select bank1
  3273     16FF  160E               	bsf	14,4	;volatile
  3274     1700                     l2936:
  3275                           
  3276                           ;main.c: 876:     TRISCbits.TRISC5 = 1;
  3277     1700  168E               	bsf	14,5	;volatile
  3278     1701                     l2938:
  3279                           
  3280                           ;main.c: 879:     TRISBbits.TRISB5 = 0;
  3281     1701  128D               	bcf	13,5	;volatile
  3282     1702                     l2940:
  3283                           
  3284                           ;main.c: 880:     ANSELBbits.ANSB5 = 0;
  3285     1702  0023               	movlb	3	; select bank3
  3286     1703  128D               	bcf	13,5	;volatile
  3287     1704                     l2942:
  3288                           
  3289                           ;main.c: 885:     PPSLOCK = 0x55;
  3290     1704  3055               	movlw	85
  3291     1705  003C               	movlb	28	; select bank28
  3292     1706  008F               	movwf	15	;volsfr
  3293     1707                     l2944:
  3294                           
  3295                           ;main.c: 886:     PPSLOCK = 0xAA;
  3296     1707  30AA               	movlw	170
  3297     1708  008F               	movwf	15	;volsfr
  3298     1709                     l2946:
  3299                           
  3300                           ;main.c: 887:     PPSLOCKbits.PPSLOCKED = 0x00;
  3301     1709  100F               	bcf	15,0	;volsfr
  3302     170A                     l2948:
  3303                           
  3304                           ;main.c: 889:     RB2PPSbits.RB2PPS = 0x14;
  3305     170A  003D               	movlb	29	; select bank29
  3306     170B  081A               	movf	26,w	;volatile
  3307     170C  39E0               	andlw	-32
  3308     170D  3814               	iorlw	20
  3309     170E  009A               	movwf	26	;volatile
  3310     170F                     l2950:
  3311                           
  3312                           ;main.c: 890:     RXPPSbits.RXPPS = 0x0B;
  3313     170F  003C               	movlb	28	; select bank28
  3314     1710  0824               	movf	36,w	;volatile
  3315     1711  39E0               	andlw	-32
  3316     1712  380B               	iorlw	11
  3317     1713  00A4               	movwf	36	;volatile
  3318     1714                     l2952:
  3319                           
  3320                           ;main.c: 892:     RC4PPSbits.RC4PPS = 0x0011;
  3321     1714  003D               	movlb	29	; select bank29
  3322     1715  0824               	movf	36,w	;volatile
  3323     1716  39E0               	andlw	-32
  3324     1717  3811               	iorlw	17
  3325     1718  00A4               	movwf	36	;volatile
  3326     1719                     l2954:
  3327                           
  3328                           ;main.c: 893:     SSPDATPPSbits.SSPDATPPS = 0x0014;
  3329     1719  003C               	movlb	28	; select bank28
  3330     171A  0821               	movf	33,w	;volatile
  3331     171B  39E0               	andlw	-32
  3332     171C  3814               	iorlw	20
  3333     171D  00A1               	movwf	33	;volatile
  3334     171E                     l2956:
  3335                           
  3336                           ;main.c: 894:     SSPCLKPPSbits.SSPCLKPPS = 0x0015;
  3337     171E  0820               	movf	32,w	;volatile
  3338     171F  39E0               	andlw	-32
  3339     1720  3815               	iorlw	21
  3340     1721  00A0               	movwf	32	;volatile
  3341     1722                     l2958:
  3342                           
  3343                           ;main.c: 895:     RC5PPSbits.RC5PPS = 0x0010;
  3344     1722  003D               	movlb	29	; select bank29
  3345     1723  0825               	movf	37,w	;volatile
  3346     1724  39E0               	andlw	-32
  3347     1725  3810               	iorlw	16
  3348     1726  00A5               	movwf	37	;volatile
  3349     1727                     l2960:
  3350                           
  3351                           ;main.c: 897:     PPSLOCK = 0x55;
  3352     1727  3055               	movlw	85
  3353     1728  003C               	movlb	28	; select bank28
  3354     1729  008F               	movwf	15	;volsfr
  3355     172A                     l2962:
  3356                           
  3357                           ;main.c: 898:     PPSLOCK = 0xAA;
  3358     172A  30AA               	movlw	170
  3359     172B  008F               	movwf	15	;volsfr
  3360     172C                     l2964:
  3361                           
  3362                           ;main.c: 899:     PPSLOCKbits.PPSLOCKED = 0x01;
  3363     172C  140F               	bsf	15,0	;volsfr
  3364     172D                     l453:
  3365     172D  0008               	return
  3366     172E                     __end_of_initMain:
  3367                           
  3368                           	psect	text6
  3369     13F5                     __ptext6:	
  3370 ;; *************** function _internal_32 *****************
  3371 ;; Defined at:
  3372 ;;		line 36 in file "PIC16F1718_Internal.c"
  3373 ;; Parameters:    Size  Location     Type
  3374 ;;		None
  3375 ;; Auto vars:     Size  Location     Type
  3376 ;;		None
  3377 ;; Return value:  Size  Location     Type
  3378 ;;                  1    wreg      void 
  3379 ;; Registers used:
  3380 ;;		None
  3381 ;; Tracked objects:
  3382 ;;		On entry : 0/0
  3383 ;;		On exit  : 0/0
  3384 ;;		Unchanged: 0/0
  3385 ;; Data sizes:     COMMON   BANK0   BANK1   BANK2   BANK3   BANK4   BANK5   BANK6   BANK7   BANK8   BANK9  BANK10  BANK1
      +1  BANK12  BANK13  BANK14  BANK15  BANK16  BANK17  BANK18  BANK19  BANK20  BANK21  BANK22  BANK23  BANK24  BANK25
  3386 ;;      Params:         0       0       0       0       0       0       0       0       0       0       0       0       
      +0       0       0       0       0       0       0       0       0       0       0       0       0       0       0
  3387 ;;      Locals:         0       0       0       0       0       0       0       0       0       0       0       0       
      +0       0       0       0       0       0       0       0       0       0       0       0       0       0       0
  3388 ;;      Temps:          0       0       0       0       0       0       0       0       0       0       0       0       
      +0       0       0       0       0       0       0       0       0       0       0       0       0       0       0
  3389 ;;      Totals:         0       0       0       0       0       0       0       0       0       0       0       0       
      +0       0       0       0       0       0       0       0       0       0       0       0       0       0       0
  3390 ;;Total ram usage:        0 bytes
  3391 ;; Hardware stack levels used: 1
  3392 ;; Hardware stack levels required when called: 1
  3393 ;; This function calls:
  3394 ;;		Nothing
  3395 ;; This function is called by:
  3396 ;;		_initMain
  3397 ;; This function uses a non-reentrant model
  3398 ;;
  3399                           
  3400     13F5                     _internal_32:	
  3401                           ;psect for function _internal_32
  3402                           
  3403     13F5                     l2590:	
  3404                           ;incstack = 0
  3405                           ; Regs used in _internal_32: []
  3406                           
  3407                           
  3408                           ;PIC16F1718_Internal.c: 38:     SCS0 = 0;
  3409     13F5  0021               	movlb	1	; select bank1
  3410     13F6  1019               	bcf	25,0	;volatile
  3411                           
  3412                           ;PIC16F1718_Internal.c: 39:     SCS1 = 0;
  3413     13F7  1099               	bcf	25,1	;volatile
  3414                           
  3415                           ;PIC16F1718_Internal.c: 42:     IRCF0 = 0;
  3416     13F8  1199               	bcf	25,3	;volatile
  3417                           
  3418                           ;PIC16F1718_Internal.c: 43:     IRCF1 = 1;
  3419     13F9  1619               	bsf	25,4	;volatile
  3420                           
  3421                           ;PIC16F1718_Internal.c: 44:     IRCF2 = 1;
  3422     13FA  1699               	bsf	25,5	;volatile
  3423                           
  3424                           ;PIC16F1718_Internal.c: 45:     IRCF3 = 1;
  3425     13FB  1719               	bsf	25,6	;volatile
  3426                           
  3427                           ;PIC16F1718_Internal.c: 48:     SPLLEN = 1;
  3428     13FC  1799               	bsf	25,7	;volatile
  3429     13FD                     l153:
  3430     13FD  0008               	return
  3431     13FE                     __end_of_internal_32:
  3432                           
  3433                           	psect	text7
  3434     0037                     __ptext7:	
  3435 ;; *************** function _VL53L0X_Init *****************
  3436 ;; Defined at:
  3437 ;;		line 332 in file "main.c"
  3438 ;; Parameters:    Size  Location     Type
  3439 ;;  dev             1    wreg     PTR struct .
  3440 ;;		 -> main@sensor(16), 
  3441 ;; Auto vars:     Size  Location     Type
  3442 ;;  dev             1   55[BANK1 ] PTR struct .
  3443 ;;		 -> main@sensor(16), 
  3444 ;;  i               1   54[BANK1 ] unsigned char 
  3445 ;;  ref_spad_map    6   42[BANK1 ] unsigned char [6]
  3446 ;;  spad_type_is    1   53[BANK1 ] _Bool 
  3447 ;;  spad_count      1   52[BANK1 ] unsigned char 
  3448 ;;  spads_en        1   51[BANK1 ] unsigned char 
  3449 ;;  first_spad      1   50[BANK1 ] unsigned char 
  3450 ;; Return value:  Size  Location     Type
  3451 ;;                  1    wreg      _Bool 
  3452 ;; Registers used:
  3453 ;;		wreg, fsr1l, fsr1h, status,2, status,0, pclath, cstack
  3454 ;; Tracked objects:
  3455 ;;		On entry : 0/0
  3456 ;;		On exit  : 0/0
  3457 ;;		Unchanged: 0/0
  3458 ;; Data sizes:     COMMON   BANK0   BANK1   BANK2   BANK3   BANK4   BANK5   BANK6   BANK7   BANK8   BANK9  BANK10  BANK1
      +1  BANK12  BANK13  BANK14  BANK15  BANK16  BANK17  BANK18  BANK19  BANK20  BANK21  BANK22  BANK23  BANK24  BANK25
  3459 ;;      Params:         0       0       0       0       0       0       0       0       0       0       0       0       
      +0       0       0       0       0       0       0       0       0       0       0       0       0       0       0
  3460 ;;      Locals:         0       0      14       0       0       0       0       0       0       0       0       0       
      +0       0       0       0       0       0       0       0       0       0       0       0       0       0       0
  3461 ;;      Temps:          0       0       4       0       0       0       0       0       0       0       0       0       
      +0       0       0       0       0       0       0       0       0       0       0       0       0       0       0
  3462 ;;      Totals:         0       0      18       0       0       0       0       0       0       0       0       0       
      +0       0       0       0       0       0       0       0       0       0       0       0       0       0       0
  3463 ;;Total ram usage:       18 bytes
  3464 ;; Hardware stack levels used: 1
  3465 ;; Hardware stack levels required when called: 8
  3466 ;; This function calls:
  3467 ;;		___awdiv
  3468 ;;		_getMeasurementTimingBudget
  3469 ;;		_getSpadInfo
  3470 ;;		_performSingleRefCal
  3471 ;;		_readMulti
  3472 ;;		_readReg
  3473 ;;		_setMeasurementTimingBudget
  3474 ;;		_writeMulti
  3475 ;;		_writeReg
  3476 ;;		_writeReg16
  3477 ;; This function is called by:
  3478 ;;		_main
  3479 ;; This function uses a non-reentrant model
  3480 ;;
  3481                           
  3482     0037                     _VL53L0X_Init:	
  3483                           ;psect for function _VL53L0X_Init
  3484                           
  3485                           
  3486                           ;incstack = 0
  3487                           ; Regs used in _VL53L0X_Init: [wreg+fsr1l+fsr1h+status,2+status,0+pclath+cstack]
  3488                           ;VL53L0X_Init@dev stored from wreg
  3489     0037  0021               	movlb	1	; select bank1
  3490     0038  00D7               	movwf	VL53L0X_Init@dev^(0+128)
  3491     0039                     l2830:
  3492                           
  3493                           ;main.c: 332: static _Bool VL53L0X_Init(VL53L0X_Dev_t *dev);main.c: 333: {;main.c: 335: 
      +                              writeReg(dev, 0x89,
  3494     0039  3089               	movlw	137
  3495     003A  0020               	movlb	0	; select bank0
  3496     003B  00A4               	movwf	writeReg@reg
  3497     003C  3089               	movlw	137
  3498     003D  00A0               	movwf	readReg@reg
  3499     003E  0021               	movlb	1	; select bank1
  3500     003F  0857               	movf	VL53L0X_Init@dev^(0+128),w
  3501     0040  3194  24C0  3180   	fcall	_readReg
  3502     0043  3801               	iorlw	1
  3503     0044  0020               	movlb	0	; select bank0
  3504     0045  00A5               	movwf	writeReg@value
  3505     0046  0021               	movlb	1	; select bank1
  3506     0047  0857               	movf	VL53L0X_Init@dev^(0+128),w
  3507     0048  3194  2478  3180   	fcall	_writeReg
  3508                           
  3509                           ;main.c: 338:     writeReg(dev, 0x88, 0x00);
  3510     004B  3088               	movlw	136
  3511     004C  0020               	movlb	0	; select bank0
  3512     004D  00A4               	movwf	writeReg@reg
  3513     004E  01A5               	clrf	writeReg@value
  3514     004F  0021               	movlb	1	; select bank1
  3515     0050  0857               	movf	VL53L0X_Init@dev^(0+128),w
  3516     0051  3194  2478  3180   	fcall	_writeReg
  3517                           
  3518                           ;main.c: 340:     writeReg(dev, 0x80, 0x01);
  3519     0054  3080               	movlw	128
  3520     0055  0020               	movlb	0	; select bank0
  3521     0056  00A4               	movwf	writeReg@reg
  3522     0057  01A5               	clrf	writeReg@value
  3523     0058  0AA5               	incf	writeReg@value,f
  3524     0059  0021               	movlb	1	; select bank1
  3525     005A  0857               	movf	VL53L0X_Init@dev^(0+128),w
  3526     005B  3194  2478  3180   	fcall	_writeReg
  3527                           
  3528                           ;main.c: 341:     writeReg(dev, 0xFF, 0x01);
  3529     005E  30FF               	movlw	255
  3530     005F  0020               	movlb	0	; select bank0
  3531     0060  00A4               	movwf	writeReg@reg
  3532     0061  01A5               	clrf	writeReg@value
  3533     0062  0AA5               	incf	writeReg@value,f
  3534     0063  0021               	movlb	1	; select bank1
  3535     0064  0857               	movf	VL53L0X_Init@dev^(0+128),w
  3536     0065  3194  2478  3180   	fcall	_writeReg
  3537                           
  3538                           ;main.c: 342:     writeReg(dev, 0x00, 0x00);
  3539     0068  0020               	movlb	0	; select bank0
  3540     0069  01A4               	clrf	writeReg@reg
  3541     006A  01A5               	clrf	writeReg@value
  3542     006B  0021               	movlb	1	; select bank1
  3543     006C  0857               	movf	VL53L0X_Init@dev^(0+128),w
  3544     006D  3194  2478  3180   	fcall	_writeReg
  3545                           
  3546                           ;main.c: 343:     dev->stop_variable = readReg(dev, 0x91);
  3547     0070  3091               	movlw	145
  3548     0071  0020               	movlb	0	; select bank0
  3549     0072  00A0               	movwf	readReg@reg
  3550     0073  0021               	movlb	1	; select bank1
  3551     0074  0857               	movf	VL53L0X_Init@dev^(0+128),w
  3552     0075  3194  24C0  3180   	fcall	_readReg
  3553     0078  0021               	movlb	1	; select bank1
  3554     0079  00C6               	movwf	??_VL53L0X_Init^(0+128)
  3555     007A  0A57               	incf	VL53L0X_Init@dev^(0+128),w
  3556     007B  0086               	movwf	6
  3557     007C  0187               	clrf	7
  3558     007D  0846               	movf	??_VL53L0X_Init^(0+128),w
  3559     007E  0081               	movwf	1
  3560                           
  3561                           ;main.c: 344:     writeReg(dev, 0x00, 0x01);
  3562     007F  0020               	movlb	0	; select bank0
  3563     0080  01A4               	clrf	writeReg@reg
  3564     0081  01A5               	clrf	writeReg@value
  3565     0082  0AA5               	incf	writeReg@value,f
  3566     0083  0021               	movlb	1	; select bank1
  3567     0084  0857               	movf	VL53L0X_Init@dev^(0+128),w
  3568     0085  3194  2478  3180   	fcall	_writeReg
  3569                           
  3570                           ;main.c: 345:     writeReg(dev, 0xFF, 0x00);
  3571     0088  30FF               	movlw	255
  3572     0089  0020               	movlb	0	; select bank0
  3573     008A  00A4               	movwf	writeReg@reg
  3574     008B  01A5               	clrf	writeReg@value
  3575     008C  0021               	movlb	1	; select bank1
  3576     008D  0857               	movf	VL53L0X_Init@dev^(0+128),w
  3577     008E  3194  2478  3180   	fcall	_writeReg
  3578                           
  3579                           ;main.c: 346:     writeReg(dev, 0x80, 0x00);
  3580     0091  3080               	movlw	128
  3581     0092  0020               	movlb	0	; select bank0
  3582     0093  00A4               	movwf	writeReg@reg
  3583     0094  01A5               	clrf	writeReg@value
  3584     0095  0021               	movlb	1	; select bank1
  3585     0096  0857               	movf	VL53L0X_Init@dev^(0+128),w
  3586     0097  3194  2478  3180   	fcall	_writeReg
  3587                           
  3588                           ;main.c: 348:     writeReg(dev, 0x60,
  3589     009A  3060               	movlw	96
  3590     009B  0020               	movlb	0	; select bank0
  3591     009C  00A4               	movwf	writeReg@reg
  3592     009D  3060               	movlw	96
  3593     009E  00A0               	movwf	readReg@reg
  3594     009F  0021               	movlb	1	; select bank1
  3595     00A0  0857               	movf	VL53L0X_Init@dev^(0+128),w
  3596     00A1  3194  24C0  3180   	fcall	_readReg
  3597     00A4  3812               	iorlw	18
  3598     00A5  0020               	movlb	0	; select bank0
  3599     00A6  00A5               	movwf	writeReg@value
  3600     00A7  0021               	movlb	1	; select bank1
  3601     00A8  0857               	movf	VL53L0X_Init@dev^(0+128),w
  3602     00A9  3194  2478  3180   	fcall	_writeReg
  3603                           
  3604                           ;main.c: 352:     writeReg16(dev, 0x44, 32);
  3605     00AC  3044               	movlw	68
  3606     00AD  0020               	movlb	0	; select bank0
  3607     00AE  00A0               	movwf	writeReg16@reg
  3608     00AF  3020               	movlw	32
  3609     00B0  00A1               	movwf	writeReg16@value
  3610     00B1  3000               	movlw	0
  3611     00B2  00A2               	movwf	writeReg16@value+1
  3612     00B3  0021               	movlb	1	; select bank1
  3613     00B4  0857               	movf	VL53L0X_Init@dev^(0+128),w
  3614     00B5  3194  24DA  3180   	fcall	_writeReg16
  3615                           
  3616                           ;main.c: 354:     writeReg(dev, 0x01, 0xFF);
  3617     00B8  0020               	movlb	0	; select bank0
  3618     00B9  01A4               	clrf	writeReg@reg
  3619     00BA  0AA4               	incf	writeReg@reg,f
  3620     00BB  30FF               	movlw	255
  3621     00BC  00A5               	movwf	writeReg@value
  3622     00BD  0021               	movlb	1	; select bank1
  3623     00BE  0857               	movf	VL53L0X_Init@dev^(0+128),w
  3624     00BF  3194  2478  3180   	fcall	_writeReg
  3625                           
  3626                           ;main.c: 357:     uint8_t spad_count;;main.c: 358:     _Bool spad_type_is_aperture;;main
      +                          .c: 359:     if (!getSpadInfo(dev, &spad_count, &spad_type_is_aperture))
  3627     00C2  30D4               	movlw	(low (VL53L0X_Init@spad_count| 0))& (0+255)
  3628     00C3  0020               	movlb	0	; select bank0
  3629     00C4  00AC               	movwf	getSpadInfo@count
  3630     00C5  30D5               	movlw	(low (VL53L0X_Init@spad_type_is_aperture| 0))& (0+255)
  3631     00C6  00AD               	movwf	getSpadInfo@type_is_aperture
  3632     00C7  0021               	movlb	1	; select bank1
  3633     00C8  0857               	movf	VL53L0X_Init@dev^(0+128),w
  3634     00C9  3186  2692  3180   	fcall	_getSpadInfo
  3635     00CC  3A00               	xorlw	0
  3636     00CD  1D03               	skipz
  3637     00CE  28D0               	goto	u3021
  3638     00CF  28D1               	goto	u3020
  3639     00D0                     u3021:
  3640     00D0  28D3               	goto	l2836
  3641     00D1                     u3020:
  3642     00D1                     l2832:
  3643                           
  3644                           ;main.c: 360:         return 0;
  3645     00D1  3000               	movlw	0
  3646     00D2  2D16               	goto	l321
  3647     00D3                     l2836:
  3648                           
  3649                           ;main.c: 362:     uint8_t ref_spad_map[6];;main.c: 363:     readMulti(dev, 0xB0, ref_spa
      +                          d_map, 6);
  3650     00D3  30B0               	movlw	176
  3651     00D4  0020               	movlb	0	; select bank0
  3652     00D5  00A0               	movwf	readMulti@reg
  3653     00D6  30CA               	movlw	(low (VL53L0X_Init@ref_spad_map| 0))& (0+255)
  3654     00D7  00A1               	movwf	readMulti@dst
  3655     00D8  3006               	movlw	6
  3656     00D9  00A2               	movwf	readMulti@count
  3657     00DA  0021               	movlb	1	; select bank1
  3658     00DB  0857               	movf	VL53L0X_Init@dev^(0+128),w
  3659     00DC  3194  2490  3180   	fcall	_readMulti
  3660                           
  3661                           ;main.c: 365:     writeReg(dev, 0xFF, 0x01);
  3662     00DF  30FF               	movlw	255
  3663     00E0  0020               	movlb	0	; select bank0
  3664     00E1  00A4               	movwf	writeReg@reg
  3665     00E2  01A5               	clrf	writeReg@value
  3666     00E3  0AA5               	incf	writeReg@value,f
  3667     00E4  0021               	movlb	1	; select bank1
  3668     00E5  0857               	movf	VL53L0X_Init@dev^(0+128),w
  3669     00E6  3194  2478  3180   	fcall	_writeReg
  3670                           
  3671                           ;main.c: 366:     writeReg(dev, 0x4F, 0x00);
  3672     00E9  304F               	movlw	79
  3673     00EA  0020               	movlb	0	; select bank0
  3674     00EB  00A4               	movwf	writeReg@reg
  3675     00EC  01A5               	clrf	writeReg@value
  3676     00ED  0021               	movlb	1	; select bank1
  3677     00EE  0857               	movf	VL53L0X_Init@dev^(0+128),w
  3678     00EF  3194  2478  3180   	fcall	_writeReg
  3679                           
  3680                           ;main.c: 367:     writeReg(dev, 0x4E, 0x2C);
  3681     00F2  304E               	movlw	78
  3682     00F3  0020               	movlb	0	; select bank0
  3683     00F4  00A4               	movwf	writeReg@reg
  3684     00F5  302C               	movlw	44
  3685     00F6  00A5               	movwf	writeReg@value
  3686     00F7  0021               	movlb	1	; select bank1
  3687     00F8  0857               	movf	VL53L0X_Init@dev^(0+128),w
  3688     00F9  3194  2478  3180   	fcall	_writeReg
  3689                           
  3690                           ;main.c: 368:     writeReg(dev, 0xFF, 0x00);
  3691     00FC  30FF               	movlw	255
  3692     00FD  0020               	movlb	0	; select bank0
  3693     00FE  00A4               	movwf	writeReg@reg
  3694     00FF  01A5               	clrf	writeReg@value
  3695     0100  0021               	movlb	1	; select bank1
  3696     0101  0857               	movf	VL53L0X_Init@dev^(0+128),w
  3697     0102  3194  2478  3180   	fcall	_writeReg
  3698                           
  3699                           ;main.c: 369:     writeReg(dev, 0xB6, 0xB4);
  3700     0105  30B6               	movlw	182
  3701     0106  0020               	movlb	0	; select bank0
  3702     0107  00A4               	movwf	writeReg@reg
  3703     0108  30B4               	movlw	180
  3704     0109  00A5               	movwf	writeReg@value
  3705     010A  0021               	movlb	1	; select bank1
  3706     010B  0857               	movf	VL53L0X_Init@dev^(0+128),w
  3707     010C  3194  2478  3180   	fcall	_writeReg
  3708     010F                     l2838:
  3709                           
  3710                           ;main.c: 371:     uint8_t first_spad = spad_type_is_aperture ? 12 : 0;
  3711     010F  0021               	movlb	1	; select bank1
  3712     0110  0855               	movf	VL53L0X_Init@spad_type_is_aperture^(0+128),w
  3713     0111  1D03               	btfss	3,2
  3714     0112  2914               	goto	u3031
  3715     0113  2915               	goto	u3030
  3716     0114                     u3031:
  3717     0114  2918               	goto	l2842
  3718     0115                     u3030:
  3719     0115                     l2840:
  3720     0115  01D0               	clrf	_VL53L0X_Init$819^(0+128)
  3721     0116  01D1               	clrf	(_VL53L0X_Init$819+1)^(0+128)
  3722     0117  291C               	goto	l325
  3723     0118                     l2842:
  3724     0118  300C               	movlw	12
  3725     0119  00D0               	movwf	_VL53L0X_Init$819^(0+128)
  3726     011A  3000               	movlw	0
  3727     011B  00D1               	movwf	(_VL53L0X_Init$819^(0+128)+1)
  3728     011C                     l325:
  3729     011C  0850               	movf	_VL53L0X_Init$819^(0+128),w
  3730     011D  00D2               	movwf	VL53L0X_Init@first_spad^(0+128)
  3731     011E                     l2844:
  3732                           
  3733                           ;main.c: 372:     uint8_t spads_en = 0;
  3734     011E  01D3               	clrf	VL53L0X_Init@spads_en^(0+128)
  3735     011F                     l2846:
  3736                           
  3737                           ;main.c: 374:     for (uint8_t i = 0; i < 48; i++)
  3738     011F  01D6               	clrf	VL53L0X_Init@i^(0+128)
  3739     0120                     l2850:
  3740                           
  3741                           ;main.c: 375:     {;main.c: 376:         if (i < first_spad || spads_en == spad_count)
  3742     0120  0852               	movf	VL53L0X_Init@first_spad^(0+128),w
  3743     0121  0256               	subwf	VL53L0X_Init@i^(0+128),w
  3744     0122  1C03               	skipc
  3745     0123  2925               	goto	u3041
  3746     0124  2926               	goto	u3040
  3747     0125                     u3041:
  3748     0125  292C               	goto	l2854
  3749     0126                     u3040:
  3750     0126                     l2852:
  3751     0126  0853               	movf	VL53L0X_Init@spads_en^(0+128),w
  3752     0127  0654               	xorwf	VL53L0X_Init@spad_count^(0+128),w
  3753     0128  1D03               	skipz
  3754     0129  292B               	goto	u3051
  3755     012A  292C               	goto	u3050
  3756     012B                     u3051:
  3757     012B  294E               	goto	l2856
  3758     012C                     u3050:
  3759     012C                     l2854:
  3760                           
  3761                           ;main.c: 377:             ref_spad_map[i / 8] &= ~(1 << (i % 8));
  3762     012C  3001               	movlw	1
  3763     012D  00C6               	movwf	??_VL53L0X_Init^(0+128)
  3764     012E  0856               	movf	VL53L0X_Init@i^(0+128),w
  3765     012F  3907               	andlw	7
  3766     0130  0A89               	incf	9,f
  3767     0131  2933               	goto	u3064
  3768     0132                     u3065:
  3769     0132  35C6               	lslf	??_VL53L0X_Init^(0+128),f
  3770     0133                     u3064:
  3771     0133  0B89               	decfsz	9,f
  3772     0134  2932               	goto	u3065
  3773     0135  0846               	movf	??_VL53L0X_Init^(0+128),w
  3774     0136  3AFF               	xorlw	255
  3775     0137  00C7               	movwf	(??_VL53L0X_Init+1)^(0+128)
  3776     0138  3008               	movlw	8
  3777     0139  00F0               	movwf	___awdiv@divisor
  3778     013A  3000               	movlw	0
  3779     013B  00F1               	movwf	___awdiv@divisor+1
  3780     013C  0856               	movf	VL53L0X_Init@i^(0+128),w
  3781     013D  00C8               	movwf	(??_VL53L0X_Init+2)^(0+128)
  3782     013E  01C9               	clrf	((??_VL53L0X_Init+2)^(0+128)+1)
  3783     013F  0848               	movf	(??_VL53L0X_Init+2)^(0+128),w
  3784     0140  00F2               	movwf	___awdiv@dividend
  3785     0141  0849               	movf	(??_VL53L0X_Init+3)^(0+128),w
  3786     0142  00F3               	movwf	___awdiv@dividend+1
  3787     0143  318A  2256  3180   	fcall	___awdiv
  3788     0146  0870               	movf	?___awdiv,w
  3789     0147  3ECA               	addlw	(low (VL53L0X_Init@ref_spad_map| 0))& (0+255)
  3790     0148  0086               	movwf	6
  3791     0149  0187               	clrf	7
  3792     014A  0021               	movlb	1	; select bank1
  3793     014B  0847               	movf	(??_VL53L0X_Init+1)^(0+128),w
  3794     014C  0581               	andwf	1,f
  3795     014D  2972               	goto	l331
  3796     014E                     l2856:
  3797     014E  3008               	movlw	8
  3798     014F  00F0               	movwf	___awdiv@divisor
  3799     0150  3000               	movlw	0
  3800     0151  00F1               	movwf	___awdiv@divisor+1
  3801     0152  0856               	movf	VL53L0X_Init@i^(0+128),w
  3802     0153  00C6               	movwf	??_VL53L0X_Init^(0+128)
  3803     0154  01C7               	clrf	(??_VL53L0X_Init^(0+128)+1)
  3804     0155  0846               	movf	??_VL53L0X_Init^(0+128),w
  3805     0156  00F2               	movwf	___awdiv@dividend
  3806     0157  0847               	movf	(??_VL53L0X_Init+1)^(0+128),w
  3807     0158  00F3               	movwf	___awdiv@dividend+1
  3808     0159  318A  2256  3180   	fcall	___awdiv
  3809     015C  0870               	movf	?___awdiv,w
  3810     015D  3ECA               	addlw	(low (VL53L0X_Init@ref_spad_map| 0))& (0+255)
  3811     015E  0086               	movwf	6
  3812     015F  0187               	clrf	7
  3813     0160  0801               	movf	1,w
  3814     0161  0021               	movlb	1	; select bank1
  3815     0162  00C8               	movwf	(??_VL53L0X_Init+2)^(0+128)
  3816     0163  0856               	movf	VL53L0X_Init@i^(0+128),w
  3817     0164  3907               	andlw	7
  3818     0165  0A89               	incf	9,f
  3819     0166  2968               	goto	u3074
  3820     0167                     u3075:
  3821     0167  36C8               	lsrf	(??_VL53L0X_Init+2)^(0+128),f
  3822     0168                     u3074:
  3823     0168  0B89               	decfsz	9,f
  3824     0169  2967               	goto	u3075
  3825     016A  1C48               	btfss	(??_VL53L0X_Init+2)^(0+128),0
  3826     016B  296D               	goto	u3081
  3827     016C  296E               	goto	u3080
  3828     016D                     u3081:
  3829     016D  2972               	goto	l331
  3830     016E                     u3080:
  3831     016E                     l2858:
  3832                           
  3833                           ;main.c: 379:             spads_en++;
  3834     016E  3001               	movlw	1
  3835     016F  00C6               	movwf	??_VL53L0X_Init^(0+128)
  3836     0170  0846               	movf	??_VL53L0X_Init^(0+128),w
  3837     0171  07D3               	addwf	VL53L0X_Init@spads_en^(0+128),f
  3838     0172                     l331:
  3839                           
  3840                           ;main.c: 380:     }
  3841     0172  3001               	movlw	1
  3842     0173  00C6               	movwf	??_VL53L0X_Init^(0+128)
  3843     0174  0846               	movf	??_VL53L0X_Init^(0+128),w
  3844     0175  07D6               	addwf	VL53L0X_Init@i^(0+128),f
  3845     0176                     l2860:
  3846     0176  3030               	movlw	48
  3847     0177  0256               	subwf	VL53L0X_Init@i^(0+128),w
  3848     0178  1C03               	skipc
  3849     0179  297B               	goto	u3091
  3850     017A  297C               	goto	u3090
  3851     017B                     u3091:
  3852     017B  2920               	goto	l2850
  3853     017C                     u3090:
  3854     017C                     l2862:
  3855                           
  3856                           ;main.c: 382:     writeMulti(dev, 0xB0, ref_spad_map, 6);
  3857     017C  30B0               	movlw	176
  3858     017D  00FB               	movwf	writeMulti@reg
  3859     017E  30CA               	movlw	(low (VL53L0X_Init@ref_spad_map| 0))& (0+255)
  3860     017F  00FC               	movwf	writeMulti@src
  3861     0180  3006               	movlw	6
  3862     0181  00FD               	movwf	writeMulti@count
  3863     0182  0857               	movf	VL53L0X_Init@dev^(0+128),w
  3864     0183  3194  24A8  3180   	fcall	_writeMulti
  3865                           
  3866                           ;main.c: 385:     writeReg(dev, 0xFF, 0x01);
  3867     0186  30FF               	movlw	255
  3868     0187  0020               	movlb	0	; select bank0
  3869     0188  00A4               	movwf	writeReg@reg
  3870     0189  01A5               	clrf	writeReg@value
  3871     018A  0AA5               	incf	writeReg@value,f
  3872     018B  0021               	movlb	1	; select bank1
  3873     018C  0857               	movf	VL53L0X_Init@dev^(0+128),w
  3874     018D  3194  2478  3180   	fcall	_writeReg
  3875                           
  3876                           ;main.c: 386:     writeReg(dev, 0x00, 0x00);
  3877     0190  0020               	movlb	0	; select bank0
  3878     0191  01A4               	clrf	writeReg@reg
  3879     0192  01A5               	clrf	writeReg@value
  3880     0193  0021               	movlb	1	; select bank1
  3881     0194  0857               	movf	VL53L0X_Init@dev^(0+128),w
  3882     0195  3194  2478  3180   	fcall	_writeReg
  3883                           
  3884                           ;main.c: 387:     writeReg(dev, 0xFF, 0x00);
  3885     0198  30FF               	movlw	255
  3886     0199  0020               	movlb	0	; select bank0
  3887     019A  00A4               	movwf	writeReg@reg
  3888     019B  01A5               	clrf	writeReg@value
  3889     019C  0021               	movlb	1	; select bank1
  3890     019D  0857               	movf	VL53L0X_Init@dev^(0+128),w
  3891     019E  3194  2478  3180   	fcall	_writeReg
  3892                           
  3893                           ;main.c: 388:     writeReg(dev, 0x09, 0x00);
  3894     01A1  3009               	movlw	9
  3895     01A2  0020               	movlb	0	; select bank0
  3896     01A3  00A4               	movwf	writeReg@reg
  3897     01A4  01A5               	clrf	writeReg@value
  3898     01A5  0021               	movlb	1	; select bank1
  3899     01A6  0857               	movf	VL53L0X_Init@dev^(0+128),w
  3900     01A7  3194  2478  3180   	fcall	_writeReg
  3901                           
  3902                           ;main.c: 389:     writeReg(dev, 0x10, 0x00);
  3903     01AA  3010               	movlw	16
  3904     01AB  0020               	movlb	0	; select bank0
  3905     01AC  00A4               	movwf	writeReg@reg
  3906     01AD  01A5               	clrf	writeReg@value
  3907     01AE  0021               	movlb	1	; select bank1
  3908     01AF  0857               	movf	VL53L0X_Init@dev^(0+128),w
  3909     01B0  3194  2478  3180   	fcall	_writeReg
  3910                           
  3911                           ;main.c: 390:     writeReg(dev, 0x11, 0x00);
  3912     01B3  3011               	movlw	17
  3913     01B4  0020               	movlb	0	; select bank0
  3914     01B5  00A4               	movwf	writeReg@reg
  3915     01B6  01A5               	clrf	writeReg@value
  3916     01B7  0021               	movlb	1	; select bank1
  3917     01B8  0857               	movf	VL53L0X_Init@dev^(0+128),w
  3918     01B9  3194  2478  3180   	fcall	_writeReg
  3919                           
  3920                           ;main.c: 391:     writeReg(dev, 0x24, 0x01);
  3921     01BC  3024               	movlw	36
  3922     01BD  0020               	movlb	0	; select bank0
  3923     01BE  00A4               	movwf	writeReg@reg
  3924     01BF  01A5               	clrf	writeReg@value
  3925     01C0  0AA5               	incf	writeReg@value,f
  3926     01C1  0021               	movlb	1	; select bank1
  3927     01C2  0857               	movf	VL53L0X_Init@dev^(0+128),w
  3928     01C3  3194  2478  3180   	fcall	_writeReg
  3929                           
  3930                           ;main.c: 392:     writeReg(dev, 0x25, 0xFF);
  3931     01C6  3025               	movlw	37
  3932     01C7  0020               	movlb	0	; select bank0
  3933     01C8  00A4               	movwf	writeReg@reg
  3934     01C9  30FF               	movlw	255
  3935     01CA  00A5               	movwf	writeReg@value
  3936     01CB  0021               	movlb	1	; select bank1
  3937     01CC  0857               	movf	VL53L0X_Init@dev^(0+128),w
  3938     01CD  3194  2478  3180   	fcall	_writeReg
  3939                           
  3940                           ;main.c: 393:     writeReg(dev, 0x75, 0x00);
  3941     01D0  3075               	movlw	117
  3942     01D1  0020               	movlb	0	; select bank0
  3943     01D2  00A4               	movwf	writeReg@reg
  3944     01D3  01A5               	clrf	writeReg@value
  3945     01D4  0021               	movlb	1	; select bank1
  3946     01D5  0857               	movf	VL53L0X_Init@dev^(0+128),w
  3947     01D6  3194  2478  3180   	fcall	_writeReg
  3948                           
  3949                           ;main.c: 394:     writeReg(dev, 0xFF, 0x01);
  3950     01D9  30FF               	movlw	255
  3951     01DA  0020               	movlb	0	; select bank0
  3952     01DB  00A4               	movwf	writeReg@reg
  3953     01DC  01A5               	clrf	writeReg@value
  3954     01DD  0AA5               	incf	writeReg@value,f
  3955     01DE  0021               	movlb	1	; select bank1
  3956     01DF  0857               	movf	VL53L0X_Init@dev^(0+128),w
  3957     01E0  3194  2478  3180   	fcall	_writeReg
  3958                           
  3959                           ;main.c: 395:     writeReg(dev, 0x4E, 0x2C);
  3960     01E3  304E               	movlw	78
  3961     01E4  0020               	movlb	0	; select bank0
  3962     01E5  00A4               	movwf	writeReg@reg
  3963     01E6  302C               	movlw	44
  3964     01E7  00A5               	movwf	writeReg@value
  3965     01E8  0021               	movlb	1	; select bank1
  3966     01E9  0857               	movf	VL53L0X_Init@dev^(0+128),w
  3967     01EA  3194  2478  3180   	fcall	_writeReg
  3968                           
  3969                           ;main.c: 396:     writeReg(dev, 0x48, 0x00);
  3970     01ED  3048               	movlw	72
  3971     01EE  0020               	movlb	0	; select bank0
  3972     01EF  00A4               	movwf	writeReg@reg
  3973     01F0  01A5               	clrf	writeReg@value
  3974     01F1  0021               	movlb	1	; select bank1
  3975     01F2  0857               	movf	VL53L0X_Init@dev^(0+128),w
  3976     01F3  3194  2478  3180   	fcall	_writeReg
  3977                           
  3978                           ;main.c: 397:     writeReg(dev, 0x30, 0x20);
  3979     01F6  3030               	movlw	48
  3980     01F7  0020               	movlb	0	; select bank0
  3981     01F8  00A4               	movwf	writeReg@reg
  3982     01F9  3020               	movlw	32
  3983     01FA  00A5               	movwf	writeReg@value
  3984     01FB  0021               	movlb	1	; select bank1
  3985     01FC  0857               	movf	VL53L0X_Init@dev^(0+128),w
  3986     01FD  3194  2478  3180   	fcall	_writeReg
  3987                           
  3988                           ;main.c: 398:     writeReg(dev, 0xFF, 0x00);
  3989     0200  30FF               	movlw	255
  3990     0201  0020               	movlb	0	; select bank0
  3991     0202  00A4               	movwf	writeReg@reg
  3992     0203  01A5               	clrf	writeReg@value
  3993     0204  0021               	movlb	1	; select bank1
  3994     0205  0857               	movf	VL53L0X_Init@dev^(0+128),w
  3995     0206  3194  2478  3180   	fcall	_writeReg
  3996                           
  3997                           ;main.c: 399:     writeReg(dev, 0x30, 0x09);
  3998     0209  3030               	movlw	48
  3999     020A  0020               	movlb	0	; select bank0
  4000     020B  00A4               	movwf	writeReg@reg
  4001     020C  3009               	movlw	9
  4002     020D  00A5               	movwf	writeReg@value
  4003     020E  0021               	movlb	1	; select bank1
  4004     020F  0857               	movf	VL53L0X_Init@dev^(0+128),w
  4005     0210  3194  2478  3180   	fcall	_writeReg
  4006                           
  4007                           ;main.c: 400:     writeReg(dev, 0x54, 0x00);
  4008     0213  3054               	movlw	84
  4009     0214  0020               	movlb	0	; select bank0
  4010     0215  00A4               	movwf	writeReg@reg
  4011     0216  01A5               	clrf	writeReg@value
  4012     0217  0021               	movlb	1	; select bank1
  4013     0218  0857               	movf	VL53L0X_Init@dev^(0+128),w
  4014     0219  3194  2478  3180   	fcall	_writeReg
  4015                           
  4016                           ;main.c: 401:     writeReg(dev, 0x31, 0x04);
  4017     021C  3031               	movlw	49
  4018     021D  0020               	movlb	0	; select bank0
  4019     021E  00A4               	movwf	writeReg@reg
  4020     021F  3004               	movlw	4
  4021     0220  00A5               	movwf	writeReg@value
  4022     0221  0021               	movlb	1	; select bank1
  4023     0222  0857               	movf	VL53L0X_Init@dev^(0+128),w
  4024     0223  3194  2478  3180   	fcall	_writeReg
  4025                           
  4026                           ;main.c: 402:     writeReg(dev, 0x32, 0x03);
  4027     0226  3032               	movlw	50
  4028     0227  0020               	movlb	0	; select bank0
  4029     0228  00A4               	movwf	writeReg@reg
  4030     0229  3003               	movlw	3
  4031     022A  00A5               	movwf	writeReg@value
  4032     022B  0021               	movlb	1	; select bank1
  4033     022C  0857               	movf	VL53L0X_Init@dev^(0+128),w
  4034     022D  3194  2478  3180   	fcall	_writeReg
  4035                           
  4036                           ;main.c: 403:     writeReg(dev, 0x40, 0x83);
  4037     0230  3040               	movlw	64
  4038     0231  0020               	movlb	0	; select bank0
  4039     0232  00A4               	movwf	writeReg@reg
  4040     0233  3083               	movlw	131
  4041     0234  00A5               	movwf	writeReg@value
  4042     0235  0021               	movlb	1	; select bank1
  4043     0236  0857               	movf	VL53L0X_Init@dev^(0+128),w
  4044     0237  3194  2478  3180   	fcall	_writeReg
  4045                           
  4046                           ;main.c: 404:     writeReg(dev, 0x46, 0x25);
  4047     023A  3046               	movlw	70
  4048     023B  0020               	movlb	0	; select bank0
  4049     023C  00A4               	movwf	writeReg@reg
  4050     023D  3025               	movlw	37
  4051     023E  00A5               	movwf	writeReg@value
  4052     023F  0021               	movlb	1	; select bank1
  4053     0240  0857               	movf	VL53L0X_Init@dev^(0+128),w
  4054     0241  3194  2478  3180   	fcall	_writeReg
  4055                           
  4056                           ;main.c: 405:     writeReg(dev, 0x60, 0x00);
  4057     0244  3060               	movlw	96
  4058     0245  0020               	movlb	0	; select bank0
  4059     0246  00A4               	movwf	writeReg@reg
  4060     0247  01A5               	clrf	writeReg@value
  4061     0248  0021               	movlb	1	; select bank1
  4062     0249  0857               	movf	VL53L0X_Init@dev^(0+128),w
  4063     024A  3194  2478  3180   	fcall	_writeReg
  4064                           
  4065                           ;main.c: 406:     writeReg(dev, 0x27, 0x00);
  4066     024D  3027               	movlw	39
  4067     024E  0020               	movlb	0	; select bank0
  4068     024F  00A4               	movwf	writeReg@reg
  4069     0250  01A5               	clrf	writeReg@value
  4070     0251  0021               	movlb	1	; select bank1
  4071     0252  0857               	movf	VL53L0X_Init@dev^(0+128),w
  4072     0253  3194  2478  3180   	fcall	_writeReg
  4073                           
  4074                           ;main.c: 407:     writeReg(dev, 0x50, 0x06);
  4075     0256  3050               	movlw	80
  4076     0257  0020               	movlb	0	; select bank0
  4077     0258  00A4               	movwf	writeReg@reg
  4078     0259  3006               	movlw	6
  4079     025A  00A5               	movwf	writeReg@value
  4080     025B  0021               	movlb	1	; select bank1
  4081     025C  0857               	movf	VL53L0X_Init@dev^(0+128),w
  4082     025D  3194  2478  3180   	fcall	_writeReg
  4083                           
  4084                           ;main.c: 408:     writeReg(dev, 0x51, 0x00);
  4085     0260  3051               	movlw	81
  4086     0261  0020               	movlb	0	; select bank0
  4087     0262  00A4               	movwf	writeReg@reg
  4088     0263  01A5               	clrf	writeReg@value
  4089     0264  0021               	movlb	1	; select bank1
  4090     0265  0857               	movf	VL53L0X_Init@dev^(0+128),w
  4091     0266  3194  2478  3180   	fcall	_writeReg
  4092                           
  4093                           ;main.c: 409:     writeReg(dev, 0x52, 0x96);
  4094     0269  3052               	movlw	82
  4095     026A  0020               	movlb	0	; select bank0
  4096     026B  00A4               	movwf	writeReg@reg
  4097     026C  3096               	movlw	150
  4098     026D  00A5               	movwf	writeReg@value
  4099     026E  0021               	movlb	1	; select bank1
  4100     026F  0857               	movf	VL53L0X_Init@dev^(0+128),w
  4101     0270  3194  2478  3180   	fcall	_writeReg
  4102                           
  4103                           ;main.c: 410:     writeReg(dev, 0x56, 0x08);
  4104     0273  3056               	movlw	86
  4105     0274  0020               	movlb	0	; select bank0
  4106     0275  00A4               	movwf	writeReg@reg
  4107     0276  3008               	movlw	8
  4108     0277  00A5               	movwf	writeReg@value
  4109     0278  0021               	movlb	1	; select bank1
  4110     0279  0857               	movf	VL53L0X_Init@dev^(0+128),w
  4111     027A  3194  2478  3180   	fcall	_writeReg
  4112                           
  4113                           ;main.c: 411:     writeReg(dev, 0x57, 0x30);
  4114     027D  3057               	movlw	87
  4115     027E  0020               	movlb	0	; select bank0
  4116     027F  00A4               	movwf	writeReg@reg
  4117     0280  3030               	movlw	48
  4118     0281  00A5               	movwf	writeReg@value
  4119     0282  0021               	movlb	1	; select bank1
  4120     0283  0857               	movf	VL53L0X_Init@dev^(0+128),w
  4121     0284  3194  2478  3180   	fcall	_writeReg
  4122                           
  4123                           ;main.c: 412:     writeReg(dev, 0x61, 0x00);
  4124     0287  3061               	movlw	97
  4125     0288  0020               	movlb	0	; select bank0
  4126     0289  00A4               	movwf	writeReg@reg
  4127     028A  01A5               	clrf	writeReg@value
  4128     028B  0021               	movlb	1	; select bank1
  4129     028C  0857               	movf	VL53L0X_Init@dev^(0+128),w
  4130     028D  3194  2478  3180   	fcall	_writeReg
  4131                           
  4132                           ;main.c: 413:     writeReg(dev, 0x62, 0x00);
  4133     0290  3062               	movlw	98
  4134     0291  0020               	movlb	0	; select bank0
  4135     0292  00A4               	movwf	writeReg@reg
  4136     0293  01A5               	clrf	writeReg@value
  4137     0294  0021               	movlb	1	; select bank1
  4138     0295  0857               	movf	VL53L0X_Init@dev^(0+128),w
  4139     0296  3194  2478  3180   	fcall	_writeReg
  4140                           
  4141                           ;main.c: 414:     writeReg(dev, 0x64, 0x00);
  4142     0299  3064               	movlw	100
  4143     029A  0020               	movlb	0	; select bank0
  4144     029B  00A4               	movwf	writeReg@reg
  4145     029C  01A5               	clrf	writeReg@value
  4146     029D  0021               	movlb	1	; select bank1
  4147     029E  0857               	movf	VL53L0X_Init@dev^(0+128),w
  4148     029F  3194  2478  3180   	fcall	_writeReg
  4149                           
  4150                           ;main.c: 415:     writeReg(dev, 0x65, 0x00);
  4151     02A2  3065               	movlw	101
  4152     02A3  0020               	movlb	0	; select bank0
  4153     02A4  00A4               	movwf	writeReg@reg
  4154     02A5  01A5               	clrf	writeReg@value
  4155     02A6  0021               	movlb	1	; select bank1
  4156     02A7  0857               	movf	VL53L0X_Init@dev^(0+128),w
  4157     02A8  3194  2478  3180   	fcall	_writeReg
  4158                           
  4159                           ;main.c: 416:     writeReg(dev, 0x66, 0xA0);
  4160     02AB  3066               	movlw	102
  4161     02AC  0020               	movlb	0	; select bank0
  4162     02AD  00A4               	movwf	writeReg@reg
  4163     02AE  30A0               	movlw	160
  4164     02AF  00A5               	movwf	writeReg@value
  4165     02B0  0021               	movlb	1	; select bank1
  4166     02B1  0857               	movf	VL53L0X_Init@dev^(0+128),w
  4167     02B2  3194  2478  3180   	fcall	_writeReg
  4168                           
  4169                           ;main.c: 417:     writeReg(dev, 0xFF, 0x01);
  4170     02B5  30FF               	movlw	255
  4171     02B6  0020               	movlb	0	; select bank0
  4172     02B7  00A4               	movwf	writeReg@reg
  4173     02B8  01A5               	clrf	writeReg@value
  4174     02B9  0AA5               	incf	writeReg@value,f
  4175     02BA  0021               	movlb	1	; select bank1
  4176     02BB  0857               	movf	VL53L0X_Init@dev^(0+128),w
  4177     02BC  3194  2478  3180   	fcall	_writeReg
  4178                           
  4179                           ;main.c: 418:     writeReg(dev, 0x22, 0x32);
  4180     02BF  3022               	movlw	34
  4181     02C0  0020               	movlb	0	; select bank0
  4182     02C1  00A4               	movwf	writeReg@reg
  4183     02C2  3032               	movlw	50
  4184     02C3  00A5               	movwf	writeReg@value
  4185     02C4  0021               	movlb	1	; select bank1
  4186     02C5  0857               	movf	VL53L0X_Init@dev^(0+128),w
  4187     02C6  3194  2478  3180   	fcall	_writeReg
  4188                           
  4189                           ;main.c: 419:     writeReg(dev, 0x47, 0x14);
  4190     02C9  3047               	movlw	71
  4191     02CA  0020               	movlb	0	; select bank0
  4192     02CB  00A4               	movwf	writeReg@reg
  4193     02CC  3014               	movlw	20
  4194     02CD  00A5               	movwf	writeReg@value
  4195     02CE  0021               	movlb	1	; select bank1
  4196     02CF  0857               	movf	VL53L0X_Init@dev^(0+128),w
  4197     02D0  3194  2478  3180   	fcall	_writeReg
  4198                           
  4199                           ;main.c: 420:     writeReg(dev, 0x49, 0xFF);
  4200     02D3  3049               	movlw	73
  4201     02D4  0020               	movlb	0	; select bank0
  4202     02D5  00A4               	movwf	writeReg@reg
  4203     02D6  30FF               	movlw	255
  4204     02D7  00A5               	movwf	writeReg@value
  4205     02D8  0021               	movlb	1	; select bank1
  4206     02D9  0857               	movf	VL53L0X_Init@dev^(0+128),w
  4207     02DA  3194  2478  3180   	fcall	_writeReg
  4208                           
  4209                           ;main.c: 421:     writeReg(dev, 0x4A, 0x00);
  4210     02DD  304A               	movlw	74
  4211     02DE  0020               	movlb	0	; select bank0
  4212     02DF  00A4               	movwf	writeReg@reg
  4213     02E0  01A5               	clrf	writeReg@value
  4214     02E1  0021               	movlb	1	; select bank1
  4215     02E2  0857               	movf	VL53L0X_Init@dev^(0+128),w
  4216     02E3  3194  2478  3180   	fcall	_writeReg
  4217                           
  4218                           ;main.c: 422:     writeReg(dev, 0xFF, 0x00);
  4219     02E6  30FF               	movlw	255
  4220     02E7  0020               	movlb	0	; select bank0
  4221     02E8  00A4               	movwf	writeReg@reg
  4222     02E9  01A5               	clrf	writeReg@value
  4223     02EA  0021               	movlb	1	; select bank1
  4224     02EB  0857               	movf	VL53L0X_Init@dev^(0+128),w
  4225     02EC  3194  2478  3180   	fcall	_writeReg
  4226                           
  4227                           ;main.c: 423:     writeReg(dev, 0x7A, 0x0A);
  4228     02EF  307A               	movlw	122
  4229     02F0  0020               	movlb	0	; select bank0
  4230     02F1  00A4               	movwf	writeReg@reg
  4231     02F2  300A               	movlw	10
  4232     02F3  00A5               	movwf	writeReg@value
  4233     02F4  0021               	movlb	1	; select bank1
  4234     02F5  0857               	movf	VL53L0X_Init@dev^(0+128),w
  4235     02F6  3194  2478  3180   	fcall	_writeReg
  4236                           
  4237                           ;main.c: 424:     writeReg(dev, 0x7B, 0x00);
  4238     02F9  307B               	movlw	123
  4239     02FA  0020               	movlb	0	; select bank0
  4240     02FB  00A4               	movwf	writeReg@reg
  4241     02FC  01A5               	clrf	writeReg@value
  4242     02FD  0021               	movlb	1	; select bank1
  4243     02FE  0857               	movf	VL53L0X_Init@dev^(0+128),w
  4244     02FF  3194  2478  3180   	fcall	_writeReg
  4245                           
  4246                           ;main.c: 425:     writeReg(dev, 0x78, 0x21);
  4247     0302  3078               	movlw	120
  4248     0303  0020               	movlb	0	; select bank0
  4249     0304  00A4               	movwf	writeReg@reg
  4250     0305  3021               	movlw	33
  4251     0306  00A5               	movwf	writeReg@value
  4252     0307  0021               	movlb	1	; select bank1
  4253     0308  0857               	movf	VL53L0X_Init@dev^(0+128),w
  4254     0309  3194  2478  3180   	fcall	_writeReg
  4255                           
  4256                           ;main.c: 426:     writeReg(dev, 0xFF, 0x01);
  4257     030C  30FF               	movlw	255
  4258     030D  0020               	movlb	0	; select bank0
  4259     030E  00A4               	movwf	writeReg@reg
  4260     030F  01A5               	clrf	writeReg@value
  4261     0310  0AA5               	incf	writeReg@value,f
  4262     0311  0021               	movlb	1	; select bank1
  4263     0312  0857               	movf	VL53L0X_Init@dev^(0+128),w
  4264     0313  3194  2478  3180   	fcall	_writeReg
  4265                           
  4266                           ;main.c: 427:     writeReg(dev, 0x23, 0x34);
  4267     0316  3023               	movlw	35
  4268     0317  0020               	movlb	0	; select bank0
  4269     0318  00A4               	movwf	writeReg@reg
  4270     0319  3034               	movlw	52
  4271     031A  00A5               	movwf	writeReg@value
  4272     031B  0021               	movlb	1	; select bank1
  4273     031C  0857               	movf	VL53L0X_Init@dev^(0+128),w
  4274     031D  3194  2478  3180   	fcall	_writeReg
  4275                           
  4276                           ;main.c: 428:     writeReg(dev, 0x42, 0x00);
  4277     0320  3042               	movlw	66
  4278     0321  0020               	movlb	0	; select bank0
  4279     0322  00A4               	movwf	writeReg@reg
  4280     0323  01A5               	clrf	writeReg@value
  4281     0324  0021               	movlb	1	; select bank1
  4282     0325  0857               	movf	VL53L0X_Init@dev^(0+128),w
  4283     0326  3194  2478  3180   	fcall	_writeReg
  4284                           
  4285                           ;main.c: 429:     writeReg(dev, 0x44, 0xFF);
  4286     0329  3044               	movlw	68
  4287     032A  0020               	movlb	0	; select bank0
  4288     032B  00A4               	movwf	writeReg@reg
  4289     032C  30FF               	movlw	255
  4290     032D  00A5               	movwf	writeReg@value
  4291     032E  0021               	movlb	1	; select bank1
  4292     032F  0857               	movf	VL53L0X_Init@dev^(0+128),w
  4293     0330  3194  2478  3180   	fcall	_writeReg
  4294                           
  4295                           ;main.c: 430:     writeReg(dev, 0x45, 0x26);
  4296     0333  3045               	movlw	69
  4297     0334  0020               	movlb	0	; select bank0
  4298     0335  00A4               	movwf	writeReg@reg
  4299     0336  3026               	movlw	38
  4300     0337  00A5               	movwf	writeReg@value
  4301     0338  0021               	movlb	1	; select bank1
  4302     0339  0857               	movf	VL53L0X_Init@dev^(0+128),w
  4303     033A  3194  2478  3180   	fcall	_writeReg
  4304                           
  4305                           ;main.c: 431:     writeReg(dev, 0x46, 0x05);
  4306     033D  3046               	movlw	70
  4307     033E  0020               	movlb	0	; select bank0
  4308     033F  00A4               	movwf	writeReg@reg
  4309     0340  3005               	movlw	5
  4310     0341  00A5               	movwf	writeReg@value
  4311     0342  0021               	movlb	1	; select bank1
  4312     0343  0857               	movf	VL53L0X_Init@dev^(0+128),w
  4313     0344  3194  2478  3180   	fcall	_writeReg
  4314                           
  4315                           ;main.c: 432:     writeReg(dev, 0x40, 0x40);
  4316     0347  3040               	movlw	64
  4317     0348  0020               	movlb	0	; select bank0
  4318     0349  00A4               	movwf	writeReg@reg
  4319     034A  3040               	movlw	64
  4320     034B  00A5               	movwf	writeReg@value
  4321     034C  0021               	movlb	1	; select bank1
  4322     034D  0857               	movf	VL53L0X_Init@dev^(0+128),w
  4323     034E  3194  2478  3180   	fcall	_writeReg
  4324                           
  4325                           ;main.c: 433:     writeReg(dev, 0x0E, 0x06);
  4326     0351  300E               	movlw	14
  4327     0352  0020               	movlb	0	; select bank0
  4328     0353  00A4               	movwf	writeReg@reg
  4329     0354  3006               	movlw	6
  4330     0355  00A5               	movwf	writeReg@value
  4331     0356  0021               	movlb	1	; select bank1
  4332     0357  0857               	movf	VL53L0X_Init@dev^(0+128),w
  4333     0358  3194  2478  3180   	fcall	_writeReg
  4334                           
  4335                           ;main.c: 434:     writeReg(dev, 0x20, 0x1A);
  4336     035B  3020               	movlw	32
  4337     035C  0020               	movlb	0	; select bank0
  4338     035D  00A4               	movwf	writeReg@reg
  4339     035E  301A               	movlw	26
  4340     035F  00A5               	movwf	writeReg@value
  4341     0360  0021               	movlb	1	; select bank1
  4342     0361  0857               	movf	VL53L0X_Init@dev^(0+128),w
  4343     0362  3194  2478  3180   	fcall	_writeReg
  4344                           
  4345                           ;main.c: 435:     writeReg(dev, 0x43, 0x40);
  4346     0365  3043               	movlw	67
  4347     0366  0020               	movlb	0	; select bank0
  4348     0367  00A4               	movwf	writeReg@reg
  4349     0368  3040               	movlw	64
  4350     0369  00A5               	movwf	writeReg@value
  4351     036A  0021               	movlb	1	; select bank1
  4352     036B  0857               	movf	VL53L0X_Init@dev^(0+128),w
  4353     036C  3194  2478  3180   	fcall	_writeReg
  4354                           
  4355                           ;main.c: 436:     writeReg(dev, 0xFF, 0x00);
  4356     036F  30FF               	movlw	255
  4357     0370  0020               	movlb	0	; select bank0
  4358     0371  00A4               	movwf	writeReg@reg
  4359     0372  01A5               	clrf	writeReg@value
  4360     0373  0021               	movlb	1	; select bank1
  4361     0374  0857               	movf	VL53L0X_Init@dev^(0+128),w
  4362     0375  3194  2478  3180   	fcall	_writeReg
  4363                           
  4364                           ;main.c: 437:     writeReg(dev, 0x34, 0x03);
  4365     0378  3034               	movlw	52
  4366     0379  0020               	movlb	0	; select bank0
  4367     037A  00A4               	movwf	writeReg@reg
  4368     037B  3003               	movlw	3
  4369     037C  00A5               	movwf	writeReg@value
  4370     037D  0021               	movlb	1	; select bank1
  4371     037E  0857               	movf	VL53L0X_Init@dev^(0+128),w
  4372     037F  3194  2478  3180   	fcall	_writeReg
  4373                           
  4374                           ;main.c: 438:     writeReg(dev, 0x35, 0x44);
  4375     0382  3035               	movlw	53
  4376     0383  0020               	movlb	0	; select bank0
  4377     0384  00A4               	movwf	writeReg@reg
  4378     0385  3044               	movlw	68
  4379     0386  00A5               	movwf	writeReg@value
  4380     0387  0021               	movlb	1	; select bank1
  4381     0388  0857               	movf	VL53L0X_Init@dev^(0+128),w
  4382     0389  3194  2478  3180   	fcall	_writeReg
  4383                           
  4384                           ;main.c: 439:     writeReg(dev, 0xFF, 0x01);
  4385     038C  30FF               	movlw	255
  4386     038D  0020               	movlb	0	; select bank0
  4387     038E  00A4               	movwf	writeReg@reg
  4388     038F  01A5               	clrf	writeReg@value
  4389     0390  0AA5               	incf	writeReg@value,f
  4390     0391  0021               	movlb	1	; select bank1
  4391     0392  0857               	movf	VL53L0X_Init@dev^(0+128),w
  4392     0393  3194  2478  3180   	fcall	_writeReg
  4393                           
  4394                           ;main.c: 440:     writeReg(dev, 0x31, 0x04);
  4395     0396  3031               	movlw	49
  4396     0397  0020               	movlb	0	; select bank0
  4397     0398  00A4               	movwf	writeReg@reg
  4398     0399  3004               	movlw	4
  4399     039A  00A5               	movwf	writeReg@value
  4400     039B  0021               	movlb	1	; select bank1
  4401     039C  0857               	movf	VL53L0X_Init@dev^(0+128),w
  4402     039D  3194  2478  3180   	fcall	_writeReg
  4403                           
  4404                           ;main.c: 441:     writeReg(dev, 0x4B, 0x09);
  4405     03A0  304B               	movlw	75
  4406     03A1  0020               	movlb	0	; select bank0
  4407     03A2  00A4               	movwf	writeReg@reg
  4408     03A3  3009               	movlw	9
  4409     03A4  00A5               	movwf	writeReg@value
  4410     03A5  0021               	movlb	1	; select bank1
  4411     03A6  0857               	movf	VL53L0X_Init@dev^(0+128),w
  4412     03A7  3194  2478  3180   	fcall	_writeReg
  4413                           
  4414                           ;main.c: 442:     writeReg(dev, 0x4C, 0x05);
  4415     03AA  304C               	movlw	76
  4416     03AB  0020               	movlb	0	; select bank0
  4417     03AC  00A4               	movwf	writeReg@reg
  4418     03AD  3005               	movlw	5
  4419     03AE  00A5               	movwf	writeReg@value
  4420     03AF  0021               	movlb	1	; select bank1
  4421     03B0  0857               	movf	VL53L0X_Init@dev^(0+128),w
  4422     03B1  3194  2478  3180   	fcall	_writeReg
  4423                           
  4424                           ;main.c: 443:     writeReg(dev, 0x4D, 0x04);
  4425     03B4  304D               	movlw	77
  4426     03B5  0020               	movlb	0	; select bank0
  4427     03B6  00A4               	movwf	writeReg@reg
  4428     03B7  3004               	movlw	4
  4429     03B8  00A5               	movwf	writeReg@value
  4430     03B9  0021               	movlb	1	; select bank1
  4431     03BA  0857               	movf	VL53L0X_Init@dev^(0+128),w
  4432     03BB  3194  2478  3180   	fcall	_writeReg
  4433                           
  4434                           ;main.c: 444:     writeReg(dev, 0xFF, 0x00);
  4435     03BE  30FF               	movlw	255
  4436     03BF  0020               	movlb	0	; select bank0
  4437     03C0  00A4               	movwf	writeReg@reg
  4438     03C1  01A5               	clrf	writeReg@value
  4439     03C2  0021               	movlb	1	; select bank1
  4440     03C3  0857               	movf	VL53L0X_Init@dev^(0+128),w
  4441     03C4  3194  2478  3180   	fcall	_writeReg
  4442                           
  4443                           ;main.c: 445:     writeReg(dev, 0x44, 0x00);
  4444     03C7  3044               	movlw	68
  4445     03C8  0020               	movlb	0	; select bank0
  4446     03C9  00A4               	movwf	writeReg@reg
  4447     03CA  01A5               	clrf	writeReg@value
  4448     03CB  0021               	movlb	1	; select bank1
  4449     03CC  0857               	movf	VL53L0X_Init@dev^(0+128),w
  4450     03CD  3194  2478  3180   	fcall	_writeReg
  4451                           
  4452                           ;main.c: 446:     writeReg(dev, 0x45, 0x20);
  4453     03D0  3045               	movlw	69
  4454     03D1  0020               	movlb	0	; select bank0
  4455     03D2  00A4               	movwf	writeReg@reg
  4456     03D3  3020               	movlw	32
  4457     03D4  00A5               	movwf	writeReg@value
  4458     03D5  0021               	movlb	1	; select bank1
  4459     03D6  0857               	movf	VL53L0X_Init@dev^(0+128),w
  4460     03D7  3194  2478  3180   	fcall	_writeReg
  4461                           
  4462                           ;main.c: 447:     writeReg(dev, 0x47, 0x08);
  4463     03DA  3047               	movlw	71
  4464     03DB  0020               	movlb	0	; select bank0
  4465     03DC  00A4               	movwf	writeReg@reg
  4466     03DD  3008               	movlw	8
  4467     03DE  00A5               	movwf	writeReg@value
  4468     03DF  0021               	movlb	1	; select bank1
  4469     03E0  0857               	movf	VL53L0X_Init@dev^(0+128),w
  4470     03E1  3194  2478  3180   	fcall	_writeReg
  4471                           
  4472                           ;main.c: 448:     writeReg(dev, 0x48, 0x28);
  4473     03E4  3048               	movlw	72
  4474     03E5  0020               	movlb	0	; select bank0
  4475     03E6  00A4               	movwf	writeReg@reg
  4476     03E7  3028               	movlw	40
  4477     03E8  00A5               	movwf	writeReg@value
  4478     03E9  0021               	movlb	1	; select bank1
  4479     03EA  0857               	movf	VL53L0X_Init@dev^(0+128),w
  4480     03EB  3194  2478  3180   	fcall	_writeReg
  4481                           
  4482                           ;main.c: 449:     writeReg(dev, 0x67, 0x00);
  4483     03EE  3067               	movlw	103
  4484     03EF  0020               	movlb	0	; select bank0
  4485     03F0  00A4               	movwf	writeReg@reg
  4486     03F1  01A5               	clrf	writeReg@value
  4487     03F2  0021               	movlb	1	; select bank1
  4488     03F3  0857               	movf	VL53L0X_Init@dev^(0+128),w
  4489     03F4  3194  2478  3180   	fcall	_writeReg
  4490                           
  4491                           ;main.c: 450:     writeReg(dev, 0x70, 0x04);
  4492     03F7  3070               	movlw	112
  4493     03F8  0020               	movlb	0	; select bank0
  4494     03F9  00A4               	movwf	writeReg@reg
  4495     03FA  3004               	movlw	4
  4496     03FB  00A5               	movwf	writeReg@value
  4497     03FC  0021               	movlb	1	; select bank1
  4498     03FD  0857               	movf	VL53L0X_Init@dev^(0+128),w
  4499     03FE  3194  2478  3180   	fcall	_writeReg
  4500                           
  4501                           ;main.c: 451:     writeReg(dev, 0x71, 0x01);
  4502     0401  3071               	movlw	113
  4503     0402  0020               	movlb	0	; select bank0
  4504     0403  00A4               	movwf	writeReg@reg
  4505     0404  01A5               	clrf	writeReg@value
  4506     0405  0AA5               	incf	writeReg@value,f
  4507     0406  0021               	movlb	1	; select bank1
  4508     0407  0857               	movf	VL53L0X_Init@dev^(0+128),w
  4509     0408  3194  2478  3180   	fcall	_writeReg
  4510                           
  4511                           ;main.c: 452:     writeReg(dev, 0x72, 0xFE);
  4512     040B  3072               	movlw	114
  4513     040C  0020               	movlb	0	; select bank0
  4514     040D  00A4               	movwf	writeReg@reg
  4515     040E  30FE               	movlw	254
  4516     040F  00A5               	movwf	writeReg@value
  4517     0410  0021               	movlb	1	; select bank1
  4518     0411  0857               	movf	VL53L0X_Init@dev^(0+128),w
  4519     0412  3194  2478  3180   	fcall	_writeReg
  4520                           
  4521                           ;main.c: 453:     writeReg(dev, 0x76, 0x00);
  4522     0415  3076               	movlw	118
  4523     0416  0020               	movlb	0	; select bank0
  4524     0417  00A4               	movwf	writeReg@reg
  4525     0418  01A5               	clrf	writeReg@value
  4526     0419  0021               	movlb	1	; select bank1
  4527     041A  0857               	movf	VL53L0X_Init@dev^(0+128),w
  4528     041B  3194  2478  3180   	fcall	_writeReg
  4529                           
  4530                           ;main.c: 454:     writeReg(dev, 0x77, 0x00);
  4531     041E  3077               	movlw	119
  4532     041F  0020               	movlb	0	; select bank0
  4533     0420  00A4               	movwf	writeReg@reg
  4534     0421  01A5               	clrf	writeReg@value
  4535     0422  0021               	movlb	1	; select bank1
  4536     0423  0857               	movf	VL53L0X_Init@dev^(0+128),w
  4537     0424  3194  2478  3180   	fcall	_writeReg
  4538                           
  4539                           ;main.c: 455:     writeReg(dev, 0xFF, 0x01);
  4540     0427  30FF               	movlw	255
  4541     0428  0020               	movlb	0	; select bank0
  4542     0429  00A4               	movwf	writeReg@reg
  4543     042A  01A5               	clrf	writeReg@value
  4544     042B  0AA5               	incf	writeReg@value,f
  4545     042C  0021               	movlb	1	; select bank1
  4546     042D  0857               	movf	VL53L0X_Init@dev^(0+128),w
  4547     042E  3194  2478  3180   	fcall	_writeReg
  4548                           
  4549                           ;main.c: 456:     writeReg(dev, 0x0D, 0x01);
  4550     0431  300D               	movlw	13
  4551     0432  0020               	movlb	0	; select bank0
  4552     0433  00A4               	movwf	writeReg@reg
  4553     0434  01A5               	clrf	writeReg@value
  4554     0435  0AA5               	incf	writeReg@value,f
  4555     0436  0021               	movlb	1	; select bank1
  4556     0437  0857               	movf	VL53L0X_Init@dev^(0+128),w
  4557     0438  3194  2478  3180   	fcall	_writeReg
  4558                           
  4559                           ;main.c: 457:     writeReg(dev, 0xFF, 0x00);
  4560     043B  30FF               	movlw	255
  4561     043C  0020               	movlb	0	; select bank0
  4562     043D  00A4               	movwf	writeReg@reg
  4563     043E  01A5               	clrf	writeReg@value
  4564     043F  0021               	movlb	1	; select bank1
  4565     0440  0857               	movf	VL53L0X_Init@dev^(0+128),w
  4566     0441  3194  2478  3180   	fcall	_writeReg
  4567                           
  4568                           ;main.c: 458:     writeReg(dev, 0x80, 0x01);
  4569     0444  3080               	movlw	128
  4570     0445  0020               	movlb	0	; select bank0
  4571     0446  00A4               	movwf	writeReg@reg
  4572     0447  01A5               	clrf	writeReg@value
  4573     0448  0AA5               	incf	writeReg@value,f
  4574     0449  0021               	movlb	1	; select bank1
  4575     044A  0857               	movf	VL53L0X_Init@dev^(0+128),w
  4576     044B  3194  2478  3180   	fcall	_writeReg
  4577                           
  4578                           ;main.c: 459:     writeReg(dev, 0x01, 0xF8);
  4579     044E  0020               	movlb	0	; select bank0
  4580     044F  01A4               	clrf	writeReg@reg
  4581     0450  0AA4               	incf	writeReg@reg,f
  4582     0451  30F8               	movlw	248
  4583     0452  00A5               	movwf	writeReg@value
  4584     0453  0021               	movlb	1	; select bank1
  4585     0454  0857               	movf	VL53L0X_Init@dev^(0+128),w
  4586     0455  3194  2478  3180   	fcall	_writeReg
  4587                           
  4588                           ;main.c: 460:     writeReg(dev, 0xFF, 0x01);
  4589     0458  30FF               	movlw	255
  4590     0459  0020               	movlb	0	; select bank0
  4591     045A  00A4               	movwf	writeReg@reg
  4592     045B  01A5               	clrf	writeReg@value
  4593     045C  0AA5               	incf	writeReg@value,f
  4594     045D  0021               	movlb	1	; select bank1
  4595     045E  0857               	movf	VL53L0X_Init@dev^(0+128),w
  4596     045F  3194  2478  3180   	fcall	_writeReg
  4597                           
  4598                           ;main.c: 461:     writeReg(dev, 0x8E, 0x01);
  4599     0462  308E               	movlw	142
  4600     0463  0020               	movlb	0	; select bank0
  4601     0464  00A4               	movwf	writeReg@reg
  4602     0465  01A5               	clrf	writeReg@value
  4603     0466  0AA5               	incf	writeReg@value,f
  4604     0467  0021               	movlb	1	; select bank1
  4605     0468  0857               	movf	VL53L0X_Init@dev^(0+128),w
  4606     0469  3194  2478  3180   	fcall	_writeReg
  4607                           
  4608                           ;main.c: 462:     writeReg(dev, 0x00, 0x01);
  4609     046C  0020               	movlb	0	; select bank0
  4610     046D  01A4               	clrf	writeReg@reg
  4611     046E  01A5               	clrf	writeReg@value
  4612     046F  0AA5               	incf	writeReg@value,f
  4613     0470  0021               	movlb	1	; select bank1
  4614     0471  0857               	movf	VL53L0X_Init@dev^(0+128),w
  4615     0472  3194  2478  3180   	fcall	_writeReg
  4616                           
  4617                           ;main.c: 463:     writeReg(dev, 0xFF, 0x00);
  4618     0475  30FF               	movlw	255
  4619     0476  0020               	movlb	0	; select bank0
  4620     0477  00A4               	movwf	writeReg@reg
  4621     0478  01A5               	clrf	writeReg@value
  4622     0479  0021               	movlb	1	; select bank1
  4623     047A  0857               	movf	VL53L0X_Init@dev^(0+128),w
  4624     047B  3194  2478  3180   	fcall	_writeReg
  4625                           
  4626                           ;main.c: 464:     writeReg(dev, 0x80, 0x00);
  4627     047E  3080               	movlw	128
  4628     047F  0020               	movlb	0	; select bank0
  4629     0480  00A4               	movwf	writeReg@reg
  4630     0481  01A5               	clrf	writeReg@value
  4631     0482  0021               	movlb	1	; select bank1
  4632     0483  0857               	movf	VL53L0X_Init@dev^(0+128),w
  4633     0484  3194  2478  3180   	fcall	_writeReg
  4634                           
  4635                           ;main.c: 467:     writeReg(dev, 0x0A, 0x04);
  4636     0487  300A               	movlw	10
  4637     0488  0020               	movlb	0	; select bank0
  4638     0489  00A4               	movwf	writeReg@reg
  4639     048A  3004               	movlw	4
  4640     048B  00A5               	movwf	writeReg@value
  4641     048C  0021               	movlb	1	; select bank1
  4642     048D  0857               	movf	VL53L0X_Init@dev^(0+128),w
  4643     048E  3194  2478  3180   	fcall	_writeReg
  4644                           
  4645                           ;main.c: 468:     writeReg(dev, 0x84,
  4646     0491  3084               	movlw	132
  4647     0492  0020               	movlb	0	; select bank0
  4648     0493  00A4               	movwf	writeReg@reg
  4649     0494  3084               	movlw	132
  4650     0495  00A0               	movwf	readReg@reg
  4651     0496  0021               	movlb	1	; select bank1
  4652     0497  0857               	movf	VL53L0X_Init@dev^(0+128),w
  4653     0498  3194  24C0  3180   	fcall	_readReg
  4654     049B  39EF               	andlw	239
  4655     049C  0020               	movlb	0	; select bank0
  4656     049D  00A5               	movwf	writeReg@value
  4657     049E  0021               	movlb	1	; select bank1
  4658     049F  0857               	movf	VL53L0X_Init@dev^(0+128),w
  4659     04A0  3194  2478  3180   	fcall	_writeReg
  4660                           
  4661                           ;main.c: 470:     writeReg(dev, 0x0B, 0x01);
  4662     04A3  300B               	movlw	11
  4663     04A4  0020               	movlb	0	; select bank0
  4664     04A5  00A4               	movwf	writeReg@reg
  4665     04A6  01A5               	clrf	writeReg@value
  4666     04A7  0AA5               	incf	writeReg@value,f
  4667     04A8  0021               	movlb	1	; select bank1
  4668     04A9  0857               	movf	VL53L0X_Init@dev^(0+128),w
  4669     04AA  3194  2478  3180   	fcall	_writeReg
  4670                           
  4671                           ;main.c: 472:     dev->measurement_timing_budget_us = getMeasurementTimingBudget(dev);
  4672     04AD  0021               	movlb	1	; select bank1
  4673     04AE  0857               	movf	VL53L0X_Init@dev^(0+128),w
  4674     04AF  318F  2720  3180   	fcall	_getMeasurementTimingBudget
  4675     04B2  0021               	movlb	1	; select bank1
  4676     04B3  0857               	movf	VL53L0X_Init@dev^(0+128),w
  4677     04B4  3E0C               	addlw	12
  4678     04B5  0086               	movwf	6
  4679     04B6  0187               	clrf	7
  4680     04B7  0020               	movlb	0	; select bank0
  4681     04B8  0842               	movf	?_getMeasurementTimingBudget,w
  4682     04B9  3FC0               	movwi [0]fsr1
  4683     04BA  0843               	movf	?_getMeasurementTimingBudget+1,w
  4684     04BB  3FC1               	movwi [1]fsr1
  4685     04BC  0844               	movf	?_getMeasurementTimingBudget+2,w
  4686     04BD  3FC2               	movwi [2]fsr1
  4687     04BE  0845               	movf	?_getMeasurementTimingBudget+3,w
  4688     04BF  3FC3               	movwi [3]fsr1
  4689                           
  4690                           ;main.c: 473:     writeReg(dev, 0x01, 0xE8);
  4691     04C0  01A4               	clrf	writeReg@reg
  4692     04C1  0AA4               	incf	writeReg@reg,f
  4693     04C2  30E8               	movlw	232
  4694     04C3  00A5               	movwf	writeReg@value
  4695     04C4  0021               	movlb	1	; select bank1
  4696     04C5  0857               	movf	VL53L0X_Init@dev^(0+128),w
  4697     04C6  3194  2478  3180   	fcall	_writeReg
  4698                           
  4699                           ;main.c: 474:     setMeasurementTimingBudget(dev, dev->measurement_timing_budget_us);
  4700     04C9  0021               	movlb	1	; select bank1
  4701     04CA  0857               	movf	VL53L0X_Init@dev^(0+128),w
  4702     04CB  3E0C               	addlw	12
  4703     04CC  0086               	movwf	6
  4704     04CD  0187               	clrf	7
  4705     04CE  3F40               	moviw [0]fsr1
  4706     04CF  0020               	movlb	0	; select bank0
  4707     04D0  00C2               	movwf	setMeasurementTimingBudget@budget_us
  4708     04D1  3F41               	moviw [1]fsr1
  4709     04D2  00C3               	movwf	setMeasurementTimingBudget@budget_us+1
  4710     04D3  3F42               	moviw [2]fsr1
  4711     04D4  00C4               	movwf	setMeasurementTimingBudget@budget_us+2
  4712     04D5  3F43               	moviw [3]fsr1
  4713     04D6  00C5               	movwf	setMeasurementTimingBudget@budget_us+3
  4714     04D7  0021               	movlb	1	; select bank1
  4715     04D8  0857               	movf	VL53L0X_Init@dev^(0+128),w
  4716     04D9  3185  2517  3180   	fcall	_setMeasurementTimingBudget
  4717                           
  4718                           ;main.c: 477:     writeReg(dev, 0x01, 0x01);
  4719     04DC  0020               	movlb	0	; select bank0
  4720     04DD  01A4               	clrf	writeReg@reg
  4721     04DE  0AA4               	incf	writeReg@reg,f
  4722     04DF  01A5               	clrf	writeReg@value
  4723     04E0  0AA5               	incf	writeReg@value,f
  4724     04E1  0021               	movlb	1	; select bank1
  4725     04E2  0857               	movf	VL53L0X_Init@dev^(0+128),w
  4726     04E3  3194  2478  3180   	fcall	_writeReg
  4727                           
  4728                           ;main.c: 478:     if (!performSingleRefCal(dev, 0x40)) return 0;
  4729     04E6  3040               	movlw	64
  4730     04E7  0020               	movlb	0	; select bank0
  4731     04E8  00AC               	movwf	performSingleRefCal@vhv_init_byte
  4732     04E9  0021               	movlb	1	; select bank1
  4733     04EA  0857               	movf	VL53L0X_Init@dev^(0+128),w
  4734     04EB  3196  26B3  3180   	fcall	_performSingleRefCal
  4735     04EE  3A00               	xorlw	0
  4736     04EF  1D03               	skipz
  4737     04F0  2CF2               	goto	u3101
  4738     04F1  2CF3               	goto	u3100
  4739     04F2                     u3101:
  4740     04F2  2CF4               	goto	l2868
  4741     04F3                     u3100:
  4742     04F3  28D1               	goto	l2832
  4743     04F4                     l2868:
  4744                           
  4745                           ;main.c: 480:     writeReg(dev, 0x01, 0x02);
  4746     04F4  0020               	movlb	0	; select bank0
  4747     04F5  01A4               	clrf	writeReg@reg
  4748     04F6  0AA4               	incf	writeReg@reg,f
  4749     04F7  3002               	movlw	2
  4750     04F8  00A5               	movwf	writeReg@value
  4751     04F9  0021               	movlb	1	; select bank1
  4752     04FA  0857               	movf	VL53L0X_Init@dev^(0+128),w
  4753     04FB  3194  2478  3180   	fcall	_writeReg
  4754                           
  4755                           ;main.c: 481:     if (!performSingleRefCal(dev, 0x00)) return 0;
  4756     04FE  0020               	movlb	0	; select bank0
  4757     04FF  01AC               	clrf	performSingleRefCal@vhv_init_byte
  4758     0500  0021               	movlb	1	; select bank1
  4759     0501  0857               	movf	VL53L0X_Init@dev^(0+128),w
  4760     0502  3196  26B3  3180   	fcall	_performSingleRefCal
  4761     0505  3A00               	xorlw	0
  4762     0506  1D03               	skipz
  4763     0507  2D09               	goto	u3111
  4764     0508  2D0A               	goto	u3110
  4765     0509                     u3111:
  4766     0509  2D0B               	goto	l2874
  4767     050A                     u3110:
  4768     050A  28D1               	goto	l2832
  4769     050B                     l2874:
  4770                           
  4771                           ;main.c: 483:     writeReg(dev, 0x01, 0xE8);
  4772     050B  0020               	movlb	0	; select bank0
  4773     050C  01A4               	clrf	writeReg@reg
  4774     050D  0AA4               	incf	writeReg@reg,f
  4775     050E  30E8               	movlw	232
  4776     050F  00A5               	movwf	writeReg@value
  4777     0510  0021               	movlb	1	; select bank1
  4778     0511  0857               	movf	VL53L0X_Init@dev^(0+128),w
  4779     0512  3194  2478  3180   	fcall	_writeReg
  4780     0515                     l2876:
  4781                           
  4782                           ;main.c: 484:     return 1;
  4783     0515  3001               	movlw	1
  4784     0516                     l321:
  4785     0516  0008               	return
  4786     0517                     __end_of_VL53L0X_Init:
  4787                           
  4788                           	psect	text8
  4789     14A8                     __ptext8:	
  4790 ;; *************** function _writeMulti *****************
  4791 ;; Defined at:
  4792 ;;		line 289 in file "main.c"
  4793 ;; Parameters:    Size  Location     Type
  4794 ;;  dev             1    wreg     PTR struct .
  4795 ;;		 -> main@sensor(16), 
  4796 ;;  reg             1   11[COMMON] unsigned char 
  4797 ;;  src             1   12[COMMON] PTR unsigned char 
  4798 ;;		 -> VL53L0X_Init@ref_spad_map(6), 
  4799 ;;  count           1   13[COMMON] unsigned char 
  4800 ;; Auto vars:     Size  Location     Type
  4801 ;;  dev             1    1[BANK0 ] PTR struct .
  4802 ;;		 -> main@sensor(16), 
  4803 ;; Return value:  Size  Location     Type
  4804 ;;                  1    wreg      void 
  4805 ;; Registers used:
  4806 ;;		wreg, fsr1l, fsr1h, status,2, status,0, pclath, cstack
  4807 ;; Tracked objects:
  4808 ;;		On entry : 0/0
  4809 ;;		On exit  : 0/0
  4810 ;;		Unchanged: 0/0
  4811 ;; Data sizes:     COMMON   BANK0   BANK1   BANK2   BANK3   BANK4   BANK5   BANK6   BANK7   BANK8   BANK9  BANK10  BANK1
      +1  BANK12  BANK13  BANK14  BANK15  BANK16  BANK17  BANK18  BANK19  BANK20  BANK21  BANK22  BANK23  BANK24  BANK25
  4812 ;;      Params:         3       0       0       0       0       0       0       0       0       0       0       0       
      +0       0       0       0       0       0       0       0       0       0       0       0       0       0       0
  4813 ;;      Locals:         0       1       0       0       0       0       0       0       0       0       0       0       
      +0       0       0       0       0       0       0       0       0       0       0       0       0       0       0
  4814 ;;      Temps:          0       1       0       0       0       0       0       0       0       0       0       0       
      +0       0       0       0       0       0       0       0       0       0       0       0       0       0       0
  4815 ;;      Totals:         3       2       0       0       0       0       0       0       0       0       0       0       
      +0       0       0       0       0       0       0       0       0       0       0       0       0       0       0
  4816 ;;Total ram usage:        5 bytes
  4817 ;; Hardware stack levels used: 1
  4818 ;; Hardware stack levels required when called: 4
  4819 ;; This function calls:
  4820 ;;		_tof_i2c_write
  4821 ;; This function is called by:
  4822 ;;		_VL53L0X_Init
  4823 ;; This function uses a non-reentrant model
  4824 ;;
  4825                           
  4826     14A8                     _writeMulti:	
  4827                           ;psect for function _writeMulti
  4828                           
  4829                           
  4830                           ;incstack = 0
  4831                           ; Regs used in _writeMulti: [wreg+fsr1l+fsr1h+status,2+status,0+pclath+cstack]
  4832                           ;writeMulti@dev stored from wreg
  4833     14A8  0020               	movlb	0	; select bank0
  4834     14A9  00A1               	movwf	writeMulti@dev
  4835     14AA                     l2598:
  4836                           
  4837                           ;main.c: 289: static void writeMulti(VL53L0X_Dev_t *dev, uint8_t reg, uint8_t *src, uint
      +                          8_t count);main.c: 290: {;main.c: 291:     dev->last_status = tof_i2c_write(dev->address
      +                          , reg, src, count);
  4838     14AA  087B               	movf	writeMulti@reg,w
  4839     14AB  00F5               	movwf	tof_i2c_write@reg
  4840     14AC  087C               	movf	writeMulti@src,w
  4841     14AD  00F6               	movwf	tof_i2c_write@src
  4842     14AE  087D               	movf	writeMulti@count,w
  4843     14AF  00F7               	movwf	tof_i2c_write@len
  4844     14B0  0821               	movf	writeMulti@dev,w
  4845     14B1  0086               	movwf	6
  4846     14B2  0187               	clrf	7
  4847     14B3  0801               	movf	1,w
  4848     14B4  3197  27B4  3194   	fcall	_tof_i2c_write
  4849     14B7  0020               	movlb	0	; select bank0
  4850     14B8  00A0               	movwf	??_writeMulti
  4851     14B9  0821               	movf	writeMulti@dev,w
  4852     14BA  3E02               	addlw	2
  4853     14BB  0086               	movwf	6
  4854     14BC  0187               	clrf	7
  4855     14BD  0820               	movf	??_writeMulti,w
  4856     14BE  0081               	movwf	1
  4857     14BF                     l306:
  4858     14BF  0008               	return
  4859     14C0                     __end_of_writeMulti:
  4860                           
  4861                           	psect	text9
  4862     0517                     __ptext9:	
  4863 ;; *************** function _setMeasurementTimingBudget *****************
  4864 ;; Defined at:
  4865 ;;		line 490 in file "main.c"
  4866 ;; Parameters:    Size  Location     Type
  4867 ;;  dev             1    wreg     PTR struct .
  4868 ;;		 -> main@sensor(16), 
  4869 ;;  budget_us       4   34[BANK0 ] unsigned long 
  4870 ;; Auto vars:     Size  Location     Type
  4871 ;;  dev             1   10[BANK1 ] PTR struct .
  4872 ;;		 -> main@sensor(16), 
  4873 ;;  fr_timeout_u    4    0[BANK1 ] unsigned long 
  4874 ;;  fr_timeout_m    2    4[BANK1 ] unsigned short 
  4875 ;;  to             22   16[BANK1 ] struct .
  4876 ;;  en              5   11[BANK1 ] struct .
  4877 ;;  used            4    6[BANK1 ] unsigned long 
  4878 ;; Return value:  Size  Location     Type
  4879 ;;                  1    wreg      _Bool 
  4880 ;; Registers used:
  4881 ;;		wreg, fsr1l, fsr1h, status,2, status,0, pclath, cstack
  4882 ;; Tracked objects:
  4883 ;;		On entry : 0/0
  4884 ;;		On exit  : 0/0
  4885 ;;		Unchanged: 0/0
  4886 ;; Data sizes:     COMMON   BANK0   BANK1   BANK2   BANK3   BANK4   BANK5   BANK6   BANK7   BANK8   BANK9  BANK10  BANK1
      +1  BANK12  BANK13  BANK14  BANK15  BANK16  BANK17  BANK18  BANK19  BANK20  BANK21  BANK22  BANK23  BANK24  BANK25
  4887 ;;      Params:         0       4       0       0       0       0       0       0       0       0       0       0       
      +0       0       0       0       0       0       0       0       0       0       0       0       0       0       0
  4888 ;;      Locals:         0       0      38       0       0       0       0       0       0       0       0       0       
      +0       0       0       0       0       0       0       0       0       0       0       0       0       0       0
  4889 ;;      Temps:          0       8       0       0       0       0       0       0       0       0       0       0       
      +0       0       0       0       0       0       0       0       0       0       0       0       0       0       0
  4890 ;;      Totals:         0      12      38       0       0       0       0       0       0       0       0       0       
      +0       0       0       0       0       0       0       0       0       0       0       0       0       0       0
  4891 ;;Total ram usage:       50 bytes
  4892 ;; Hardware stack levels used: 1
  4893 ;; Hardware stack levels required when called: 7
  4894 ;; This function calls:
  4895 ;;		_encodeTimeout
  4896 ;;		_getSequenceStepEnables
  4897 ;;		_getSequenceStepTimeouts
  4898 ;;		_timeoutUsToMclks
  4899 ;;		_writeReg16
  4900 ;; This function is called by:
  4901 ;;		_VL53L0X_Init
  4902 ;;		_main
  4903 ;;		_setVcselPulsePeriod
  4904 ;; This function uses a non-reentrant model
  4905 ;;
  4906                           
  4907     0517                     _setMeasurementTimingBudget:	
  4908                           ;psect for function _setMeasurementTimingBudget
  4909                           
  4910                           
  4911                           ;incstack = 0
  4912                           ; Regs used in _setMeasurementTimingBudget: [wreg+fsr1l+fsr1h+status,2+status,0+pclath+c
      +                          stack]
  4913                           ;setMeasurementTimingBudget@dev stored from wreg
  4914     0517  0021               	movlb	1	; select bank1
  4915     0518  00AA               	movwf	setMeasurementTimingBudget@dev^(0+128)
  4916     0519                     l2666:
  4917                           
  4918                           ;main.c: 490: static _Bool setMeasurementTimingBudget(VL53L0X_Dev_t *dev, uint32_t budge
      +                          t_us);main.c: 491: {;main.c: 492:     SeqEnables_t en;;main.c: 493:     SeqTimeouts_t to
      +                          ;;main.c: 495:     if (budget_us < 20000) return 0;
  4919     0519  0020               	movlb	0	; select bank0
  4920     051A  0845               	movf	setMeasurementTimingBudget@budget_us+3,w
  4921     051B  1D03               	btfss	3,2
  4922     051C  2D27               	goto	u2771
  4923     051D  0844               	movf	setMeasurementTimingBudget@budget_us+2,w
  4924     051E  1D03               	btfss	3,2
  4925     051F  2D27               	goto	u2771
  4926     0520  3020               	movlw	32
  4927     0521  0242               	subwf	setMeasurementTimingBudget@budget_us,w
  4928     0522  304E               	movlw	78
  4929     0523  3B43               	subwfb	setMeasurementTimingBudget@budget_us+1,w
  4930     0524  1803               	btfsc	3,0
  4931     0525  2D27               	goto	u2771
  4932     0526  2D28               	goto	u2770
  4933     0527                     u2771:
  4934     0527  2D29               	goto	l2670
  4935     0528                     u2770:
  4936     0528  2E91               	goto	l338
  4937     0529                     l2670:
  4938                           
  4939                           ;main.c: 497:     uint32_t used = 1320 + 960;
  4940     0529  3000               	movlw	0
  4941     052A  0021               	movlb	1	; select bank1
  4942     052B  00A9               	movwf	(setMeasurementTimingBudget@used+3)^(0+128)
  4943     052C  3000               	movlw	0
  4944     052D  00A8               	movwf	(setMeasurementTimingBudget@used+2)^(0+128)
  4945     052E  3008               	movlw	8
  4946     052F  00A7               	movwf	(setMeasurementTimingBudget@used+1)^(0+128)
  4947     0530  30E8               	movlw	232
  4948     0531  00A6               	movwf	setMeasurementTimingBudget@used^(0+128)
  4949     0532                     l2672:
  4950                           
  4951                           ;main.c: 499:     getSequenceStepEnables(dev, &en);
  4952     0532  30AB               	movlw	(low (setMeasurementTimingBudget@en| 0))& (0+255)
  4953     0533  0020               	movlb	0	; select bank0
  4954     0534  00A4               	movwf	getSequenceStepEnables@en
  4955     0535  0021               	movlb	1	; select bank1
  4956     0536  082A               	movf	setMeasurementTimingBudget@dev^(0+128),w
  4957     0537  3189  21F8  3185   	fcall	_getSequenceStepEnables
  4958     053A                     l2674:
  4959                           
  4960                           ;main.c: 500:     getSequenceStepTimeouts(dev, &en, &to);
  4961     053A  30AB               	movlw	(low (setMeasurementTimingBudget@en| 0))& (0+255)
  4962     053B  0020               	movlb	0	; select bank0
  4963     053C  00BD               	movwf	getSequenceStepTimeouts@en
  4964     053D  30B0               	movlw	(low (setMeasurementTimingBudget@to| 0))& (0+255)
  4965     053E  00BE               	movwf	getSequenceStepTimeouts@to
  4966     053F  0021               	movlb	1	; select bank1
  4967     0540  082A               	movf	setMeasurementTimingBudget@dev^(0+128),w
  4968     0541  318E  2648  3185   	fcall	_getSequenceStepTimeouts
  4969     0544                     l2676:
  4970                           
  4971                           ;main.c: 502:     if (en.tcc) used += (to.msrc_dss_tcc_us + 590);
  4972     0544  0021               	movlb	1	; select bank1
  4973     0545  082B               	movf	setMeasurementTimingBudget@en^(0+128),w
  4974     0546  1903               	btfsc	3,2
  4975     0547  2D49               	goto	u2781
  4976     0548  2D4A               	goto	u2780
  4977     0549                     u2781:
  4978     0549  2D6E               	goto	l2680
  4979     054A                     u2780:
  4980     054A                     l2678:
  4981     054A  304E               	movlw	78
  4982     054B  0020               	movlb	0	; select bank0
  4983     054C  00C6               	movwf	??_setMeasurementTimingBudget
  4984     054D  3002               	movlw	2
  4985     054E  00C7               	movwf	??_setMeasurementTimingBudget+1
  4986     054F  3000               	movlw	0
  4987     0550  00C8               	movwf	??_setMeasurementTimingBudget+2
  4988     0551  3000               	movlw	0
  4989     0552  00C9               	movwf	??_setMeasurementTimingBudget+3
  4990     0553  300A               	movlw	10
  4991     0554  3EB0               	addlw	(low (setMeasurementTimingBudget@to| 0))& (0+255)
  4992     0555  0086               	movwf	6
  4993     0556  0187               	clrf	7
  4994     0557  3F40               	moviw [0]fsr1
  4995     0558  07C6               	addwf	??_setMeasurementTimingBudget,f
  4996     0559  3F41               	moviw [1]fsr1
  4997     055A  3DC7               	addwfc	??_setMeasurementTimingBudget+1,f
  4998     055B  3F42               	moviw [2]fsr1
  4999     055C  3DC8               	addwfc	??_setMeasurementTimingBudget+2,f
  5000     055D  3F43               	moviw [3]fsr1
  5001     055E  3DC9               	addwfc	??_setMeasurementTimingBudget+3,f
  5002     055F  0846               	movf	??_setMeasurementTimingBudget,w
  5003     0560  0021               	movlb	1	; select bank1
  5004     0561  07A6               	addwf	setMeasurementTimingBudget@used^(0+128),f
  5005     0562  0020               	movlb	0	; select bank0
  5006     0563  0847               	movf	??_setMeasurementTimingBudget+1,w
  5007     0564  0021               	movlb	1	; select bank1
  5008     0565  3DA7               	addwfc	(setMeasurementTimingBudget@used+1)^(0+128),f
  5009     0566  0020               	movlb	0	; select bank0
  5010     0567  0848               	movf	??_setMeasurementTimingBudget+2,w
  5011     0568  0021               	movlb	1	; select bank1
  5012     0569  3DA8               	addwfc	(setMeasurementTimingBudget@used+2)^(0+128),f
  5013     056A  0020               	movlb	0	; select bank0
  5014     056B  0849               	movf	??_setMeasurementTimingBudget+3,w
  5015     056C  0021               	movlb	1	; select bank1
  5016     056D  3DA9               	addwfc	(setMeasurementTimingBudget@used+3)^(0+128),f
  5017     056E                     l2680:
  5018                           
  5019                           ;main.c: 503:     if (en.dss) used += 2 * (to.msrc_dss_tcc_us + 690);
  5020     056E  082D               	movf	(setMeasurementTimingBudget@en^(0+128)+2),w
  5021     056F  1903               	btfsc	3,2
  5022     0570  2D72               	goto	u2791
  5023     0571  2D73               	goto	u2790
  5024     0572                     u2791:
  5025     0572  2DAB               	goto	l2684
  5026     0573                     u2790:
  5027     0573                     l2682:
  5028     0573  3064               	movlw	100
  5029     0574  0020               	movlb	0	; select bank0
  5030     0575  00C6               	movwf	??_setMeasurementTimingBudget
  5031     0576  3005               	movlw	5
  5032     0577  00C7               	movwf	??_setMeasurementTimingBudget+1
  5033     0578  3000               	movlw	0
  5034     0579  00C8               	movwf	??_setMeasurementTimingBudget+2
  5035     057A  3000               	movlw	0
  5036     057B  00C9               	movwf	??_setMeasurementTimingBudget+3
  5037     057C  0021               	movlb	1	; select bank1
  5038     057D  083A               	movf	(setMeasurementTimingBudget@to^(0+128)+10),w
  5039     057E  0020               	movlb	0	; select bank0
  5040     057F  00CA               	movwf	??_setMeasurementTimingBudget+4
  5041     0580  0021               	movlb	1	; select bank1
  5042     0581  083B               	movf	((setMeasurementTimingBudget@to+1)^(0+128)+10),w
  5043     0582  0020               	movlb	0	; select bank0
  5044     0583  00CB               	movwf	??_setMeasurementTimingBudget+5
  5045     0584  0021               	movlb	1	; select bank1
  5046     0585  083C               	movf	((setMeasurementTimingBudget@to+2)^(0+128)+10),w
  5047     0586  0020               	movlb	0	; select bank0
  5048     0587  00CC               	movwf	??_setMeasurementTimingBudget+6
  5049     0588  0021               	movlb	1	; select bank1
  5050     0589  083D               	movf	((setMeasurementTimingBudget@to+3)^(0+128)+10),w
  5051     058A  0020               	movlb	0	; select bank0
  5052     058B  00CD               	movwf	??_setMeasurementTimingBudget+7
  5053     058C  3001               	movlw	1
  5054     058D                     u2805:
  5055     058D  35CA               	lslf	??_setMeasurementTimingBudget+4,f
  5056     058E  0DCB               	rlf	??_setMeasurementTimingBudget+5,f
  5057     058F  0DCC               	rlf	??_setMeasurementTimingBudget+6,f
  5058     0590  0DCD               	rlf	??_setMeasurementTimingBudget+7,f
  5059     0591                     u2800:
  5060     0591  0B89               	decfsz	9,f
  5061     0592  2D8D               	goto	u2805
  5062     0593  084A               	movf	??_setMeasurementTimingBudget+4,w
  5063     0594  07C6               	addwf	??_setMeasurementTimingBudget,f
  5064     0595  084B               	movf	??_setMeasurementTimingBudget+5,w
  5065     0596  3DC7               	addwfc	??_setMeasurementTimingBudget+1,f
  5066     0597  084C               	movf	??_setMeasurementTimingBudget+6,w
  5067     0598  3DC8               	addwfc	??_setMeasurementTimingBudget+2,f
  5068     0599  084D               	movf	??_setMeasurementTimingBudget+7,w
  5069     059A  3DC9               	addwfc	??_setMeasurementTimingBudget+3,f
  5070     059B  0846               	movf	??_setMeasurementTimingBudget,w
  5071     059C  0021               	movlb	1	; select bank1
  5072     059D  07A6               	addwf	setMeasurementTimingBudget@used^(0+128),f
  5073     059E  0020               	movlb	0	; select bank0
  5074     059F  0847               	movf	??_setMeasurementTimingBudget+1,w
  5075     05A0  0021               	movlb	1	; select bank1
  5076     05A1  3DA7               	addwfc	(setMeasurementTimingBudget@used+1)^(0+128),f
  5077     05A2  0020               	movlb	0	; select bank0
  5078     05A3  0848               	movf	??_setMeasurementTimingBudget+2,w
  5079     05A4  0021               	movlb	1	; select bank1
  5080     05A5  3DA8               	addwfc	(setMeasurementTimingBudget@used+2)^(0+128),f
  5081     05A6  0020               	movlb	0	; select bank0
  5082     05A7  0849               	movf	??_setMeasurementTimingBudget+3,w
  5083     05A8  0021               	movlb	1	; select bank1
  5084     05A9  3DA9               	addwfc	(setMeasurementTimingBudget@used+3)^(0+128),f
  5085     05AA  2DD4               	goto	l2688
  5086     05AB                     l2684:
  5087     05AB  082C               	movf	(setMeasurementTimingBudget@en^(0+128)+1),w
  5088     05AC  1903               	btfsc	3,2
  5089     05AD  2DAF               	goto	u2811
  5090     05AE  2DB0               	goto	u2810
  5091     05AF                     u2811:
  5092     05AF  2DD4               	goto	l2688
  5093     05B0                     u2810:
  5094     05B0                     l2686:
  5095     05B0  3094               	movlw	148
  5096     05B1  0020               	movlb	0	; select bank0
  5097     05B2  00C6               	movwf	??_setMeasurementTimingBudget
  5098     05B3  3002               	movlw	2
  5099     05B4  00C7               	movwf	??_setMeasurementTimingBudget+1
  5100     05B5  3000               	movlw	0
  5101     05B6  00C8               	movwf	??_setMeasurementTimingBudget+2
  5102     05B7  3000               	movlw	0
  5103     05B8  00C9               	movwf	??_setMeasurementTimingBudget+3
  5104     05B9  300A               	movlw	10
  5105     05BA  3EB0               	addlw	(low (setMeasurementTimingBudget@to| 0))& (0+255)
  5106     05BB  0086               	movwf	6
  5107     05BC  0187               	clrf	7
  5108     05BD  3F40               	moviw [0]fsr1
  5109     05BE  07C6               	addwf	??_setMeasurementTimingBudget,f
  5110     05BF  3F41               	moviw [1]fsr1
  5111     05C0  3DC7               	addwfc	??_setMeasurementTimingBudget+1,f
  5112     05C1  3F42               	moviw [2]fsr1
  5113     05C2  3DC8               	addwfc	??_setMeasurementTimingBudget+2,f
  5114     05C3  3F43               	moviw [3]fsr1
  5115     05C4  3DC9               	addwfc	??_setMeasurementTimingBudget+3,f
  5116     05C5  0846               	movf	??_setMeasurementTimingBudget,w
  5117     05C6  0021               	movlb	1	; select bank1
  5118     05C7  07A6               	addwf	setMeasurementTimingBudget@used^(0+128),f
  5119     05C8  0020               	movlb	0	; select bank0
  5120     05C9  0847               	movf	??_setMeasurementTimingBudget+1,w
  5121     05CA  0021               	movlb	1	; select bank1
  5122     05CB  3DA7               	addwfc	(setMeasurementTimingBudget@used+1)^(0+128),f
  5123     05CC  0020               	movlb	0	; select bank0
  5124     05CD  0848               	movf	??_setMeasurementTimingBudget+2,w
  5125     05CE  0021               	movlb	1	; select bank1
  5126     05CF  3DA8               	addwfc	(setMeasurementTimingBudget@used+2)^(0+128),f
  5127     05D0  0020               	movlb	0	; select bank0
  5128     05D1  0849               	movf	??_setMeasurementTimingBudget+3,w
  5129     05D2  0021               	movlb	1	; select bank1
  5130     05D3  3DA9               	addwfc	(setMeasurementTimingBudget@used+3)^(0+128),f
  5131     05D4                     l2688:
  5132                           
  5133                           ;main.c: 505:     if (en.pre_range) used += (to.pre_range_us + 660);
  5134     05D4  082E               	movf	(setMeasurementTimingBudget@en^(0+128)+3),w
  5135     05D5  1903               	btfsc	3,2
  5136     05D6  2DD8               	goto	u2821
  5137     05D7  2DD9               	goto	u2820
  5138     05D8                     u2821:
  5139     05D8  2DFD               	goto	l2692
  5140     05D9                     u2820:
  5141     05D9                     l2690:
  5142     05D9  3094               	movlw	148
  5143     05DA  0020               	movlb	0	; select bank0
  5144     05DB  00C6               	movwf	??_setMeasurementTimingBudget
  5145     05DC  3002               	movlw	2
  5146     05DD  00C7               	movwf	??_setMeasurementTimingBudget+1
  5147     05DE  3000               	movlw	0
  5148     05DF  00C8               	movwf	??_setMeasurementTimingBudget+2
  5149     05E0  3000               	movlw	0
  5150     05E1  00C9               	movwf	??_setMeasurementTimingBudget+3
  5151     05E2  300E               	movlw	14
  5152     05E3  3EB0               	addlw	(low (setMeasurementTimingBudget@to| 0))& (0+255)
  5153     05E4  0086               	movwf	6
  5154     05E5  0187               	clrf	7
  5155     05E6  3F40               	moviw [0]fsr1
  5156     05E7  07C6               	addwf	??_setMeasurementTimingBudget,f
  5157     05E8  3F41               	moviw [1]fsr1
  5158     05E9  3DC7               	addwfc	??_setMeasurementTimingBudget+1,f
  5159     05EA  3F42               	moviw [2]fsr1
  5160     05EB  3DC8               	addwfc	??_setMeasurementTimingBudget+2,f
  5161     05EC  3F43               	moviw [3]fsr1
  5162     05ED  3DC9               	addwfc	??_setMeasurementTimingBudget+3,f
  5163     05EE  0846               	movf	??_setMeasurementTimingBudget,w
  5164     05EF  0021               	movlb	1	; select bank1
  5165     05F0  07A6               	addwf	setMeasurementTimingBudget@used^(0+128),f
  5166     05F1  0020               	movlb	0	; select bank0
  5167     05F2  0847               	movf	??_setMeasurementTimingBudget+1,w
  5168     05F3  0021               	movlb	1	; select bank1
  5169     05F4  3DA7               	addwfc	(setMeasurementTimingBudget@used+1)^(0+128),f
  5170     05F5  0020               	movlb	0	; select bank0
  5171     05F6  0848               	movf	??_setMeasurementTimingBudget+2,w
  5172     05F7  0021               	movlb	1	; select bank1
  5173     05F8  3DA8               	addwfc	(setMeasurementTimingBudget@used+2)^(0+128),f
  5174     05F9  0020               	movlb	0	; select bank0
  5175     05FA  0849               	movf	??_setMeasurementTimingBudget+3,w
  5176     05FB  0021               	movlb	1	; select bank1
  5177     05FC  3DA9               	addwfc	(setMeasurementTimingBudget@used+3)^(0+128),f
  5178     05FD                     l2692:
  5179                           
  5180                           ;main.c: 507:     if (en.final_range)
  5181     05FD  082F               	movf	(setMeasurementTimingBudget@en^(0+128)+4),w
  5182     05FE  1903               	btfsc	3,2
  5183     05FF  2E01               	goto	u2831
  5184     0600  2E02               	goto	u2830
  5185     0601                     u2831:
  5186     0601  2E91               	goto	l338
  5187     0602                     u2830:
  5188     0602                     l2694:
  5189                           
  5190                           ;main.c: 508:     {;main.c: 509:         used += 550;
  5191     0602  3026               	movlw	38
  5192     0603  07A6               	addwf	setMeasurementTimingBudget@used^(0+128),f
  5193     0604  3002               	movlw	2
  5194     0605  3DA7               	addwfc	(setMeasurementTimingBudget@used+1)^(0+128),f
  5195     0606  3000               	movlw	0
  5196     0607  3DA8               	addwfc	(setMeasurementTimingBudget@used+2)^(0+128),f
  5197     0608  3000               	movlw	0
  5198     0609  3DA9               	addwfc	(setMeasurementTimingBudget@used+3)^(0+128),f
  5199                           
  5200                           ;main.c: 510:         if (used > budget_us) return 0;
  5201     060A  0829               	movf	(setMeasurementTimingBudget@used+3)^(0+128),w
  5202     060B  0020               	movlb	0	; select bank0
  5203     060C  0245               	subwf	setMeasurementTimingBudget@budget_us+3,w
  5204     060D  1D03               	skipz
  5205     060E  2E1F               	goto	u2845
  5206     060F  0021               	movlb	1	; select bank1
  5207     0610  0828               	movf	(setMeasurementTimingBudget@used+2)^(0+128),w
  5208     0611  0020               	movlb	0	; select bank0
  5209     0612  0244               	subwf	setMeasurementTimingBudget@budget_us+2,w
  5210     0613  1D03               	skipz
  5211     0614  2E1F               	goto	u2845
  5212     0615  0021               	movlb	1	; select bank1
  5213     0616  0827               	movf	(setMeasurementTimingBudget@used+1)^(0+128),w
  5214     0617  0020               	movlb	0	; select bank0
  5215     0618  0243               	subwf	setMeasurementTimingBudget@budget_us+1,w
  5216     0619  1D03               	skipz
  5217     061A  2E1F               	goto	u2845
  5218     061B  0021               	movlb	1	; select bank1
  5219     061C  0826               	movf	setMeasurementTimingBudget@used^(0+128),w
  5220     061D  0020               	movlb	0	; select bank0
  5221     061E  0242               	subwf	setMeasurementTimingBudget@budget_us,w
  5222     061F                     u2845:
  5223     061F  1803               	skipnc
  5224     0620  2E22               	goto	u2841
  5225     0621  2E23               	goto	u2840
  5226     0622                     u2841:
  5227     0622  2E24               	goto	l2698
  5228     0623                     u2840:
  5229     0623  2E91               	goto	l338
  5230     0624                     l2698:
  5231                           
  5232                           ;main.c: 512:         uint32_t fr_timeout_us = budget_us - used;
  5233     0624  0021               	movlb	1	; select bank1
  5234     0625  0826               	movf	setMeasurementTimingBudget@used^(0+128),w
  5235     0626  0020               	movlb	0	; select bank0
  5236     0627  0242               	subwf	setMeasurementTimingBudget@budget_us,w
  5237     0628  00C6               	movwf	??_setMeasurementTimingBudget
  5238     0629  0021               	movlb	1	; select bank1
  5239     062A  0827               	movf	(setMeasurementTimingBudget@used+1)^(0+128),w
  5240     062B  0020               	movlb	0	; select bank0
  5241     062C  3B43               	subwfb	setMeasurementTimingBudget@budget_us+1,w
  5242     062D  00C7               	movwf	??_setMeasurementTimingBudget+1
  5243     062E  0021               	movlb	1	; select bank1
  5244     062F  0828               	movf	(setMeasurementTimingBudget@used+2)^(0+128),w
  5245     0630  0020               	movlb	0	; select bank0
  5246     0631  3B44               	subwfb	setMeasurementTimingBudget@budget_us+2,w
  5247     0632  00C8               	movwf	??_setMeasurementTimingBudget+2
  5248     0633  0021               	movlb	1	; select bank1
  5249     0634  0829               	movf	(setMeasurementTimingBudget@used+3)^(0+128),w
  5250     0635  0020               	movlb	0	; select bank0
  5251     0636  3B45               	subwfb	setMeasurementTimingBudget@budget_us+3,w
  5252     0637  00C9               	movwf	??_setMeasurementTimingBudget+3
  5253     0638  0849               	movf	??_setMeasurementTimingBudget+3,w
  5254     0639  0021               	movlb	1	; select bank1
  5255     063A  00A3               	movwf	(setMeasurementTimingBudget@fr_timeout_us+3)^(0+128)
  5256     063B  0020               	movlb	0	; select bank0
  5257     063C  0848               	movf	??_setMeasurementTimingBudget+2,w
  5258     063D  0021               	movlb	1	; select bank1
  5259     063E  00A2               	movwf	(setMeasurementTimingBudget@fr_timeout_us+2)^(0+128)
  5260     063F  0020               	movlb	0	; select bank0
  5261     0640  0847               	movf	??_setMeasurementTimingBudget+1,w
  5262     0641  0021               	movlb	1	; select bank1
  5263     0642  00A1               	movwf	(setMeasurementTimingBudget@fr_timeout_us+1)^(0+128)
  5264     0643  0020               	movlb	0	; select bank0
  5265     0644  0846               	movf	??_setMeasurementTimingBudget,w
  5266     0645  0021               	movlb	1	; select bank1
  5267     0646  00A0               	movwf	setMeasurementTimingBudget@fr_timeout_us^(0+128)
  5268     0647                     l2700:
  5269                           
  5270                           ;main.c: 513:         uint16_t fr_timeout_mclks = timeoutUsToMclks(fr_timeout_us, to.fin
      +                          al_range_vcsel_period_pclks);
  5271     0647  0823               	movf	(setMeasurementTimingBudget@fr_timeout_us+3)^(0+128),w
  5272     0648  0020               	movlb	0	; select bank0
  5273     0649  00B0               	movwf	timeoutUsToMclks@us+3
  5274     064A  0021               	movlb	1	; select bank1
  5275     064B  0822               	movf	(setMeasurementTimingBudget@fr_timeout_us+2)^(0+128),w
  5276     064C  0020               	movlb	0	; select bank0
  5277     064D  00AF               	movwf	timeoutUsToMclks@us+2
  5278     064E  0021               	movlb	1	; select bank1
  5279     064F  0821               	movf	(setMeasurementTimingBudget@fr_timeout_us+1)^(0+128),w
  5280     0650  0020               	movlb	0	; select bank0
  5281     0651  00AE               	movwf	timeoutUsToMclks@us+1
  5282     0652  0021               	movlb	1	; select bank1
  5283     0653  0820               	movf	setMeasurementTimingBudget@fr_timeout_us^(0+128),w
  5284     0654  0020               	movlb	0	; select bank0
  5285     0655  00AD               	movwf	timeoutUsToMclks@us
  5286     0656  0021               	movlb	1	; select bank1
  5287     0657  0832               	movf	(setMeasurementTimingBudget@to^(0+128)+2),w
  5288     0658  0020               	movlb	0	; select bank0
  5289     0659  00B1               	movwf	timeoutUsToMclks@vcsel_pclks
  5290     065A  318B  2341  3185   	fcall	_timeoutUsToMclks
  5291     065D  0020               	movlb	0	; select bank0
  5292     065E  082E               	movf	?_timeoutUsToMclks+1,w
  5293     065F  0021               	movlb	1	; select bank1
  5294     0660  00A5               	movwf	(setMeasurementTimingBudget@fr_timeout_mclks+1)^(0+128)
  5295     0661  0020               	movlb	0	; select bank0
  5296     0662  082D               	movf	?_timeoutUsToMclks,w
  5297     0663  0021               	movlb	1	; select bank1
  5298     0664  00A4               	movwf	setMeasurementTimingBudget@fr_timeout_mclks^(0+128)
  5299     0665                     l2702:
  5300                           
  5301                           ;main.c: 514:         if (en.pre_range) fr_timeout_mclks += to.pre_range_mclks;
  5302     0665  082E               	movf	(setMeasurementTimingBudget@en^(0+128)+3),w
  5303     0666  1903               	btfsc	3,2
  5304     0667  2E69               	goto	u2851
  5305     0668  2E6A               	goto	u2850
  5306     0669                     u2851:
  5307     0669  2E6E               	goto	l2706
  5308     066A                     u2850:
  5309     066A                     l2704:
  5310     066A  0836               	movf	(setMeasurementTimingBudget@to^(0+128)+6),w
  5311     066B  07A4               	addwf	setMeasurementTimingBudget@fr_timeout_mclks^(0+128),f
  5312     066C  0837               	movf	((setMeasurementTimingBudget@to+1)^(0+128)+6),w
  5313     066D  3DA5               	addwfc	(setMeasurementTimingBudget@fr_timeout_mclks+1)^(0+128),f
  5314     066E                     l2706:
  5315                           
  5316                           ;main.c: 516:         writeReg16(dev, 0x71, encodeTimeout(fr_timeout_mclks));
  5317     066E  3071               	movlw	113
  5318     066F  0020               	movlb	0	; select bank0
  5319     0670  00A0               	movwf	writeReg16@reg
  5320     0671  0021               	movlb	1	; select bank1
  5321     0672  0825               	movf	(setMeasurementTimingBudget@fr_timeout_mclks+1)^(0+128),w
  5322     0673  00F1               	movwf	encodeTimeout@timeout_mclks+1
  5323     0674  0824               	movf	setMeasurementTimingBudget@fr_timeout_mclks^(0+128),w
  5324     0675  00F0               	movwf	encodeTimeout@timeout_mclks
  5325     0676  3197  272E  3185   	fcall	_encodeTimeout
  5326     0679  0871               	movf	?_encodeTimeout+1,w
  5327     067A  0020               	movlb	0	; select bank0
  5328     067B  00A2               	movwf	writeReg16@value+1
  5329     067C  0870               	movf	?_encodeTimeout,w
  5330     067D  00A1               	movwf	writeReg16@value
  5331     067E  0021               	movlb	1	; select bank1
  5332     067F  082A               	movf	setMeasurementTimingBudget@dev^(0+128),w
  5333     0680  3194  24DA  3185   	fcall	_writeReg16
  5334     0683                     l2708:
  5335                           
  5336                           ;main.c: 517:         dev->measurement_timing_budget_us = budget_us;
  5337     0683  0021               	movlb	1	; select bank1
  5338     0684  082A               	movf	setMeasurementTimingBudget@dev^(0+128),w
  5339     0685  3E0C               	addlw	12
  5340     0686  0086               	movwf	6
  5341     0687  0187               	clrf	7
  5342     0688  0020               	movlb	0	; select bank0
  5343     0689  0842               	movf	setMeasurementTimingBudget@budget_us,w
  5344     068A  3FC0               	movwi [0]fsr1
  5345     068B  0843               	movf	setMeasurementTimingBudget@budget_us+1,w
  5346     068C  3FC1               	movwi [1]fsr1
  5347     068D  0844               	movf	setMeasurementTimingBudget@budget_us+2,w
  5348     068E  3FC2               	movwi [2]fsr1
  5349     068F  0845               	movf	setMeasurementTimingBudget@budget_us+3,w
  5350     0690  3FC3               	movwi [3]fsr1
  5351     0691                     l338:
  5352     0691  0008               	return
  5353     0692                     __end_of_setMeasurementTimingBudget:
  5354                           
  5355                           	psect	text10
  5356     14DA                     __ptext10:	
  5357 ;; *************** function _writeReg16 *****************
  5358 ;; Defined at:
  5359 ;;		line 249 in file "main.c"
  5360 ;; Parameters:    Size  Location     Type
  5361 ;;  dev             1    wreg     PTR struct .
  5362 ;;		 -> main@sensor(16), 
  5363 ;;  reg             1    0[BANK0 ] unsigned char 
  5364 ;;  value           2    1[BANK0 ] unsigned short 
  5365 ;; Auto vars:     Size  Location     Type
  5366 ;;  dev             1    5[BANK0 ] PTR struct .
  5367 ;;		 -> main@sensor(16), 
  5368 ;;  buf             2    3[BANK0 ] unsigned char [2]
  5369 ;; Return value:  Size  Location     Type
  5370 ;;                  1    wreg      void 
  5371 ;; Registers used:
  5372 ;;		wreg, fsr1l, fsr1h, status,2, status,0, pclath, cstack
  5373 ;; Tracked objects:
  5374 ;;		On entry : 0/0
  5375 ;;		On exit  : 0/0
  5376 ;;		Unchanged: 0/0
  5377 ;; Data sizes:     COMMON   BANK0   BANK1   BANK2   BANK3   BANK4   BANK5   BANK6   BANK7   BANK8   BANK9  BANK10  BANK1
      +1  BANK12  BANK13  BANK14  BANK15  BANK16  BANK17  BANK18  BANK19  BANK20  BANK21  BANK22  BANK23  BANK24  BANK25
  5378 ;;      Params:         0       3       0       0       0       0       0       0       0       0       0       0       
      +0       0       0       0       0       0       0       0       0       0       0       0       0       0       0
  5379 ;;      Locals:         0       3       0       0       0       0       0       0       0       0       0       0       
      +0       0       0       0       0       0       0       0       0       0       0       0       0       0       0
  5380 ;;      Temps:          1       0       0       0       0       0       0       0       0       0       0       0       
      +0       0       0       0       0       0       0       0       0       0       0       0       0       0       0
  5381 ;;      Totals:         1       6       0       0       0       0       0       0       0       0       0       0       
      +0       0       0       0       0       0       0       0       0       0       0       0       0       0       0
  5382 ;;Total ram usage:        7 bytes
  5383 ;; Hardware stack levels used: 1
  5384 ;; Hardware stack levels required when called: 4
  5385 ;; This function calls:
  5386 ;;		_tof_i2c_write
  5387 ;; This function is called by:
  5388 ;;		_VL53L0X_Init
  5389 ;;		_setMeasurementTimingBudget
  5390 ;;		_setVcselPulsePeriod
  5391 ;; This function uses a non-reentrant model
  5392 ;;
  5393                           
  5394     14DA                     _writeReg16:	
  5395                           ;psect for function _writeReg16
  5396                           
  5397                           
  5398                           ;incstack = 0
  5399                           ; Regs used in _writeReg16: [wreg+fsr1l+fsr1h+status,2+status,0+pclath+cstack]
  5400                           ;writeReg16@dev stored from wreg
  5401     14DA  0020               	movlb	0	; select bank0
  5402     14DB  00A5               	movwf	writeReg16@dev
  5403     14DC                     l2404:
  5404                           
  5405                           ;main.c: 249: static void writeReg16(VL53L0X_Dev_t *dev, uint8_t reg, uint16_t value);ma
      +                          in.c: 250: {;main.c: 251:     uint8_t buf[2];;main.c: 252:     buf[0] = (uint8_t)(value 
      +                          >> 8);
  5406     14DC  0822               	movf	writeReg16@value+1,w
  5407     14DD  00A3               	movwf	writeReg16@buf
  5408     14DE                     l2406:
  5409                           
  5410                           ;main.c: 253:     buf[1] = (uint8_t)(value & 0xFF);
  5411     14DE  0821               	movf	writeReg16@value,w
  5412     14DF  00A4               	movwf	writeReg16@buf+1
  5413     14E0                     l2408:
  5414                           
  5415                           ;main.c: 254:     dev->last_status = tof_i2c_write(dev->address, reg, buf, 2);
  5416     14E0  0820               	movf	writeReg16@reg,w
  5417     14E1  00F5               	movwf	tof_i2c_write@reg
  5418     14E2  3023               	movlw	(low (writeReg16@buf| 0))& (0+255)
  5419     14E3  00F6               	movwf	tof_i2c_write@src
  5420     14E4  3002               	movlw	2
  5421     14E5  00F7               	movwf	tof_i2c_write@len
  5422     14E6  0825               	movf	writeReg16@dev,w
  5423     14E7  0086               	movwf	6
  5424     14E8  0187               	clrf	7
  5425     14E9  0801               	movf	1,w
  5426     14EA  3197  27B4  3194   	fcall	_tof_i2c_write
  5427     14ED  00FC               	movwf	??_writeReg16
  5428     14EE  0020               	movlb	0	; select bank0
  5429     14EF  0825               	movf	writeReg16@dev,w
  5430     14F0  3E02               	addlw	2
  5431     14F1  0086               	movwf	6
  5432     14F2  0187               	clrf	7
  5433     14F3  087C               	movf	??_writeReg16,w
  5434     14F4  0081               	movwf	1
  5435     14F5                     l287:
  5436     14F5  0008               	return
  5437     14F6                     __end_of_writeReg16:
  5438                           
  5439                           	psect	text11
  5440     0B41                     __ptext11:	
  5441 ;; *************** function _timeoutUsToMclks *****************
  5442 ;; Defined at:
  5443 ;;		line 823 in file "main.c"
  5444 ;; Parameters:    Size  Location     Type
  5445 ;;  us              4   13[BANK0 ] unsigned long 
  5446 ;;  vcsel_pclks     1   17[BANK0 ] unsigned char 
  5447 ;; Auto vars:     Size  Location     Type
  5448 ;;  macro_ns        4   26[BANK0 ] unsigned long 
  5449 ;; Return value:  Size  Location     Type
  5450 ;;                  4   13[BANK0 ] unsigned long 
  5451 ;; Registers used:
  5452 ;;		wreg, status,2, status,0, pclath, cstack
  5453 ;; Tracked objects:
  5454 ;;		On entry : 0/0
  5455 ;;		On exit  : 0/0
  5456 ;;		Unchanged: 0/0
  5457 ;; Data sizes:     COMMON   BANK0   BANK1   BANK2   BANK3   BANK4   BANK5   BANK6   BANK7   BANK8   BANK9  BANK10  BANK1
      +1  BANK12  BANK13  BANK14  BANK15  BANK16  BANK17  BANK18  BANK19  BANK20  BANK21  BANK22  BANK23  BANK24  BANK25
  5458 ;;      Params:         0       5       0       0       0       0       0       0       0       0       0       0       
      +0       0       0       0       0       0       0       0       0       0       0       0       0       0       0
  5459 ;;      Locals:         0       4       0       0       0       0       0       0       0       0       0       0       
      +0       0       0       0       0       0       0       0       0       0       0       0       0       0       0
  5460 ;;      Temps:          0       8       0       0       0       0       0       0       0       0       0       0       
      +0       0       0       0       0       0       0       0       0       0       0       0       0       0       0
  5461 ;;      Totals:         0      17       0       0       0       0       0       0       0       0       0       0       
      +0       0       0       0       0       0       0       0       0       0       0       0       0       0       0
  5462 ;;Total ram usage:       17 bytes
  5463 ;; Hardware stack levels used: 1
  5464 ;; Hardware stack levels required when called: 2
  5465 ;; This function calls:
  5466 ;;		___lldiv
  5467 ;;		___lmul
  5468 ;; This function is called by:
  5469 ;;		_setMeasurementTimingBudget
  5470 ;;		_setVcselPulsePeriod
  5471 ;; This function uses a non-reentrant model
  5472 ;;
  5473                           
  5474     0B41                     _timeoutUsToMclks:	
  5475                           ;psect for function _timeoutUsToMclks
  5476                           
  5477     0B41                     l2444:	
  5478                           ;incstack = 0
  5479                           ; Regs used in _timeoutUsToMclks: [wreg+status,2+status,0+pclath+cstack]
  5480                           
  5481                           
  5482                           ;main.c: 823: static uint32_t timeoutUsToMclks(uint32_t us, uint8_t vcsel_pclks);main.c:
      +                           824: {;main.c: 825:     uint32_t macro_ns = ((((uint32_t)2304 * (vcsel_pclks) * 1655) +
      +                           500) / 1000);
  5483     0B41  3000               	movlw	0
  5484     0B42  0020               	movlb	0	; select bank0
  5485     0B43  00A3               	movwf	___lldiv@divisor+3
  5486     0B44  3000               	movlw	0
  5487     0B45  00A2               	movwf	___lldiv@divisor+2
  5488     0B46  3003               	movlw	3
  5489     0B47  00A1               	movwf	___lldiv@divisor+1
  5490     0B48  30E8               	movlw	232
  5491     0B49  00A0               	movwf	___lldiv@divisor
  5492     0B4A  30F4               	movlw	244
  5493     0B4B  00B2               	movwf	??_timeoutUsToMclks
  5494     0B4C  3001               	movlw	1
  5495     0B4D  00B3               	movwf	??_timeoutUsToMclks+1
  5496     0B4E  3000               	movlw	0
  5497     0B4F  00B4               	movwf	??_timeoutUsToMclks+2
  5498     0B50  3000               	movlw	0
  5499     0B51  00B5               	movwf	??_timeoutUsToMclks+3
  5500     0B52  0831               	movf	timeoutUsToMclks@vcsel_pclks,w
  5501     0B53  00B6               	movwf	??_timeoutUsToMclks+4
  5502     0B54  01B7               	clrf	??_timeoutUsToMclks+5
  5503     0B55  01B8               	clrf	??_timeoutUsToMclks+6
  5504     0B56  01B9               	clrf	??_timeoutUsToMclks+7
  5505     0B57  0839               	movf	??_timeoutUsToMclks+7,w
  5506     0B58  00F3               	movwf	___lmul@multiplier+3
  5507     0B59  0838               	movf	??_timeoutUsToMclks+6,w
  5508     0B5A  00F2               	movwf	___lmul@multiplier+2
  5509     0B5B  0837               	movf	??_timeoutUsToMclks+5,w
  5510     0B5C  00F1               	movwf	___lmul@multiplier+1
  5511     0B5D  0836               	movf	??_timeoutUsToMclks+4,w
  5512     0B5E  00F0               	movwf	___lmul@multiplier
  5513     0B5F  3000               	movlw	0
  5514     0B60  00F7               	movwf	___lmul@multiplicand+3
  5515     0B61  303A               	movlw	58
  5516     0B62  00F6               	movwf	___lmul@multiplicand+2
  5517     0B63  302F               	movlw	47
  5518     0B64  00F5               	movwf	___lmul@multiplicand+1
  5519     0B65  3000               	movlw	0
  5520     0B66  00F4               	movwf	___lmul@multiplicand
  5521     0B67  3196  2680  318B   	fcall	___lmul
  5522     0B6A  0870               	movf	?___lmul,w
  5523     0B6B  0020               	movlb	0	; select bank0
  5524     0B6C  07B2               	addwf	??_timeoutUsToMclks,f
  5525     0B6D  0871               	movf	?___lmul+1,w
  5526     0B6E  3DB3               	addwfc	??_timeoutUsToMclks+1,f
  5527     0B6F  0872               	movf	?___lmul+2,w
  5528     0B70  3DB4               	addwfc	??_timeoutUsToMclks+2,f
  5529     0B71  0873               	movf	?___lmul+3,w
  5530     0B72  3DB5               	addwfc	??_timeoutUsToMclks+3,f
  5531     0B73  0835               	movf	??_timeoutUsToMclks+3,w
  5532     0B74  00A7               	movwf	___lldiv@dividend+3
  5533     0B75  0834               	movf	??_timeoutUsToMclks+2,w
  5534     0B76  00A6               	movwf	___lldiv@dividend+2
  5535     0B77  0833               	movf	??_timeoutUsToMclks+1,w
  5536     0B78  00A5               	movwf	___lldiv@dividend+1
  5537     0B79  0832               	movf	??_timeoutUsToMclks,w
  5538     0B7A  00A4               	movwf	___lldiv@dividend
  5539     0B7B  3189  219D  318B   	fcall	___lldiv
  5540     0B7E  0020               	movlb	0	; select bank0
  5541     0B7F  0823               	movf	?___lldiv+3,w
  5542     0B80  00BD               	movwf	timeoutUsToMclks@macro_ns+3
  5543     0B81  0822               	movf	?___lldiv+2,w
  5544     0B82  00BC               	movwf	timeoutUsToMclks@macro_ns+2
  5545     0B83  0821               	movf	?___lldiv+1,w
  5546     0B84  00BB               	movwf	timeoutUsToMclks@macro_ns+1
  5547     0B85  0820               	movf	?___lldiv,w
  5548     0B86  00BA               	movwf	timeoutUsToMclks@macro_ns
  5549                           
  5550                           ;main.c: 826:     return (((us * 1000) + (macro_ns / 2)) / macro_ns);
  5551     0B87  083D               	movf	timeoutUsToMclks@macro_ns+3,w
  5552     0B88  00A3               	movwf	___lldiv@divisor+3
  5553     0B89  083C               	movf	timeoutUsToMclks@macro_ns+2,w
  5554     0B8A  00A2               	movwf	___lldiv@divisor+2
  5555     0B8B  083B               	movf	timeoutUsToMclks@macro_ns+1,w
  5556     0B8C  00A1               	movwf	___lldiv@divisor+1
  5557     0B8D  083A               	movf	timeoutUsToMclks@macro_ns,w
  5558     0B8E  00A0               	movwf	___lldiv@divisor
  5559     0B8F  083A               	movf	timeoutUsToMclks@macro_ns,w
  5560     0B90  00B2               	movwf	??_timeoutUsToMclks
  5561     0B91  083B               	movf	timeoutUsToMclks@macro_ns+1,w
  5562     0B92  00B3               	movwf	??_timeoutUsToMclks+1
  5563     0B93  083C               	movf	timeoutUsToMclks@macro_ns+2,w
  5564     0B94  00B4               	movwf	??_timeoutUsToMclks+2
  5565     0B95  083D               	movf	timeoutUsToMclks@macro_ns+3,w
  5566     0B96  00B5               	movwf	??_timeoutUsToMclks+3
  5567     0B97  3001               	movlw	1
  5568     0B98                     u2325:
  5569     0B98  36B5               	lsrf	??_timeoutUsToMclks+3,f
  5570     0B99  0CB4               	rrf	??_timeoutUsToMclks+2,f
  5571     0B9A  0CB3               	rrf	??_timeoutUsToMclks+1,f
  5572     0B9B  0CB2               	rrf	??_timeoutUsToMclks,f
  5573     0B9C                     u2320:
  5574     0B9C  0B89               	decfsz	9,f
  5575     0B9D  2B98               	goto	u2325
  5576     0B9E  0830               	movf	timeoutUsToMclks@us+3,w
  5577     0B9F  00F3               	movwf	___lmul@multiplier+3
  5578     0BA0  082F               	movf	timeoutUsToMclks@us+2,w
  5579     0BA1  00F2               	movwf	___lmul@multiplier+2
  5580     0BA2  082E               	movf	timeoutUsToMclks@us+1,w
  5581     0BA3  00F1               	movwf	___lmul@multiplier+1
  5582     0BA4  082D               	movf	timeoutUsToMclks@us,w
  5583     0BA5  00F0               	movwf	___lmul@multiplier
  5584     0BA6  3000               	movlw	0
  5585     0BA7  00F7               	movwf	___lmul@multiplicand+3
  5586     0BA8  3000               	movlw	0
  5587     0BA9  00F6               	movwf	___lmul@multiplicand+2
  5588     0BAA  3003               	movlw	3
  5589     0BAB  00F5               	movwf	___lmul@multiplicand+1
  5590     0BAC  30E8               	movlw	232
  5591     0BAD  00F4               	movwf	___lmul@multiplicand
  5592     0BAE  3196  2680  318B   	fcall	___lmul
  5593     0BB1  0870               	movf	?___lmul,w
  5594     0BB2  0020               	movlb	0	; select bank0
  5595     0BB3  07B2               	addwf	??_timeoutUsToMclks,f
  5596     0BB4  0871               	movf	?___lmul+1,w
  5597     0BB5  3DB3               	addwfc	??_timeoutUsToMclks+1,f
  5598     0BB6  0872               	movf	?___lmul+2,w
  5599     0BB7  3DB4               	addwfc	??_timeoutUsToMclks+2,f
  5600     0BB8  0873               	movf	?___lmul+3,w
  5601     0BB9  3DB5               	addwfc	??_timeoutUsToMclks+3,f
  5602     0BBA  0835               	movf	??_timeoutUsToMclks+3,w
  5603     0BBB  00A7               	movwf	___lldiv@dividend+3
  5604     0BBC  0834               	movf	??_timeoutUsToMclks+2,w
  5605     0BBD  00A6               	movwf	___lldiv@dividend+2
  5606     0BBE  0833               	movf	??_timeoutUsToMclks+1,w
  5607     0BBF  00A5               	movwf	___lldiv@dividend+1
  5608     0BC0  0832               	movf	??_timeoutUsToMclks,w
  5609     0BC1  00A4               	movwf	___lldiv@dividend
  5610     0BC2  3189  219D  318B   	fcall	___lldiv
  5611     0BC5  0020               	movlb	0	; select bank0
  5612     0BC6  0823               	movf	?___lldiv+3,w
  5613     0BC7  00B0               	movwf	?_timeoutUsToMclks+3
  5614     0BC8  0822               	movf	?___lldiv+2,w
  5615     0BC9  00AF               	movwf	?_timeoutUsToMclks+2
  5616     0BCA  0821               	movf	?___lldiv+1,w
  5617     0BCB  00AE               	movwf	?_timeoutUsToMclks+1
  5618     0BCC  0820               	movf	?___lldiv,w
  5619     0BCD  00AD               	movwf	?_timeoutUsToMclks
  5620     0BCE                     l443:
  5621     0BCE  0008               	return
  5622     0BCF                     __end_of_timeoutUsToMclks:
  5623                           
  5624                           	psect	text12
  5625     172E                     __ptext12:	
  5626 ;; *************** function _encodeTimeout *****************
  5627 ;; Defined at:
  5628 ;;		line 800 in file "main.c"
  5629 ;; Parameters:    Size  Location     Type
  5630 ;;  timeout_mclk    2    0[COMMON] unsigned short 
  5631 ;; Auto vars:     Size  Location     Type
  5632 ;;  ls_byte         4    8[COMMON] unsigned long 
  5633 ;;  ms_byte         2    6[COMMON] unsigned short 
  5634 ;; Return value:  Size  Location     Type
  5635 ;;                  2    0[COMMON] unsigned short 
  5636 ;; Registers used:
  5637 ;;		wreg, status,2, status,0
  5638 ;; Tracked objects:
  5639 ;;		On entry : 0/0
  5640 ;;		On exit  : 0/0
  5641 ;;		Unchanged: 0/0
  5642 ;; Data sizes:     COMMON   BANK0   BANK1   BANK2   BANK3   BANK4   BANK5   BANK6   BANK7   BANK8   BANK9  BANK10  BANK1
      +1  BANK12  BANK13  BANK14  BANK15  BANK16  BANK17  BANK18  BANK19  BANK20  BANK21  BANK22  BANK23  BANK24  BANK25
  5643 ;;      Params:         2       0       0       0       0       0       0       0       0       0       0       0       
      +0       0       0       0       0       0       0       0       0       0       0       0       0       0       0
  5644 ;;      Locals:         6       0       0       0       0       0       0       0       0       0       0       0       
      +0       0       0       0       0       0       0       0       0       0       0       0       0       0       0
  5645 ;;      Temps:          4       0       0       0       0       0       0       0       0       0       0       0       
      +0       0       0       0       0       0       0       0       0       0       0       0       0       0       0
  5646 ;;      Totals:        12       0       0       0       0       0       0       0       0       0       0       0       
      +0       0       0       0       0       0       0       0       0       0       0       0       0       0       0
  5647 ;;Total ram usage:       12 bytes
  5648 ;; Hardware stack levels used: 1
  5649 ;; Hardware stack levels required when called: 1
  5650 ;; This function calls:
  5651 ;;		Nothing
  5652 ;; This function is called by:
  5653 ;;		_setMeasurementTimingBudget
  5654 ;;		_setVcselPulsePeriod
  5655 ;; This function uses a non-reentrant model
  5656 ;;
  5657                           
  5658     172E                     _encodeTimeout:	
  5659                           ;psect for function _encodeTimeout
  5660                           
  5661     172E                     l2448:	
  5662                           ;incstack = 0
  5663                           ; Regs used in _encodeTimeout: [wreg+status,2+status,0]
  5664                           
  5665     172E                     l2450:
  5666                           
  5667                           ;main.c: 803:     uint16_t ms_byte = 0;
  5668     172E  01F6               	clrf	encodeTimeout@ms_byte
  5669     172F  01F7               	clrf	encodeTimeout@ms_byte+1
  5670     1730                     l2452:
  5671                           
  5672                           ;main.c: 804:     if (timeout_mclks > 0)
  5673     1730  0870               	movf	encodeTimeout@timeout_mclks,w
  5674     1731  0471               	iorwf	encodeTimeout@timeout_mclks+1,w
  5675     1732  1903               	btfsc	3,2
  5676     1733  2F35               	goto	u2331
  5677     1734  2F36               	goto	u2330
  5678     1735                     u2331:
  5679     1735  2F6E               	goto	l2466
  5680     1736                     u2330:
  5681     1736                     l2454:
  5682                           
  5683                           ;main.c: 805:     {;main.c: 806:         ls_byte = timeout_mclks - 1;
  5684     1736  0870               	movf	encodeTimeout@timeout_mclks,w
  5685     1737  3EFF               	addlw	255
  5686     1738  00F8               	movwf	encodeTimeout@ls_byte
  5687     1739  30FF               	movlw	255
  5688     173A  3D71               	addwfc	encodeTimeout@timeout_mclks+1,w
  5689     173B  00F9               	movwf	encodeTimeout@ls_byte+1
  5690     173C  01FA               	clrf	encodeTimeout@ls_byte+2
  5691     173D  01FB               	clrf	encodeTimeout@ls_byte+3
  5692                           
  5693                           ;main.c: 807:         while ((ls_byte & 0xFFFFFF00) > 0)
  5694     173E  2F4A               	goto	l2460
  5695     173F                     l2456:
  5696                           
  5697                           ;main.c: 808:         {;main.c: 809:             ls_byte >>= 1;
  5698     173F  3001               	movlw	1
  5699     1740                     u2345:
  5700     1740  36FB               	lsrf	encodeTimeout@ls_byte+3,f
  5701     1741  0CFA               	rrf	encodeTimeout@ls_byte+2,f
  5702     1742  0CF9               	rrf	encodeTimeout@ls_byte+1,f
  5703     1743  0CF8               	rrf	encodeTimeout@ls_byte,f
  5704     1744  0B89               	decfsz	9,f
  5705     1745  2F40               	goto	u2345
  5706     1746                     l2458:
  5707                           
  5708                           ;main.c: 810:             ms_byte++;
  5709     1746  3001               	movlw	1
  5710     1747  07F6               	addwf	encodeTimeout@ms_byte,f
  5711     1748  3000               	movlw	0
  5712     1749  3DF7               	addwfc	encodeTimeout@ms_byte+1,f
  5713     174A                     l2460:
  5714                           
  5715                           ;main.c: 807:         while ((ls_byte & 0xFFFFFF00) > 0)
  5716     174A  3000               	movlw	0
  5717     174B  0578               	andwf	encodeTimeout@ls_byte,w
  5718     174C  00F2               	movwf	??_encodeTimeout
  5719     174D  30FF               	movlw	255
  5720     174E  0579               	andwf	encodeTimeout@ls_byte+1,w
  5721     174F  00F3               	movwf	??_encodeTimeout+1
  5722     1750  30FF               	movlw	255
  5723     1751  057A               	andwf	encodeTimeout@ls_byte+2,w
  5724     1752  00F4               	movwf	??_encodeTimeout+2
  5725     1753  30FF               	movlw	255
  5726     1754  057B               	andwf	encodeTimeout@ls_byte+3,w
  5727     1755  00F5               	movwf	??_encodeTimeout+3
  5728     1756  0875               	movf	??_encodeTimeout+3,w
  5729     1757  0474               	iorwf	??_encodeTimeout+2,w
  5730     1758  0473               	iorwf	??_encodeTimeout+1,w
  5731     1759  0472               	iorwf	??_encodeTimeout,w
  5732     175A  1D03               	skipz
  5733     175B  2F5D               	goto	u2351
  5734     175C  2F5E               	goto	u2350
  5735     175D                     u2351:
  5736     175D  2F3F               	goto	l2456
  5737     175E                     u2350:
  5738     175E                     l2462:
  5739                           
  5740                           ;main.c: 812:         return (ms_byte << 8) | (ls_byte & 0xFF);
  5741     175E  30FF               	movlw	255
  5742     175F  0578               	andwf	encodeTimeout@ls_byte,w
  5743     1760  00F2               	movwf	??_encodeTimeout
  5744     1761  3000               	movlw	0
  5745     1762  0579               	andwf	encodeTimeout@ls_byte+1,w
  5746     1763  00F3               	movwf	??_encodeTimeout+1
  5747     1764  0876               	movf	encodeTimeout@ms_byte,w
  5748     1765  00F5               	movwf	??_encodeTimeout+3
  5749     1766  01F4               	clrf	??_encodeTimeout+2
  5750     1767  0872               	movf	??_encodeTimeout,w
  5751     1768  0474               	iorwf	??_encodeTimeout+2,w
  5752     1769  00F0               	movwf	?_encodeTimeout
  5753     176A  0873               	movf	??_encodeTimeout+1,w
  5754     176B  0475               	iorwf	??_encodeTimeout+3,w
  5755     176C  00F1               	movwf	?_encodeTimeout+1
  5756     176D  2F70               	goto	l437
  5757     176E                     l2466:
  5758                           
  5759                           ;main.c: 814:     return 0;
  5760     176E  01F0               	clrf	?_encodeTimeout
  5761     176F  01F1               	clrf	?_encodeTimeout+1
  5762     1770                     l437:
  5763     1770  0008               	return
  5764     1771                     __end_of_encodeTimeout:
  5765                           
  5766                           	psect	text13
  5767     1490                     __ptext13:	
  5768 ;; *************** function _readMulti *****************
  5769 ;; Defined at:
  5770 ;;		line 294 in file "main.c"
  5771 ;; Parameters:    Size  Location     Type
  5772 ;;  dev             1    wreg     PTR struct .
  5773 ;;		 -> main@sensor(16), 
  5774 ;;  reg             1    0[BANK0 ] unsigned char 
  5775 ;;  dst             1    1[BANK0 ] PTR unsigned char 
  5776 ;;		 -> VL53L0X_Init@ref_spad_map(6), 
  5777 ;;  count           1    2[BANK0 ] unsigned char 
  5778 ;; Auto vars:     Size  Location     Type
  5779 ;;  dev             1    4[BANK0 ] PTR struct .
  5780 ;;		 -> main@sensor(16), 
  5781 ;; Return value:  Size  Location     Type
  5782 ;;                  1    wreg      void 
  5783 ;; Registers used:
  5784 ;;		wreg, fsr1l, fsr1h, status,2, status,0, pclath, cstack
  5785 ;; Tracked objects:
  5786 ;;		On entry : 0/0
  5787 ;;		On exit  : 0/0
  5788 ;;		Unchanged: 0/0
  5789 ;; Data sizes:     COMMON   BANK0   BANK1   BANK2   BANK3   BANK4   BANK5   BANK6   BANK7   BANK8   BANK9  BANK10  BANK1
      +1  BANK12  BANK13  BANK14  BANK15  BANK16  BANK17  BANK18  BANK19  BANK20  BANK21  BANK22  BANK23  BANK24  BANK25
  5790 ;;      Params:         0       3       0       0       0       0       0       0       0       0       0       0       
      +0       0       0       0       0       0       0       0       0       0       0       0       0       0       0
  5791 ;;      Locals:         0       1       0       0       0       0       0       0       0       0       0       0       
      +0       0       0       0       0       0       0       0       0       0       0       0       0       0       0
  5792 ;;      Temps:          0       1       0       0       0       0       0       0       0       0       0       0       
      +0       0       0       0       0       0       0       0       0       0       0       0       0       0       0
  5793 ;;      Totals:         0       5       0       0       0       0       0       0       0       0       0       0       
      +0       0       0       0       0       0       0       0       0       0       0       0       0       0       0
  5794 ;;Total ram usage:        5 bytes
  5795 ;; Hardware stack levels used: 1
  5796 ;; Hardware stack levels required when called: 4
  5797 ;; This function calls:
  5798 ;;		_tof_i2c_read
  5799 ;; This function is called by:
  5800 ;;		_VL53L0X_Init
  5801 ;; This function uses a non-reentrant model
  5802 ;;
  5803                           
  5804     1490                     _readMulti:	
  5805                           ;psect for function _readMulti
  5806                           
  5807                           
  5808                           ;incstack = 0
  5809                           ; Regs used in _readMulti: [wreg+fsr1l+fsr1h+status,2+status,0+pclath+cstack]
  5810                           ;readMulti@dev stored from wreg
  5811     1490  0020               	movlb	0	; select bank0
  5812     1491  00A4               	movwf	readMulti@dev
  5813     1492                     l2600:
  5814                           
  5815                           ;main.c: 294: static void readMulti(VL53L0X_Dev_t *dev, uint8_t reg, uint8_t *dst, uint8
      +                          _t count);main.c: 295: {;main.c: 296:     dev->last_status = tof_i2c_read(dev->address, 
      +                          reg, dst, count);
  5816     1492  0820               	movf	readMulti@reg,w
  5817     1493  00F6               	movwf	tof_i2c_read@reg
  5818     1494  0821               	movf	readMulti@dst,w
  5819     1495  00F7               	movwf	tof_i2c_read@dst
  5820     1496  0822               	movf	readMulti@count,w
  5821     1497  00F8               	movwf	tof_i2c_read@len
  5822     1498  0824               	movf	readMulti@dev,w
  5823     1499  0086               	movwf	6
  5824     149A  0187               	clrf	7
  5825     149B  0801               	movf	1,w
  5826     149C  3187  277A  3194   	fcall	_tof_i2c_read
  5827     149F  0020               	movlb	0	; select bank0
  5828     14A0  00A3               	movwf	??_readMulti
  5829     14A1  0824               	movf	readMulti@dev,w
  5830     14A2  3E02               	addlw	2
  5831     14A3  0086               	movwf	6
  5832     14A4  0187               	clrf	7
  5833     14A5  0823               	movf	??_readMulti,w
  5834     14A6  0081               	movwf	1
  5835     14A7                     l309:
  5836     14A7  0008               	return
  5837     14A8                     __end_of_readMulti:
  5838                           
  5839                           	psect	text14
  5840     16B3                     __ptext14:	
  5841 ;; *************** function _performSingleRefCal *****************
  5842 ;; Defined at:
  5843 ;;		line 832 in file "main.c"
  5844 ;; Parameters:    Size  Location     Type
  5845 ;;  dev             1    wreg     PTR struct .
  5846 ;;		 -> main@sensor(16), 
  5847 ;;  vhv_init_byt    1   12[BANK0 ] unsigned char 
  5848 ;; Auto vars:     Size  Location     Type
  5849 ;;  dev             1   13[BANK0 ] PTR struct .
  5850 ;;		 -> main@sensor(16), 
  5851 ;; Return value:  Size  Location     Type
  5852 ;;                  1    wreg      _Bool 
  5853 ;; Registers used:
  5854 ;;		wreg, fsr1l, fsr1h, status,2, status,0, pclath, cstack
  5855 ;; Tracked objects:
  5856 ;;		On entry : 0/0
  5857 ;;		On exit  : 0/0
  5858 ;;		Unchanged: 0/0
  5859 ;; Data sizes:     COMMON   BANK0   BANK1   BANK2   BANK3   BANK4   BANK5   BANK6   BANK7   BANK8   BANK9  BANK10  BANK1
      +1  BANK12  BANK13  BANK14  BANK15  BANK16  BANK17  BANK18  BANK19  BANK20  BANK21  BANK22  BANK23  BANK24  BANK25
  5860 ;;      Params:         0       1       0       0       0       0       0       0       0       0       0       0       
      +0       0       0       0       0       0       0       0       0       0       0       0       0       0       0
  5861 ;;      Locals:         0       1       0       0       0       0       0       0       0       0       0       0       
      +0       0       0       0       0       0       0       0       0       0       0       0       0       0       0
  5862 ;;      Temps:          0       0       0       0       0       0       0       0       0       0       0       0       
      +0       0       0       0       0       0       0       0       0       0       0       0       0       0       0
  5863 ;;      Totals:         0       2       0       0       0       0       0       0       0       0       0       0       
      +0       0       0       0       0       0       0       0       0       0       0       0       0       0       0
  5864 ;;Total ram usage:        2 bytes
  5865 ;; Hardware stack levels used: 1
  5866 ;; Hardware stack levels required when called: 5
  5867 ;; This function calls:
  5868 ;;		_checkTimeoutExpired
  5869 ;;		_readReg
  5870 ;;		_startTimeout
  5871 ;;		_writeReg
  5872 ;; This function is called by:
  5873 ;;		_VL53L0X_Init
  5874 ;;		_setVcselPulsePeriod
  5875 ;; This function uses a non-reentrant model
  5876 ;;
  5877                           
  5878     16B3                     _performSingleRefCal:	
  5879                           ;psect for function _performSingleRefCal
  5880                           
  5881                           
  5882                           ;incstack = 0
  5883                           ; Regs used in _performSingleRefCal: [wreg+fsr1l+fsr1h+status,2+status,0+pclath+cstack]
  5884                           ;performSingleRefCal@dev stored from wreg
  5885     16B3  0020               	movlb	0	; select bank0
  5886     16B4  00AD               	movwf	performSingleRefCal@dev
  5887     16B5                     l2712:
  5888                           
  5889                           ;main.c: 832: static _Bool performSingleRefCal(VL53L0X_Dev_t *dev, uint8_t vhv_init_byte
      +                          );main.c: 833: {;main.c: 834:     writeReg(dev, 0x00, 0x01 | vhv_init_byte);
  5890     16B5  01A4               	clrf	writeReg@reg
  5891     16B6  082C               	movf	performSingleRefCal@vhv_init_byte,w
  5892     16B7  3801               	iorlw	1
  5893     16B8  00A5               	movwf	writeReg@value
  5894     16B9  082D               	movf	performSingleRefCal@dev,w
  5895     16BA  3194  2478  3196   	fcall	_writeReg
  5896                           
  5897                           ;main.c: 836:     startTimeout(dev);
  5898     16BD  0020               	movlb	0	; select bank0
  5899     16BE  082D               	movf	performSingleRefCal@dev,w
  5900     16BF  3194  242A  3196   	fcall	_startTimeout
  5901                           
  5902                           ;main.c: 837:     while ((readReg(dev, 0x13) & 0x07) == 0)
  5903     16C2  2ECF               	goto	l2720
  5904     16C3                     l2714:
  5905                           
  5906                           ;main.c: 838:     {;main.c: 839:         if (checkTimeoutExpired(dev)) return 0;
  5907     16C3  0020               	movlb	0	; select bank0
  5908     16C4  082D               	movf	performSingleRefCal@dev,w
  5909     16C5  3189  2144  3196   	fcall	_checkTimeoutExpired
  5910     16C8  3A00               	xorlw	0
  5911     16C9  1903               	skipnz
  5912     16CA  2ECC               	goto	u2861
  5913     16CB  2ECD               	goto	u2860
  5914     16CC                     u2861:
  5915     16CC  2ECF               	goto	l2720
  5916     16CD                     u2860:
  5917     16CD                     l2716:
  5918     16CD  3000               	movlw	0
  5919     16CE  2EEC               	goto	l449
  5920     16CF                     l2720:
  5921                           
  5922                           ;main.c: 837:     while ((readReg(dev, 0x13) & 0x07) == 0)
  5923     16CF  3013               	movlw	19
  5924     16D0  0020               	movlb	0	; select bank0
  5925     16D1  00A0               	movwf	readReg@reg
  5926     16D2  082D               	movf	performSingleRefCal@dev,w
  5927     16D3  3194  24C0  3196   	fcall	_readReg
  5928     16D6  3907               	andlw	7
  5929     16D7  1903               	btfsc	3,2
  5930     16D8  2EDA               	goto	u2871
  5931     16D9  2EDB               	goto	u2870
  5932     16DA                     u2871:
  5933     16DA  2EC3               	goto	l2714
  5934     16DB                     u2870:
  5935     16DB                     l2722:
  5936                           
  5937                           ;main.c: 842:     writeReg(dev, 0x0B, 0x01);
  5938     16DB  300B               	movlw	11
  5939     16DC  0020               	movlb	0	; select bank0
  5940     16DD  00A4               	movwf	writeReg@reg
  5941     16DE  01A5               	clrf	writeReg@value
  5942     16DF  0AA5               	incf	writeReg@value,f
  5943     16E0  082D               	movf	performSingleRefCal@dev,w
  5944     16E1  3194  2478  3196   	fcall	_writeReg
  5945                           
  5946                           ;main.c: 843:     writeReg(dev, 0x00, 0x00);
  5947     16E4  0020               	movlb	0	; select bank0
  5948     16E5  01A4               	clrf	writeReg@reg
  5949     16E6  01A5               	clrf	writeReg@value
  5950     16E7  082D               	movf	performSingleRefCal@dev,w
  5951     16E8  3194  2478  3196   	fcall	_writeReg
  5952     16EB                     l2724:
  5953                           
  5954                           ;main.c: 844:     return 1;
  5955     16EB  3001               	movlw	1
  5956     16EC                     l449:
  5957     16EC  0008               	return
  5958     16ED                     __end_of_performSingleRefCal:
  5959                           
  5960                           	psect	text15
  5961     0692                     __ptext15:	
  5962 ;; *************** function _getSpadInfo *****************
  5963 ;; Defined at:
  5964 ;;		line 728 in file "main.c"
  5965 ;; Parameters:    Size  Location     Type
  5966 ;;  dev             1    wreg     PTR struct .
  5967 ;;		 -> main@sensor(16), 
  5968 ;;  count           1   12[BANK0 ] PTR unsigned char 
  5969 ;;		 -> VL53L0X_Init@spad_count(1), 
  5970 ;;  type_is_aper    1   13[BANK0 ] PTR _Bool 
  5971 ;;		 -> VL53L0X_Init@spad_type_is_aperture(1), 
  5972 ;; Auto vars:     Size  Location     Type
  5973 ;;  dev             1   16[BANK0 ] PTR struct .
  5974 ;;		 -> main@sensor(16), 
  5975 ;;  tmp             1   15[BANK0 ] unsigned char 
  5976 ;; Return value:  Size  Location     Type
  5977 ;;                  1    wreg      _Bool 
  5978 ;; Registers used:
  5979 ;;		wreg, fsr1l, fsr1h, status,2, status,0, pclath, cstack
  5980 ;; Tracked objects:
  5981 ;;		On entry : 0/0
  5982 ;;		On exit  : 0/0
  5983 ;;		Unchanged: 0/0
  5984 ;; Data sizes:     COMMON   BANK0   BANK1   BANK2   BANK3   BANK4   BANK5   BANK6   BANK7   BANK8   BANK9  BANK10  BANK1
      +1  BANK12  BANK13  BANK14  BANK15  BANK16  BANK17  BANK18  BANK19  BANK20  BANK21  BANK22  BANK23  BANK24  BANK25
  5985 ;;      Params:         0       2       0       0       0       0       0       0       0       0       0       0       
      +0       0       0       0       0       0       0       0       0       0       0       0       0       0       0
  5986 ;;      Locals:         0       2       0       0       0       0       0       0       0       0       0       0       
      +0       0       0       0       0       0       0       0       0       0       0       0       0       0       0
  5987 ;;      Temps:          0       1       0       0       0       0       0       0       0       0       0       0       
      +0       0       0       0       0       0       0       0       0       0       0       0       0       0       0
  5988 ;;      Totals:         0       5       0       0       0       0       0       0       0       0       0       0       
      +0       0       0       0       0       0       0       0       0       0       0       0       0       0       0
  5989 ;;Total ram usage:        5 bytes
  5990 ;; Hardware stack levels used: 1
  5991 ;; Hardware stack levels required when called: 5
  5992 ;; This function calls:
  5993 ;;		_checkTimeoutExpired
  5994 ;;		_readReg
  5995 ;;		_startTimeout
  5996 ;;		_writeReg
  5997 ;; This function is called by:
  5998 ;;		_VL53L0X_Init
  5999 ;; This function uses a non-reentrant model
  6000 ;;
  6001                           
  6002     0692                     _getSpadInfo:	
  6003                           ;psect for function _getSpadInfo
  6004                           
  6005                           
  6006                           ;incstack = 0
  6007                           ; Regs used in _getSpadInfo: [wreg+fsr1l+fsr1h+status,2+status,0+pclath+cstack]
  6008                           ;getSpadInfo@dev stored from wreg
  6009     0692  0020               	movlb	0	; select bank0
  6010     0693  00B0               	movwf	getSpadInfo@dev
  6011     0694                     l2602:
  6012                           
  6013                           ;main.c: 728: static _Bool getSpadInfo(VL53L0X_Dev_t *dev, uint8_t *count, _Bool *type_i
      +                          s_aperture);main.c: 729: {;main.c: 730:     uint8_t tmp;;main.c: 732:     writeReg(dev, 
      +                          0x80, 0x01);
  6014     0694  3080               	movlw	128
  6015     0695  00A4               	movwf	writeReg@reg
  6016     0696  01A5               	clrf	writeReg@value
  6017     0697  0AA5               	incf	writeReg@value,f
  6018     0698  0830               	movf	getSpadInfo@dev,w
  6019     0699  3194  2478  3186   	fcall	_writeReg
  6020                           
  6021                           ;main.c: 733:     writeReg(dev, 0xFF, 0x01);
  6022     069C  30FF               	movlw	255
  6023     069D  0020               	movlb	0	; select bank0
  6024     069E  00A4               	movwf	writeReg@reg
  6025     069F  01A5               	clrf	writeReg@value
  6026     06A0  0AA5               	incf	writeReg@value,f
  6027     06A1  0830               	movf	getSpadInfo@dev,w
  6028     06A2  3194  2478  3186   	fcall	_writeReg
  6029                           
  6030                           ;main.c: 734:     writeReg(dev, 0x00, 0x00);
  6031     06A5  0020               	movlb	0	; select bank0
  6032     06A6  01A4               	clrf	writeReg@reg
  6033     06A7  01A5               	clrf	writeReg@value
  6034     06A8  0830               	movf	getSpadInfo@dev,w
  6035     06A9  3194  2478  3186   	fcall	_writeReg
  6036                           
  6037                           ;main.c: 735:     writeReg(dev, 0xFF, 0x06);
  6038     06AC  30FF               	movlw	255
  6039     06AD  0020               	movlb	0	; select bank0
  6040     06AE  00A4               	movwf	writeReg@reg
  6041     06AF  3006               	movlw	6
  6042     06B0  00A5               	movwf	writeReg@value
  6043     06B1  0830               	movf	getSpadInfo@dev,w
  6044     06B2  3194  2478  3186   	fcall	_writeReg
  6045                           
  6046                           ;main.c: 736:     writeReg(dev, 0x83, readReg(dev, 0x83) | 0x04);
  6047     06B5  3083               	movlw	131
  6048     06B6  0020               	movlb	0	; select bank0
  6049     06B7  00A4               	movwf	writeReg@reg
  6050     06B8  3083               	movlw	131
  6051     06B9  00A0               	movwf	readReg@reg
  6052     06BA  0830               	movf	getSpadInfo@dev,w
  6053     06BB  3194  24C0  3186   	fcall	_readReg
  6054     06BE  3804               	iorlw	4
  6055     06BF  0020               	movlb	0	; select bank0
  6056     06C0  00A5               	movwf	writeReg@value
  6057     06C1  0830               	movf	getSpadInfo@dev,w
  6058     06C2  3194  2478  3186   	fcall	_writeReg
  6059                           
  6060                           ;main.c: 737:     writeReg(dev, 0xFF, 0x07);
  6061     06C5  30FF               	movlw	255
  6062     06C6  0020               	movlb	0	; select bank0
  6063     06C7  00A4               	movwf	writeReg@reg
  6064     06C8  3007               	movlw	7
  6065     06C9  00A5               	movwf	writeReg@value
  6066     06CA  0830               	movf	getSpadInfo@dev,w
  6067     06CB  3194  2478  3186   	fcall	_writeReg
  6068                           
  6069                           ;main.c: 738:     writeReg(dev, 0x81, 0x01);
  6070     06CE  3081               	movlw	129
  6071     06CF  0020               	movlb	0	; select bank0
  6072     06D0  00A4               	movwf	writeReg@reg
  6073     06D1  01A5               	clrf	writeReg@value
  6074     06D2  0AA5               	incf	writeReg@value,f
  6075     06D3  0830               	movf	getSpadInfo@dev,w
  6076     06D4  3194  2478  3186   	fcall	_writeReg
  6077                           
  6078                           ;main.c: 739:     writeReg(dev, 0x80, 0x01);
  6079     06D7  3080               	movlw	128
  6080     06D8  0020               	movlb	0	; select bank0
  6081     06D9  00A4               	movwf	writeReg@reg
  6082     06DA  01A5               	clrf	writeReg@value
  6083     06DB  0AA5               	incf	writeReg@value,f
  6084     06DC  0830               	movf	getSpadInfo@dev,w
  6085     06DD  3194  2478  3186   	fcall	_writeReg
  6086                           
  6087                           ;main.c: 740:     writeReg(dev, 0x94, 0x6b);
  6088     06E0  3094               	movlw	148
  6089     06E1  0020               	movlb	0	; select bank0
  6090     06E2  00A4               	movwf	writeReg@reg
  6091     06E3  306B               	movlw	107
  6092     06E4  00A5               	movwf	writeReg@value
  6093     06E5  0830               	movf	getSpadInfo@dev,w
  6094     06E6  3194  2478  3186   	fcall	_writeReg
  6095                           
  6096                           ;main.c: 741:     writeReg(dev, 0x83, 0x00);
  6097     06E9  3083               	movlw	131
  6098     06EA  0020               	movlb	0	; select bank0
  6099     06EB  00A4               	movwf	writeReg@reg
  6100     06EC  01A5               	clrf	writeReg@value
  6101     06ED  0830               	movf	getSpadInfo@dev,w
  6102     06EE  3194  2478  3186   	fcall	_writeReg
  6103                           
  6104                           ;main.c: 743:     startTimeout(dev);
  6105     06F1  0020               	movlb	0	; select bank0
  6106     06F2  0830               	movf	getSpadInfo@dev,w
  6107     06F3  3194  242A  3186   	fcall	_startTimeout
  6108                           
  6109                           ;main.c: 744:     while (readReg(dev, 0x83) == 0x00)
  6110     06F6  2F03               	goto	l2610
  6111     06F7                     l2604:
  6112                           
  6113                           ;main.c: 745:     {;main.c: 746:         if (checkTimeoutExpired(dev)) return 0;
  6114     06F7  0020               	movlb	0	; select bank0
  6115     06F8  0830               	movf	getSpadInfo@dev,w
  6116     06F9  3189  2144  3186   	fcall	_checkTimeoutExpired
  6117     06FC  3A00               	xorlw	0
  6118     06FD  1903               	skipnz
  6119     06FE  2F00               	goto	u2661
  6120     06FF  2F01               	goto	u2660
  6121     0700                     u2661:
  6122     0700  2F03               	goto	l2610
  6123     0701                     u2660:
  6124     0701                     l2606:
  6125     0701  3000               	movlw	0
  6126     0702  2F79               	goto	l419
  6127     0703                     l2610:
  6128                           
  6129                           ;main.c: 744:     while (readReg(dev, 0x83) == 0x00)
  6130     0703  3083               	movlw	131
  6131     0704  0020               	movlb	0	; select bank0
  6132     0705  00A0               	movwf	readReg@reg
  6133     0706  0830               	movf	getSpadInfo@dev,w
  6134     0707  3194  24C0  3186   	fcall	_readReg
  6135     070A  3A00               	xorlw	0
  6136     070B  1903               	skipnz
  6137     070C  2F0E               	goto	u2671
  6138     070D  2F0F               	goto	u2670
  6139     070E                     u2671:
  6140     070E  2EF7               	goto	l2604
  6141     070F                     u2670:
  6142     070F                     l2612:
  6143                           
  6144                           ;main.c: 749:     writeReg(dev, 0x83, 0x01);
  6145     070F  3083               	movlw	131
  6146     0710  0020               	movlb	0	; select bank0
  6147     0711  00A4               	movwf	writeReg@reg
  6148     0712  01A5               	clrf	writeReg@value
  6149     0713  0AA5               	incf	writeReg@value,f
  6150     0714  0830               	movf	getSpadInfo@dev,w
  6151     0715  3194  2478  3186   	fcall	_writeReg
  6152                           
  6153                           ;main.c: 750:     tmp = readReg(dev, 0x92);
  6154     0718  3092               	movlw	146
  6155     0719  0020               	movlb	0	; select bank0
  6156     071A  00A0               	movwf	readReg@reg
  6157     071B  0830               	movf	getSpadInfo@dev,w
  6158     071C  3194  24C0  3186   	fcall	_readReg
  6159     071F  0020               	movlb	0	; select bank0
  6160     0720  00AF               	movwf	getSpadInfo@tmp
  6161     0721                     l2614:
  6162                           
  6163                           ;main.c: 751:     *count = tmp & 0x7f;
  6164     0721  082C               	movf	getSpadInfo@count,w
  6165     0722  0086               	movwf	6
  6166     0723  0187               	clrf	7
  6167     0724  082F               	movf	getSpadInfo@tmp,w
  6168     0725  397F               	andlw	127
  6169     0726  0081               	movwf	1
  6170     0727                     l2616:
  6171                           
  6172                           ;main.c: 752:     *type_is_aperture = (tmp >> 7) & 0x01;
  6173     0727  082D               	movf	getSpadInfo@type_is_aperture,w
  6174     0728  0086               	movwf	6
  6175     0729  0187               	clrf	7
  6176     072A  082F               	movf	getSpadInfo@tmp,w
  6177     072B  00AE               	movwf	??_getSpadInfo
  6178     072C  3007               	movlw	7
  6179     072D                     u2685:
  6180     072D  36AE               	lsrf	??_getSpadInfo,f
  6181     072E  0B89               	decfsz	9,f
  6182     072F  2F2D               	goto	u2685
  6183     0730  182E               	btfsc	??_getSpadInfo,0
  6184     0731  2F33               	goto	u2691
  6185     0732  2F35               	goto	u2690
  6186     0733                     u2691:
  6187     0733  3001               	movlw	1
  6188     0734  2F36               	goto	u2700
  6189     0735                     u2690:
  6190     0735  3000               	movlw	0
  6191     0736                     u2700:
  6192     0736  0081               	movwf	1
  6193     0737                     l2618:
  6194                           
  6195                           ;main.c: 754:     writeReg(dev, 0x81, 0x00);
  6196     0737  3081               	movlw	129
  6197     0738  00A4               	movwf	writeReg@reg
  6198     0739  01A5               	clrf	writeReg@value
  6199     073A  0830               	movf	getSpadInfo@dev,w
  6200     073B  3194  2478  3186   	fcall	_writeReg
  6201     073E                     l2620:
  6202                           
  6203                           ;main.c: 755:     writeReg(dev, 0xFF, 0x06);
  6204     073E  30FF               	movlw	255
  6205     073F  0020               	movlb	0	; select bank0
  6206     0740  00A4               	movwf	writeReg@reg
  6207     0741  3006               	movlw	6
  6208     0742  00A5               	movwf	writeReg@value
  6209     0743  0830               	movf	getSpadInfo@dev,w
  6210     0744  3194  2478  3186   	fcall	_writeReg
  6211     0747                     l2622:
  6212                           
  6213                           ;main.c: 756:     writeReg(dev, 0x83, readReg(dev, 0x83) & ~0x04);
  6214     0747  3083               	movlw	131
  6215     0748  0020               	movlb	0	; select bank0
  6216     0749  00A4               	movwf	writeReg@reg
  6217     074A  3083               	movlw	131
  6218     074B  00A0               	movwf	readReg@reg
  6219     074C  0830               	movf	getSpadInfo@dev,w
  6220     074D  3194  24C0  3186   	fcall	_readReg
  6221     0750  39FB               	andlw	251
  6222     0751  0020               	movlb	0	; select bank0
  6223     0752  00A5               	movwf	writeReg@value
  6224     0753  0830               	movf	getSpadInfo@dev,w
  6225     0754  3194  2478  3186   	fcall	_writeReg
  6226     0757                     l2624:
  6227                           
  6228                           ;main.c: 757:     writeReg(dev, 0xFF, 0x01);
  6229     0757  30FF               	movlw	255
  6230     0758  0020               	movlb	0	; select bank0
  6231     0759  00A4               	movwf	writeReg@reg
  6232     075A  01A5               	clrf	writeReg@value
  6233     075B  0AA5               	incf	writeReg@value,f
  6234     075C  0830               	movf	getSpadInfo@dev,w
  6235     075D  3194  2478  3186   	fcall	_writeReg
  6236     0760                     l2626:
  6237                           
  6238                           ;main.c: 758:     writeReg(dev, 0x00, 0x01);
  6239     0760  0020               	movlb	0	; select bank0
  6240     0761  01A4               	clrf	writeReg@reg
  6241     0762  01A5               	clrf	writeReg@value
  6242     0763  0AA5               	incf	writeReg@value,f
  6243     0764  0830               	movf	getSpadInfo@dev,w
  6244     0765  3194  2478  3186   	fcall	_writeReg
  6245     0768                     l2628:
  6246                           
  6247                           ;main.c: 759:     writeReg(dev, 0xFF, 0x00);
  6248     0768  30FF               	movlw	255
  6249     0769  0020               	movlb	0	; select bank0
  6250     076A  00A4               	movwf	writeReg@reg
  6251     076B  01A5               	clrf	writeReg@value
  6252     076C  0830               	movf	getSpadInfo@dev,w
  6253     076D  3194  2478  3186   	fcall	_writeReg
  6254     0770                     l2630:
  6255                           
  6256                           ;main.c: 760:     writeReg(dev, 0x80, 0x00);
  6257     0770  3080               	movlw	128
  6258     0771  0020               	movlb	0	; select bank0
  6259     0772  00A4               	movwf	writeReg@reg
  6260     0773  01A5               	clrf	writeReg@value
  6261     0774  0830               	movf	getSpadInfo@dev,w
  6262     0775  3194  2478  3186   	fcall	_writeReg
  6263     0778                     l2632:
  6264                           
  6265                           ;main.c: 761:     return 1;
  6266     0778  3001               	movlw	1
  6267     0779                     l419:
  6268     0779  0008               	return
  6269     077A                     __end_of_getSpadInfo:
  6270                           
  6271                           	psect	text16
  6272     1478                     __ptext16:	
  6273 ;; *************** function _writeReg *****************
  6274 ;; Defined at:
  6275 ;;		line 244 in file "main.c"
  6276 ;; Parameters:    Size  Location     Type
  6277 ;;  dev             1    wreg     PTR struct .
  6278 ;;		 -> main@sensor(16), 
  6279 ;;  reg             1    4[BANK0 ] unsigned char 
  6280 ;;  value           1    5[BANK0 ] unsigned char 
  6281 ;; Auto vars:     Size  Location     Type
  6282 ;;  dev             1    7[BANK0 ] PTR struct .
  6283 ;;		 -> main@sensor(16), 
  6284 ;; Return value:  Size  Location     Type
  6285 ;;                  1    wreg      void 
  6286 ;; Registers used:
  6287 ;;		wreg, fsr1l, fsr1h, status,2, status,0, pclath, cstack
  6288 ;; Tracked objects:
  6289 ;;		On entry : 0/0
  6290 ;;		On exit  : 0/0
  6291 ;;		Unchanged: 0/0
  6292 ;; Data sizes:     COMMON   BANK0   BANK1   BANK2   BANK3   BANK4   BANK5   BANK6   BANK7   BANK8   BANK9  BANK10  BANK1
      +1  BANK12  BANK13  BANK14  BANK15  BANK16  BANK17  BANK18  BANK19  BANK20  BANK21  BANK22  BANK23  BANK24  BANK25
  6293 ;;      Params:         0       2       0       0       0       0       0       0       0       0       0       0       
      +0       0       0       0       0       0       0       0       0       0       0       0       0       0       0
  6294 ;;      Locals:         0       1       0       0       0       0       0       0       0       0       0       0       
      +0       0       0       0       0       0       0       0       0       0       0       0       0       0       0
  6295 ;;      Temps:          0       1       0       0       0       0       0       0       0       0       0       0       
      +0       0       0       0       0       0       0       0       0       0       0       0       0       0       0
  6296 ;;      Totals:         0       4       0       0       0       0       0       0       0       0       0       0       
      +0       0       0       0       0       0       0       0       0       0       0       0       0       0       0
  6297 ;;Total ram usage:        4 bytes
  6298 ;; Hardware stack levels used: 1
  6299 ;; Hardware stack levels required when called: 4
  6300 ;; This function calls:
  6301 ;;		_tof_i2c_write
  6302 ;; This function is called by:
  6303 ;;		_VL53L0X_Init
  6304 ;;		_startContinuous
  6305 ;;		_readRangeContinuousMm
  6306 ;;		_getSpadInfo
  6307 ;;		_performSingleRefCal
  6308 ;;		_setVcselPulsePeriod
  6309 ;;		_stopContinuous
  6310 ;;		_readRangeSingleMm
  6311 ;; This function uses a non-reentrant model
  6312 ;;
  6313                           
  6314     1478                     _writeReg:	
  6315                           ;psect for function _writeReg
  6316                           
  6317                           
  6318                           ;incstack = 0
  6319                           ; Regs used in _writeReg: [wreg+fsr1l+fsr1h+status,2+status,0+pclath+cstack]
  6320                           ;writeReg@dev stored from wreg
  6321     1478  0020               	movlb	0	; select bank0
  6322     1479  00A7               	movwf	writeReg@dev
  6323     147A                     l2402:
  6324                           
  6325                           ;main.c: 244: static void writeReg(VL53L0X_Dev_t *dev, uint8_t reg, uint8_t value);main.
      +                          c: 245: {;main.c: 246:     dev->last_status = tof_i2c_write(dev->address, reg, &value, 1
      +                          );
  6326     147A  0824               	movf	writeReg@reg,w
  6327     147B  00F5               	movwf	tof_i2c_write@reg
  6328     147C  3025               	movlw	(low (writeReg@value| 0))& (0+255)
  6329     147D  00F6               	movwf	tof_i2c_write@src
  6330     147E  01F7               	clrf	tof_i2c_write@len
  6331     147F  0AF7               	incf	tof_i2c_write@len,f
  6332     1480  0827               	movf	writeReg@dev,w
  6333     1481  0086               	movwf	6
  6334     1482  0187               	clrf	7
  6335     1483  0801               	movf	1,w
  6336     1484  3197  27B4  3194   	fcall	_tof_i2c_write
  6337     1487  0020               	movlb	0	; select bank0
  6338     1488  00A6               	movwf	??_writeReg
  6339     1489  0827               	movf	writeReg@dev,w
  6340     148A  3E02               	addlw	2
  6341     148B  0086               	movwf	6
  6342     148C  0187               	clrf	7
  6343     148D  0826               	movf	??_writeReg,w
  6344     148E  0081               	movwf	1
  6345     148F                     l284:
  6346     148F  0008               	return
  6347     1490                     __end_of_writeReg:
  6348                           
  6349                           	psect	text17
  6350     17B4                     __ptext17:	
  6351 ;; *************** function _tof_i2c_write *****************
  6352 ;; Defined at:
  6353 ;;		line 162 in file "main.c"
  6354 ;; Parameters:    Size  Location     Type
  6355 ;;  addr            1    wreg     unsigned char 
  6356 ;;  reg             1    5[COMMON] unsigned char 
  6357 ;;  src             1    6[COMMON] PTR unsigned char 
  6358 ;;		 -> VL53L0X_Init@ref_spad_map(6), writeReg32@buf(4), writeReg16@buf(2), writeReg@value(1), 
  6359 ;;  len             1    7[COMMON] unsigned char 
  6360 ;; Auto vars:     Size  Location     Type
  6361 ;;  addr            1    9[COMMON] unsigned char 
  6362 ;;  i               1   10[COMMON] unsigned char 
  6363 ;; Return value:  Size  Location     Type
  6364 ;;                  1    wreg      unsigned char 
  6365 ;; Registers used:
  6366 ;;		wreg, fsr1l, fsr1h, status,2, status,0, pclath, cstack
  6367 ;; Tracked objects:
  6368 ;;		On entry : 0/0
  6369 ;;		On exit  : 0/0
  6370 ;;		Unchanged: 0/0
  6371 ;; Data sizes:     COMMON   BANK0   BANK1   BANK2   BANK3   BANK4   BANK5   BANK6   BANK7   BANK8   BANK9  BANK10  BANK1
      +1  BANK12  BANK13  BANK14  BANK15  BANK16  BANK17  BANK18  BANK19  BANK20  BANK21  BANK22  BANK23  BANK24  BANK25
  6372 ;;      Params:         3       0       0       0       0       0       0       0       0       0       0       0       
      +0       0       0       0       0       0       0       0       0       0       0       0       0       0       0
  6373 ;;      Locals:         2       0       0       0       0       0       0       0       0       0       0       0       
      +0       0       0       0       0       0       0       0       0       0       0       0       0       0       0
  6374 ;;      Temps:          1       0       0       0       0       0       0       0       0       0       0       0       
      +0       0       0       0       0       0       0       0       0       0       0       0       0       0       0
  6375 ;;      Totals:         6       0       0       0       0       0       0       0       0       0       0       0       
      +0       0       0       0       0       0       0       0       0       0       0       0       0       0       0
  6376 ;;Total ram usage:        6 bytes
  6377 ;; Hardware stack levels used: 1
  6378 ;; Hardware stack levels required when called: 3
  6379 ;; This function calls:
  6380 ;;		_I2C_Start
  6381 ;;		_I2C_Stop
  6382 ;;		_I2C_WriteByte
  6383 ;; This function is called by:
  6384 ;;		_writeReg
  6385 ;;		_writeReg16
  6386 ;;		_writeReg32
  6387 ;;		_writeMulti
  6388 ;; This function uses a non-reentrant model
  6389 ;;
  6390                           
  6391     17B4                     _tof_i2c_write:	
  6392                           ;psect for function _tof_i2c_write
  6393                           
  6394                           
  6395                           ;incstack = 0
  6396                           ; Regs used in _tof_i2c_write: [wreg+fsr1l+fsr1h+status,2+status,0+pclath+cstack]
  6397                           ;tof_i2c_write@addr stored from wreg
  6398     17B4  00F9               	movwf	tof_i2c_write@addr
  6399     17B5                     l2326:
  6400                           
  6401                           ;main.c: 162: static uint8_t tof_i2c_write(uint8_t addr, uint8_t reg, uint8_t *src, uint
      +                          8_t len);main.c: 163: {;main.c: 164:     if (I2C_Start() != I2C_OK) return 1;
  6402     17B5  3196  2600  3197   	fcall	_I2C_Start
  6403     17B8  3A00               	xorlw	0
  6404     17B9  1903               	skipnz
  6405     17BA  2FBC               	goto	u2051
  6406     17BB  2FBD               	goto	u2050
  6407     17BC                     u2051:
  6408     17BC  2FBF               	goto	l2332
  6409     17BD                     u2050:
  6410     17BD                     l2328:
  6411     17BD  3001               	movlw	1
  6412     17BE  2FFF               	goto	l263
  6413     17BF                     l2332:
  6414                           
  6415                           ;main.c: 166:     if (I2C_WriteByte(addr << 1) != I2C_OK)
  6416     17BF  3579               	lslf	tof_i2c_write@addr,w
  6417     17C0  3196  264E  3197   	fcall	_I2C_WriteByte
  6418     17C3  3A00               	xorlw	0
  6419     17C4  1903               	skipnz
  6420     17C5  2FC7               	goto	u2061
  6421     17C6  2FC8               	goto	u2060
  6422     17C7                     u2061:
  6423     17C7  2FCD               	goto	l2340
  6424     17C8                     u2060:
  6425     17C8                     l2334:
  6426                           
  6427                           ;main.c: 167:     {;main.c: 168:         I2C_Stop();
  6428     17C8  3195  2570  3197   	fcall	_I2C_Stop
  6429     17CB                     l2336:
  6430                           
  6431                           ;main.c: 169:         return 2;
  6432     17CB  3002               	movlw	2
  6433     17CC  2FFF               	goto	l263
  6434     17CD                     l2340:
  6435                           
  6436                           ;main.c: 172:     if (I2C_WriteByte(reg) != I2C_OK)
  6437     17CD  0875               	movf	tof_i2c_write@reg,w
  6438     17CE  3196  264E  3197   	fcall	_I2C_WriteByte
  6439     17D1  3A00               	xorlw	0
  6440     17D2  1903               	skipnz
  6441     17D3  2FD5               	goto	u2071
  6442     17D4  2FD6               	goto	u2070
  6443     17D5                     u2071:
  6444     17D5  2FDB               	goto	l2348
  6445     17D6                     u2070:
  6446     17D6                     l2342:
  6447                           
  6448                           ;main.c: 173:     {;main.c: 174:         I2C_Stop();
  6449     17D6  3195  2570  3197   	fcall	_I2C_Stop
  6450     17D9                     l2344:
  6451                           
  6452                           ;main.c: 175:         return 3;
  6453     17D9  3003               	movlw	3
  6454     17DA  2FFF               	goto	l263
  6455     17DB                     l2348:
  6456                           
  6457                           ;main.c: 178:     for (uint8_t i = 0; i < len; i++)
  6458     17DB  01FA               	clrf	tof_i2c_write@i
  6459     17DC  2FF5               	goto	l2360
  6460     17DD                     l2350:
  6461                           
  6462                           ;main.c: 179:     {;main.c: 180:         if (I2C_WriteByte(src[i]) != I2C_OK)
  6463     17DD  087A               	movf	tof_i2c_write@i,w
  6464     17DE  0776               	addwf	tof_i2c_write@src,w
  6465     17DF  00F8               	movwf	??_tof_i2c_write
  6466     17E0  0878               	movf	??_tof_i2c_write,w
  6467     17E1  0086               	movwf	6
  6468     17E2  0187               	clrf	7
  6469     17E3  0801               	movf	1,w
  6470     17E4  3196  264E  3197   	fcall	_I2C_WriteByte
  6471     17E7  3A00               	xorlw	0
  6472     17E8  1903               	skipnz
  6473     17E9  2FEB               	goto	u2081
  6474     17EA  2FEC               	goto	u2080
  6475     17EB                     u2081:
  6476     17EB  2FF1               	goto	l2358
  6477     17EC                     u2080:
  6478     17EC                     l2352:
  6479                           
  6480                           ;main.c: 181:         {;main.c: 182:             I2C_Stop();
  6481     17EC  3195  2570  3197   	fcall	_I2C_Stop
  6482     17EF                     l2354:
  6483                           
  6484                           ;main.c: 183:             return 4;
  6485     17EF  3004               	movlw	4
  6486     17F0  2FFF               	goto	l263
  6487     17F1                     l2358:
  6488                           
  6489                           ;main.c: 185:     }
  6490     17F1  3001               	movlw	1
  6491     17F2  00F8               	movwf	??_tof_i2c_write
  6492     17F3  0878               	movf	??_tof_i2c_write,w
  6493     17F4  07FA               	addwf	tof_i2c_write@i,f
  6494     17F5                     l2360:
  6495     17F5  0877               	movf	tof_i2c_write@len,w
  6496     17F6  027A               	subwf	tof_i2c_write@i,w
  6497     17F7  1C03               	skipc
  6498     17F8  2FFA               	goto	u2091
  6499     17F9  2FFB               	goto	u2090
  6500     17FA                     u2091:
  6501     17FA  2FDD               	goto	l2350
  6502     17FB                     u2090:
  6503     17FB                     l2362:
  6504                           
  6505                           ;main.c: 187:     I2C_Stop();
  6506     17FB  3195  2570  3197   	fcall	_I2C_Stop
  6507     17FE                     l2364:
  6508                           
  6509                           ;main.c: 188:     return 0;
  6510     17FE  3000               	movlw	0
  6511     17FF                     l263:
  6512     17FF  0008               	return
  6513     1800                     __end_of_tof_i2c_write:
  6514                           
  6515                           	psect	text18
  6516     142A                     __ptext18:	
  6517 ;; *************** function _startTimeout *****************
  6518 ;; Defined at:
  6519 ;;		line 303 in file "main.c"
  6520 ;; Parameters:    Size  Location     Type
  6521 ;;  dev             1    wreg     PTR struct .
  6522 ;;		 -> main@sensor(16), 
  6523 ;; Auto vars:     Size  Location     Type
  6524 ;;  dev             1    8[COMMON] PTR struct .
  6525 ;;		 -> main@sensor(16), 
  6526 ;; Return value:  Size  Location     Type
  6527 ;;                  1    wreg      void 
  6528 ;; Registers used:
  6529 ;;		wreg, fsr1l, fsr1h, status,2, status,0, pclath, cstack
  6530 ;; Tracked objects:
  6531 ;;		On entry : 0/0
  6532 ;;		On exit  : 0/0
  6533 ;;		Unchanged: 0/0
  6534 ;; Data sizes:     COMMON   BANK0   BANK1   BANK2   BANK3   BANK4   BANK5   BANK6   BANK7   BANK8   BANK9  BANK10  BANK1
      +1  BANK12  BANK13  BANK14  BANK15  BANK16  BANK17  BANK18  BANK19  BANK20  BANK21  BANK22  BANK23  BANK24  BANK25
  6535 ;;      Params:         0       0       0       0       0       0       0       0       0       0       0       0       
      +0       0       0       0       0       0       0       0       0       0       0       0       0       0       0
  6536 ;;      Locals:         1       0       0       0       0       0       0       0       0       0       0       0       
      +0       0       0       0       0       0       0       0       0       0       0       0       0       0       0
  6537 ;;      Temps:          0       0       0       0       0       0       0       0       0       0       0       0       
      +0       0       0       0       0       0       0       0       0       0       0       0       0       0       0
  6538 ;;      Totals:         1       0       0       0       0       0       0       0       0       0       0       0       
      +0       0       0       0       0       0       0       0       0       0       0       0       0       0       0
  6539 ;;Total ram usage:        1 bytes
  6540 ;; Hardware stack levels used: 1
  6541 ;; Hardware stack levels required when called: 2
  6542 ;; This function calls:
  6543 ;;		_millis
  6544 ;; This function is called by:
  6545 ;;		_readRangeContinuousMm
  6546 ;;		_getSpadInfo
  6547 ;;		_performSingleRefCal
  6548 ;;		_readRangeSingleMm
  6549 ;; This function uses a non-reentrant model
  6550 ;;
  6551                           
  6552     142A                     _startTimeout:	
  6553                           ;psect for function _startTimeout
  6554                           
  6555                           
  6556                           ;incstack = 0
  6557                           ; Regs used in _startTimeout: [wreg+fsr1l+fsr1h+status,2+status,0+pclath+cstack]
  6558                           ;startTimeout@dev stored from wreg
  6559     142A  00F8               	movwf	startTimeout@dev
  6560     142B                     l2410:
  6561                           
  6562                           ;main.c: 303: static void startTimeout(VL53L0X_Dev_t *dev);main.c: 304: {;main.c: 305:  
      +                             dev->timeout_start_ms = millis();
  6563     142B  3194  244F  3194   	fcall	_millis
  6564     142E  0878               	movf	startTimeout@dev,w
  6565     142F  3E08               	addlw	8
  6566     1430  0086               	movwf	6
  6567     1431  0187               	clrf	7
  6568     1432  0870               	movf	?_millis,w
  6569     1433  3FC0               	movwi [0]fsr1
  6570     1434  0871               	movf	?_millis+1,w
  6571     1435  3FC1               	movwi [1]fsr1
  6572     1436  0872               	movf	?_millis+2,w
  6573     1437  3FC2               	movwi [2]fsr1
  6574     1438  0873               	movf	?_millis+3,w
  6575     1439  3FC3               	movwi [3]fsr1
  6576     143A                     l312:
  6577     143A  0008               	return
  6578     143B                     __end_of_startTimeout:
  6579                           
  6580                           	psect	text19
  6581     0944                     __ptext19:	
  6582 ;; *************** function _checkTimeoutExpired *****************
  6583 ;; Defined at:
  6584 ;;		line 308 in file "main.c"
  6585 ;; Parameters:    Size  Location     Type
  6586 ;;  dev             1    wreg     PTR struct .
  6587 ;;		 -> main@sensor(16), 
  6588 ;; Auto vars:     Size  Location     Type
  6589 ;;  dev             1    9[COMMON] PTR struct .
  6590 ;;		 -> main@sensor(16), 
  6591 ;; Return value:  Size  Location     Type
  6592 ;;                  1    wreg      _Bool 
  6593 ;; Registers used:
  6594 ;;		wreg, fsr1l, fsr1h, status,2, status,0, pclath, cstack
  6595 ;; Tracked objects:
  6596 ;;		On entry : 0/0
  6597 ;;		On exit  : 0/0
  6598 ;;		Unchanged: 0/0
  6599 ;; Data sizes:     COMMON   BANK0   BANK1   BANK2   BANK3   BANK4   BANK5   BANK6   BANK7   BANK8   BANK9  BANK10  BANK1
      +1  BANK12  BANK13  BANK14  BANK15  BANK16  BANK17  BANK18  BANK19  BANK20  BANK21  BANK22  BANK23  BANK24  BANK25
  6600 ;;      Params:         0       0       0       0       0       0       0       0       0       0       0       0       
      +0       0       0       0       0       0       0       0       0       0       0       0       0       0       0
  6601 ;;      Locals:         2       0       0       0       0       0       0       0       0       0       0       0       
      +0       0       0       0       0       0       0       0       0       0       0       0       0       0       0
  6602 ;;      Temps:          0      12       0       0       0       0       0       0       0       0       0       0       
      +0       0       0       0       0       0       0       0       0       0       0       0       0       0       0
  6603 ;;      Totals:         2      12       0       0       0       0       0       0       0       0       0       0       
      +0       0       0       0       0       0       0       0       0       0       0       0       0       0       0
  6604 ;;Total ram usage:       14 bytes
  6605 ;; Hardware stack levels used: 1
  6606 ;; Hardware stack levels required when called: 2
  6607 ;; This function calls:
  6608 ;;		_millis
  6609 ;; This function is called by:
  6610 ;;		_readRangeContinuousMm
  6611 ;;		_getSpadInfo
  6612 ;;		_performSingleRefCal
  6613 ;;		_readRangeSingleMm
  6614 ;; This function uses a non-reentrant model
  6615 ;;
  6616                           
  6617     0944                     _checkTimeoutExpired:	
  6618                           ;psect for function _checkTimeoutExpired
  6619                           
  6620                           
  6621                           ;incstack = 0
  6622                           ; Regs used in _checkTimeoutExpired: [wreg+fsr1l+fsr1h+status,2+status,0+pclath+cstack]
  6623                           ;checkTimeoutExpired@dev stored from wreg
  6624     0944  00F9               	movwf	checkTimeoutExpired@dev
  6625     0945                     l2412:
  6626                           
  6627                           ;main.c: 308: static _Bool checkTimeoutExpired(VL53L0X_Dev_t *dev);main.c: 309: {;main.c
      +                          : 310:     return (dev->io_timeout > 0 &&
  6628     0945  01F8               	clrf	_checkTimeoutExpired$801
  6629     0946                     l2414:
  6630     0946  0879               	movf	checkTimeoutExpired@dev,w
  6631     0947  3E04               	addlw	4
  6632     0948  0086               	movwf	6
  6633     0949  0187               	clrf	7
  6634     094A  3F40               	moviw [0]fsr1
  6635     094B  0020               	movlb	0	; select bank0
  6636     094C  00A0               	movwf	??_checkTimeoutExpired
  6637     094D  3F41               	moviw [1]fsr1
  6638     094E  00A1               	movwf	??_checkTimeoutExpired+1
  6639     094F  3F42               	moviw [2]fsr1
  6640     0950  00A2               	movwf	??_checkTimeoutExpired+2
  6641     0951  3F43               	moviw [3]fsr1
  6642     0952  00A3               	movwf	??_checkTimeoutExpired+3
  6643     0953  0823               	movf	??_checkTimeoutExpired+3,w
  6644     0954  0422               	iorwf	??_checkTimeoutExpired+2,w
  6645     0955  0421               	iorwf	??_checkTimeoutExpired+1,w
  6646     0956  0420               	iorwf	??_checkTimeoutExpired,w
  6647     0957  1903               	skipnz
  6648     0958  295A               	goto	u2141
  6649     0959  295B               	goto	u2140
  6650     095A                     u2141:
  6651     095A  299B               	goto	l2420
  6652     095B                     u2140:
  6653     095B                     l2416:
  6654     095B  0879               	movf	checkTimeoutExpired@dev,w
  6655     095C  3E08               	addlw	8
  6656     095D  0086               	movwf	6
  6657     095E  0187               	clrf	7
  6658     095F  3F40               	moviw [0]fsr1
  6659     0960  00A0               	movwf	??_checkTimeoutExpired
  6660     0961  3F41               	moviw [1]fsr1
  6661     0962  00A1               	movwf	??_checkTimeoutExpired+1
  6662     0963  3F42               	moviw [2]fsr1
  6663     0964  00A2               	movwf	??_checkTimeoutExpired+2
  6664     0965  3F43               	moviw [3]fsr1
  6665     0966  00A3               	movwf	??_checkTimeoutExpired+3
  6666     0967  3194  244F  3189   	fcall	_millis
  6667     096A  0870               	movf	?_millis,w
  6668     096B  0020               	movlb	0	; select bank0
  6669     096C  00A4               	movwf	??_checkTimeoutExpired+4
  6670     096D  0871               	movf	?_millis+1,w
  6671     096E  00A5               	movwf	??_checkTimeoutExpired+5
  6672     096F  0872               	movf	?_millis+2,w
  6673     0970  00A6               	movwf	??_checkTimeoutExpired+6
  6674     0971  0873               	movf	?_millis+3,w
  6675     0972  00A7               	movwf	??_checkTimeoutExpired+7
  6676     0973  0820               	movf	??_checkTimeoutExpired,w
  6677     0974  02A4               	subwf	??_checkTimeoutExpired+4,f
  6678     0975  0821               	movf	??_checkTimeoutExpired+1,w
  6679     0976  3BA5               	subwfb	??_checkTimeoutExpired+5,f
  6680     0977  0822               	movf	??_checkTimeoutExpired+2,w
  6681     0978  3BA6               	subwfb	??_checkTimeoutExpired+6,f
  6682     0979  0823               	movf	??_checkTimeoutExpired+3,w
  6683     097A  3BA7               	subwfb	??_checkTimeoutExpired+7,f
  6684     097B  0879               	movf	checkTimeoutExpired@dev,w
  6685     097C  3E04               	addlw	4
  6686     097D  0086               	movwf	6
  6687     097E  0187               	clrf	7
  6688     097F  3F40               	moviw [0]fsr1
  6689     0980  00A8               	movwf	??_checkTimeoutExpired+8
  6690     0981  3F41               	moviw [1]fsr1
  6691     0982  00A9               	movwf	??_checkTimeoutExpired+9
  6692     0983  3F42               	moviw [2]fsr1
  6693     0984  00AA               	movwf	??_checkTimeoutExpired+10
  6694     0985  3F43               	moviw [3]fsr1
  6695     0986  00AB               	movwf	??_checkTimeoutExpired+11
  6696     0987  0827               	movf	??_checkTimeoutExpired+7,w
  6697     0988  022B               	subwf	??_checkTimeoutExpired+11,w
  6698     0989  1D03               	skipz
  6699     098A  2995               	goto	u2155
  6700     098B  0826               	movf	??_checkTimeoutExpired+6,w
  6701     098C  022A               	subwf	??_checkTimeoutExpired+10,w
  6702     098D  1D03               	skipz
  6703     098E  2995               	goto	u2155
  6704     098F  0825               	movf	??_checkTimeoutExpired+5,w
  6705     0990  0229               	subwf	??_checkTimeoutExpired+9,w
  6706     0991  1D03               	skipz
  6707     0992  2995               	goto	u2155
  6708     0993  0824               	movf	??_checkTimeoutExpired+4,w
  6709     0994  0228               	subwf	??_checkTimeoutExpired+8,w
  6710     0995                     u2155:
  6711     0995  1803               	skipnc
  6712     0996  2998               	goto	u2151
  6713     0997  2999               	goto	u2150
  6714     0998                     u2151:
  6715     0998  299B               	goto	l2420
  6716     0999                     u2150:
  6717     0999                     l2418:
  6718     0999  01F8               	clrf	_checkTimeoutExpired$801
  6719     099A  0AF8               	incf	_checkTimeoutExpired$801,f
  6720     099B                     l2420:
  6721     099B  0878               	movf	_checkTimeoutExpired$801,w
  6722     099C                     l317:
  6723     099C  0008               	return
  6724     099D                     __end_of_checkTimeoutExpired:
  6725                           
  6726                           	psect	text20
  6727     144F                     __ptext20:	
  6728 ;; *************** function _millis *****************
  6729 ;; Defined at:
  6730 ;;		line 77 in file "main.c"
  6731 ;; Parameters:    Size  Location     Type
  6732 ;;		None
  6733 ;; Auto vars:     Size  Location     Type
  6734 ;;  val             4    4[COMMON] unsigned long 
  6735 ;; Return value:  Size  Location     Type
  6736 ;;                  4    0[COMMON] unsigned long 
  6737 ;; Registers used:
  6738 ;;		wreg
  6739 ;; Tracked objects:
  6740 ;;		On entry : 0/0
  6741 ;;		On exit  : 0/0
  6742 ;;		Unchanged: 0/0
  6743 ;; Data sizes:     COMMON   BANK0   BANK1   BANK2   BANK3   BANK4   BANK5   BANK6   BANK7   BANK8   BANK9  BANK10  BANK1
      +1  BANK12  BANK13  BANK14  BANK15  BANK16  BANK17  BANK18  BANK19  BANK20  BANK21  BANK22  BANK23  BANK24  BANK25
  6744 ;;      Params:         4       0       0       0       0       0       0       0       0       0       0       0       
      +0       0       0       0       0       0       0       0       0       0       0       0       0       0       0
  6745 ;;      Locals:         4       0       0       0       0       0       0       0       0       0       0       0       
      +0       0       0       0       0       0       0       0       0       0       0       0       0       0       0
  6746 ;;      Temps:          0       0       0       0       0       0       0       0       0       0       0       0       
      +0       0       0       0       0       0       0       0       0       0       0       0       0       0       0
  6747 ;;      Totals:         8       0       0       0       0       0       0       0       0       0       0       0       
      +0       0       0       0       0       0       0       0       0       0       0       0       0       0       0
  6748 ;;Total ram usage:        8 bytes
  6749 ;; Hardware stack levels used: 1
  6750 ;; Hardware stack levels required when called: 1
  6751 ;; This function calls:
  6752 ;;		Nothing
  6753 ;; This function is called by:
  6754 ;;		_startTimeout
  6755 ;;		_checkTimeoutExpired
  6756 ;; This function uses a non-reentrant model
  6757 ;;
  6758                           
  6759     144F                     _millis:	
  6760                           ;psect for function _millis
  6761                           
  6762     144F                     l2318:	
  6763                           ;incstack = 0
  6764                           ; Regs used in _millis: [wreg]
  6765                           
  6766                           
  6767                           ;main.c: 79:     uint32_t val;;main.c: 80:     INTCONbits.GIE = 0;
  6768     144F  138B               	bcf	11,7	;volatile
  6769     1450                     l2320:
  6770                           
  6771                           ;main.c: 81:     val = millis_counter;
  6772     1450  0021               	movlb	1	; select bank1
  6773     1451  086D               	movf	(_millis_counter+3)^(0+128),w	;volatile
  6774     1452  00F7               	movwf	millis@val+3
  6775     1453  086C               	movf	(_millis_counter+2)^(0+128),w	;volatile
  6776     1454  00F6               	movwf	millis@val+2
  6777     1455  086B               	movf	(_millis_counter+1)^(0+128),w	;volatile
  6778     1456  00F5               	movwf	millis@val+1
  6779     1457  086A               	movf	_millis_counter^(0+128),w	;volatile
  6780     1458  00F4               	movwf	millis@val
  6781     1459                     l2322:
  6782                           
  6783                           ;main.c: 82:     INTCONbits.GIE = 1;
  6784     1459  178B               	bsf	11,7	;volatile
  6785                           
  6786                           ;main.c: 83:     return val;
  6787     145A  0877               	movf	millis@val+3,w
  6788     145B  00F3               	movwf	?_millis+3
  6789     145C  0876               	movf	millis@val+2,w
  6790     145D  00F2               	movwf	?_millis+2
  6791     145E  0875               	movf	millis@val+1,w
  6792     145F  00F1               	movwf	?_millis+1
  6793     1460  0874               	movf	millis@val,w
  6794     1461  00F0               	movwf	?_millis
  6795     1462                     l259:
  6796     1462  0008               	return
  6797     1463                     __end_of_millis:
  6798                           
  6799                           	psect	text21
  6800     0F20                     __ptext21:	
  6801 ;; *************** function _getMeasurementTimingBudget *****************
  6802 ;; Defined at:
  6803 ;;		line 522 in file "main.c"
  6804 ;; Parameters:    Size  Location     Type
  6805 ;;  dev             1    wreg     PTR struct .
  6806 ;;		 -> main@sensor(16), 
  6807 ;; Auto vars:     Size  Location     Type
  6808 ;;  dev             1   50[BANK0 ] PTR struct .
  6809 ;;		 -> main@sensor(16), 
  6810 ;;  to             22   56[BANK0 ] struct .
  6811 ;;  en              5   51[BANK0 ] struct .
  6812 ;;  budget          4   46[BANK0 ] unsigned long 
  6813 ;; Return value:  Size  Location     Type
  6814 ;;                  4   34[BANK0 ] unsigned long 
  6815 ;; Registers used:
  6816 ;;		wreg, fsr1l, fsr1h, status,2, status,0, pclath, cstack
  6817 ;; Tracked objects:
  6818 ;;		On entry : 0/0
  6819 ;;		On exit  : 0/0
  6820 ;;		Unchanged: 0/0
  6821 ;; Data sizes:     COMMON   BANK0   BANK1   BANK2   BANK3   BANK4   BANK5   BANK6   BANK7   BANK8   BANK9  BANK10  BANK1
      +1  BANK12  BANK13  BANK14  BANK15  BANK16  BANK17  BANK18  BANK19  BANK20  BANK21  BANK22  BANK23  BANK24  BANK25
  6822 ;;      Params:         0       4       0       0       0       0       0       0       0       0       0       0       
      +0       0       0       0       0       0       0       0       0       0       0       0       0       0       0
  6823 ;;      Locals:         0      32       0       0       0       0       0       0       0       0       0       0       
      +0       0       0       0       0       0       0       0       0       0       0       0       0       0       0
  6824 ;;      Temps:          0       8       0       0       0       0       0       0       0       0       0       0       
      +0       0       0       0       0       0       0       0       0       0       0       0       0       0       0
  6825 ;;      Totals:         0      44       0       0       0       0       0       0       0       0       0       0       
      +0       0       0       0       0       0       0       0       0       0       0       0       0       0       0
  6826 ;;Total ram usage:       44 bytes
  6827 ;; Hardware stack levels used: 1
  6828 ;; Hardware stack levels required when called: 7
  6829 ;; This function calls:
  6830 ;;		_getSequenceStepEnables
  6831 ;;		_getSequenceStepTimeouts
  6832 ;; This function is called by:
  6833 ;;		_VL53L0X_Init
  6834 ;; This function uses a non-reentrant model
  6835 ;;
  6836                           
  6837     0F20                     _getMeasurementTimingBudget:	
  6838                           ;psect for function _getMeasurementTimingBudget
  6839                           
  6840                           
  6841                           ;incstack = 0
  6842                           ; Regs used in _getMeasurementTimingBudget: [wreg+fsr1l+fsr1h+status,2+status,0+pclath+c
      +                          stack]
  6843                           ;getMeasurementTimingBudget@dev stored from wreg
  6844     0F20  0020               	movlb	0	; select bank0
  6845     0F21  00D2               	movwf	getMeasurementTimingBudget@dev
  6846     0F22                     l2636:
  6847                           
  6848                           ;main.c: 522: static uint32_t getMeasurementTimingBudget(VL53L0X_Dev_t *dev);main.c: 523
      +                          : {;main.c: 524:     SeqEnables_t en;;main.c: 525:     SeqTimeouts_t to;;main.c: 527:   
      +                            uint32_t budget = 1910 + 960;
  6849     0F22  3000               	movlw	0
  6850     0F23  00D1               	movwf	getMeasurementTimingBudget@budget+3
  6851     0F24  3000               	movlw	0
  6852     0F25  00D0               	movwf	getMeasurementTimingBudget@budget+2
  6853     0F26  300B               	movlw	11
  6854     0F27  00CF               	movwf	getMeasurementTimingBudget@budget+1
  6855     0F28  3036               	movlw	54
  6856     0F29  00CE               	movwf	getMeasurementTimingBudget@budget
  6857     0F2A                     l2638:
  6858                           
  6859                           ;main.c: 529:     getSequenceStepEnables(dev, &en);
  6860     0F2A  3053               	movlw	(low (getMeasurementTimingBudget@en| 0))& (0+255)
  6861     0F2B  00A4               	movwf	getSequenceStepEnables@en
  6862     0F2C  0852               	movf	getMeasurementTimingBudget@dev,w
  6863     0F2D  3189  21F8  318F   	fcall	_getSequenceStepEnables
  6864     0F30                     l2640:
  6865                           
  6866                           ;main.c: 530:     getSequenceStepTimeouts(dev, &en, &to);
  6867     0F30  3053               	movlw	(low (getMeasurementTimingBudget@en| 0))& (0+255)
  6868     0F31  0020               	movlb	0	; select bank0
  6869     0F32  00BD               	movwf	getSequenceStepTimeouts@en
  6870     0F33  3058               	movlw	(low (getMeasurementTimingBudget@to| 0))& (0+255)
  6871     0F34  00BE               	movwf	getSequenceStepTimeouts@to
  6872     0F35  0852               	movf	getMeasurementTimingBudget@dev,w
  6873     0F36  318E  2648  318F   	fcall	_getSequenceStepTimeouts
  6874     0F39                     l2642:
  6875                           
  6876                           ;main.c: 532:     if (en.tcc) budget += (to.msrc_dss_tcc_us + 590);
  6877     0F39  0020               	movlb	0	; select bank0
  6878     0F3A  0853               	movf	getMeasurementTimingBudget@en,w
  6879     0F3B  1903               	btfsc	3,2
  6880     0F3C  2F3E               	goto	u2711
  6881     0F3D  2F3F               	goto	u2710
  6882     0F3E                     u2711:
  6883     0F3E  2F5B               	goto	l2646
  6884     0F3F                     u2710:
  6885     0F3F                     l2644:
  6886     0F3F  304E               	movlw	78
  6887     0F40  00C6               	movwf	??_getMeasurementTimingBudget
  6888     0F41  3002               	movlw	2
  6889     0F42  00C7               	movwf	??_getMeasurementTimingBudget+1
  6890     0F43  3000               	movlw	0
  6891     0F44  00C8               	movwf	??_getMeasurementTimingBudget+2
  6892     0F45  3000               	movlw	0
  6893     0F46  00C9               	movwf	??_getMeasurementTimingBudget+3
  6894     0F47  300A               	movlw	10
  6895     0F48  3E58               	addlw	(low (getMeasurementTimingBudget@to| 0))& (0+255)
  6896     0F49  0086               	movwf	6
  6897     0F4A  0187               	clrf	7
  6898     0F4B  3F40               	moviw [0]fsr1
  6899     0F4C  07C6               	addwf	??_getMeasurementTimingBudget,f
  6900     0F4D  3F41               	moviw [1]fsr1
  6901     0F4E  3DC7               	addwfc	??_getMeasurementTimingBudget+1,f
  6902     0F4F  3F42               	moviw [2]fsr1
  6903     0F50  3DC8               	addwfc	??_getMeasurementTimingBudget+2,f
  6904     0F51  3F43               	moviw [3]fsr1
  6905     0F52  3DC9               	addwfc	??_getMeasurementTimingBudget+3,f
  6906     0F53  0846               	movf	??_getMeasurementTimingBudget,w
  6907     0F54  07CE               	addwf	getMeasurementTimingBudget@budget,f
  6908     0F55  0847               	movf	??_getMeasurementTimingBudget+1,w
  6909     0F56  3DCF               	addwfc	getMeasurementTimingBudget@budget+1,f
  6910     0F57  0848               	movf	??_getMeasurementTimingBudget+2,w
  6911     0F58  3DD0               	addwfc	getMeasurementTimingBudget@budget+2,f
  6912     0F59  0849               	movf	??_getMeasurementTimingBudget+3,w
  6913     0F5A  3DD1               	addwfc	getMeasurementTimingBudget@budget+3,f
  6914     0F5B                     l2646:
  6915                           
  6916                           ;main.c: 533:     if (en.dss) budget += 2 * (to.msrc_dss_tcc_us + 690);
  6917     0F5B  0855               	movf	getMeasurementTimingBudget@en+2,w
  6918     0F5C  1903               	btfsc	3,2
  6919     0F5D  2F5F               	goto	u2721
  6920     0F5E  2F60               	goto	u2720
  6921     0F5F                     u2721:
  6922     0F5F  2F88               	goto	l2650
  6923     0F60                     u2720:
  6924     0F60                     l2648:
  6925     0F60  3064               	movlw	100
  6926     0F61  00C6               	movwf	??_getMeasurementTimingBudget
  6927     0F62  3005               	movlw	5
  6928     0F63  00C7               	movwf	??_getMeasurementTimingBudget+1
  6929     0F64  3000               	movlw	0
  6930     0F65  00C8               	movwf	??_getMeasurementTimingBudget+2
  6931     0F66  3000               	movlw	0
  6932     0F67  00C9               	movwf	??_getMeasurementTimingBudget+3
  6933     0F68  0862               	movf	getMeasurementTimingBudget@to+10,w
  6934     0F69  00CA               	movwf	??_getMeasurementTimingBudget+4
  6935     0F6A  0863               	movf	getMeasurementTimingBudget@to+11,w
  6936     0F6B  00CB               	movwf	??_getMeasurementTimingBudget+5
  6937     0F6C  0864               	movf	getMeasurementTimingBudget@to+12,w
  6938     0F6D  00CC               	movwf	??_getMeasurementTimingBudget+6
  6939     0F6E  0865               	movf	getMeasurementTimingBudget@to+13,w
  6940     0F6F  00CD               	movwf	??_getMeasurementTimingBudget+7
  6941     0F70  3001               	movlw	1
  6942     0F71                     u2735:
  6943     0F71  35CA               	lslf	??_getMeasurementTimingBudget+4,f
  6944     0F72  0DCB               	rlf	??_getMeasurementTimingBudget+5,f
  6945     0F73  0DCC               	rlf	??_getMeasurementTimingBudget+6,f
  6946     0F74  0DCD               	rlf	??_getMeasurementTimingBudget+7,f
  6947     0F75                     u2730:
  6948     0F75  0B89               	decfsz	9,f
  6949     0F76  2F71               	goto	u2735
  6950     0F77  084A               	movf	??_getMeasurementTimingBudget+4,w
  6951     0F78  07C6               	addwf	??_getMeasurementTimingBudget,f
  6952     0F79  084B               	movf	??_getMeasurementTimingBudget+5,w
  6953     0F7A  3DC7               	addwfc	??_getMeasurementTimingBudget+1,f
  6954     0F7B  084C               	movf	??_getMeasurementTimingBudget+6,w
  6955     0F7C  3DC8               	addwfc	??_getMeasurementTimingBudget+2,f
  6956     0F7D  084D               	movf	??_getMeasurementTimingBudget+7,w
  6957     0F7E  3DC9               	addwfc	??_getMeasurementTimingBudget+3,f
  6958     0F7F  0846               	movf	??_getMeasurementTimingBudget,w
  6959     0F80  07CE               	addwf	getMeasurementTimingBudget@budget,f
  6960     0F81  0847               	movf	??_getMeasurementTimingBudget+1,w
  6961     0F82  3DCF               	addwfc	getMeasurementTimingBudget@budget+1,f
  6962     0F83  0848               	movf	??_getMeasurementTimingBudget+2,w
  6963     0F84  3DD0               	addwfc	getMeasurementTimingBudget@budget+2,f
  6964     0F85  0849               	movf	??_getMeasurementTimingBudget+3,w
  6965     0F86  3DD1               	addwfc	getMeasurementTimingBudget@budget+3,f
  6966     0F87  2FA9               	goto	l2654
  6967     0F88                     l2650:
  6968     0F88  0854               	movf	getMeasurementTimingBudget@en+1,w
  6969     0F89  1903               	btfsc	3,2
  6970     0F8A  2F8C               	goto	u2741
  6971     0F8B  2F8D               	goto	u2740
  6972     0F8C                     u2741:
  6973     0F8C  2FA9               	goto	l2654
  6974     0F8D                     u2740:
  6975     0F8D                     l2652:
  6976     0F8D  3094               	movlw	148
  6977     0F8E  00C6               	movwf	??_getMeasurementTimingBudget
  6978     0F8F  3002               	movlw	2
  6979     0F90  00C7               	movwf	??_getMeasurementTimingBudget+1
  6980     0F91  3000               	movlw	0
  6981     0F92  00C8               	movwf	??_getMeasurementTimingBudget+2
  6982     0F93  3000               	movlw	0
  6983     0F94  00C9               	movwf	??_getMeasurementTimingBudget+3
  6984     0F95  300A               	movlw	10
  6985     0F96  3E58               	addlw	(low (getMeasurementTimingBudget@to| 0))& (0+255)
  6986     0F97  0086               	movwf	6
  6987     0F98  0187               	clrf	7
  6988     0F99  3F40               	moviw [0]fsr1
  6989     0F9A  07C6               	addwf	??_getMeasurementTimingBudget,f
  6990     0F9B  3F41               	moviw [1]fsr1
  6991     0F9C  3DC7               	addwfc	??_getMeasurementTimingBudget+1,f
  6992     0F9D  3F42               	moviw [2]fsr1
  6993     0F9E  3DC8               	addwfc	??_getMeasurementTimingBudget+2,f
  6994     0F9F  3F43               	moviw [3]fsr1
  6995     0FA0  3DC9               	addwfc	??_getMeasurementTimingBudget+3,f
  6996     0FA1  0846               	movf	??_getMeasurementTimingBudget,w
  6997     0FA2  07CE               	addwf	getMeasurementTimingBudget@budget,f
  6998     0FA3  0847               	movf	??_getMeasurementTimingBudget+1,w
  6999     0FA4  3DCF               	addwfc	getMeasurementTimingBudget@budget+1,f
  7000     0FA5  0848               	movf	??_getMeasurementTimingBudget+2,w
  7001     0FA6  3DD0               	addwfc	getMeasurementTimingBudget@budget+2,f
  7002     0FA7  0849               	movf	??_getMeasurementTimingBudget+3,w
  7003     0FA8  3DD1               	addwfc	getMeasurementTimingBudget@budget+3,f
  7004     0FA9                     l2654:
  7005                           
  7006                           ;main.c: 535:     if (en.pre_range) budget += (to.pre_range_us + 660);
  7007     0FA9  0856               	movf	getMeasurementTimingBudget@en+3,w
  7008     0FAA  1903               	btfsc	3,2
  7009     0FAB  2FAD               	goto	u2751
  7010     0FAC  2FAE               	goto	u2750
  7011     0FAD                     u2751:
  7012     0FAD  2FCA               	goto	l2658
  7013     0FAE                     u2750:
  7014     0FAE                     l2656:
  7015     0FAE  3094               	movlw	148
  7016     0FAF  00C6               	movwf	??_getMeasurementTimingBudget
  7017     0FB0  3002               	movlw	2
  7018     0FB1  00C7               	movwf	??_getMeasurementTimingBudget+1
  7019     0FB2  3000               	movlw	0
  7020     0FB3  00C8               	movwf	??_getMeasurementTimingBudget+2
  7021     0FB4  3000               	movlw	0
  7022     0FB5  00C9               	movwf	??_getMeasurementTimingBudget+3
  7023     0FB6  300E               	movlw	14
  7024     0FB7  3E58               	addlw	(low (getMeasurementTimingBudget@to| 0))& (0+255)
  7025     0FB8  0086               	movwf	6
  7026     0FB9  0187               	clrf	7
  7027     0FBA  3F40               	moviw [0]fsr1
  7028     0FBB  07C6               	addwf	??_getMeasurementTimingBudget,f
  7029     0FBC  3F41               	moviw [1]fsr1
  7030     0FBD  3DC7               	addwfc	??_getMeasurementTimingBudget+1,f
  7031     0FBE  3F42               	moviw [2]fsr1
  7032     0FBF  3DC8               	addwfc	??_getMeasurementTimingBudget+2,f
  7033     0FC0  3F43               	moviw [3]fsr1
  7034     0FC1  3DC9               	addwfc	??_getMeasurementTimingBudget+3,f
  7035     0FC2  0846               	movf	??_getMeasurementTimingBudget,w
  7036     0FC3  07CE               	addwf	getMeasurementTimingBudget@budget,f
  7037     0FC4  0847               	movf	??_getMeasurementTimingBudget+1,w
  7038     0FC5  3DCF               	addwfc	getMeasurementTimingBudget@budget+1,f
  7039     0FC6  0848               	movf	??_getMeasurementTimingBudget+2,w
  7040     0FC7  3DD0               	addwfc	getMeasurementTimingBudget@budget+2,f
  7041     0FC8  0849               	movf	??_getMeasurementTimingBudget+3,w
  7042     0FC9  3DD1               	addwfc	getMeasurementTimingBudget@budget+3,f
  7043     0FCA                     l2658:
  7044                           
  7045                           ;main.c: 536:     if (en.final_range) budget += (to.final_range_us + 550);
  7046     0FCA  0857               	movf	getMeasurementTimingBudget@en+4,w
  7047     0FCB  1903               	btfsc	3,2
  7048     0FCC  2FCE               	goto	u2761
  7049     0FCD  2FCF               	goto	u2760
  7050     0FCE                     u2761:
  7051     0FCE  2FEB               	goto	l354
  7052     0FCF                     u2760:
  7053     0FCF                     l2660:
  7054     0FCF  3026               	movlw	38
  7055     0FD0  00C6               	movwf	??_getMeasurementTimingBudget
  7056     0FD1  3002               	movlw	2
  7057     0FD2  00C7               	movwf	??_getMeasurementTimingBudget+1
  7058     0FD3  3000               	movlw	0
  7059     0FD4  00C8               	movwf	??_getMeasurementTimingBudget+2
  7060     0FD5  3000               	movlw	0
  7061     0FD6  00C9               	movwf	??_getMeasurementTimingBudget+3
  7062     0FD7  3012               	movlw	18
  7063     0FD8  3E58               	addlw	(low (getMeasurementTimingBudget@to| 0))& (0+255)
  7064     0FD9  0086               	movwf	6
  7065     0FDA  0187               	clrf	7
  7066     0FDB  3F40               	moviw [0]fsr1
  7067     0FDC  07C6               	addwf	??_getMeasurementTimingBudget,f
  7068     0FDD  3F41               	moviw [1]fsr1
  7069     0FDE  3DC7               	addwfc	??_getMeasurementTimingBudget+1,f
  7070     0FDF  3F42               	moviw [2]fsr1
  7071     0FE0  3DC8               	addwfc	??_getMeasurementTimingBudget+2,f
  7072     0FE1  3F43               	moviw [3]fsr1
  7073     0FE2  3DC9               	addwfc	??_getMeasurementTimingBudget+3,f
  7074     0FE3  0846               	movf	??_getMeasurementTimingBudget,w
  7075     0FE4  07CE               	addwf	getMeasurementTimingBudget@budget,f
  7076     0FE5  0847               	movf	??_getMeasurementTimingBudget+1,w
  7077     0FE6  3DCF               	addwfc	getMeasurementTimingBudget@budget+1,f
  7078     0FE7  0848               	movf	??_getMeasurementTimingBudget+2,w
  7079     0FE8  3DD0               	addwfc	getMeasurementTimingBudget@budget+2,f
  7080     0FE9  0849               	movf	??_getMeasurementTimingBudget+3,w
  7081     0FEA  3DD1               	addwfc	getMeasurementTimingBudget@budget+3,f
  7082     0FEB                     l354:
  7083                           
  7084                           ;main.c: 538:     dev->measurement_timing_budget_us = budget;
  7085     0FEB  0852               	movf	getMeasurementTimingBudget@dev,w
  7086     0FEC  3E0C               	addlw	12
  7087     0FED  0086               	movwf	6
  7088     0FEE  0187               	clrf	7
  7089     0FEF  084E               	movf	getMeasurementTimingBudget@budget,w
  7090     0FF0  3FC0               	movwi [0]fsr1
  7091     0FF1  084F               	movf	getMeasurementTimingBudget@budget+1,w
  7092     0FF2  3FC1               	movwi [1]fsr1
  7093     0FF3  0850               	movf	getMeasurementTimingBudget@budget+2,w
  7094     0FF4  3FC2               	movwi [2]fsr1
  7095     0FF5  0851               	movf	getMeasurementTimingBudget@budget+3,w
  7096     0FF6  3FC3               	movwi [3]fsr1
  7097     0FF7                     l2662:
  7098                           
  7099                           ;main.c: 539:     return budget;
  7100     0FF7  0851               	movf	getMeasurementTimingBudget@budget+3,w
  7101     0FF8  00C5               	movwf	?_getMeasurementTimingBudget+3
  7102     0FF9  0850               	movf	getMeasurementTimingBudget@budget+2,w
  7103     0FFA  00C4               	movwf	?_getMeasurementTimingBudget+2
  7104     0FFB  084F               	movf	getMeasurementTimingBudget@budget+1,w
  7105     0FFC  00C3               	movwf	?_getMeasurementTimingBudget+1
  7106     0FFD  084E               	movf	getMeasurementTimingBudget@budget,w
  7107     0FFE  00C2               	movwf	?_getMeasurementTimingBudget
  7108     0FFF                     l355:
  7109     0FFF  0008               	return
  7110     1000                     __end_of_getMeasurementTimingBudget:
  7111                           
  7112                           	psect	text22
  7113     0E48                     __ptext22:	
  7114 ;; *************** function _getSequenceStepTimeouts *****************
  7115 ;; Defined at:
  7116 ;;		line 777 in file "main.c"
  7117 ;; Parameters:    Size  Location     Type
  7118 ;;  dev             1    wreg     PTR struct .
  7119 ;;		 -> main@sensor(16), 
  7120 ;;  en              1   29[BANK0 ] PTR struct .
  7121 ;;		 -> setVcselPulsePeriod@en(5), getMeasurementTimingBudget@en(5), setMeasurementTimingBudget@en(5), 
  7122 ;;  to              1   30[BANK0 ] PTR struct .
  7123 ;;		 -> setVcselPulsePeriod@to(22), getMeasurementTimingBudget@to(22), setMeasurementTimingBudget@to(22), 
  7124 ;; Auto vars:     Size  Location     Type
  7125 ;;  dev             1   33[BANK0 ] PTR struct .
  7126 ;;		 -> main@sensor(16), 
  7127 ;; Return value:  Size  Location     Type
  7128 ;;                  1    wreg      void 
  7129 ;; Registers used:
  7130 ;;		wreg, fsr1l, fsr1h, status,2, status,0, pclath, cstack
  7131 ;; Tracked objects:
  7132 ;;		On entry : 0/0
  7133 ;;		On exit  : 0/0
  7134 ;;		Unchanged: 0/0
  7135 ;; Data sizes:     COMMON   BANK0   BANK1   BANK2   BANK3   BANK4   BANK5   BANK6   BANK7   BANK8   BANK9  BANK10  BANK1
      +1  BANK12  BANK13  BANK14  BANK15  BANK16  BANK17  BANK18  BANK19  BANK20  BANK21  BANK22  BANK23  BANK24  BANK25
  7136 ;;      Params:         0       2       0       0       0       0       0       0       0       0       0       0       
      +0       0       0       0       0       0       0       0       0       0       0       0       0       0       0
  7137 ;;      Locals:         0       1       0       0       0       0       0       0       0       0       0       0       
      +0       0       0       0       0       0       0       0       0       0       0       0       0       0       0
  7138 ;;      Temps:          0       2       0       0       0       0       0       0       0       0       0       0       
      +0       0       0       0       0       0       0       0       0       0       0       0       0       0       0
  7139 ;;      Totals:         0       5       0       0       0       0       0       0       0       0       0       0       
      +0       0       0       0       0       0       0       0       0       0       0       0       0       0       0
  7140 ;;Total ram usage:        5 bytes
  7141 ;; Hardware stack levels used: 1
  7142 ;; Hardware stack levels required when called: 6
  7143 ;; This function calls:
  7144 ;;		_decodeTimeout
  7145 ;;		_getVcselPulsePeriod
  7146 ;;		_readReg
  7147 ;;		_readReg16
  7148 ;;		_timeoutMclksToUs
  7149 ;; This function is called by:
  7150 ;;		_setMeasurementTimingBudget
  7151 ;;		_getMeasurementTimingBudget
  7152 ;;		_setVcselPulsePeriod
  7153 ;; This function uses a non-reentrant model
  7154 ;;
  7155                           
  7156     0E48                     _getSequenceStepTimeouts:	
  7157                           ;psect for function _getSequenceStepTimeouts
  7158                           
  7159                           
  7160                           ;incstack = 0
  7161                           ; Regs used in _getSequenceStepTimeouts: [wreg+fsr1l+fsr1h+status,2+status,0+pclath+csta
      +                          ck]
  7162                           ;getSequenceStepTimeouts@dev stored from wreg
  7163     0E48  0020               	movlb	0	; select bank0
  7164     0E49  00C1               	movwf	getSequenceStepTimeouts@dev
  7165     0E4A                     l2436:
  7166                           
  7167                           ;main.c: 777: static void getSequenceStepTimeouts(VL53L0X_Dev_t *dev, SeqEnables_t *en, 
      +                          SeqTimeouts_t *to);main.c: 778: {;main.c: 779:     to->pre_range_vcsel_period_pclks = ge
      +                          tVcselPulsePeriod(dev, 0);
  7168     0E4A  01A4               	clrf	getVcselPulsePeriod@type
  7169     0E4B  0841               	movf	getSequenceStepTimeouts@dev,w
  7170     0E4C  3195  2550  318E   	fcall	_getVcselPulsePeriod
  7171     0E4F  0020               	movlb	0	; select bank0
  7172     0E50  00BF               	movwf	??_getSequenceStepTimeouts
  7173     0E51  01C0               	clrf	??_getSequenceStepTimeouts+1
  7174     0E52  083E               	movf	getSequenceStepTimeouts@to,w
  7175     0E53  0086               	movwf	6
  7176     0E54  0187               	clrf	7
  7177     0E55  083F               	movf	??_getSequenceStepTimeouts,w
  7178     0E56  3FC0               	movwi [0]fsr1
  7179     0E57  0840               	movf	??_getSequenceStepTimeouts+1,w
  7180     0E58  3FC1               	movwi [1]fsr1
  7181                           
  7182                           ;main.c: 780:     to->msrc_dss_tcc_mclks = readReg(dev, 0x46) + 1;
  7183     0E59  3046               	movlw	70
  7184     0E5A  00A0               	movwf	readReg@reg
  7185     0E5B  0841               	movf	getSequenceStepTimeouts@dev,w
  7186     0E5C  3194  24C0  318E   	fcall	_readReg
  7187     0E5F  3E01               	addlw	1
  7188     0E60  0020               	movlb	0	; select bank0
  7189     0E61  00BF               	movwf	??_getSequenceStepTimeouts
  7190     0E62  3000               	movlw	0
  7191     0E63  1803               	skipnc
  7192     0E64  3001               	movlw	1
  7193     0E65  00C0               	movwf	??_getSequenceStepTimeouts+1
  7194     0E66  083E               	movf	getSequenceStepTimeouts@to,w
  7195     0E67  3E04               	addlw	4
  7196     0E68  0086               	movwf	6
  7197     0E69  0187               	clrf	7
  7198     0E6A  083F               	movf	??_getSequenceStepTimeouts,w
  7199     0E6B  3FC0               	movwi [0]fsr1
  7200     0E6C  0840               	movf	??_getSequenceStepTimeouts+1,w
  7201     0E6D  3FC1               	movwi [1]fsr1
  7202                           
  7203                           ;main.c: 781:     to->msrc_dss_tcc_us = timeoutMclksToUs(to->msrc_dss_tcc_mclks, to->pre
      +                          _range_vcsel_period_pclks);
  7204     0E6E  083E               	movf	getSequenceStepTimeouts@to,w
  7205     0E6F  3E04               	addlw	4
  7206     0E70  0086               	movwf	6
  7207     0E71  0187               	clrf	7
  7208     0E72  3F40               	moviw [0]fsr1
  7209     0E73  00AD               	movwf	timeoutMclksToUs@mclks
  7210     0E74  3F41               	moviw [1]fsr1
  7211     0E75  00AE               	movwf	timeoutMclksToUs@mclks+1
  7212     0E76  083E               	movf	getSequenceStepTimeouts@to,w
  7213     0E77  0086               	movwf	6
  7214     0E78  0187               	clrf	7
  7215     0E79  0801               	movf	1,w
  7216     0E7A  00AF               	movwf	timeoutMclksToUs@vcsel_pclks
  7217     0E7B  318A  22B5  318E   	fcall	_timeoutMclksToUs
  7218     0E7E  0020               	movlb	0	; select bank0
  7219     0E7F  083E               	movf	getSequenceStepTimeouts@to,w
  7220     0E80  3E0A               	addlw	10
  7221     0E81  0086               	movwf	6
  7222     0E82  0187               	clrf	7
  7223     0E83  082D               	movf	?_timeoutMclksToUs,w
  7224     0E84  3FC0               	movwi [0]fsr1
  7225     0E85  082E               	movf	?_timeoutMclksToUs+1,w
  7226     0E86  3FC1               	movwi [1]fsr1
  7227     0E87  082F               	movf	?_timeoutMclksToUs+2,w
  7228     0E88  3FC2               	movwi [2]fsr1
  7229     0E89  0830               	movf	?_timeoutMclksToUs+3,w
  7230     0E8A  3FC3               	movwi [3]fsr1
  7231                           
  7232                           ;main.c: 782:     to->pre_range_mclks = decodeTimeout(readReg16(dev, 0x51));
  7233     0E8B  3051               	movlw	81
  7234     0E8C  00A0               	movwf	readReg16@reg
  7235     0E8D  0841               	movf	getSequenceStepTimeouts@dev,w
  7236     0E8E  3196  2625  318E   	fcall	_readReg16
  7237     0E91  0020               	movlb	0	; select bank0
  7238     0E92  0821               	movf	?_readReg16+1,w
  7239     0E93  00AB               	movwf	decodeTimeout@reg_val+1
  7240     0E94  0820               	movf	?_readReg16,w
  7241     0E95  00AA               	movwf	decodeTimeout@reg_val
  7242     0E96  3194  2463  318E   	fcall	_decodeTimeout
  7243     0E99  0020               	movlb	0	; select bank0
  7244     0E9A  083E               	movf	getSequenceStepTimeouts@to,w
  7245     0E9B  3E06               	addlw	6
  7246     0E9C  0086               	movwf	6
  7247     0E9D  0187               	clrf	7
  7248     0E9E  082A               	movf	?_decodeTimeout,w
  7249     0E9F  3FC0               	movwi [0]fsr1
  7250     0EA0  082B               	movf	?_decodeTimeout+1,w
  7251     0EA1  3FC1               	movwi [1]fsr1
  7252                           
  7253                           ;main.c: 783:     to->pre_range_us = timeoutMclksToUs(to->pre_range_mclks, to->pre_range
      +                          _vcsel_period_pclks);
  7254     0EA2  083E               	movf	getSequenceStepTimeouts@to,w
  7255     0EA3  3E06               	addlw	6
  7256     0EA4  0086               	movwf	6
  7257     0EA5  0187               	clrf	7
  7258     0EA6  3F40               	moviw [0]fsr1
  7259     0EA7  00AD               	movwf	timeoutMclksToUs@mclks
  7260     0EA8  3F41               	moviw [1]fsr1
  7261     0EA9  00AE               	movwf	timeoutMclksToUs@mclks+1
  7262     0EAA  083E               	movf	getSequenceStepTimeouts@to,w
  7263     0EAB  0086               	movwf	6
  7264     0EAC  0187               	clrf	7
  7265     0EAD  0801               	movf	1,w
  7266     0EAE  00AF               	movwf	timeoutMclksToUs@vcsel_pclks
  7267     0EAF  318A  22B5  318E   	fcall	_timeoutMclksToUs
  7268     0EB2  0020               	movlb	0	; select bank0
  7269     0EB3  083E               	movf	getSequenceStepTimeouts@to,w
  7270     0EB4  3E0E               	addlw	14
  7271     0EB5  0086               	movwf	6
  7272     0EB6  0187               	clrf	7
  7273     0EB7  082D               	movf	?_timeoutMclksToUs,w
  7274     0EB8  3FC0               	movwi [0]fsr1
  7275     0EB9  082E               	movf	?_timeoutMclksToUs+1,w
  7276     0EBA  3FC1               	movwi [1]fsr1
  7277     0EBB  082F               	movf	?_timeoutMclksToUs+2,w
  7278     0EBC  3FC2               	movwi [2]fsr1
  7279     0EBD  0830               	movf	?_timeoutMclksToUs+3,w
  7280     0EBE  3FC3               	movwi [3]fsr1
  7281                           
  7282                           ;main.c: 784:     to->final_range_vcsel_period_pclks = getVcselPulsePeriod(dev, 1);
  7283     0EBF  01A4               	clrf	getVcselPulsePeriod@type
  7284     0EC0  0AA4               	incf	getVcselPulsePeriod@type,f
  7285     0EC1  0841               	movf	getSequenceStepTimeouts@dev,w
  7286     0EC2  3195  2550  318E   	fcall	_getVcselPulsePeriod
  7287     0EC5  0020               	movlb	0	; select bank0
  7288     0EC6  00BF               	movwf	??_getSequenceStepTimeouts
  7289     0EC7  01C0               	clrf	??_getSequenceStepTimeouts+1
  7290     0EC8  083E               	movf	getSequenceStepTimeouts@to,w
  7291     0EC9  3E02               	addlw	2
  7292     0ECA  0086               	movwf	6
  7293     0ECB  0187               	clrf	7
  7294     0ECC  083F               	movf	??_getSequenceStepTimeouts,w
  7295     0ECD  3FC0               	movwi [0]fsr1
  7296     0ECE  0840               	movf	??_getSequenceStepTimeouts+1,w
  7297     0ECF  3FC1               	movwi [1]fsr1
  7298                           
  7299                           ;main.c: 785:     to->final_range_mclks = decodeTimeout(readReg16(dev, 0x71));
  7300     0ED0  3071               	movlw	113
  7301     0ED1  00A0               	movwf	readReg16@reg
  7302     0ED2  0841               	movf	getSequenceStepTimeouts@dev,w
  7303     0ED3  3196  2625  318E   	fcall	_readReg16
  7304     0ED6  0020               	movlb	0	; select bank0
  7305     0ED7  0821               	movf	?_readReg16+1,w
  7306     0ED8  00AB               	movwf	decodeTimeout@reg_val+1
  7307     0ED9  0820               	movf	?_readReg16,w
  7308     0EDA  00AA               	movwf	decodeTimeout@reg_val
  7309     0EDB  3194  2463  318E   	fcall	_decodeTimeout
  7310     0EDE  0020               	movlb	0	; select bank0
  7311     0EDF  083E               	movf	getSequenceStepTimeouts@to,w
  7312     0EE0  3E08               	addlw	8
  7313     0EE1  0086               	movwf	6
  7314     0EE2  0187               	clrf	7
  7315     0EE3  082A               	movf	?_decodeTimeout,w
  7316     0EE4  3FC0               	movwi [0]fsr1
  7317     0EE5  082B               	movf	?_decodeTimeout+1,w
  7318     0EE6  3FC1               	movwi [1]fsr1
  7319     0EE7                     l2438:
  7320                           
  7321                           ;main.c: 786:     if (en->pre_range)
  7322     0EE7  083D               	movf	getSequenceStepTimeouts@en,w
  7323     0EE8  3E03               	addlw	3
  7324     0EE9  0086               	movwf	6
  7325     0EEA  0187               	clrf	7
  7326     0EEB  0801               	movf	1,w
  7327     0EEC  1903               	btfsc	3,2
  7328     0EED  2EEF               	goto	u2311
  7329     0EEE  2EF0               	goto	u2310
  7330     0EEF                     u2311:
  7331     0EEF  2F02               	goto	l2442
  7332     0EF0                     u2310:
  7333     0EF0                     l2440:
  7334                           
  7335                           ;main.c: 787:         to->final_range_mclks -= to->pre_range_mclks;
  7336     0EF0  083E               	movf	getSequenceStepTimeouts@to,w
  7337     0EF1  3E06               	addlw	6
  7338     0EF2  0086               	movwf	6
  7339     0EF3  0187               	clrf	7
  7340     0EF4  3F40               	moviw [0]fsr1
  7341     0EF5  00BF               	movwf	??_getSequenceStepTimeouts
  7342     0EF6  3F41               	moviw [1]fsr1
  7343     0EF7  00C0               	movwf	??_getSequenceStepTimeouts+1
  7344     0EF8  083E               	movf	getSequenceStepTimeouts@to,w
  7345     0EF9  3E08               	addlw	8
  7346     0EFA  0086               	movwf	6
  7347     0EFB  0187               	clrf	7
  7348     0EFC  083F               	movf	??_getSequenceStepTimeouts,w
  7349     0EFD  0281               	subwf	1,f
  7350     0EFE  3141               	addfsr 1,1
  7351     0EFF  0840               	movf	??_getSequenceStepTimeouts+1,w
  7352     0F00  3B81               	subwfb	1,f
  7353     0F01  317F               	addfsr 1,-1
  7354     0F02                     l2442:
  7355                           
  7356                           ;main.c: 788:     to->final_range_us = timeoutMclksToUs(to->final_range_mclks, to->final
      +                          _range_vcsel_period_pclks);
  7357     0F02  083E               	movf	getSequenceStepTimeouts@to,w
  7358     0F03  3E08               	addlw	8
  7359     0F04  0086               	movwf	6
  7360     0F05  0187               	clrf	7
  7361     0F06  3F40               	moviw [0]fsr1
  7362     0F07  00AD               	movwf	timeoutMclksToUs@mclks
  7363     0F08  3F41               	moviw [1]fsr1
  7364     0F09  00AE               	movwf	timeoutMclksToUs@mclks+1
  7365     0F0A  083E               	movf	getSequenceStepTimeouts@to,w
  7366     0F0B  0086               	movwf	6
  7367     0F0C  0187               	clrf	7
  7368     0F0D  3F42               	moviw [2]fsr1
  7369     0F0E  00AF               	movwf	timeoutMclksToUs@vcsel_pclks
  7370     0F0F  318A  22B5  318E   	fcall	_timeoutMclksToUs
  7371     0F12  0020               	movlb	0	; select bank0
  7372     0F13  083E               	movf	getSequenceStepTimeouts@to,w
  7373     0F14  3E12               	addlw	18
  7374     0F15  0086               	movwf	6
  7375     0F16  0187               	clrf	7
  7376     0F17  082D               	movf	?_timeoutMclksToUs,w
  7377     0F18  3FC0               	movwi [0]fsr1
  7378     0F19  082E               	movf	?_timeoutMclksToUs+1,w
  7379     0F1A  3FC1               	movwi [1]fsr1
  7380     0F1B  082F               	movf	?_timeoutMclksToUs+2,w
  7381     0F1C  3FC2               	movwi [2]fsr1
  7382     0F1D  0830               	movf	?_timeoutMclksToUs+3,w
  7383     0F1E  3FC3               	movwi [3]fsr1
  7384     0F1F                     l427:
  7385     0F1F  0008               	return
  7386     0F20                     __end_of_getSequenceStepTimeouts:
  7387                           
  7388                           	psect	text23
  7389     0AB5                     __ptext23:	
  7390 ;; *************** function _timeoutMclksToUs *****************
  7391 ;; Defined at:
  7392 ;;		line 817 in file "main.c"
  7393 ;; Parameters:    Size  Location     Type
  7394 ;;  mclks           2   13[BANK0 ] unsigned short 
  7395 ;;  vcsel_pclks     1   15[BANK0 ] unsigned char 
  7396 ;; Auto vars:     Size  Location     Type
  7397 ;;  macro_ns        4   25[BANK0 ] unsigned long 
  7398 ;; Return value:  Size  Location     Type
  7399 ;;                  4   13[BANK0 ] unsigned long 
  7400 ;; Registers used:
  7401 ;;		wreg, status,2, status,0, pclath, cstack
  7402 ;; Tracked objects:
  7403 ;;		On entry : 0/0
  7404 ;;		On exit  : 0/0
  7405 ;;		Unchanged: 0/0
  7406 ;; Data sizes:     COMMON   BANK0   BANK1   BANK2   BANK3   BANK4   BANK5   BANK6   BANK7   BANK8   BANK9  BANK10  BANK1
      +1  BANK12  BANK13  BANK14  BANK15  BANK16  BANK17  BANK18  BANK19  BANK20  BANK21  BANK22  BANK23  BANK24  BANK25
  7407 ;;      Params:         0       4       0       0       0       0       0       0       0       0       0       0       
      +0       0       0       0       0       0       0       0       0       0       0       0       0       0       0
  7408 ;;      Locals:         0       4       0       0       0       0       0       0       0       0       0       0       
      +0       0       0       0       0       0       0       0       0       0       0       0       0       0       0
  7409 ;;      Temps:          0       8       0       0       0       0       0       0       0       0       0       0       
      +0       0       0       0       0       0       0       0       0       0       0       0       0       0       0
  7410 ;;      Totals:         0      16       0       0       0       0       0       0       0       0       0       0       
      +0       0       0       0       0       0       0       0       0       0       0       0       0       0       0
  7411 ;;Total ram usage:       16 bytes
  7412 ;; Hardware stack levels used: 1
  7413 ;; Hardware stack levels required when called: 2
  7414 ;; This function calls:
  7415 ;;		___lldiv
  7416 ;;		___lmul
  7417 ;; This function is called by:
  7418 ;;		_getSequenceStepTimeouts
  7419 ;; This function uses a non-reentrant model
  7420 ;;
  7421                           
  7422     0AB5                     _timeoutMclksToUs:	
  7423                           ;psect for function _timeoutMclksToUs
  7424                           
  7425     0AB5                     l2394:	
  7426                           ;incstack = 0
  7427                           ; Regs used in _timeoutMclksToUs: [wreg+status,2+status,0+pclath+cstack]
  7428                           
  7429                           
  7430                           ;main.c: 817: static uint32_t timeoutMclksToUs(uint16_t mclks, uint8_t vcsel_pclks);main
      +                          .c: 818: {;main.c: 819:     uint32_t macro_ns = ((((uint32_t)2304 * (vcsel_pclks) * 1655
      +                          ) + 500) / 1000);
  7431     0AB5  3000               	movlw	0
  7432     0AB6  0020               	movlb	0	; select bank0
  7433     0AB7  00A3               	movwf	___lldiv@divisor+3
  7434     0AB8  3000               	movlw	0
  7435     0AB9  00A2               	movwf	___lldiv@divisor+2
  7436     0ABA  3003               	movlw	3
  7437     0ABB  00A1               	movwf	___lldiv@divisor+1
  7438     0ABC  30E8               	movlw	232
  7439     0ABD  00A0               	movwf	___lldiv@divisor
  7440     0ABE  30F4               	movlw	244
  7441     0ABF  00B1               	movwf	??_timeoutMclksToUs
  7442     0AC0  3001               	movlw	1
  7443     0AC1  00B2               	movwf	??_timeoutMclksToUs+1
  7444     0AC2  3000               	movlw	0
  7445     0AC3  00B3               	movwf	??_timeoutMclksToUs+2
  7446     0AC4  3000               	movlw	0
  7447     0AC5  00B4               	movwf	??_timeoutMclksToUs+3
  7448     0AC6  082F               	movf	timeoutMclksToUs@vcsel_pclks,w
  7449     0AC7  00B5               	movwf	??_timeoutMclksToUs+4
  7450     0AC8  01B6               	clrf	??_timeoutMclksToUs+5
  7451     0AC9  01B7               	clrf	??_timeoutMclksToUs+6
  7452     0ACA  01B8               	clrf	??_timeoutMclksToUs+7
  7453     0ACB  0838               	movf	??_timeoutMclksToUs+7,w
  7454     0ACC  00F3               	movwf	___lmul@multiplier+3
  7455     0ACD  0837               	movf	??_timeoutMclksToUs+6,w
  7456     0ACE  00F2               	movwf	___lmul@multiplier+2
  7457     0ACF  0836               	movf	??_timeoutMclksToUs+5,w
  7458     0AD0  00F1               	movwf	___lmul@multiplier+1
  7459     0AD1  0835               	movf	??_timeoutMclksToUs+4,w
  7460     0AD2  00F0               	movwf	___lmul@multiplier
  7461     0AD3  3000               	movlw	0
  7462     0AD4  00F7               	movwf	___lmul@multiplicand+3
  7463     0AD5  303A               	movlw	58
  7464     0AD6  00F6               	movwf	___lmul@multiplicand+2
  7465     0AD7  302F               	movlw	47
  7466     0AD8  00F5               	movwf	___lmul@multiplicand+1
  7467     0AD9  3000               	movlw	0
  7468     0ADA  00F4               	movwf	___lmul@multiplicand
  7469     0ADB  3196  2680  318A   	fcall	___lmul
  7470     0ADE  0870               	movf	?___lmul,w
  7471     0ADF  0020               	movlb	0	; select bank0
  7472     0AE0  07B1               	addwf	??_timeoutMclksToUs,f
  7473     0AE1  0871               	movf	?___lmul+1,w
  7474     0AE2  3DB2               	addwfc	??_timeoutMclksToUs+1,f
  7475     0AE3  0872               	movf	?___lmul+2,w
  7476     0AE4  3DB3               	addwfc	??_timeoutMclksToUs+2,f
  7477     0AE5  0873               	movf	?___lmul+3,w
  7478     0AE6  3DB4               	addwfc	??_timeoutMclksToUs+3,f
  7479     0AE7  0834               	movf	??_timeoutMclksToUs+3,w
  7480     0AE8  00A7               	movwf	___lldiv@dividend+3
  7481     0AE9  0833               	movf	??_timeoutMclksToUs+2,w
  7482     0AEA  00A6               	movwf	___lldiv@dividend+2
  7483     0AEB  0832               	movf	??_timeoutMclksToUs+1,w
  7484     0AEC  00A5               	movwf	___lldiv@dividend+1
  7485     0AED  0831               	movf	??_timeoutMclksToUs,w
  7486     0AEE  00A4               	movwf	___lldiv@dividend
  7487     0AEF  3189  219D  318A   	fcall	___lldiv
  7488     0AF2  0020               	movlb	0	; select bank0
  7489     0AF3  0823               	movf	?___lldiv+3,w
  7490     0AF4  00BC               	movwf	timeoutMclksToUs@macro_ns+3
  7491     0AF5  0822               	movf	?___lldiv+2,w
  7492     0AF6  00BB               	movwf	timeoutMclksToUs@macro_ns+2
  7493     0AF7  0821               	movf	?___lldiv+1,w
  7494     0AF8  00BA               	movwf	timeoutMclksToUs@macro_ns+1
  7495     0AF9  0820               	movf	?___lldiv,w
  7496     0AFA  00B9               	movwf	timeoutMclksToUs@macro_ns
  7497                           
  7498                           ;main.c: 820:     return ((mclks * macro_ns) + (macro_ns / 2)) / 1000;
  7499     0AFB  3000               	movlw	0
  7500     0AFC  00A3               	movwf	___lldiv@divisor+3
  7501     0AFD  3000               	movlw	0
  7502     0AFE  00A2               	movwf	___lldiv@divisor+2
  7503     0AFF  3003               	movlw	3
  7504     0B00  00A1               	movwf	___lldiv@divisor+1
  7505     0B01  30E8               	movlw	232
  7506     0B02  00A0               	movwf	___lldiv@divisor
  7507     0B03  0839               	movf	timeoutMclksToUs@macro_ns,w
  7508     0B04  00B1               	movwf	??_timeoutMclksToUs
  7509     0B05  083A               	movf	timeoutMclksToUs@macro_ns+1,w
  7510     0B06  00B2               	movwf	??_timeoutMclksToUs+1
  7511     0B07  083B               	movf	timeoutMclksToUs@macro_ns+2,w
  7512     0B08  00B3               	movwf	??_timeoutMclksToUs+2
  7513     0B09  083C               	movf	timeoutMclksToUs@macro_ns+3,w
  7514     0B0A  00B4               	movwf	??_timeoutMclksToUs+3
  7515     0B0B  3001               	movlw	1
  7516     0B0C                     u2125:
  7517     0B0C  36B4               	lsrf	??_timeoutMclksToUs+3,f
  7518     0B0D  0CB3               	rrf	??_timeoutMclksToUs+2,f
  7519     0B0E  0CB2               	rrf	??_timeoutMclksToUs+1,f
  7520     0B0F  0CB1               	rrf	??_timeoutMclksToUs,f
  7521     0B10                     u2120:
  7522     0B10  0B89               	decfsz	9,f
  7523     0B11  2B0C               	goto	u2125
  7524     0B12  082D               	movf	timeoutMclksToUs@mclks,w
  7525     0B13  00F0               	movwf	___lmul@multiplier
  7526     0B14  082E               	movf	timeoutMclksToUs@mclks+1,w
  7527     0B15  00F1               	movwf	___lmul@multiplier+1
  7528     0B16  01F2               	clrf	___lmul@multiplier+2
  7529     0B17  01F3               	clrf	___lmul@multiplier+3
  7530     0B18  083C               	movf	timeoutMclksToUs@macro_ns+3,w
  7531     0B19  00F7               	movwf	___lmul@multiplicand+3
  7532     0B1A  083B               	movf	timeoutMclksToUs@macro_ns+2,w
  7533     0B1B  00F6               	movwf	___lmul@multiplicand+2
  7534     0B1C  083A               	movf	timeoutMclksToUs@macro_ns+1,w
  7535     0B1D  00F5               	movwf	___lmul@multiplicand+1
  7536     0B1E  0839               	movf	timeoutMclksToUs@macro_ns,w
  7537     0B1F  00F4               	movwf	___lmul@multiplicand
  7538     0B20  3196  2680  318A   	fcall	___lmul
  7539     0B23  0870               	movf	?___lmul,w
  7540     0B24  0020               	movlb	0	; select bank0
  7541     0B25  07B1               	addwf	??_timeoutMclksToUs,f
  7542     0B26  0871               	movf	?___lmul+1,w
  7543     0B27  3DB2               	addwfc	??_timeoutMclksToUs+1,f
  7544     0B28  0872               	movf	?___lmul+2,w
  7545     0B29  3DB3               	addwfc	??_timeoutMclksToUs+2,f
  7546     0B2A  0873               	movf	?___lmul+3,w
  7547     0B2B  3DB4               	addwfc	??_timeoutMclksToUs+3,f
  7548     0B2C  0834               	movf	??_timeoutMclksToUs+3,w
  7549     0B2D  00A7               	movwf	___lldiv@dividend+3
  7550     0B2E  0833               	movf	??_timeoutMclksToUs+2,w
  7551     0B2F  00A6               	movwf	___lldiv@dividend+2
  7552     0B30  0832               	movf	??_timeoutMclksToUs+1,w
  7553     0B31  00A5               	movwf	___lldiv@dividend+1
  7554     0B32  0831               	movf	??_timeoutMclksToUs,w
  7555     0B33  00A4               	movwf	___lldiv@dividend
  7556     0B34  3189  219D  318A   	fcall	___lldiv
  7557     0B37  0020               	movlb	0	; select bank0
  7558     0B38  0823               	movf	?___lldiv+3,w
  7559     0B39  00B0               	movwf	?_timeoutMclksToUs+3
  7560     0B3A  0822               	movf	?___lldiv+2,w
  7561     0B3B  00AF               	movwf	?_timeoutMclksToUs+2
  7562     0B3C  0821               	movf	?___lldiv+1,w
  7563     0B3D  00AE               	movwf	?_timeoutMclksToUs+1
  7564     0B3E  0820               	movf	?___lldiv,w
  7565     0B3F  00AD               	movwf	?_timeoutMclksToUs
  7566     0B40                     l440:
  7567     0B40  0008               	return
  7568     0B41                     __end_of_timeoutMclksToUs:
  7569                           
  7570                           	psect	text24
  7571     1680                     __ptext24:	
  7572 ;; *************** function ___lmul *****************
  7573 ;; Defined at:
  7574 ;;		line 15 in file "C:\Program Files\Microchip\xc8\v2.46\pic\sources\c99\common\Umul32.c"
  7575 ;; Parameters:    Size  Location     Type
  7576 ;;  multiplier      4    0[COMMON] unsigned long 
  7577 ;;  multiplicand    4    4[COMMON] unsigned long 
  7578 ;; Auto vars:     Size  Location     Type
  7579 ;;  product         4    8[COMMON] unsigned long 
  7580 ;; Return value:  Size  Location     Type
  7581 ;;                  4    0[COMMON] unsigned long 
  7582 ;; Registers used:
  7583 ;;		wreg, status,2, status,0
  7584 ;; Tracked objects:
  7585 ;;		On entry : 0/0
  7586 ;;		On exit  : 0/0
  7587 ;;		Unchanged: 0/0
  7588 ;; Data sizes:     COMMON   BANK0   BANK1   BANK2   BANK3   BANK4   BANK5   BANK6   BANK7   BANK8   BANK9  BANK10  BANK1
      +1  BANK12  BANK13  BANK14  BANK15  BANK16  BANK17  BANK18  BANK19  BANK20  BANK21  BANK22  BANK23  BANK24  BANK25
  7589 ;;      Params:         8       0       0       0       0       0       0       0       0       0       0       0       
      +0       0       0       0       0       0       0       0       0       0       0       0       0       0       0
  7590 ;;      Locals:         4       0       0       0       0       0       0       0       0       0       0       0       
      +0       0       0       0       0       0       0       0       0       0       0       0       0       0       0
  7591 ;;      Temps:          0       0       0       0       0       0       0       0       0       0       0       0       
      +0       0       0       0       0       0       0       0       0       0       0       0       0       0       0
  7592 ;;      Totals:        12       0       0       0       0       0       0       0       0       0       0       0       
      +0       0       0       0       0       0       0       0       0       0       0       0       0       0       0
  7593 ;;Total ram usage:       12 bytes
  7594 ;; Hardware stack levels used: 1
  7595 ;; Hardware stack levels required when called: 1
  7596 ;; This function calls:
  7597 ;;		Nothing
  7598 ;; This function is called by:
  7599 ;;		_startContinuous
  7600 ;;		_timeoutMclksToUs
  7601 ;;		_timeoutUsToMclks
  7602 ;; This function uses a non-reentrant model
  7603 ;;
  7604                           
  7605     1680                     ___lmul:	
  7606                           ;psect for function ___lmul
  7607                           
  7608     1680                     l2280:	
  7609                           ;incstack = 0
  7610                           ; Regs used in ___lmul: [wreg+status,2+status,0]
  7611                           
  7612     1680  3000               	movlw	0
  7613     1681  00FB               	movwf	___lmul@product+3
  7614     1682  3000               	movlw	0
  7615     1683  00FA               	movwf	___lmul@product+2
  7616     1684  3000               	movlw	0
  7617     1685  00F9               	movwf	___lmul@product+1
  7618     1686  3000               	movlw	0
  7619     1687  00F8               	movwf	___lmul@product
  7620     1688                     l2282:
  7621     1688  1C70               	btfss	___lmul@multiplier,0
  7622     1689  2E8B               	goto	u1941
  7623     168A  2E8C               	goto	u1940
  7624     168B                     u1941:
  7625     168B  2E94               	goto	l2286
  7626     168C                     u1940:
  7627     168C                     l2284:
  7628     168C  0874               	movf	___lmul@multiplicand,w
  7629     168D  07F8               	addwf	___lmul@product,f
  7630     168E  0875               	movf	___lmul@multiplicand+1,w
  7631     168F  3DF9               	addwfc	___lmul@product+1,f
  7632     1690  0876               	movf	___lmul@multiplicand+2,w
  7633     1691  3DFA               	addwfc	___lmul@product+2,f
  7634     1692  0877               	movf	___lmul@multiplicand+3,w
  7635     1693  3DFB               	addwfc	___lmul@product+3,f
  7636     1694                     l2286:
  7637     1694  3001               	movlw	1
  7638     1695                     u1955:
  7639     1695  35F4               	lslf	___lmul@multiplicand,f
  7640     1696  0DF5               	rlf	___lmul@multiplicand+1,f
  7641     1697  0DF6               	rlf	___lmul@multiplicand+2,f
  7642     1698  0DF7               	rlf	___lmul@multiplicand+3,f
  7643     1699  0B89               	decfsz	9,f
  7644     169A  2E95               	goto	u1955
  7645     169B                     l2288:
  7646     169B  3001               	movlw	1
  7647     169C                     u1965:
  7648     169C  36F3               	lsrf	___lmul@multiplier+3,f
  7649     169D  0CF2               	rrf	___lmul@multiplier+2,f
  7650     169E  0CF1               	rrf	___lmul@multiplier+1,f
  7651     169F  0CF0               	rrf	___lmul@multiplier,f
  7652     16A0  0B89               	decfsz	9,f
  7653     16A1  2E9C               	goto	u1965
  7654     16A2  0873               	movf	___lmul@multiplier+3,w
  7655     16A3  0472               	iorwf	___lmul@multiplier+2,w
  7656     16A4  0471               	iorwf	___lmul@multiplier+1,w
  7657     16A5  0470               	iorwf	___lmul@multiplier,w
  7658     16A6  1D03               	skipz
  7659     16A7  2EA9               	goto	u1971
  7660     16A8  2EAA               	goto	u1970
  7661     16A9                     u1971:
  7662     16A9  2E88               	goto	l2282
  7663     16AA                     u1970:
  7664     16AA                     l2290:
  7665     16AA  087B               	movf	___lmul@product+3,w
  7666     16AB  00F3               	movwf	?___lmul+3
  7667     16AC  087A               	movf	___lmul@product+2,w
  7668     16AD  00F2               	movwf	?___lmul+2
  7669     16AE  0879               	movf	___lmul@product+1,w
  7670     16AF  00F1               	movwf	?___lmul+1
  7671     16B0  0878               	movf	___lmul@product,w
  7672     16B1  00F0               	movwf	?___lmul
  7673     16B2                     l552:
  7674     16B2  0008               	return
  7675     16B3                     __end_of___lmul:
  7676                           
  7677                           	psect	text25
  7678     099D                     __ptext25:	
  7679 ;; *************** function ___lldiv *****************
  7680 ;; Defined at:
  7681 ;;		line 5 in file "C:\Program Files\Microchip\xc8\v2.46\pic\sources\c99\common\__lldiv.c"
  7682 ;; Parameters:    Size  Location     Type
  7683 ;;  divisor         4    0[BANK0 ] unsigned long 
  7684 ;;  dividend        4    4[BANK0 ] unsigned long 
  7685 ;; Auto vars:     Size  Location     Type
  7686 ;;  quotient        4    8[BANK0 ] unsigned long 
  7687 ;;  counter         1   12[BANK0 ] unsigned char 
  7688 ;; Return value:  Size  Location     Type
  7689 ;;                  4    0[BANK0 ] unsigned long 
  7690 ;; Registers used:
  7691 ;;		wreg, status,2, status,0
  7692 ;; Tracked objects:
  7693 ;;		On entry : 0/0
  7694 ;;		On exit  : 0/0
  7695 ;;		Unchanged: 0/0
  7696 ;; Data sizes:     COMMON   BANK0   BANK1   BANK2   BANK3   BANK4   BANK5   BANK6   BANK7   BANK8   BANK9  BANK10  BANK1
      +1  BANK12  BANK13  BANK14  BANK15  BANK16  BANK17  BANK18  BANK19  BANK20  BANK21  BANK22  BANK23  BANK24  BANK25
  7697 ;;      Params:         0       8       0       0       0       0       0       0       0       0       0       0       
      +0       0       0       0       0       0       0       0       0       0       0       0       0       0       0
  7698 ;;      Locals:         0       5       0       0       0       0       0       0       0       0       0       0       
      +0       0       0       0       0       0       0       0       0       0       0       0       0       0       0
  7699 ;;      Temps:          1       0       0       0       0       0       0       0       0       0       0       0       
      +0       0       0       0       0       0       0       0       0       0       0       0       0       0       0
  7700 ;;      Totals:         1      13       0       0       0       0       0       0       0       0       0       0       
      +0       0       0       0       0       0       0       0       0       0       0       0       0       0       0
  7701 ;;Total ram usage:       14 bytes
  7702 ;; Hardware stack levels used: 1
  7703 ;; Hardware stack levels required when called: 1
  7704 ;; This function calls:
  7705 ;;		Nothing
  7706 ;; This function is called by:
  7707 ;;		_timeoutMclksToUs
  7708 ;;		_timeoutUsToMclks
  7709 ;; This function uses a non-reentrant model
  7710 ;;
  7711                           
  7712     099D                     ___lldiv:	
  7713                           ;psect for function ___lldiv
  7714                           
  7715     099D                     l2294:	
  7716                           ;incstack = 0
  7717                           ; Regs used in ___lldiv: [wreg+status,2+status,0]
  7718                           
  7719     099D  3000               	movlw	0
  7720     099E  0020               	movlb	0	; select bank0
  7721     099F  00AB               	movwf	___lldiv@quotient+3
  7722     09A0  3000               	movlw	0
  7723     09A1  00AA               	movwf	___lldiv@quotient+2
  7724     09A2  3000               	movlw	0
  7725     09A3  00A9               	movwf	___lldiv@quotient+1
  7726     09A4  3000               	movlw	0
  7727     09A5  00A8               	movwf	___lldiv@quotient
  7728     09A6  0823               	movf	___lldiv@divisor+3,w
  7729     09A7  0422               	iorwf	___lldiv@divisor+2,w
  7730     09A8  0421               	iorwf	___lldiv@divisor+1,w
  7731     09A9  0420               	iorwf	___lldiv@divisor,w
  7732     09AA  1903               	skipnz
  7733     09AB  29AD               	goto	u1981
  7734     09AC  29AE               	goto	u1980
  7735     09AD                     u1981:
  7736     09AD  29EF               	goto	l2314
  7737     09AE                     u1980:
  7738     09AE                     l2296:
  7739     09AE  01AC               	clrf	___lldiv@counter
  7740     09AF  0AAC               	incf	___lldiv@counter,f
  7741     09B0  29BC               	goto	l2300
  7742     09B1                     l2298:
  7743     09B1  3001               	movlw	1
  7744     09B2                     u1995:
  7745     09B2  35A0               	lslf	___lldiv@divisor,f
  7746     09B3  0DA1               	rlf	___lldiv@divisor+1,f
  7747     09B4  0DA2               	rlf	___lldiv@divisor+2,f
  7748     09B5  0DA3               	rlf	___lldiv@divisor+3,f
  7749     09B6  0B89               	decfsz	9,f
  7750     09B7  29B2               	goto	u1995
  7751     09B8  3001               	movlw	1
  7752     09B9  00FC               	movwf	??___lldiv
  7753     09BA  087C               	movf	??___lldiv,w
  7754     09BB  07AC               	addwf	___lldiv@counter,f
  7755     09BC                     l2300:
  7756     09BC  1FA3               	btfss	___lldiv@divisor+3,7
  7757     09BD  29BF               	goto	u2001
  7758     09BE  29C0               	goto	u2000
  7759     09BF                     u2001:
  7760     09BF  29B1               	goto	l2298
  7761     09C0                     u2000:
  7762     09C0                     l2302:
  7763     09C0  3001               	movlw	1
  7764     09C1                     u2015:
  7765     09C1  35A8               	lslf	___lldiv@quotient,f
  7766     09C2  0DA9               	rlf	___lldiv@quotient+1,f
  7767     09C3  0DAA               	rlf	___lldiv@quotient+2,f
  7768     09C4  0DAB               	rlf	___lldiv@quotient+3,f
  7769     09C5  0B89               	decfsz	9,f
  7770     09C6  29C1               	goto	u2015
  7771     09C7                     l2304:
  7772     09C7  0823               	movf	___lldiv@divisor+3,w
  7773     09C8  0227               	subwf	___lldiv@dividend+3,w
  7774     09C9  1D03               	skipz
  7775     09CA  29D5               	goto	u2025
  7776     09CB  0822               	movf	___lldiv@divisor+2,w
  7777     09CC  0226               	subwf	___lldiv@dividend+2,w
  7778     09CD  1D03               	skipz
  7779     09CE  29D5               	goto	u2025
  7780     09CF  0821               	movf	___lldiv@divisor+1,w
  7781     09D0  0225               	subwf	___lldiv@dividend+1,w
  7782     09D1  1D03               	skipz
  7783     09D2  29D5               	goto	u2025
  7784     09D3  0820               	movf	___lldiv@divisor,w
  7785     09D4  0224               	subwf	___lldiv@dividend,w
  7786     09D5                     u2025:
  7787     09D5  1C03               	skipc
  7788     09D6  29D8               	goto	u2021
  7789     09D7  29D9               	goto	u2020
  7790     09D8                     u2021:
  7791     09D8  29E2               	goto	l2310
  7792     09D9                     u2020:
  7793     09D9                     l2306:
  7794     09D9  0820               	movf	___lldiv@divisor,w
  7795     09DA  02A4               	subwf	___lldiv@dividend,f
  7796     09DB  0821               	movf	___lldiv@divisor+1,w
  7797     09DC  3BA5               	subwfb	___lldiv@dividend+1,f
  7798     09DD  0822               	movf	___lldiv@divisor+2,w
  7799     09DE  3BA6               	subwfb	___lldiv@dividend+2,f
  7800     09DF  0823               	movf	___lldiv@divisor+3,w
  7801     09E0  3BA7               	subwfb	___lldiv@dividend+3,f
  7802     09E1                     l2308:
  7803     09E1  1428               	bsf	___lldiv@quotient,0
  7804     09E2                     l2310:
  7805     09E2  3001               	movlw	1
  7806     09E3                     u2035:
  7807     09E3  36A3               	lsrf	___lldiv@divisor+3,f
  7808     09E4  0CA2               	rrf	___lldiv@divisor+2,f
  7809     09E5  0CA1               	rrf	___lldiv@divisor+1,f
  7810     09E6  0CA0               	rrf	___lldiv@divisor,f
  7811     09E7  0B89               	decfsz	9,f
  7812     09E8  29E3               	goto	u2035
  7813     09E9                     l2312:
  7814     09E9  3001               	movlw	1
  7815     09EA  02AC               	subwf	___lldiv@counter,f
  7816     09EB  1D03               	btfss	3,2
  7817     09EC  29EE               	goto	u2041
  7818     09ED  29EF               	goto	u2040
  7819     09EE                     u2041:
  7820     09EE  29C0               	goto	l2302
  7821     09EF                     u2040:
  7822     09EF                     l2314:
  7823     09EF  082B               	movf	___lldiv@quotient+3,w
  7824     09F0  00A3               	movwf	?___lldiv+3
  7825     09F1  082A               	movf	___lldiv@quotient+2,w
  7826     09F2  00A2               	movwf	?___lldiv+2
  7827     09F3  0829               	movf	___lldiv@quotient+1,w
  7828     09F4  00A1               	movwf	?___lldiv+1
  7829     09F5  0828               	movf	___lldiv@quotient,w
  7830     09F6  00A0               	movwf	?___lldiv
  7831     09F7                     l574:
  7832     09F7  0008               	return
  7833     09F8                     __end_of___lldiv:
  7834                           
  7835                           	psect	text26
  7836     1625                     __ptext26:	
  7837 ;; *************** function _readReg16 *****************
  7838 ;; Defined at:
  7839 ;;		line 274 in file "main.c"
  7840 ;; Parameters:    Size  Location     Type
  7841 ;;  dev             1    wreg     PTR struct .
  7842 ;;		 -> main@sensor(16), 
  7843 ;;  reg             1    0[BANK0 ] unsigned char 
  7844 ;; Auto vars:     Size  Location     Type
  7845 ;;  dev             1    9[BANK0 ] PTR struct .
  7846 ;;		 -> main@sensor(16), 
  7847 ;;  buf             2    7[BANK0 ] unsigned char [2]
  7848 ;; Return value:  Size  Location     Type
  7849 ;;                  2    0[BANK0 ] unsigned short 
  7850 ;; Registers used:
  7851 ;;		wreg, fsr1l, fsr1h, status,2, status,0, pclath, cstack
  7852 ;; Tracked objects:
  7853 ;;		On entry : 0/0
  7854 ;;		On exit  : 0/0
  7855 ;;		Unchanged: 0/0
  7856 ;; Data sizes:     COMMON   BANK0   BANK1   BANK2   BANK3   BANK4   BANK5   BANK6   BANK7   BANK8   BANK9  BANK10  BANK1
      +1  BANK12  BANK13  BANK14  BANK15  BANK16  BANK17  BANK18  BANK19  BANK20  BANK21  BANK22  BANK23  BANK24  BANK25
  7857 ;;      Params:         0       2       0       0       0       0       0       0       0       0       0       0       
      +0       0       0       0       0       0       0       0       0       0       0       0       0       0       0
  7858 ;;      Locals:         0       3       0       0       0       0       0       0       0       0       0       0       
      +0       0       0       0       0       0       0       0       0       0       0       0       0       0       0
  7859 ;;      Temps:          0       5       0       0       0       0       0       0       0       0       0       0       
      +0       0       0       0       0       0       0       0       0       0       0       0       0       0       0
  7860 ;;      Totals:         0      10       0       0       0       0       0       0       0       0       0       0       
      +0       0       0       0       0       0       0       0       0       0       0       0       0       0       0
  7861 ;;Total ram usage:       10 bytes
  7862 ;; Hardware stack levels used: 1
  7863 ;; Hardware stack levels required when called: 4
  7864 ;; This function calls:
  7865 ;;		_tof_i2c_read
  7866 ;; This function is called by:
  7867 ;;		_startContinuous
  7868 ;;		_readRangeContinuousMm
  7869 ;;		_getSequenceStepTimeouts
  7870 ;; This function uses a non-reentrant model
  7871 ;;
  7872                           
  7873     1625                     _readReg16:	
  7874                           ;psect for function _readReg16
  7875                           
  7876                           
  7877                           ;incstack = 0
  7878                           ; Regs used in _readReg16: [wreg+fsr1l+fsr1h+status,2+status,0+pclath+cstack]
  7879                           ;readReg16@dev stored from wreg
  7880     1625  0020               	movlb	0	; select bank0
  7881     1626  00A9               	movwf	readReg16@dev
  7882     1627                     l2368:
  7883                           
  7884                           ;main.c: 274: static uint16_t readReg16(VL53L0X_Dev_t *dev, uint8_t reg);main.c: 275: {;
      +                          main.c: 276:     uint8_t buf[2] = {0};
  7885     1627  01A7               	clrf	readReg16@buf
  7886     1628  01A8               	clrf	readReg16@buf+1
  7887     1629                     l2370:
  7888                           
  7889                           ;main.c: 277:     dev->last_status = tof_i2c_read(dev->address, reg, buf, 2);
  7890     1629  0820               	movf	readReg16@reg,w
  7891     162A  00F6               	movwf	tof_i2c_read@reg
  7892     162B  3027               	movlw	(low (readReg16@buf| 0))& (0+255)
  7893     162C  00F7               	movwf	tof_i2c_read@dst
  7894     162D  3002               	movlw	2
  7895     162E  00F8               	movwf	tof_i2c_read@len
  7896     162F  0829               	movf	readReg16@dev,w
  7897     1630  0086               	movwf	6
  7898     1631  0187               	clrf	7
  7899     1632  0801               	movf	1,w
  7900     1633  3187  277A  3196   	fcall	_tof_i2c_read
  7901     1636  0020               	movlb	0	; select bank0
  7902     1637  00A2               	movwf	??_readReg16
  7903     1638  0829               	movf	readReg16@dev,w
  7904     1639  3E02               	addlw	2
  7905     163A  0086               	movwf	6
  7906     163B  0187               	clrf	7
  7907     163C  0822               	movf	??_readReg16,w
  7908     163D  0081               	movwf	1
  7909     163E                     l2372:
  7910                           
  7911                           ;main.c: 278:     return ((uint16_t)buf[0] << 8) | (uint16_t)buf[1];
  7912     163E  0828               	movf	readReg16@buf+1,w
  7913     163F  00A2               	movwf	??_readReg16
  7914     1640  01A3               	clrf	??_readReg16+1
  7915     1641  0827               	movf	readReg16@buf,w
  7916     1642  00A4               	movwf	??_readReg16+2
  7917     1643  01A5               	clrf	??_readReg16+3
  7918     1644  0824               	movf	??_readReg16+2,w
  7919     1645  00A5               	movwf	??_readReg16+3
  7920     1646  01A4               	clrf	??_readReg16+2
  7921     1647  0822               	movf	??_readReg16,w
  7922     1648  0424               	iorwf	??_readReg16+2,w
  7923     1649  00A0               	movwf	?_readReg16
  7924     164A  0823               	movf	??_readReg16+1,w
  7925     164B  0425               	iorwf	??_readReg16+3,w
  7926     164C  00A1               	movwf	?_readReg16+1
  7927     164D                     l298:
  7928     164D  0008               	return
  7929     164E                     __end_of_readReg16:
  7930                           
  7931                           	psect	text27
  7932     1550                     __ptext27:	
  7933 ;; *************** function _getVcselPulsePeriod *****************
  7934 ;; Defined at:
  7935 ;;		line 632 in file "main.c"
  7936 ;; Parameters:    Size  Location     Type
  7937 ;;  dev             1    wreg     PTR struct .
  7938 ;;		 -> main@sensor(16), 
  7939 ;;  type            1    4[BANK0 ] unsigned char 
  7940 ;; Auto vars:     Size  Location     Type
  7941 ;;  dev             1    5[BANK0 ] PTR struct .
  7942 ;;		 -> main@sensor(16), 
  7943 ;; Return value:  Size  Location     Type
  7944 ;;                  1    wreg      unsigned char 
  7945 ;; Registers used:
  7946 ;;		wreg, fsr1l, fsr1h, status,2, status,0, pclath, cstack
  7947 ;; Tracked objects:
  7948 ;;		On entry : 0/0
  7949 ;;		On exit  : 0/0
  7950 ;;		Unchanged: 0/0
  7951 ;; Data sizes:     COMMON   BANK0   BANK1   BANK2   BANK3   BANK4   BANK5   BANK6   BANK7   BANK8   BANK9  BANK10  BANK1
      +1  BANK12  BANK13  BANK14  BANK15  BANK16  BANK17  BANK18  BANK19  BANK20  BANK21  BANK22  BANK23  BANK24  BANK25
  7952 ;;      Params:         0       1       0       0       0       0       0       0       0       0       0       0       
      +0       0       0       0       0       0       0       0       0       0       0       0       0       0       0
  7953 ;;      Locals:         0       1       0       0       0       0       0       0       0       0       0       0       
      +0       0       0       0       0       0       0       0       0       0       0       0       0       0       0
  7954 ;;      Temps:          0       0       0       0       0       0       0       0       0       0       0       0       
      +0       0       0       0       0       0       0       0       0       0       0       0       0       0       0
  7955 ;;      Totals:         0       2       0       0       0       0       0       0       0       0       0       0       
      +0       0       0       0       0       0       0       0       0       0       0       0       0       0       0
  7956 ;;Total ram usage:        2 bytes
  7957 ;; Hardware stack levels used: 1
  7958 ;; Hardware stack levels required when called: 5
  7959 ;; This function calls:
  7960 ;;		_readReg
  7961 ;; This function is called by:
  7962 ;;		_getSequenceStepTimeouts
  7963 ;; This function uses a non-reentrant model
  7964 ;;
  7965                           
  7966     1550                     _getVcselPulsePeriod:	
  7967                           ;psect for function _getVcselPulsePeriod
  7968                           
  7969                           
  7970                           ;incstack = 0
  7971                           ; Regs used in _getVcselPulsePeriod: [wreg+fsr1l+fsr1h+status,2+status,0+pclath+cstack]
  7972                           ;getVcselPulsePeriod@dev stored from wreg
  7973     1550  0020               	movlb	0	; select bank0
  7974     1551  00A5               	movwf	getVcselPulsePeriod@dev
  7975     1552                     l2376:
  7976                           
  7977                           ;main.c: 632: static uint8_t getVcselPulsePeriod(VL53L0X_Dev_t *dev, uint8_t type);main.
      +                          c: 633: {;main.c: 634:     if (type == 0)
  7978     1552  0824               	movf	getVcselPulsePeriod@type,w
  7979     1553  1D03               	btfss	3,2
  7980     1554  2D56               	goto	u2101
  7981     1555  2D57               	goto	u2100
  7982     1556                     u2101:
  7983     1556  2D60               	goto	l2384
  7984     1557                     u2100:
  7985     1557                     l2378:
  7986                           
  7987                           ;main.c: 635:         return (((readReg(dev, 0x50)) + 1) << 1);
  7988     1557  3050               	movlw	80
  7989     1558  00A0               	movwf	readReg@reg
  7990     1559  0825               	movf	getVcselPulsePeriod@dev,w
  7991     155A  3194  24C0  3195   	fcall	_readReg
  7992     155D  0709               	addwf	9,w
  7993     155E  3E02               	addlw	2
  7994     155F  2D6F               	goto	l385
  7995     1560                     l2384:
  7996     1560  0324               	decf	getVcselPulsePeriod@type,w
  7997     1561  1D03               	btfss	3,2
  7998     1562  2D64               	goto	u2111
  7999     1563  2D65               	goto	u2110
  8000     1564                     u2111:
  8001     1564  2D6E               	goto	l2390
  8002     1565                     u2110:
  8003     1565                     l2386:
  8004                           
  8005                           ;main.c: 637:         return (((readReg(dev, 0x70)) + 1) << 1);
  8006     1565  3070               	movlw	112
  8007     1566  00A0               	movwf	readReg@reg
  8008     1567  0825               	movf	getVcselPulsePeriod@dev,w
  8009     1568  3194  24C0  3195   	fcall	_readReg
  8010     156B  0709               	addwf	9,w
  8011     156C  3E02               	addlw	2
  8012     156D  2D6F               	goto	l385
  8013     156E                     l2390:
  8014                           
  8015                           ;main.c: 638:     return 255;
  8016     156E  30FF               	movlw	255
  8017     156F                     l385:
  8018     156F  0008               	return
  8019     1570                     __end_of_getVcselPulsePeriod:
  8020                           
  8021                           	psect	text28
  8022     1463                     __ptext28:	
  8023 ;; *************** function _decodeTimeout *****************
  8024 ;; Defined at:
  8025 ;;		line 794 in file "main.c"
  8026 ;; Parameters:    Size  Location     Type
  8027 ;;  reg_val         2   10[BANK0 ] unsigned short 
  8028 ;; Auto vars:     Size  Location     Type
  8029 ;;		None
  8030 ;; Return value:  Size  Location     Type
  8031 ;;                  2   10[BANK0 ] unsigned short 
  8032 ;; Registers used:
  8033 ;;		wreg, status,2, status,0
  8034 ;; Tracked objects:
  8035 ;;		On entry : 0/0
  8036 ;;		On exit  : 0/0
  8037 ;;		Unchanged: 0/0
  8038 ;; Data sizes:     COMMON   BANK0   BANK1   BANK2   BANK3   BANK4   BANK5   BANK6   BANK7   BANK8   BANK9  BANK10  BANK1
      +1  BANK12  BANK13  BANK14  BANK15  BANK16  BANK17  BANK18  BANK19  BANK20  BANK21  BANK22  BANK23  BANK24  BANK25
  8039 ;;      Params:         0       2       0       0       0       0       0       0       0       0       0       0       
      +0       0       0       0       0       0       0       0       0       0       0       0       0       0       0
  8040 ;;      Locals:         0       0       0       0       0       0       0       0       0       0       0       0       
      +0       0       0       0       0       0       0       0       0       0       0       0       0       0       0
  8041 ;;      Temps:          0       2       0       0       0       0       0       0       0       0       0       0       
      +0       0       0       0       0       0       0       0       0       0       0       0       0       0       0
  8042 ;;      Totals:         0       4       0       0       0       0       0       0       0       0       0       0       
      +0       0       0       0       0       0       0       0       0       0       0       0       0       0       0
  8043 ;;Total ram usage:        4 bytes
  8044 ;; Hardware stack levels used: 1
  8045 ;; Hardware stack levels required when called: 1
  8046 ;; This function calls:
  8047 ;;		Nothing
  8048 ;; This function is called by:
  8049 ;;		_getSequenceStepTimeouts
  8050 ;; This function uses a non-reentrant model
  8051 ;;
  8052                           
  8053     1463                     _decodeTimeout:	
  8054                           ;psect for function _decodeTimeout
  8055                           
  8056     1463                     l2398:	
  8057                           ;incstack = 0
  8058                           ; Regs used in _decodeTimeout: [wreg+status,2+status,0]
  8059                           
  8060                           
  8061                           ;main.c: 794: static uint16_t decodeTimeout(uint16_t reg_val);main.c: 795: {;main.c: 796
      +                          :     return (uint16_t)((reg_val & 0x00FF) <<
  8062     1463  30FF               	movlw	255
  8063     1464  0020               	movlb	0	; select bank0
  8064     1465  052A               	andwf	decodeTimeout@reg_val,w
  8065     1466  00AC               	movwf	??_decodeTimeout
  8066     1467  3000               	movlw	0
  8067     1468  052B               	andwf	decodeTimeout@reg_val+1,w
  8068     1469  00AD               	movwf	??_decodeTimeout+1
  8069     146A  082B               	movf	decodeTimeout@reg_val+1,w
  8070     146B  0A89               	incf	9,f
  8071     146C  2C6F               	goto	u2134
  8072     146D                     u2135:
  8073     146D  35AC               	lslf	??_decodeTimeout,f
  8074     146E  0DAD               	rlf	??_decodeTimeout+1,f
  8075     146F                     u2134:
  8076     146F  0B89               	decfsz	9,f
  8077     1470  2C6D               	goto	u2135
  8078     1471  082C               	movf	??_decodeTimeout,w
  8079     1472  3E01               	addlw	1
  8080     1473  00AA               	movwf	?_decodeTimeout
  8081     1474  3000               	movlw	0
  8082     1475  3D2D               	addwfc	??_decodeTimeout+1,w
  8083     1476  00AB               	movwf	?_decodeTimeout+1
  8084     1477                     l430:
  8085     1477  0008               	return
  8086     1478                     __end_of_decodeTimeout:
  8087                           
  8088                           	psect	text29
  8089     09F8                     __ptext29:	
  8090 ;; *************** function _getSequenceStepEnables *****************
  8091 ;; Defined at:
  8092 ;;		line 767 in file "main.c"
  8093 ;; Parameters:    Size  Location     Type
  8094 ;;  dev             1    wreg     PTR struct .
  8095 ;;		 -> main@sensor(16), 
  8096 ;;  en              1    4[BANK0 ] PTR struct .
  8097 ;;		 -> setVcselPulsePeriod@en(5), getMeasurementTimingBudget@en(5), setMeasurementTimingBudget@en(5), 
  8098 ;; Auto vars:     Size  Location     Type
  8099 ;;  dev             1    6[BANK0 ] PTR struct .
  8100 ;;		 -> main@sensor(16), 
  8101 ;;  sc              1    7[BANK0 ] unsigned char 
  8102 ;; Return value:  Size  Location     Type
  8103 ;;                  1    wreg      void 
  8104 ;; Registers used:
  8105 ;;		wreg, fsr1l, fsr1h, status,2, status,0, pclath, cstack
  8106 ;; Tracked objects:
  8107 ;;		On entry : 0/0
  8108 ;;		On exit  : 0/0
  8109 ;;		Unchanged: 0/0
  8110 ;; Data sizes:     COMMON   BANK0   BANK1   BANK2   BANK3   BANK4   BANK5   BANK6   BANK7   BANK8   BANK9  BANK10  BANK1
      +1  BANK12  BANK13  BANK14  BANK15  BANK16  BANK17  BANK18  BANK19  BANK20  BANK21  BANK22  BANK23  BANK24  BANK25
  8111 ;;      Params:         0       1       0       0       0       0       0       0       0       0       0       0       
      +0       0       0       0       0       0       0       0       0       0       0       0       0       0       0
  8112 ;;      Locals:         0       2       0       0       0       0       0       0       0       0       0       0       
      +0       0       0       0       0       0       0       0       0       0       0       0       0       0       0
  8113 ;;      Temps:          0       1       0       0       0       0       0       0       0       0       0       0       
      +0       0       0       0       0       0       0       0       0       0       0       0       0       0       0
  8114 ;;      Totals:         0       4       0       0       0       0       0       0       0       0       0       0       
      +0       0       0       0       0       0       0       0       0       0       0       0       0       0       0
  8115 ;;Total ram usage:        4 bytes
  8116 ;; Hardware stack levels used: 1
  8117 ;; Hardware stack levels required when called: 5
  8118 ;; This function calls:
  8119 ;;		_readReg
  8120 ;; This function is called by:
  8121 ;;		_setMeasurementTimingBudget
  8122 ;;		_getMeasurementTimingBudget
  8123 ;;		_setVcselPulsePeriod
  8124 ;; This function uses a non-reentrant model
  8125 ;;
  8126                           
  8127     09F8                     _getSequenceStepEnables:	
  8128                           ;psect for function _getSequenceStepEnables
  8129                           
  8130                           
  8131                           ;incstack = 0
  8132                           ; Regs used in _getSequenceStepEnables: [wreg+fsr1l+fsr1h+status,2+status,0+pclath+cstac
      +                          k]
  8133                           ;getSequenceStepEnables@dev stored from wreg
  8134     09F8  0020               	movlb	0	; select bank0
  8135     09F9  00A6               	movwf	getSequenceStepEnables@dev
  8136     09FA                     l2424:
  8137                           
  8138                           ;main.c: 767: static void getSequenceStepEnables(VL53L0X_Dev_t *dev, SeqEnables_t *en);m
      +                          ain.c: 768: {;main.c: 769:     uint8_t sc = readReg(dev, 0x01);
  8139     09FA  01A0               	clrf	readReg@reg
  8140     09FB  0AA0               	incf	readReg@reg,f
  8141     09FC  0826               	movf	getSequenceStepEnables@dev,w
  8142     09FD  3194  24C0  3189   	fcall	_readReg
  8143     0A00  0020               	movlb	0	; select bank0
  8144     0A01  00A7               	movwf	getSequenceStepEnables@sc
  8145     0A02                     l2426:
  8146                           
  8147                           ;main.c: 770:     en->tcc = (sc >> 4) & 0x1;
  8148     0A02  0824               	movf	getSequenceStepEnables@en,w
  8149     0A03  0086               	movwf	6
  8150     0A04  0187               	clrf	7
  8151     0A05  0827               	movf	getSequenceStepEnables@sc,w
  8152     0A06  00A5               	movwf	??_getSequenceStepEnables
  8153     0A07  3004               	movlw	4
  8154     0A08                     u2165:
  8155     0A08  36A5               	lsrf	??_getSequenceStepEnables,f
  8156     0A09  0B89               	decfsz	9,f
  8157     0A0A  2A08               	goto	u2165
  8158     0A0B  1825               	btfsc	??_getSequenceStepEnables,0
  8159     0A0C  2A0E               	goto	u2171
  8160     0A0D  2A10               	goto	u2170
  8161     0A0E                     u2171:
  8162     0A0E  3001               	movlw	1
  8163     0A0F  2A11               	goto	u2180
  8164     0A10                     u2170:
  8165     0A10  3000               	movlw	0
  8166     0A11                     u2180:
  8167     0A11  0081               	movwf	1
  8168     0A12                     l2428:
  8169                           
  8170                           ;main.c: 771:     en->dss = (sc >> 3) & 0x1;
  8171     0A12  0824               	movf	getSequenceStepEnables@en,w
  8172     0A13  3E02               	addlw	2
  8173     0A14  0086               	movwf	6
  8174     0A15  0187               	clrf	7
  8175     0A16  0827               	movf	getSequenceStepEnables@sc,w
  8176     0A17  00A5               	movwf	??_getSequenceStepEnables
  8177     0A18  3003               	movlw	3
  8178     0A19                     u2195:
  8179     0A19  36A5               	lsrf	??_getSequenceStepEnables,f
  8180     0A1A  0B89               	decfsz	9,f
  8181     0A1B  2A19               	goto	u2195
  8182     0A1C  1825               	btfsc	??_getSequenceStepEnables,0
  8183     0A1D  2A1F               	goto	u2201
  8184     0A1E  2A21               	goto	u2200
  8185     0A1F                     u2201:
  8186     0A1F  3001               	movlw	1
  8187     0A20  2A22               	goto	u2210
  8188     0A21                     u2200:
  8189     0A21  3000               	movlw	0
  8190     0A22                     u2210:
  8191     0A22  0081               	movwf	1
  8192     0A23                     l2430:
  8193                           
  8194                           ;main.c: 772:     en->msrc = (sc >> 2) & 0x1;
  8195     0A23  0A24               	incf	getSequenceStepEnables@en,w
  8196     0A24  0086               	movwf	6
  8197     0A25  0187               	clrf	7
  8198     0A26  0827               	movf	getSequenceStepEnables@sc,w
  8199     0A27  00A5               	movwf	??_getSequenceStepEnables
  8200     0A28  3002               	movlw	2
  8201     0A29                     u2225:
  8202     0A29  36A5               	lsrf	??_getSequenceStepEnables,f
  8203     0A2A  0B89               	decfsz	9,f
  8204     0A2B  2A29               	goto	u2225
  8205     0A2C  1825               	btfsc	??_getSequenceStepEnables,0
  8206     0A2D  2A2F               	goto	u2231
  8207     0A2E  2A31               	goto	u2230
  8208     0A2F                     u2231:
  8209     0A2F  3001               	movlw	1
  8210     0A30  2A32               	goto	u2240
  8211     0A31                     u2230:
  8212     0A31  3000               	movlw	0
  8213     0A32                     u2240:
  8214     0A32  0081               	movwf	1
  8215     0A33                     l2432:
  8216                           
  8217                           ;main.c: 773:     en->pre_range = (sc >> 6) & 0x1;
  8218     0A33  0824               	movf	getSequenceStepEnables@en,w
  8219     0A34  3E03               	addlw	3
  8220     0A35  0086               	movwf	6
  8221     0A36  0187               	clrf	7
  8222     0A37  0827               	movf	getSequenceStepEnables@sc,w
  8223     0A38  00A5               	movwf	??_getSequenceStepEnables
  8224     0A39  3006               	movlw	6
  8225     0A3A                     u2255:
  8226     0A3A  36A5               	lsrf	??_getSequenceStepEnables,f
  8227     0A3B  0B89               	decfsz	9,f
  8228     0A3C  2A3A               	goto	u2255
  8229     0A3D  1825               	btfsc	??_getSequenceStepEnables,0
  8230     0A3E  2A40               	goto	u2261
  8231     0A3F  2A42               	goto	u2260
  8232     0A40                     u2261:
  8233     0A40  3001               	movlw	1
  8234     0A41  2A43               	goto	u2270
  8235     0A42                     u2260:
  8236     0A42  3000               	movlw	0
  8237     0A43                     u2270:
  8238     0A43  0081               	movwf	1
  8239     0A44                     l2434:
  8240                           
  8241                           ;main.c: 774:     en->final_range = (sc >> 7) & 0x1;
  8242     0A44  0824               	movf	getSequenceStepEnables@en,w
  8243     0A45  3E04               	addlw	4
  8244     0A46  0086               	movwf	6
  8245     0A47  0187               	clrf	7
  8246     0A48  0827               	movf	getSequenceStepEnables@sc,w
  8247     0A49  00A5               	movwf	??_getSequenceStepEnables
  8248     0A4A  3007               	movlw	7
  8249     0A4B                     u2285:
  8250     0A4B  36A5               	lsrf	??_getSequenceStepEnables,f
  8251     0A4C  0B89               	decfsz	9,f
  8252     0A4D  2A4B               	goto	u2285
  8253     0A4E  1825               	btfsc	??_getSequenceStepEnables,0
  8254     0A4F  2A51               	goto	u2291
  8255     0A50  2A53               	goto	u2290
  8256     0A51                     u2291:
  8257     0A51  3001               	movlw	1
  8258     0A52  2A54               	goto	u2300
  8259     0A53                     u2290:
  8260     0A53  3000               	movlw	0
  8261     0A54                     u2300:
  8262     0A54  0081               	movwf	1
  8263     0A55                     l423:
  8264     0A55  0008               	return
  8265     0A56                     __end_of_getSequenceStepEnables:
  8266                           
  8267                           	psect	text30
  8268     14C0                     __ptext30:	
  8269 ;; *************** function _readReg *****************
  8270 ;; Defined at:
  8271 ;;		line 267 in file "main.c"
  8272 ;; Parameters:    Size  Location     Type
  8273 ;;  dev             1    wreg     PTR struct .
  8274 ;;		 -> main@sensor(16), 
  8275 ;;  reg             1    0[BANK0 ] unsigned char 
  8276 ;; Auto vars:     Size  Location     Type
  8277 ;;  dev             1    3[BANK0 ] PTR struct .
  8278 ;;		 -> main@sensor(16), 
  8279 ;;  val             1    2[BANK0 ] unsigned char 
  8280 ;; Return value:  Size  Location     Type
  8281 ;;                  1    wreg      unsigned char 
  8282 ;; Registers used:
  8283 ;;		wreg, fsr1l, fsr1h, status,2, status,0, pclath, cstack
  8284 ;; Tracked objects:
  8285 ;;		On entry : 0/0
  8286 ;;		On exit  : 0/0
  8287 ;;		Unchanged: 0/0
  8288 ;; Data sizes:     COMMON   BANK0   BANK1   BANK2   BANK3   BANK4   BANK5   BANK6   BANK7   BANK8   BANK9  BANK10  BANK1
      +1  BANK12  BANK13  BANK14  BANK15  BANK16  BANK17  BANK18  BANK19  BANK20  BANK21  BANK22  BANK23  BANK24  BANK25
  8289 ;;      Params:         0       1       0       0       0       0       0       0       0       0       0       0       
      +0       0       0       0       0       0       0       0       0       0       0       0       0       0       0
  8290 ;;      Locals:         0       2       0       0       0       0       0       0       0       0       0       0       
      +0       0       0       0       0       0       0       0       0       0       0       0       0       0       0
  8291 ;;      Temps:          0       1       0       0       0       0       0       0       0       0       0       0       
      +0       0       0       0       0       0       0       0       0       0       0       0       0       0       0
  8292 ;;      Totals:         0       4       0       0       0       0       0       0       0       0       0       0       
      +0       0       0       0       0       0       0       0       0       0       0       0       0       0       0
  8293 ;;Total ram usage:        4 bytes
  8294 ;; Hardware stack levels used: 1
  8295 ;; Hardware stack levels required when called: 4
  8296 ;; This function calls:
  8297 ;;		_tof_i2c_read
  8298 ;; This function is called by:
  8299 ;;		_VL53L0X_Init
  8300 ;;		_getVcselPulsePeriod
  8301 ;;		_readRangeContinuousMm
  8302 ;;		_getSpadInfo
  8303 ;;		_getSequenceStepEnables
  8304 ;;		_getSequenceStepTimeouts
  8305 ;;		_performSingleRefCal
  8306 ;;		_setVcselPulsePeriod
  8307 ;;		_readRangeSingleMm
  8308 ;; This function uses a non-reentrant model
  8309 ;;
  8310                           
  8311     14C0                     _readReg:	
  8312                           ;psect for function _readReg
  8313                           
  8314                           
  8315                           ;incstack = 0
  8316                           ; Regs used in _readReg: [wreg+fsr1l+fsr1h+status,2+status,0+pclath+cstack]
  8317                           ;readReg@dev stored from wreg
  8318     14C0  0020               	movlb	0	; select bank0
  8319     14C1  00A3               	movwf	readReg@dev
  8320     14C2                     l2272:
  8321                           
  8322                           ;main.c: 267: static uint8_t readReg(VL53L0X_Dev_t *dev, uint8_t reg);main.c: 268: {;mai
      +                          n.c: 269:     uint8_t val = 0;
  8323     14C2  01A2               	clrf	readReg@val
  8324     14C3                     l2274:
  8325                           
  8326                           ;main.c: 270:     dev->last_status = tof_i2c_read(dev->address, reg, &val, 1);
  8327     14C3  0820               	movf	readReg@reg,w
  8328     14C4  00F6               	movwf	tof_i2c_read@reg
  8329     14C5  3022               	movlw	(low (readReg@val| 0))& (0+255)
  8330     14C6  00F7               	movwf	tof_i2c_read@dst
  8331     14C7  01F8               	clrf	tof_i2c_read@len
  8332     14C8  0AF8               	incf	tof_i2c_read@len,f
  8333     14C9  0823               	movf	readReg@dev,w
  8334     14CA  0086               	movwf	6
  8335     14CB  0187               	clrf	7
  8336     14CC  0801               	movf	1,w
  8337     14CD  3187  277A  3194   	fcall	_tof_i2c_read
  8338     14D0  0020               	movlb	0	; select bank0
  8339     14D1  00A1               	movwf	??_readReg
  8340     14D2  0823               	movf	readReg@dev,w
  8341     14D3  3E02               	addlw	2
  8342     14D4  0086               	movwf	6
  8343     14D5  0187               	clrf	7
  8344     14D6  0821               	movf	??_readReg,w
  8345     14D7  0081               	movwf	1
  8346     14D8                     l2276:
  8347                           
  8348                           ;main.c: 271:     return val;
  8349     14D8  0822               	movf	readReg@val,w
  8350     14D9                     l293:
  8351     14D9  0008               	return
  8352     14DA                     __end_of_readReg:
  8353                           
  8354                           	psect	text31
  8355     077A                     __ptext31:	
  8356 ;; *************** function _tof_i2c_read *****************
  8357 ;; Defined at:
  8358 ;;		line 195 in file "main.c"
  8359 ;; Parameters:    Size  Location     Type
  8360 ;;  addr            1    wreg     unsigned char 
  8361 ;;  reg             1    6[COMMON] unsigned char 
  8362 ;;  dst             1    7[COMMON] PTR unsigned char 
  8363 ;;		 -> VL53L0X_Init@ref_spad_map(6), readReg32@buf(4), readReg16@buf(2), readReg@val(1), 
  8364 ;;  len             1    8[COMMON] unsigned char 
  8365 ;; Auto vars:     Size  Location     Type
  8366 ;;  addr            1   12[COMMON] unsigned char 
  8367 ;;  ack             1   11[COMMON] _Bool 
  8368 ;;  i               1   13[COMMON] unsigned char 
  8369 ;; Return value:  Size  Location     Type
  8370 ;;                  1    wreg      unsigned char 
  8371 ;; Registers used:
  8372 ;;		wreg, fsr1l, fsr1h, status,2, status,0, pclath, cstack
  8373 ;; Tracked objects:
  8374 ;;		On entry : 0/0
  8375 ;;		On exit  : 0/0
  8376 ;;		Unchanged: 0/0
  8377 ;; Data sizes:     COMMON   BANK0   BANK1   BANK2   BANK3   BANK4   BANK5   BANK6   BANK7   BANK8   BANK9  BANK10  BANK1
      +1  BANK12  BANK13  BANK14  BANK15  BANK16  BANK17  BANK18  BANK19  BANK20  BANK21  BANK22  BANK23  BANK24  BANK25
  8378 ;;      Params:         3       0       0       0       0       0       0       0       0       0       0       0       
      +0       0       0       0       0       0       0       0       0       0       0       0       0       0       0
  8379 ;;      Locals:         3       0       0       0       0       0       0       0       0       0       0       0       
      +0       0       0       0       0       0       0       0       0       0       0       0       0       0       0
  8380 ;;      Temps:          2       0       0       0       0       0       0       0       0       0       0       0       
      +0       0       0       0       0       0       0       0       0       0       0       0       0       0       0
  8381 ;;      Totals:         8       0       0       0       0       0       0       0       0       0       0       0       
      +0       0       0       0       0       0       0       0       0       0       0       0       0       0       0
  8382 ;;Total ram usage:        8 bytes
  8383 ;; Hardware stack levels used: 1
  8384 ;; Hardware stack levels required when called: 3
  8385 ;; This function calls:
  8386 ;;		_I2C_ReadByte
  8387 ;;		_I2C_RepeatedStart
  8388 ;;		_I2C_Start
  8389 ;;		_I2C_Stop
  8390 ;;		_I2C_WriteByte
  8391 ;; This function is called by:
  8392 ;;		_readReg
  8393 ;;		_readReg16
  8394 ;;		_readMulti
  8395 ;;		_readReg32
  8396 ;; This function uses a non-reentrant model
  8397 ;;
  8398                           
  8399     077A                     _tof_i2c_read:	
  8400                           ;psect for function _tof_i2c_read
  8401                           
  8402                           
  8403                           ;incstack = 0
  8404                           ; Regs used in _tof_i2c_read: [wreg+fsr1l+fsr1h+status,2+status,0+pclath+cstack]
  8405                           ;tof_i2c_read@addr stored from wreg
  8406     077A  00FC               	movwf	tof_i2c_read@addr
  8407     077B                     l2212:
  8408                           
  8409                           ;main.c: 195: static uint8_t tof_i2c_read(uint8_t addr, uint8_t reg, uint8_t *dst, uint8
      +                          _t len);main.c: 196: {;main.c: 198:     if (I2C_Start() != I2C_OK) return 1;
  8410     077B  3196  2600  3187   	fcall	_I2C_Start
  8411     077E  3A00               	xorlw	0
  8412     077F  1903               	skipnz
  8413     0780  2F82               	goto	u1851
  8414     0781  2F83               	goto	u1850
  8415     0782                     u1851:
  8416     0782  2F85               	goto	l2218
  8417     0783                     u1850:
  8418     0783                     l2214:
  8419     0783  3001               	movlw	1
  8420     0784  2FF3               	goto	l273
  8421     0785                     l2218:
  8422                           
  8423                           ;main.c: 200:     if (I2C_WriteByte(addr << 1) != I2C_OK)
  8424     0785  357C               	lslf	tof_i2c_read@addr,w
  8425     0786  3196  264E  3187   	fcall	_I2C_WriteByte
  8426     0789  3A00               	xorlw	0
  8427     078A  1903               	skipnz
  8428     078B  2F8D               	goto	u1861
  8429     078C  2F8E               	goto	u1860
  8430     078D                     u1861:
  8431     078D  2F93               	goto	l2226
  8432     078E                     u1860:
  8433     078E                     l2220:
  8434                           
  8435                           ;main.c: 201:     {;main.c: 202:         I2C_Stop();
  8436     078E  3195  2570  3187   	fcall	_I2C_Stop
  8437     0791                     l2222:
  8438                           
  8439                           ;main.c: 203:         return 2;
  8440     0791  3002               	movlw	2
  8441     0792  2FF3               	goto	l273
  8442     0793                     l2226:
  8443                           
  8444                           ;main.c: 206:     if (I2C_WriteByte(reg) != I2C_OK)
  8445     0793  0876               	movf	tof_i2c_read@reg,w
  8446     0794  3196  264E  3187   	fcall	_I2C_WriteByte
  8447     0797  3A00               	xorlw	0
  8448     0798  1903               	skipnz
  8449     0799  2F9B               	goto	u1871
  8450     079A  2F9C               	goto	u1870
  8451     079B                     u1871:
  8452     079B  2FA1               	goto	l2234
  8453     079C                     u1870:
  8454     079C                     l2228:
  8455                           
  8456                           ;main.c: 207:     {;main.c: 208:         I2C_Stop();
  8457     079C  3195  2570  3187   	fcall	_I2C_Stop
  8458     079F                     l2230:
  8459                           
  8460                           ;main.c: 209:         return 3;
  8461     079F  3003               	movlw	3
  8462     07A0  2FF3               	goto	l273
  8463     07A1                     l2234:
  8464                           
  8465                           ;main.c: 213:     if (I2C_RepeatedStart() != I2C_OK)
  8466     07A1  3195  25DB  3187   	fcall	_I2C_RepeatedStart
  8467     07A4  3A00               	xorlw	0
  8468     07A5  1903               	skipnz
  8469     07A6  2FA8               	goto	u1881
  8470     07A7  2FA9               	goto	u1880
  8471     07A8                     u1881:
  8472     07A8  2FAE               	goto	l2242
  8473     07A9                     u1880:
  8474     07A9                     l2236:
  8475                           
  8476                           ;main.c: 214:     {;main.c: 215:         I2C_Stop();
  8477     07A9  3195  2570  3187   	fcall	_I2C_Stop
  8478     07AC                     l2238:
  8479                           
  8480                           ;main.c: 216:         return 4;
  8481     07AC  3004               	movlw	4
  8482     07AD  2FF3               	goto	l273
  8483     07AE                     l2242:
  8484                           
  8485                           ;main.c: 219:     if (I2C_WriteByte((addr << 1) | 0x01) != I2C_OK)
  8486     07AE  1403               	setc
  8487     07AF  0D7C               	rlf	tof_i2c_read@addr,w
  8488     07B0  3196  264E  3187   	fcall	_I2C_WriteByte
  8489     07B3  3A00               	xorlw	0
  8490     07B4  1903               	skipnz
  8491     07B5  2FB7               	goto	u1891
  8492     07B6  2FB8               	goto	u1890
  8493     07B7                     u1891:
  8494     07B7  2FBD               	goto	l2250
  8495     07B8                     u1890:
  8496     07B8                     l2244:
  8497                           
  8498                           ;main.c: 220:     {;main.c: 221:         I2C_Stop();
  8499     07B8  3195  2570  3187   	fcall	_I2C_Stop
  8500     07BB                     l2246:
  8501                           
  8502                           ;main.c: 222:         return 5;
  8503     07BB  3005               	movlw	5
  8504     07BC  2FF3               	goto	l273
  8505     07BD                     l2250:
  8506                           
  8507                           ;main.c: 226:     for (uint8_t i = 0; i < len; i++)
  8508     07BD  01FD               	clrf	tof_i2c_read@i
  8509     07BE  2FE9               	goto	l2264
  8510     07BF                     l2252:
  8511                           
  8512                           ;main.c: 227:     {;main.c: 228:         _Bool ack = (i < (len - 1));
  8513     07BF  0878               	movf	tof_i2c_read@len,w
  8514     07C0  3EFF               	addlw	255
  8515     07C1  00F9               	movwf	??_tof_i2c_read
  8516     07C2  30FF               	movlw	255
  8517     07C3  1803               	skipnc
  8518     07C4  3000               	movlw	0
  8519     07C5  00FA               	movwf	??_tof_i2c_read+1
  8520     07C6  087A               	movf	??_tof_i2c_read+1,w
  8521     07C7  3A80               	xorlw	128
  8522     07C8  3C80               	sublw	128
  8523     07C9  1D03               	skipz
  8524     07CA  2FCD               	goto	u1905
  8525     07CB  0879               	movf	??_tof_i2c_read,w
  8526     07CC  027D               	subwf	tof_i2c_read@i,w
  8527     07CD                     u1905:
  8528     07CD  1C03               	skipc
  8529     07CE  2FD0               	goto	u1901
  8530     07CF  2FD2               	goto	u1900
  8531     07D0                     u1901:
  8532     07D0  3001               	movlw	1
  8533     07D1  2FD3               	goto	u1910
  8534     07D2                     u1900:
  8535     07D2  3000               	movlw	0
  8536     07D3                     u1910:
  8537     07D3  00FB               	movwf	tof_i2c_read@ack
  8538     07D4                     l2254:
  8539                           
  8540                           ;main.c: 229:         if (I2C_ReadByte(&dst[i], ack) != I2C_OK)
  8541     07D4  087B               	movf	tof_i2c_read@ack,w
  8542     07D5  00F3               	movwf	I2C_ReadByte@ack
  8543     07D6  0877               	movf	tof_i2c_read@dst,w
  8544     07D7  077D               	addwf	tof_i2c_read@i,w
  8545     07D8  3188  2007  3187   	fcall	_I2C_ReadByte
  8546     07DB  3A00               	xorlw	0
  8547     07DC  1903               	skipnz
  8548     07DD  2FDF               	goto	u1921
  8549     07DE  2FE0               	goto	u1920
  8550     07DF                     u1921:
  8551     07DF  2FE5               	goto	l2262
  8552     07E0                     u1920:
  8553     07E0                     l2256:
  8554                           
  8555                           ;main.c: 230:         {;main.c: 231:             I2C_Stop();
  8556     07E0  3195  2570  3187   	fcall	_I2C_Stop
  8557     07E3                     l2258:
  8558                           
  8559                           ;main.c: 232:             return 6;
  8560     07E3  3006               	movlw	6
  8561     07E4  2FF3               	goto	l273
  8562     07E5                     l2262:
  8563                           
  8564                           ;main.c: 234:     }
  8565     07E5  3001               	movlw	1
  8566     07E6  00F9               	movwf	??_tof_i2c_read
  8567     07E7  0879               	movf	??_tof_i2c_read,w
  8568     07E8  07FD               	addwf	tof_i2c_read@i,f
  8569     07E9                     l2264:
  8570     07E9  0878               	movf	tof_i2c_read@len,w
  8571     07EA  027D               	subwf	tof_i2c_read@i,w
  8572     07EB  1C03               	skipc
  8573     07EC  2FEE               	goto	u1931
  8574     07ED  2FEF               	goto	u1930
  8575     07EE                     u1931:
  8576     07EE  2FBF               	goto	l2252
  8577     07EF                     u1930:
  8578     07EF                     l2266:
  8579                           
  8580                           ;main.c: 236:     I2C_Stop();
  8581     07EF  3195  2570  3187   	fcall	_I2C_Stop
  8582     07F2                     l2268:
  8583                           
  8584                           ;main.c: 237:     return 0;
  8585     07F2  3000               	movlw	0
  8586     07F3                     l273:
  8587     07F3  0008               	return
  8588     07F4                     __end_of_tof_i2c_read:
  8589                           
  8590                           	psect	text32
  8591     164E                     __ptext32:	
  8592 ;; *************** function _I2C_WriteByte *****************
  8593 ;; Defined at:
  8594 ;;		line 161 in file "I2C.c"
  8595 ;; Parameters:    Size  Location     Type
  8596 ;;  data            1    wreg     unsigned char 
  8597 ;; Auto vars:     Size  Location     Type
  8598 ;;  data            1    3[COMMON] unsigned char 
  8599 ;;  st              1    4[COMMON] enum E6036
  8600 ;; Return value:  Size  Location     Type
  8601 ;;                  1    wreg      enum E6036
  8602 ;; Registers used:
  8603 ;;		wreg, status,2, status,0, pclath, cstack
  8604 ;; Tracked objects:
  8605 ;;		On entry : 0/0
  8606 ;;		On exit  : 0/0
  8607 ;;		Unchanged: 0/0
  8608 ;; Data sizes:     COMMON   BANK0   BANK1   BANK2   BANK3   BANK4   BANK5   BANK6   BANK7   BANK8   BANK9  BANK10  BANK1
      +1  BANK12  BANK13  BANK14  BANK15  BANK16  BANK17  BANK18  BANK19  BANK20  BANK21  BANK22  BANK23  BANK24  BANK25
  8609 ;;      Params:         0       0       0       0       0       0       0       0       0       0       0       0       
      +0       0       0       0       0       0       0       0       0       0       0       0       0       0       0
  8610 ;;      Locals:         2       0       0       0       0       0       0       0       0       0       0       0       
      +0       0       0       0       0       0       0       0       0       0       0       0       0       0       0
  8611 ;;      Temps:          0       0       0       0       0       0       0       0       0       0       0       0       
      +0       0       0       0       0       0       0       0       0       0       0       0       0       0       0
  8612 ;;      Totals:         2       0       0       0       0       0       0       0       0       0       0       0       
      +0       0       0       0       0       0       0       0       0       0       0       0       0       0       0
  8613 ;;Total ram usage:        2 bytes
  8614 ;; Hardware stack levels used: 1
  8615 ;; Hardware stack levels required when called: 2
  8616 ;; This function calls:
  8617 ;;		_I2C_WaitIF
  8618 ;;		_I2C_WaitIdle
  8619 ;; This function is called by:
  8620 ;;		_tof_i2c_write
  8621 ;;		_tof_i2c_read
  8622 ;; This function uses a non-reentrant model
  8623 ;;
  8624                           
  8625     164E                     _I2C_WriteByte:	
  8626                           ;psect for function _I2C_WriteByte
  8627                           
  8628                           
  8629                           ;incstack = 0
  8630                           ; Regs used in _I2C_WriteByte: [wreg+status,2+status,0+pclath+cstack]
  8631                           ;I2C_WriteByte@data stored from wreg
  8632     164E  00F3               	movwf	I2C_WriteByte@data
  8633     164F                     l2142:
  8634                           
  8635                           ;I2C.c: 161: I2C_Status_t I2C_WriteByte(uint8_t data);I2C.c: 162: {;I2C.c: 163:     I2C_
      +                          Status_t st;;I2C.c: 165:     st = I2C_WaitIdle(50);
  8636     164F  3032               	movlw	50
  8637     1650  00F0               	movwf	I2C_WaitIdle@timeout_ms
  8638     1651  3000               	movlw	0
  8639     1652  00F1               	movwf	I2C_WaitIdle@timeout_ms+1
  8640     1653  3195  25B7  3196   	fcall	_I2C_WaitIdle
  8641     1656  00F4               	movwf	I2C_WriteByte@st
  8642     1657                     l2144:
  8643                           
  8644                           ;I2C.c: 166:     if (st != I2C_OK) return st;
  8645     1657  0874               	movf	I2C_WriteByte@st,w
  8646     1658  1903               	btfsc	3,2
  8647     1659  2E5B               	goto	u1761
  8648     165A  2E5C               	goto	u1760
  8649     165B                     u1761:
  8650     165B  2E5E               	goto	l126
  8651     165C                     u1760:
  8652     165C                     l2146:
  8653     165C  0874               	movf	I2C_WriteByte@st,w
  8654     165D  2E7F               	goto	l127
  8655     165E                     l126:
  8656                           
  8657                           ;I2C.c: 168:     PIR1bits.SSP1IF = 0;
  8658     165E  0020               	movlb	0	; select bank0
  8659     165F  1191               	bcf	17,3	;volatile
  8660     1660                     l2150:
  8661                           
  8662                           ;I2C.c: 169:     SSPBUF = data;
  8663     1660  0873               	movf	I2C_WriteByte@data,w
  8664     1661  0024               	movlb	4	; select bank4
  8665     1662  0091               	movwf	17	;volatile
  8666     1663                     l2152:
  8667                           
  8668                           ;I2C.c: 171:     st = I2C_WaitIF(50);
  8669     1663  3032               	movlw	50
  8670     1664  00F0               	movwf	I2C_WaitIF@timeout_ms
  8671     1665  3000               	movlw	0
  8672     1666  00F1               	movwf	I2C_WaitIF@timeout_ms+1
  8673     1667  3195  2513  3196   	fcall	_I2C_WaitIF
  8674     166A  00F4               	movwf	I2C_WriteByte@st
  8675     166B                     l2154:
  8676                           
  8677                           ;I2C.c: 172:     if (st != I2C_OK) return st;
  8678     166B  0874               	movf	I2C_WriteByte@st,w
  8679     166C  1903               	btfsc	3,2
  8680     166D  2E6F               	goto	u1771
  8681     166E  2E70               	goto	u1770
  8682     166F                     u1771:
  8683     166F  2E71               	goto	l128
  8684     1670                     u1770:
  8685     1670  2E5C               	goto	l2146
  8686     1671                     l128:
  8687                           
  8688                           ;I2C.c: 175:     if (PIR2bits.BCL1IF)
  8689     1671  0020               	movlb	0	; select bank0
  8690     1672  1D92               	btfss	18,3	;volatile
  8691     1673  2E75               	goto	u1781
  8692     1674  2E76               	goto	u1780
  8693     1675                     u1781:
  8694     1675  2E79               	goto	l129
  8695     1676                     u1780:
  8696     1676                     l2160:
  8697                           
  8698                           ;I2C.c: 176:     {;I2C.c: 177:         PIR2bits.BCL1IF = 0;
  8699     1676  1192               	bcf	18,3	;volatile
  8700     1677                     l2162:
  8701                           
  8702                           ;I2C.c: 178:         return I2C_BUS_COLLISION;
  8703     1677  3003               	movlw	3
  8704     1678  2E7F               	goto	l127
  8705     1679                     l129:	
  8706                           ;I2C.c: 179:     }
  8707                           
  8708                           
  8709                           ;I2C.c: 182:     PIR1bits.SSP1IF = 0;
  8710     1679  1191               	bcf	17,3	;volatile
  8711     167A                     l2166:
  8712                           
  8713                           ;I2C.c: 183:     return (SSPCON2bits.ACKSTAT == 0) ? I2C_OK : I2C_NAK;
  8714     167A  0024               	movlb	4	; select bank4
  8715     167B  0E16               	swapf	22,w	;volatile
  8716     167C  0C89               	rrf	9,f
  8717     167D  0C89               	rrf	9,f
  8718     167E  3901               	andlw	1
  8719     167F                     l127:
  8720     167F  0008               	return
  8721     1680                     __end_of_I2C_WriteByte:
  8722                           
  8723                           	psect	text33
  8724     1570                     __ptext33:	
  8725 ;; *************** function _I2C_Stop *****************
  8726 ;; Defined at:
  8727 ;;		line 138 in file "I2C.c"
  8728 ;; Parameters:    Size  Location     Type
  8729 ;;		None
  8730 ;; Auto vars:     Size  Location     Type
  8731 ;;  st              1    3[COMMON] enum E6036
  8732 ;; Return value:  Size  Location     Type
  8733 ;;                  1    wreg      enum E6036
  8734 ;; Registers used:
  8735 ;;		wreg, status,2, status,0, pclath, cstack
  8736 ;; Tracked objects:
  8737 ;;		On entry : 0/0
  8738 ;;		On exit  : 0/0
  8739 ;;		Unchanged: 0/0
  8740 ;; Data sizes:     COMMON   BANK0   BANK1   BANK2   BANK3   BANK4   BANK5   BANK6   BANK7   BANK8   BANK9  BANK10  BANK1
      +1  BANK12  BANK13  BANK14  BANK15  BANK16  BANK17  BANK18  BANK19  BANK20  BANK21  BANK22  BANK23  BANK24  BANK25
  8741 ;;      Params:         0       0       0       0       0       0       0       0       0       0       0       0       
      +0       0       0       0       0       0       0       0       0       0       0       0       0       0       0
  8742 ;;      Locals:         1       0       0       0       0       0       0       0       0       0       0       0       
      +0       0       0       0       0       0       0       0       0       0       0       0       0       0       0
  8743 ;;      Temps:          0       0       0       0       0       0       0       0       0       0       0       0       
      +0       0       0       0       0       0       0       0       0       0       0       0       0       0       0
  8744 ;;      Totals:         1       0       0       0       0       0       0       0       0       0       0       0       
      +0       0       0       0       0       0       0       0       0       0       0       0       0       0       0
  8745 ;;Total ram usage:        1 bytes
  8746 ;; Hardware stack levels used: 1
  8747 ;; Hardware stack levels required when called: 2
  8748 ;; This function calls:
  8749 ;;		_I2C_WaitIF
  8750 ;;		_I2C_WaitIdle
  8751 ;; This function is called by:
  8752 ;;		_tof_i2c_write
  8753 ;;		_tof_i2c_read
  8754 ;; This function uses a non-reentrant model
  8755 ;;
  8756                           
  8757     1570                     _I2C_Stop:	
  8758                           ;psect for function _I2C_Stop
  8759                           
  8760     1570                     l2130:	
  8761                           ;incstack = 0
  8762                           ; Regs used in _I2C_Stop: [wreg+status,2+status,0+pclath+cstack]
  8763                           
  8764                           
  8765                           ;I2C.c: 140:     I2C_Status_t st;;I2C.c: 142:     st = I2C_WaitIdle(50);
  8766     1570  3032               	movlw	50
  8767     1571  00F0               	movwf	I2C_WaitIdle@timeout_ms
  8768     1572  3000               	movlw	0
  8769     1573  00F1               	movwf	I2C_WaitIdle@timeout_ms+1
  8770     1574  3195  25B7  3195   	fcall	_I2C_WaitIdle
  8771     1577  00F3               	movwf	I2C_Stop@st
  8772     1578                     l2132:
  8773                           
  8774                           ;I2C.c: 143:     if (st != I2C_OK) return st;
  8775     1578  0873               	movf	I2C_Stop@st,w
  8776     1579  1903               	btfsc	3,2
  8777     157A  2D7C               	goto	u1741
  8778     157B  2D7D               	goto	u1740
  8779     157C                     u1741:
  8780     157C  2D7E               	goto	l121
  8781     157D                     u1740:
  8782     157D  2D92               	goto	l122
  8783     157E                     l121:
  8784                           
  8785                           ;I2C.c: 145:     PIR1bits.SSP1IF = 0;
  8786     157E  0020               	movlb	0	; select bank0
  8787     157F  1191               	bcf	17,3	;volatile
  8788                           
  8789                           ;I2C.c: 146:     SSPCON2bits.PEN = 1;
  8790     1580  0024               	movlb	4	; select bank4
  8791     1581  1516               	bsf	22,2	;volatile
  8792     1582                     l2136:
  8793                           
  8794                           ;I2C.c: 148:     st = I2C_WaitIF(50);
  8795     1582  3032               	movlw	50
  8796     1583  00F0               	movwf	I2C_WaitIF@timeout_ms
  8797     1584  3000               	movlw	0
  8798     1585  00F1               	movwf	I2C_WaitIF@timeout_ms+1
  8799     1586  3195  2513  3195   	fcall	_I2C_WaitIF
  8800     1589  00F3               	movwf	I2C_Stop@st
  8801     158A                     l2138:
  8802                           
  8803                           ;I2C.c: 149:     if (st != I2C_OK) return st;
  8804     158A  0873               	movf	I2C_Stop@st,w
  8805     158B  1903               	btfsc	3,2
  8806     158C  2D8E               	goto	u1751
  8807     158D  2D8F               	goto	u1750
  8808     158E                     u1751:
  8809     158E  2D90               	goto	l123
  8810     158F                     u1750:
  8811     158F  2D92               	goto	l122
  8812     1590                     l123:
  8813                           
  8814                           ;I2C.c: 151:     PIR1bits.SSP1IF = 0;
  8815     1590  0020               	movlb	0	; select bank0
  8816     1591  1191               	bcf	17,3	;volatile
  8817     1592                     l122:	
  8818                           ;I2C.c: 152:     return I2C_OK;;	Return value of _I2C_Stop is never used
  8819                           
  8820     1592  0008               	return
  8821     1593                     __end_of_I2C_Stop:
  8822                           
  8823                           	psect	text34
  8824     1600                     __ptext34:	
  8825 ;; *************** function _I2C_Start *****************
  8826 ;; Defined at:
  8827 ;;		line 98 in file "I2C.c"
  8828 ;; Parameters:    Size  Location     Type
  8829 ;;		None
  8830 ;; Auto vars:     Size  Location     Type
  8831 ;;  st              1    3[COMMON] enum E6036
  8832 ;; Return value:  Size  Location     Type
  8833 ;;                  1    wreg      enum E6036
  8834 ;; Registers used:
  8835 ;;		wreg, status,2, status,0, pclath, cstack
  8836 ;; Tracked objects:
  8837 ;;		On entry : 0/0
  8838 ;;		On exit  : 0/0
  8839 ;;		Unchanged: 0/0
  8840 ;; Data sizes:     COMMON   BANK0   BANK1   BANK2   BANK3   BANK4   BANK5   BANK6   BANK7   BANK8   BANK9  BANK10  BANK1
      +1  BANK12  BANK13  BANK14  BANK15  BANK16  BANK17  BANK18  BANK19  BANK20  BANK21  BANK22  BANK23  BANK24  BANK25
  8841 ;;      Params:         0       0       0       0       0       0       0       0       0       0       0       0       
      +0       0       0       0       0       0       0       0       0       0       0       0       0       0       0
  8842 ;;      Locals:         1       0       0       0       0       0       0       0       0       0       0       0       
      +0       0       0       0       0       0       0       0       0       0       0       0       0       0       0
  8843 ;;      Temps:          0       0       0       0       0       0       0       0       0       0       0       0       
      +0       0       0       0       0       0       0       0       0       0       0       0       0       0       0
  8844 ;;      Totals:         1       0       0       0       0       0       0       0       0       0       0       0       
      +0       0       0       0       0       0       0       0       0       0       0       0       0       0       0
  8845 ;;Total ram usage:        1 bytes
  8846 ;; Hardware stack levels used: 1
  8847 ;; Hardware stack levels required when called: 2
  8848 ;; This function calls:
  8849 ;;		_I2C_WaitIF
  8850 ;;		_I2C_WaitIdle
  8851 ;; This function is called by:
  8852 ;;		_tof_i2c_write
  8853 ;;		_tof_i2c_read
  8854 ;; This function uses a non-reentrant model
  8855 ;;
  8856                           
  8857     1600                     _I2C_Start:	
  8858                           ;psect for function _I2C_Start
  8859                           
  8860     1600                     l2090:	
  8861                           ;incstack = 0
  8862                           ; Regs used in _I2C_Start: [wreg+status,2+status,0+pclath+cstack]
  8863                           
  8864                           
  8865                           ;I2C.c: 100:     I2C_Status_t st;;I2C.c: 102:     st = I2C_WaitIdle(50);
  8866     1600  3032               	movlw	50
  8867     1601  00F0               	movwf	I2C_WaitIdle@timeout_ms
  8868     1602  3000               	movlw	0
  8869     1603  00F1               	movwf	I2C_WaitIdle@timeout_ms+1
  8870     1604  3195  25B7  3196   	fcall	_I2C_WaitIdle
  8871     1607  00F3               	movwf	I2C_Start@st
  8872     1608                     l2092:
  8873                           
  8874                           ;I2C.c: 103:     if (st != I2C_OK) return st;
  8875     1608  0873               	movf	I2C_Start@st,w
  8876     1609  1903               	btfsc	3,2
  8877     160A  2E0C               	goto	u1701
  8878     160B  2E0D               	goto	u1700
  8879     160C                     u1701:
  8880     160C  2E0F               	goto	l111
  8881     160D                     u1700:
  8882     160D                     l2094:
  8883     160D  0873               	movf	I2C_Start@st,w
  8884     160E  2E24               	goto	l112
  8885     160F                     l111:
  8886                           
  8887                           ;I2C.c: 105:     PIR1bits.SSP1IF = 0;
  8888     160F  0020               	movlb	0	; select bank0
  8889     1610  1191               	bcf	17,3	;volatile
  8890                           
  8891                           ;I2C.c: 106:     SSPCON2bits.SEN = 1;
  8892     1611  0024               	movlb	4	; select bank4
  8893     1612  1416               	bsf	22,0	;volatile
  8894     1613                     l2098:
  8895                           
  8896                           ;I2C.c: 108:     st = I2C_WaitIF(50);
  8897     1613  3032               	movlw	50
  8898     1614  00F0               	movwf	I2C_WaitIF@timeout_ms
  8899     1615  3000               	movlw	0
  8900     1616  00F1               	movwf	I2C_WaitIF@timeout_ms+1
  8901     1617  3195  2513  3196   	fcall	_I2C_WaitIF
  8902     161A  00F3               	movwf	I2C_Start@st
  8903     161B                     l2100:
  8904                           
  8905                           ;I2C.c: 109:     if (st != I2C_OK) return st;
  8906     161B  0873               	movf	I2C_Start@st,w
  8907     161C  1903               	btfsc	3,2
  8908     161D  2E1F               	goto	u1711
  8909     161E  2E20               	goto	u1710
  8910     161F                     u1711:
  8911     161F  2E21               	goto	l113
  8912     1620                     u1710:
  8913     1620  2E0D               	goto	l2094
  8914     1621                     l113:
  8915                           
  8916                           ;I2C.c: 111:     PIR1bits.SSP1IF = 0;
  8917     1621  0020               	movlb	0	; select bank0
  8918     1622  1191               	bcf	17,3	;volatile
  8919     1623                     l2106:
  8920                           
  8921                           ;I2C.c: 112:     return I2C_OK;
  8922     1623  3000               	movlw	0
  8923     1624                     l112:
  8924     1624  0008               	return
  8925     1625                     __end_of_I2C_Start:
  8926                           
  8927                           	psect	text35
  8928     15DB                     __ptext35:	
  8929 ;; *************** function _I2C_RepeatedStart *****************
  8930 ;; Defined at:
  8931 ;;		line 118 in file "I2C.c"
  8932 ;; Parameters:    Size  Location     Type
  8933 ;;		None
  8934 ;; Auto vars:     Size  Location     Type
  8935 ;;  st              1    3[COMMON] enum E6036
  8936 ;; Return value:  Size  Location     Type
  8937 ;;                  1    wreg      enum E6036
  8938 ;; Registers used:
  8939 ;;		wreg, status,2, status,0, pclath, cstack
  8940 ;; Tracked objects:
  8941 ;;		On entry : 0/0
  8942 ;;		On exit  : 0/0
  8943 ;;		Unchanged: 0/0
  8944 ;; Data sizes:     COMMON   BANK0   BANK1   BANK2   BANK3   BANK4   BANK5   BANK6   BANK7   BANK8   BANK9  BANK10  BANK1
      +1  BANK12  BANK13  BANK14  BANK15  BANK16  BANK17  BANK18  BANK19  BANK20  BANK21  BANK22  BANK23  BANK24  BANK25
  8945 ;;      Params:         0       0       0       0       0       0       0       0       0       0       0       0       
      +0       0       0       0       0       0       0       0       0       0       0       0       0       0       0
  8946 ;;      Locals:         1       0       0       0       0       0       0       0       0       0       0       0       
      +0       0       0       0       0       0       0       0       0       0       0       0       0       0       0
  8947 ;;      Temps:          0       0       0       0       0       0       0       0       0       0       0       0       
      +0       0       0       0       0       0       0       0       0       0       0       0       0       0       0
  8948 ;;      Totals:         1       0       0       0       0       0       0       0       0       0       0       0       
      +0       0       0       0       0       0       0       0       0       0       0       0       0       0       0
  8949 ;;Total ram usage:        1 bytes
  8950 ;; Hardware stack levels used: 1
  8951 ;; Hardware stack levels required when called: 2
  8952 ;; This function calls:
  8953 ;;		_I2C_WaitIF
  8954 ;;		_I2C_WaitIdle
  8955 ;; This function is called by:
  8956 ;;		_tof_i2c_read
  8957 ;; This function uses a non-reentrant model
  8958 ;;
  8959                           
  8960     15DB                     _I2C_RepeatedStart:	
  8961                           ;psect for function _I2C_RepeatedStart
  8962                           
  8963     15DB                     l2110:	
  8964                           ;incstack = 0
  8965                           ; Regs used in _I2C_RepeatedStart: [wreg+status,2+status,0+pclath+cstack]
  8966                           
  8967                           
  8968                           ;I2C.c: 120:     I2C_Status_t st;;I2C.c: 122:     st = I2C_WaitIdle(50);
  8969     15DB  3032               	movlw	50
  8970     15DC  00F0               	movwf	I2C_WaitIdle@timeout_ms
  8971     15DD  3000               	movlw	0
  8972     15DE  00F1               	movwf	I2C_WaitIdle@timeout_ms+1
  8973     15DF  3195  25B7  3195   	fcall	_I2C_WaitIdle
  8974     15E2  00F3               	movwf	I2C_RepeatedStart@st
  8975     15E3                     l2112:
  8976                           
  8977                           ;I2C.c: 123:     if (st != I2C_OK) return st;
  8978     15E3  0873               	movf	I2C_RepeatedStart@st,w
  8979     15E4  1903               	btfsc	3,2
  8980     15E5  2DE7               	goto	u1721
  8981     15E6  2DE8               	goto	u1720
  8982     15E7                     u1721:
  8983     15E7  2DEA               	goto	l116
  8984     15E8                     u1720:
  8985     15E8                     l2114:
  8986     15E8  0873               	movf	I2C_RepeatedStart@st,w
  8987     15E9  2DFF               	goto	l117
  8988     15EA                     l116:
  8989                           
  8990                           ;I2C.c: 125:     PIR1bits.SSP1IF = 0;
  8991     15EA  0020               	movlb	0	; select bank0
  8992     15EB  1191               	bcf	17,3	;volatile
  8993                           
  8994                           ;I2C.c: 126:     SSPCON2bits.RSEN = 1;
  8995     15EC  0024               	movlb	4	; select bank4
  8996     15ED  1496               	bsf	22,1	;volatile
  8997     15EE                     l2118:
  8998                           
  8999                           ;I2C.c: 128:     st = I2C_WaitIF(50);
  9000     15EE  3032               	movlw	50
  9001     15EF  00F0               	movwf	I2C_WaitIF@timeout_ms
  9002     15F0  3000               	movlw	0
  9003     15F1  00F1               	movwf	I2C_WaitIF@timeout_ms+1
  9004     15F2  3195  2513  3195   	fcall	_I2C_WaitIF
  9005     15F5  00F3               	movwf	I2C_RepeatedStart@st
  9006     15F6                     l2120:
  9007                           
  9008                           ;I2C.c: 129:     if (st != I2C_OK) return st;
  9009     15F6  0873               	movf	I2C_RepeatedStart@st,w
  9010     15F7  1903               	btfsc	3,2
  9011     15F8  2DFA               	goto	u1731
  9012     15F9  2DFB               	goto	u1730
  9013     15FA                     u1731:
  9014     15FA  2DFC               	goto	l118
  9015     15FB                     u1730:
  9016     15FB  2DE8               	goto	l2114
  9017     15FC                     l118:
  9018                           
  9019                           ;I2C.c: 131:     PIR1bits.SSP1IF = 0;
  9020     15FC  0020               	movlb	0	; select bank0
  9021     15FD  1191               	bcf	17,3	;volatile
  9022     15FE                     l2126:
  9023                           
  9024                           ;I2C.c: 132:     return I2C_OK;
  9025     15FE  3000               	movlw	0
  9026     15FF                     l117:
  9027     15FF  0008               	return
  9028     1600                     __end_of_I2C_RepeatedStart:
  9029                           
  9030                           	psect	text36
  9031     0807                     __ptext36:	
  9032 ;; *************** function _I2C_ReadByte *****************
  9033 ;; Defined at:
  9034 ;;		line 192 in file "I2C.c"
  9035 ;; Parameters:    Size  Location     Type
  9036 ;;  data            1    wreg     PTR unsigned char 
  9037 ;;		 -> VL53L0X_Init@ref_spad_map(6), readReg32@buf(4), readReg16@buf(2), readReg@val(1), 
  9038 ;;  ack             1    3[COMMON] _Bool 
  9039 ;; Auto vars:     Size  Location     Type
  9040 ;;  data            1    4[COMMON] PTR unsigned char 
  9041 ;;		 -> VL53L0X_Init@ref_spad_map(6), readReg32@buf(4), readReg16@buf(2), readReg@val(1), 
  9042 ;;  st              1    5[COMMON] enum E6036
  9043 ;; Return value:  Size  Location     Type
  9044 ;;                  1    wreg      enum E6036
  9045 ;; Registers used:
  9046 ;;		wreg, fsr1l, fsr1h, status,2, status,0, pclath, cstack
  9047 ;; Tracked objects:
  9048 ;;		On entry : 0/0
  9049 ;;		On exit  : 0/0
  9050 ;;		Unchanged: 0/0
  9051 ;; Data sizes:     COMMON   BANK0   BANK1   BANK2   BANK3   BANK4   BANK5   BANK6   BANK7   BANK8   BANK9  BANK10  BANK1
      +1  BANK12  BANK13  BANK14  BANK15  BANK16  BANK17  BANK18  BANK19  BANK20  BANK21  BANK22  BANK23  BANK24  BANK25
  9052 ;;      Params:         1       0       0       0       0       0       0       0       0       0       0       0       
      +0       0       0       0       0       0       0       0       0       0       0       0       0       0       0
  9053 ;;      Locals:         2       0       0       0       0       0       0       0       0       0       0       0       
      +0       0       0       0       0       0       0       0       0       0       0       0       0       0       0
  9054 ;;      Temps:          0       0       0       0       0       0       0       0       0       0       0       0       
      +0       0       0       0       0       0       0       0       0       0       0       0       0       0       0
  9055 ;;      Totals:         3       0       0       0       0       0       0       0       0       0       0       0       
      +0       0       0       0       0       0       0       0       0       0       0       0       0       0       0
  9056 ;;Total ram usage:        3 bytes
  9057 ;; Hardware stack levels used: 1
  9058 ;; Hardware stack levels required when called: 2
  9059 ;; This function calls:
  9060 ;;		_I2C_WaitIF
  9061 ;;		_I2C_WaitIdle
  9062 ;; This function is called by:
  9063 ;;		_tof_i2c_read
  9064 ;; This function uses a non-reentrant model
  9065 ;;
  9066                           
  9067     0807                     _I2C_ReadByte:	
  9068                           ;psect for function _I2C_ReadByte
  9069                           
  9070                           
  9071                           ;incstack = 0
  9072                           ; Regs used in _I2C_ReadByte: [wreg+fsr1l+fsr1h+status,2+status,0+pclath+cstack]
  9073                           ;I2C_ReadByte@data stored from wreg
  9074     0807  00F4               	movwf	I2C_ReadByte@data
  9075     0808                     l2170:
  9076                           
  9077                           ;I2C.c: 192: I2C_Status_t I2C_ReadByte(uint8_t *data, _Bool ack);I2C.c: 193: {;I2C.c: 19
      +                          4:     I2C_Status_t st;;I2C.c: 196:     if (data == ((void*)0)) return I2C_TIMEOUT;
  9078     0808  0874               	movf	I2C_ReadByte@data,w
  9079     0809  1D03               	btfss	3,2
  9080     080A  280C               	goto	u1791
  9081     080B  280D               	goto	u1790
  9082     080C                     u1791:
  9083     080C  280F               	goto	l2176
  9084     080D                     u1790:
  9085     080D                     l2172:
  9086     080D  3002               	movlw	2
  9087     080E  2853               	goto	l133
  9088     080F                     l2176:
  9089                           
  9090                           ;I2C.c: 198:     st = I2C_WaitIdle(50);
  9091     080F  3032               	movlw	50
  9092     0810  00F0               	movwf	I2C_WaitIdle@timeout_ms
  9093     0811  3000               	movlw	0
  9094     0812  00F1               	movwf	I2C_WaitIdle@timeout_ms+1
  9095     0813  3195  25B7  3188   	fcall	_I2C_WaitIdle
  9096     0816  00F5               	movwf	I2C_ReadByte@st
  9097     0817                     l2178:
  9098                           
  9099                           ;I2C.c: 199:     if (st != I2C_OK) return st;
  9100     0817  0875               	movf	I2C_ReadByte@st,w
  9101     0818  1903               	btfsc	3,2
  9102     0819  281B               	goto	u1801
  9103     081A  281C               	goto	u1800
  9104     081B                     u1801:
  9105     081B  281E               	goto	l134
  9106     081C                     u1800:
  9107     081C                     l2180:
  9108     081C  0875               	movf	I2C_ReadByte@st,w
  9109     081D  2853               	goto	l133
  9110     081E                     l134:
  9111                           
  9112                           ;I2C.c: 202:     PIR1bits.SSP1IF = 0;
  9113     081E  0020               	movlb	0	; select bank0
  9114     081F  1191               	bcf	17,3	;volatile
  9115                           
  9116                           ;I2C.c: 203:     SSPCON2bits.RCEN = 1;
  9117     0820  0024               	movlb	4	; select bank4
  9118     0821  1596               	bsf	22,3	;volatile
  9119     0822                     l2184:
  9120                           
  9121                           ;I2C.c: 205:     st = I2C_WaitIF(50);
  9122     0822  3032               	movlw	50
  9123     0823  00F0               	movwf	I2C_WaitIF@timeout_ms
  9124     0824  3000               	movlw	0
  9125     0825  00F1               	movwf	I2C_WaitIF@timeout_ms+1
  9126     0826  3195  2513  3188   	fcall	_I2C_WaitIF
  9127     0829  00F5               	movwf	I2C_ReadByte@st
  9128     082A                     l2186:
  9129                           
  9130                           ;I2C.c: 206:     if (st != I2C_OK) return st;
  9131     082A  0875               	movf	I2C_ReadByte@st,w
  9132     082B  1903               	btfsc	3,2
  9133     082C  282E               	goto	u1811
  9134     082D  282F               	goto	u1810
  9135     082E                     u1811:
  9136     082E  2830               	goto	l2192
  9137     082F                     u1810:
  9138     082F  281C               	goto	l2180
  9139     0830                     l2192:
  9140                           
  9141                           ;I2C.c: 208:     *data = SSPBUF;
  9142     0830  0874               	movf	I2C_ReadByte@data,w
  9143     0831  0086               	movwf	6
  9144     0832  0187               	clrf	7
  9145     0833  0024               	movlb	4	; select bank4
  9146     0834  0811               	movf	17,w	;volatile
  9147     0835  0081               	movwf	1
  9148     0836                     l2194:
  9149                           
  9150                           ;I2C.c: 211:     PIR1bits.SSP1IF = 0;
  9151     0836  0020               	movlb	0	; select bank0
  9152     0837  1191               	bcf	17,3	;volatile
  9153     0838                     l2196:
  9154                           
  9155                           ;I2C.c: 212:     SSPCON2bits.ACKDT = (ack ? 0 : 1);
  9156     0838  0873               	movf	I2C_ReadByte@ack,w
  9157     0839  1903               	btfsc	3,2
  9158     083A  283C               	goto	u1821
  9159     083B  283F               	goto	u1820
  9160     083C                     u1821:
  9161     083C  0024               	movlb	4	; select bank4
  9162     083D  1696               	bsf	22,5	;volatile
  9163     083E  2841               	goto	u1834
  9164     083F                     u1820:
  9165     083F  0024               	movlb	4	; select bank4
  9166     0840  1296               	bcf	22,5	;volatile
  9167     0841                     u1834:
  9168     0841                     l2198:
  9169                           
  9170                           ;I2C.c: 213:     SSPCON2bits.ACKEN = 1;
  9171     0841  1616               	bsf	22,4	;volatile
  9172     0842                     l2200:
  9173                           
  9174                           ;I2C.c: 215:     st = I2C_WaitIF(50);
  9175     0842  3032               	movlw	50
  9176     0843  00F0               	movwf	I2C_WaitIF@timeout_ms
  9177     0844  3000               	movlw	0
  9178     0845  00F1               	movwf	I2C_WaitIF@timeout_ms+1
  9179     0846  3195  2513  3188   	fcall	_I2C_WaitIF
  9180     0849  00F5               	movwf	I2C_ReadByte@st
  9181     084A                     l2202:
  9182                           
  9183                           ;I2C.c: 216:     if (st != I2C_OK) return st;
  9184     084A  0875               	movf	I2C_ReadByte@st,w
  9185     084B  1903               	btfsc	3,2
  9186     084C  284E               	goto	u1841
  9187     084D  284F               	goto	u1840
  9188     084E                     u1841:
  9189     084E  2850               	goto	l136
  9190     084F                     u1840:
  9191     084F  281C               	goto	l2180
  9192     0850                     l136:
  9193                           
  9194                           ;I2C.c: 218:     PIR1bits.SSP1IF = 0;
  9195     0850  0020               	movlb	0	; select bank0
  9196     0851  1191               	bcf	17,3	;volatile
  9197     0852                     l2208:
  9198                           
  9199                           ;I2C.c: 219:     return I2C_OK;
  9200     0852  3000               	movlw	0
  9201     0853                     l133:
  9202     0853  0008               	return
  9203     0854                     __end_of_I2C_ReadByte:
  9204                           
  9205                           	psect	text37
  9206     15B7                     __ptext37:	
  9207 ;; *************** function _I2C_WaitIdle *****************
  9208 ;; Defined at:
  9209 ;;		line 81 in file "I2C.c"
  9210 ;; Parameters:    Size  Location     Type
  9211 ;;  timeout_ms      2    0[COMMON] unsigned short 
  9212 ;; Auto vars:     Size  Location     Type
  9213 ;;		None
  9214 ;; Return value:  Size  Location     Type
  9215 ;;                  1    wreg      enum E6036
  9216 ;; Registers used:
  9217 ;;		wreg, status,2, status,0
  9218 ;; Tracked objects:
  9219 ;;		On entry : 0/0
  9220 ;;		On exit  : 0/0
  9221 ;;		Unchanged: 0/0
  9222 ;; Data sizes:     COMMON   BANK0   BANK1   BANK2   BANK3   BANK4   BANK5   BANK6   BANK7   BANK8   BANK9  BANK10  BANK1
      +1  BANK12  BANK13  BANK14  BANK15  BANK16  BANK17  BANK18  BANK19  BANK20  BANK21  BANK22  BANK23  BANK24  BANK25
  9223 ;;      Params:         2       0       0       0       0       0       0       0       0       0       0       0       
      +0       0       0       0       0       0       0       0       0       0       0       0       0       0       0
  9224 ;;      Locals:         0       0       0       0       0       0       0       0       0       0       0       0       
      +0       0       0       0       0       0       0       0       0       0       0       0       0       0       0
  9225 ;;      Temps:          1       0       0       0       0       0       0       0       0       0       0       0       
      +0       0       0       0       0       0       0       0       0       0       0       0       0       0       0
  9226 ;;      Totals:         3       0       0       0       0       0       0       0       0       0       0       0       
      +0       0       0       0       0       0       0       0       0       0       0       0       0       0       0
  9227 ;;Total ram usage:        3 bytes
  9228 ;; Hardware stack levels used: 1
  9229 ;; Hardware stack levels required when called: 1
  9230 ;; This function calls:
  9231 ;;		Nothing
  9232 ;; This function is called by:
  9233 ;;		_I2C_Start
  9234 ;;		_I2C_RepeatedStart
  9235 ;;		_I2C_Stop
  9236 ;;		_I2C_WriteByte
  9237 ;;		_I2C_ReadByte
  9238 ;; This function uses a non-reentrant model
  9239 ;;
  9240                           
  9241     15B7                     _I2C_WaitIdle:	
  9242                           ;psect for function _I2C_WaitIdle
  9243                           
  9244     15B7                     l2072:	
  9245                           ;incstack = 0
  9246                           ; Regs used in _I2C_WaitIdle: [wreg+status,2+status,0]
  9247                           
  9248                           
  9249                           ;I2C.c: 81: I2C_Status_t I2C_WaitIdle(uint16_t timeout_ms);I2C.c: 82: {;I2C.c: 83:     w
      +                          hile (timeout_ms--)
  9250     15B7  2DCD               	goto	l2084
  9251     15B8                     l2074:
  9252                           
  9253                           ;I2C.c: 84:     {;I2C.c: 87:         if ((SSPCON2 & 0x1F) == 0 && SSPSTATbits.R_nW == 0)
  9254     15B8  0024               	movlb	4	; select bank4
  9255     15B9  0816               	movf	22,w	;volatile
  9256     15BA  391F               	andlw	31
  9257     15BB  1D03               	btfss	3,2
  9258     15BC  2DBE               	goto	u1671
  9259     15BD  2DBF               	goto	u1670
  9260     15BE                     u1671:
  9261     15BE  2DC5               	goto	l2082
  9262     15BF                     u1670:
  9263     15BF                     l2076:
  9264     15BF  1914               	btfsc	20,2	;volatile
  9265     15C0  2DC2               	goto	u1681
  9266     15C1  2DC3               	goto	u1680
  9267     15C2                     u1681:
  9268     15C2  2DC5               	goto	l2082
  9269     15C3                     u1680:
  9270     15C3                     l2078:
  9271                           
  9272                           ;I2C.c: 88:             return I2C_OK;
  9273     15C3  3000               	movlw	0
  9274     15C4  2DDA               	goto	l107
  9275     15C5                     l2082:
  9276                           
  9277                           ;I2C.c: 90:         _delay((unsigned long)((1)*(32000000/4000.0)));
  9278     15C5  300B               	movlw	11
  9279     15C6  00F2               	movwf	??_I2C_WaitIdle
  9280     15C7  3062               	movlw	98
  9281     15C8                     u3297:
  9282     15C8  0B89               	decfsz	9,f
  9283     15C9  2DC8               	goto	u3297
  9284     15CA  0BF2               	decfsz	??_I2C_WaitIdle,f
  9285     15CB  2DC8               	goto	u3297
  9286     15CC  3200               	nop2
  9287     15CD                     l2084:
  9288                           
  9289                           ;I2C.c: 83:     while (timeout_ms--)
  9290     15CD  3001               	movlw	1
  9291     15CE  02F0               	subwf	I2C_WaitIdle@timeout_ms,f
  9292     15CF  3000               	movlw	0
  9293     15D0  3BF1               	subwfb	I2C_WaitIdle@timeout_ms+1,f
  9294     15D1  0A70               	incf	I2C_WaitIdle@timeout_ms,w
  9295     15D2  1D03               	skipz
  9296     15D3  2DD8               	goto	u1691
  9297     15D4  0A71               	incf	I2C_WaitIdle@timeout_ms+1,w
  9298     15D5  1D03               	btfss	3,2
  9299     15D6  2DD8               	goto	u1691
  9300     15D7  2DD9               	goto	u1690
  9301     15D8                     u1691:
  9302     15D8  2DB8               	goto	l2074
  9303     15D9                     u1690:
  9304     15D9                     l2086:
  9305                           
  9306                           ;I2C.c: 92:     return I2C_TIMEOUT;
  9307     15D9  3002               	movlw	2
  9308     15DA                     l107:
  9309     15DA  0008               	return
  9310     15DB                     __end_of_I2C_WaitIdle:
  9311                           
  9312                           	psect	text38
  9313     1513                     __ptext38:	
  9314 ;; *************** function _I2C_WaitIF *****************
  9315 ;; Defined at:
  9316 ;;		line 23 in file "I2C.c"
  9317 ;; Parameters:    Size  Location     Type
  9318 ;;  timeout_ms      2    0[COMMON] unsigned short 
  9319 ;; Auto vars:     Size  Location     Type
  9320 ;;		None
  9321 ;; Return value:  Size  Location     Type
  9322 ;;                  1    wreg      enum E6036
  9323 ;; Registers used:
  9324 ;;		wreg, status,2, status,0
  9325 ;; Tracked objects:
  9326 ;;		On entry : 0/0
  9327 ;;		On exit  : 0/0
  9328 ;;		Unchanged: 0/0
  9329 ;; Data sizes:     COMMON   BANK0   BANK1   BANK2   BANK3   BANK4   BANK5   BANK6   BANK7   BANK8   BANK9  BANK10  BANK1
      +1  BANK12  BANK13  BANK14  BANK15  BANK16  BANK17  BANK18  BANK19  BANK20  BANK21  BANK22  BANK23  BANK24  BANK25
  9330 ;;      Params:         2       0       0       0       0       0       0       0       0       0       0       0       
      +0       0       0       0       0       0       0       0       0       0       0       0       0       0       0
  9331 ;;      Locals:         0       0       0       0       0       0       0       0       0       0       0       0       
      +0       0       0       0       0       0       0       0       0       0       0       0       0       0       0
  9332 ;;      Temps:          1       0       0       0       0       0       0       0       0       0       0       0       
      +0       0       0       0       0       0       0       0       0       0       0       0       0       0       0
  9333 ;;      Totals:         3       0       0       0       0       0       0       0       0       0       0       0       
      +0       0       0       0       0       0       0       0       0       0       0       0       0       0       0
  9334 ;;Total ram usage:        3 bytes
  9335 ;; Hardware stack levels used: 1
  9336 ;; Hardware stack levels required when called: 1
  9337 ;; This function calls:
  9338 ;;		Nothing
  9339 ;; This function is called by:
  9340 ;;		_I2C_Start
  9341 ;;		_I2C_RepeatedStart
  9342 ;;		_I2C_Stop
  9343 ;;		_I2C_WriteByte
  9344 ;;		_I2C_ReadByte
  9345 ;; This function uses a non-reentrant model
  9346 ;;
  9347                           
  9348     1513                     _I2C_WaitIF:	
  9349                           ;psect for function _I2C_WaitIF
  9350                           
  9351     1513                     l2058:	
  9352                           ;incstack = 0
  9353                           ; Regs used in _I2C_WaitIF: [wreg+status,2+status,0]
  9354                           
  9355                           
  9356                           ;I2C.c: 23: static I2C_Status_t I2C_WaitIF(uint16_t timeout_ms);I2C.c: 24: {;I2C.c: 25: 
      +                              while (timeout_ms--)
  9357     1513  2D23               	goto	l2066
  9358     1514                     l92:
  9359                           
  9360                           ;I2C.c: 26:     {;I2C.c: 27:         if (PIR1bits.SSP1IF)
  9361     1514  0020               	movlb	0	; select bank0
  9362     1515  1D91               	btfss	17,3	;volatile
  9363     1516  2D18               	goto	u1651
  9364     1517  2D19               	goto	u1650
  9365     1518                     u1651:
  9366     1518  2D1B               	goto	l2064
  9367     1519                     u1650:
  9368     1519                     l2060:
  9369                           
  9370                           ;I2C.c: 28:             return I2C_OK;
  9371     1519  3000               	movlw	0
  9372     151A  2D30               	goto	l94
  9373     151B                     l2064:
  9374                           
  9375                           ;I2C.c: 30:         _delay((unsigned long)((1)*(32000000/4000.0)));
  9376     151B  300B               	movlw	11
  9377     151C  00F2               	movwf	??_I2C_WaitIF
  9378     151D  3062               	movlw	98
  9379     151E                     u3307:
  9380     151E  0B89               	decfsz	9,f
  9381     151F  2D1E               	goto	u3307
  9382     1520  0BF2               	decfsz	??_I2C_WaitIF,f
  9383     1521  2D1E               	goto	u3307
  9384     1522  3200               	nop2
  9385     1523                     l2066:
  9386                           
  9387                           ;I2C.c: 25:     while (timeout_ms--)
  9388     1523  3001               	movlw	1
  9389     1524  02F0               	subwf	I2C_WaitIF@timeout_ms,f
  9390     1525  3000               	movlw	0
  9391     1526  3BF1               	subwfb	I2C_WaitIF@timeout_ms+1,f
  9392     1527  0A70               	incf	I2C_WaitIF@timeout_ms,w
  9393     1528  1D03               	skipz
  9394     1529  2D2E               	goto	u1661
  9395     152A  0A71               	incf	I2C_WaitIF@timeout_ms+1,w
  9396     152B  1D03               	btfss	3,2
  9397     152C  2D2E               	goto	u1661
  9398     152D  2D2F               	goto	u1660
  9399     152E                     u1661:
  9400     152E  2D14               	goto	l92
  9401     152F                     u1660:
  9402     152F                     l2068:
  9403                           
  9404                           ;I2C.c: 32:     return I2C_TIMEOUT;
  9405     152F  3002               	movlw	2
  9406     1530                     l94:
  9407     1530  0008               	return
  9408     1531                     __end_of_I2C_WaitIF:
  9409                           
  9410                           	psect	text39
  9411     140B                     __ptext39:	
  9412 ;; *************** function _TMR0_Init *****************
  9413 ;; Defined at:
  9414 ;;		line 55 in file "main.c"
  9415 ;; Parameters:    Size  Location     Type
  9416 ;;		None
  9417 ;; Auto vars:     Size  Location     Type
  9418 ;;		None
  9419 ;; Return value:  Size  Location     Type
  9420 ;;                  1    wreg      void 
  9421 ;; Registers used:
  9422 ;;		wreg, status,2, status,0
  9423 ;; Tracked objects:
  9424 ;;		On entry : 0/0
  9425 ;;		On exit  : 0/0
  9426 ;;		Unchanged: 0/0
  9427 ;; Data sizes:     COMMON   BANK0   BANK1   BANK2   BANK3   BANK4   BANK5   BANK6   BANK7   BANK8   BANK9  BANK10  BANK1
      +1  BANK12  BANK13  BANK14  BANK15  BANK16  BANK17  BANK18  BANK19  BANK20  BANK21  BANK22  BANK23  BANK24  BANK25
  9428 ;;      Params:         0       0       0       0       0       0       0       0       0       0       0       0       
      +0       0       0       0       0       0       0       0       0       0       0       0       0       0       0
  9429 ;;      Locals:         0       0       0       0       0       0       0       0       0       0       0       0       
      +0       0       0       0       0       0       0       0       0       0       0       0       0       0       0
  9430 ;;      Temps:          0       0       0       0       0       0       0       0       0       0       0       0       
      +0       0       0       0       0       0       0       0       0       0       0       0       0       0       0
  9431 ;;      Totals:         0       0       0       0       0       0       0       0       0       0       0       0       
      +0       0       0       0       0       0       0       0       0       0       0       0       0       0       0
  9432 ;;Total ram usage:        0 bytes
  9433 ;; Hardware stack levels used: 1
  9434 ;; Hardware stack levels required when called: 1
  9435 ;; This function calls:
  9436 ;;		Nothing
  9437 ;; This function is called by:
  9438 ;;		_main
  9439 ;; This function uses a non-reentrant model
  9440 ;;
  9441                           
  9442     140B                     _TMR0_Init:	
  9443                           ;psect for function _TMR0_Init
  9444                           
  9445     140B                     l2816:	
  9446                           ;incstack = 0
  9447                           ; Regs used in _TMR0_Init: [wreg+status,2+status,0]
  9448                           
  9449                           
  9450                           ;main.c: 57:     OPTION_REGbits.TMR0CS = 0;
  9451     140B  0021               	movlb	1	; select bank1
  9452     140C  1295               	bcf	21,5	;volatile
  9453                           
  9454                           ;main.c: 58:     OPTION_REGbits.PSA = 0;
  9455     140D  1195               	bcf	21,3	;volatile
  9456     140E                     l2818:
  9457                           
  9458                           ;main.c: 59:     OPTION_REGbits.PS = 0b100;
  9459     140E  0815               	movf	21,w	;volatile
  9460     140F  39F8               	andlw	-8
  9461     1410  3804               	iorlw	4
  9462     1411  0095               	movwf	21	;volatile
  9463     1412                     l2820:
  9464                           
  9465                           ;main.c: 60:     TMR0 = 6;
  9466     1412  3006               	movlw	6
  9467     1413  0020               	movlb	0	; select bank0
  9468     1414  0095               	movwf	21	;volatile
  9469     1415                     l2822:
  9470                           
  9471                           ;main.c: 61:     INTCONbits.TMR0IF = 0;
  9472     1415  110B               	bcf	11,2	;volatile
  9473     1416                     l2824:
  9474                           
  9475                           ;main.c: 62:     INTCONbits.TMR0IE = 1;
  9476     1416  168B               	bsf	11,5	;volatile
  9477     1417                     l2826:
  9478                           
  9479                           ;main.c: 63:     INTCONbits.GIE = 1;
  9480     1417  178B               	bsf	11,7	;volatile
  9481     1418                     l2828:
  9482                           
  9483                           ;main.c: 64:     INTCONbits.PEIE = 1;
  9484     1418  170B               	bsf	11,6	;volatile
  9485     1419                     l250:
  9486     1419  0008               	return
  9487     141A                     __end_of_TMR0_Init:
  9488                           
  9489                           	psect	text40
  9490     143B                     __ptext40:	
  9491 ;; *************** function _I2C_Init *****************
  9492 ;; Defined at:
  9493 ;;		line 41 in file "I2C.c"
  9494 ;; Parameters:    Size  Location     Type
  9495 ;;		None
  9496 ;; Auto vars:     Size  Location     Type
  9497 ;;		None
  9498 ;; Return value:  Size  Location     Type
  9499 ;;                  1    wreg      void 
  9500 ;; Registers used:
  9501 ;;		wreg, status,2, status,0, pclath, cstack
  9502 ;; Tracked objects:
  9503 ;;		On entry : 0/0
  9504 ;;		On exit  : 0/0
  9505 ;;		Unchanged: 0/0
  9506 ;; Data sizes:     COMMON   BANK0   BANK1   BANK2   BANK3   BANK4   BANK5   BANK6   BANK7   BANK8   BANK9  BANK10  BANK1
      +1  BANK12  BANK13  BANK14  BANK15  BANK16  BANK17  BANK18  BANK19  BANK20  BANK21  BANK22  BANK23  BANK24  BANK25
  9507 ;;      Params:         0       0       0       0       0       0       0       0       0       0       0       0       
      +0       0       0       0       0       0       0       0       0       0       0       0       0       0       0
  9508 ;;      Locals:         0       0       0       0       0       0       0       0       0       0       0       0       
      +0       0       0       0       0       0       0       0       0       0       0       0       0       0       0
  9509 ;;      Temps:          1       0       0       0       0       0       0       0       0       0       0       0       
      +0       0       0       0       0       0       0       0       0       0       0       0       0       0       0
  9510 ;;      Totals:         1       0       0       0       0       0       0       0       0       0       0       0       
      +0       0       0       0       0       0       0       0       0       0       0       0       0       0       0
  9511 ;;Total ram usage:        1 bytes
  9512 ;; Hardware stack levels used: 1
  9513 ;; Hardware stack levels required when called: 2
  9514 ;; This function calls:
  9515 ;;		_I2C_ClearErrors
  9516 ;; This function is called by:
  9517 ;;		_main
  9518 ;; This function uses a non-reentrant model
  9519 ;;
  9520                           
  9521     143B                     _I2C_Init:	
  9522                           ;psect for function _I2C_Init
  9523                           
  9524     143B                     l2806:	
  9525                           ;incstack = 0
  9526                           ; Regs used in _I2C_Init: [wreg+status,2+status,0+pclath+cstack]
  9527                           
  9528                           
  9529                           ;I2C.c: 44:     SSPCONbits.SSPM = 0x08;
  9530     143B  0024               	movlb	4	; select bank4
  9531     143C  0815               	movf	21,w	;volatile
  9532     143D  39F0               	andlw	-16
  9533     143E  3808               	iorlw	8
  9534     143F  0095               	movwf	21	;volatile
  9535     1440                     l2808:
  9536                           
  9537                           ;I2C.c: 47:     SSPCONbits.SSPEN = 1;
  9538     1440  1695               	bsf	21,5	;volatile
  9539     1441                     l2810:
  9540                           
  9541                           ;I2C.c: 50:     SSPADD = 79;
  9542     1441  304F               	movlw	79
  9543     1442  0092               	movwf	18	;volatile
  9544     1443                     l2812:
  9545                           
  9546                           ;I2C.c: 52:     I2C_ClearErrors();
  9547     1443  3188  2000  3194   	fcall	_I2C_ClearErrors
  9548     1446                     l2814:
  9549                           
  9550                           ;I2C.c: 53:     _delay((unsigned long)((10)*(32000000/4000.0)));
  9551     1446  3068               	movlw	104
  9552     1447  00F0               	movwf	??_I2C_Init
  9553     1448  30E4               	movlw	228
  9554     1449                     u3317:
  9555     1449  0B89               	decfsz	9,f
  9556     144A  2C49               	goto	u3317
  9557     144B  0BF0               	decfsz	??_I2C_Init,f
  9558     144C  2C49               	goto	u3317
  9559     144D  3200               	nop2
  9560     144E                     l98:
  9561     144E  0008               	return
  9562     144F                     __end_of_I2C_Init:
  9563                           
  9564                           	psect	text41
  9565     0800                     __ptext41:	
  9566 ;; *************** function _I2C_ClearErrors *****************
  9567 ;; Defined at:
  9568 ;;		line 62 in file "I2C.c"
  9569 ;; Parameters:    Size  Location     Type
  9570 ;;		None
  9571 ;; Auto vars:     Size  Location     Type
  9572 ;;		None
  9573 ;; Return value:  Size  Location     Type
  9574 ;;                  1    wreg      void 
  9575 ;; Registers used:
  9576 ;;		None
  9577 ;; Tracked objects:
  9578 ;;		On entry : 0/0
  9579 ;;		On exit  : 0/0
  9580 ;;		Unchanged: 0/0
  9581 ;; Data sizes:     COMMON   BANK0   BANK1   BANK2   BANK3   BANK4   BANK5   BANK6   BANK7   BANK8   BANK9  BANK10  BANK1
      +1  BANK12  BANK13  BANK14  BANK15  BANK16  BANK17  BANK18  BANK19  BANK20  BANK21  BANK22  BANK23  BANK24  BANK25
  9582 ;;      Params:         0       0       0       0       0       0       0       0       0       0       0       0       
      +0       0       0       0       0       0       0       0       0       0       0       0       0       0       0
  9583 ;;      Locals:         0       0       0       0       0       0       0       0       0       0       0       0       
      +0       0       0       0       0       0       0       0       0       0       0       0       0       0       0
  9584 ;;      Temps:          0       0       0       0       0       0       0       0       0       0       0       0       
      +0       0       0       0       0       0       0       0       0       0       0       0       0       0       0
  9585 ;;      Totals:         0       0       0       0       0       0       0       0       0       0       0       0       
      +0       0       0       0       0       0       0       0       0       0       0       0       0       0       0
  9586 ;;Total ram usage:        0 bytes
  9587 ;; Hardware stack levels used: 1
  9588 ;; Hardware stack levels required when called: 1
  9589 ;; This function calls:
  9590 ;;		Nothing
  9591 ;; This function is called by:
  9592 ;;		_I2C_Init
  9593 ;; This function uses a non-reentrant model
  9594 ;;
  9595                           
  9596     0800                     _I2C_ClearErrors:	
  9597                           ;psect for function _I2C_ClearErrors
  9598                           
  9599     0800                     l2588:	
  9600                           ;incstack = 0
  9601                           ; Regs used in _I2C_ClearErrors: []
  9602                           
  9603                           
  9604                           ;I2C.c: 65:     SSPCON1bits.SSPOV = 0;
  9605     0800  0024               	movlb	4	; select bank4
  9606     0801  1315               	bcf	21,6	;volatile
  9607                           
  9608                           ;I2C.c: 66:     SSPCON1bits.WCOL = 0;
  9609     0802  1395               	bcf	21,7	;volatile
  9610                           
  9611                           ;I2C.c: 69:     PIR2bits.BCL1IF = 0;
  9612     0803  0020               	movlb	0	; select bank0
  9613     0804  1192               	bcf	18,3	;volatile
  9614                           
  9615                           ;I2C.c: 72:     PIR1bits.SSP1IF = 0;
  9616     0805  1191               	bcf	17,3	;volatile
  9617     0806                     l101:
  9618     0806  0008               	return
  9619     0807                     __end_of_I2C_ClearErrors:
  9620                           
  9621                           	psect	text42
  9622     14F6                     __ptext42:	
  9623 ;; *************** function _EUSART_Write_Text *****************
  9624 ;; Defined at:
  9625 ;;		line 127 in file "EUSART.c"
  9626 ;; Parameters:    Size  Location     Type
  9627 ;;  text            2    1[COMMON] PTR unsigned char 
  9628 ;;		 -> STR_9(6), STR_8(2), STR_7(10), STR_6(13), 
  9629 ;;		 -> STR_5(13), STR_4(14), STR_3(10), STR_2(24), 
  9630 ;;		 -> STR_1(26), 
  9631 ;; Auto vars:     Size  Location     Type
  9632 ;;  i               2    4[COMMON] int 
  9633 ;; Return value:  Size  Location     Type
  9634 ;;                  1    wreg      void 
  9635 ;; Registers used:
  9636 ;;		wreg, fsr0l, fsr0h, status,2, status,0, pclath, cstack
  9637 ;; Tracked objects:
  9638 ;;		On entry : 0/0
  9639 ;;		On exit  : 0/0
  9640 ;;		Unchanged: 0/0
  9641 ;; Data sizes:     COMMON   BANK0   BANK1   BANK2   BANK3   BANK4   BANK5   BANK6   BANK7   BANK8   BANK9  BANK10  BANK1
      +1  BANK12  BANK13  BANK14  BANK15  BANK16  BANK17  BANK18  BANK19  BANK20  BANK21  BANK22  BANK23  BANK24  BANK25
  9642 ;;      Params:         2       0       0       0       0       0       0       0       0       0       0       0       
      +0       0       0       0       0       0       0       0       0       0       0       0       0       0       0
  9643 ;;      Locals:         2       0       0       0       0       0       0       0       0       0       0       0       
      +0       0       0       0       0       0       0       0       0       0       0       0       0       0       0
  9644 ;;      Temps:          1       0       0       0       0       0       0       0       0       0       0       0       
      +0       0       0       0       0       0       0       0       0       0       0       0       0       0       0
  9645 ;;      Totals:         5       0       0       0       0       0       0       0       0       0       0       0       
      +0       0       0       0       0       0       0       0       0       0       0       0       0       0       0
  9646 ;;Total ram usage:        5 bytes
  9647 ;; Hardware stack levels used: 1
  9648 ;; Hardware stack levels required when called: 2
  9649 ;; This function calls:
  9650 ;;		_EUSART_Write
  9651 ;; This function is called by:
  9652 ;;		_main
  9653 ;; This function uses a non-reentrant model
  9654 ;;
  9655                           
  9656     14F6                     _EUSART_Write_Text:	
  9657                           ;psect for function _EUSART_Write_Text
  9658                           
  9659     14F6                     l2786:	
  9660                           ;incstack = 0
  9661                           ; Regs used in _EUSART_Write_Text: [wreg-fsr0h+status,2+status,0+pclath+cstack]
  9662                           
  9663                           
  9664                           ;EUSART.c: 127: void EUSART_Write_Text(char *text);EUSART.c: 128: {;EUSART.c: 129:   int
      +                           i;;EUSART.c: 130:   for(i=0;text[i]!='\0';i++)
  9665     14F6  01F4               	clrf	EUSART_Write_Text@i
  9666     14F7  01F5               	clrf	EUSART_Write_Text@i+1
  9667     14F8  2D07               	goto	l2792
  9668     14F9                     l2788:
  9669                           
  9670                           ;EUSART.c: 131:    EUSART_Write(text[i]);
  9671     14F9  0871               	movf	EUSART_Write_Text@text,w
  9672     14FA  0774               	addwf	EUSART_Write_Text@i,w
  9673     14FB  0084               	movwf	4
  9674     14FC  0872               	movf	EUSART_Write_Text@text+1,w
  9675     14FD  3D75               	addwfc	EUSART_Write_Text@i+1,w
  9676     14FE  0085               	movwf	5
  9677     14FF  0800               	movf	0,w	;code access
  9678     1500  3187  27F4  3194   	fcall	_EUSART_Write
  9679     1503                     l2790:
  9680     1503  3001               	movlw	1
  9681     1504  07F4               	addwf	EUSART_Write_Text@i,f
  9682     1505  3000               	movlw	0
  9683     1506  3DF5               	addwfc	EUSART_Write_Text@i+1,f
  9684     1507                     l2792:
  9685     1507  0871               	movf	EUSART_Write_Text@text,w
  9686     1508  0774               	addwf	EUSART_Write_Text@i,w
  9687     1509  0084               	movwf	4
  9688     150A  0872               	movf	EUSART_Write_Text@text+1,w
  9689     150B  3D75               	addwfc	EUSART_Write_Text@i+1,w
  9690     150C  0085               	movwf	5
  9691     150D  0012               	moviw fsr0++
  9692     150E  1D03               	btfss	3,2
  9693     150F  2D11               	goto	u3001
  9694     1510  2D12               	goto	u3000
  9695     1511                     u3001:
  9696     1511  2CF9               	goto	l2788
  9697     1512                     u3000:
  9698     1512                     l50:
  9699     1512  0008               	return
  9700     1513                     __end_of_EUSART_Write_Text:
  9701                           
  9702                           	psect	text43
  9703     1593                     __ptext43:	
  9704 ;; *************** function _EUSART_Write_Integer *****************
  9705 ;; Defined at:
  9706 ;;		line 185 in file "EUSART.c"
  9707 ;; Parameters:    Size  Location     Type
  9708 ;;  value_to_sen    2   11[COMMON] int 
  9709 ;; Auto vars:     Size  Location     Type
  9710 ;;  buffer         20    7[BANK0 ] unsigned char [20]
  9711 ;;  temp_ptr        1   28[BANK0 ] PTR unsigned char 
  9712 ;;		 -> EUSART_Write_Integer@buffer(20), 
  9713 ;;  ptr             1   27[BANK0 ] PTR unsigned char 
  9714 ;;		 -> EUSART_Write_Integer@buffer(20), 
  9715 ;; Return value:  Size  Location     Type
  9716 ;;                  1    wreg      void 
  9717 ;; Registers used:
  9718 ;;		wreg, fsr0l, fsr0h, fsr1l, fsr1h, status,2, status,0, pclath, cstack
  9719 ;; Tracked objects:
  9720 ;;		On entry : 0/0
  9721 ;;		On exit  : 0/0
  9722 ;;		Unchanged: 0/0
  9723 ;; Data sizes:     COMMON   BANK0   BANK1   BANK2   BANK3   BANK4   BANK5   BANK6   BANK7   BANK8   BANK9  BANK10  BANK1
      +1  BANK12  BANK13  BANK14  BANK15  BANK16  BANK17  BANK18  BANK19  BANK20  BANK21  BANK22  BANK23  BANK24  BANK25
  9724 ;;      Params:         2       0       0       0       0       0       0       0       0       0       0       0       
      +0       0       0       0       0       0       0       0       0       0       0       0       0       0       0
  9725 ;;      Locals:         0      22       0       0       0       0       0       0       0       0       0       0       
      +0       0       0       0       0       0       0       0       0       0       0       0       0       0       0
  9726 ;;      Temps:          1       0       0       0       0       0       0       0       0       0       0       0       
      +0       0       0       0       0       0       0       0       0       0       0       0       0       0       0
  9727 ;;      Totals:         3      22       0       0       0       0       0       0       0       0       0       0       
      +0       0       0       0       0       0       0       0       0       0       0       0       0       0       0
  9728 ;;Total ram usage:       25 bytes
  9729 ;; Hardware stack levels used: 1
  9730 ;; Hardware stack levels required when called: 3
  9731 ;; This function calls:
  9732 ;;		_EUSART_Write
  9733 ;;		_itoa
  9734 ;; This function is called by:
  9735 ;;		_main
  9736 ;; This function uses a non-reentrant model
  9737 ;;
  9738                           
  9739     1593                     _EUSART_Write_Integer:	
  9740                           ;psect for function _EUSART_Write_Integer
  9741                           
  9742     1593                     l2794:	
  9743                           ;incstack = 0
  9744                           ; Regs used in _EUSART_Write_Integer: [wreg-fsr1h+status,2+status,0+pclath+cstack]
  9745                           
  9746                           
  9747                           ;EUSART.c: 185: void EUSART_Write_Integer(int value_to_send);EUSART.c: 186: {;EUSART.c: 
      +                          187:     char buffer[20];;EUSART.c: 188:     char *ptr = buffer;
  9748     1593  3027               	movlw	(low (EUSART_Write_Integer@buffer| 0))& (0+255)
  9749     1594  0020               	movlb	0	; select bank0
  9750     1595  00BB               	movwf	EUSART_Write_Integer@ptr
  9751     1596                     l2796:
  9752                           
  9753                           ;EUSART.c: 190:     itoa(&ptr, value_to_send);
  9754     1596  087C               	movf	EUSART_Write_Integer@value_to_send+1,w
  9755     1597  00FA               	movwf	itoa@d+1
  9756     1598  087B               	movf	EUSART_Write_Integer@value_to_send,w
  9757     1599  00F9               	movwf	itoa@d
  9758     159A  303B               	movlw	(low (EUSART_Write_Integer@ptr| 0))& (0+255)
  9759     159B  318C  24F0  3195   	fcall	_itoa
  9760     159E                     l2798:
  9761                           
  9762                           ;EUSART.c: 193:     char *temp_ptr = buffer;
  9763     159E  3027               	movlw	(low (EUSART_Write_Integer@buffer| 0))& (0+255)
  9764     159F  0020               	movlb	0	; select bank0
  9765     15A0  00BC               	movwf	EUSART_Write_Integer@temp_ptr
  9766                           
  9767                           ;EUSART.c: 194:     while (*temp_ptr != '\0') {
  9768     15A1  2DAE               	goto	l2804
  9769     15A2                     l2800:
  9770                           
  9771                           ;EUSART.c: 195:         EUSART_Write(*temp_ptr++);
  9772     15A2  083C               	movf	EUSART_Write_Integer@temp_ptr,w
  9773     15A3  0086               	movwf	6
  9774     15A4  0187               	clrf	7
  9775     15A5  0801               	movf	1,w
  9776     15A6  3187  27F4  3195   	fcall	_EUSART_Write
  9777     15A9                     l2802:
  9778     15A9  3001               	movlw	1
  9779     15AA  00FD               	movwf	??_EUSART_Write_Integer
  9780     15AB  087D               	movf	??_EUSART_Write_Integer,w
  9781     15AC  0020               	movlb	0	; select bank0
  9782     15AD  07BC               	addwf	EUSART_Write_Integer@temp_ptr,f
  9783     15AE                     l2804:
  9784                           
  9785                           ;EUSART.c: 194:     while (*temp_ptr != '\0') {
  9786     15AE  083C               	movf	EUSART_Write_Integer@temp_ptr,w
  9787     15AF  0086               	movwf	6
  9788     15B0  0187               	clrf	7
  9789     15B1  0801               	movf	1,w
  9790     15B2  1D03               	btfss	3,2
  9791     15B3  2DB5               	goto	u3011
  9792     15B4  2DB6               	goto	u3010
  9793     15B5                     u3011:
  9794     15B5  2DA2               	goto	l2800
  9795     15B6                     u3010:
  9796     15B6                     l66:
  9797     15B6  0008               	return
  9798     15B7                     __end_of_EUSART_Write_Integer:
  9799                           
  9800                           	psect	text44
  9801     0CF0                     __ptext44:	
  9802 ;; *************** function _itoa *****************
  9803 ;; Defined at:
  9804 ;;		line 149 in file "EUSART.c"
  9805 ;; Parameters:    Size  Location     Type
  9806 ;;  buf             1    wreg     PTR PTR unsigned char 
  9807 ;;		 -> EUSART_Write_Integer@ptr(1), 
  9808 ;;  d               2    9[COMMON] int 
  9809 ;; Auto vars:     Size  Location     Type
  9810 ;;  buf             1    4[BANK0 ] PTR PTR unsigned char 
  9811 ;;		 -> EUSART_Write_Integer@ptr(1), 
  9812 ;;  num             2    0[BANK0 ] int 
  9813 ;;  div             2    5[BANK0 ] int 
  9814 ;;  temp            2    2[BANK0 ] int 
  9815 ;; Return value:  Size  Location     Type
  9816 ;;                  1    wreg      void 
  9817 ;; Registers used:
  9818 ;;		wreg, fsr0l, fsr0h, fsr1l, fsr1h, status,2, status,0, pclath, cstack
  9819 ;; Tracked objects:
  9820 ;;		On entry : 0/0
  9821 ;;		On exit  : 0/0
  9822 ;;		Unchanged: 0/0
  9823 ;; Data sizes:     COMMON   BANK0   BANK1   BANK2   BANK3   BANK4   BANK5   BANK6   BANK7   BANK8   BANK9  BANK10  BANK1
      +1  BANK12  BANK13  BANK14  BANK15  BANK16  BANK17  BANK18  BANK19  BANK20  BANK21  BANK22  BANK23  BANK24  BANK25
  9824 ;;      Params:         2       0       0       0       0       0       0       0       0       0       0       0       
      +0       0       0       0       0       0       0       0       0       0       0       0       0       0       0
  9825 ;;      Locals:         0       7       0       0       0       0       0       0       0       0       0       0       
      +0       0       0       0       0       0       0       0       0       0       0       0       0       0       0
  9826 ;;      Temps:          0       0       0       0       0       0       0       0       0       0       0       0       
      +0       0       0       0       0       0       0       0       0       0       0       0       0       0       0
  9827 ;;      Totals:         2       7       0       0       0       0       0       0       0       0       0       0       
      +0       0       0       0       0       0       0       0       0       0       0       0       0       0       0
  9828 ;;Total ram usage:        9 bytes
  9829 ;; Hardware stack levels used: 1
  9830 ;; Hardware stack levels required when called: 2
  9831 ;; This function calls:
  9832 ;;		___awdiv
  9833 ;;		___awmod
  9834 ;;		___wmul
  9835 ;; This function is called by:
  9836 ;;		_EUSART_Write_Integer
  9837 ;; This function uses a non-reentrant model
  9838 ;;
  9839                           
  9840     0CF0                     _itoa:	
  9841                           ;psect for function _itoa
  9842                           
  9843                           
  9844                           ;incstack = 0
  9845                           ; Regs used in _itoa: [wreg-fsr1h+status,2+status,0+pclath+cstack]
  9846                           ;itoa@buf stored from wreg
  9847     0CF0  0020               	movlb	0	; select bank0
  9848     0CF1  00A4               	movwf	itoa@buf
  9849     0CF2                     l2570:
  9850                           
  9851                           ;EUSART.c: 149: void itoa(char **buf, int d);EUSART.c: 150: {;EUSART.c: 151:     int div
      +                           = 1;
  9852     0CF2  3001               	movlw	1
  9853     0CF3  00A5               	movwf	itoa@div
  9854     0CF4  3000               	movlw	0
  9855     0CF5  00A6               	movwf	itoa@div+1
  9856                           
  9857                           ;EUSART.c: 152:     if (d < 0)
  9858     0CF6  1FFA               	btfss	itoa@d+1,7
  9859     0CF7  2CF9               	goto	u2601
  9860     0CF8  2CFA               	goto	u2600
  9861     0CF9                     u2601:
  9862     0CF9  2D08               	goto	l2576
  9863     0CFA                     u2600:
  9864     0CFA                     l2572:
  9865                           
  9866                           ;EUSART.c: 153:     {;EUSART.c: 154:         *((*buf)++) = '-';
  9867     0CFA  0824               	movf	itoa@buf,w
  9868     0CFB  0086               	movwf	6
  9869     0CFC  0187               	clrf	7
  9870     0CFD  3F40               	moviw [0]fsr1
  9871     0CFE  0084               	movwf	4
  9872     0CFF  0185               	clrf	5
  9873     0D00  0A81               	incf	1,f
  9874     0D01  302D               	movlw	45
  9875     0D02  0080               	movwf	0
  9876     0D03                     l2574:
  9877                           
  9878                           ;EUSART.c: 155:         d = -d;
  9879     0D03  09F9               	comf	itoa@d,f
  9880     0D04  09FA               	comf	itoa@d+1,f
  9881     0D05  0AF9               	incf	itoa@d,f
  9882     0D06  1903               	skipnz
  9883     0D07  0AFA               	incf	itoa@d+1,f
  9884     0D08                     l2576:
  9885                           
  9886                           ;EUSART.c: 158:     int temp = d;
  9887     0D08  087A               	movf	itoa@d+1,w
  9888     0D09  00A3               	movwf	itoa@temp+1
  9889     0D0A  0879               	movf	itoa@d,w
  9890     0D0B  00A2               	movwf	itoa@temp
  9891                           
  9892                           ;EUSART.c: 159:     while (temp / 10)
  9893     0D0C  2D2E               	goto	l54
  9894     0D0D                     l2578:
  9895                           
  9896                           ;EUSART.c: 160:     {;EUSART.c: 161:         temp /= 10;
  9897     0D0D  300A               	movlw	10
  9898     0D0E  00F0               	movwf	___awdiv@divisor
  9899     0D0F  3000               	movlw	0
  9900     0D10  00F1               	movwf	___awdiv@divisor+1
  9901     0D11  0020               	movlb	0	; select bank0
  9902     0D12  0823               	movf	itoa@temp+1,w
  9903     0D13  00F3               	movwf	___awdiv@dividend+1
  9904     0D14  0822               	movf	itoa@temp,w
  9905     0D15  00F2               	movwf	___awdiv@dividend
  9906     0D16  318A  2256  318C   	fcall	___awdiv
  9907     0D19  0871               	movf	?___awdiv+1,w
  9908     0D1A  0020               	movlb	0	; select bank0
  9909     0D1B  00A3               	movwf	itoa@temp+1
  9910     0D1C  0870               	movf	?___awdiv,w
  9911     0D1D  00A2               	movwf	itoa@temp
  9912                           
  9913                           ;EUSART.c: 162:         div *= 10;
  9914     0D1E  300A               	movlw	10
  9915     0D1F  00F0               	movwf	___wmul@multiplier
  9916     0D20  3000               	movlw	0
  9917     0D21  00F1               	movwf	___wmul@multiplier+1
  9918     0D22  0826               	movf	itoa@div+1,w
  9919     0D23  00F3               	movwf	___wmul@multiplicand+1
  9920     0D24  0825               	movf	itoa@div,w
  9921     0D25  00F2               	movwf	___wmul@multiplicand
  9922     0D26  3195  2531  318C   	fcall	___wmul
  9923     0D29  0871               	movf	?___wmul+1,w
  9924     0D2A  0020               	movlb	0	; select bank0
  9925     0D2B  00A6               	movwf	itoa@div+1
  9926     0D2C  0870               	movf	?___wmul,w
  9927     0D2D  00A5               	movwf	itoa@div
  9928     0D2E                     l54:	
  9929                           ;EUSART.c: 163:     }
  9930                           
  9931                           
  9932                           ;EUSART.c: 159:     while (temp / 10)
  9933     0D2E  300A               	movlw	10
  9934     0D2F  00F0               	movwf	___awdiv@divisor
  9935     0D30  3000               	movlw	0
  9936     0D31  00F1               	movwf	___awdiv@divisor+1
  9937     0D32  0823               	movf	itoa@temp+1,w
  9938     0D33  00F3               	movwf	___awdiv@dividend+1
  9939     0D34  0822               	movf	itoa@temp,w
  9940     0D35  00F2               	movwf	___awdiv@dividend
  9941     0D36  318A  2256  318C   	fcall	___awdiv
  9942     0D39  0870               	movf	?___awdiv,w
  9943     0D3A  0471               	iorwf	?___awdiv+1,w
  9944     0D3B  1D03               	btfss	3,2
  9945     0D3C  2D3E               	goto	u2611
  9946     0D3D  2D3F               	goto	u2610
  9947     0D3E                     u2611:
  9948     0D3E  2D0D               	goto	l2578
  9949     0D3F                     u2610:
  9950     0D3F  2D7A               	goto	l2584
  9951     0D40                     l2580:
  9952                           
  9953                           ;EUSART.c: 166:     {;EUSART.c: 167:         int num = d / div;
  9954     0D40  0826               	movf	itoa@div+1,w
  9955     0D41  00F1               	movwf	___awdiv@divisor+1
  9956     0D42  0825               	movf	itoa@div,w
  9957     0D43  00F0               	movwf	___awdiv@divisor
  9958     0D44  087A               	movf	itoa@d+1,w
  9959     0D45  00F3               	movwf	___awdiv@dividend+1
  9960     0D46  0879               	movf	itoa@d,w
  9961     0D47  00F2               	movwf	___awdiv@dividend
  9962     0D48  318A  2256  318C   	fcall	___awdiv
  9963     0D4B  0871               	movf	?___awdiv+1,w
  9964     0D4C  0020               	movlb	0	; select bank0
  9965     0D4D  00A1               	movwf	itoa@num+1
  9966     0D4E  0870               	movf	?___awdiv,w
  9967     0D4F  00A0               	movwf	itoa@num
  9968                           
  9969                           ;EUSART.c: 168:         d %= div;
  9970     0D50  0826               	movf	itoa@div+1,w
  9971     0D51  00F1               	movwf	___awmod@divisor+1
  9972     0D52  0825               	movf	itoa@div,w
  9973     0D53  00F0               	movwf	___awmod@divisor
  9974     0D54  087A               	movf	itoa@d+1,w
  9975     0D55  00F3               	movwf	___awmod@dividend+1
  9976     0D56  0879               	movf	itoa@d,w
  9977     0D57  00F2               	movwf	___awmod@dividend
  9978     0D58  3188  20F1  318C   	fcall	___awmod
  9979     0D5B  0871               	movf	?___awmod+1,w
  9980     0D5C  00FA               	movwf	itoa@d+1
  9981     0D5D  0870               	movf	?___awmod,w
  9982     0D5E  00F9               	movwf	itoa@d
  9983                           
  9984                           ;EUSART.c: 169:         div /= 10;
  9985     0D5F  300A               	movlw	10
  9986     0D60  00F0               	movwf	___awdiv@divisor
  9987     0D61  3000               	movlw	0
  9988     0D62  00F1               	movwf	___awdiv@divisor+1
  9989     0D63  0020               	movlb	0	; select bank0
  9990     0D64  0826               	movf	itoa@div+1,w
  9991     0D65  00F3               	movwf	___awdiv@dividend+1
  9992     0D66  0825               	movf	itoa@div,w
  9993     0D67  00F2               	movwf	___awdiv@dividend
  9994     0D68  318A  2256  318C   	fcall	___awdiv
  9995     0D6B  0871               	movf	?___awdiv+1,w
  9996     0D6C  0020               	movlb	0	; select bank0
  9997     0D6D  00A6               	movwf	itoa@div+1
  9998     0D6E  0870               	movf	?___awdiv,w
  9999     0D6F  00A5               	movwf	itoa@div
 10000     0D70                     l2582:
 10001                           
 10002                           ;EUSART.c: 170:         *((*buf)++) = num + '0';
 10003     0D70  0824               	movf	itoa@buf,w
 10004     0D71  0086               	movwf	6
 10005     0D72  0187               	clrf	7
 10006     0D73  3F40               	moviw [0]fsr1
 10007     0D74  0084               	movwf	4
 10008     0D75  0185               	clrf	5
 10009     0D76  0A81               	incf	1,f
 10010     0D77  0820               	movf	itoa@num,w
 10011     0D78  3E30               	addlw	48
 10012     0D79  0080               	movwf	0
 10013     0D7A                     l2584:
 10014                           
 10015                           ;EUSART.c: 165:     while (div != 0)
 10016     0D7A  0020               	movlb	0	; select bank0
 10017     0D7B  0825               	movf	itoa@div,w
 10018     0D7C  0426               	iorwf	itoa@div+1,w
 10019     0D7D  1D03               	btfss	3,2
 10020     0D7E  2D80               	goto	u2621
 10021     0D7F  2D81               	goto	u2620
 10022     0D80                     u2621:
 10023     0D80  2D40               	goto	l2580
 10024     0D81                     u2620:
 10025     0D81                     l2586:
 10026                           
 10027                           ;EUSART.c: 172:     *(*buf) = '\0';
 10028     0D81  0824               	movf	itoa@buf,w
 10029     0D82  0086               	movwf	6
 10030     0D83  0187               	clrf	7
 10031     0D84  0801               	movf	1,w
 10032     0D85  0086               	movwf	6
 10033     0D86  0187               	clrf	7
 10034     0D87  0181               	clrf	1
 10035     0D88                     l60:
 10036     0D88  0008               	return
 10037     0D89                     __end_of_itoa:
 10038                           
 10039                           	psect	text45
 10040     1531                     __ptext45:	
 10041 ;; *************** function ___wmul *****************
 10042 ;; Defined at:
 10043 ;;		line 15 in file "C:\Program Files\Microchip\xc8\v2.46\pic\sources\c99\common\Umul16.c"
 10044 ;; Parameters:    Size  Location     Type
 10045 ;;  multiplier      2    0[COMMON] unsigned int 
 10046 ;;  multiplicand    2    2[COMMON] unsigned int 
 10047 ;; Auto vars:     Size  Location     Type
 10048 ;;  product         2    4[COMMON] unsigned int 
 10049 ;; Return value:  Size  Location     Type
 10050 ;;                  2    0[COMMON] unsigned int 
 10051 ;; Registers used:
 10052 ;;		wreg, status,2, status,0
 10053 ;; Tracked objects:
 10054 ;;		On entry : 0/0
 10055 ;;		On exit  : 0/0
 10056 ;;		Unchanged: 0/0
 10057 ;; Data sizes:     COMMON   BANK0   BANK1   BANK2   BANK3   BANK4   BANK5   BANK6   BANK7   BANK8   BANK9  BANK10  BANK1
      +1  BANK12  BANK13  BANK14  BANK15  BANK16  BANK17  BANK18  BANK19  BANK20  BANK21  BANK22  BANK23  BANK24  BANK25
 10058 ;;      Params:         4       0       0       0       0       0       0       0       0       0       0       0       
      +0       0       0       0       0       0       0       0       0       0       0       0       0       0       0
 10059 ;;      Locals:         2       0       0       0       0       0       0       0       0       0       0       0       
      +0       0       0       0       0       0       0       0       0       0       0       0       0       0       0
 10060 ;;      Temps:          0       0       0       0       0       0       0       0       0       0       0       0       
      +0       0       0       0       0       0       0       0       0       0       0       0       0       0       0
 10061 ;;      Totals:         6       0       0       0       0       0       0       0       0       0       0       0       
      +0       0       0       0       0       0       0       0       0       0       0       0       0       0       0
 10062 ;;Total ram usage:        6 bytes
 10063 ;; Hardware stack levels used: 1
 10064 ;; Hardware stack levels required when called: 1
 10065 ;; This function calls:
 10066 ;;		Nothing
 10067 ;; This function is called by:
 10068 ;;		_itoa
 10069 ;; This function uses a non-reentrant model
 10070 ;;
 10071                           
 10072     1531                     ___wmul:	
 10073                           ;psect for function ___wmul
 10074                           
 10075     1531                     l2470:	
 10076                           ;incstack = 0
 10077                           ; Regs used in ___wmul: [wreg+status,2+status,0]
 10078                           
 10079     1531  01F4               	clrf	___wmul@product
 10080     1532  01F5               	clrf	___wmul@product+1
 10081     1533                     l2472:
 10082     1533  1C70               	btfss	___wmul@multiplier,0
 10083     1534  2D36               	goto	u2361
 10084     1535  2D37               	goto	u2360
 10085     1536                     u2361:
 10086     1536  2D3B               	goto	l538
 10087     1537                     u2360:
 10088     1537                     l2474:
 10089     1537  0872               	movf	___wmul@multiplicand,w
 10090     1538  07F4               	addwf	___wmul@product,f
 10091     1539  0873               	movf	___wmul@multiplicand+1,w
 10092     153A  3DF5               	addwfc	___wmul@product+1,f
 10093     153B                     l538:
 10094     153B  3001               	movlw	1
 10095     153C                     u2375:
 10096     153C  35F2               	lslf	___wmul@multiplicand,f
 10097     153D  0DF3               	rlf	___wmul@multiplicand+1,f
 10098     153E  0B89               	decfsz	9,f
 10099     153F  2D3C               	goto	u2375
 10100     1540                     l2476:
 10101     1540  3001               	movlw	1
 10102     1541                     u2385:
 10103     1541  36F1               	lsrf	___wmul@multiplier+1,f
 10104     1542  0CF0               	rrf	___wmul@multiplier,f
 10105     1543  0B89               	decfsz	9,f
 10106     1544  2D41               	goto	u2385
 10107     1545                     l2478:
 10108     1545  0870               	movf	___wmul@multiplier,w
 10109     1546  0471               	iorwf	___wmul@multiplier+1,w
 10110     1547  1D03               	btfss	3,2
 10111     1548  2D4A               	goto	u2391
 10112     1549  2D4B               	goto	u2390
 10113     154A                     u2391:
 10114     154A  2D33               	goto	l2472
 10115     154B                     u2390:
 10116     154B                     l2480:
 10117     154B  0875               	movf	___wmul@product+1,w
 10118     154C  00F1               	movwf	?___wmul+1
 10119     154D  0874               	movf	___wmul@product,w
 10120     154E  00F0               	movwf	?___wmul
 10121     154F                     l540:
 10122     154F  0008               	return
 10123     1550                     __end_of___wmul:
 10124                           
 10125                           	psect	text46
 10126     08F1                     __ptext46:	
 10127 ;; *************** function ___awmod *****************
 10128 ;; Defined at:
 10129 ;;		line 5 in file "C:\Program Files\Microchip\xc8\v2.46\pic\sources\c99\common\awmod.c"
 10130 ;; Parameters:    Size  Location     Type
 10131 ;;  divisor         2    0[COMMON] int 
 10132 ;;  dividend        2    2[COMMON] int 
 10133 ;; Auto vars:     Size  Location     Type
 10134 ;;  sign            1    6[COMMON] unsigned char 
 10135 ;;  counter         1    5[COMMON] unsigned char 
 10136 ;; Return value:  Size  Location     Type
 10137 ;;                  2    0[COMMON] int 
 10138 ;; Registers used:
 10139 ;;		wreg, status,2, status,0
 10140 ;; Tracked objects:
 10141 ;;		On entry : 0/0
 10142 ;;		On exit  : 0/0
 10143 ;;		Unchanged: 0/0
 10144 ;; Data sizes:     COMMON   BANK0   BANK1   BANK2   BANK3   BANK4   BANK5   BANK6   BANK7   BANK8   BANK9  BANK10  BANK1
      +1  BANK12  BANK13  BANK14  BANK15  BANK16  BANK17  BANK18  BANK19  BANK20  BANK21  BANK22  BANK23  BANK24  BANK25
 10145 ;;      Params:         4       0       0       0       0       0       0       0       0       0       0       0       
      +0       0       0       0       0       0       0       0       0       0       0       0       0       0       0
 10146 ;;      Locals:         2       0       0       0       0       0       0       0       0       0       0       0       
      +0       0       0       0       0       0       0       0       0       0       0       0       0       0       0
 10147 ;;      Temps:          1       0       0       0       0       0       0       0       0       0       0       0       
      +0       0       0       0       0       0       0       0       0       0       0       0       0       0       0
 10148 ;;      Totals:         7       0       0       0       0       0       0       0       0       0       0       0       
      +0       0       0       0       0       0       0       0       0       0       0       0       0       0       0
 10149 ;;Total ram usage:        7 bytes
 10150 ;; Hardware stack levels used: 1
 10151 ;; Hardware stack levels required when called: 1
 10152 ;; This function calls:
 10153 ;;		Nothing
 10154 ;; This function is called by:
 10155 ;;		_itoa
 10156 ;; This function uses a non-reentrant model
 10157 ;;
 10158                           
 10159     08F1                     ___awmod:	
 10160                           ;psect for function ___awmod
 10161                           
 10162     08F1                     l2528:	
 10163                           ;incstack = 0
 10164                           ; Regs used in ___awmod: [wreg+status,2+status,0]
 10165                           
 10166     08F1  01F6               	clrf	___awmod@sign
 10167     08F2                     l2530:
 10168     08F2  1FF3               	btfss	___awmod@dividend+1,7
 10169     08F3  28F5               	goto	u2501
 10170     08F4  28F6               	goto	u2500
 10171     08F5                     u2501:
 10172     08F5  28FD               	goto	l2536
 10173     08F6                     u2500:
 10174     08F6                     l2532:
 10175     08F6  09F2               	comf	___awmod@dividend,f
 10176     08F7  09F3               	comf	___awmod@dividend+1,f
 10177     08F8  0AF2               	incf	___awmod@dividend,f
 10178     08F9  1903               	skipnz
 10179     08FA  0AF3               	incf	___awmod@dividend+1,f
 10180     08FB                     l2534:
 10181     08FB  01F6               	clrf	___awmod@sign
 10182     08FC  0AF6               	incf	___awmod@sign,f
 10183     08FD                     l2536:
 10184     08FD  1FF1               	btfss	___awmod@divisor+1,7
 10185     08FE  2900               	goto	u2511
 10186     08FF  2901               	goto	u2510
 10187     0900                     u2511:
 10188     0900  2906               	goto	l2540
 10189     0901                     u2510:
 10190     0901                     l2538:
 10191     0901  09F0               	comf	___awmod@divisor,f
 10192     0902  09F1               	comf	___awmod@divisor+1,f
 10193     0903  0AF0               	incf	___awmod@divisor,f
 10194     0904  1903               	skipnz
 10195     0905  0AF1               	incf	___awmod@divisor+1,f
 10196     0906                     l2540:
 10197     0906  0870               	movf	___awmod@divisor,w
 10198     0907  0471               	iorwf	___awmod@divisor+1,w
 10199     0908  1903               	btfsc	3,2
 10200     0909  290B               	goto	u2521
 10201     090A  290C               	goto	u2520
 10202     090B                     u2521:
 10203     090B  2935               	goto	l2558
 10204     090C                     u2520:
 10205     090C                     l2542:
 10206     090C  01F5               	clrf	___awmod@counter
 10207     090D  0AF5               	incf	___awmod@counter,f
 10208     090E  2918               	goto	l2548
 10209     090F                     l2544:
 10210     090F  3001               	movlw	1
 10211     0910                     u2535:
 10212     0910  35F0               	lslf	___awmod@divisor,f
 10213     0911  0DF1               	rlf	___awmod@divisor+1,f
 10214     0912  0B89               	decfsz	9,f
 10215     0913  2910               	goto	u2535
 10216     0914                     l2546:
 10217     0914  3001               	movlw	1
 10218     0915  00F4               	movwf	??___awmod
 10219     0916  0874               	movf	??___awmod,w
 10220     0917  07F5               	addwf	___awmod@counter,f
 10221     0918                     l2548:
 10222     0918  1FF1               	btfss	___awmod@divisor+1,7
 10223     0919  291B               	goto	u2541
 10224     091A  291C               	goto	u2540
 10225     091B                     u2541:
 10226     091B  290F               	goto	l2544
 10227     091C                     u2540:
 10228     091C                     l2550:
 10229     091C  0871               	movf	___awmod@divisor+1,w
 10230     091D  0273               	subwf	___awmod@dividend+1,w
 10231     091E  1D03               	skipz
 10232     091F  2922               	goto	u2555
 10233     0920  0870               	movf	___awmod@divisor,w
 10234     0921  0272               	subwf	___awmod@dividend,w
 10235     0922                     u2555:
 10236     0922  1C03               	skipc
 10237     0923  2925               	goto	u2551
 10238     0924  2926               	goto	u2550
 10239     0925                     u2551:
 10240     0925  292A               	goto	l2554
 10241     0926                     u2550:
 10242     0926                     l2552:
 10243     0926  0870               	movf	___awmod@divisor,w
 10244     0927  02F2               	subwf	___awmod@dividend,f
 10245     0928  0871               	movf	___awmod@divisor+1,w
 10246     0929  3BF3               	subwfb	___awmod@dividend+1,f
 10247     092A                     l2554:
 10248     092A  3001               	movlw	1
 10249     092B                     u2565:
 10250     092B  36F1               	lsrf	___awmod@divisor+1,f
 10251     092C  0CF0               	rrf	___awmod@divisor,f
 10252     092D  0B89               	decfsz	9,f
 10253     092E  292B               	goto	u2565
 10254     092F                     l2556:
 10255     092F  3001               	movlw	1
 10256     0930  02F5               	subwf	___awmod@counter,f
 10257     0931  1D03               	btfss	3,2
 10258     0932  2934               	goto	u2571
 10259     0933  2935               	goto	u2570
 10260     0934                     u2571:
 10261     0934  291C               	goto	l2550
 10262     0935                     u2570:
 10263     0935                     l2558:
 10264     0935  0876               	movf	___awmod@sign,w
 10265     0936  1903               	btfsc	3,2
 10266     0937  2939               	goto	u2581
 10267     0938  293A               	goto	u2580
 10268     0939                     u2581:
 10269     0939  293F               	goto	l2562
 10270     093A                     u2580:
 10271     093A                     l2560:
 10272     093A  09F2               	comf	___awmod@dividend,f
 10273     093B  09F3               	comf	___awmod@dividend+1,f
 10274     093C  0AF2               	incf	___awmod@dividend,f
 10275     093D  1903               	skipnz
 10276     093E  0AF3               	incf	___awmod@dividend+1,f
 10277     093F                     l2562:
 10278     093F  0873               	movf	___awmod@dividend+1,w
 10279     0940  00F1               	movwf	?___awmod+1
 10280     0941  0872               	movf	___awmod@dividend,w
 10281     0942  00F0               	movwf	?___awmod
 10282     0943                     l704:
 10283     0943  0008               	return
 10284     0944                     __end_of___awmod:
 10285                           
 10286                           	psect	text47
 10287     0A56                     __ptext47:	
 10288 ;; *************** function ___awdiv *****************
 10289 ;; Defined at:
 10290 ;;		line 5 in file "C:\Program Files\Microchip\xc8\v2.46\pic\sources\c99\common\awdiv.c"
 10291 ;; Parameters:    Size  Location     Type
 10292 ;;  divisor         2    0[COMMON] int 
 10293 ;;  dividend        2    2[COMMON] int 
 10294 ;; Auto vars:     Size  Location     Type
 10295 ;;  quotient        2    7[COMMON] int 
 10296 ;;  sign            1    6[COMMON] unsigned char 
 10297 ;;  counter         1    5[COMMON] unsigned char 
 10298 ;; Return value:  Size  Location     Type
 10299 ;;                  2    0[COMMON] int 
 10300 ;; Registers used:
 10301 ;;		wreg, status,2, status,0
 10302 ;; Tracked objects:
 10303 ;;		On entry : 0/0
 10304 ;;		On exit  : 0/0
 10305 ;;		Unchanged: 0/0
 10306 ;; Data sizes:     COMMON   BANK0   BANK1   BANK2   BANK3   BANK4   BANK5   BANK6   BANK7   BANK8   BANK9  BANK10  BANK1
      +1  BANK12  BANK13  BANK14  BANK15  BANK16  BANK17  BANK18  BANK19  BANK20  BANK21  BANK22  BANK23  BANK24  BANK25
 10307 ;;      Params:         4       0       0       0       0       0       0       0       0       0       0       0       
      +0       0       0       0       0       0       0       0       0       0       0       0       0       0       0
 10308 ;;      Locals:         4       0       0       0       0       0       0       0       0       0       0       0       
      +0       0       0       0       0       0       0       0       0       0       0       0       0       0       0
 10309 ;;      Temps:          1       0       0       0       0       0       0       0       0       0       0       0       
      +0       0       0       0       0       0       0       0       0       0       0       0       0       0       0
 10310 ;;      Totals:         9       0       0       0       0       0       0       0       0       0       0       0       
      +0       0       0       0       0       0       0       0       0       0       0       0       0       0       0
 10311 ;;Total ram usage:        9 bytes
 10312 ;; Hardware stack levels used: 1
 10313 ;; Hardware stack levels required when called: 1
 10314 ;; This function calls:
 10315 ;;		Nothing
 10316 ;; This function is called by:
 10317 ;;		_itoa
 10318 ;;		_VL53L0X_Init
 10319 ;; This function uses a non-reentrant model
 10320 ;;
 10321                           
 10322     0A56                     ___awdiv:	
 10323                           ;psect for function ___awdiv
 10324                           
 10325     0A56                     l2484:	
 10326                           ;incstack = 0
 10327                           ; Regs used in ___awdiv: [wreg+status,2+status,0]
 10328                           
 10329     0A56  01F6               	clrf	___awdiv@sign
 10330     0A57                     l2486:
 10331     0A57  1FF1               	btfss	___awdiv@divisor+1,7
 10332     0A58  2A5A               	goto	u2401
 10333     0A59  2A5B               	goto	u2400
 10334     0A5A                     u2401:
 10335     0A5A  2A62               	goto	l2492
 10336     0A5B                     u2400:
 10337     0A5B                     l2488:
 10338     0A5B  09F0               	comf	___awdiv@divisor,f
 10339     0A5C  09F1               	comf	___awdiv@divisor+1,f
 10340     0A5D  0AF0               	incf	___awdiv@divisor,f
 10341     0A5E  1903               	skipnz
 10342     0A5F  0AF1               	incf	___awdiv@divisor+1,f
 10343     0A60                     l2490:
 10344     0A60  01F6               	clrf	___awdiv@sign
 10345     0A61  0AF6               	incf	___awdiv@sign,f
 10346     0A62                     l2492:
 10347     0A62  1FF3               	btfss	___awdiv@dividend+1,7
 10348     0A63  2A65               	goto	u2411
 10349     0A64  2A66               	goto	u2410
 10350     0A65                     u2411:
 10351     0A65  2A6F               	goto	l2498
 10352     0A66                     u2410:
 10353     0A66                     l2494:
 10354     0A66  09F2               	comf	___awdiv@dividend,f
 10355     0A67  09F3               	comf	___awdiv@dividend+1,f
 10356     0A68  0AF2               	incf	___awdiv@dividend,f
 10357     0A69  1903               	skipnz
 10358     0A6A  0AF3               	incf	___awdiv@dividend+1,f
 10359     0A6B                     l2496:
 10360     0A6B  3001               	movlw	1
 10361     0A6C  00F4               	movwf	??___awdiv
 10362     0A6D  0874               	movf	??___awdiv,w
 10363     0A6E  06F6               	xorwf	___awdiv@sign,f
 10364     0A6F                     l2498:
 10365     0A6F  01F7               	clrf	___awdiv@quotient
 10366     0A70  01F8               	clrf	___awdiv@quotient+1
 10367     0A71                     l2500:
 10368     0A71  0870               	movf	___awdiv@divisor,w
 10369     0A72  0471               	iorwf	___awdiv@divisor+1,w
 10370     0A73  1903               	btfsc	3,2
 10371     0A74  2A76               	goto	u2421
 10372     0A75  2A77               	goto	u2420
 10373     0A76                     u2421:
 10374     0A76  2AA6               	goto	l2520
 10375     0A77                     u2420:
 10376     0A77                     l2502:
 10377     0A77  01F5               	clrf	___awdiv@counter
 10378     0A78  0AF5               	incf	___awdiv@counter,f
 10379     0A79  2A83               	goto	l2508
 10380     0A7A                     l2504:
 10381     0A7A  3001               	movlw	1
 10382     0A7B                     u2435:
 10383     0A7B  35F0               	lslf	___awdiv@divisor,f
 10384     0A7C  0DF1               	rlf	___awdiv@divisor+1,f
 10385     0A7D  0B89               	decfsz	9,f
 10386     0A7E  2A7B               	goto	u2435
 10387     0A7F                     l2506:
 10388     0A7F  3001               	movlw	1
 10389     0A80  00F4               	movwf	??___awdiv
 10390     0A81  0874               	movf	??___awdiv,w
 10391     0A82  07F5               	addwf	___awdiv@counter,f
 10392     0A83                     l2508:
 10393     0A83  1FF1               	btfss	___awdiv@divisor+1,7
 10394     0A84  2A86               	goto	u2441
 10395     0A85  2A87               	goto	u2440
 10396     0A86                     u2441:
 10397     0A86  2A7A               	goto	l2504
 10398     0A87                     u2440:
 10399     0A87                     l2510:
 10400     0A87  3001               	movlw	1
 10401     0A88                     u2455:
 10402     0A88  35F7               	lslf	___awdiv@quotient,f
 10403     0A89  0DF8               	rlf	___awdiv@quotient+1,f
 10404     0A8A  0B89               	decfsz	9,f
 10405     0A8B  2A88               	goto	u2455
 10406     0A8C  0871               	movf	___awdiv@divisor+1,w
 10407     0A8D  0273               	subwf	___awdiv@dividend+1,w
 10408     0A8E  1D03               	skipz
 10409     0A8F  2A92               	goto	u2465
 10410     0A90  0870               	movf	___awdiv@divisor,w
 10411     0A91  0272               	subwf	___awdiv@dividend,w
 10412     0A92                     u2465:
 10413     0A92  1C03               	skipc
 10414     0A93  2A95               	goto	u2461
 10415     0A94  2A96               	goto	u2460
 10416     0A95                     u2461:
 10417     0A95  2A9B               	goto	l2516
 10418     0A96                     u2460:
 10419     0A96                     l2512:
 10420     0A96  0870               	movf	___awdiv@divisor,w
 10421     0A97  02F2               	subwf	___awdiv@dividend,f
 10422     0A98  0871               	movf	___awdiv@divisor+1,w
 10423     0A99  3BF3               	subwfb	___awdiv@dividend+1,f
 10424     0A9A                     l2514:
 10425     0A9A  1477               	bsf	___awdiv@quotient,0
 10426     0A9B                     l2516:
 10427     0A9B  3001               	movlw	1
 10428     0A9C                     u2475:
 10429     0A9C  36F1               	lsrf	___awdiv@divisor+1,f
 10430     0A9D  0CF0               	rrf	___awdiv@divisor,f
 10431     0A9E  0B89               	decfsz	9,f
 10432     0A9F  2A9C               	goto	u2475
 10433     0AA0                     l2518:
 10434     0AA0  3001               	movlw	1
 10435     0AA1  02F5               	subwf	___awdiv@counter,f
 10436     0AA2  1D03               	btfss	3,2
 10437     0AA3  2AA5               	goto	u2481
 10438     0AA4  2AA6               	goto	u2480
 10439     0AA5                     u2481:
 10440     0AA5  2A87               	goto	l2510
 10441     0AA6                     u2480:
 10442     0AA6                     l2520:
 10443     0AA6  0876               	movf	___awdiv@sign,w
 10444     0AA7  1903               	btfsc	3,2
 10445     0AA8  2AAA               	goto	u2491
 10446     0AA9  2AAB               	goto	u2490
 10447     0AAA                     u2491:
 10448     0AAA  2AB0               	goto	l2524
 10449     0AAB                     u2490:
 10450     0AAB                     l2522:
 10451     0AAB  09F7               	comf	___awdiv@quotient,f
 10452     0AAC  09F8               	comf	___awdiv@quotient+1,f
 10453     0AAD  0AF7               	incf	___awdiv@quotient,f
 10454     0AAE  1903               	skipnz
 10455     0AAF  0AF8               	incf	___awdiv@quotient+1,f
 10456     0AB0                     l2524:
 10457     0AB0  0878               	movf	___awdiv@quotient+1,w
 10458     0AB1  00F1               	movwf	?___awdiv+1
 10459     0AB2  0877               	movf	___awdiv@quotient,w
 10460     0AB3  00F0               	movwf	?___awdiv
 10461     0AB4                     l691:
 10462     0AB4  0008               	return
 10463     0AB5                     __end_of___awdiv:
 10464                           
 10465                           	psect	text48
 10466     07F4                     __ptext48:	
 10467 ;; *************** function _EUSART_Write *****************
 10468 ;; Defined at:
 10469 ;;		line 108 in file "EUSART.c"
 10470 ;; Parameters:    Size  Location     Type
 10471 ;;  txData          1    wreg     unsigned char 
 10472 ;; Auto vars:     Size  Location     Type
 10473 ;;  txData          1    0[COMMON] unsigned char 
 10474 ;; Return value:  Size  Location     Type
 10475 ;;                  1    wreg      void 
 10476 ;; Registers used:
 10477 ;;		wreg
 10478 ;; Tracked objects:
 10479 ;;		On entry : 0/0
 10480 ;;		On exit  : 0/0
 10481 ;;		Unchanged: 0/0
 10482 ;; Data sizes:     COMMON   BANK0   BANK1   BANK2   BANK3   BANK4   BANK5   BANK6   BANK7   BANK8   BANK9  BANK10  BANK1
      +1  BANK12  BANK13  BANK14  BANK15  BANK16  BANK17  BANK18  BANK19  BANK20  BANK21  BANK22  BANK23  BANK24  BANK25
 10483 ;;      Params:         0       0       0       0       0       0       0       0       0       0       0       0       
      +0       0       0       0       0       0       0       0       0       0       0       0       0       0       0
 10484 ;;      Locals:         1       0       0       0       0       0       0       0       0       0       0       0       
      +0       0       0       0       0       0       0       0       0       0       0       0       0       0       0
 10485 ;;      Temps:          0       0       0       0       0       0       0       0       0       0       0       0       
      +0       0       0       0       0       0       0       0       0       0       0       0       0       0       0
 10486 ;;      Totals:         1       0       0       0       0       0       0       0       0       0       0       0       
      +0       0       0       0       0       0       0       0       0       0       0       0       0       0       0
 10487 ;;Total ram usage:        1 bytes
 10488 ;; Hardware stack levels used: 1
 10489 ;; Hardware stack levels required when called: 1
 10490 ;; This function calls:
 10491 ;;		Nothing
 10492 ;; This function is called by:
 10493 ;;		_EUSART_Write_Text
 10494 ;;		_EUSART_Write_Integer
 10495 ;; This function uses a non-reentrant model
 10496 ;;
 10497                           
 10498     07F4                     _EUSART_Write:	
 10499                           ;psect for function _EUSART_Write
 10500                           
 10501                           
 10502                           ;incstack = 0
 10503                           ; Regs used in _EUSART_Write: [wreg]
 10504                           ;EUSART_Write@txData stored from wreg
 10505     07F4  00F0               	movwf	EUSART_Write@txData
 10506     07F5                     l2566:
 10507     07F5                     l41:	
 10508                           ;EUSART.c: 111:     {;EUSART.c: 112:     }
 10509                           
 10510                           
 10511                           ;EUSART.c: 110:     while(0 == PIR1bits.TXIF)
 10512     07F5  0020               	movlb	0	; select bank0
 10513     07F6  1E11               	btfss	17,4	;volatile
 10514     07F7  2FF9               	goto	u2591
 10515     07F8  2FFA               	goto	u2590
 10516     07F9                     u2591:
 10517     07F9  2FF5               	goto	l41
 10518     07FA                     u2590:
 10519     07FA                     l2568:
 10520                           
 10521                           ;EUSART.c: 114:     TX1REG = txData;
 10522     07FA  0870               	movf	EUSART_Write@txData,w
 10523     07FB  0023               	movlb	3	; select bank3
 10524     07FC  009A               	movwf	26	;volatile
 10525     07FD                     l44:
 10526     07FD  0008               	return
 10527     07FE                     __end_of_EUSART_Write:
 10528                           
 10529                           	psect	text49
 10530     08A1                     __ptext49:	
 10531 ;; *************** function _EUSART_Initialize *****************
 10532 ;; Defined at:
 10533 ;;		line 36 in file "EUSART.c"
 10534 ;; Parameters:    Size  Location     Type
 10535 ;;  baudrate        4    6[BANK0 ] const long 
 10536 ;; Auto vars:     Size  Location     Type
 10537 ;;  x               2    9[COMMON] unsigned int 
 10538 ;; Return value:  Size  Location     Type
 10539 ;;                  1    wreg      unsigned char 
 10540 ;; Registers used:
 10541 ;;		wreg, status,2, status,0, pclath, cstack
 10542 ;; Tracked objects:
 10543 ;;		On entry : 0/0
 10544 ;;		On exit  : 0/0
 10545 ;;		Unchanged: 0/0
 10546 ;; Data sizes:     COMMON   BANK0   BANK1   BANK2   BANK3   BANK4   BANK5   BANK6   BANK7   BANK8   BANK9  BANK10  BANK1
      +1  BANK12  BANK13  BANK14  BANK15  BANK16  BANK17  BANK18  BANK19  BANK20  BANK21  BANK22  BANK23  BANK24  BANK25
 10547 ;;      Params:         0       4       0       0       0       0       0       0       0       0       0       0       
      +0       0       0       0       0       0       0       0       0       0       0       0       0       0       0
 10548 ;;      Locals:         2       0       0       0       0       0       0       0       0       0       0       0       
      +0       0       0       0       0       0       0       0       0       0       0       0       0       0       0
 10549 ;;      Temps:          0      12       0       0       0       0       0       0       0       0       0       0       
      +0       0       0       0       0       0       0       0       0       0       0       0       0       0       0
 10550 ;;      Totals:         2      16       0       0       0       0       0       0       0       0       0       0       
      +0       0       0       0       0       0       0       0       0       0       0       0       0       0       0
 10551 ;;Total ram usage:       18 bytes
 10552 ;; Hardware stack levels used: 1
 10553 ;; Hardware stack levels required when called: 2
 10554 ;; This function calls:
 10555 ;;		___aldiv
 10556 ;; This function is called by:
 10557 ;;		_main
 10558 ;; This function uses a non-reentrant model
 10559 ;;
 10560                           
 10561     08A1                     _EUSART_Initialize:	
 10562                           ;psect for function _EUSART_Initialize
 10563                           
 10564     08A1                     l2768:	
 10565                           ;incstack = 0
 10566                           ; Regs used in _EUSART_Initialize: [wreg+status,2+status,0+pclath+cstack]
 10567                           
 10568                           
 10569                           ;EUSART.c: 36: char EUSART_Initialize(const long int baudrate);EUSART.c: 37: {;EUSART.c:
      +                           38:     unsigned int x;;EUSART.c: 39:  x = (32000000 - baudrate*64)/(baudrate*64);
 10570     08A1  0020               	movlb	0	; select bank0
 10571     08A2  0826               	movf	EUSART_Initialize@baudrate,w
 10572     08A3  00AA               	movwf	??_EUSART_Initialize
 10573     08A4  0827               	movf	EUSART_Initialize@baudrate+1,w
 10574     08A5  00AB               	movwf	??_EUSART_Initialize+1
 10575     08A6  0828               	movf	EUSART_Initialize@baudrate+2,w
 10576     08A7  00AC               	movwf	??_EUSART_Initialize+2
 10577     08A8  0829               	movf	EUSART_Initialize@baudrate+3,w
 10578     08A9  00AD               	movwf	??_EUSART_Initialize+3
 10579     08AA  3006               	movlw	6
 10580     08AB                     u2985:
 10581     08AB  35AA               	lslf	??_EUSART_Initialize,f
 10582     08AC  0DAB               	rlf	??_EUSART_Initialize+1,f
 10583     08AD  0DAC               	rlf	??_EUSART_Initialize+2,f
 10584     08AE  0DAD               	rlf	??_EUSART_Initialize+3,f
 10585     08AF                     u2980:
 10586     08AF  0B89               	decfsz	9,f
 10587     08B0  28AB               	goto	u2985
 10588     08B1  082D               	movf	??_EUSART_Initialize+3,w
 10589     08B2  00F3               	movwf	___aldiv@divisor+3
 10590     08B3  082C               	movf	??_EUSART_Initialize+2,w
 10591     08B4  00F2               	movwf	___aldiv@divisor+2
 10592     08B5  082B               	movf	??_EUSART_Initialize+1,w
 10593     08B6  00F1               	movwf	___aldiv@divisor+1
 10594     08B7  082A               	movf	??_EUSART_Initialize,w
 10595     08B8  00F0               	movwf	___aldiv@divisor
 10596     08B9  0826               	movf	EUSART_Initialize@baudrate,w
 10597     08BA  00AE               	movwf	??_EUSART_Initialize+4
 10598     08BB  0827               	movf	EUSART_Initialize@baudrate+1,w
 10599     08BC  00AF               	movwf	??_EUSART_Initialize+5
 10600     08BD  0828               	movf	EUSART_Initialize@baudrate+2,w
 10601     08BE  00B0               	movwf	??_EUSART_Initialize+6
 10602     08BF  0829               	movf	EUSART_Initialize@baudrate+3,w
 10603     08C0  00B1               	movwf	??_EUSART_Initialize+7
 10604     08C1  3006               	movlw	6
 10605     08C2                     u2995:
 10606     08C2  35AE               	lslf	??_EUSART_Initialize+4,f
 10607     08C3  0DAF               	rlf	??_EUSART_Initialize+5,f
 10608     08C4  0DB0               	rlf	??_EUSART_Initialize+6,f
 10609     08C5  0DB1               	rlf	??_EUSART_Initialize+7,f
 10610     08C6                     u2990:
 10611     08C6  0B89               	decfsz	9,f
 10612     08C7  28C2               	goto	u2995
 10613     08C8  3000               	movlw	0
 10614     08C9  00B2               	movwf	??_EUSART_Initialize+8
 10615     08CA  3048               	movlw	72
 10616     08CB  00B3               	movwf	??_EUSART_Initialize+9
 10617     08CC  30E8               	movlw	232
 10618     08CD  00B4               	movwf	??_EUSART_Initialize+10
 10619     08CE  3001               	movlw	1
 10620     08CF  00B5               	movwf	??_EUSART_Initialize+11
 10621     08D0  082E               	movf	??_EUSART_Initialize+4,w
 10622     08D1  02B2               	subwf	??_EUSART_Initialize+8,f
 10623     08D2  082F               	movf	??_EUSART_Initialize+5,w
 10624     08D3  3BB3               	subwfb	??_EUSART_Initialize+9,f
 10625     08D4  0830               	movf	??_EUSART_Initialize+6,w
 10626     08D5  3BB4               	subwfb	??_EUSART_Initialize+10,f
 10627     08D6  0831               	movf	??_EUSART_Initialize+7,w
 10628     08D7  3BB5               	subwfb	??_EUSART_Initialize+11,f
 10629     08D8  0835               	movf	??_EUSART_Initialize+11,w
 10630     08D9  00F7               	movwf	___aldiv@dividend+3
 10631     08DA  0834               	movf	??_EUSART_Initialize+10,w
 10632     08DB  00F6               	movwf	___aldiv@dividend+2
 10633     08DC  0833               	movf	??_EUSART_Initialize+9,w
 10634     08DD  00F5               	movwf	___aldiv@dividend+1
 10635     08DE  0832               	movf	??_EUSART_Initialize+8,w
 10636     08DF  00F4               	movwf	___aldiv@dividend
 10637     08E0  318B  23CF  3188   	fcall	___aldiv
 10638     08E3  0871               	movf	?___aldiv+1,w
 10639     08E4  00FA               	movwf	EUSART_Initialize@x+1
 10640     08E5  0870               	movf	?___aldiv,w
 10641     08E6  00F9               	movwf	EUSART_Initialize@x
 10642     08E7                     l2770:
 10643                           
 10644                           ;EUSART.c: 41:  SPBRGL = x;
 10645     08E7  0879               	movf	EUSART_Initialize@x,w
 10646     08E8  0023               	movlb	3	; select bank3
 10647     08E9  009B               	movwf	27	;volatile
 10648     08EA                     l2772:
 10649                           
 10650                           ;EUSART.c: 42:     BRGH = 0;
 10651     08EA  111E               	bcf	30,2	;volatile
 10652     08EB                     l2774:
 10653                           
 10654                           ;EUSART.c: 43:     BRG16 = 0;
 10655     08EB  119F               	bcf	31,3	;volatile
 10656     08EC                     l2776:
 10657                           
 10658                           ;EUSART.c: 44:     SYNC = 0;
 10659     08EC  121E               	bcf	30,4	;volatile
 10660     08ED                     l2778:
 10661                           
 10662                           ;EUSART.c: 45:     SPEN = 1;
 10663     08ED  179D               	bsf	29,7	;volatile
 10664     08EE                     l2780:
 10665                           
 10666                           ;EUSART.c: 46:     CREN = 1;
 10667     08EE  161D               	bsf	29,4	;volatile
 10668     08EF                     l2782:
 10669                           
 10670                           ;EUSART.c: 47:     TXEN = 1;
 10671     08EF  169E               	bsf	30,5	;volatile
 10672     08F0                     l25:
 10673     08F0  0008               	return
 10674     08F1                     __end_of_EUSART_Initialize:
 10675                           
 10676                           	psect	text50
 10677     0BCF                     __ptext50:	
 10678 ;; *************** function ___aldiv *****************
 10679 ;; Defined at:
 10680 ;;		line 5 in file "C:\Program Files\Microchip\xc8\v2.46\pic\sources\c99\common\aldiv.c"
 10681 ;; Parameters:    Size  Location     Type
 10682 ;;  divisor         4    0[COMMON] long 
 10683 ;;  dividend        4    4[COMMON] long 
 10684 ;; Auto vars:     Size  Location     Type
 10685 ;;  quotient        4    2[BANK0 ] long 
 10686 ;;  sign            1    1[BANK0 ] unsigned char 
 10687 ;;  counter         1    0[BANK0 ] unsigned char 
 10688 ;; Return value:  Size  Location     Type
 10689 ;;                  4    0[COMMON] long 
 10690 ;; Registers used:
 10691 ;;		wreg, status,2, status,0
 10692 ;; Tracked objects:
 10693 ;;		On entry : 0/0
 10694 ;;		On exit  : 0/0
 10695 ;;		Unchanged: 0/0
 10696 ;; Data sizes:     COMMON   BANK0   BANK1   BANK2   BANK3   BANK4   BANK5   BANK6   BANK7   BANK8   BANK9  BANK10  BANK1
      +1  BANK12  BANK13  BANK14  BANK15  BANK16  BANK17  BANK18  BANK19  BANK20  BANK21  BANK22  BANK23  BANK24  BANK25
 10697 ;;      Params:         8       0       0       0       0       0       0       0       0       0       0       0       
      +0       0       0       0       0       0       0       0       0       0       0       0       0       0       0
 10698 ;;      Locals:         0       6       0       0       0       0       0       0       0       0       0       0       
      +0       0       0       0       0       0       0       0       0       0       0       0       0       0       0
 10699 ;;      Temps:          1       0       0       0       0       0       0       0       0       0       0       0       
      +0       0       0       0       0       0       0       0       0       0       0       0       0       0       0
 10700 ;;      Totals:         9       6       0       0       0       0       0       0       0       0       0       0       
      +0       0       0       0       0       0       0       0       0       0       0       0       0       0       0
 10701 ;;Total ram usage:       15 bytes
 10702 ;; Hardware stack levels used: 1
 10703 ;; Hardware stack levels required when called: 1
 10704 ;; This function calls:
 10705 ;;		Nothing
 10706 ;; This function is called by:
 10707 ;;		_EUSART_Initialize
 10708 ;; This function uses a non-reentrant model
 10709 ;;
 10710                           
 10711     0BCF                     ___aldiv:	
 10712                           ;psect for function ___aldiv
 10713                           
 10714     0BCF                     l2728:	
 10715                           ;incstack = 0
 10716                           ; Regs used in ___aldiv: [wreg+status,2+status,0]
 10717                           
 10718     0BCF  0020               	movlb	0	; select bank0
 10719     0BD0  01A1               	clrf	___aldiv@sign
 10720     0BD1                     l2730:
 10721     0BD1  1FF3               	btfss	___aldiv@divisor+3,7
 10722     0BD2  2BD4               	goto	u2881
 10723     0BD3  2BD5               	goto	u2880
 10724     0BD4                     u2881:
 10725     0BD4  2BE2               	goto	l603
 10726     0BD5                     u2880:
 10727     0BD5                     l2732:
 10728     0BD5  09F0               	comf	___aldiv@divisor,f
 10729     0BD6  09F1               	comf	___aldiv@divisor+1,f
 10730     0BD7  09F2               	comf	___aldiv@divisor+2,f
 10731     0BD8  09F3               	comf	___aldiv@divisor+3,f
 10732     0BD9  0AF0               	incf	___aldiv@divisor,f
 10733     0BDA  1903               	skipnz
 10734     0BDB  0AF1               	incf	___aldiv@divisor+1,f
 10735     0BDC  1903               	skipnz
 10736     0BDD  0AF2               	incf	___aldiv@divisor+2,f
 10737     0BDE  1903               	skipnz
 10738     0BDF  0AF3               	incf	___aldiv@divisor+3,f
 10739     0BE0  01A1               	clrf	___aldiv@sign
 10740     0BE1  0AA1               	incf	___aldiv@sign,f
 10741     0BE2                     l603:
 10742     0BE2  1FF7               	btfss	___aldiv@dividend+3,7
 10743     0BE3  2BE5               	goto	u2891
 10744     0BE4  2BE6               	goto	u2890
 10745     0BE5                     u2891:
 10746     0BE5  2BF5               	goto	l2738
 10747     0BE6                     u2890:
 10748     0BE6                     l2734:
 10749     0BE6  09F4               	comf	___aldiv@dividend,f
 10750     0BE7  09F5               	comf	___aldiv@dividend+1,f
 10751     0BE8  09F6               	comf	___aldiv@dividend+2,f
 10752     0BE9  09F7               	comf	___aldiv@dividend+3,f
 10753     0BEA  0AF4               	incf	___aldiv@dividend,f
 10754     0BEB  1903               	skipnz
 10755     0BEC  0AF5               	incf	___aldiv@dividend+1,f
 10756     0BED  1903               	skipnz
 10757     0BEE  0AF6               	incf	___aldiv@dividend+2,f
 10758     0BEF  1903               	skipnz
 10759     0BF0  0AF7               	incf	___aldiv@dividend+3,f
 10760     0BF1                     l2736:
 10761     0BF1  3001               	movlw	1
 10762     0BF2  00F8               	movwf	??___aldiv
 10763     0BF3  0878               	movf	??___aldiv,w
 10764     0BF4  06A1               	xorwf	___aldiv@sign,f
 10765     0BF5                     l2738:
 10766     0BF5  3000               	movlw	0
 10767     0BF6  00A5               	movwf	___aldiv@quotient+3
 10768     0BF7  3000               	movlw	0
 10769     0BF8  00A4               	movwf	___aldiv@quotient+2
 10770     0BF9  3000               	movlw	0
 10771     0BFA  00A3               	movwf	___aldiv@quotient+1
 10772     0BFB  3000               	movlw	0
 10773     0BFC  00A2               	movwf	___aldiv@quotient
 10774     0BFD                     l2740:
 10775     0BFD  0873               	movf	___aldiv@divisor+3,w
 10776     0BFE  0472               	iorwf	___aldiv@divisor+2,w
 10777     0BFF  0471               	iorwf	___aldiv@divisor+1,w
 10778     0C00  0470               	iorwf	___aldiv@divisor,w
 10779     0C01  1903               	skipnz
 10780     0C02  2C04               	goto	u2901
 10781     0C03  2C05               	goto	u2900
 10782     0C04                     u2901:
 10783     0C04  2C46               	goto	l2760
 10784     0C05                     u2900:
 10785     0C05                     l2742:
 10786     0C05  01A0               	clrf	___aldiv@counter
 10787     0C06  0AA0               	incf	___aldiv@counter,f
 10788     0C07  2C13               	goto	l2746
 10789     0C08                     l2744:
 10790     0C08  3001               	movlw	1
 10791     0C09                     u2915:
 10792     0C09  35F0               	lslf	___aldiv@divisor,f
 10793     0C0A  0DF1               	rlf	___aldiv@divisor+1,f
 10794     0C0B  0DF2               	rlf	___aldiv@divisor+2,f
 10795     0C0C  0DF3               	rlf	___aldiv@divisor+3,f
 10796     0C0D  0B89               	decfsz	9,f
 10797     0C0E  2C09               	goto	u2915
 10798     0C0F  3001               	movlw	1
 10799     0C10  00F8               	movwf	??___aldiv
 10800     0C11  0878               	movf	??___aldiv,w
 10801     0C12  07A0               	addwf	___aldiv@counter,f
 10802     0C13                     l2746:
 10803     0C13  1FF3               	btfss	___aldiv@divisor+3,7
 10804     0C14  2C16               	goto	u2921
 10805     0C15  2C17               	goto	u2920
 10806     0C16                     u2921:
 10807     0C16  2C08               	goto	l2744
 10808     0C17                     u2920:
 10809     0C17                     l2748:
 10810     0C17  3001               	movlw	1
 10811     0C18                     u2935:
 10812     0C18  35A2               	lslf	___aldiv@quotient,f
 10813     0C19  0DA3               	rlf	___aldiv@quotient+1,f
 10814     0C1A  0DA4               	rlf	___aldiv@quotient+2,f
 10815     0C1B  0DA5               	rlf	___aldiv@quotient+3,f
 10816     0C1C  0B89               	decfsz	9,f
 10817     0C1D  2C18               	goto	u2935
 10818     0C1E                     l2750:
 10819     0C1E  0873               	movf	___aldiv@divisor+3,w
 10820     0C1F  0277               	subwf	___aldiv@dividend+3,w
 10821     0C20  1D03               	skipz
 10822     0C21  2C2C               	goto	u2945
 10823     0C22  0872               	movf	___aldiv@divisor+2,w
 10824     0C23  0276               	subwf	___aldiv@dividend+2,w
 10825     0C24  1D03               	skipz
 10826     0C25  2C2C               	goto	u2945
 10827     0C26  0871               	movf	___aldiv@divisor+1,w
 10828     0C27  0275               	subwf	___aldiv@dividend+1,w
 10829     0C28  1D03               	skipz
 10830     0C29  2C2C               	goto	u2945
 10831     0C2A  0870               	movf	___aldiv@divisor,w
 10832     0C2B  0274               	subwf	___aldiv@dividend,w
 10833     0C2C                     u2945:
 10834     0C2C  1C03               	skipc
 10835     0C2D  2C2F               	goto	u2941
 10836     0C2E  2C30               	goto	u2940
 10837     0C2F                     u2941:
 10838     0C2F  2C39               	goto	l2756
 10839     0C30                     u2940:
 10840     0C30                     l2752:
 10841     0C30  0870               	movf	___aldiv@divisor,w
 10842     0C31  02F4               	subwf	___aldiv@dividend,f
 10843     0C32  0871               	movf	___aldiv@divisor+1,w
 10844     0C33  3BF5               	subwfb	___aldiv@dividend+1,f
 10845     0C34  0872               	movf	___aldiv@divisor+2,w
 10846     0C35  3BF6               	subwfb	___aldiv@dividend+2,f
 10847     0C36  0873               	movf	___aldiv@divisor+3,w
 10848     0C37  3BF7               	subwfb	___aldiv@dividend+3,f
 10849     0C38                     l2754:
 10850     0C38  1422               	bsf	___aldiv@quotient,0
 10851     0C39                     l2756:
 10852     0C39  3001               	movlw	1
 10853     0C3A                     u2955:
 10854     0C3A  36F3               	lsrf	___aldiv@divisor+3,f
 10855     0C3B  0CF2               	rrf	___aldiv@divisor+2,f
 10856     0C3C  0CF1               	rrf	___aldiv@divisor+1,f
 10857     0C3D  0CF0               	rrf	___aldiv@divisor,f
 10858     0C3E  0B89               	decfsz	9,f
 10859     0C3F  2C3A               	goto	u2955
 10860     0C40                     l2758:
 10861     0C40  3001               	movlw	1
 10862     0C41  02A0               	subwf	___aldiv@counter,f
 10863     0C42  1D03               	btfss	3,2
 10864     0C43  2C45               	goto	u2961
 10865     0C44  2C46               	goto	u2960
 10866     0C45                     u2961:
 10867     0C45  2C17               	goto	l2748
 10868     0C46                     u2960:
 10869     0C46                     l2760:
 10870     0C46  0821               	movf	___aldiv@sign,w
 10871     0C47  1903               	btfsc	3,2
 10872     0C48  2C4A               	goto	u2971
 10873     0C49  2C4B               	goto	u2970
 10874     0C4A                     u2971:
 10875     0C4A  2C56               	goto	l2764
 10876     0C4B                     u2970:
 10877     0C4B                     l2762:
 10878     0C4B  09A2               	comf	___aldiv@quotient,f
 10879     0C4C  09A3               	comf	___aldiv@quotient+1,f
 10880     0C4D  09A4               	comf	___aldiv@quotient+2,f
 10881     0C4E  09A5               	comf	___aldiv@quotient+3,f
 10882     0C4F  0AA2               	incf	___aldiv@quotient,f
 10883     0C50  1903               	skipnz
 10884     0C51  0AA3               	incf	___aldiv@quotient+1,f
 10885     0C52  1903               	skipnz
 10886     0C53  0AA4               	incf	___aldiv@quotient+2,f
 10887     0C54  1903               	skipnz
 10888     0C55  0AA5               	incf	___aldiv@quotient+3,f
 10889     0C56                     l2764:
 10890     0C56  0825               	movf	___aldiv@quotient+3,w
 10891     0C57  00F3               	movwf	?___aldiv+3
 10892     0C58  0824               	movf	___aldiv@quotient+2,w
 10893     0C59  00F2               	movwf	?___aldiv+2
 10894     0C5A  0823               	movf	___aldiv@quotient+1,w
 10895     0C5B  00F1               	movwf	?___aldiv+1
 10896     0C5C  0822               	movf	___aldiv@quotient,w
 10897     0C5D  00F0               	movwf	?___aldiv
 10898     0C5E                     l613:
 10899     0C5E  0008               	return
 10900     0C5F                     __end_of___aldiv:
 10901                           
 10902                           	psect	intentry
 10903     0004                     __pintentry:	
 10904 ;; *************** function _ISR *****************
 10905 ;; Defined at:
 10906 ;;		line 67 in file "main.c"
 10907 ;; Parameters:    Size  Location     Type
 10908 ;;		None
 10909 ;; Auto vars:     Size  Location     Type
 10910 ;;		None
 10911 ;; Return value:  Size  Location     Type
 10912 ;;                  1    wreg      void 
 10913 ;; Registers used:
 10914 ;;		wreg
 10915 ;; Tracked objects:
 10916 ;;		On entry : 0/0
 10917 ;;		On exit  : 0/0
 10918 ;;		Unchanged: 0/0
 10919 ;; Data sizes:     COMMON   BANK0   BANK1   BANK2   BANK3   BANK4   BANK5   BANK6   BANK7   BANK8   BANK9  BANK10  BANK1
      +1  BANK12  BANK13  BANK14  BANK15  BANK16  BANK17  BANK18  BANK19  BANK20  BANK21  BANK22  BANK23  BANK24  BANK25
 10920 ;;      Params:         0       0       0       0       0       0       0       0       0       0       0       0       
      +0       0       0       0       0       0       0       0       0       0       0       0       0       0       0
 10921 ;;      Locals:         0       0       0       0       0       0       0       0       0       0       0       0       
      +0       0       0       0       0       0       0       0       0       0       0       0       0       0       0
 10922 ;;      Temps:          0       0       0       0       0       0       0       0       0       0       0       0       
      +0       0       0       0       0       0       0       0       0       0       0       0       0       0       0
 10923 ;;      Totals:         0       0       0       0       0       0       0       0       0       0       0       0       
      +0       0       0       0       0       0       0       0       0       0       0       0       0       0       0
 10924 ;;Total ram usage:        0 bytes
 10925 ;; Hardware stack levels used: 1
 10926 ;; This function calls:
 10927 ;;		Nothing
 10928 ;; This function is called by:
 10929 ;;		Interrupt level 1
 10930 ;; This function uses a non-reentrant model
 10931 ;;
 10932                           
 10933     0004                     _ISR:
 10934                           
 10935                           ;incstack = 0
 10936     0004  147E               	bsf	int$flags,0	;set compiler interrupt flag (level 1)
 10937                           
 10938                           ; Regs used in _ISR: [wreg]
 10939     0005  3180               	pagesel	$
 10940     0006                     i1l2966:
 10941                           
 10942                           ;main.c: 69:     if (INTCONbits.TMR0IF)
 10943     0006  1D0B               	btfss	11,2	;volatile
 10944     0007  2809               	goto	u316_21
 10945     0008  280A               	goto	u316_20
 10946     0009                     u316_21:
 10947     0009  2817               	goto	i1l256
 10948     000A                     u316_20:
 10949     000A                     i1l2968:
 10950                           
 10951                           ;main.c: 70:     {;main.c: 71:         TMR0 = 6;
 10952     000A  3006               	movlw	6
 10953     000B  0020               	movlb	0	; select bank0
 10954     000C  0095               	movwf	21	;volatile
 10955     000D                     i1l2970:
 10956                           
 10957                           ;main.c: 72:         INTCONbits.TMR0IF = 0;
 10958     000D  110B               	bcf	11,2	;volatile
 10959                           
 10960                           ;main.c: 73:         millis_counter++;
 10961     000E  3001               	movlw	1
 10962     000F  0021               	movlb	1	; select bank1
 10963     0010  07EA               	addwf	_millis_counter^(0+128),f	;volatile
 10964     0011  3000               	movlw	0
 10965     0012  3DEB               	addwfc	(_millis_counter+1)^(0+128),f	;volatile
 10966     0013  3000               	movlw	0
 10967     0014  3DEC               	addwfc	(_millis_counter+2)^(0+128),f	;volatile
 10968     0015  3000               	movlw	0
 10969     0016  3DED               	addwfc	(_millis_counter+3)^(0+128),f	;volatile
 10970     0017                     i1l256:
 10971     0017  107E               	bcf	int$flags,0	;clear compiler interrupt flag (level 1)
 10972     0018  0009               	retfie
 10973     0019                     __end_of_ISR:
 10974     007E                     btemp	set	126	;btemp
 10975     007E                     int$flags	set	126
 10976     007E                     wtemp0	set	126
 10977                           
 10978                           	psect	config
 10979                           
 10980                           ;Config register CONFIG1 @ 0x8007
 10981                           ;	Oscillator Selection Bits
 10982                           ;	FOSC = INTOSC, INTOSC oscillator: I/O function on CLKIN pin
 10983                           ;	Watchdog Timer Enable
 10984                           ;	WDTE = OFF, WDT disabled
 10985                           ;	Power-up Timer Enable
 10986                           ;	PWRTE = OFF, PWRT disabled
 10987                           ;	MCLR Pin Function Select
 10988                           ;	MCLRE = OFF, MCLR/VPP pin function is digital input if LVP bit is also 0.
 10989                           ;	Flash Program Memory Code Protection
 10990                           ;	CP = OFF, Program memory code protection is disabled
 10991                           ;	Brown-out Reset Enable
 10992                           ;	BOREN = OFF, Brown-out Reset disabled
 10993                           ;	Clock Out Enable
 10994                           ;	CLKOUTEN = OFF, CLKOUT function is disabled. I/O or oscillator function on the CLKOUT 
      +                          pin
 10995                           ;	Internal/External Switchover Mode
 10996                           ;	IESO = ON, Internal/External Switchover Mode is enabled
 10997                           ;	Fail-Safe Clock Monitor Enable
 10998                           ;	FCMEN = OFF, Fail-Safe Clock Monitor is disabled
 10999     8007                     	org	32775
 11000     8007  19A4               	dw	6564
 11001                           
 11002                           ;Config register CONFIG2 @ 0x8008
 11003                           ;	Flash Memory Self-Write Protection
 11004                           ;	WRT = OFF, Write protection off
 11005                           ;	Peripheral Pin Select one-way control
 11006                           ;	PPS1WAY = ON, The PPSLOCK bit cannot be cleared once it is set by software
 11007                           ;	Zero-cross detect disable
 11008                           ;	ZCDDIS = ON, ZCD disabled. ZCD can be enabled by setting the ZCDSEN bit of ZCDCON
 11009                           ;	Phase Lock Loop enable
 11010                           ;	PLLEN = OFF, 4x PLL is disabled
 11011                           ;	Stack Overflow/Underflow Reset Enable
 11012                           ;	STVREN = ON, Stack Overflow or Underflow will cause a Reset
 11013                           ;	Brown-out Reset Voltage Selection
 11014                           ;	BORV = LO, Brown-out Reset Voltage (Vbor), low trip point selected.
 11015                           ;	Low-Power Brown Out Reset
 11016                           ;	LPBOR = OFF, Low-Power BOR is disabled
 11017                           ;	In-Circuit Debugger Mode
 11018                           ;	DEBUG = 0x1, unprogrammed default
 11019                           ;	Low-Voltage Programming Enable
 11020                           ;	LVP = OFF, High-voltage on MCLR/VPP must be used for programming
 11021     8008                     	org	32776
 11022     8008  1EFF               	dw	7935

Data Sizes:
    Strings     118
    Constant    0
    Data        16
    BSS         10
    Persistent  32
    Stack       0

Auto Spaces:
    Space          Size  Autos    Used
    COMMON           14     14      14
    BANK0            80     79      79
    BANK1            80     74      80
    BANK2            80      0      20
    BANK3            80      0       0
    BANK4            80      0       0
    BANK5            80      0       0
    BANK6            80      0       0
    BANK7            80      0       0
    BANK8            80      0       0
    BANK9            80      0       0
    BANK10           80      0       0
    BANK11           80      0       0
    BANK12           80      0       0
    BANK13           80      0       0
    BANK14           80      0       0
    BANK15           80      0       0
    BANK16           80      0       0
    BANK17           80      0       0
    BANK18           80      0       0
    BANK19           80      0       0
    BANK20           80      0       0
    BANK21           80      0       0
    BANK22           80      0       0
    BANK23           80      0       0
    BANK24           80      0       0
    BANK25           32      0       0

Pointer List with Targets:

    checkTimeoutExpired@dev	PTR struct . size(1) Largest target is 16
		 -> main@sensor(BANK1[16]), 

    EUSART_Write_Integer@ptr	PTR unsigned char  size(1) Largest target is 20
		 -> EUSART_Write_Integer@buffer(BANK0[20]), 

    EUSART_Write_Integer@temp_ptr	PTR unsigned char  size(1) Largest target is 20
		 -> EUSART_Write_Integer@buffer(BANK0[20]), 

    EUSART_Write_Text@text	PTR unsigned char  size(2) Largest target is 26
		 -> STR_1(CODE[26]), STR_2(CODE[24]), STR_3(CODE[10]), STR_4(CODE[14]), 
		 -> STR_5(CODE[13]), STR_6(CODE[13]), STR_7(CODE[10]), STR_8(CODE[2]), 
		 -> STR_9(CODE[6]), 

    getMeasurementTimingBudget@dev	PTR struct . size(1) Largest target is 16
		 -> main@sensor(BANK1[16]), 

    getSequenceStepEnables@dev	PTR struct . size(1) Largest target is 16
		 -> main@sensor(BANK1[16]), 

    getSequenceStepEnables@en	PTR struct . size(1) Largest target is 5
		 -> getMeasurementTimingBudget@en(BANK0[5]), setMeasurementTimingBudget@en(BANK1[5]), setVcselPulsePeriod@en(COMMON[5]), 

    getSequenceStepTimeouts@dev	PTR struct . size(1) Largest target is 16
		 -> main@sensor(BANK1[16]), 

    getSequenceStepTimeouts@en	PTR struct . size(1) Largest target is 5
		 -> getMeasurementTimingBudget@en(BANK0[5]), setMeasurementTimingBudget@en(BANK1[5]), setVcselPulsePeriod@en(COMMON[5]), 

    getSequenceStepTimeouts@to	PTR struct . size(1) Largest target is 22
		 -> getMeasurementTimingBudget@to(BANK0[22]), setMeasurementTimingBudget@to(BANK1[22]), setVcselPulsePeriod@to(BANK0[22]), 

    getSpadInfo@count	PTR unsigned char  size(1) Largest target is 1
		 -> VL53L0X_Init@spad_count(BANK1[1]), 

    getSpadInfo@dev	PTR struct . size(1) Largest target is 16
		 -> main@sensor(BANK1[16]), 

    getSpadInfo@type_is_aperture	PTR _Bool  size(1) Largest target is 1
		 -> VL53L0X_Init@spad_type_is_aperture(BANK1[1]), 

    getVcselPulsePeriod@dev	PTR struct . size(1) Largest target is 16
		 -> main@sensor(BANK1[16]), 

    I2C_ReadByte@data	PTR unsigned char  size(1) Largest target is 6
		 -> readReg16@buf(BANK0[2]), readReg32@buf(COMMON[4]), readReg@val(BANK0[1]), VL53L0X_Init@ref_spad_map(BANK1[6]), 

    itoa@buf	PTR PTR unsigned char  size(1) Largest target is 1
		 -> EUSART_Write_Integer@ptr(BANK0[1]), 

    performSingleRefCal@dev	PTR struct . size(1) Largest target is 16
		 -> main@sensor(BANK1[16]), 

    readMulti@dev	PTR struct . size(1) Largest target is 16
		 -> main@sensor(BANK1[16]), 

    readMulti@dst	PTR unsigned char  size(1) Largest target is 6
		 -> VL53L0X_Init@ref_spad_map(BANK1[6]), 

    readRangeContinuousMm@dev	PTR struct . size(1) Largest target is 16
		 -> main@sensor(BANK1[16]), 

    readReg16@dev	PTR struct . size(1) Largest target is 16
		 -> main@sensor(BANK1[16]), 

    readReg@dev	PTR struct . size(1) Largest target is 16
		 -> main@sensor(BANK1[16]), 

    setMeasurementTimingBudget@dev	PTR struct . size(1) Largest target is 16
		 -> main@sensor(BANK1[16]), 

    startContinuous@dev	PTR struct . size(1) Largest target is 16
		 -> main@sensor(BANK1[16]), 

    startTimeout@dev	PTR struct . size(1) Largest target is 16
		 -> main@sensor(BANK1[16]), 

    timeoutOccurred@dev	PTR struct . size(1) Largest target is 16
		 -> main@sensor(BANK1[16]), 

    tof_i2c_read@dst	PTR unsigned char  size(1) Largest target is 6
		 -> readReg16@buf(BANK0[2]), readReg32@buf(COMMON[4]), readReg@val(BANK0[1]), VL53L0X_Init@ref_spad_map(BANK1[6]), 

    tof_i2c_write@src	PTR unsigned char  size(1) Largest target is 6
		 -> VL53L0X_Init@ref_spad_map(BANK1[6]), writeReg16@buf(BANK0[2]), writeReg32@buf(BANK0[4]), writeReg@value(BANK0[1]), 

    VL53L0X_Init@dev	PTR struct . size(1) Largest target is 16
		 -> main@sensor(BANK1[16]), 

    writeMulti@dev	PTR struct . size(1) Largest target is 16
		 -> main@sensor(BANK1[16]), 

    writeMulti@src	PTR unsigned char  size(1) Largest target is 6
		 -> VL53L0X_Init@ref_spad_map(BANK1[6]), 

    writeReg16@dev	PTR struct . size(1) Largest target is 16
		 -> main@sensor(BANK1[16]), 

    writeReg32@dev	PTR struct . size(1) Largest target is 16
		 -> main@sensor(BANK1[16]), 

    writeReg@dev	PTR struct . size(1) Largest target is 16
		 -> main@sensor(BANK1[16]), 


Critical Paths under _main in COMMON

    _main->_EUSART_Write_Integer
    _writeReg32->_tof_i2c_write
    _VL53L0X_Init->_writeMulti
    _writeMulti->_tof_i2c_write
    _writeReg16->_encodeTimeout
    _timeoutUsToMclks->___lldiv
    _readMulti->_tof_i2c_read
    _tof_i2c_write->_I2C_WriteByte
    _startTimeout->_millis
    _checkTimeoutExpired->_millis
    _timeoutMclksToUs->___lldiv
    ___lldiv->___lmul
    _readReg16->_tof_i2c_read
    _readReg->_tof_i2c_read
    _tof_i2c_read->_I2C_ReadByte
    _I2C_WriteByte->_I2C_WaitIF
    _I2C_WriteByte->_I2C_WaitIdle
    _I2C_Stop->_I2C_WaitIF
    _I2C_Stop->_I2C_WaitIdle
    _I2C_Start->_I2C_WaitIF
    _I2C_Start->_I2C_WaitIdle
    _I2C_RepeatedStart->_I2C_WaitIF
    _I2C_RepeatedStart->_I2C_WaitIdle
    _I2C_ReadByte->_I2C_WaitIF
    _I2C_ReadByte->_I2C_WaitIdle
    _EUSART_Write_Text->_EUSART_Write
    _EUSART_Write_Integer->_itoa
    _itoa->___awdiv
    _EUSART_Initialize->___aldiv

Critical Paths under _ISR in COMMON

    None.

Critical Paths under _main in BANK0

    _startContinuous->_writeReg32
    _readRangeContinuousMm->_checkTimeoutExpired
    _VL53L0X_Init->_getMeasurementTimingBudget
    _setMeasurementTimingBudget->_getSequenceStepTimeouts
    _timeoutUsToMclks->___lldiv
    _performSingleRefCal->_checkTimeoutExpired
    _getSpadInfo->_checkTimeoutExpired
    _writeReg->_readReg
    _getMeasurementTimingBudget->_getSequenceStepTimeouts
    _getSequenceStepTimeouts->_timeoutMclksToUs
    _timeoutMclksToUs->___lldiv
    _getVcselPulsePeriod->_readReg
    _decodeTimeout->_readReg16
    _getSequenceStepEnables->_readReg
    _EUSART_Write_Integer->_itoa
    _EUSART_Initialize->___aldiv

Critical Paths under _ISR in BANK0

    None.

Critical Paths under _main in BANK1

    _main->_VL53L0X_Init
    _VL53L0X_Init->_setMeasurementTimingBudget

Critical Paths under _ISR in BANK1

    None.

Critical Paths under _main in BANK2

    None.

Critical Paths under _ISR in BANK2

    None.

Critical Paths under _main in BANK3

    None.

Critical Paths under _ISR in BANK3

    None.

Critical Paths under _main in BANK4

    None.

Critical Paths under _ISR in BANK4

    None.

Critical Paths under _main in BANK5

    None.

Critical Paths under _ISR in BANK5

    None.

Critical Paths under _main in BANK6

    None.

Critical Paths under _ISR in BANK6

    None.

Critical Paths under _main in BANK7

    None.

Critical Paths under _ISR in BANK7

    None.

Critical Paths under _main in BANK8

    None.

Critical Paths under _ISR in BANK8

    None.

Critical Paths under _main in BANK9

    None.

Critical Paths under _ISR in BANK9

    None.

Critical Paths under _main in BANK10

    None.

Critical Paths under _ISR in BANK10

    None.

Critical Paths under _main in BANK11

    None.

Critical Paths under _ISR in BANK11

    None.

Critical Paths under _main in BANK12

    None.

Critical Paths under _ISR in BANK12

    None.

Critical Paths under _main in BANK13

    None.

Critical Paths under _ISR in BANK13

    None.

Critical Paths under _main in BANK14

    None.

Critical Paths under _ISR in BANK14

    None.

Critical Paths under _main in BANK15

    None.

Critical Paths under _ISR in BANK15

    None.

Critical Paths under _main in BANK16

    None.

Critical Paths under _ISR in BANK16

    None.

Critical Paths under _main in BANK17

    None.

Critical Paths under _ISR in BANK17

    None.

Critical Paths under _main in BANK18

    None.

Critical Paths under _ISR in BANK18

    None.

Critical Paths under _main in BANK19

    None.

Critical Paths under _ISR in BANK19

    None.

Critical Paths under _main in BANK20

    None.

Critical Paths under _ISR in BANK20

    None.

Critical Paths under _main in BANK21

    None.

Critical Paths under _ISR in BANK21

    None.

Critical Paths under _main in BANK22

    None.

Critical Paths under _ISR in BANK22

    None.

Critical Paths under _main in BANK23

    None.

Critical Paths under _ISR in BANK23

    None.

Critical Paths under _main in BANK24

    None.

Critical Paths under _ISR in BANK24

    None.

Critical Paths under _main in BANK25

    None.

Critical Paths under _ISR in BANK25

    None.

Call Graph Tables:

 ---------------------------------------------------------------------------------
 (Depth) Function   	        Calls       Base Space   Used Autos Params    Refs
 ---------------------------------------------------------------------------------
 (0) _main                                                19    19      0  392823
                                             78 BANK0      1     1      0
                                             56 BANK1     18    18      0
                  _EUSART_Initialize
               _EUSART_Write_Integer
                  _EUSART_Write_Text
                           _I2C_Init
                          _TMR0_Init
                       _VL53L0X_Init
                           _initMain
              _readRangeContinuousMm
         _setMeasurementTimingBudget
                    _startContinuous
                    _timeoutOccurred
 ---------------------------------------------------------------------------------
 (1) _timeoutOccurred                                      2     2      0     100
                                              0 COMMON     2     2      0
 ---------------------------------------------------------------------------------
 (1) _startContinuous                                      7     3      4   50745
                                             14 BANK0      7     3      4
                             ___lmul
                          _readReg16
                           _writeReg
                         _writeReg32
 ---------------------------------------------------------------------------------
 (2) _writeReg32                                          14     9      5    4381
                                              0 BANK0     14     9      5
                      _tof_i2c_write
 ---------------------------------------------------------------------------------
 (1) _readRangeContinuousMm                                5     3      2   53722
                                             12 BANK0      5     3      2
                _checkTimeoutExpired
                            _readReg
                          _readReg16
                       _startTimeout
                           _writeReg
 ---------------------------------------------------------------------------------
 (1) _initMain                                             1     1      0       0
                                              0 COMMON     1     1      0
                        _internal_32
 ---------------------------------------------------------------------------------
 (2) _internal_32                                          0     0      0       0
 ---------------------------------------------------------------------------------
 (1) _VL53L0X_Init                                        18    18      0  240387
                                             38 BANK1     18    18      0
                            ___awdiv
         _getMeasurementTimingBudget
                        _getSpadInfo
                _performSingleRefCal
                          _readMulti
                            _readReg
         _setMeasurementTimingBudget
                         _writeMulti
                           _writeReg
                         _writeReg16
 ---------------------------------------------------------------------------------
 (2) _writeMulti                                           5     2      3    4317
                                             11 COMMON     3     0      3
                                              0 BANK0      2     2      0
                      _tof_i2c_write
 ---------------------------------------------------------------------------------
 (1) _setMeasurementTimingBudget                          50    46      4   43684
                                             34 BANK0     12     8      4
                                              0 BANK1     38    38      0
                      _encodeTimeout
             _getSequenceStepEnables
            _getSequenceStepTimeouts
                   _timeoutUsToMclks
                         _writeReg16
 ---------------------------------------------------------------------------------
 (2) _writeReg16                                           7     4      3    4844
                                             12 COMMON     1     1      0
                                              0 BANK0      6     3      3
                      _encodeTimeout (ARG)
                      _tof_i2c_write
 ---------------------------------------------------------------------------------
 (2) _timeoutUsToMclks                                    17    12      5    2319
                                             13 BANK0     17    12      5
                            ___lldiv
                             ___lmul
 ---------------------------------------------------------------------------------
 (2) _encodeTimeout                                       12    10      2     343
                                              0 COMMON    12    10      2
 ---------------------------------------------------------------------------------
 (2) _readMulti                                            5     2      3    6566
                                              0 BANK0      5     2      3
                       _tof_i2c_read
 ---------------------------------------------------------------------------------
 (2) _performSingleRefCal                                  2     1      1   47215
                                             12 BANK0      2     1      1
                _checkTimeoutExpired
                            _readReg
                       _startTimeout
                           _writeReg
 ---------------------------------------------------------------------------------
 (2) _getSpadInfo                                          5     3      2   47536
                                             12 BANK0      5     3      2
                _checkTimeoutExpired
                            _readReg
                       _startTimeout
                           _writeReg
 ---------------------------------------------------------------------------------
 (2) _writeReg                                             4     2      2   38260
                                              4 BANK0      4     2      2
                            _readReg (ARG)
                      _tof_i2c_write
 ---------------------------------------------------------------------------------
 (3) _tof_i2c_write                                        6     3      3    3946
                                              5 COMMON     6     3      3
                          _I2C_Start
                           _I2C_Stop
                      _I2C_WriteByte
 ---------------------------------------------------------------------------------
 (2) _startTimeout                                         1     1      0     177
                                              8 COMMON     1     1      0
                             _millis
 ---------------------------------------------------------------------------------
 (2) _checkTimeoutExpired                                 14    14      0     245
                                              8 COMMON     2     2      0
                                              0 BANK0     12    12      0
                             _millis
 ---------------------------------------------------------------------------------
 (3) _millis                                               8     4      4      23
                                              0 COMMON     8     4      4
 ---------------------------------------------------------------------------------
 (2) _getMeasurementTimingBudget                          44    40      4   35681
                                             34 BANK0     44    40      4
             _getSequenceStepEnables
            _getSequenceStepTimeouts
 ---------------------------------------------------------------------------------
 (2) _getSequenceStepTimeouts                              5     3      2   26579
                                             29 BANK0      5     3      2
                      _decodeTimeout
                _getVcselPulsePeriod
                            _readReg
                          _readReg16
                   _timeoutMclksToUs
 ---------------------------------------------------------------------------------
 (3) _timeoutMclksToUs                                    16    12      4    2167
                                             13 BANK0     16    12      4
                            ___lldiv
                             ___lmul
 ---------------------------------------------------------------------------------
 (2) ___lmul                                              12     4      8     852
                                              0 COMMON    12     4      8
 ---------------------------------------------------------------------------------
 (3) ___lldiv                                             14     6      8     770
                                             12 COMMON     1     1      0
                                              0 BANK0     13     5      8
                             ___lmul (ARG)
 ---------------------------------------------------------------------------------
 (2) _readReg16                                           10     8      2    6767
                                              0 BANK0     10     8      2
                       _tof_i2c_read
 ---------------------------------------------------------------------------------
 (3) _getVcselPulsePeriod                                  2     1      1    8358
                                              4 BANK0      2     1      1
                            _readReg
 ---------------------------------------------------------------------------------
 (3) _decodeTimeout                                        4     2      2     196
                                             10 BANK0      4     2      2
                          _readReg16 (ARG)
 ---------------------------------------------------------------------------------
 (2) _getSequenceStepEnables                               4     3      1    8622
                                              4 BANK0      4     3      1
                            _readReg
 ---------------------------------------------------------------------------------
 (3) _readReg                                              4     3      1    8052
                                              0 BANK0      4     3      1
                       _tof_i2c_read
 ---------------------------------------------------------------------------------
 (3) _tof_i2c_read                                         8     5      3    6195
                                              6 COMMON     8     5      3
                       _I2C_ReadByte
                  _I2C_RepeatedStart
                          _I2C_Start
                           _I2C_Stop
                      _I2C_WriteByte
 ---------------------------------------------------------------------------------
 (4) _I2C_WriteByte                                        2     2      0     992
                                              3 COMMON     2     2      0
                         _I2C_WaitIF
                       _I2C_WaitIdle
 ---------------------------------------------------------------------------------
 (4) _I2C_Stop                                             1     1      0     938
                                              3 COMMON     1     1      0
                         _I2C_WaitIF
                       _I2C_WaitIdle
 ---------------------------------------------------------------------------------
 (4) _I2C_Start                                            1     1      0     970
                                              3 COMMON     1     1      0
                         _I2C_WaitIF
                       _I2C_WaitIdle
 ---------------------------------------------------------------------------------
 (4) _I2C_RepeatedStart                                    1     1      0     970
                                              3 COMMON     1     1      0
                         _I2C_WaitIF
                       _I2C_WaitIdle
 ---------------------------------------------------------------------------------
 (4) _I2C_ReadByte                                         3     2      1    1190
                                              3 COMMON     3     2      1
                         _I2C_WaitIF
                       _I2C_WaitIdle
 ---------------------------------------------------------------------------------
 (5) _I2C_WaitIdle                                         3     1      2     402
                                              0 COMMON     3     1      2
 ---------------------------------------------------------------------------------
 (5) _I2C_WaitIF                                           3     1      2     478
                                              0 COMMON     3     1      2
 ---------------------------------------------------------------------------------
 (1) _TMR0_Init                                            0     0      0       0
 ---------------------------------------------------------------------------------
 (1) _I2C_Init                                             1     1      0       0
                                              0 COMMON     1     1      0
                    _I2C_ClearErrors
 ---------------------------------------------------------------------------------
 (2) _I2C_ClearErrors                                      0     0      0       0
 ---------------------------------------------------------------------------------
 (1) _EUSART_Write_Text                                    5     3      2     796
                                              1 COMMON     5     3      2
                       _EUSART_Write
 ---------------------------------------------------------------------------------
 (1) _EUSART_Write_Integer                                25    23      2    2619
                                             11 COMMON     3     1      2
                                              7 BANK0     22    22      0
                       _EUSART_Write
                               _itoa
 ---------------------------------------------------------------------------------
 (2) _itoa                                                 9     7      2    2373
                                              9 COMMON     2     0      2
                                              0 BANK0      7     7      0
                            ___awdiv
                            ___awmod
                             ___wmul
 ---------------------------------------------------------------------------------
 (3) ___wmul                                               6     2      4     244
                                              0 COMMON     6     2      4
 ---------------------------------------------------------------------------------
 (3) ___awmod                                              7     3      4     448
                                              0 COMMON     7     3      4
 ---------------------------------------------------------------------------------
 (2) ___awdiv                                              9     5      4    1212
                                              0 COMMON     9     5      4
 ---------------------------------------------------------------------------------
 (2) _EUSART_Write                                         1     1      0      22
                                              0 COMMON     1     1      0
 ---------------------------------------------------------------------------------
 (1) _EUSART_Initialize                                   18    14      4     595
                                              9 COMMON     2     2      0
                                              6 BANK0     16    12      4
                            ___aldiv
 ---------------------------------------------------------------------------------
 (2) ___aldiv                                             15     7      8     452
                                              0 COMMON     9     1      8
                                              0 BANK0      6     6      0
 ---------------------------------------------------------------------------------
 Estimated maximum stack depth 5
 ---------------------------------------------------------------------------------
 (Depth) Function   	        Calls       Base Space   Used Autos Params    Refs
 ---------------------------------------------------------------------------------
 (9) _ISR                                                  0     0      0       0
 ---------------------------------------------------------------------------------
 Estimated maximum stack depth 9
 ---------------------------------------------------------------------------------

 Call Graph Graphs:

 _main (ROOT)
   _EUSART_Initialize
     ___aldiv
   _EUSART_Write_Integer
     _EUSART_Write
     _itoa
       ___awdiv
       ___awmod
       ___wmul
   _EUSART_Write_Text
     _EUSART_Write
   _I2C_Init
     _I2C_ClearErrors
   _TMR0_Init
   _VL53L0X_Init
     ___awdiv
     _getMeasurementTimingBudget
       _getSequenceStepEnables
         _readReg
           _tof_i2c_read
             _I2C_ReadByte
               _I2C_WaitIF
               _I2C_WaitIdle
             _I2C_RepeatedStart
               _I2C_WaitIF
               _I2C_WaitIdle
             _I2C_Start
               _I2C_WaitIF
               _I2C_WaitIdle
             _I2C_Stop
               _I2C_WaitIF
               _I2C_WaitIdle
             _I2C_WriteByte
               _I2C_WaitIF
               _I2C_WaitIdle
       _getSequenceStepTimeouts
         _decodeTimeout
           _readReg16 (ARG)
             _tof_i2c_read
         _getVcselPulsePeriod
           _readReg
         _readReg
         _readReg16
         _timeoutMclksToUs
           ___lldiv
             ___lmul (ARG)
           ___lmul
     _getSpadInfo
       _checkTimeoutExpired
         _millis
       _readReg
       _startTimeout
         _millis
       _writeReg
         _readReg (ARG)
         _tof_i2c_write (ARG)
           _I2C_Start
           _I2C_Stop
           _I2C_WriteByte
     _performSingleRefCal
       _checkTimeoutExpired
       _readReg
       _startTimeout
       _writeReg
     _readMulti
       _tof_i2c_read
     _readReg
     _setMeasurementTimingBudget
       _encodeTimeout
       _getSequenceStepEnables
       _getSequenceStepTimeouts
       _timeoutUsToMclks
         ___lldiv
         ___lmul
       _writeReg16
         _encodeTimeout (ARG)
         _tof_i2c_write (ARG)
     _writeMulti
       _tof_i2c_write
     _writeReg
     _writeReg16
   _initMain
     _internal_32
   _readRangeContinuousMm
     _checkTimeoutExpired
     _readReg
     _readReg16
     _startTimeout
     _writeReg
   _setMeasurementTimingBudget
   _startContinuous
     ___lmul
     _readReg16
     _writeReg
     _writeReg32
       _tof_i2c_write
   _timeoutOccurred

 _ISR (ROOT)

 Address spaces:
Name               Size   Autos  Total    Cost      Usage
BIGRAM             7F0      0       0       0        0.0%
NULL                 0      0       0       0        0.0%
CODE                 0      0       0       0        0.0%
BITCOMMON            E      0       0       1        0.0%
BITSFR0              0      0       0       1        0.0%
SFR0                 0      0       0       1        0.0%
COMMON               E      E       E       2      100.0%
BITSFR1              0      0       0       2        0.0%
SFR1                 0      0       0       2        0.0%
BITSFR2              0      0       0       3        0.0%
SFR2                 0      0       0       3        0.0%
STACK                0      0       0       3        0.0%
BITBANK0            50      0       0       4        0.0%
BITSFR3              0      0       0       4        0.0%
SFR3                 0      0       0       4        0.0%
BANK0               50     4F      4F       5       98.8%
BITSFR4              0      0       0       5        0.0%
SFR4                 0      0       0       5        0.0%
BITBANK1            50      0       0       6        0.0%
BITSFR5              0      0       0       6        0.0%
SFR5                 0      0       0       6        0.0%
BANK1               50     4A      50       7      100.0%
BITSFR6              0      0       0       7        0.0%
SFR6                 0      0       0       7        0.0%
BITBANK2            50      0       0       8        0.0%
BITSFR7              0      0       0       8        0.0%
SFR7                 0      0       0       8        0.0%
BANK2               50      0      14       9       25.0%
BITSFR8              0      0       0       9        0.0%
SFR8                 0      0       0       9        0.0%
BITBANK3            50      0       0      10        0.0%
BITSFR9              0      0       0      10        0.0%
SFR9                 0      0       0      10        0.0%
BANK3               50      0       0      11        0.0%
BITSFR10             0      0       0      11        0.0%
SFR10                0      0       0      11        0.0%
BITBANK4            50      0       0      12        0.0%
BITSFR11             0      0       0      12        0.0%
SFR11                0      0       0      12        0.0%
BANK4               50      0       0      13        0.0%
BITSFR12             0      0       0      13        0.0%
SFR12                0      0       0      13        0.0%
BITSFR13             0      0       0      14        0.0%
SFR13                0      0       0      14        0.0%
ABS                  0      0      C1      14        0.0%
BITBANK5            50      0       0      15        0.0%
BITSFR14             0      0       0      15        0.0%
SFR14                0      0       0      15        0.0%
BANK5               50      0       0      16        0.0%
BITSFR15             0      0       0      16        0.0%
SFR15                0      0       0      16        0.0%
BITBANK6            50      0       0      17        0.0%
BITSFR16             0      0       0      17        0.0%
SFR16                0      0       0      17        0.0%
BANK6               50      0       0      18        0.0%
BITSFR17             0      0       0      18        0.0%
SFR17                0      0       0      18        0.0%
BITBANK7            50      0       0      19        0.0%
BITSFR18             0      0       0      19        0.0%
SFR18                0      0       0      19        0.0%
BANK7               50      0       0      20        0.0%
BITSFR19             0      0       0      20        0.0%
SFR19                0      0       0      20        0.0%
BITBANK8            50      0       0      21        0.0%
BITSFR20             0      0       0      21        0.0%
SFR20                0      0       0      21        0.0%
BANK8               50      0       0      22        0.0%
BITSFR21             0      0       0      22        0.0%
SFR21                0      0       0      22        0.0%
BITBANK9            50      0       0      23        0.0%
BITSFR22             0      0       0      23        0.0%
SFR22                0      0       0      23        0.0%
BANK9               50      0       0      24        0.0%
BITSFR23             0      0       0      24        0.0%
SFR23                0      0       0      24        0.0%
BITBANK10           50      0       0      25        0.0%
BITSFR24             0      0       0      25        0.0%
SFR24                0      0       0      25        0.0%
BANK10              50      0       0      26        0.0%
BITSFR25             0      0       0      26        0.0%
SFR25                0      0       0      26        0.0%
BITBANK11           50      0       0      27        0.0%
BITSFR26             0      0       0      27        0.0%
SFR26                0      0       0      27        0.0%
BITSFR27             0      0       0      28        0.0%
SFR27                0      0       0      28        0.0%
DATA                 0      0      C1      28        0.0%
BANK11              50      0       0      29        0.0%
BITSFR28             0      0       0      29        0.0%
SFR28                0      0       0      29        0.0%
BITBANK12           50      0       0      30        0.0%
BITSFR29             0      0       0      30        0.0%
SFR29                0      0       0      30        0.0%
BANK12              50      0       0      31        0.0%
BITSFR30             0      0       0      31        0.0%
SFR30                0      0       0      31        0.0%
BITBANK13           50      0       0      32        0.0%
BITSFR31             0      0       0      32        0.0%
SFR31                0      0       0      32        0.0%
BANK13              50      0       0      33        0.0%
BITBANK14           50      0       0      34        0.0%
BANK14              50      0       0      35        0.0%
BITBANK15           50      0       0      36        0.0%
BANK15              50      0       0      37        0.0%
BITBANK16           50      0       0      38        0.0%
BANK16              50      0       0      39        0.0%
BITBANK17           50      0       0      40        0.0%
BANK17              50      0       0      41        0.0%
BITBANK18           50      0       0      42        0.0%
BANK18              50      0       0      43        0.0%
BITBANK19           50      0       0      44        0.0%
BANK19              50      0       0      45        0.0%
BITBANK20           50      0       0      46        0.0%
BANK20              50      0       0      47        0.0%
BITBANK21           50      0       0      48        0.0%
BANK21              50      0       0      49        0.0%
BITBANK22           50      0       0      50        0.0%
BANK22              50      0       0      51        0.0%
BITBANK23           50      0       0      52        0.0%
BANK23              50      0       0      53        0.0%
BITBANK24           50      0       0      54        0.0%
BANK24              50      0       0      55        0.0%
BITBANK25           20      0       0      56        0.0%
BANK25              20      0       0      57        0.0%


Microchip Technology PIC Macro Assembler V2.46 build 20240104201356 
Symbol Table                                                                                   Sat Feb 07 13:56:43 2026

                             writeMulti@dev 0021                               writeMulti@reg 007B  
                    VL53L0X_Init@first_spad 00D2                               writeMulti@src 007C  
                               _SSPSTATbits 0214                                          l25 08F0  
                                        l41 07F5                                          l50 1512  
                                        l44 07FD                                          l60 0D88  
                                        l54 0D2E                                          l66 15B6  
                                        l92 1514                                          l94 1530  
                                        l98 144E                                ___awdiv@sign 0076  
                       ___wmul@multiplicand 0072                            getSpadInfo@count 002C  
                                       l101 0806                                         l111 160F  
                                       l112 1624                                         l113 1621  
                                       l121 157E                                         l122 1592  
                                       l107 15DA                                         l123 1590  
                                       l116 15EA                                         l133 0853  
                                       l117 15FF                                         l134 081E  
                                       l118 15FC                                         l126 165E  
                                       l127 167F                                         l136 0850  
                                       l128 1671                                         l312 143A  
                                       l129 1679                                         l321 0516  
                                       l153 13FD                                         l250 1419  
                                       l306 14BF                                         l402 17B3  
                                       l331 0172                                         l317 099C  
                                       l309 14A7                                         l325 011C  
                                       l413 140A                                         l430 1477  
                                       l423 0A55                                         l263 17FF  
                                       l440 0B40                                         l273 07F3  
                                       l354 0FEB                                         l338 0691  
                                       l290 08A0                                         l603 0BE2  
                                       l427 0F1F                                         l355 0FFF  
                                       l259 1462                                         l419 0779  
                                       l443 0BCE                                         l540 154F  
                                       l284 148F                                         l613 0C5E  
                                       l293 14D9                                         l437 1770  
                                       l453 172D                                         l462 0DE9  
                                       l287 14F5                                         l463 0DE9  
                                       l704 0943                                         l552 16B2  
                                       l385 156F                                         l449 16EC  
                                       l393 0CEF                                         l538 153B  
                                       l298 164D                                         l574 09F7  
                                       l691 0AB4                                         _ISR 0004  
                     ??_getVcselPulsePeriod 007E                             writeMulti@count 007D  
                              ___awmod@sign 0076                                         wreg 0009  
                     __end_of_decodeTimeout 1478                                _startTimeout 142A  
                                      ?_ISR 0070                                        l2100 161B  
                                      l2110 15DB                                        l2200 0842  
                                      l2120 15F6                                        l2112 15E3  
                                      l2202 084A                                        l2114 15E8  
                                      l2106 1623                                        l2130 1570  
                                      l2060 1519                                        l2132 1578  
                                      l2220 078E                                        l2212 077B  
                                      l2300 09BC                                        l2126 15FE  
                                      l2118 15EE                                        l2150 1660  
                                      l2142 164F                                        l2230 079F  
                                      l2222 0791                                        l2214 0783  
                                      l2310 09E2                                        l2302 09C0  
                                      l2064 151B                                        l2072 15B7  
                                      l2208 0852                                        l2136 1582  
                                      l2160 1676                                        l2152 1663  
                                      l2144 1657                                        l2312 09E9  
                                      l2304 09C7                                        l2320 1450  
                                      l2066 1523                                        l2058 1513  
                                      l2082 15C5                                        l2074 15B8  
                                      l2170 0808                                        l2090 1600  
                                      l2138 158A                                        l2162 1677  
                                      l2154 166B                                        l2146 165C  
                                      l2250 07BD                                        l2242 07AE  
                                      l2234 07A1                                        l2226 0793  
                                      l2218 0785                                        l2306 09D9  
                                      l2314 09EF                                        l2322 1459  
                                      l2410 142B                                        l2402 147A  
                                      l2500 0A71                                        l2068 152F  
                                      l2076 15BF                                        l2084 15CD  
                                      l2180 081C                                        l2172 080D  
                                      l2092 1608                                        l2252 07BF  
                                      l2244 07B8                                        l2236 07A9  
                                      l2228 079C                                        l2308 09E1  
                                      l2420 099B                                        l2412 0945  
                                      l2340 17CD                                        l2332 17BF  
                                      l2404 14DC                                        l3060 0DAE  
                                      l3052 0D89                                        l2510 0A87  
                                      l2502 0A77                                        l2086 15D9  
                                      l2078 15C3                                        l2094 160D  
                                      l2166 167A                                        l2262 07E5  
                                      l2254 07D4                                        l2246 07BB  
                                      l2238 07AC                                        l2430 0A23  
                                      l2318 144F                                        l2414 0946  
                                      l2350 17DD                                        l2342 17D6  
                                      l2334 17C8                                        l2326 17B5  
                                      l2406 14DE                                        l3070 0DDA  
                                      l3062 0DB7                                        l3054 0D9E  
                                      l2512 0A96                                        l2504 0A7A  
                                      l2520 0AA6                                        l2192 0830  
                                      l2184 0822                                        l2176 080F  
                                      l2256 07E0                                        l2264 07E9  
                                      l2272 14C2                                        l2432 0A33  
                                      l2424 09FA                                        l2280 1680  
                                      l2440 0EF0                                        l2416 095B  
                                      l2352 17EC                                        l2360 17F5  
                                      l2344 17D9                                        l2336 17CB  
                                      l2328 17BD                                        l2600 1492  
                                      l2408 14E0                                        l3080 0E12  
                                      l3072 0DE2                                        l3064 0DB9  
                                      l3056 0DA5                                        l2522 0AAB  
                                      l2514 0A9A                                        l2506 0A7F  
                                      l2530 08F2                                        l2194 0836  
                                      l2186 082A                                        l2178 0817  
                                      l2098 1613                                        l2266 07EF  
                                      l2258 07E3                                        l2274 14C3  
                                      l2434 0A44                                        l2426 0A02  
                                      l2370 1629                                        l2290 16AA  
                                      l2282 1688                                        l2442 0F02  
                                      l2418 0999                                        l2362 17FB  
                                      l2354 17EF                                        l2610 0703  
                                      l2602 0694                                        l2450 172E  
                                      l3090 0E3E                                        l3082 0E1E  
                                      l3074 0DEA                                        l3066 0DC2  
                                      l3058 0DAC                                        l2524 0AB0  
                                      l2516 0A9B                                        l2508 0A83  
                                      l2540 0906                                        l2532 08F6  
                                      l2196 0838                                        l2268 07F2  
                                      l2276 14D8                                        l2428 0A12  
                                      l2372 163E                                        l2284 168C  
                                      l2436 0E4A                                        l2364 17FE  
                                      l2348 17DB                                        l2620 073E  
                                      l2612 070F                                        l2604 06F7  
                                      l2460 174A                                        l2452 1730  
                                      l2444 0B41                                        l2700 0647  
                                      l3084 0E27                                        l3076 0DF7  
                                      l3068 0DD1                                        l2518 0AA0  
                                      l2550 091C                                        l2542 090C  
                                      l2534 08FB                                        l2470 1531  
                                      l2198 0841                                        l2390 156E  
                                      l2294 099D                                        l2286 1694  
                                      l2438 0EE7                                        l2358 17F1  
                                      l2630 0770                                        l2622 0747  
                                      l2614 0721                                        l2606 0701  
                                      l2462 175E                                        l2454 1736  
                                      l2702 0665                                        l3086 0E2F  
                                      l3078 0DFE                                        l2560 093A  
                                      l2552 0926                                        l2544 090F  
                                      l2536 08FD                                        l2528 08F1  
                                      l2480 154B                                        l2472 1533  
                                      l2800 15A2                                        l2384 1560  
                                      l2376 1552                                        l2368 1627  
                                      l2296 09AE                                        l2288 169B  
                                      l2640 0F30                                        l2632 0778  
                                      l2624 0757                                        l2616 0727  
                                      l2720 16CF                                        l2712 16B5  
                                      l2456 173F                                        l2448 172E  
                                      l2704 066A                                        l3088 0E36  
                                      l2730 0BD1                                        l2490 0A60  
                                      l2562 093F                                        l2554 092A  
                                      l2546 0914                                        l2538 0901  
                                      l2474 1537                                        l2570 0CF2  
                                      l2802 15A9                                        l2810 1441  
                                      l2386 1565                                        l2378 1557  
                                      l2298 09B1                                        l2394 0AB5  
                                      l2650 0F88                                        l2642 0F39  
                                      l2626 0760                                        l2618 0737  
                                      l2722 16DB                                        l2714 16C3  
                                      l2458 1746                                        l2466 176E  
                                      l2706 066E                                        l2740 0BFD  
                                      l2732 0BD5                                        l2492 0A62  
                                      l2484 0A56                                        l2556 092F  
                                      l2548 0918                                        l2476 1540  
                                      l2580 0D40                                        l2572 0CFA  
                                      l2804 15AE                                        l2812 1443  
                                      l2820 1412                                        l2660 0FCF  
                                      l2652 0F8D                                        l2644 0F3F  
                                      l2636 0F22                                        l2628 0768  
                                      l2724 16EB                                        l2716 16CD  
                                      l2708 0683                                        l2900 1782  
                                      l2750 0C1E                                        l2742 0C05  
                                      l2734 0BE6                                        l2566 07F5  
                                      l2494 0A66                                        l2486 0A57  
                                      l2558 0935                                        l2478 1545  
                                      l2582 0D70                                        l2574 0D03  
                                      l2814 1446                                        l2806 143B  
                                      l2822 1415                                        l2398 1463  
                                      l2662 0FF7                                        l2654 0FA9  
                                      l2646 0F5B                                        l2638 0F2A  
                                      l2670 0529                                        l2830 0039  
                                      l2590 13F5                                        l2910 17AE  
                                      l2902 1789                                        l2752 0C30  
                                      l2744 0C08                                        l2760 0C46  
                                      l2736 0BF1                                        l2728 0BCF  
                                      l2568 07FA                                        l2496 0A6B  
                                      l2488 0A5B                                        l2584 0D7A  
                                      l2576 0D08                                        l2808 1440  
                                      l2824 1416                                        l2816 140B  
                                      l2656 0FAE                                        l2648 0F60  
                                      l2680 056E                                        l2672 0532  
                                      l2840 0115                                        l2832 00D1  
                                      l2592 0856                                        l2762 0C4B  
                                      l2754 0C38                                        l2746 0C13  
                                      l2738 0BF5                                        l2770 08E7  
                                      l2498 0A6F                                        l2586 0D81  
                                      l2578 0D0D                                        l2826 1417  
                                      l2818 140E                                        l2658 0FCA  
                                      l2690 05D9                                        l2682 0573  
                                      l2674 053A                                        l2666 0519  
                                      l2850 0120                                        l2842 0118  
                                      l2930 16FC                                        l2922 16ED  
                                      l2906 178E                                        l2594 0889  
                                      l2914 13FF                                        l2764 0C56  
                                      l2756 0C39                                        l2748 0C17  
                                      l2780 08EE                                        l2772 08EA  
                                      l2588 0800                                        l2828 1418  
                                      l2692 05FD                                        l2684 05AB  
                                      l2676 0544                                        l2860 0176  
                                      l2852 0126                                        l2844 011E  
                                      l2836 00D3                                        l2940 1702  
                                      l2932 16FD                                        l2924 16F0  
                                      l2908 179A                                        l2596 088B  
                                      l2916 1404                                        l2758 0C40  
                                      l2782 08EF                                        l2774 08EB  
                                      l2790 1503                                        l2694 0602  
                                      l2686 05B0                                        l2678 054A  
                                      l2598 14AA                                        l2862 017C  
                                      l2854 012C                                        l2846 011F  
                                      l2838 010F                                        l2950 170F  
                                      l2942 1704                                        l2934 16FE  
                                      l2926 16F8                                        l2918 1409  
                                      l2776 08EC                                        l2768 08A1  
                                      l2792 1507                                        l2688 05D4  
                                      l2856 014E                                        l2960 1727  
                                      l2952 1714                                        l2944 1707  
                                      l2936 1700                                        l2928 16FA  
                                      l2880 0C61                  EUSART_Write_Integer@buffer 0027  
                                      l2778 08ED                                        l2794 1593  
                                      l2786 14F6                                        l2698 0624  
                                      l2874 050B                                        l2858 016E  
                                      l2962 172A                                        l2954 1719  
                                      l2946 1709                                        l2938 1701  
                                      l2890 0CD1                                        l2882 0C9D  
                                      l2796 1596                                        l2788 14F9  
                                      l2876 0515                                        l2868 04F4  
                                      l2964 172C                                        l2956 171E  
                                      l2948 170A                                        l2892 0CDF  
                                      l2884 0CA6                                        l2798 159E  
                                      l2958 1722                                        l2886 0CB1  
                                      l2894 0CE8                                        l2896 1773  
                                      l2888 0CB7                                        l2898 1778  
                                      STR_1 1800                                        STR_2 181A  
                                      STR_3 185A                                        STR_4 1832  
                                      STR_5 184D                                        STR_6 1840  
                                      STR_7 1864                                        STR_8 1874  
                                      STR_9 186E                                        _BRGH 0CF2  
                                      _CREN 0CEC                                        u2000 09C0  
                                      u2001 09BF                                        u2100 1557  
                                      u2020 09D9                                        u2101 1556  
                                      u2021 09D8                                        u2110 1565  
                                      u2111 1564                                        u2015 09C1  
                                      u3000 1512                                        u2200 0A21  
                                      u2040 09EF                                        u2120 0B10  
                                      u3001 1511                                        u2201 0A1F  
                                      u2041 09EE                                        u2025 09D5  
                                      u3010 15B6                                        u2210 0A22  
                                      u2050 17BD                                        u3011 15B5  
                                      u2035 09E3                                        u2051 17BC  
                                      u2300 0A54                                        u2140 095B  
                                      u2060 17C8                                        u3100 04F3  
                                      u3020 00D1                                        u2125 0B0C  
                                      u2141 095A                                        u2061 17C7  
                                      u3101 04F2                                        u3021 00D0  
                                      u2230 0A31                                        u2134 146F  
                                      u2310 0EF0                                        u2150 0999  
                                      u2070 17D6                                        u3110 050A  
                                      u3030 0115                                        u2231 0A2F  
                                      u2135 146D                                        u2311 0EEF  
                                      u2151 0998                                        u2071 17D5  
                                      u3111 0509                                        u3031 0114  
                                      u2400 0A5B                                        u2240 0A32  
                                      u2080 17EC                                        u2320 0B9C  
                                      u3040 0126                                        u3120 0CA6  
                                      u2401 0A5A                                        u2225 0A29  
                                      u2081 17EB                                        u3041 0125  
                                      u3121 0CA5                                        u2410 0A66  
                                      u2170 0A10                                        u2090 17FB  
                                      u2330 1736                                        u3050 012C  
                                      u3130 0CB7                                        u2411 0A65  
                                      u2171 0A0E                                        u2155 0995  
                                      u2091 17FA                                        u2331 1735  
                                      u3051 012B                                        u3131 0CB6  
                                      u2420 0A77                                        u2500 08F6  
                                      u1700 160D                                        u2260 0A42  
                                      u2180 0A11                                        u3140 1782  
                                      u2421 0A76                                        u2501 08F5  
                                      u1701 160C                                        u2261 0A40  
                                      u2165 0A08                                        u2325 0B98  
                                      u3141 1781                                        u2510 0901  
                                      u1710 1620                                        u2270 0A43  
                                      u2350 175E                                        u3150 179A  
                                      u3230 0DCD                                        u2511 0900  
                                      u1711 161F                                        u2255 0A3A  
                                      u2351 175D                                        u3151 1799  
                                      u2440 0A87                                        u2520 090C  
                                      u2360 1537                                        u2600 0CFA  
                                      u1800 081C                                        u1720 15E8  
                                      u3080 016E                                        u3064 0133  
                                      u3240 0DDA                                        u2441 0A86  
                                      u2521 090B                                        u2361 1536  
                                      u2601 0CF9                                        u1801 081B  
                                      u1721 15E7                                        u2345 1740  
                                      u3081 016D                                        u3065 0132  
                                      u3241 0DD9                                        u2610 0D3F  
                                      u1650 1519                                        u1810 082F  
                                      u1730 15FB                                        u2290 0A53  
                                      u3090 017C                                        u3074 0168  
                                      u3250 0E27                                        u2435 0A7B  
                                      u2611 0D3E                                        u3307 151E  
                                      u1651 1518                                        u1811 082E  
                                      u1731 15FA                                        u2291 0A51  
                                      u2195 0A19                                        u3091 017B  
                                      u3075 0167                                        u3251 0E26  
                                      u2460 0A96                                        u2540 091C  
                                      u2620 0D81                                        u1660 152F  
                                      u1820 083F                                        u1740 157D  
                                      u1900 07D2                                        u2700 0736  
                                      u2461 0A95                                        u2541 091B  
                                      u2621 0D80                                        u3317 1449  
                                      u1661 152E                                        u1821 083C  
                                      u1741 157C                                        u1901 07D0  
                                      u2285 0A4B                                        u2550 0926  
                                      u2390 154B                                        u1670 15BF  
                                      u1750 158F                                        u1910 07D3  
                                      u2710 0F3F                                        u2630 0863  
                                      u2455 0A88                                        u2551 0925  
                                      u2535 0910                                        u2391 154A  
                                      u2375 153C                                        u1671 15BE  
                                      u1751 158E                                        u2711 0F3E  
                                      u2480 0AA6                                        u1680 15C3  
                                      u1840 084F                                        u1760 165C  
                                      u1920 07E0                                        u2720 0F60  
                                      u2800 0591                                        u2640 0874  
                                      u2481 0AA5                                        u2465 0A92  
                                      u2385 1541                                        u1681 15C2  
                                      u1841 084E                                        u1761 165B  
                                      u1921 07DF                                        u1905 07CD  
                                      u2721 0F5F                                        u2490 0AAB  
                                      u2570 0935                                        u1690 15D9  
                                      u1834 0841                                        u1770 1670  
                                      u1930 07EF                                        u1850 0783  
                                      u2730 0F75                                        u2810 05B0  
                                      u2650 0885                                        u2491 0AAA  
                                      u2475 0A9C                                        u2571 0934  
                                      u2555 0922                                        u1691 15D8  
                                      u1771 166F                                        u1931 07EE  
                                      u1851 0782                                        u2811 05AF  
                                      u2635 085F                                        u3267 0DB2  
                                      u2900 0C05                                        u2580 093A  
                                      u1780 1676                                        u1860 078E  
                                      u1940 168C                                        u2740 0F8D  
                                      u2660 0701                                        u2820 05D9  
                                      u2901 0C04                                        u2581 0939  
                                      u2565 092B                                        u1781 1675  
                                      u1861 078D                                        u1941 168B  
                                      u2741 0F8C                                        u2661 0700  
                                      u2821 05D8                                        u2805 058D  
                                      u2645 0870                                        u3277 0DBD  
                                      u2590 07FA                                        u1790 080D  
                                      u1870 079C                                        u2750 0FAE  
                                      u2670 070F                                        u2830 0602  
                                      u2591 07F9                                        u1791 080C  
                                      u1871 079B                                        u2751 0FAD  
                                      u2735 0F71                                        u2671 070E  
                                      u2831 0601                                        u3287 16F3  
                                      u2655 0881                                        u2920 0C17  
                                      u1880 07A9                                        u2760 0FCF  
                                      u2840 0623                                        u2921 0C16  
                                      u3297 15C8                                        u1881 07A8  
                                      u2761 0FCE                                        u2841 0622  
                                      u1890 07B8                                        u1970 16AA  
                                      u2690 0735                                        u2850 066A  
                                      u2770 0528                                        u2915 0C09  
                                      u1891 07B7                                        u1971 16A9  
                                      u1955 1695                                        u2691 0733  
                                      u2851 0669                                        u2771 0527  
                                      u2940 0C30                                        u1980 09AE  
                                      u2860 16CD                                        u2780 054A  
                                      u2941 0C2F                                        u1981 09AD  
                                      u1965 169C                                        u2685 072D  
                                      u2861 16CC                                        u2845 061F  
                                      u2781 0549                                        u2870 16DB  
                                      u2790 0573                                        u2935 0C18  
                                      u2871 16DA                                        u2791 0572  
                                      u2960 0C46                                        u2880 0BD5  
                                      u2961 0C45                                        u2945 0C2C  
                                      u2881 0BD4                                        u2970 0C4B  
                                      u2890 0BE6                                        u2971 0C4A  
                                      u2955 0C3A                                        u2891 0BE5  
                                      u1995 09B2                                        u2980 08AF  
                                      u2990 08C6                                        u2985 08AB  
                                      _SCS0 04C8                                        u2995 08C2  
                                      _SCS1 04C9                                        _TMR0 0015  
                                      _SPEN 0CEF                                        _TXEN 0CF5  
                                      _SYNC 0CF4                setMeasurementTimingBudget@en 00AB  
              setMeasurementTimingBudget@to 00B0                                        _main 0D89  
                                      _itoa 0CF0                            __end_of_I2C_Init 144F  
                        startContinuous@dev 0034                                        fsr0h 0005  
                                      fsr1h 0007                                        indf0 0000  
                                      fsr0l 0004                                        indf1 0001  
                                      fsr1l 0006                                        btemp 007E  
                          __end_of_I2C_Stop 1593                                        start 0019  
                           ??_encodeTimeout 0072                           tof_i2c_write@addr 0079  
                                     ??_ISR 0070                               ?_EUSART_Write 0070  
                encodeTimeout@timeout_mclks 0070                      VL53L0X_Init@spad_count 00D4  
                           __end_of___aldiv 0C5F                                       ?_main 0070  
                                     ?_itoa 0079                             __end_of___awdiv 0AB5  
                                     _BRG16 0CFB                             __end_of___awmod 0944  
                           __end_of___lldiv 09F8                             ___awdiv@divisor 0070  
                                     _IRCF0 04CB                                       _IRCF1 04CC  
                                     _IRCF2 04CD                                       _IRCF3 04CE  
                                     i1l256 0017                             ___awdiv@counter 0075  
                       ___lmul@multiplicand 0074                                _I2C_ReadByte 0807  
          getMeasurementTimingBudget@budget 004E                             __end_of_readReg 14DA  
                         __end_of_I2C_Start 1625                                       itoa@d 0079  
                              _I2C_WaitIdle 15B7                        I2C_WaitIF@timeout_ms 0070  
                                     status 0003                                       wtemp0 007E  
                getSequenceStepTimeouts@dev 0041                                ?_internal_32 0070  
                        timeoutUsToMclks@us 002D                               ?_VL53L0X_Init 0070  
                           __initialization 001B           VL53L0X_Init@spad_type_is_aperture 00D5  
                              __end_of_main 0E48                        encodeTimeout@ls_byte 0078  
                              __end_of_itoa 0D89                        encodeTimeout@ms_byte 0076  
                            ??_EUSART_Write 0070                                      ??_main 006E  
                                    ??_itoa 007B                      getVcselPulsePeriod@dev 0025  
                       I2C_RepeatedStart@st 0073                            ___awdiv@dividend 0072  
                              ??_I2C_WaitIF 0072                                      _RC1REG 0199  
                                    i1l2970 000D                                      i1l2966 0006  
                                    i1l2968 000A                                      u316_20 000A  
                                    u316_21 0009                    VL53L0X_Init@ref_spad_map 00CA  
                                    _SPBRGL 019B                                      _TX1REG 019A  
                                    _SPLLEN 04CF                                      _SSPADD 0212  
                                    _SSPBUF 0211                    getSequenceStepEnables@en 0024  
                  getSequenceStepEnables@sc 0027                              ??_VL53L0X_Init 00C6  
                    checkTimeoutExpired@dev 0079                           __end_of_TMR0_Init 141A  
                                    ___lmul 1680                                   ??___aldiv 0078  
                                    ___wmul 1531                                   ??___awdiv 0074  
                                 ??___awmod 0074                                   ??___lldiv 007C  
                          __end_of_initMain 172E                             _startContinuous 0C5F  
                                    _millis 144F                            ___awdiv@quotient 0077  
                           ___awmod@divisor 0070                             ___awmod@counter 0075  
                        __end_of_I2C_WaitIF 1531                                   ??_readReg 0021  
                                 ?_I2C_Init 0070                                   ?_I2C_Stop 0070  
                           tof_i2c_read@ack 007B                             tof_i2c_read@len 0078  
                           tof_i2c_read@dst 0077                             tof_i2c_read@reg 0076  
                   ??_readRangeContinuousMm 007E                            __end_of_writeReg 1490  
                           I2C_WriteByte@st 0074                     __end_of__initialization 0033  
                 getSequenceStepTimeouts@en 003D                   getSequenceStepTimeouts@to 003E  
                            __pcstackCOMMON 0070                               _I2C_WriteByte 164E  
                              __pidataBANK2 141A                            _timeoutMclksToUs 0AB5  
                                ??_I2C_Init 0070                              _OPTION_REGbits 0095  
                                ??_I2C_Stop 0073                       __end_of_tof_i2c_write 1800  
                   _getSequenceStepTimeouts 0E48                            _timeoutUsToMclks 0B41  
                                __pbssBANK1 00EA                                  __pbssBANK2 0130  
                      __end_of_EUSART_Write 07FE                     getVcselPulsePeriod@type 0024  
                   __end_of_startContinuous 0CF0                      performSingleRefCal@dev 002D  
                                __pmaintext 0D89                              ?_I2C_WriteByte 0070  
                                   ?___lmul 0070                                     ?___wmul 0070  
                                __pintentry 0004                 __end_of_getVcselPulsePeriod 1570  
                            ___lmul@product 0078                                     ?_millis 0070  
                                I2C_Stop@st 0073                              I2C_ReadByte@st 0075  
                              readReg16@dev 0029                                readReg16@buf 0027  
                              readReg16@reg 0020                        __end_of_VL53L0X_Init 0517  
                                   _PPSLOCK 0E0F                                     _SSPCON2 0216  
                    I2C_WaitIdle@timeout_ms 0070              setMeasurementTimingBudget@used 00A6  
                                 ?_initMain 0070                                   _I2C_Start 1600  
             getMeasurementTimingBudget@dev 0052                            I2C_ReadByte@data 0074  
                         ??_timeoutOccurred 0070                    ??_getSequenceStepEnables 0025  
                  timeoutUsToMclks@macro_ns 003A                                     ___aldiv 0BCF  
                                   ___awdiv 0A56                                     ___awmod 08F1  
                                   ___lldiv 099D                           ??_I2C_ClearErrors 0070  
                     __end_of_encodeTimeout 1771                              readReg32@F6310 0130  
                            readReg16@F6305 00EE                               ?_tof_i2c_read 0076  
                                   __ptext1 13FE                                     __ptext2 0C5F  
                                   __ptext3 0854                                     __ptext4 1771  
                                   __ptext5 16ED                                     __ptext6 13F5  
                                   __ptext7 0037                                     __ptext8 14A8  
                                   __ptext9 0517                                   ?_writeReg 0024  
                         __end_of_readReg16 164E                                readMulti@dev 0024  
                              readMulti@dst 0021                                     _readReg 14C0  
                              readMulti@reg 0020                           __end_of_readMulti 14A8  
                 ??_getSequenceStepTimeouts 003F                            ___awmod@dividend 0072  
                          ___aldiv@dividend 0074                        end_of_initialization 0033  
                                ??_initMain 0070                                     itoa@div 0025  
                                   itoa@buf 0024  setMeasurementTimingBudget@fr_timeout_mclks 00A4  
                                   init_ram 13EF                                     itoa@num 0020  
                                   initloop 13F0                                  ?_I2C_Start 0070  
                         _EUSART_Initialize 08A1                             ??_I2C_WriteByte 0073  
                           ___lldiv@divisor 0020                             ___lldiv@counter 002C  
                          tof_i2c_read@addr 007C                            ?_startContinuous 002E  
                        ?_EUSART_Initialize 0026                            ___aldiv@quotient 0022  
                        EUSART_Initialize@x 0079                              ??_tof_i2c_read 0079  
                       ??_EUSART_Initialize 002A                                   _TMR0_Init 140B  
                                ??_writeReg 0026                         _checkTimeoutExpired 0944  
        __end_of_getMeasurementTimingBudget 1000                ??_setMeasurementTimingBudget 0046  
                _getMeasurementTimingBudget 0F20                               ??_getSpadInfo 002E  
                                 _TRISBbits 008D                                   _TRISCbits 008E  
                  __end_of_timeoutMclksToUs 0B41                               _decodeTimeout 1463  
             __end_of_readRangeContinuousMm 17B4                    timeoutMclksToUs@macro_ns 0039  
                                 _RXPPSbits 0E24                   __end_of_EUSART_Initialize 08F1  
           __end_of_getSequenceStepTimeouts 0F20                __end_of_EUSART_Write_Integer 15B7  
                      ?_checkTimeoutExpired 0070                                  main@sensor 00DA  
                          tof_i2c_write@len 0077                            tof_i2c_write@reg 0075  
                          tof_i2c_write@src 0076     setMeasurementTimingBudget@fr_timeout_us 00A0  
                                _writeReg16 14DA                                  _writeReg32 0854  
                            __end_of___lmul 16B3                    __end_of_timeoutUsToMclks 0BCF  
                            __end_of___wmul 1550                                  _writeMulti 14A8  
                  startContinuous@period_ms 002E                                _EUSART_Write 07F4  
                                ?_TMR0_Init 0070                              __end_of_millis 1463  
                       start_initialization 001B                                 __end_of_ISR 0019  
                       _performSingleRefCal 16B3           EUSART_Write_Integer@value_to_send 007B  
                             ?_startTimeout 0070                              ?_decodeTimeout 002A  
                       __end_of_getSpadInfo 077A                           _EUSART_Write_Text 14F6  
                               ??_I2C_Start 0073                       ??_checkTimeoutExpired 0020  
                                readReg@dev 0023                          ?_EUSART_Write_Text 0071  
                                readReg@reg 0020                                  readReg@val 0022  
                      ?_performSingleRefCal 002C                                _VL53L0X_Init 0037  
                                  ??___lmul 0078                                    ??___wmul 0074  
                         _I2C_RepeatedStart 15DB                                 __pdataBANK2 0120  
                       ??_EUSART_Write_Text 0073                                    ??_millis 0074  
                        ?_I2C_RepeatedStart 0070                            _VL53L0X_Init$819 00D0  
                                 ___latbits 0003                               __pcstackBANK0 0020  
                             __pcstackBANK1 00A0                               ?_I2C_ReadByte 0073  
                       ??_I2C_RepeatedStart 0073                      _getSequenceStepEnables 09F8  
                            tof_i2c_write@i 007A                              ??_startTimeout 0078  
                           _timeoutOccurred 13FE                   __end_of_EUSART_Write_Text 1513  
                             ?_I2C_WaitIdle 0070                        __end_of_tof_i2c_read 07F4  
                           _I2C_ClearErrors 0800                               ??_internal_32 0070  
                     ??_performSingleRefCal 007E                   __end_of_I2C_RepeatedStart 1600  
                                  ?___aldiv 0070                                    ?___awdiv 0070  
                                  ?___awmod 0070                                    ?___lldiv 0020  
                               ?_writeReg32 0020                                 ?_writeReg16 0020  
                             VL53L0X_Init@i 00D6                                 ?_writeMulti 007B  
                 EUSART_Initialize@baudrate 0026                                 ??_TMR0_Init 0070  
             setMeasurementTimingBudget@dev 00AA                       timeoutMclksToUs@mclks 002D  
        __end_of_setMeasurementTimingBudget 0692                  _setMeasurementTimingBudget 0517  
                                  ?_readReg 0020                                 I2C_Start@st 0073  
                                  _I2C_Init 143B                                    _I2C_Stop 1570  
                            ??_I2C_ReadByte 0074                             I2C_ReadByte@ack 0073  
                           ??_decodeTimeout 002C                        _EUSART_Write_Integer 1593  
                               _getSpadInfo 0692                                   _readReg16 1625  
                            readMulti@count 0022                                   _readMulti 1490  
                            ??_I2C_WaitIdle 0072                             VL53L0X_Init@dev 00D7  
                           startTimeout@dev 0078                ??_getMeasurementTimingBudget 0046  
                           ___aldiv@divisor 0070                             ___aldiv@counter 0020  
                            ___wmul@product 0074                                    _LATBbits 010D  
                                  _PIR1bits 0011                                    _PIR2bits 0012  
                   EUSART_Write_Integer@ptr 003B                                   main@F6439 0120  
                       __end_of_internal_32 13FE                                 writeReg@dev 0027  
                               writeReg@reg 0024                    readRangeContinuousMm@dev 0030  
                         ___wmul@multiplier 0070                              getSpadInfo@dev 0030  
                            getSpadInfo@tmp 002F                     __end_of_timeoutOccurred 140B  
                           writeReg32@value 0021                             writeReg16@value 0021  
                     ?_EUSART_Write_Integer 007B                                   main@range 00D8  
               ?_getMeasurementTimingBudget 0042                                  ?_readReg16 0020  
                   __end_of_I2C_ClearErrors 0807                                  ?_readMulti 0020  
                      VL53L0X_Init@spads_en 00D3                  readRangeContinuousMm@range 002E  
                             _tof_i2c_write 17B4                           ___lmul@multiplier 0070  
                                _I2C_WaitIF 1513                           ?_timeoutMclksToUs 002D  
                        ??_timeoutMclksToUs 0031                EUSART_Write_Integer@temp_ptr 003C  
                     __end_of_I2C_WriteByte 1680                        decodeTimeout@reg_val 002A  
                      __end_of_startTimeout 143B            performSingleRefCal@vhv_init_byte 002C  
                             tof_i2c_read@i 007D                    ?_getSequenceStepTimeouts 003D  
               getSpadInfo@type_is_aperture 002D                           ?_timeoutUsToMclks 002D  
                                 millis@val 0074                                  _ANSELBbits 018D  
                                _ANSELCbits 018E                          ??_timeoutUsToMclks 0032  
               timeoutMclksToUs@vcsel_pclks 002F                              ?_tof_i2c_write 0075  
                                  __ptext10 14DA                                    __ptext11 0B41  
                                  __ptext20 144F                                    __ptext12 172E  
                                  __ptext21 0F20                                    __ptext13 1490  
                                  __ptext30 14C0                                    __ptext22 0E48  
                                  __ptext14 16B3                                    __ptext31 077A  
                                  __ptext23 0AB5                                    __ptext15 0692  
                                  __ptext40 143B                                    __ptext32 164E  
                                  __ptext24 1680                                    __ptext16 1478  
                                  __ptext41 0800                                    __ptext33 1570  
                                  __ptext25 099D                                    __ptext17 17B4  
                                  __ptext50 0BCF                                    __ptext42 14F6  
                                  __ptext34 1600                                    __ptext26 1625  
                                  __ptext18 142A                                    __ptext43 1593  
                                  __ptext35 15DB                                    __ptext27 1550  
                                  __ptext19 0944                                    __ptext44 0CF0  
                                  __ptext36 0807                                    __ptext28 1463  
                                  __ptext45 1531                                    __ptext37 15B7  
                                  __ptext29 09F8                                    __ptext46 08F1  
                                  __ptext38 1513                                    __ptext47 0A56  
                                  __ptext39 140B                                    __ptext48 07F4  
                                  __ptext49 08A1         setMeasurementTimingBudget@budget_us 0042  
                                  _initMain 16ED                       _readRangeContinuousMm 1771  
                             _SSPDATPPSbits 0E21                                 _internal_32 13F5  
                                _RB2PPSbits 0E9A                        __end_of_I2C_ReadByte 0854  
                                _RC1STAbits 019D                                  _RC4PPSbits 0EA4  
                             _SSPCLKPPSbits 0E20                                    int$flags 007E  
                                _RC5PPSbits 0EA5                        __end_of_I2C_WaitIdle 15DB  
                             _encodeTimeout 172E                              _millis_counter 00EA  
                              _tof_i2c_read 077A                                    _writeReg 1478  
                    startContinuous@osc_cal 0032                     ?_getSequenceStepEnables 0024  
                    ??_EUSART_Write_Integer 007D                            ?_timeoutOccurred 0070  
                        timeoutOccurred@dev 0071                                  _INTCONbits 000B  
                        timeoutOccurred@tmp 0070                                 ??_readReg16 0022  
                            __pstringtext10 0000                getMeasurementTimingBudget@en 0053  
              getMeasurementTimingBudget@to 0058                                    itoa@temp 0022  
                          ?_I2C_ClearErrors 0070                                 ??_readMulti 0023  
               __end_of_checkTimeoutExpired 099D                                 ?_I2C_WaitIF 0070  
                                  intlevel1 0000                     _checkTimeoutExpired$801 0078  
                          ___lldiv@dividend 0024                                 _PPSLOCKbits 0E0F  
                       _getVcselPulsePeriod 1550                               writeReg32@dev 002D  
                             writeReg16@dev 0025                               writeReg32@buf 0029  
                             writeReg16@buf 0023                               writeReg32@reg 0020  
                             writeReg16@reg 0020                                ??_writeReg32 0025  
                              ??_writeReg16 007C                              ?_encodeTimeout 0070  
                              ??_writeMulti 0020              __end_of_getSequenceStepEnables 0A56  
                             __pstringtext1 1800                               __pstringtext2 181A  
                             __pstringtext3 1832                               __pstringtext4 1840  
                             __pstringtext5 184D                               __pstringtext6 185A  
                             __pstringtext7 1864                               __pstringtext8 186E  
                             __pstringtext9 1874                 timeoutUsToMclks@vcsel_pclks 0031  
                          ___lldiv@quotient 0028                 ?_setMeasurementTimingBudget 0042  
                      ?_getVcselPulsePeriod 0024                             ??_tof_i2c_write 0078  
                     EUSART_Write_Text@text 0071                                ___aldiv@sign 0021  
                              ?_getSpadInfo 002C                                 _SSPCON1bits 0215  
                             writeReg@value 0025                                 _SSPCON2bits 0216  
                         ??_startContinuous 007E                          EUSART_Write@txData 0070  
                    ?_readRangeContinuousMm 002C                 __end_of_performSingleRefCal 16ED  
                 getSequenceStepEnables@dev 0026                          __end_of_writeReg16 14F6  
                        __end_of_writeReg32 08A1                          __end_of_writeMulti 14C0  
                         I2C_WriteByte@data 0073                                  _SSPCONbits 0215  
                        EUSART_Write_Text@i 0074  
