

Microchip MPLAB XC8 Assembler V2.46 build 20240104201356 
                                                                                               Thu Jan 29 22:50:31 2026

Microchip MPLAB XC8 C Compiler v2.46 (Free license) build 20240104201356 Og1 
     1                           	processor	16F1718
     2                           	pagewidth 120
     3                           	opt	flic
     4                           	psect	stringtext1,global,class=STRCODE,delta=2,noexec
     5                           	psect	stringtext2,global,class=STRCODE,delta=2,noexec
     6                           	psect	stringtext3,global,class=STRCODE,delta=2,noexec
     7                           	psect	stringtext4,global,class=STRCODE,delta=2,noexec
     8                           	psect	stringtext5,global,class=STRCODE,delta=2,noexec
     9                           	psect	cinit,global,class=CODE,merge=1,delta=2
    10                           	psect	clrtext,global,class=CODE,delta=2
    11                           	psect	cstackBANK1,global,class=BANK1,space=1,delta=1,noexec
    12                           	psect	cstackCOMMON,global,class=COMMON,space=1,delta=1,noexec
    13                           	psect	cstackBANK0,global,class=BANK0,space=1,delta=1,noexec
    14                           	psect	maintext,global,class=CODE,merge=1,split=1,delta=2
    15                           	psect	text1,local,class=CODE,merge=1,delta=2
    16                           	psect	text2,local,class=CODE,merge=1,delta=2
    17                           	psect	text3,local,class=CODE,merge=1,delta=2
    18                           	psect	text4,local,class=CODE,merge=1,delta=2
    19                           	psect	text5,local,class=CODE,merge=1,delta=2,group=2
    20                           	psect	text6,local,class=CODE,merge=1,delta=2,group=2
    21                           	psect	text7,local,class=CODE,merge=1,delta=2,group=2
    22                           	psect	text8,local,class=CODE,merge=1,delta=2,group=1
    23                           	psect	text9,local,class=CODE,merge=1,delta=2,group=1
    24                           	psect	text10,local,class=CODE,merge=1,delta=2,group=1
    25                           	psect	text11,local,class=CODE,merge=1,delta=2,group=1
    26                           	psect	text12,local,class=CODE,merge=1,delta=2,group=1
    27                           	psect	text13,local,class=CODE,merge=1,delta=2,group=1
    28                           	psect	text14,local,class=CODE,merge=1,delta=2,group=1
    29                           	psect	text15,local,class=CODE,merge=1,delta=2
    30                           	psect	text16,local,class=CODE,merge=1,delta=2
    31                           	psect	text17,local,class=CODE,merge=1,delta=2
    32                           	psect	text18,local,class=CODE,merge=1,delta=2,group=2
    33                           	psect	text19,local,class=CODE,merge=1,delta=2
    34                           	psect	text20,local,class=CODE,merge=1,delta=2
    35                           	psect	text21,local,class=CODE,merge=1,delta=2
    36                           	psect	text22,local,class=CODE,merge=1,delta=2
    37                           	psect	text23,local,class=CODE,merge=1,delta=2
    38                           	psect	text24,local,class=CODE,merge=1,delta=2
    39                           	psect	text25,local,class=CODE,merge=1,delta=2
    40                           	psect	text26,local,class=CODE,merge=1,delta=2
    41                           	psect	text27,local,class=CODE,merge=1,delta=2
    42                           	psect	text28,local,class=CODE,merge=1,delta=2
    43                           	psect	text29,local,class=CODE,merge=1,delta=2,group=1
    44                           	psect	text30,local,class=CODE,merge=1,delta=2,group=1
    45                           	psect	text31,local,class=CODE,merge=1,delta=2
    46                           	psect	text32,local,class=CODE,merge=1,delta=2
    47                           	psect	config,global,abs,ovrld,class=CONFIG,space=4,delta=2,noexec
    48                           	dabs	1,0xCA0,32
    49                           	dabs	1,0xC20,80
    50                           	dabs	1,0xBA0,80
    51                           	dabs	1,0xB30,64
    52                           	dabs	1,0xB20,16
    53                           	dabs	1,0xAA0,80
    54                           	dabs	1,0xA20,80
    55                           	dabs	1,0x9A0,80
    56                           	dabs	1,0x920,80
    57                           	dabs	1,0x8A0,80
    58                           	dabs	1,0x820,80
    59                           	dabs	1,0x7E0,16
    60                           	dabs	1,0x24F0,0,_screen_buffer
    61                           	dabs	1,0x26F0,0,OLED_Printf_Line@last_text
    62                           	dabs	1,0x7E,2
    63     0000                     
    64                           ; Generated 07/09/2023 GMT
    65                           ; 
    66                           ; Copyright © 2023, Microchip Technology Inc. and its subsidiaries ("Microchip")
    67                           ; All rights reserved.
    68                           ; 
    69                           ; This software is developed by Microchip Technology Inc. and its subsidiaries ("Microch
      +                          ip").
    70                           ; 
    71                           ; Redistribution and use in source and binary forms, with or without modification, are
    72                           ; permitted provided that the following conditions are met:
    73                           ; 
    74                           ;     1. Redistributions of source code must retain the above copyright notice, this lis
      +                          t of
    75                           ;        conditions and the following disclaimer.
    76                           ; 
    77                           ;     2. Redistributions in binary form must reproduce the above copyright notice, this 
      +                          list
    78                           ;        of conditions and the following disclaimer in the documentation and/or other
    79                           ;        materials provided with the distribution. Publication is not required when
    80                           ;        this file is used in an embedded application.
    81                           ; 
    82                           ;     3. Microchip's name may not be used to endorse or promote products derived from th
      +                          is
    83                           ;        software without specific prior written permission.
    84                           ; 
    85                           ; THIS SOFTWARE IS PROVIDED BY MICROCHIP "AS IS" AND ANY EXPRESS OR IMPLIED WARRANTIES,
    86                           ; INCLUDING, BUT NOT LIMITED TO, THE IMPLIED WARRANTIES OF MERCHANTABILITY AND FITNESS F
      +                          OR
    87                           ; PURPOSE ARE DISCLAIMED.  IN NO EVENT SHALL MICROCHIP BE LIABLE FOR ANY DIRECT, INDIREC
      +                          T,
    88                           ; INCIDENTAL, SPECIAL, EXEMPLARY, OR CONSEQUENTIAL DAMAGES (INCLUDING BUT NOT LIMITED TO
    89                           ; PROCUREMENT OF SUBSTITUTE GOODS OR SERVICES; LOSS OF USE, DATA OR PROFITS; OR BUSINESS
    90                           ; INTERRUPTION) HOWSOEVER CAUSED AND ON ANY THEORY OF LIABILITY, WHETHER IN CONTRACT, ST
      +                          RICT
    91                           ; LIABILITY, OR TORT (INCLUDING NEGLIGENCE OR OTHERWISE) ARISING IN ANY WAY OUT OF THE U
      +                          SE OF
    92                           ; THIS SOFTWARE, EVEN IF ADVISED OF THE POSSIBILITY OF SUCH DAMAGE.
    93                           ; 
    94                           ; 
    95                           ; Code-generator required, PIC16F1718 Definitions
    96                           ; 
    97                           ; SFR Addresses
    98     0000                     	;# 
    99     0001                     	;# 
   100     0002                     	;# 
   101     0003                     	;# 
   102     0004                     	;# 
   103     0005                     	;# 
   104     0006                     	;# 
   105     0007                     	;# 
   106     0008                     	;# 
   107     0009                     	;# 
   108     000A                     	;# 
   109     000B                     	;# 
   110     000C                     	;# 
   111     000D                     	;# 
   112     000E                     	;# 
   113     0010                     	;# 
   114     0011                     	;# 
   115     0012                     	;# 
   116     0013                     	;# 
   117     0015                     	;# 
   118     0016                     	;# 
   119     0016                     	;# 
   120     0017                     	;# 
   121     0018                     	;# 
   122     0019                     	;# 
   123     001A                     	;# 
   124     001B                     	;# 
   125     001C                     	;# 
   126     008C                     	;# 
   127     008D                     	;# 
   128     008E                     	;# 
   129     0090                     	;# 
   130     0091                     	;# 
   131     0092                     	;# 
   132     0093                     	;# 
   133     0095                     	;# 
   134     0096                     	;# 
   135     0097                     	;# 
   136     0098                     	;# 
   137     0099                     	;# 
   138     009A                     	;# 
   139     009B                     	;# 
   140     009B                     	;# 
   141     009C                     	;# 
   142     009D                     	;# 
   143     009E                     	;# 
   144     009F                     	;# 
   145     010C                     	;# 
   146     010D                     	;# 
   147     010E                     	;# 
   148     0111                     	;# 
   149     0112                     	;# 
   150     0113                     	;# 
   151     0114                     	;# 
   152     0115                     	;# 
   153     0116                     	;# 
   154     0117                     	;# 
   155     0118                     	;# 
   156     0119                     	;# 
   157     011A                     	;# 
   158     011B                     	;# 
   159     011B                     	;# 
   160     011C                     	;# 
   161     018C                     	;# 
   162     018D                     	;# 
   163     018E                     	;# 
   164     0191                     	;# 
   165     0191                     	;# 
   166     0192                     	;# 
   167     0193                     	;# 
   168     0193                     	;# 
   169     0194                     	;# 
   170     0195                     	;# 
   171     0196                     	;# 
   172     0197                     	;# 
   173     0199                     	;# 
   174     0199                     	;# 
   175     0199                     	;# 
   176     019A                     	;# 
   177     019A                     	;# 
   178     019A                     	;# 
   179     019B                     	;# 
   180     019B                     	;# 
   181     019B                     	;# 
   182     019B                     	;# 
   183     019B                     	;# 
   184     019C                     	;# 
   185     019C                     	;# 
   186     019C                     	;# 
   187     019D                     	;# 
   188     019D                     	;# 
   189     019D                     	;# 
   190     019E                     	;# 
   191     019E                     	;# 
   192     019E                     	;# 
   193     019F                     	;# 
   194     019F                     	;# 
   195     019F                     	;# 
   196     019F                     	;# 
   197     019F                     	;# 
   198     020C                     	;# 
   199     020D                     	;# 
   200     020E                     	;# 
   201     0210                     	;# 
   202     0211                     	;# 
   203     0211                     	;# 
   204     0212                     	;# 
   205     0212                     	;# 
   206     0213                     	;# 
   207     0213                     	;# 
   208     0214                     	;# 
   209     0214                     	;# 
   210     0215                     	;# 
   211     0215                     	;# 
   212     0215                     	;# 
   213     0215                     	;# 
   214     0216                     	;# 
   215     0216                     	;# 
   216     0217                     	;# 
   217     0217                     	;# 
   218     028C                     	;# 
   219     028D                     	;# 
   220     028E                     	;# 
   221     0291                     	;# 
   222     0291                     	;# 
   223     0292                     	;# 
   224     0293                     	;# 
   225     0293                     	;# 
   226     0298                     	;# 
   227     0298                     	;# 
   228     0299                     	;# 
   229     029A                     	;# 
   230     029A                     	;# 
   231     029E                     	;# 
   232     030C                     	;# 
   233     030D                     	;# 
   234     030E                     	;# 
   235     038C                     	;# 
   236     038D                     	;# 
   237     038E                     	;# 
   238     0390                     	;# 
   239     0391                     	;# 
   240     0392                     	;# 
   241     0393                     	;# 
   242     0394                     	;# 
   243     0395                     	;# 
   244     0396                     	;# 
   245     0397                     	;# 
   246     0398                     	;# 
   247     0399                     	;# 
   248     039D                     	;# 
   249     039E                     	;# 
   250     039F                     	;# 
   251     0415                     	;# 
   252     0416                     	;# 
   253     0417                     	;# 
   254     041C                     	;# 
   255     041D                     	;# 
   256     041E                     	;# 
   257     0498                     	;# 
   258     0498                     	;# 
   259     0499                     	;# 
   260     049A                     	;# 
   261     049B                     	;# 
   262     049B                     	;# 
   263     049C                     	;# 
   264     049D                     	;# 
   265     049E                     	;# 
   266     049F                     	;# 
   267     0511                     	;# 
   268     0515                     	;# 
   269     0617                     	;# 
   270     0618                     	;# 
   271     0619                     	;# 
   272     0619                     	;# 
   273     061A                     	;# 
   274     061B                     	;# 
   275     061C                     	;# 
   276     061C                     	;# 
   277     0691                     	;# 
   278     0692                     	;# 
   279     0693                     	;# 
   280     0694                     	;# 
   281     0695                     	;# 
   282     0696                     	;# 
   283     0697                     	;# 
   284     0698                     	;# 
   285     0699                     	;# 
   286     069A                     	;# 
   287     069B                     	;# 
   288     069C                     	;# 
   289     069D                     	;# 
   290     069E                     	;# 
   291     069F                     	;# 
   292     0E0F                     	;# 
   293     0E10                     	;# 
   294     0E11                     	;# 
   295     0E12                     	;# 
   296     0E13                     	;# 
   297     0E14                     	;# 
   298     0E15                     	;# 
   299     0E17                     	;# 
   300     0E20                     	;# 
   301     0E21                     	;# 
   302     0E22                     	;# 
   303     0E24                     	;# 
   304     0E25                     	;# 
   305     0E28                     	;# 
   306     0E29                     	;# 
   307     0E2A                     	;# 
   308     0E2B                     	;# 
   309     0E90                     	;# 
   310     0E91                     	;# 
   311     0E92                     	;# 
   312     0E93                     	;# 
   313     0E94                     	;# 
   314     0E95                     	;# 
   315     0E96                     	;# 
   316     0E97                     	;# 
   317     0E98                     	;# 
   318     0E99                     	;# 
   319     0E9A                     	;# 
   320     0E9B                     	;# 
   321     0E9C                     	;# 
   322     0E9D                     	;# 
   323     0E9E                     	;# 
   324     0E9F                     	;# 
   325     0EA0                     	;# 
   326     0EA1                     	;# 
   327     0EA2                     	;# 
   328     0EA3                     	;# 
   329     0EA4                     	;# 
   330     0EA5                     	;# 
   331     0EA6                     	;# 
   332     0EA7                     	;# 
   333     0F0F                     	;# 
   334     0F10                     	;# 
   335     0F11                     	;# 
   336     0F12                     	;# 
   337     0F13                     	;# 
   338     0F14                     	;# 
   339     0F15                     	;# 
   340     0F16                     	;# 
   341     0F17                     	;# 
   342     0F18                     	;# 
   343     0F19                     	;# 
   344     0F1A                     	;# 
   345     0F1B                     	;# 
   346     0F1C                     	;# 
   347     0F1D                     	;# 
   348     0F1E                     	;# 
   349     0F1F                     	;# 
   350     0F20                     	;# 
   351     0F21                     	;# 
   352     0F22                     	;# 
   353     0F23                     	;# 
   354     0F24                     	;# 
   355     0F25                     	;# 
   356     0F26                     	;# 
   357     0F27                     	;# 
   358     0F28                     	;# 
   359     0F29                     	;# 
   360     0F2A                     	;# 
   361     0F2B                     	;# 
   362     0F2C                     	;# 
   363     0F2D                     	;# 
   364     0F2E                     	;# 
   365     0F2F                     	;# 
   366     0F30                     	;# 
   367     0F31                     	;# 
   368     0F32                     	;# 
   369     0F33                     	;# 
   370     0F34                     	;# 
   371     0F35                     	;# 
   372     0F36                     	;# 
   373     0F37                     	;# 
   374     0FE4                     	;# 
   375     0FE5                     	;# 
   376     0FE6                     	;# 
   377     0FE7                     	;# 
   378     0FE8                     	;# 
   379     0FE9                     	;# 
   380     0FEA                     	;# 
   381     0FEB                     	;# 
   382     0FED                     	;# 
   383     0FEE                     	;# 
   384     0FEF                     	;# 
   385     0000                     	;# 
   386     0001                     	;# 
   387     0002                     	;# 
   388     0003                     	;# 
   389     0004                     	;# 
   390     0005                     	;# 
   391     0006                     	;# 
   392     0007                     	;# 
   393     0008                     	;# 
   394     0009                     	;# 
   395     000A                     	;# 
   396     000B                     	;# 
   397     000C                     	;# 
   398     000D                     	;# 
   399     000E                     	;# 
   400     0010                     	;# 
   401     0011                     	;# 
   402     0012                     	;# 
   403     0013                     	;# 
   404     0015                     	;# 
   405     0016                     	;# 
   406     0016                     	;# 
   407     0017                     	;# 
   408     0018                     	;# 
   409     0019                     	;# 
   410     001A                     	;# 
   411     001B                     	;# 
   412     001C                     	;# 
   413     008C                     	;# 
   414     008D                     	;# 
   415     008E                     	;# 
   416     0090                     	;# 
   417     0091                     	;# 
   418     0092                     	;# 
   419     0093                     	;# 
   420     0095                     	;# 
   421     0096                     	;# 
   422     0097                     	;# 
   423     0098                     	;# 
   424     0099                     	;# 
   425     009A                     	;# 
   426     009B                     	;# 
   427     009B                     	;# 
   428     009C                     	;# 
   429     009D                     	;# 
   430     009E                     	;# 
   431     009F                     	;# 
   432     010C                     	;# 
   433     010D                     	;# 
   434     010E                     	;# 
   435     0111                     	;# 
   436     0112                     	;# 
   437     0113                     	;# 
   438     0114                     	;# 
   439     0115                     	;# 
   440     0116                     	;# 
   441     0117                     	;# 
   442     0118                     	;# 
   443     0119                     	;# 
   444     011A                     	;# 
   445     011B                     	;# 
   446     011B                     	;# 
   447     011C                     	;# 
   448     018C                     	;# 
   449     018D                     	;# 
   450     018E                     	;# 
   451     0191                     	;# 
   452     0191                     	;# 
   453     0192                     	;# 
   454     0193                     	;# 
   455     0193                     	;# 
   456     0194                     	;# 
   457     0195                     	;# 
   458     0196                     	;# 
   459     0197                     	;# 
   460     0199                     	;# 
   461     0199                     	;# 
   462     0199                     	;# 
   463     019A                     	;# 
   464     019A                     	;# 
   465     019A                     	;# 
   466     019B                     	;# 
   467     019B                     	;# 
   468     019B                     	;# 
   469     019B                     	;# 
   470     019B                     	;# 
   471     019C                     	;# 
   472     019C                     	;# 
   473     019C                     	;# 
   474     019D                     	;# 
   475     019D                     	;# 
   476     019D                     	;# 
   477     019E                     	;# 
   478     019E                     	;# 
   479     019E                     	;# 
   480     019F                     	;# 
   481     019F                     	;# 
   482     019F                     	;# 
   483     019F                     	;# 
   484     019F                     	;# 
   485     020C                     	;# 
   486     020D                     	;# 
   487     020E                     	;# 
   488     0210                     	;# 
   489     0211                     	;# 
   490     0211                     	;# 
   491     0212                     	;# 
   492     0212                     	;# 
   493     0213                     	;# 
   494     0213                     	;# 
   495     0214                     	;# 
   496     0214                     	;# 
   497     0215                     	;# 
   498     0215                     	;# 
   499     0215                     	;# 
   500     0215                     	;# 
   501     0216                     	;# 
   502     0216                     	;# 
   503     0217                     	;# 
   504     0217                     	;# 
   505     028C                     	;# 
   506     028D                     	;# 
   507     028E                     	;# 
   508     0291                     	;# 
   509     0291                     	;# 
   510     0292                     	;# 
   511     0293                     	;# 
   512     0293                     	;# 
   513     0298                     	;# 
   514     0298                     	;# 
   515     0299                     	;# 
   516     029A                     	;# 
   517     029A                     	;# 
   518     029E                     	;# 
   519     030C                     	;# 
   520     030D                     	;# 
   521     030E                     	;# 
   522     038C                     	;# 
   523     038D                     	;# 
   524     038E                     	;# 
   525     0390                     	;# 
   526     0391                     	;# 
   527     0392                     	;# 
   528     0393                     	;# 
   529     0394                     	;# 
   530     0395                     	;# 
   531     0396                     	;# 
   532     0397                     	;# 
   533     0398                     	;# 
   534     0399                     	;# 
   535     039D                     	;# 
   536     039E                     	;# 
   537     039F                     	;# 
   538     0415                     	;# 
   539     0416                     	;# 
   540     0417                     	;# 
   541     041C                     	;# 
   542     041D                     	;# 
   543     041E                     	;# 
   544     0498                     	;# 
   545     0498                     	;# 
   546     0499                     	;# 
   547     049A                     	;# 
   548     049B                     	;# 
   549     049B                     	;# 
   550     049C                     	;# 
   551     049D                     	;# 
   552     049E                     	;# 
   553     049F                     	;# 
   554     0511                     	;# 
   555     0515                     	;# 
   556     0617                     	;# 
   557     0618                     	;# 
   558     0619                     	;# 
   559     0619                     	;# 
   560     061A                     	;# 
   561     061B                     	;# 
   562     061C                     	;# 
   563     061C                     	;# 
   564     0691                     	;# 
   565     0692                     	;# 
   566     0693                     	;# 
   567     0694                     	;# 
   568     0695                     	;# 
   569     0696                     	;# 
   570     0697                     	;# 
   571     0698                     	;# 
   572     0699                     	;# 
   573     069A                     	;# 
   574     069B                     	;# 
   575     069C                     	;# 
   576     069D                     	;# 
   577     069E                     	;# 
   578     069F                     	;# 
   579     0E0F                     	;# 
   580     0E10                     	;# 
   581     0E11                     	;# 
   582     0E12                     	;# 
   583     0E13                     	;# 
   584     0E14                     	;# 
   585     0E15                     	;# 
   586     0E17                     	;# 
   587     0E20                     	;# 
   588     0E21                     	;# 
   589     0E22                     	;# 
   590     0E24                     	;# 
   591     0E25                     	;# 
   592     0E28                     	;# 
   593     0E29                     	;# 
   594     0E2A                     	;# 
   595     0E2B                     	;# 
   596     0E90                     	;# 
   597     0E91                     	;# 
   598     0E92                     	;# 
   599     0E93                     	;# 
   600     0E94                     	;# 
   601     0E95                     	;# 
   602     0E96                     	;# 
   603     0E97                     	;# 
   604     0E98                     	;# 
   605     0E99                     	;# 
   606     0E9A                     	;# 
   607     0E9B                     	;# 
   608     0E9C                     	;# 
   609     0E9D                     	;# 
   610     0E9E                     	;# 
   611     0E9F                     	;# 
   612     0EA0                     	;# 
   613     0EA1                     	;# 
   614     0EA2                     	;# 
   615     0EA3                     	;# 
   616     0EA4                     	;# 
   617     0EA5                     	;# 
   618     0EA6                     	;# 
   619     0EA7                     	;# 
   620     0F0F                     	;# 
   621     0F10                     	;# 
   622     0F11                     	;# 
   623     0F12                     	;# 
   624     0F13                     	;# 
   625     0F14                     	;# 
   626     0F15                     	;# 
   627     0F16                     	;# 
   628     0F17                     	;# 
   629     0F18                     	;# 
   630     0F19                     	;# 
   631     0F1A                     	;# 
   632     0F1B                     	;# 
   633     0F1C                     	;# 
   634     0F1D                     	;# 
   635     0F1E                     	;# 
   636     0F1F                     	;# 
   637     0F20                     	;# 
   638     0F21                     	;# 
   639     0F22                     	;# 
   640     0F23                     	;# 
   641     0F24                     	;# 
   642     0F25                     	;# 
   643     0F26                     	;# 
   644     0F27                     	;# 
   645     0F28                     	;# 
   646     0F29                     	;# 
   647     0F2A                     	;# 
   648     0F2B                     	;# 
   649     0F2C                     	;# 
   650     0F2D                     	;# 
   651     0F2E                     	;# 
   652     0F2F                     	;# 
   653     0F30                     	;# 
   654     0F31                     	;# 
   655     0F32                     	;# 
   656     0F33                     	;# 
   657     0F34                     	;# 
   658     0F35                     	;# 
   659     0F36                     	;# 
   660     0F37                     	;# 
   661     0FE4                     	;# 
   662     0FE5                     	;# 
   663     0FE6                     	;# 
   664     0FE7                     	;# 
   665     0FE8                     	;# 
   666     0FE9                     	;# 
   667     0FEA                     	;# 
   668     0FEB                     	;# 
   669     0FED                     	;# 
   670     0FEE                     	;# 
   671     0FEF                     	;# 
   672     0000                     	;# 
   673     0001                     	;# 
   674     0002                     	;# 
   675     0003                     	;# 
   676     0004                     	;# 
   677     0005                     	;# 
   678     0006                     	;# 
   679     0007                     	;# 
   680     0008                     	;# 
   681     0009                     	;# 
   682     000A                     	;# 
   683     000B                     	;# 
   684     000C                     	;# 
   685     000D                     	;# 
   686     000E                     	;# 
   687     0010                     	;# 
   688     0011                     	;# 
   689     0012                     	;# 
   690     0013                     	;# 
   691     0015                     	;# 
   692     0016                     	;# 
   693     0016                     	;# 
   694     0017                     	;# 
   695     0018                     	;# 
   696     0019                     	;# 
   697     001A                     	;# 
   698     001B                     	;# 
   699     001C                     	;# 
   700     008C                     	;# 
   701     008D                     	;# 
   702     008E                     	;# 
   703     0090                     	;# 
   704     0091                     	;# 
   705     0092                     	;# 
   706     0093                     	;# 
   707     0095                     	;# 
   708     0096                     	;# 
   709     0097                     	;# 
   710     0098                     	;# 
   711     0099                     	;# 
   712     009A                     	;# 
   713     009B                     	;# 
   714     009B                     	;# 
   715     009C                     	;# 
   716     009D                     	;# 
   717     009E                     	;# 
   718     009F                     	;# 
   719     010C                     	;# 
   720     010D                     	;# 
   721     010E                     	;# 
   722     0111                     	;# 
   723     0112                     	;# 
   724     0113                     	;# 
   725     0114                     	;# 
   726     0115                     	;# 
   727     0116                     	;# 
   728     0117                     	;# 
   729     0118                     	;# 
   730     0119                     	;# 
   731     011A                     	;# 
   732     011B                     	;# 
   733     011B                     	;# 
   734     011C                     	;# 
   735     018C                     	;# 
   736     018D                     	;# 
   737     018E                     	;# 
   738     0191                     	;# 
   739     0191                     	;# 
   740     0192                     	;# 
   741     0193                     	;# 
   742     0193                     	;# 
   743     0194                     	;# 
   744     0195                     	;# 
   745     0196                     	;# 
   746     0197                     	;# 
   747     0199                     	;# 
   748     0199                     	;# 
   749     0199                     	;# 
   750     019A                     	;# 
   751     019A                     	;# 
   752     019A                     	;# 
   753     019B                     	;# 
   754     019B                     	;# 
   755     019B                     	;# 
   756     019B                     	;# 
   757     019B                     	;# 
   758     019C                     	;# 
   759     019C                     	;# 
   760     019C                     	;# 
   761     019D                     	;# 
   762     019D                     	;# 
   763     019D                     	;# 
   764     019E                     	;# 
   765     019E                     	;# 
   766     019E                     	;# 
   767     019F                     	;# 
   768     019F                     	;# 
   769     019F                     	;# 
   770     019F                     	;# 
   771     019F                     	;# 
   772     020C                     	;# 
   773     020D                     	;# 
   774     020E                     	;# 
   775     0210                     	;# 
   776     0211                     	;# 
   777     0211                     	;# 
   778     0212                     	;# 
   779     0212                     	;# 
   780     0213                     	;# 
   781     0213                     	;# 
   782     0214                     	;# 
   783     0214                     	;# 
   784     0215                     	;# 
   785     0215                     	;# 
   786     0215                     	;# 
   787     0215                     	;# 
   788     0216                     	;# 
   789     0216                     	;# 
   790     0217                     	;# 
   791     0217                     	;# 
   792     028C                     	;# 
   793     028D                     	;# 
   794     028E                     	;# 
   795     0291                     	;# 
   796     0291                     	;# 
   797     0292                     	;# 
   798     0293                     	;# 
   799     0293                     	;# 
   800     0298                     	;# 
   801     0298                     	;# 
   802     0299                     	;# 
   803     029A                     	;# 
   804     029A                     	;# 
   805     029E                     	;# 
   806     030C                     	;# 
   807     030D                     	;# 
   808     030E                     	;# 
   809     038C                     	;# 
   810     038D                     	;# 
   811     038E                     	;# 
   812     0390                     	;# 
   813     0391                     	;# 
   814     0392                     	;# 
   815     0393                     	;# 
   816     0394                     	;# 
   817     0395                     	;# 
   818     0396                     	;# 
   819     0397                     	;# 
   820     0398                     	;# 
   821     0399                     	;# 
   822     039D                     	;# 
   823     039E                     	;# 
   824     039F                     	;# 
   825     0415                     	;# 
   826     0416                     	;# 
   827     0417                     	;# 
   828     041C                     	;# 
   829     041D                     	;# 
   830     041E                     	;# 
   831     0498                     	;# 
   832     0498                     	;# 
   833     0499                     	;# 
   834     049A                     	;# 
   835     049B                     	;# 
   836     049B                     	;# 
   837     049C                     	;# 
   838     049D                     	;# 
   839     049E                     	;# 
   840     049F                     	;# 
   841     0511                     	;# 
   842     0515                     	;# 
   843     0617                     	;# 
   844     0618                     	;# 
   845     0619                     	;# 
   846     0619                     	;# 
   847     061A                     	;# 
   848     061B                     	;# 
   849     061C                     	;# 
   850     061C                     	;# 
   851     0691                     	;# 
   852     0692                     	;# 
   853     0693                     	;# 
   854     0694                     	;# 
   855     0695                     	;# 
   856     0696                     	;# 
   857     0697                     	;# 
   858     0698                     	;# 
   859     0699                     	;# 
   860     069A                     	;# 
   861     069B                     	;# 
   862     069C                     	;# 
   863     069D                     	;# 
   864     069E                     	;# 
   865     069F                     	;# 
   866     0E0F                     	;# 
   867     0E10                     	;# 
   868     0E11                     	;# 
   869     0E12                     	;# 
   870     0E13                     	;# 
   871     0E14                     	;# 
   872     0E15                     	;# 
   873     0E17                     	;# 
   874     0E20                     	;# 
   875     0E21                     	;# 
   876     0E22                     	;# 
   877     0E24                     	;# 
   878     0E25                     	;# 
   879     0E28                     	;# 
   880     0E29                     	;# 
   881     0E2A                     	;# 
   882     0E2B                     	;# 
   883     0E90                     	;# 
   884     0E91                     	;# 
   885     0E92                     	;# 
   886     0E93                     	;# 
   887     0E94                     	;# 
   888     0E95                     	;# 
   889     0E96                     	;# 
   890     0E97                     	;# 
   891     0E98                     	;# 
   892     0E99                     	;# 
   893     0E9A                     	;# 
   894     0E9B                     	;# 
   895     0E9C                     	;# 
   896     0E9D                     	;# 
   897     0E9E                     	;# 
   898     0E9F                     	;# 
   899     0EA0                     	;# 
   900     0EA1                     	;# 
   901     0EA2                     	;# 
   902     0EA3                     	;# 
   903     0EA4                     	;# 
   904     0EA5                     	;# 
   905     0EA6                     	;# 
   906     0EA7                     	;# 
   907     0F0F                     	;# 
   908     0F10                     	;# 
   909     0F11                     	;# 
   910     0F12                     	;# 
   911     0F13                     	;# 
   912     0F14                     	;# 
   913     0F15                     	;# 
   914     0F16                     	;# 
   915     0F17                     	;# 
   916     0F18                     	;# 
   917     0F19                     	;# 
   918     0F1A                     	;# 
   919     0F1B                     	;# 
   920     0F1C                     	;# 
   921     0F1D                     	;# 
   922     0F1E                     	;# 
   923     0F1F                     	;# 
   924     0F20                     	;# 
   925     0F21                     	;# 
   926     0F22                     	;# 
   927     0F23                     	;# 
   928     0F24                     	;# 
   929     0F25                     	;# 
   930     0F26                     	;# 
   931     0F27                     	;# 
   932     0F28                     	;# 
   933     0F29                     	;# 
   934     0F2A                     	;# 
   935     0F2B                     	;# 
   936     0F2C                     	;# 
   937     0F2D                     	;# 
   938     0F2E                     	;# 
   939     0F2F                     	;# 
   940     0F30                     	;# 
   941     0F31                     	;# 
   942     0F32                     	;# 
   943     0F33                     	;# 
   944     0F34                     	;# 
   945     0F35                     	;# 
   946     0F36                     	;# 
   947     0F37                     	;# 
   948     0FE4                     	;# 
   949     0FE5                     	;# 
   950     0FE6                     	;# 
   951     0FE7                     	;# 
   952     0FE8                     	;# 
   953     0FE9                     	;# 
   954     0FEA                     	;# 
   955     0FEB                     	;# 
   956     0FED                     	;# 
   957     0FEE                     	;# 
   958     0FEF                     	;# 
   959     0000                     	;# 
   960     0001                     	;# 
   961     0002                     	;# 
   962     0003                     	;# 
   963     0004                     	;# 
   964     0005                     	;# 
   965     0006                     	;# 
   966     0007                     	;# 
   967     0008                     	;# 
   968     0009                     	;# 
   969     000A                     	;# 
   970     000B                     	;# 
   971     000C                     	;# 
   972     000D                     	;# 
   973     000E                     	;# 
   974     0010                     	;# 
   975     0011                     	;# 
   976     0012                     	;# 
   977     0013                     	;# 
   978     0015                     	;# 
   979     0016                     	;# 
   980     0016                     	;# 
   981     0017                     	;# 
   982     0018                     	;# 
   983     0019                     	;# 
   984     001A                     	;# 
   985     001B                     	;# 
   986     001C                     	;# 
   987     008C                     	;# 
   988     008D                     	;# 
   989     008E                     	;# 
   990     0090                     	;# 
   991     0091                     	;# 
   992     0092                     	;# 
   993     0093                     	;# 
   994     0095                     	;# 
   995     0096                     	;# 
   996     0097                     	;# 
   997     0098                     	;# 
   998     0099                     	;# 
   999     009A                     	;# 
  1000     009B                     	;# 
  1001     009B                     	;# 
  1002     009C                     	;# 
  1003     009D                     	;# 
  1004     009E                     	;# 
  1005     009F                     	;# 
  1006     010C                     	;# 
  1007     010D                     	;# 
  1008     010E                     	;# 
  1009     0111                     	;# 
  1010     0112                     	;# 
  1011     0113                     	;# 
  1012     0114                     	;# 
  1013     0115                     	;# 
  1014     0116                     	;# 
  1015     0117                     	;# 
  1016     0118                     	;# 
  1017     0119                     	;# 
  1018     011A                     	;# 
  1019     011B                     	;# 
  1020     011B                     	;# 
  1021     011C                     	;# 
  1022     018C                     	;# 
  1023     018D                     	;# 
  1024     018E                     	;# 
  1025     0191                     	;# 
  1026     0191                     	;# 
  1027     0192                     	;# 
  1028     0193                     	;# 
  1029     0193                     	;# 
  1030     0194                     	;# 
  1031     0195                     	;# 
  1032     0196                     	;# 
  1033     0197                     	;# 
  1034     0199                     	;# 
  1035     0199                     	;# 
  1036     0199                     	;# 
  1037     019A                     	;# 
  1038     019A                     	;# 
  1039     019A                     	;# 
  1040     019B                     	;# 
  1041     019B                     	;# 
  1042     019B                     	;# 
  1043     019B                     	;# 
  1044     019B                     	;# 
  1045     019C                     	;# 
  1046     019C                     	;# 
  1047     019C                     	;# 
  1048     019D                     	;# 
  1049     019D                     	;# 
  1050     019D                     	;# 
  1051     019E                     	;# 
  1052     019E                     	;# 
  1053     019E                     	;# 
  1054     019F                     	;# 
  1055     019F                     	;# 
  1056     019F                     	;# 
  1057     019F                     	;# 
  1058     019F                     	;# 
  1059     020C                     	;# 
  1060     020D                     	;# 
  1061     020E                     	;# 
  1062     0210                     	;# 
  1063     0211                     	;# 
  1064     0211                     	;# 
  1065     0212                     	;# 
  1066     0212                     	;# 
  1067     0213                     	;# 
  1068     0213                     	;# 
  1069     0214                     	;# 
  1070     0214                     	;# 
  1071     0215                     	;# 
  1072     0215                     	;# 
  1073     0215                     	;# 
  1074     0215                     	;# 
  1075     0216                     	;# 
  1076     0216                     	;# 
  1077     0217                     	;# 
  1078     0217                     	;# 
  1079     028C                     	;# 
  1080     028D                     	;# 
  1081     028E                     	;# 
  1082     0291                     	;# 
  1083     0291                     	;# 
  1084     0292                     	;# 
  1085     0293                     	;# 
  1086     0293                     	;# 
  1087     0298                     	;# 
  1088     0298                     	;# 
  1089     0299                     	;# 
  1090     029A                     	;# 
  1091     029A                     	;# 
  1092     029E                     	;# 
  1093     030C                     	;# 
  1094     030D                     	;# 
  1095     030E                     	;# 
  1096     038C                     	;# 
  1097     038D                     	;# 
  1098     038E                     	;# 
  1099     0390                     	;# 
  1100     0391                     	;# 
  1101     0392                     	;# 
  1102     0393                     	;# 
  1103     0394                     	;# 
  1104     0395                     	;# 
  1105     0396                     	;# 
  1106     0397                     	;# 
  1107     0398                     	;# 
  1108     0399                     	;# 
  1109     039D                     	;# 
  1110     039E                     	;# 
  1111     039F                     	;# 
  1112     0415                     	;# 
  1113     0416                     	;# 
  1114     0417                     	;# 
  1115     041C                     	;# 
  1116     041D                     	;# 
  1117     041E                     	;# 
  1118     0498                     	;# 
  1119     0498                     	;# 
  1120     0499                     	;# 
  1121     049A                     	;# 
  1122     049B                     	;# 
  1123     049B                     	;# 
  1124     049C                     	;# 
  1125     049D                     	;# 
  1126     049E                     	;# 
  1127     049F                     	;# 
  1128     0511                     	;# 
  1129     0515                     	;# 
  1130     0617                     	;# 
  1131     0618                     	;# 
  1132     0619                     	;# 
  1133     0619                     	;# 
  1134     061A                     	;# 
  1135     061B                     	;# 
  1136     061C                     	;# 
  1137     061C                     	;# 
  1138     0691                     	;# 
  1139     0692                     	;# 
  1140     0693                     	;# 
  1141     0694                     	;# 
  1142     0695                     	;# 
  1143     0696                     	;# 
  1144     0697                     	;# 
  1145     0698                     	;# 
  1146     0699                     	;# 
  1147     069A                     	;# 
  1148     069B                     	;# 
  1149     069C                     	;# 
  1150     069D                     	;# 
  1151     069E                     	;# 
  1152     069F                     	;# 
  1153     0E0F                     	;# 
  1154     0E10                     	;# 
  1155     0E11                     	;# 
  1156     0E12                     	;# 
  1157     0E13                     	;# 
  1158     0E14                     	;# 
  1159     0E15                     	;# 
  1160     0E17                     	;# 
  1161     0E20                     	;# 
  1162     0E21                     	;# 
  1163     0E22                     	;# 
  1164     0E24                     	;# 
  1165     0E25                     	;# 
  1166     0E28                     	;# 
  1167     0E29                     	;# 
  1168     0E2A                     	;# 
  1169     0E2B                     	;# 
  1170     0E90                     	;# 
  1171     0E91                     	;# 
  1172     0E92                     	;# 
  1173     0E93                     	;# 
  1174     0E94                     	;# 
  1175     0E95                     	;# 
  1176     0E96                     	;# 
  1177     0E97                     	;# 
  1178     0E98                     	;# 
  1179     0E99                     	;# 
  1180     0E9A                     	;# 
  1181     0E9B                     	;# 
  1182     0E9C                     	;# 
  1183     0E9D                     	;# 
  1184     0E9E                     	;# 
  1185     0E9F                     	;# 
  1186     0EA0                     	;# 
  1187     0EA1                     	;# 
  1188     0EA2                     	;# 
  1189     0EA3                     	;# 
  1190     0EA4                     	;# 
  1191     0EA5                     	;# 
  1192     0EA6                     	;# 
  1193     0EA7                     	;# 
  1194     0F0F                     	;# 
  1195     0F10                     	;# 
  1196     0F11                     	;# 
  1197     0F12                     	;# 
  1198     0F13                     	;# 
  1199     0F14                     	;# 
  1200     0F15                     	;# 
  1201     0F16                     	;# 
  1202     0F17                     	;# 
  1203     0F18                     	;# 
  1204     0F19                     	;# 
  1205     0F1A                     	;# 
  1206     0F1B                     	;# 
  1207     0F1C                     	;# 
  1208     0F1D                     	;# 
  1209     0F1E                     	;# 
  1210     0F1F                     	;# 
  1211     0F20                     	;# 
  1212     0F21                     	;# 
  1213     0F22                     	;# 
  1214     0F23                     	;# 
  1215     0F24                     	;# 
  1216     0F25                     	;# 
  1217     0F26                     	;# 
  1218     0F27                     	;# 
  1219     0F28                     	;# 
  1220     0F29                     	;# 
  1221     0F2A                     	;# 
  1222     0F2B                     	;# 
  1223     0F2C                     	;# 
  1224     0F2D                     	;# 
  1225     0F2E                     	;# 
  1226     0F2F                     	;# 
  1227     0F30                     	;# 
  1228     0F31                     	;# 
  1229     0F32                     	;# 
  1230     0F33                     	;# 
  1231     0F34                     	;# 
  1232     0F35                     	;# 
  1233     0F36                     	;# 
  1234     0F37                     	;# 
  1235     0FE4                     	;# 
  1236     0FE5                     	;# 
  1237     0FE6                     	;# 
  1238     0FE7                     	;# 
  1239     0FE8                     	;# 
  1240     0FE9                     	;# 
  1241     0FEA                     	;# 
  1242     0FEB                     	;# 
  1243     0FED                     	;# 
  1244     0FEE                     	;# 
  1245     0FEF                     	;_screen_buffer
  1246                           
  1247                           	psect	stringtext1
  1248     1016                     __pstringtext1:
  1249     1016                     _BatteryIcon:
  1250     1016  34FF               	retlw	255
  1251     1017  3481               	retlw	129
  1252     1018  34BD               	retlw	189
  1253     1019  34BD               	retlw	189
  1254     101A  34BD               	retlw	189
  1255     101B  3481               	retlw	129
  1256     101C  34FF               	retlw	255
  1257     101D  3418               	retlw	24
  1258     101E  3400               	retlw	0
  1259     101F  3400               	retlw	0
  1260     1020                     __end_of_BatteryIcon:
  1261                           
  1262                           	psect	stringtext2
  1263     0800                     __pstringtext2:
  1264     0800                     _OledFont:
  1265     0800  3400               	retlw	0
  1266     0801  3400               	retlw	0
  1267     0802  3400               	retlw	0
  1268     0803  3400               	retlw	0
  1269     0804  3400               	retlw	0
  1270     0805  3400               	retlw	0
  1271     0806  3400               	retlw	0
  1272     0807  3400               	retlw	0
  1273     0808  3400               	retlw	0
  1274     0809  3400               	retlw	0
  1275     080A  345F               	retlw	95
  1276     080B  3400               	retlw	0
  1277     080C  3400               	retlw	0
  1278     080D  3400               	retlw	0
  1279     080E  3400               	retlw	0
  1280     080F  3400               	retlw	0
  1281     0810  3400               	retlw	0
  1282     0811  3400               	retlw	0
  1283     0812  3407               	retlw	7
  1284     0813  3400               	retlw	0
  1285     0814  3407               	retlw	7
  1286     0815  3400               	retlw	0
  1287     0816  3400               	retlw	0
  1288     0817  3400               	retlw	0
  1289     0818  3400               	retlw	0
  1290     0819  3414               	retlw	20
  1291     081A  347F               	retlw	127
  1292     081B  3414               	retlw	20
  1293     081C  347F               	retlw	127
  1294     081D  3414               	retlw	20
  1295     081E  3400               	retlw	0
  1296     081F  3400               	retlw	0
  1297     0820  3400               	retlw	0
  1298     0821  3424               	retlw	36
  1299     0822  342A               	retlw	42
  1300     0823  347F               	retlw	127
  1301     0824  342A               	retlw	42
  1302     0825  3412               	retlw	18
  1303     0826  3400               	retlw	0
  1304     0827  3400               	retlw	0
  1305     0828  3400               	retlw	0
  1306     0829  3423               	retlw	35
  1307     082A  3413               	retlw	19
  1308     082B  3408               	retlw	8
  1309     082C  3464               	retlw	100
  1310     082D  3462               	retlw	98
  1311     082E  3400               	retlw	0
  1312     082F  3400               	retlw	0
  1313     0830  3400               	retlw	0
  1314     0831  3436               	retlw	54
  1315     0832  3449               	retlw	73
  1316     0833  3455               	retlw	85
  1317     0834  3422               	retlw	34
  1318     0835  3450               	retlw	80
  1319     0836  3400               	retlw	0
  1320     0837  3400               	retlw	0
  1321     0838  3400               	retlw	0
  1322     0839  3400               	retlw	0
  1323     083A  3405               	retlw	5
  1324     083B  3403               	retlw	3
  1325     083C  3400               	retlw	0
  1326     083D  3400               	retlw	0
  1327     083E  3400               	retlw	0
  1328     083F  3400               	retlw	0
  1329     0840  3400               	retlw	0
  1330     0841  341C               	retlw	28
  1331     0842  3422               	retlw	34
  1332     0843  3441               	retlw	65
  1333     0844  3400               	retlw	0
  1334     0845  3400               	retlw	0
  1335     0846  3400               	retlw	0
  1336     0847  3400               	retlw	0
  1337     0848  3400               	retlw	0
  1338     0849  3441               	retlw	65
  1339     084A  3422               	retlw	34
  1340     084B  341C               	retlw	28
  1341     084C  3400               	retlw	0
  1342     084D  3400               	retlw	0
  1343     084E  3400               	retlw	0
  1344     084F  3400               	retlw	0
  1345     0850  3400               	retlw	0
  1346     0851  3408               	retlw	8
  1347     0852  342A               	retlw	42
  1348     0853  341C               	retlw	28
  1349     0854  342A               	retlw	42
  1350     0855  3408               	retlw	8
  1351     0856  3400               	retlw	0
  1352     0857  3400               	retlw	0
  1353     0858  3400               	retlw	0
  1354     0859  3408               	retlw	8
  1355     085A  3408               	retlw	8
  1356     085B  343E               	retlw	62
  1357     085C  3408               	retlw	8
  1358     085D  3408               	retlw	8
  1359     085E  3400               	retlw	0
  1360     085F  3400               	retlw	0
  1361     0860  3400               	retlw	0
  1362     0861  34A0               	retlw	160
  1363     0862  3460               	retlw	96
  1364     0863  3400               	retlw	0
  1365     0864  3400               	retlw	0
  1366     0865  3400               	retlw	0
  1367     0866  3400               	retlw	0
  1368     0867  3400               	retlw	0
  1369     0868  3400               	retlw	0
  1370     0869  3408               	retlw	8
  1371     086A  3408               	retlw	8
  1372     086B  3408               	retlw	8
  1373     086C  3408               	retlw	8
  1374     086D  3408               	retlw	8
  1375     086E  3400               	retlw	0
  1376     086F  3400               	retlw	0
  1377     0870  3400               	retlw	0
  1378     0871  3460               	retlw	96
  1379     0872  3460               	retlw	96
  1380     0873  3400               	retlw	0
  1381     0874  3400               	retlw	0
  1382     0875  3400               	retlw	0
  1383     0876  3400               	retlw	0
  1384     0877  3400               	retlw	0
  1385     0878  3400               	retlw	0
  1386     0879  3420               	retlw	32
  1387     087A  3410               	retlw	16
  1388     087B  3408               	retlw	8
  1389     087C  3404               	retlw	4
  1390     087D  3402               	retlw	2
  1391     087E  3400               	retlw	0
  1392     087F  3400               	retlw	0
  1393     0880  3400               	retlw	0
  1394     0881  343E               	retlw	62
  1395     0882  3451               	retlw	81
  1396     0883  3449               	retlw	73
  1397     0884  3445               	retlw	69
  1398     0885  343E               	retlw	62
  1399     0886  3400               	retlw	0
  1400     0887  3400               	retlw	0
  1401     0888  3400               	retlw	0
  1402     0889  3400               	retlw	0
  1403     088A  3442               	retlw	66
  1404     088B  347F               	retlw	127
  1405     088C  3440               	retlw	64
  1406     088D  3400               	retlw	0
  1407     088E  3400               	retlw	0
  1408     088F  3400               	retlw	0
  1409     0890  3400               	retlw	0
  1410     0891  3462               	retlw	98
  1411     0892  3451               	retlw	81
  1412     0893  3449               	retlw	73
  1413     0894  3449               	retlw	73
  1414     0895  3446               	retlw	70
  1415     0896  3400               	retlw	0
  1416     0897  3400               	retlw	0
  1417     0898  3400               	retlw	0
  1418     0899  3422               	retlw	34
  1419     089A  3441               	retlw	65
  1420     089B  3449               	retlw	73
  1421     089C  3449               	retlw	73
  1422     089D  3436               	retlw	54
  1423     089E  3400               	retlw	0
  1424     089F  3400               	retlw	0
  1425     08A0  3400               	retlw	0
  1426     08A1  3418               	retlw	24
  1427     08A2  3414               	retlw	20
  1428     08A3  3412               	retlw	18
  1429     08A4  347F               	retlw	127
  1430     08A5  3410               	retlw	16
  1431     08A6  3400               	retlw	0
  1432     08A7  3400               	retlw	0
  1433     08A8  3400               	retlw	0
  1434     08A9  3427               	retlw	39
  1435     08AA  3445               	retlw	69
  1436     08AB  3445               	retlw	69
  1437     08AC  3445               	retlw	69
  1438     08AD  3439               	retlw	57
  1439     08AE  3400               	retlw	0
  1440     08AF  3400               	retlw	0
  1441     08B0  3400               	retlw	0
  1442     08B1  343C               	retlw	60
  1443     08B2  344A               	retlw	74
  1444     08B3  3449               	retlw	73
  1445     08B4  3449               	retlw	73
  1446     08B5  3430               	retlw	48
  1447     08B6  3400               	retlw	0
  1448     08B7  3400               	retlw	0
  1449     08B8  3400               	retlw	0
  1450     08B9  3401               	retlw	1
  1451     08BA  3471               	retlw	113
  1452     08BB  3409               	retlw	9
  1453     08BC  3405               	retlw	5
  1454     08BD  3403               	retlw	3
  1455     08BE  3400               	retlw	0
  1456     08BF  3400               	retlw	0
  1457     08C0  3400               	retlw	0
  1458     08C1  3436               	retlw	54
  1459     08C2  3449               	retlw	73
  1460     08C3  3449               	retlw	73
  1461     08C4  3449               	retlw	73
  1462     08C5  3436               	retlw	54
  1463     08C6  3400               	retlw	0
  1464     08C7  3400               	retlw	0
  1465     08C8  3400               	retlw	0
  1466     08C9  3406               	retlw	6
  1467     08CA  3449               	retlw	73
  1468     08CB  3449               	retlw	73
  1469     08CC  3429               	retlw	41
  1470     08CD  341E               	retlw	30
  1471     08CE  3400               	retlw	0
  1472     08CF  3400               	retlw	0
  1473     08D0  3400               	retlw	0
  1474     08D1  3400               	retlw	0
  1475     08D2  3436               	retlw	54
  1476     08D3  3436               	retlw	54
  1477     08D4  3400               	retlw	0
  1478     08D5  3400               	retlw	0
  1479     08D6  3400               	retlw	0
  1480     08D7  3400               	retlw	0
  1481     08D8  3400               	retlw	0
  1482     08D9  3400               	retlw	0
  1483     08DA  34AC               	retlw	172
  1484     08DB  346C               	retlw	108
  1485     08DC  3400               	retlw	0
  1486     08DD  3400               	retlw	0
  1487     08DE  3400               	retlw	0
  1488     08DF  3400               	retlw	0
  1489     08E0  3400               	retlw	0
  1490     08E1  3408               	retlw	8
  1491     08E2  3414               	retlw	20
  1492     08E3  3422               	retlw	34
  1493     08E4  3441               	retlw	65
  1494     08E5  3400               	retlw	0
  1495     08E6  3400               	retlw	0
  1496     08E7  3400               	retlw	0
  1497     08E8  3400               	retlw	0
  1498     08E9  3414               	retlw	20
  1499     08EA  3414               	retlw	20
  1500     08EB  3414               	retlw	20
  1501     08EC  3414               	retlw	20
  1502     08ED  3414               	retlw	20
  1503     08EE  3400               	retlw	0
  1504     08EF  3400               	retlw	0
  1505     08F0  3400               	retlw	0
  1506     08F1  3441               	retlw	65
  1507     08F2  3422               	retlw	34
  1508     08F3  3414               	retlw	20
  1509     08F4  3408               	retlw	8
  1510     08F5  3400               	retlw	0
  1511     08F6  3400               	retlw	0
  1512     08F7  3400               	retlw	0
  1513     08F8  3400               	retlw	0
  1514     08F9  3402               	retlw	2
  1515     08FA  3401               	retlw	1
  1516     08FB  3451               	retlw	81
  1517     08FC  3409               	retlw	9
  1518     08FD  3406               	retlw	6
  1519     08FE  3400               	retlw	0
  1520     08FF  3400               	retlw	0
  1521     0900  3400               	retlw	0
  1522     0901  3432               	retlw	50
  1523     0902  3449               	retlw	73
  1524     0903  3479               	retlw	121
  1525     0904  3441               	retlw	65
  1526     0905  343E               	retlw	62
  1527     0906  3400               	retlw	0
  1528     0907  3400               	retlw	0
  1529     0908  3400               	retlw	0
  1530     0909  347E               	retlw	126
  1531     090A  3409               	retlw	9
  1532     090B  3409               	retlw	9
  1533     090C  3409               	retlw	9
  1534     090D  347E               	retlw	126
  1535     090E  3400               	retlw	0
  1536     090F  3400               	retlw	0
  1537     0910  3400               	retlw	0
  1538     0911  347F               	retlw	127
  1539     0912  3449               	retlw	73
  1540     0913  3449               	retlw	73
  1541     0914  3449               	retlw	73
  1542     0915  3436               	retlw	54
  1543     0916  3400               	retlw	0
  1544     0917  3400               	retlw	0
  1545     0918  3400               	retlw	0
  1546     0919  343E               	retlw	62
  1547     091A  3441               	retlw	65
  1548     091B  3441               	retlw	65
  1549     091C  3441               	retlw	65
  1550     091D  3422               	retlw	34
  1551     091E  3400               	retlw	0
  1552     091F  3400               	retlw	0
  1553     0920  3400               	retlw	0
  1554     0921  347F               	retlw	127
  1555     0922  3441               	retlw	65
  1556     0923  3441               	retlw	65
  1557     0924  3422               	retlw	34
  1558     0925  341C               	retlw	28
  1559     0926  3400               	retlw	0
  1560     0927  3400               	retlw	0
  1561     0928  3400               	retlw	0
  1562     0929  347F               	retlw	127
  1563     092A  3449               	retlw	73
  1564     092B  3449               	retlw	73
  1565     092C  3449               	retlw	73
  1566     092D  3441               	retlw	65
  1567     092E  3400               	retlw	0
  1568     092F  3400               	retlw	0
  1569     0930  3400               	retlw	0
  1570     0931  347F               	retlw	127
  1571     0932  3409               	retlw	9
  1572     0933  3409               	retlw	9
  1573     0934  3409               	retlw	9
  1574     0935  3401               	retlw	1
  1575     0936  3400               	retlw	0
  1576     0937  3400               	retlw	0
  1577     0938  3400               	retlw	0
  1578     0939  343E               	retlw	62
  1579     093A  3441               	retlw	65
  1580     093B  3441               	retlw	65
  1581     093C  3451               	retlw	81
  1582     093D  3472               	retlw	114
  1583     093E  3400               	retlw	0
  1584     093F  3400               	retlw	0
  1585     0940  3400               	retlw	0
  1586     0941  347F               	retlw	127
  1587     0942  3408               	retlw	8
  1588     0943  3408               	retlw	8
  1589     0944  3408               	retlw	8
  1590     0945  347F               	retlw	127
  1591     0946  3400               	retlw	0
  1592     0947  3400               	retlw	0
  1593     0948  3400               	retlw	0
  1594     0949  3441               	retlw	65
  1595     094A  347F               	retlw	127
  1596     094B  3441               	retlw	65
  1597     094C  3400               	retlw	0
  1598     094D  3400               	retlw	0
  1599     094E  3400               	retlw	0
  1600     094F  3400               	retlw	0
  1601     0950  3400               	retlw	0
  1602     0951  3420               	retlw	32
  1603     0952  3440               	retlw	64
  1604     0953  3441               	retlw	65
  1605     0954  343F               	retlw	63
  1606     0955  3401               	retlw	1
  1607     0956  3400               	retlw	0
  1608     0957  3400               	retlw	0
  1609     0958  3400               	retlw	0
  1610     0959  347F               	retlw	127
  1611     095A  3408               	retlw	8
  1612     095B  3414               	retlw	20
  1613     095C  3422               	retlw	34
  1614     095D  3441               	retlw	65
  1615     095E  3400               	retlw	0
  1616     095F  3400               	retlw	0
  1617     0960  3400               	retlw	0
  1618     0961  347F               	retlw	127
  1619     0962  3440               	retlw	64
  1620     0963  3440               	retlw	64
  1621     0964  3440               	retlw	64
  1622     0965  3440               	retlw	64
  1623     0966  3400               	retlw	0
  1624     0967  3400               	retlw	0
  1625     0968  3400               	retlw	0
  1626     0969  347F               	retlw	127
  1627     096A  3402               	retlw	2
  1628     096B  340C               	retlw	12
  1629     096C  3402               	retlw	2
  1630     096D  347F               	retlw	127
  1631     096E  3400               	retlw	0
  1632     096F  3400               	retlw	0
  1633     0970  3400               	retlw	0
  1634     0971  347F               	retlw	127
  1635     0972  3404               	retlw	4
  1636     0973  3408               	retlw	8
  1637     0974  3410               	retlw	16
  1638     0975  347F               	retlw	127
  1639     0976  3400               	retlw	0
  1640     0977  3400               	retlw	0
  1641     0978  3400               	retlw	0
  1642     0979  343E               	retlw	62
  1643     097A  3441               	retlw	65
  1644     097B  3441               	retlw	65
  1645     097C  3441               	retlw	65
  1646     097D  343E               	retlw	62
  1647     097E  3400               	retlw	0
  1648     097F  3400               	retlw	0
  1649     0980  3400               	retlw	0
  1650     0981  347F               	retlw	127
  1651     0982  3409               	retlw	9
  1652     0983  3409               	retlw	9
  1653     0984  3409               	retlw	9
  1654     0985  3406               	retlw	6
  1655     0986  3400               	retlw	0
  1656     0987  3400               	retlw	0
  1657     0988  3400               	retlw	0
  1658     0989  343E               	retlw	62
  1659     098A  3441               	retlw	65
  1660     098B  3451               	retlw	81
  1661     098C  3421               	retlw	33
  1662     098D  345E               	retlw	94
  1663     098E  3400               	retlw	0
  1664     098F  3400               	retlw	0
  1665     0990  3400               	retlw	0
  1666     0991  347F               	retlw	127
  1667     0992  3409               	retlw	9
  1668     0993  3419               	retlw	25
  1669     0994  3429               	retlw	41
  1670     0995  3446               	retlw	70
  1671     0996  3400               	retlw	0
  1672     0997  3400               	retlw	0
  1673     0998  3400               	retlw	0
  1674     0999  3426               	retlw	38
  1675     099A  3449               	retlw	73
  1676     099B  3449               	retlw	73
  1677     099C  3449               	retlw	73
  1678     099D  3432               	retlw	50
  1679     099E  3400               	retlw	0
  1680     099F  3400               	retlw	0
  1681     09A0  3400               	retlw	0
  1682     09A1  3401               	retlw	1
  1683     09A2  3401               	retlw	1
  1684     09A3  347F               	retlw	127
  1685     09A4  3401               	retlw	1
  1686     09A5  3401               	retlw	1
  1687     09A6  3400               	retlw	0
  1688     09A7  3400               	retlw	0
  1689     09A8  3400               	retlw	0
  1690     09A9  343F               	retlw	63
  1691     09AA  3440               	retlw	64
  1692     09AB  3440               	retlw	64
  1693     09AC  3440               	retlw	64
  1694     09AD  343F               	retlw	63
  1695     09AE  3400               	retlw	0
  1696     09AF  3400               	retlw	0
  1697     09B0  3400               	retlw	0
  1698     09B1  341F               	retlw	31
  1699     09B2  3420               	retlw	32
  1700     09B3  3440               	retlw	64
  1701     09B4  3420               	retlw	32
  1702     09B5  341F               	retlw	31
  1703     09B6  3400               	retlw	0
  1704     09B7  3400               	retlw	0
  1705     09B8  3400               	retlw	0
  1706     09B9  343F               	retlw	63
  1707     09BA  3440               	retlw	64
  1708     09BB  3438               	retlw	56
  1709     09BC  3440               	retlw	64
  1710     09BD  343F               	retlw	63
  1711     09BE  3400               	retlw	0
  1712     09BF  3400               	retlw	0
  1713     09C0  3400               	retlw	0
  1714     09C1  3463               	retlw	99
  1715     09C2  3414               	retlw	20
  1716     09C3  3408               	retlw	8
  1717     09C4  3414               	retlw	20
  1718     09C5  3463               	retlw	99
  1719     09C6  3400               	retlw	0
  1720     09C7  3400               	retlw	0
  1721     09C8  3400               	retlw	0
  1722     09C9  3403               	retlw	3
  1723     09CA  3404               	retlw	4
  1724     09CB  3478               	retlw	120
  1725     09CC  3404               	retlw	4
  1726     09CD  3403               	retlw	3
  1727     09CE  3400               	retlw	0
  1728     09CF  3400               	retlw	0
  1729     09D0  3400               	retlw	0
  1730     09D1  3461               	retlw	97
  1731     09D2  3451               	retlw	81
  1732     09D3  3449               	retlw	73
  1733     09D4  3445               	retlw	69
  1734     09D5  3443               	retlw	67
  1735     09D6  3400               	retlw	0
  1736     09D7  3400               	retlw	0
  1737     09D8  3400               	retlw	0
  1738     09D9  347F               	retlw	127
  1739     09DA  3441               	retlw	65
  1740     09DB  3441               	retlw	65
  1741     09DC  3400               	retlw	0
  1742     09DD  3400               	retlw	0
  1743     09DE  3400               	retlw	0
  1744     09DF  3400               	retlw	0
  1745     09E0  3400               	retlw	0
  1746     09E1  3402               	retlw	2
  1747     09E2  3404               	retlw	4
  1748     09E3  3408               	retlw	8
  1749     09E4  3410               	retlw	16
  1750     09E5  3420               	retlw	32
  1751     09E6  3400               	retlw	0
  1752     09E7  3400               	retlw	0
  1753     09E8  3400               	retlw	0
  1754     09E9  3441               	retlw	65
  1755     09EA  3441               	retlw	65
  1756     09EB  347F               	retlw	127
  1757     09EC  3400               	retlw	0
  1758     09ED  3400               	retlw	0
  1759     09EE  3400               	retlw	0
  1760     09EF  3400               	retlw	0
  1761     09F0  3400               	retlw	0
  1762     09F1  3404               	retlw	4
  1763     09F2  3402               	retlw	2
  1764     09F3  3401               	retlw	1
  1765     09F4  3402               	retlw	2
  1766     09F5  3404               	retlw	4
  1767     09F6  3400               	retlw	0
  1768     09F7  3400               	retlw	0
  1769     09F8  3400               	retlw	0
  1770     09F9  3480               	retlw	128
  1771     09FA  3480               	retlw	128
  1772     09FB  3480               	retlw	128
  1773     09FC  3480               	retlw	128
  1774     09FD  3480               	retlw	128
  1775     09FE  3400               	retlw	0
  1776     09FF  3400               	retlw	0
  1777     0A00  3400               	retlw	0
  1778     0A01  3401               	retlw	1
  1779     0A02  3402               	retlw	2
  1780     0A03  3404               	retlw	4
  1781     0A04  3400               	retlw	0
  1782     0A05  3400               	retlw	0
  1783     0A06  3400               	retlw	0
  1784     0A07  3400               	retlw	0
  1785     0A08  3400               	retlw	0
  1786     0A09  3420               	retlw	32
  1787     0A0A  3454               	retlw	84
  1788     0A0B  3454               	retlw	84
  1789     0A0C  3454               	retlw	84
  1790     0A0D  3478               	retlw	120
  1791     0A0E  3400               	retlw	0
  1792     0A0F  3400               	retlw	0
  1793     0A10  3400               	retlw	0
  1794     0A11  347F               	retlw	127
  1795     0A12  3448               	retlw	72
  1796     0A13  3444               	retlw	68
  1797     0A14  3444               	retlw	68
  1798     0A15  3438               	retlw	56
  1799     0A16  3400               	retlw	0
  1800     0A17  3400               	retlw	0
  1801     0A18  3400               	retlw	0
  1802     0A19  3438               	retlw	56
  1803     0A1A  3444               	retlw	68
  1804     0A1B  3444               	retlw	68
  1805     0A1C  3428               	retlw	40
  1806     0A1D  3400               	retlw	0
  1807     0A1E  3400               	retlw	0
  1808     0A1F  3400               	retlw	0
  1809     0A20  3400               	retlw	0
  1810     0A21  3438               	retlw	56
  1811     0A22  3444               	retlw	68
  1812     0A23  3444               	retlw	68
  1813     0A24  3448               	retlw	72
  1814     0A25  347F               	retlw	127
  1815     0A26  3400               	retlw	0
  1816     0A27  3400               	retlw	0
  1817     0A28  3400               	retlw	0
  1818     0A29  3438               	retlw	56
  1819     0A2A  3454               	retlw	84
  1820     0A2B  3454               	retlw	84
  1821     0A2C  3454               	retlw	84
  1822     0A2D  3418               	retlw	24
  1823     0A2E  3400               	retlw	0
  1824     0A2F  3400               	retlw	0
  1825     0A30  3400               	retlw	0
  1826     0A31  3408               	retlw	8
  1827     0A32  347E               	retlw	126
  1828     0A33  3409               	retlw	9
  1829     0A34  3402               	retlw	2
  1830     0A35  3400               	retlw	0
  1831     0A36  3400               	retlw	0
  1832     0A37  3400               	retlw	0
  1833     0A38  3400               	retlw	0
  1834     0A39  3418               	retlw	24
  1835     0A3A  34A4               	retlw	164
  1836     0A3B  34A4               	retlw	164
  1837     0A3C  34A4               	retlw	164
  1838     0A3D  347C               	retlw	124
  1839     0A3E  3400               	retlw	0
  1840     0A3F  3400               	retlw	0
  1841     0A40  3400               	retlw	0
  1842     0A41  347F               	retlw	127
  1843     0A42  3408               	retlw	8
  1844     0A43  3404               	retlw	4
  1845     0A44  3404               	retlw	4
  1846     0A45  3478               	retlw	120
  1847     0A46  3400               	retlw	0
  1848     0A47  3400               	retlw	0
  1849     0A48  3400               	retlw	0
  1850     0A49  3400               	retlw	0
  1851     0A4A  347D               	retlw	125
  1852     0A4B  3400               	retlw	0
  1853     0A4C  3400               	retlw	0
  1854     0A4D  3400               	retlw	0
  1855     0A4E  3400               	retlw	0
  1856     0A4F  3400               	retlw	0
  1857     0A50  3400               	retlw	0
  1858     0A51  3480               	retlw	128
  1859     0A52  3484               	retlw	132
  1860     0A53  347D               	retlw	125
  1861     0A54  3400               	retlw	0
  1862     0A55  3400               	retlw	0
  1863     0A56  3400               	retlw	0
  1864     0A57  3400               	retlw	0
  1865     0A58  3400               	retlw	0
  1866     0A59  347F               	retlw	127
  1867     0A5A  3410               	retlw	16
  1868     0A5B  3428               	retlw	40
  1869     0A5C  3444               	retlw	68
  1870     0A5D  3400               	retlw	0
  1871     0A5E  3400               	retlw	0
  1872     0A5F  3400               	retlw	0
  1873     0A60  3400               	retlw	0
  1874     0A61  3441               	retlw	65
  1875     0A62  347F               	retlw	127
  1876     0A63  3440               	retlw	64
  1877     0A64  3400               	retlw	0
  1878     0A65  3400               	retlw	0
  1879     0A66  3400               	retlw	0
  1880     0A67  3400               	retlw	0
  1881     0A68  3400               	retlw	0
  1882     0A69  347C               	retlw	124
  1883     0A6A  3404               	retlw	4
  1884     0A6B  3418               	retlw	24
  1885     0A6C  3404               	retlw	4
  1886     0A6D  3478               	retlw	120
  1887     0A6E  3400               	retlw	0
  1888     0A6F  3400               	retlw	0
  1889     0A70  3400               	retlw	0
  1890     0A71  347C               	retlw	124
  1891     0A72  3408               	retlw	8
  1892     0A73  3404               	retlw	4
  1893     0A74  347C               	retlw	124
  1894     0A75  3400               	retlw	0
  1895     0A76  3400               	retlw	0
  1896     0A77  3400               	retlw	0
  1897     0A78  3400               	retlw	0
  1898     0A79  3438               	retlw	56
  1899     0A7A  3444               	retlw	68
  1900     0A7B  3444               	retlw	68
  1901     0A7C  3438               	retlw	56
  1902     0A7D  3400               	retlw	0
  1903     0A7E  3400               	retlw	0
  1904     0A7F  3400               	retlw	0
  1905     0A80  3400               	retlw	0
  1906     0A81  34FC               	retlw	252
  1907     0A82  3424               	retlw	36
  1908     0A83  3424               	retlw	36
  1909     0A84  3418               	retlw	24
  1910     0A85  3400               	retlw	0
  1911     0A86  3400               	retlw	0
  1912     0A87  3400               	retlw	0
  1913     0A88  3400               	retlw	0
  1914     0A89  3418               	retlw	24
  1915     0A8A  3424               	retlw	36
  1916     0A8B  3424               	retlw	36
  1917     0A8C  34FC               	retlw	252
  1918     0A8D  3400               	retlw	0
  1919     0A8E  3400               	retlw	0
  1920     0A8F  3400               	retlw	0
  1921     0A90  3400               	retlw	0
  1922     0A91  3400               	retlw	0
  1923     0A92  347C               	retlw	124
  1924     0A93  3408               	retlw	8
  1925     0A94  3404               	retlw	4
  1926     0A95  3400               	retlw	0
  1927     0A96  3400               	retlw	0
  1928     0A97  3400               	retlw	0
  1929     0A98  3400               	retlw	0
  1930     0A99  3448               	retlw	72
  1931     0A9A  3454               	retlw	84
  1932     0A9B  3454               	retlw	84
  1933     0A9C  3424               	retlw	36
  1934     0A9D  3400               	retlw	0
  1935     0A9E  3400               	retlw	0
  1936     0A9F  3400               	retlw	0
  1937     0AA0  3400               	retlw	0
  1938     0AA1  3404               	retlw	4
  1939     0AA2  347F               	retlw	127
  1940     0AA3  3444               	retlw	68
  1941     0AA4  3400               	retlw	0
  1942     0AA5  3400               	retlw	0
  1943     0AA6  3400               	retlw	0
  1944     0AA7  3400               	retlw	0
  1945     0AA8  3400               	retlw	0
  1946     0AA9  343C               	retlw	60
  1947     0AAA  3440               	retlw	64
  1948     0AAB  3440               	retlw	64
  1949     0AAC  347C               	retlw	124
  1950     0AAD  3400               	retlw	0
  1951     0AAE  3400               	retlw	0
  1952     0AAF  3400               	retlw	0
  1953     0AB0  3400               	retlw	0
  1954     0AB1  341C               	retlw	28
  1955     0AB2  3420               	retlw	32
  1956     0AB3  3440               	retlw	64
  1957     0AB4  3420               	retlw	32
  1958     0AB5  341C               	retlw	28
  1959     0AB6  3400               	retlw	0
  1960     0AB7  3400               	retlw	0
  1961     0AB8  3400               	retlw	0
  1962     0AB9  343C               	retlw	60
  1963     0ABA  3440               	retlw	64
  1964     0ABB  3430               	retlw	48
  1965     0ABC  3440               	retlw	64
  1966     0ABD  343C               	retlw	60
  1967     0ABE  3400               	retlw	0
  1968     0ABF  3400               	retlw	0
  1969     0AC0  3400               	retlw	0
  1970     0AC1  3444               	retlw	68
  1971     0AC2  3428               	retlw	40
  1972     0AC3  3410               	retlw	16
  1973     0AC4  3428               	retlw	40
  1974     0AC5  3444               	retlw	68
  1975     0AC6  3400               	retlw	0
  1976     0AC7  3400               	retlw	0
  1977     0AC8  3400               	retlw	0
  1978     0AC9  341C               	retlw	28
  1979     0ACA  34A0               	retlw	160
  1980     0ACB  34A0               	retlw	160
  1981     0ACC  347C               	retlw	124
  1982     0ACD  3400               	retlw	0
  1983     0ACE  3400               	retlw	0
  1984     0ACF  3400               	retlw	0
  1985     0AD0  3400               	retlw	0
  1986     0AD1  3444               	retlw	68
  1987     0AD2  3464               	retlw	100
  1988     0AD3  3454               	retlw	84
  1989     0AD4  344C               	retlw	76
  1990     0AD5  3444               	retlw	68
  1991     0AD6  3400               	retlw	0
  1992     0AD7  3400               	retlw	0
  1993     0AD8  3400               	retlw	0
  1994     0AD9  3408               	retlw	8
  1995     0ADA  3436               	retlw	54
  1996     0ADB  3441               	retlw	65
  1997     0ADC  3400               	retlw	0
  1998     0ADD  3400               	retlw	0
  1999     0ADE  3400               	retlw	0
  2000     0ADF  3400               	retlw	0
  2001     0AE0  3400               	retlw	0
  2002     0AE1  3400               	retlw	0
  2003     0AE2  347F               	retlw	127
  2004     0AE3  3400               	retlw	0
  2005     0AE4  3400               	retlw	0
  2006     0AE5  3400               	retlw	0
  2007     0AE6  3400               	retlw	0
  2008     0AE7  3400               	retlw	0
  2009     0AE8  3400               	retlw	0
  2010     0AE9  3441               	retlw	65
  2011     0AEA  3436               	retlw	54
  2012     0AEB  3408               	retlw	8
  2013     0AEC  3400               	retlw	0
  2014     0AED  3400               	retlw	0
  2015     0AEE  3400               	retlw	0
  2016     0AEF  3400               	retlw	0
  2017     0AF0  3400               	retlw	0
  2018     0AF1  3402               	retlw	2
  2019     0AF2  3401               	retlw	1
  2020     0AF3  3401               	retlw	1
  2021     0AF4  3402               	retlw	2
  2022     0AF5  3401               	retlw	1
  2023     0AF6  3400               	retlw	0
  2024     0AF7  3400               	retlw	0
  2025     0AF8  3400               	retlw	0
  2026     0AF9  3402               	retlw	2
  2027     0AFA  3405               	retlw	5
  2028     0AFB  3405               	retlw	5
  2029     0AFC  3402               	retlw	2
  2030     0AFD  3400               	retlw	0
  2031     0AFE  3400               	retlw	0
  2032     0AFF  3400               	retlw	0
  2033     0B00                     __end_of_OledFont:
  2034     0012                     _PIR2bits	set	18
  2035     0011                     _PIR1bits	set	17
  2036     008E                     _TRISCbits	set	142
  2037     04CF                     _SPLLEN	set	1231
  2038     04CE                     _IRCF3	set	1230
  2039     04CD                     _IRCF2	set	1229
  2040     04CC                     _IRCF1	set	1228
  2041     04CB                     _IRCF0	set	1227
  2042     04C9                     _SCS1	set	1225
  2043     04C8                     _SCS0	set	1224
  2044     018E                     _ANSELCbits	set	398
  2045     0211                     _SSPBUF	set	529
  2046     0216                     _SSPCON2bits	set	534
  2047     0214                     _SSPSTATbits	set	532
  2048     0216                     _SSPCON2	set	534
  2049     0215                     _SSPCON1bits	set	533
  2050     0212                     _SSPADD	set	530
  2051     0215                     _SSPCONbits	set	533
  2052     0E20                     _SSPCLKPPSbits	set	3616
  2053     0E21                     _SSPDATPPSbits	set	3617
  2054     0E24                     _RXPPSbits	set	3620
  2055     0E0F                     _PPSLOCKbits	set	3599
  2056     0E0F                     _PPSLOCK	set	3599
  2057     0EA5                     _RC5PPSbits	set	3749
  2058     0EA4                     _RC4PPSbits	set	3748
  2059     0E9A                     _RB2PPSbits	set	3738
  2060     0B00                     STR_1:
  2061     0B00  3448               	retlw	72	;'H'
  2062     0B01  3465               	retlw	101	;'e'
  2063     0B02  346C               	retlw	108	;'l'
  2064     0B03  346C               	retlw	108	;'l'
  2065     0B04  346F               	retlw	111	;'o'
  2066     0B05  342C               	retlw	44	;','
  2067     0B06  3420               	retlw	32	;' '
  2068     0B07  3477               	retlw	119	;'w'
  2069     0B08  346F               	retlw	111	;'o'
  2070     0B09  3472               	retlw	114	;'r'
  2071     0B0A  346C               	retlw	108	;'l'
  2072     0B0B  3464               	retlw	100	;'d'
  2073     0B0C  3421               	retlw	33	;'!'
  2074     0B0D  3400               	retlw	0
  2075                           
  2076                           	psect	stringtext3
  2077     1000                     __pstringtext3:
  2078     1000                     STR_2:
  2079     1000  3450               	retlw	80	;'P'
  2080     1001  3449               	retlw	73	;'I'
  2081     1002  3443               	retlw	67	;'C'
  2082     1003  3431               	retlw	49	;'1'
  2083     1004  3436               	retlw	54	;'6'
  2084     1005  3446               	retlw	70	;'F'
  2085     1006  3431               	retlw	49	;'1'
  2086     1007  3437               	retlw	55	;'7'
  2087     1008  3431               	retlw	49	;'1'
  2088     1009  3438               	retlw	56	;'8'
  2089     100A  3400               	retlw	0
  2090                           
  2091                           	psect	stringtext4
  2092     100B                     __pstringtext4:
  2093     100B                     STR_3:
  2094     100B  3443               	retlw	67	;'C'
  2095     100C  346F               	retlw	111	;'o'
  2096     100D  3475               	retlw	117	;'u'
  2097     100E  346E               	retlw	110	;'n'
  2098     100F  3474               	retlw	116	;'t'
  2099     1010  343A               	retlw	58	;':'
  2100     1011  3420               	retlw	32	;' '
  2101     1012  3425               	retlw	37	;'%'
  2102     1013  346C               	retlw	108	;'l'
  2103     1014  3475               	retlw	117	;'u'
  2104     1015  3400               	retlw	0
  2105                           
  2106                           	psect	stringtext5
  2107     0000                     __pstringtext5:
  2108                           
  2109                           	psect	cinit
  2110     07F2                     start_initialization:	
  2111                           ; #config settings
  2112                           
  2113     07F2                     __initialization:	;BIGRAM
  2114                           
  2115                           ; Clear objects allocated to BIGRAM
  2116     07F2  30F0               	movlw	low (0+9456)
  2117     07F3  0084               	movwf	4
  2118     07F4  3024               	movlw	high (0+9456)
  2119     07F5  0085               	movwf	5
  2120     07F6  3000               	movlw	0
  2121     07F7  00FE               	movwf	btemp
  2122     07F8  3003               	movlw	3
  2123     07F9  00FF               	movwf	btemp+1
  2124     07FA  318C  241B  3187   	fcall	clear_ram0
  2125     07FD                     end_of_initialization:	
  2126                           ;End of C runtime variable initialization code
  2127                           
  2128     07FD                     __end_of__initialization:
  2129     07FD  0020               	movlb	0
  2130     07FE  3181  29F9         	ljmp	_main	;jump to C main() function
  2131                           
  2132                           	psect	clrtext
  2133     0C1B                     clear_ram0:	
  2134                           ;	Called with FSR0 containing the base address, and
  2135                           ;	btemp/btemp+1 has the size to clear
  2136                           
  2137     0C1B  0064               	clrwdt	;clear the watchdog before getting into this loop
  2138     0C1C                     clrloop0:
  2139     0C1C  0180               	clrf	0	;clear RAM location pointed to by FSR
  2140     0C1D  3101               	addfsr 0,1
  2141     0C1E  3001               	movlw	1
  2142     0C1F  02FE               	subwf	btemp,f
  2143     0C20  3000               	movlw	0
  2144     0C21  3BFF               	subwfb	btemp+1,f
  2145     0C22  087F               	movf	btemp+1,w
  2146     0C23  047E               	iorwf	btemp,w
  2147     0C24  1D03               	skipz
  2148     0C25  2C1C               	goto	clrloop0	;have we reached the end yet?
  2149     0C26  3400               	retlw	0	;all done for this memory range, return
  2150                           
  2151                           	psect	cstackBANK1
  2152     00A0                     __pcstackBANK1:
  2153     00A0                     OLED_Printf_Line@temp:
  2154                           
  2155                           ; 6 bytes @ 0x0
  2156     00A0                     	ds	6
  2157     00A6                     OLED_Printf_Line@temp_531:
  2158                           
  2159                           ; 6 bytes @ 0x6
  2160     00A6                     	ds	6
  2161     00AC                     OLED_Printf_Line@temp_534:
  2162                           
  2163                           ; 5 bytes @ 0xC
  2164     00AC                     	ds	5
  2165     00B1                     OLED_Printf_Line@val_533:
  2166                           
  2167                           ; 2 bytes @ 0x11
  2168     00B1                     	ds	2
  2169     00B3                     OLED_Printf_Line@str:
  2170                           
  2171                           ; 1 bytes @ 0x13
  2172     00B3                     	ds	1
  2173     00B4                     OLED_Printf_Line@col:
  2174                           
  2175                           ; 1 bytes @ 0x14
  2176     00B4                     	ds	1
  2177     00B5                     OLED_Printf_Line@p:
  2178                           
  2179                           ; 1 bytes @ 0x15
  2180     00B5                     	ds	1
  2181     00B6                     OLED_Printf_Line@val_524:
  2182                           
  2183                           ; 4 bytes @ 0x16
  2184     00B6                     	ds	4
  2185     00BA                     OLED_Printf_Line@val_530:
  2186                           
  2187                           ; 2 bytes @ 0x1A
  2188     00BA                     	ds	2
  2189     00BC                     OLED_Printf_Line@nibble:
  2190                           
  2191                           ; 1 bytes @ 0x1C
  2192     00BC                     	ds	1
  2193     00BD                     OLED_Printf_Line@ch:
  2194                           
  2195                           ; 1 bytes @ 0x1D
  2196     00BD                     	ds	1
  2197     00BE                     OLED_Printf_Line@i:
  2198                           
  2199                           ; 1 bytes @ 0x1E
  2200     00BE                     	ds	1
  2201     00BF                     OLED_Printf_Line@i_526:
  2202                           
  2203                           ; 1 bytes @ 0x1F
  2204     00BF                     	ds	1
  2205     00C0                     OLED_Printf_Line@i_529:
  2206                           
  2207                           ; 1 bytes @ 0x20
  2208     00C0                     	ds	1
  2209     00C1                     OLED_Printf_Line@i_532:
  2210                           
  2211                           ; 1 bytes @ 0x21
  2212     00C1                     	ds	1
  2213     00C2                     OLED_Printf_Line@i_535:
  2214                           
  2215                           ; 1 bytes @ 0x22
  2216     00C2                     	ds	1
  2217     00C3                     OLED_Printf_Line@val_527:
  2218                           
  2219                           ; 4 bytes @ 0x23
  2220     00C3                     	ds	4
  2221     00C7                     OLED_Printf_Line@val:
  2222                           
  2223                           ; 2 bytes @ 0x27
  2224     00C7                     	ds	2
  2225     00C9                     OLED_Printf_Line@line:
  2226                           
  2227                           ; 1 bytes @ 0x29
  2228     00C9                     	ds	1
  2229     00CA                     OLED_Printf_Line@ap:
  2230                           
  2231                           ; 1 bytes @ 0x2A
  2232     00CA                     	ds	1
  2233     00CB                     OLED_Printf_Line@src:
  2234                           
  2235                           ; 2 bytes @ 0x2B
  2236     00CB                     	ds	2
  2237     00CD                     OLED_Printf_Line@dst:
  2238                           
  2239                           ; 1 bytes @ 0x2D
  2240     00CD                     	ds	1
  2241     00CE                     ??_main:
  2242                           
  2243                           ; 1 bytes @ 0x2E
  2244     00CE                     	ds	2
  2245     00D0                     main@counter:
  2246                           
  2247                           ; 4 bytes @ 0x30
  2248     00D0                     	ds	4
  2249     00D4                     main@battery:
  2250                           
  2251                           ; 1 bytes @ 0x34
  2252     00D4                     	ds	1
  2253                           
  2254                           	psect	cstackCOMMON
  2255     0070                     __pcstackCOMMON:
  2256     0070                     ?_I2C_ClearErrors:
  2257     0070                     ??_I2C_ClearErrors:	
  2258                           ; 1 bytes @ 0x0
  2259                           
  2260     0070                     ?_OLED_Init:	
  2261                           ; 1 bytes @ 0x0
  2262                           
  2263     0070                     ?_OLED_SetOrientation:	
  2264                           ; 1 bytes @ 0x0
  2265                           
  2266     0070                     ?_OLED_Clear:	
  2267                           ; 1 bytes @ 0x0
  2268                           
  2269     0070                     ?_OLED_UpdateLine:	
  2270                           ; 1 bytes @ 0x0
  2271                           
  2272     0070                     ?_I2C_WaitIF:	
  2273                           ; 1 bytes @ 0x0
  2274                           
  2275     0070                     ?_I2C_Init:	
  2276                           ; 1 bytes @ 0x0
  2277                           
  2278     0070                     ??_I2C_Init:	
  2279                           ; 1 bytes @ 0x0
  2280                           
  2281     0070                     ?_I2C_WaitIdle:	
  2282                           ; 1 bytes @ 0x0
  2283                           
  2284     0070                     ?_I2C_Start:	
  2285                           ; 1 bytes @ 0x0
  2286                           
  2287     0070                     ?_I2C_Stop:	
  2288                           ; 1 bytes @ 0x0
  2289                           
  2290     0070                     ?_I2C_WriteByte:	
  2291                           ; 1 bytes @ 0x0
  2292                           
  2293     0070                     ?_internal_32:	
  2294                           ; 1 bytes @ 0x0
  2295                           
  2296     0070                     ??_internal_32:	
  2297                           ; 1 bytes @ 0x0
  2298                           
  2299     0070                     ?_initMain:	
  2300                           ; 1 bytes @ 0x0
  2301                           
  2302     0070                     ??_initMain:	
  2303                           ; 1 bytes @ 0x0
  2304                           
  2305     0070                     ?_main:	
  2306                           ; 1 bytes @ 0x0
  2307                           
  2308     0070                     ?_SSD1306_CtrlW:	
  2309                           ; 1 bytes @ 0x0
  2310                           
  2311     0070                     ??_SSD1306_CtrlW:	
  2312                           ; 1 bytes @ 0x0
  2313                           
  2314     0070                     ?_OLED_Command:	
  2315                           ; 1 bytes @ 0x0
  2316                           
  2317     0070                     ?_memset:	
  2318                           ; 1 bytes @ 0x0
  2319                           
  2320     0070                     ?_strcmp:	
  2321                           ; 2 bytes @ 0x0
  2322                           
  2323     0070                     ?_strcpy:	
  2324                           ; 2 bytes @ 0x0
  2325                           
  2326     0070                     ?_memcpy:	
  2327                           ; 2 bytes @ 0x0
  2328                           
  2329     0070                     ?___wmul:	
  2330                           ; 2 bytes @ 0x0
  2331                           
  2332     0070                     ?___awmod:	
  2333                           ; 2 bytes @ 0x0
  2334                           
  2335     0070                     ?___lwdiv:	
  2336                           ; 2 bytes @ 0x0
  2337                           
  2338     0070                     ?___lwmod:	
  2339                           ; 2 bytes @ 0x0
  2340                           
  2341     0070                     ?___lldiv:	
  2342                           ; 2 bytes @ 0x0
  2343                           
  2344     0070                     ?___aldiv:	
  2345                           ; 4 bytes @ 0x0
  2346                           
  2347     0070                     ?___almod:	
  2348                           ; 4 bytes @ 0x0
  2349                           
  2350     0070                     ?___llmod:	
  2351                           ; 4 bytes @ 0x0
  2352                           
  2353     0070                     I2C_WaitIF@timeout_ms:	
  2354                           ; 4 bytes @ 0x0
  2355                           
  2356     0070                     I2C_WaitIdle@timeout_ms:	
  2357                           ; 2 bytes @ 0x0
  2358                           
  2359     0070                     ___wmul@multiplier:	
  2360                           ; 2 bytes @ 0x0
  2361                           
  2362     0070                     ___awmod@divisor:	
  2363                           ; 2 bytes @ 0x0
  2364                           
  2365     0070                     ___lwdiv@divisor:	
  2366                           ; 2 bytes @ 0x0
  2367                           
  2368     0070                     ___lwmod@divisor:	
  2369                           ; 2 bytes @ 0x0
  2370                           
  2371     0070                     memcpy@d1:	
  2372                           ; 2 bytes @ 0x0
  2373                           
  2374     0070                     memset@dest:	
  2375                           ; 2 bytes @ 0x0
  2376                           
  2377     0070                     strcmp@r:	
  2378                           ; 2 bytes @ 0x0
  2379                           
  2380     0070                     strcpy@dest:	
  2381                           ; 2 bytes @ 0x0
  2382                           
  2383     0070                     ___lldiv@divisor:	
  2384                           ; 2 bytes @ 0x0
  2385                           
  2386     0070                     ___aldiv@divisor:	
  2387                           ; 4 bytes @ 0x0
  2388                           
  2389     0070                     ___almod@divisor:	
  2390                           ; 4 bytes @ 0x0
  2391                           
  2392     0070                     ___llmod@divisor:	
  2393                           ; 4 bytes @ 0x0
  2394                           
  2395                           
  2396                           ; 4 bytes @ 0x0
  2397     0070                     	ds	2
  2398     0072                     ??_strcmp:
  2399     0072                     ??_I2C_WaitIF:	
  2400                           ; 1 bytes @ 0x2
  2401                           
  2402     0072                     ??_I2C_WaitIdle:	
  2403                           ; 1 bytes @ 0x2
  2404                           
  2405     0072                     strcpy@src:	
  2406                           ; 1 bytes @ 0x2
  2407                           
  2408     0072                     ___wmul@multiplicand:	
  2409                           ; 1 bytes @ 0x2
  2410                           
  2411     0072                     ___awmod@dividend:	
  2412                           ; 2 bytes @ 0x2
  2413                           
  2414     0072                     ___lwdiv@dividend:	
  2415                           ; 2 bytes @ 0x2
  2416                           
  2417     0072                     ___lwmod@dividend:	
  2418                           ; 2 bytes @ 0x2
  2419                           
  2420     0072                     memcpy@s1:	
  2421                           ; 2 bytes @ 0x2
  2422                           
  2423     0072                     memset@c:	
  2424                           ; 2 bytes @ 0x2
  2425                           
  2426                           
  2427                           ; 2 bytes @ 0x2
  2428     0072                     	ds	1
  2429     0073                     ??_strcpy:
  2430     0073                     ??_I2C_Start:	
  2431                           ; 1 bytes @ 0x3
  2432                           
  2433     0073                     ??_I2C_Stop:	
  2434                           ; 1 bytes @ 0x3
  2435                           
  2436     0073                     ??_I2C_WriteByte:	
  2437                           ; 1 bytes @ 0x3
  2438                           
  2439     0073                     I2C_Start@st:	
  2440                           ; 1 bytes @ 0x3
  2441                           
  2442     0073                     I2C_Stop@st:	
  2443                           ; 1 bytes @ 0x3
  2444                           
  2445     0073                     I2C_WriteByte@data:	
  2446                           ; 1 bytes @ 0x3
  2447                           
  2448     0073                     strcmp@l:	
  2449                           ; 1 bytes @ 0x3
  2450                           
  2451                           
  2452                           ; 1 bytes @ 0x3
  2453     0073                     	ds	1
  2454     0074                     ??___wmul:
  2455     0074                     ??___awmod:	
  2456                           ; 1 bytes @ 0x4
  2457                           
  2458     0074                     ??___lwdiv:	
  2459                           ; 1 bytes @ 0x4
  2460                           
  2461     0074                     ??___lwmod:	
  2462                           ; 1 bytes @ 0x4
  2463                           
  2464     0074                     I2C_WriteByte@st:	
  2465                           ; 1 bytes @ 0x4
  2466                           
  2467     0074                     ___wmul@product:	
  2468                           ; 1 bytes @ 0x4
  2469                           
  2470     0074                     memcpy@n:	
  2471                           ; 2 bytes @ 0x4
  2472                           
  2473     0074                     memset@n:	
  2474                           ; 2 bytes @ 0x4
  2475                           
  2476     0074                     ___lldiv@dividend:	
  2477                           ; 2 bytes @ 0x4
  2478                           
  2479     0074                     ___aldiv@dividend:	
  2480                           ; 4 bytes @ 0x4
  2481                           
  2482     0074                     ___almod@dividend:	
  2483                           ; 4 bytes @ 0x4
  2484                           
  2485     0074                     ___llmod@dividend:	
  2486                           ; 4 bytes @ 0x4
  2487                           
  2488                           
  2489                           ; 4 bytes @ 0x4
  2490     0074                     	ds	1
  2491     0075                     ??_OLED_Command:
  2492     0075                     ?_OLED_WriteData:	
  2493                           ; 1 bytes @ 0x5
  2494                           
  2495     0075                     OLED_Command@cmd:	
  2496                           ; 1 bytes @ 0x5
  2497                           
  2498     0075                     ___awmod@counter:	
  2499                           ; 1 bytes @ 0x5
  2500                           
  2501     0075                     ___lwmod@counter:	
  2502                           ; 1 bytes @ 0x5
  2503                           
  2504     0075                     OLED_WriteData@data:	
  2505                           ; 1 bytes @ 0x5
  2506                           
  2507     0075                     ___lwdiv@quotient:	
  2508                           ; 2 bytes @ 0x5
  2509                           
  2510     0075                     strcpy@d:	
  2511                           ; 2 bytes @ 0x5
  2512                           
  2513                           
  2514                           ; 2 bytes @ 0x5
  2515     0075                     	ds	1
  2516     0076                     ??_memset:
  2517     0076                     ??_memcpy:	
  2518                           ; 1 bytes @ 0x6
  2519                           
  2520     0076                     ?___awdiv:	
  2521                           ; 1 bytes @ 0x6
  2522                           
  2523     0076                     OLED_Command@st:	
  2524                           ; 2 bytes @ 0x6
  2525                           
  2526     0076                     ___awmod@sign:	
  2527                           ; 1 bytes @ 0x6
  2528                           
  2529     0076                     ___awdiv@divisor:	
  2530                           ; 1 bytes @ 0x6
  2531                           
  2532     0076                     memcpy@d:	
  2533                           ; 2 bytes @ 0x6
  2534                           
  2535     0076                     memset@p:	
  2536                           ; 2 bytes @ 0x6
  2537                           
  2538                           
  2539                           ; 2 bytes @ 0x6
  2540     0076                     	ds	1
  2541     0077                     ??_OLED_SetOrientation:
  2542     0077                     ?_OLED_YX:	
  2543                           ; 1 bytes @ 0x7
  2544                           
  2545     0077                     OLED_YX@col_char:	
  2546                           ; 1 bytes @ 0x7
  2547                           
  2548     0077                     ___lwdiv@counter:	
  2549                           ; 1 bytes @ 0x7
  2550                           
  2551     0077                     OLED_WriteData@len:	
  2552                           ; 1 bytes @ 0x7
  2553                           
  2554                           
  2555                           ; 2 bytes @ 0x7
  2556     0077                     	ds	1
  2557     0078                     ??_OLED_YX:
  2558     0078                     ??___lldiv:	
  2559                           ; 1 bytes @ 0x8
  2560                           
  2561     0078                     ??___aldiv:	
  2562                           ; 1 bytes @ 0x8
  2563                           
  2564     0078                     ??___almod:	
  2565                           ; 1 bytes @ 0x8
  2566                           
  2567     0078                     ??___llmod:	
  2568                           ; 1 bytes @ 0x8
  2569                           
  2570     0078                     ___awdiv@dividend:	
  2571                           ; 1 bytes @ 0x8
  2572                           
  2573     0078                     memcpy@s:	
  2574                           ; 2 bytes @ 0x8
  2575                           
  2576                           
  2577                           ; 2 bytes @ 0x8
  2578     0078                     	ds	1
  2579     0079                     ??_OLED_WriteData:
  2580     0079                     OLED_SetOrientation@o:	
  2581                           ; 1 bytes @ 0x9
  2582                           
  2583     0079                     OLED_YX@page:	
  2584                           ; 1 bytes @ 0x9
  2585                           
  2586     0079                     ___almod@counter:	
  2587                           ; 1 bytes @ 0x9
  2588                           
  2589     0079                     ___llmod@counter:	
  2590                           ; 1 bytes @ 0x9
  2591                           
  2592     0079                     OLED_WriteData@i:	
  2593                           ; 1 bytes @ 0x9
  2594                           
  2595     0079                     ___lldiv@quotient:	
  2596                           ; 2 bytes @ 0x9
  2597                           
  2598                           
  2599                           ; 4 bytes @ 0x9
  2600     0079                     	ds	1
  2601     007A                     ??___awdiv:
  2602     007A                     OLED_YX@col:	
  2603                           ; 1 bytes @ 0xA
  2604                           
  2605     007A                     ___almod@sign:	
  2606                           ; 1 bytes @ 0xA
  2607                           
  2608     007A                     memcpy@tmp:	
  2609                           ; 1 bytes @ 0xA
  2610                           
  2611                           
  2612                           ; 1 bytes @ 0xA
  2613     007A                     	ds	1
  2614     007B                     OLED_WriteData@st:
  2615                           
  2616                           ; 1 bytes @ 0xB
  2617     007B                     	ds	1
  2618     007C                     OLED_Clear@p:
  2619     007C                     OLED_UpdateLine@page:	
  2620                           ; 1 bytes @ 0xC
  2621                           
  2622                           
  2623                           ; 1 bytes @ 0xC
  2624     007C                     	ds	1
  2625     007D                     ??_OLED_Init:
  2626     007D                     ___lldiv@counter:	
  2627                           ; 1 bytes @ 0xD
  2628                           
  2629                           
  2630                           ; 1 bytes @ 0xD
  2631     007D                     	ds	1
  2632                           
  2633                           	psect	cstackBANK0
  2634     0020                     __pcstackBANK0:
  2635     0020                     ??_OLED_Clear:
  2636     0020                     ??_OLED_UpdateLine:	
  2637                           ; 1 bytes @ 0x0
  2638                           
  2639     0020                     ___aldiv@counter:	
  2640                           ; 1 bytes @ 0x0
  2641                           
  2642     0020                     ___awdiv@counter:	
  2643                           ; 1 bytes @ 0x0
  2644                           
  2645                           
  2646                           ; 1 bytes @ 0x0
  2647     0020                     	ds	1
  2648     0021                     ___aldiv@sign:
  2649     0021                     ___awdiv@sign:	
  2650                           ; 1 bytes @ 0x1
  2651                           
  2652                           
  2653                           ; 1 bytes @ 0x1
  2654     0021                     	ds	1
  2655     0022                     ___awdiv@quotient:
  2656     0022                     ___aldiv@quotient:	
  2657                           ; 2 bytes @ 0x2
  2658                           
  2659                           
  2660                           ; 4 bytes @ 0x2
  2661     0022                     	ds	2
  2662     0024                     ?_OLED_DrawBattery:
  2663     0024                     OLED_DrawBattery@x:	
  2664                           ; 1 bytes @ 0x4
  2665                           
  2666                           
  2667                           ; 1 bytes @ 0x4
  2668     0024                     	ds	1
  2669     0025                     OLED_DrawBattery@page:
  2670                           
  2671                           ; 1 bytes @ 0x5
  2672     0025                     	ds	1
  2673     0026                     ?_OLED_Printf_Line:
  2674     0026                     ??_OLED_DrawBattery:	
  2675                           ; 1 bytes @ 0x6
  2676                           
  2677     0026                     OLED_Printf_Line@fmt:	
  2678                           ; 1 bytes @ 0x6
  2679                           
  2680                           
  2681                           ; 2 bytes @ 0x6
  2682     0026                     	ds	6
  2683     002C                     ??_OLED_Printf_Line:
  2684                           
  2685                           ; 1 bytes @ 0xC
  2686     002C                     	ds	9
  2687     0035                     OLED_DrawBattery@fill_w:
  2688                           
  2689                           ; 1 bytes @ 0x15
  2690     0035                     	ds	1
  2691     0036                     OLED_DrawBattery@percentage:
  2692                           
  2693                           ; 1 bytes @ 0x16
  2694     0036                     	ds	1
  2695     0037                     OLED_DrawBattery@i:
  2696                           
  2697                           ; 1 bytes @ 0x17
  2698     0037                     	ds	1
  2699     0038                     OLED_DrawBattery@i_548:
  2700     0038                     OLED_Printf_Line@temp_525:	
  2701                           ; 1 bytes @ 0x18
  2702                           
  2703                           
  2704                           ; 11 bytes @ 0x18
  2705     0038                     	ds	11
  2706     0043                     OLED_Printf_Line@temp_528:
  2707                           
  2708                           ; 11 bytes @ 0x23
  2709     0043                     	ds	11
  2710     004E                     OLED_Printf_Line@buf:
  2711                           
  2712                           ; 32 bytes @ 0x2E
  2713     004E                     	ds	32
  2714     006E                     _OLED_Printf_Line$537:
  2715                           
  2716                           ; 2 bytes @ 0x4E
  2717     006E                     	ds	2
  2718                           
  2719                           	psect	maintext
  2720     01F9                     __pmaintext:	
  2721 ;;
  2722 ;;Main: autosize = 0, tempsize = 2, incstack = 0, save=0
  2723 ;;
  2724 ;; *************** function _main *****************
  2725 ;; Defined at:
  2726 ;;		line 63 in file "main.c"
  2727 ;; Parameters:    Size  Location     Type
  2728 ;;		None
  2729 ;; Auto vars:     Size  Location     Type
  2730 ;;  counter         4   48[BANK1 ] unsigned long 
  2731 ;;  battery         1   52[BANK1 ] unsigned char 
  2732 ;; Return value:  Size  Location     Type
  2733 ;;                  1    wreg      void 
  2734 ;; Registers used:
  2735 ;;		wreg, fsr0l, fsr0h, fsr1l, fsr1h, status,2, status,0, pclath, cstack
  2736 ;; Tracked objects:
  2737 ;;		On entry : B1F/0
  2738 ;;		On exit  : 0/0
  2739 ;;		Unchanged: 0/0
  2740 ;; Data sizes:     COMMON   BANK0   BANK1   BANK2   BANK3   BANK4   BANK5   BANK6   BANK7   BANK8   BANK9  BANK10  BANK1
      +1  BANK12  BANK13  BANK14  BANK15  BANK16  BANK17  BANK18  BANK19  BANK20  BANK21  BANK22  BANK23  BANK24  BANK25
  2741 ;;      Params:         0       0       0       0       0       0       0       0       0       0       0       0       
      +0       0       0       0       0       0       0       0       0       0       0       0       0       0       0
  2742 ;;      Locals:         0       0       5       0       0       0       0       0       0       0       0       0       
      +0       0       0       0       0       0       0       0       0       0       0       0       0       0       0
  2743 ;;      Temps:          0       0       2       0       0       0       0       0       0       0       0       0       
      +0       0       0       0       0       0       0       0       0       0       0       0       0       0       0
  2744 ;;      Totals:         0       0       7       0       0       0       0       0       0       0       0       0       
      +0       0       0       0       0       0       0       0       0       0       0       0       0       0       0
  2745 ;;Total ram usage:        7 bytes
  2746 ;; Hardware stack levels required when called: 6
  2747 ;; This function calls:
  2748 ;;		_I2C_Init
  2749 ;;		_OLED_Clear
  2750 ;;		_OLED_DrawBattery
  2751 ;;		_OLED_Init
  2752 ;;		_OLED_Printf_Line
  2753 ;;		_OLED_SetOrientation
  2754 ;;		_OLED_UpdateLine
  2755 ;;		_initMain
  2756 ;; This function is called by:
  2757 ;;		Startup code after reset
  2758 ;; This function uses a non-reentrant model
  2759 ;;
  2760                           
  2761     01F9                     _main:	
  2762                           ;psect for function _main
  2763                           
  2764     01F9                     l2857:	
  2765                           ;incstack = 0
  2766                           ; Regs used in _main: [wreg-fsr1h+status,2+status,0+pclath+cstack]
  2767                           
  2768                           
  2769                           ;main.c: 65:     initMain();
  2770     01F9  318E  2690  3181   	fcall	_initMain
  2771                           
  2772                           ;main.c: 66:     I2C_Init();
  2773     01FC  318C  2427  3181   	fcall	_I2C_Init
  2774     01FF                     l2859:
  2775                           
  2776                           ;main.c: 68:     OLED_Init();
  2777     01FF  3181  210A  3181   	fcall	_OLED_Init
  2778     0202                     l2861:
  2779                           
  2780                           ;main.c: 69:     OLED_SetOrientation(OLED_ORIENT_0);
  2781     0202  3000               	movlw	0
  2782     0203  318E  26CF  3181   	fcall	_OLED_SetOrientation
  2783     0206                     l2863:
  2784                           
  2785                           ;main.c: 70:     OLED_Clear();
  2786     0206  318F  2710  3181   	fcall	_OLED_Clear
  2787     0209                     l2865:
  2788                           
  2789                           ;main.c: 72:     uint32_t counter = 0;
  2790     0209  3000               	movlw	0
  2791     020A  0021               	movlb	1	; select bank1
  2792     020B  00D3               	movwf	(main@counter+3)^(0+128)
  2793     020C  3000               	movlw	0
  2794     020D  00D2               	movwf	(main@counter+2)^(0+128)
  2795     020E  3000               	movlw	0
  2796     020F  00D1               	movwf	(main@counter+1)^(0+128)
  2797     0210  3000               	movlw	0
  2798     0211  00D0               	movwf	main@counter^(0+128)
  2799     0212                     l2867:
  2800                           
  2801                           ;main.c: 73:     uint8_t battery = 100;
  2802     0212  3064               	movlw	100
  2803     0213  00D4               	movwf	main@battery^(0+128)
  2804     0214                     l2869:
  2805                           
  2806                           ;main.c: 76:     OLED_Printf_Line(2, "Hello, world!");
  2807     0214  3000               	movlw	low (STR_1| (0+32768))
  2808     0215  0020               	movlb	0	; select bank0
  2809     0216  00A6               	movwf	OLED_Printf_Line@fmt
  2810     0217  308B               	movlw	high (STR_1| (0+32768))
  2811     0218  00A7               	movwf	OLED_Printf_Line@fmt+1
  2812     0219  3002               	movlw	2
  2813     021A  3183  23DE  3181   	fcall	_OLED_Printf_Line
  2814     021D                     l2871:
  2815                           
  2816                           ;main.c: 79:     {;main.c: 81:         OLED_Printf_Line(0, "PIC16F1718");
  2817     021D  3000               	movlw	low (STR_2| (0+32768))
  2818     021E  0020               	movlb	0	; select bank0
  2819     021F  00A6               	movwf	OLED_Printf_Line@fmt
  2820     0220  3090               	movlw	high (STR_2| (0+32768))
  2821     0221  00A7               	movwf	OLED_Printf_Line@fmt+1
  2822     0222  3000               	movlw	0
  2823     0223  3183  23DE  3181   	fcall	_OLED_Printf_Line
  2824     0226                     l2873:
  2825                           
  2826                           ;main.c: 82:         OLED_DrawBattery(battery, 120, 0);
  2827     0226  3078               	movlw	120
  2828     0227  0020               	movlb	0	; select bank0
  2829     0228  00A4               	movwf	OLED_DrawBattery@x
  2830     0229  01A5               	clrf	OLED_DrawBattery@page
  2831     022A  0021               	movlb	1	; select bank1
  2832     022B  0854               	movf	main@battery^(0+128),w
  2833     022C  3183  2316  3181   	fcall	_OLED_DrawBattery
  2834     022F                     l2875:
  2835                           
  2836                           ;main.c: 83:         OLED_UpdateLine(0);
  2837     022F  3000               	movlw	0
  2838     0230  318D  2567  3181   	fcall	_OLED_UpdateLine
  2839     0233                     l2877:
  2840                           
  2841                           ;main.c: 86:         OLED_Printf_Line(1, "Count: %lu", (unsigned long)counter);
  2842     0233  300B               	movlw	low (STR_3| (0+32768))
  2843     0234  0020               	movlb	0	; select bank0
  2844     0235  00A6               	movwf	OLED_Printf_Line@fmt
  2845     0236  3090               	movlw	high (STR_3| (0+32768))
  2846     0237  00A7               	movwf	OLED_Printf_Line@fmt+1
  2847     0238  0021               	movlb	1	; select bank1
  2848     0239  0853               	movf	(main@counter+3)^(0+128),w
  2849     023A  0020               	movlb	0	; select bank0
  2850     023B  00AB               	movwf	?_OLED_Printf_Line+5
  2851     023C  0021               	movlb	1	; select bank1
  2852     023D  0852               	movf	(main@counter+2)^(0+128),w
  2853     023E  0020               	movlb	0	; select bank0
  2854     023F  00AA               	movwf	?_OLED_Printf_Line+4
  2855     0240  0021               	movlb	1	; select bank1
  2856     0241  0851               	movf	(main@counter+1)^(0+128),w
  2857     0242  0020               	movlb	0	; select bank0
  2858     0243  00A9               	movwf	?_OLED_Printf_Line+3
  2859     0244  0021               	movlb	1	; select bank1
  2860     0245  0850               	movf	main@counter^(0+128),w
  2861     0246  0020               	movlb	0	; select bank0
  2862     0247  00A8               	movwf	?_OLED_Printf_Line+2
  2863     0248  3001               	movlw	1
  2864     0249  3183  23DE  3181   	fcall	_OLED_Printf_Line
  2865     024C                     l2879:
  2866                           
  2867                           ;main.c: 88:         counter++;
  2868     024C  3001               	movlw	1
  2869     024D  0021               	movlb	1	; select bank1
  2870     024E  07D0               	addwf	main@counter^(0+128),f
  2871     024F  3000               	movlw	0
  2872     0250  3DD1               	addwfc	(main@counter+1)^(0+128),f
  2873     0251  3000               	movlw	0
  2874     0252  3DD2               	addwfc	(main@counter+2)^(0+128),f
  2875     0253  3000               	movlw	0
  2876     0254  3DD3               	addwfc	(main@counter+3)^(0+128),f
  2877     0255                     l2881:
  2878                           
  2879                           ;main.c: 89:         if (battery > 0) battery--; else battery = 100;
  2880     0255  0854               	movf	main@battery^(0+128),w
  2881     0256  1903               	btfsc	3,2
  2882     0257  2A59               	goto	u3181
  2883     0258  2A5A               	goto	u3180
  2884     0259                     u3181:
  2885     0259  2A5D               	goto	l2885
  2886     025A                     u3180:
  2887     025A                     l2883:
  2888     025A  3001               	movlw	1
  2889     025B  02D4               	subwf	main@battery^(0+128),f
  2890     025C  2A5F               	goto	l2887
  2891     025D                     l2885:
  2892     025D  3064               	movlw	100
  2893     025E  00D4               	movwf	main@battery^(0+128)
  2894     025F                     l2887:
  2895                           
  2896                           ;main.c: 91:         if (counter > 100) {
  2897     025F  0853               	movf	(main@counter+3)^(0+128),w
  2898     0260  1D03               	btfss	3,2
  2899     0261  2A6E               	goto	u3190
  2900     0262  0852               	movf	(main@counter+2)^(0+128),w
  2901     0263  1D03               	btfss	3,2
  2902     0264  2A6E               	goto	u3190
  2903     0265  0851               	movf	(main@counter+1)^(0+128),w
  2904     0266  1D03               	btfss	3,2
  2905     0267  2A6E               	goto	u3190
  2906     0268  3065               	movlw	101
  2907     0269  0250               	subwf	main@counter^(0+128),w
  2908     026A  1C03               	btfss	3,0
  2909     026B  2A6D               	goto	u3191
  2910     026C  2A6E               	goto	u3190
  2911     026D                     u3191:
  2912     026D  2A77               	goto	l154
  2913     026E                     u3190:
  2914     026E                     l2889:
  2915                           
  2916                           ;main.c: 92:             counter = 0;
  2917     026E  3000               	movlw	0
  2918     026F  0021               	movlb	1	; select bank1
  2919     0270  00D3               	movwf	(main@counter+3)^(0+128)
  2920     0271  3000               	movlw	0
  2921     0272  00D2               	movwf	(main@counter+2)^(0+128)
  2922     0273  3000               	movlw	0
  2923     0274  00D1               	movwf	(main@counter+1)^(0+128)
  2924     0275  3000               	movlw	0
  2925     0276  00D0               	movwf	main@counter^(0+128)
  2926     0277                     l154:	
  2927                           ;main.c: 93:         }
  2928                           
  2929                           
  2930                           ;main.c: 95:         _delay((unsigned long)((100)*(32000000/4000.0)));
  2931     0277  3005               	movlw	5
  2932     0278  0021               	movlb	1	; select bank1
  2933     0279  00CF               	movwf	(??_main^(0+128)+1)
  2934     027A  300F               	movlw	15
  2935     027B  00CE               	movwf	??_main^(0+128)
  2936     027C  30F1               	movlw	241
  2937     027D                     u3297:
  2938     027D  0B89               	decfsz	9,f
  2939     027E  2A7D               	goto	u3297
  2940     027F  0BCE               	decfsz	??_main^(0+128),f
  2941     0280  2A7D               	goto	u3297
  2942     0281  0BCF               	decfsz	(??_main^(0+128)+1),f
  2943     0282  2A7D               	goto	u3297
  2944     0283  2A1D               	goto	l2871
  2945     0284  3180  2802         	ljmp	start
  2946     0286                     __end_of_main:
  2947                           
  2948                           	psect	text1
  2949     0E90                     __ptext1:	
  2950 ;; *************** function _initMain *****************
  2951 ;; Defined at:
  2952 ;;		line 34 in file "main.c"
  2953 ;; Parameters:    Size  Location     Type
  2954 ;;		None
  2955 ;; Auto vars:     Size  Location     Type
  2956 ;;		None
  2957 ;; Return value:  Size  Location     Type
  2958 ;;                  1    wreg      void 
  2959 ;; Registers used:
  2960 ;;		wreg, status,2, status,0, pclath, cstack
  2961 ;; Tracked objects:
  2962 ;;		On entry : 0/0
  2963 ;;		On exit  : 0/0
  2964 ;;		Unchanged: 0/0
  2965 ;; Data sizes:     COMMON   BANK0   BANK1   BANK2   BANK3   BANK4   BANK5   BANK6   BANK7   BANK8   BANK9  BANK10  BANK1
      +1  BANK12  BANK13  BANK14  BANK15  BANK16  BANK17  BANK18  BANK19  BANK20  BANK21  BANK22  BANK23  BANK24  BANK25
  2966 ;;      Params:         0       0       0       0       0       0       0       0       0       0       0       0       
      +0       0       0       0       0       0       0       0       0       0       0       0       0       0       0
  2967 ;;      Locals:         0       0       0       0       0       0       0       0       0       0       0       0       
      +0       0       0       0       0       0       0       0       0       0       0       0       0       0       0
  2968 ;;      Temps:          2       0       0       0       0       0       0       0       0       0       0       0       
      +0       0       0       0       0       0       0       0       0       0       0       0       0       0       0
  2969 ;;      Totals:         2       0       0       0       0       0       0       0       0       0       0       0       
      +0       0       0       0       0       0       0       0       0       0       0       0       0       0       0
  2970 ;;Total ram usage:        2 bytes
  2971 ;; Hardware stack levels used: 1
  2972 ;; Hardware stack levels required when called: 1
  2973 ;; This function calls:
  2974 ;;		_internal_32
  2975 ;; This function is called by:
  2976 ;;		_main
  2977 ;; This function uses a non-reentrant model
  2978 ;;
  2979                           
  2980     0E90                     _initMain:	
  2981                           ;psect for function _initMain
  2982                           
  2983     0E90                     l2433:	
  2984                           ;incstack = 0
  2985                           ; Regs used in _initMain: [wreg+status,2+status,0+pclath+cstack]
  2986                           
  2987                           
  2988                           ;main.c: 36:     internal_32();
  2989     0E90  318C  2412  318E   	fcall	_internal_32
  2990     0E93                     l2435:
  2991                           
  2992                           ;main.c: 37:     _delay((unsigned long)((100)*(32000000/4000.0)));
  2993     0E93  3005               	movlw	5
  2994     0E94  00F1               	movwf	??_initMain+1
  2995     0E95  300F               	movlw	15
  2996     0E96  00F0               	movwf	??_initMain
  2997     0E97  30F1               	movlw	241
  2998     0E98                     u3307:
  2999     0E98  0B89               	decfsz	9,f
  3000     0E99  2E98               	goto	u3307
  3001     0E9A  0BF0               	decfsz	??_initMain,f
  3002     0E9B  2E98               	goto	u3307
  3003     0E9C  0BF1               	decfsz	??_initMain+1,f
  3004     0E9D  2E98               	goto	u3307
  3005     0E9E  0000               	nop
  3006     0E9F                     l2437:
  3007                           
  3008                           ;main.c: 40:     ANSELCbits.ANSC4 = 0;
  3009     0E9F  0023               	movlb	3	; select bank3
  3010     0EA0  120E               	bcf	14,4	;volatile
  3011     0EA1                     l2439:
  3012                           
  3013                           ;main.c: 41:     ANSELCbits.ANSC5 = 0;
  3014     0EA1  128E               	bcf	14,5	;volatile
  3015     0EA2                     l2441:
  3016                           
  3017                           ;main.c: 42:     TRISCbits.TRISC4 = 1;
  3018     0EA2  0021               	movlb	1	; select bank1
  3019     0EA3  160E               	bsf	14,4	;volatile
  3020     0EA4                     l2443:
  3021                           
  3022                           ;main.c: 43:     TRISCbits.TRISC5 = 1;
  3023     0EA4  168E               	bsf	14,5	;volatile
  3024     0EA5                     l2445:
  3025                           
  3026                           ;main.c: 46:     PPSLOCK = 0x55; PPSLOCK = 0xAA; PPSLOCKbits.PPSLOCKED = 0;
  3027     0EA5  3055               	movlw	85
  3028     0EA6  003C               	movlb	28	; select bank28
  3029     0EA7  008F               	movwf	15	;volsfr
  3030     0EA8                     l2447:
  3031     0EA8  30AA               	movlw	170
  3032     0EA9  008F               	movwf	15	;volsfr
  3033     0EAA                     l2449:
  3034     0EAA  100F               	bcf	15,0	;volsfr
  3035     0EAB                     l2451:
  3036                           
  3037                           ;main.c: 48:     RB2PPSbits.RB2PPS = 0x14;
  3038     0EAB  003D               	movlb	29	; select bank29
  3039     0EAC  081A               	movf	26,w	;volatile
  3040     0EAD  39E0               	andlw	-32
  3041     0EAE  3814               	iorlw	20
  3042     0EAF  009A               	movwf	26	;volatile
  3043     0EB0                     l2453:
  3044                           
  3045                           ;main.c: 49:     RXPPSbits.RXPPS = 0x0B;
  3046     0EB0  003C               	movlb	28	; select bank28
  3047     0EB1  0824               	movf	36,w	;volatile
  3048     0EB2  39E0               	andlw	-32
  3049     0EB3  380B               	iorlw	11
  3050     0EB4  00A4               	movwf	36	;volatile
  3051     0EB5                     l2455:
  3052                           
  3053                           ;main.c: 51:     RC4PPSbits.RC4PPS = 0x11;
  3054     0EB5  003D               	movlb	29	; select bank29
  3055     0EB6  0824               	movf	36,w	;volatile
  3056     0EB7  39E0               	andlw	-32
  3057     0EB8  3811               	iorlw	17
  3058     0EB9  00A4               	movwf	36	;volatile
  3059     0EBA                     l2457:
  3060                           
  3061                           ;main.c: 52:     SSPDATPPSbits.SSPDATPPS = 0x14;
  3062     0EBA  003C               	movlb	28	; select bank28
  3063     0EBB  0821               	movf	33,w	;volatile
  3064     0EBC  39E0               	andlw	-32
  3065     0EBD  3814               	iorlw	20
  3066     0EBE  00A1               	movwf	33	;volatile
  3067     0EBF                     l2459:
  3068                           
  3069                           ;main.c: 54:     SSPCLKPPSbits.SSPCLKPPS = 0x15;
  3070     0EBF  0820               	movf	32,w	;volatile
  3071     0EC0  39E0               	andlw	-32
  3072     0EC1  3815               	iorlw	21
  3073     0EC2  00A0               	movwf	32	;volatile
  3074     0EC3                     l2461:
  3075                           
  3076                           ;main.c: 55:     RC5PPSbits.RC5PPS = 0x10;
  3077     0EC3  003D               	movlb	29	; select bank29
  3078     0EC4  0825               	movf	37,w	;volatile
  3079     0EC5  39E0               	andlw	-32
  3080     0EC6  3810               	iorlw	16
  3081     0EC7  00A5               	movwf	37	;volatile
  3082     0EC8                     l2463:
  3083                           
  3084                           ;main.c: 57:     PPSLOCK = 0x55; PPSLOCK = 0xAA; PPSLOCKbits.PPSLOCKED = 1;
  3085     0EC8  3055               	movlw	85
  3086     0EC9  003C               	movlb	28	; select bank28
  3087     0ECA  008F               	movwf	15	;volsfr
  3088     0ECB                     l2465:
  3089     0ECB  30AA               	movlw	170
  3090     0ECC  008F               	movwf	15	;volsfr
  3091     0ECD                     l2467:
  3092     0ECD  140F               	bsf	15,0	;volsfr
  3093     0ECE                     l146:
  3094     0ECE  0008               	return
  3095     0ECF                     __end_of_initMain:
  3096                           
  3097                           	psect	text2
  3098     0C12                     __ptext2:	
  3099 ;; *************** function _internal_32 *****************
  3100 ;; Defined at:
  3101 ;;		line 36 in file "PIC16F1718_Internal.c"
  3102 ;; Parameters:    Size  Location     Type
  3103 ;;		None
  3104 ;; Auto vars:     Size  Location     Type
  3105 ;;		None
  3106 ;; Return value:  Size  Location     Type
  3107 ;;                  1    wreg      void 
  3108 ;; Registers used:
  3109 ;;		None
  3110 ;; Tracked objects:
  3111 ;;		On entry : 0/0
  3112 ;;		On exit  : 0/0
  3113 ;;		Unchanged: 0/0
  3114 ;; Data sizes:     COMMON   BANK0   BANK1   BANK2   BANK3   BANK4   BANK5   BANK6   BANK7   BANK8   BANK9  BANK10  BANK1
      +1  BANK12  BANK13  BANK14  BANK15  BANK16  BANK17  BANK18  BANK19  BANK20  BANK21  BANK22  BANK23  BANK24  BANK25
  3115 ;;      Params:         0       0       0       0       0       0       0       0       0       0       0       0       
      +0       0       0       0       0       0       0       0       0       0       0       0       0       0       0
  3116 ;;      Locals:         0       0       0       0       0       0       0       0       0       0       0       0       
      +0       0       0       0       0       0       0       0       0       0       0       0       0       0       0
  3117 ;;      Temps:          0       0       0       0       0       0       0       0       0       0       0       0       
      +0       0       0       0       0       0       0       0       0       0       0       0       0       0       0
  3118 ;;      Totals:         0       0       0       0       0       0       0       0       0       0       0       0       
      +0       0       0       0       0       0       0       0       0       0       0       0       0       0       0
  3119 ;;Total ram usage:        0 bytes
  3120 ;; Hardware stack levels used: 1
  3121 ;; This function calls:
  3122 ;;		Nothing
  3123 ;; This function is called by:
  3124 ;;		_initMain
  3125 ;; This function uses a non-reentrant model
  3126 ;;
  3127                           
  3128     0C12                     _internal_32:	
  3129                           ;psect for function _internal_32
  3130                           
  3131     0C12                     l2109:	
  3132                           ;incstack = 0
  3133                           ; Regs used in _internal_32: []
  3134                           
  3135                           
  3136                           ;PIC16F1718_Internal.c: 38:     SCS0 = 0;
  3137     0C12  0021               	movlb	1	; select bank1
  3138     0C13  1019               	bcf	25,0	;volatile
  3139                           
  3140                           ;PIC16F1718_Internal.c: 39:     SCS1 = 0;
  3141     0C14  1099               	bcf	25,1	;volatile
  3142                           
  3143                           ;PIC16F1718_Internal.c: 42:     IRCF0 = 0;
  3144     0C15  1199               	bcf	25,3	;volatile
  3145                           
  3146                           ;PIC16F1718_Internal.c: 43:     IRCF1 = 1;
  3147     0C16  1619               	bsf	25,4	;volatile
  3148                           
  3149                           ;PIC16F1718_Internal.c: 44:     IRCF2 = 1;
  3150     0C17  1699               	bsf	25,5	;volatile
  3151                           
  3152                           ;PIC16F1718_Internal.c: 45:     IRCF3 = 1;
  3153     0C18  1719               	bsf	25,6	;volatile
  3154                           
  3155                           ;PIC16F1718_Internal.c: 48:     SPLLEN = 1;
  3156     0C19  1799               	bsf	25,7	;volatile
  3157     0C1A                     l87:
  3158     0C1A  0008               	return
  3159     0C1B                     __end_of_internal_32:
  3160                           
  3161                           	psect	text3
  3162     0ECF                     __ptext3:	
  3163 ;; *************** function _OLED_SetOrientation *****************
  3164 ;; Defined at:
  3165 ;;		line 246 in file "OLED_SSD1306.c"
  3166 ;; Parameters:    Size  Location     Type
  3167 ;;  o               1    wreg     enum E6061
  3168 ;; Auto vars:     Size  Location     Type
  3169 ;;  o               1    9[COMMON] enum E6061
  3170 ;; Return value:  Size  Location     Type
  3171 ;;                  1    wreg      void 
  3172 ;; Registers used:
  3173 ;;		wreg, fsr0l, fsr0h, status,2, status,0, pclath, cstack
  3174 ;; Tracked objects:
  3175 ;;		On entry : 0/0
  3176 ;;		On exit  : 0/0
  3177 ;;		Unchanged: 0/0
  3178 ;; Data sizes:     COMMON   BANK0   BANK1   BANK2   BANK3   BANK4   BANK5   BANK6   BANK7   BANK8   BANK9  BANK10  BANK1
      +1  BANK12  BANK13  BANK14  BANK15  BANK16  BANK17  BANK18  BANK19  BANK20  BANK21  BANK22  BANK23  BANK24  BANK25
  3179 ;;      Params:         0       0       0       0       0       0       0       0       0       0       0       0       
      +0       0       0       0       0       0       0       0       0       0       0       0       0       0       0
  3180 ;;      Locals:         1       0       0       0       0       0       0       0       0       0       0       0       
      +0       0       0       0       0       0       0       0       0       0       0       0       0       0       0
  3181 ;;      Temps:          2       0       0       0       0       0       0       0       0       0       0       0       
      +0       0       0       0       0       0       0       0       0       0       0       0       0       0       0
  3182 ;;      Totals:         3       0       0       0       0       0       0       0       0       0       0       0       
      +0       0       0       0       0       0       0       0       0       0       0       0       0       0       0
  3183 ;;Total ram usage:        3 bytes
  3184 ;; Hardware stack levels used: 1
  3185 ;; Hardware stack levels required when called: 3
  3186 ;; This function calls:
  3187 ;;		_OLED_Command
  3188 ;; This function is called by:
  3189 ;;		_main
  3190 ;; This function uses a non-reentrant model
  3191 ;;
  3192                           
  3193     0ECF                     _OLED_SetOrientation:	
  3194                           ;psect for function _OLED_SetOrientation
  3195                           
  3196                           
  3197                           ;incstack = 0
  3198                           ; Regs used in _OLED_SetOrientation: [wreg-fsr0h+status,2+status,0+pclath+cstack]
  3199                           ;OLED_SetOrientation@o stored from wreg
  3200     0ECF  00F9               	movwf	OLED_SetOrientation@o
  3201     0ED0                     l2525:
  3202                           
  3203                           ;OLED_SSD1306.c: 246: void OLED_SetOrientation(oled_orient_t o);OLED_SSD1306.c: 247: {;O
      +                          LED_SSD1306.c: 248:     (void)OLED_Command(0x2E);
  3204     0ED0  302E               	movlw	46
  3205     0ED1  318D  25C0  318E   	fcall	_OLED_Command
  3206                           
  3207                           ;OLED_SSD1306.c: 250:     switch (o)
  3208     0ED4  2EF9               	goto	l2537
  3209     0ED5                     l2527:
  3210                           
  3211                           ;OLED_SSD1306.c: 254:             (void)OLED_Command(0xA0 | 0x01);
  3212     0ED5  30A1               	movlw	161
  3213     0ED6  318D  25C0  318E   	fcall	_OLED_Command
  3214                           
  3215                           ;OLED_SSD1306.c: 255:             (void)OLED_Command(0xC8);
  3216     0ED9  30C8               	movlw	200
  3217     0EDA  318D  25C0  318E   	fcall	_OLED_Command
  3218                           
  3219                           ;OLED_SSD1306.c: 256:             break;
  3220     0EDD  2F0F               	goto	l215
  3221     0EDE                     l2529:
  3222                           
  3223                           ;OLED_SSD1306.c: 259:             (void)OLED_Command(0xA0 | 0x00);
  3224     0EDE  30A0               	movlw	160
  3225     0EDF  318D  25C0  318E   	fcall	_OLED_Command
  3226                           
  3227                           ;OLED_SSD1306.c: 260:             (void)OLED_Command(0xC0);
  3228     0EE2  30C0               	movlw	192
  3229     0EE3  318D  25C0  318E   	fcall	_OLED_Command
  3230                           
  3231                           ;OLED_SSD1306.c: 261:             break;
  3232     0EE6  2F0F               	goto	l215
  3233     0EE7                     l2531:
  3234                           
  3235                           ;OLED_SSD1306.c: 264:             (void)OLED_Command(0xA0 | 0x00);
  3236     0EE7  30A0               	movlw	160
  3237     0EE8  318D  25C0  318E   	fcall	_OLED_Command
  3238                           
  3239                           ;OLED_SSD1306.c: 265:             (void)OLED_Command(0xC8);
  3240     0EEB  30C8               	movlw	200
  3241     0EEC  318D  25C0  318E   	fcall	_OLED_Command
  3242                           
  3243                           ;OLED_SSD1306.c: 266:             break;
  3244     0EEF  2F0F               	goto	l215
  3245     0EF0                     l2533:
  3246                           
  3247                           ;OLED_SSD1306.c: 269:             (void)OLED_Command(0xA0 | 0x01);
  3248     0EF0  30A1               	movlw	161
  3249     0EF1  318D  25C0  318E   	fcall	_OLED_Command
  3250                           
  3251                           ;OLED_SSD1306.c: 270:             (void)OLED_Command(0xC0);
  3252     0EF4  30C0               	movlw	192
  3253     0EF5  318D  25C0  318E   	fcall	_OLED_Command
  3254                           
  3255                           ;OLED_SSD1306.c: 271:             break;
  3256     0EF8  2F0F               	goto	l215
  3257     0EF9                     l2537:
  3258     0EF9  0879               	movf	OLED_SetOrientation@o,w
  3259     0EFA  00F7               	movwf	??_OLED_SetOrientation
  3260     0EFB  01F8               	clrf	??_OLED_SetOrientation+1
  3261                           
  3262                           ; Switch on 2 bytes has been partitioned into a top level switch of size 1, and 1 sub-sw
      +                          itches
  3263                           ; Switch size 1, requested type "simple"
  3264                           ; Number of cases is 1, Range of values is 0 to 0
  3265                           ; switch strategies available:
  3266                           ; Name         Instructions Cycles
  3267                           ; simple_byte            4     3 (average)
  3268                           ; direct_byte            8     6 (fixed)
  3269                           ; jumptable            260     6 (fixed)
  3270                           ;	Chosen strategy is simple_byte
  3271     0EFC  0878               	movf	??_OLED_SetOrientation+1,w
  3272     0EFD  3A00               	xorlw	0	; case 0
  3273     0EFE  1903               	skipnz
  3274     0EFF  2F01               	goto	l2947
  3275     0F00  2ED5               	goto	l2527
  3276     0F01                     l2947:
  3277                           
  3278                           ; Switch size 1, requested type "simple"
  3279                           ; Number of cases is 4, Range of values is 0 to 3
  3280                           ; switch strategies available:
  3281                           ; Name         Instructions Cycles
  3282                           ; simple_byte           13     7 (average)
  3283                           ; direct_byte           14     6 (fixed)
  3284                           ; jumptable            260     6 (fixed)
  3285                           ;	Chosen strategy is simple_byte
  3286     0F01  0877               	movf	??_OLED_SetOrientation,w
  3287     0F02  3A00               	xorlw	0	; case 0
  3288     0F03  1903               	skipnz
  3289     0F04  2ED5               	goto	l2527
  3290     0F05  3A01               	xorlw	1	; case 1
  3291     0F06  1903               	skipnz
  3292     0F07  2EDE               	goto	l2529
  3293     0F08  3A03               	xorlw	3	; case 2
  3294     0F09  1903               	skipnz
  3295     0F0A  2EE7               	goto	l2531
  3296     0F0B  3A01               	xorlw	1	; case 3
  3297     0F0C  1903               	skipnz
  3298     0F0D  2EF0               	goto	l2533
  3299     0F0E  2ED5               	goto	l2527
  3300     0F0F                     l215:
  3301     0F0F  0008               	return
  3302     0F10                     __end_of_OLED_SetOrientation:
  3303                           
  3304                           	psect	text4
  3305     03DE                     __ptext4:	
  3306 ;; *************** function _OLED_Printf_Line *****************
  3307 ;; Defined at:
  3308 ;;		line 424 in file "OLED_SSD1306.c"
  3309 ;; Parameters:    Size  Location     Type
  3310 ;;  line            1    wreg     unsigned char 
  3311 ;;  fmt             2    6[BANK0 ] PTR const unsigned char 
  3312 ;;		 -> STR_3(11), STR_2(11), STR_1(14), 
  3313 ;; Auto vars:     Size  Location     Type
  3314 ;;  line            1   41[BANK1 ] unsigned char 
  3315 ;;  nibble          1   28[BANK1 ] unsigned char 
  3316 ;;  temp           11   35[BANK0 ] unsigned char [11]
  3317 ;;  val             4   35[BANK1 ] long 
  3318 ;;  i               1   32[BANK1 ] unsigned char 
  3319 ;;  temp           11   24[BANK0 ] unsigned char [11]
  3320 ;;  val             4   22[BANK1 ] unsigned long 
  3321 ;;  i               1   31[BANK1 ] unsigned char 
  3322 ;;  str             1   19[BANK1 ] PTR const unsigned char 
  3323 ;;		 -> ?_OLED_Printf_Line(1), 
  3324 ;;  temp            5   12[BANK1 ] unsigned char [5]
  3325 ;;  val             2   17[BANK1 ] unsigned short 
  3326 ;;  i               1   34[BANK1 ] unsigned char 
  3327 ;;  temp            6    6[BANK1 ] unsigned char [6]
  3328 ;;  val             2   26[BANK1 ] unsigned short 
  3329 ;;  i               1   33[BANK1 ] unsigned char 
  3330 ;;  temp            6    0[BANK1 ] unsigned char [6]
  3331 ;;  val             2   39[BANK1 ] short 
  3332 ;;  i               1   30[BANK1 ] unsigned char 
  3333 ;;  ch              1   29[BANK1 ] unsigned char 
  3334 ;;  p               1   21[BANK1 ] PTR const unsigned char 
  3335 ;;		 -> OLED_Printf_Line@buf(32), 
  3336 ;;  buf            32   46[BANK0 ] unsigned char [32]
  3337 ;;  src             2   43[BANK1 ] PTR const unsigned char 
  3338 ;;		 -> STR_3(11), STR_2(11), STR_1(14), 
  3339 ;;  dst             1   45[BANK1 ] PTR unsigned char 
  3340 ;;		 -> OLED_Printf_Line@buf(32), 
  3341 ;;  ap              1   42[BANK1 ] PTR void [1]
  3342 ;;		 -> ?_OLED_Printf_Line(1), 
  3343 ;;  col             1   20[BANK1 ] unsigned char 
  3344 ;; Return value:  Size  Location     Type
  3345 ;;                  1    wreg      void 
  3346 ;; Registers used:
  3347 ;;		wreg, fsr0l, fsr0h, fsr1l, fsr1h, status,2, status,0, pclath, cstack
  3348 ;; Tracked objects:
  3349 ;;		On entry : 0/0
  3350 ;;		On exit  : 0/0
  3351 ;;		Unchanged: 0/0
  3352 ;; Data sizes:     COMMON   BANK0   BANK1   BANK2   BANK3   BANK4   BANK5   BANK6   BANK7   BANK8   BANK9  BANK10  BANK1
      +1  BANK12  BANK13  BANK14  BANK15  BANK16  BANK17  BANK18  BANK19  BANK20  BANK21  BANK22  BANK23  BANK24  BANK25
  3353 ;;      Params:         0       6       0       0       0       0       0       0       0       0       0       0       
      +0       0       0       0       0       0       0       0       0       0       0       0       0       0       0
  3354 ;;      Locals:         0      56      46       0       0       0       0       0       0       0       0       0       
      +0       0       0       0       0       0       0       0       0       0       0       0       0       0       0
  3355 ;;      Temps:          0      12       0       0       0       0       0       0       0       0       0       0       
      +0       0       0       0       0       0       0       0       0       0       0       0       0       0       0
  3356 ;;      Totals:         0      74      46       0       0       0       0       0       0       0       0       0       
      +0       0       0       0       0       0       0       0       0       0       0       0       0       0       0
  3357 ;;Total ram usage:      120 bytes
  3358 ;; Hardware stack levels used: 1
  3359 ;; Hardware stack levels required when called: 5
  3360 ;; This function calls:
  3361 ;;		_OLED_UpdateLine
  3362 ;;		___aldiv
  3363 ;;		___almod
  3364 ;;		___awdiv
  3365 ;;		___awmod
  3366 ;;		___lldiv
  3367 ;;		___llmod
  3368 ;;		___lwdiv
  3369 ;;		___lwmod
  3370 ;;		_memcpy
  3371 ;;		_memset
  3372 ;;		_strcmp
  3373 ;;		_strcpy
  3374 ;; This function is called by:
  3375 ;;		_main
  3376 ;; This function uses a non-reentrant model
  3377 ;;
  3378                           
  3379     03DE                     _OLED_Printf_Line:	
  3380                           ;psect for function _OLED_Printf_Line
  3381                           
  3382                           
  3383                           ;incstack = 0
  3384                           ; Regs used in _OLED_Printf_Line: [wreg-fsr1h+status,2+status,0+pclath+cstack]
  3385                           ;OLED_Printf_Line@line stored from wreg
  3386     03DE  0021               	movlb	1	; select bank1
  3387     03DF  00C9               	movwf	OLED_Printf_Line@line^(0+128)
  3388     03E0                     l2543:
  3389                           
  3390                           ;OLED_SSD1306.c: 424: void OLED_Printf_Line(uint8_t line, const char* fmt, ...);OLED_SSD
      +                          1306.c: 425: {;OLED_SSD1306.c: 426:     static char last_text[8][32];;OLED_SSD1306.c: 42
      +                          7:     char buf[32];;OLED_SSD1306.c: 428:     char *dst = buf;
  3391     03E0  304E               	movlw	(low (OLED_Printf_Line@buf| 0))& (0+255)
  3392     03E1  00CD               	movwf	OLED_Printf_Line@dst^(0+128)
  3393                           
  3394                           ;OLED_SSD1306.c: 429:     const char *src = fmt;
  3395     03E2  0020               	movlb	0	; select bank0
  3396     03E3  0827               	movf	OLED_Printf_Line@fmt+1,w
  3397     03E4  0021               	movlb	1	; select bank1
  3398     03E5  00CC               	movwf	(OLED_Printf_Line@src+1)^(0+128)
  3399     03E6  0020               	movlb	0	; select bank0
  3400     03E7  0826               	movf	OLED_Printf_Line@fmt,w
  3401     03E8  0021               	movlb	1	; select bank1
  3402     03E9  00CB               	movwf	OLED_Printf_Line@src^(0+128)
  3403                           
  3404                           ;OLED_SSD1306.c: 431:     if (line >= (32 / 8)) return;
  3405     03EA  3004               	movlw	4
  3406     03EB  0249               	subwf	OLED_Printf_Line@line^(0+128),w
  3407     03EC  1C03               	skipc
  3408     03ED  2BEF               	goto	u2661
  3409     03EE  2BF0               	goto	u2660
  3410     03EF                     u2661:
  3411     03EF  2BF1               	goto	l2547
  3412     03F0                     u2660:
  3413     03F0  2FF1               	goto	l253
  3414     03F1                     l2547:
  3415                           
  3416                           ;OLED_SSD1306.c: 433:     va_list ap;;OLED_SSD1306.c: 434:     *ap = __va_start();
  3417     03F1  3028               	movlw	(low ((?_OLED_Printf_Line| 0+2)))& (0+255)
  3418     03F2  00CA               	movwf	OLED_Printf_Line@ap^(0+128)
  3419                           
  3420                           ;OLED_SSD1306.c: 437:     while (*src && (dst - buf) < 31) {
  3421     03F3  2F01               	goto	l2747
  3422     03F4                     l2549:
  3423                           
  3424                           ;OLED_SSD1306.c: 438:         if (*src == '%') {
  3425     03F4  084B               	movf	OLED_Printf_Line@src^(0+128),w
  3426     03F5  0084               	movwf	4
  3427     03F6  084C               	movf	(OLED_Printf_Line@src+1)^(0+128),w
  3428     03F7  0085               	movwf	5
  3429     03F8  0012               	moviw fsr0++
  3430     03F9  3A25               	xorlw	37
  3431     03FA  1D03               	btfss	3,2
  3432     03FB  2BFD               	goto	u2671
  3433     03FC  2BFE               	goto	u2670
  3434     03FD                     u2671:
  3435     03FD  2EEE               	goto	l2741
  3436     03FE                     u2670:
  3437     03FE                     l2551:
  3438                           
  3439                           ;OLED_SSD1306.c: 439:             src++;
  3440     03FE  3001               	movlw	1
  3441     03FF  07CB               	addwf	OLED_Printf_Line@src^(0+128),f
  3442     0400  3000               	movlw	0
  3443     0401  3DCC               	addwfc	(OLED_Printf_Line@src+1)^(0+128),f
  3444                           
  3445                           ;OLED_SSD1306.c: 440:             switch (*src) {
  3446     0402  2ECE               	goto	l2737
  3447     0403                     l2553:
  3448                           
  3449                           ;OLED_SSD1306.c: 442:                     int16_t val = (*(int *)__va_arg(*(int **)ap, (
      +                          int)0));
  3450     0403  084A               	movf	OLED_Printf_Line@ap^(0+128),w
  3451     0404  0086               	movwf	6
  3452     0405  0187               	clrf	7
  3453     0406  3F40               	moviw [0]fsr1
  3454     0407  00C7               	movwf	OLED_Printf_Line@val^(0+128)
  3455     0408  3F41               	moviw [1]fsr1
  3456     0409  00C8               	movwf	(OLED_Printf_Line@val+1)^(0+128)
  3457     040A                     l2555:
  3458     040A  3002               	movlw	2
  3459     040B  0020               	movlb	0	; select bank0
  3460     040C  00AC               	movwf	??_OLED_Printf_Line
  3461     040D  082C               	movf	??_OLED_Printf_Line,w
  3462     040E  0021               	movlb	1	; select bank1
  3463     040F  07CA               	addwf	OLED_Printf_Line@ap^(0+128),f
  3464     0410                     l2557:
  3465                           
  3466                           ;OLED_SSD1306.c: 443:                     if (val < 0) {
  3467     0410  1FC8               	btfss	(OLED_Printf_Line@val+1)^(0+128),7
  3468     0411  2C13               	goto	u2681
  3469     0412  2C14               	goto	u2680
  3470     0413                     u2681:
  3471     0413  2C24               	goto	l2565
  3472     0414                     u2680:
  3473     0414                     l2559:
  3474                           
  3475                           ;OLED_SSD1306.c: 444:                         *dst++ = '-';
  3476     0414  084D               	movf	OLED_Printf_Line@dst^(0+128),w
  3477     0415  0086               	movwf	6
  3478     0416  0187               	clrf	7
  3479     0417  302D               	movlw	45
  3480     0418  0081               	movwf	1
  3481     0419                     l2561:
  3482     0419  3001               	movlw	1
  3483     041A  0020               	movlb	0	; select bank0
  3484     041B  00AC               	movwf	??_OLED_Printf_Line
  3485     041C  082C               	movf	??_OLED_Printf_Line,w
  3486     041D  0021               	movlb	1	; select bank1
  3487     041E  07CD               	addwf	OLED_Printf_Line@dst^(0+128),f
  3488     041F                     l2563:
  3489                           
  3490                           ;OLED_SSD1306.c: 445:                         val = -val;
  3491     041F  09C7               	comf	OLED_Printf_Line@val^(0+128),f
  3492     0420  09C8               	comf	(OLED_Printf_Line@val+1)^(0+128),f
  3493     0421  0AC7               	incf	OLED_Printf_Line@val^(0+128),f
  3494     0422  1903               	skipnz
  3495     0423  0AC8               	incf	(OLED_Printf_Line@val+1)^(0+128),f
  3496     0424                     l2565:
  3497                           
  3498                           ;OLED_SSD1306.c: 448:                     char temp[6];;OLED_SSD1306.c: 449:            
      +                                   uint8_t i = 0;
  3499     0424  01BE               	clrf	OLED_Printf_Line@i^(0+128)
  3500     0425                     l2567:
  3501                           
  3502                           ;OLED_SSD1306.c: 451:                         temp[i++] = '0' + (val % 10);
  3503     0425  083E               	movf	OLED_Printf_Line@i^(0+128),w
  3504     0426  3EA0               	addlw	(low (OLED_Printf_Line@temp| 0))& (0+255)
  3505     0427  0086               	movwf	6
  3506     0428  0187               	clrf	7
  3507     0429  300A               	movlw	10
  3508     042A  00F0               	movwf	___awmod@divisor
  3509     042B  3000               	movlw	0
  3510     042C  00F1               	movwf	___awmod@divisor+1
  3511     042D  0848               	movf	(OLED_Printf_Line@val+1)^(0+128),w
  3512     042E  00F3               	movwf	___awmod@dividend+1
  3513     042F  0847               	movf	OLED_Printf_Line@val^(0+128),w
  3514     0430  00F2               	movwf	___awmod@dividend
  3515     0431  318F  27AD  3183   	fcall	___awmod
  3516     0434  0870               	movf	?___awmod,w
  3517     0435  3E30               	addlw	48
  3518     0436  0081               	movwf	1
  3519     0437                     l2569:
  3520     0437  3001               	movlw	1
  3521     0438  0020               	movlb	0	; select bank0
  3522     0439  00AC               	movwf	??_OLED_Printf_Line
  3523     043A  082C               	movf	??_OLED_Printf_Line,w
  3524     043B  0021               	movlb	1	; select bank1
  3525     043C  07BE               	addwf	OLED_Printf_Line@i^(0+128),f
  3526     043D                     l2571:
  3527                           
  3528                           ;OLED_SSD1306.c: 452:                         val /= 10;
  3529     043D  300A               	movlw	10
  3530     043E  00F6               	movwf	___awdiv@divisor
  3531     043F  3000               	movlw	0
  3532     0440  00F7               	movwf	___awdiv@divisor+1
  3533     0441  0848               	movf	(OLED_Printf_Line@val+1)^(0+128),w
  3534     0442  00F9               	movwf	___awdiv@dividend+1
  3535     0443  0847               	movf	OLED_Printf_Line@val^(0+128),w
  3536     0444  00F8               	movwf	___awdiv@dividend
  3537     0445  3180  20AA  3183   	fcall	___awdiv
  3538     0448  0877               	movf	?___awdiv+1,w
  3539     0449  0021               	movlb	1	; select bank1
  3540     044A  00C8               	movwf	(OLED_Printf_Line@val+1)^(0+128)
  3541     044B  0876               	movf	?___awdiv,w
  3542     044C  00C7               	movwf	OLED_Printf_Line@val^(0+128)
  3543     044D                     l2573:
  3544                           
  3545                           ;OLED_SSD1306.c: 453:                     } while (val && i < 6);
  3546     044D  0847               	movf	OLED_Printf_Line@val^(0+128),w
  3547     044E  0448               	iorwf	(OLED_Printf_Line@val+1)^(0+128),w
  3548     044F  1903               	btfsc	3,2
  3549     0450  2C52               	goto	u2691
  3550     0451  2C53               	goto	u2690
  3551     0452                     u2691:
  3552     0452  2C69               	goto	l2581
  3553     0453                     u2690:
  3554     0453                     l2575:
  3555     0453  3006               	movlw	6
  3556     0454  023E               	subwf	OLED_Printf_Line@i^(0+128),w
  3557     0455  1C03               	skipc
  3558     0456  2C58               	goto	u2701
  3559     0457  2C59               	goto	u2700
  3560     0458                     u2701:
  3561     0458  2C25               	goto	l2567
  3562     0459                     u2700:
  3563     0459  2C69               	goto	l2581
  3564     045A                     l2577:
  3565     045A  084D               	movf	OLED_Printf_Line@dst^(0+128),w
  3566     045B  0086               	movwf	6
  3567     045C  0187               	clrf	7
  3568     045D  083E               	movf	OLED_Printf_Line@i^(0+128),w
  3569     045E  3EA0               	addlw	(low (OLED_Printf_Line@temp| 0))& (0+255)
  3570     045F  0084               	movwf	4
  3571     0460  0185               	clrf	5
  3572     0461  0800               	movf	0,w
  3573     0462  0081               	movwf	1
  3574     0463                     l2579:
  3575     0463  3001               	movlw	1
  3576     0464  0020               	movlb	0	; select bank0
  3577     0465  00AC               	movwf	??_OLED_Printf_Line
  3578     0466  082C               	movf	??_OLED_Printf_Line,w
  3579     0467  0021               	movlb	1	; select bank1
  3580     0468  07CD               	addwf	OLED_Printf_Line@dst^(0+128),f
  3581     0469                     l2581:
  3582     0469  3001               	movlw	1
  3583     046A  02BE               	subwf	OLED_Printf_Line@i^(0+128),f
  3584     046B  0A3E               	incf	OLED_Printf_Line@i^(0+128),w
  3585     046C  1D03               	btfss	3,2
  3586     046D  2C6F               	goto	u2711
  3587     046E  2C70               	goto	u2710
  3588     046F                     u2711:
  3589     046F  2C5A               	goto	l2577
  3590     0470                     u2710:
  3591     0470  2EE9               	goto	l2739
  3592     0471                     l2583:
  3593                           
  3594                           ;OLED_SSD1306.c: 458:                     src++;
  3595     0471  3001               	movlw	1
  3596     0472  07CB               	addwf	OLED_Printf_Line@src^(0+128),f
  3597     0473  3000               	movlw	0
  3598     0474  3DCC               	addwfc	(OLED_Printf_Line@src+1)^(0+128),f
  3599     0475                     l2585:
  3600                           
  3601                           ;OLED_SSD1306.c: 459:                     if (*src == 'u') {
  3602     0475  084B               	movf	OLED_Printf_Line@src^(0+128),w
  3603     0476  0084               	movwf	4
  3604     0477  084C               	movf	(OLED_Printf_Line@src+1)^(0+128),w
  3605     0478  0085               	movwf	5
  3606     0479  0012               	moviw fsr0++
  3607     047A  3A75               	xorlw	117
  3608     047B  1D03               	btfss	3,2
  3609     047C  2C7E               	goto	u2721
  3610     047D  2C7F               	goto	u2720
  3611     047E                     u2721:
  3612     047E  2CF3               	goto	l2609
  3613     047F                     u2720:
  3614     047F                     l2587:
  3615                           
  3616                           ;OLED_SSD1306.c: 460:                         uint32_t val = (*(uint32_t *)__va_arg(*(ui
      +                          nt32_t **)ap, (uint32_t)0));
  3617     047F  084A               	movf	OLED_Printf_Line@ap^(0+128),w
  3618     0480  0086               	movwf	6
  3619     0481  0187               	clrf	7
  3620     0482  3F40               	moviw [0]fsr1
  3621     0483  00B6               	movwf	OLED_Printf_Line@val_524^(0+128)
  3622     0484  3F41               	moviw [1]fsr1
  3623     0485  00B7               	movwf	(OLED_Printf_Line@val_524+1)^(0+128)
  3624     0486  3F42               	moviw [2]fsr1
  3625     0487  00B8               	movwf	(OLED_Printf_Line@val_524+2)^(0+128)
  3626     0488  3F43               	moviw [3]fsr1
  3627     0489  00B9               	movwf	(OLED_Printf_Line@val_524+3)^(0+128)
  3628     048A                     l2589:
  3629     048A  3004               	movlw	4
  3630     048B  0020               	movlb	0	; select bank0
  3631     048C  00AC               	movwf	??_OLED_Printf_Line
  3632     048D  082C               	movf	??_OLED_Printf_Line,w
  3633     048E  0021               	movlb	1	; select bank1
  3634     048F  07CA               	addwf	OLED_Printf_Line@ap^(0+128),f
  3635     0490                     l2591:
  3636                           
  3637                           ;OLED_SSD1306.c: 461:                         char temp[11];;OLED_SSD1306.c: 462:       
      +                                            uint8_t i = 0;
  3638     0490  01BF               	clrf	OLED_Printf_Line@i_526^(0+128)
  3639     0491                     l2593:
  3640                           
  3641                           ;OLED_SSD1306.c: 464:                             temp[i++] = '0' + (val % 10);
  3642     0491  083F               	movf	OLED_Printf_Line@i_526^(0+128),w
  3643     0492  3E38               	addlw	(low (OLED_Printf_Line@temp_525| 0))& (0+255)
  3644     0493  0086               	movwf	6
  3645     0494  0187               	clrf	7
  3646     0495  3000               	movlw	0
  3647     0496  00F3               	movwf	___llmod@divisor+3
  3648     0497  3000               	movlw	0
  3649     0498  00F2               	movwf	___llmod@divisor+2
  3650     0499  3000               	movlw	0
  3651     049A  00F1               	movwf	___llmod@divisor+1
  3652     049B  300A               	movlw	10
  3653     049C  00F0               	movwf	___llmod@divisor
  3654     049D  0839               	movf	(OLED_Printf_Line@val_524+3)^(0+128),w
  3655     049E  00F7               	movwf	___llmod@dividend+3
  3656     049F  0838               	movf	(OLED_Printf_Line@val_524+2)^(0+128),w
  3657     04A0  00F6               	movwf	___llmod@dividend+2
  3658     04A1  0837               	movf	(OLED_Printf_Line@val_524+1)^(0+128),w
  3659     04A2  00F5               	movwf	___llmod@dividend+1
  3660     04A3  0836               	movf	OLED_Printf_Line@val_524^(0+128),w
  3661     04A4  00F4               	movwf	___llmod@dividend
  3662     04A5  3180  2006  3183   	fcall	___llmod
  3663     04A8  0870               	movf	?___llmod,w
  3664     04A9  3E30               	addlw	48
  3665     04AA  0081               	movwf	1
  3666     04AB                     l2595:
  3667     04AB  3001               	movlw	1
  3668     04AC  0020               	movlb	0	; select bank0
  3669     04AD  00AC               	movwf	??_OLED_Printf_Line
  3670     04AE  082C               	movf	??_OLED_Printf_Line,w
  3671     04AF  0021               	movlb	1	; select bank1
  3672     04B0  07BF               	addwf	OLED_Printf_Line@i_526^(0+128),f
  3673     04B1                     l2597:
  3674                           
  3675                           ;OLED_SSD1306.c: 465:                             val /= 10;
  3676     04B1  3000               	movlw	0
  3677     04B2  00F3               	movwf	___lldiv@divisor+3
  3678     04B3  3000               	movlw	0
  3679     04B4  00F2               	movwf	___lldiv@divisor+2
  3680     04B5  3000               	movlw	0
  3681     04B6  00F1               	movwf	___lldiv@divisor+1
  3682     04B7  300A               	movlw	10
  3683     04B8  00F0               	movwf	___lldiv@divisor
  3684     04B9  0839               	movf	(OLED_Printf_Line@val_524+3)^(0+128),w
  3685     04BA  00F7               	movwf	___lldiv@dividend+3
  3686     04BB  0838               	movf	(OLED_Printf_Line@val_524+2)^(0+128),w
  3687     04BC  00F6               	movwf	___lldiv@dividend+2
  3688     04BD  0837               	movf	(OLED_Printf_Line@val_524+1)^(0+128),w
  3689     04BE  00F5               	movwf	___lldiv@dividend+1
  3690     04BF  0836               	movf	OLED_Printf_Line@val_524^(0+128),w
  3691     04C0  00F4               	movwf	___lldiv@dividend
  3692     04C1  3180  2050  3183   	fcall	___lldiv
  3693     04C4  0873               	movf	?___lldiv+3,w
  3694     04C5  0021               	movlb	1	; select bank1
  3695     04C6  00B9               	movwf	(OLED_Printf_Line@val_524+3)^(0+128)
  3696     04C7  0872               	movf	?___lldiv+2,w
  3697     04C8  00B8               	movwf	(OLED_Printf_Line@val_524+2)^(0+128)
  3698     04C9  0871               	movf	?___lldiv+1,w
  3699     04CA  00B7               	movwf	(OLED_Printf_Line@val_524+1)^(0+128)
  3700     04CB  0870               	movf	?___lldiv,w
  3701     04CC  00B6               	movwf	OLED_Printf_Line@val_524^(0+128)
  3702     04CD                     l2599:
  3703                           
  3704                           ;OLED_SSD1306.c: 466:                         } while (val && i < 11);
  3705     04CD  0839               	movf	(OLED_Printf_Line@val_524+3)^(0+128),w
  3706     04CE  0438               	iorwf	(OLED_Printf_Line@val_524+2)^(0+128),w
  3707     04CF  0437               	iorwf	(OLED_Printf_Line@val_524+1)^(0+128),w
  3708     04D0  0436               	iorwf	OLED_Printf_Line@val_524^(0+128),w
  3709     04D1  1903               	skipnz
  3710     04D2  2CD4               	goto	u2731
  3711     04D3  2CD5               	goto	u2730
  3712     04D4                     u2731:
  3713     04D4  2CEB               	goto	l2607
  3714     04D5                     u2730:
  3715     04D5                     l2601:
  3716     04D5  300B               	movlw	11
  3717     04D6  023F               	subwf	OLED_Printf_Line@i_526^(0+128),w
  3718     04D7  1C03               	skipc
  3719     04D8  2CDA               	goto	u2741
  3720     04D9  2CDB               	goto	u2740
  3721     04DA                     u2741:
  3722     04DA  2C91               	goto	l2593
  3723     04DB                     u2740:
  3724     04DB  2CEB               	goto	l2607
  3725     04DC                     l2603:
  3726     04DC  084D               	movf	OLED_Printf_Line@dst^(0+128),w
  3727     04DD  0086               	movwf	6
  3728     04DE  0187               	clrf	7
  3729     04DF  083F               	movf	OLED_Printf_Line@i_526^(0+128),w
  3730     04E0  3E38               	addlw	(low (OLED_Printf_Line@temp_525| 0))& (0+255)
  3731     04E1  0084               	movwf	4
  3732     04E2  0185               	clrf	5
  3733     04E3  0800               	movf	0,w
  3734     04E4  0081               	movwf	1
  3735     04E5                     l2605:
  3736     04E5  3001               	movlw	1
  3737     04E6  0020               	movlb	0	; select bank0
  3738     04E7  00AC               	movwf	??_OLED_Printf_Line
  3739     04E8  082C               	movf	??_OLED_Printf_Line,w
  3740     04E9  0021               	movlb	1	; select bank1
  3741     04EA  07CD               	addwf	OLED_Printf_Line@dst^(0+128),f
  3742     04EB                     l2607:
  3743     04EB  3001               	movlw	1
  3744     04EC  02BF               	subwf	OLED_Printf_Line@i_526^(0+128),f
  3745     04ED  0A3F               	incf	OLED_Printf_Line@i_526^(0+128),w
  3746     04EE  1D03               	btfss	3,2
  3747     04EF  2CF1               	goto	u2751
  3748     04F0  2CF2               	goto	u2750
  3749     04F1                     u2751:
  3750     04F1  2CDC               	goto	l2603
  3751     04F2                     u2750:
  3752     04F2  2DB0               	goto	l2651
  3753     04F3                     l2609:
  3754     04F3  084B               	movf	OLED_Printf_Line@src^(0+128),w
  3755     04F4  0084               	movwf	4
  3756     04F5  084C               	movf	(OLED_Printf_Line@src+1)^(0+128),w
  3757     04F6  0085               	movwf	5
  3758     04F7  0012               	moviw fsr0++
  3759     04F8  3A64               	xorlw	100
  3760     04F9  1D03               	btfss	3,2
  3761     04FA  2CFC               	goto	u2761
  3762     04FB  2CFD               	goto	u2760
  3763     04FC                     u2761:
  3764     04FC  2D8B               	goto	l2641
  3765     04FD                     u2760:
  3766     04FD                     l2611:
  3767                           
  3768                           ;OLED_SSD1306.c: 469:                         int32_t val = (*(int32_t *)__va_arg(*(int3
      +                          2_t **)ap, (int32_t)0));
  3769     04FD  084A               	movf	OLED_Printf_Line@ap^(0+128),w
  3770     04FE  0086               	movwf	6
  3771     04FF  0187               	clrf	7
  3772     0500  3F40               	moviw [0]fsr1
  3773     0501  00C3               	movwf	OLED_Printf_Line@val_527^(0+128)
  3774     0502  3F41               	moviw [1]fsr1
  3775     0503  00C4               	movwf	(OLED_Printf_Line@val_527+1)^(0+128)
  3776     0504  3F42               	moviw [2]fsr1
  3777     0505  00C5               	movwf	(OLED_Printf_Line@val_527+2)^(0+128)
  3778     0506  3F43               	moviw [3]fsr1
  3779     0507  00C6               	movwf	(OLED_Printf_Line@val_527+3)^(0+128)
  3780     0508                     l2613:
  3781     0508  3004               	movlw	4
  3782     0509  0020               	movlb	0	; select bank0
  3783     050A  00AC               	movwf	??_OLED_Printf_Line
  3784     050B  082C               	movf	??_OLED_Printf_Line,w
  3785     050C  0021               	movlb	1	; select bank1
  3786     050D  07CA               	addwf	OLED_Printf_Line@ap^(0+128),f
  3787     050E                     l2615:
  3788                           
  3789                           ;OLED_SSD1306.c: 470:                         if (val < 0) {
  3790     050E  1FC6               	btfss	(OLED_Printf_Line@val_527+3)^(0+128),7
  3791     050F  2D11               	goto	u2771
  3792     0510  2D12               	goto	u2770
  3793     0511                     u2771:
  3794     0511  2D28               	goto	l2623
  3795     0512                     u2770:
  3796     0512                     l2617:
  3797                           
  3798                           ;OLED_SSD1306.c: 471:                             *dst++ = '-';
  3799     0512  084D               	movf	OLED_Printf_Line@dst^(0+128),w
  3800     0513  0086               	movwf	6
  3801     0514  0187               	clrf	7
  3802     0515  302D               	movlw	45
  3803     0516  0081               	movwf	1
  3804     0517                     l2619:
  3805     0517  3001               	movlw	1
  3806     0518  0020               	movlb	0	; select bank0
  3807     0519  00AC               	movwf	??_OLED_Printf_Line
  3808     051A  082C               	movf	??_OLED_Printf_Line,w
  3809     051B  0021               	movlb	1	; select bank1
  3810     051C  07CD               	addwf	OLED_Printf_Line@dst^(0+128),f
  3811     051D                     l2621:
  3812                           
  3813                           ;OLED_SSD1306.c: 472:                             val = -val;
  3814     051D  09C3               	comf	OLED_Printf_Line@val_527^(0+128),f
  3815     051E  09C4               	comf	(OLED_Printf_Line@val_527+1)^(0+128),f
  3816     051F  09C5               	comf	(OLED_Printf_Line@val_527+2)^(0+128),f
  3817     0520  09C6               	comf	(OLED_Printf_Line@val_527+3)^(0+128),f
  3818     0521  0AC3               	incf	OLED_Printf_Line@val_527^(0+128),f
  3819     0522  1903               	skipnz
  3820     0523  0AC4               	incf	(OLED_Printf_Line@val_527+1)^(0+128),f
  3821     0524  1903               	skipnz
  3822     0525  0AC5               	incf	(OLED_Printf_Line@val_527+2)^(0+128),f
  3823     0526  1903               	skipnz
  3824     0527  0AC6               	incf	(OLED_Printf_Line@val_527+3)^(0+128),f
  3825     0528                     l2623:
  3826                           
  3827                           ;OLED_SSD1306.c: 474:                         char temp[11];;OLED_SSD1306.c: 475:       
      +                                            uint8_t i = 0;
  3828     0528  01C0               	clrf	OLED_Printf_Line@i_529^(0+128)
  3829     0529                     l2625:
  3830                           
  3831                           ;OLED_SSD1306.c: 477:                             temp[i++] = '0' + (val % 10);
  3832     0529  0840               	movf	OLED_Printf_Line@i_529^(0+128),w
  3833     052A  3E43               	addlw	(low (OLED_Printf_Line@temp_528| 0))& (0+255)
  3834     052B  0086               	movwf	6
  3835     052C  0187               	clrf	7
  3836     052D  3000               	movlw	0
  3837     052E  00F3               	movwf	___almod@divisor+3
  3838     052F  3000               	movlw	0
  3839     0530  00F2               	movwf	___almod@divisor+2
  3840     0531  3000               	movlw	0
  3841     0532  00F1               	movwf	___almod@divisor+1
  3842     0533  300A               	movlw	10
  3843     0534  00F0               	movwf	___almod@divisor
  3844     0535  0846               	movf	(OLED_Printf_Line@val_527+3)^(0+128),w
  3845     0536  00F7               	movwf	___almod@dividend+3
  3846     0537  0845               	movf	(OLED_Printf_Line@val_527+2)^(0+128),w
  3847     0538  00F6               	movwf	___almod@dividend+2
  3848     0539  0844               	movf	(OLED_Printf_Line@val_527+1)^(0+128),w
  3849     053A  00F5               	movwf	___almod@dividend+1
  3850     053B  0843               	movf	OLED_Printf_Line@val_527^(0+128),w
  3851     053C  00F4               	movwf	___almod@dividend
  3852     053D  3181  217E  3183   	fcall	___almod
  3853     0540  0870               	movf	?___almod,w
  3854     0541  3E30               	addlw	48
  3855     0542  0081               	movwf	1
  3856     0543                     l2627:
  3857     0543  3001               	movlw	1
  3858     0544  0020               	movlb	0	; select bank0
  3859     0545  00AC               	movwf	??_OLED_Printf_Line
  3860     0546  082C               	movf	??_OLED_Printf_Line,w
  3861     0547  0021               	movlb	1	; select bank1
  3862     0548  07C0               	addwf	OLED_Printf_Line@i_529^(0+128),f
  3863     0549                     l2629:
  3864                           
  3865                           ;OLED_SSD1306.c: 478:                             val /= 10;
  3866     0549  3000               	movlw	0
  3867     054A  00F3               	movwf	___aldiv@divisor+3
  3868     054B  3000               	movlw	0
  3869     054C  00F2               	movwf	___aldiv@divisor+2
  3870     054D  3000               	movlw	0
  3871     054E  00F1               	movwf	___aldiv@divisor+1
  3872     054F  300A               	movlw	10
  3873     0550  00F0               	movwf	___aldiv@divisor
  3874     0551  0846               	movf	(OLED_Printf_Line@val_527+3)^(0+128),w
  3875     0552  00F7               	movwf	___aldiv@dividend+3
  3876     0553  0845               	movf	(OLED_Printf_Line@val_527+2)^(0+128),w
  3877     0554  00F6               	movwf	___aldiv@dividend+2
  3878     0555  0844               	movf	(OLED_Printf_Line@val_527+1)^(0+128),w
  3879     0556  00F5               	movwf	___aldiv@dividend+1
  3880     0557  0843               	movf	OLED_Printf_Line@val_527^(0+128),w
  3881     0558  00F4               	movwf	___aldiv@dividend
  3882     0559  3182  2286  3183   	fcall	___aldiv
  3883     055C  0873               	movf	?___aldiv+3,w
  3884     055D  0021               	movlb	1	; select bank1
  3885     055E  00C6               	movwf	(OLED_Printf_Line@val_527+3)^(0+128)
  3886     055F  0872               	movf	?___aldiv+2,w
  3887     0560  00C5               	movwf	(OLED_Printf_Line@val_527+2)^(0+128)
  3888     0561  0871               	movf	?___aldiv+1,w
  3889     0562  00C4               	movwf	(OLED_Printf_Line@val_527+1)^(0+128)
  3890     0563  0870               	movf	?___aldiv,w
  3891     0564  00C3               	movwf	OLED_Printf_Line@val_527^(0+128)
  3892     0565                     l2631:
  3893                           
  3894                           ;OLED_SSD1306.c: 479:                         } while (val && i < 11);
  3895     0565  0846               	movf	(OLED_Printf_Line@val_527+3)^(0+128),w
  3896     0566  0445               	iorwf	(OLED_Printf_Line@val_527+2)^(0+128),w
  3897     0567  0444               	iorwf	(OLED_Printf_Line@val_527+1)^(0+128),w
  3898     0568  0443               	iorwf	OLED_Printf_Line@val_527^(0+128),w
  3899     0569  1903               	skipnz
  3900     056A  2D6C               	goto	u2781
  3901     056B  2D6D               	goto	u2780
  3902     056C                     u2781:
  3903     056C  2D83               	goto	l2639
  3904     056D                     u2780:
  3905     056D                     l2633:
  3906     056D  300B               	movlw	11
  3907     056E  0240               	subwf	OLED_Printf_Line@i_529^(0+128),w
  3908     056F  1C03               	skipc
  3909     0570  2D72               	goto	u2791
  3910     0571  2D73               	goto	u2790
  3911     0572                     u2791:
  3912     0572  2D29               	goto	l2625
  3913     0573                     u2790:
  3914     0573  2D83               	goto	l2639
  3915     0574                     l2635:
  3916     0574  084D               	movf	OLED_Printf_Line@dst^(0+128),w
  3917     0575  0086               	movwf	6
  3918     0576  0187               	clrf	7
  3919     0577  0840               	movf	OLED_Printf_Line@i_529^(0+128),w
  3920     0578  3E43               	addlw	(low (OLED_Printf_Line@temp_528| 0))& (0+255)
  3921     0579  0084               	movwf	4
  3922     057A  0185               	clrf	5
  3923     057B  0800               	movf	0,w
  3924     057C  0081               	movwf	1
  3925     057D                     l2637:
  3926     057D  3001               	movlw	1
  3927     057E  0020               	movlb	0	; select bank0
  3928     057F  00AC               	movwf	??_OLED_Printf_Line
  3929     0580  082C               	movf	??_OLED_Printf_Line,w
  3930     0581  0021               	movlb	1	; select bank1
  3931     0582  07CD               	addwf	OLED_Printf_Line@dst^(0+128),f
  3932     0583                     l2639:
  3933     0583  3001               	movlw	1
  3934     0584  02C0               	subwf	OLED_Printf_Line@i_529^(0+128),f
  3935     0585  0A40               	incf	OLED_Printf_Line@i_529^(0+128),w
  3936     0586  1D03               	btfss	3,2
  3937     0587  2D89               	goto	u2801
  3938     0588  2D8A               	goto	u2800
  3939     0589                     u2801:
  3940     0589  2D74               	goto	l2635
  3941     058A                     u2800:
  3942     058A  2DB0               	goto	l2651
  3943     058B                     l2641:
  3944                           
  3945                           ;OLED_SSD1306.c: 483:                         *dst++ = '%';
  3946     058B  084D               	movf	OLED_Printf_Line@dst^(0+128),w
  3947     058C  0086               	movwf	6
  3948     058D  0187               	clrf	7
  3949     058E  3025               	movlw	37
  3950     058F  0081               	movwf	1
  3951     0590                     l2643:
  3952     0590  3001               	movlw	1
  3953     0591  0020               	movlb	0	; select bank0
  3954     0592  00AC               	movwf	??_OLED_Printf_Line
  3955     0593  082C               	movf	??_OLED_Printf_Line,w
  3956     0594  0021               	movlb	1	; select bank1
  3957     0595  07CD               	addwf	OLED_Printf_Line@dst^(0+128),f
  3958     0596                     l2645:
  3959                           
  3960                           ;OLED_SSD1306.c: 484:                         *dst++ = 'l';
  3961     0596  084D               	movf	OLED_Printf_Line@dst^(0+128),w
  3962     0597  0086               	movwf	6
  3963     0598  0187               	clrf	7
  3964     0599  306C               	movlw	108
  3965     059A  0081               	movwf	1
  3966     059B  3001               	movlw	1
  3967     059C  0020               	movlb	0	; select bank0
  3968     059D  00AC               	movwf	??_OLED_Printf_Line
  3969     059E  082C               	movf	??_OLED_Printf_Line,w
  3970     059F  0021               	movlb	1	; select bank1
  3971     05A0  07CD               	addwf	OLED_Printf_Line@dst^(0+128),f
  3972     05A1                     l2647:
  3973                           
  3974                           ;OLED_SSD1306.c: 485:                         *dst++ = *src;
  3975     05A1  084D               	movf	OLED_Printf_Line@dst^(0+128),w
  3976     05A2  0086               	movwf	6
  3977     05A3  0187               	clrf	7
  3978     05A4  084B               	movf	OLED_Printf_Line@src^(0+128),w
  3979     05A5  0084               	movwf	4
  3980     05A6  084C               	movf	(OLED_Printf_Line@src+1)^(0+128),w
  3981     05A7  0085               	movwf	5
  3982     05A8  0800               	movf	0,w	;code access
  3983     05A9  0081               	movwf	1
  3984     05AA                     l2649:
  3985     05AA  3001               	movlw	1
  3986     05AB  0020               	movlb	0	; select bank0
  3987     05AC  00AC               	movwf	??_OLED_Printf_Line
  3988     05AD  082C               	movf	??_OLED_Printf_Line,w
  3989     05AE  0021               	movlb	1	; select bank1
  3990     05AF  07CD               	addwf	OLED_Printf_Line@dst^(0+128),f
  3991     05B0                     l2651:
  3992                           
  3993                           ;OLED_SSD1306.c: 487:                     src++;
  3994     05B0  3001               	movlw	1
  3995     05B1  07CB               	addwf	OLED_Printf_Line@src^(0+128),f
  3996     05B2  3000               	movlw	0
  3997     05B3  3DCC               	addwfc	(OLED_Printf_Line@src+1)^(0+128),f
  3998                           
  3999                           ;OLED_SSD1306.c: 488:                     break;
  4000     05B4  2EE9               	goto	l2739
  4001     05B5                     l2653:
  4002                           
  4003                           ;OLED_SSD1306.c: 491:                     uint16_t val = (*(unsigned int *)__va_arg(*(un
      +                          signed int **)ap, (unsigned int)0));
  4004     05B5  084A               	movf	OLED_Printf_Line@ap^(0+128),w
  4005     05B6  0086               	movwf	6
  4006     05B7  0187               	clrf	7
  4007     05B8  3F40               	moviw [0]fsr1
  4008     05B9  00BA               	movwf	OLED_Printf_Line@val_530^(0+128)
  4009     05BA  3F41               	moviw [1]fsr1
  4010     05BB  00BB               	movwf	(OLED_Printf_Line@val_530+1)^(0+128)
  4011     05BC                     l2655:
  4012     05BC  3002               	movlw	2
  4013     05BD  0020               	movlb	0	; select bank0
  4014     05BE  00AC               	movwf	??_OLED_Printf_Line
  4015     05BF  082C               	movf	??_OLED_Printf_Line,w
  4016     05C0  0021               	movlb	1	; select bank1
  4017     05C1  07CA               	addwf	OLED_Printf_Line@ap^(0+128),f
  4018     05C2                     l2657:
  4019                           
  4020                           ;OLED_SSD1306.c: 492:                     char temp[6];;OLED_SSD1306.c: 493:            
      +                                   uint8_t i = 0;
  4021     05C2  01C1               	clrf	OLED_Printf_Line@i_532^(0+128)
  4022     05C3                     l2659:
  4023                           
  4024                           ;OLED_SSD1306.c: 495:                         temp[i++] = '0' + (val % 10);
  4025     05C3  0841               	movf	OLED_Printf_Line@i_532^(0+128),w
  4026     05C4  3EA6               	addlw	(low (OLED_Printf_Line@temp_531| 0))& (0+255)
  4027     05C5  0086               	movwf	6
  4028     05C6  0187               	clrf	7
  4029     05C7  300A               	movlw	10
  4030     05C8  00F0               	movwf	___lwmod@divisor
  4031     05C9  3000               	movlw	0
  4032     05CA  00F1               	movwf	___lwmod@divisor+1
  4033     05CB  083B               	movf	(OLED_Printf_Line@val_530+1)^(0+128),w
  4034     05CC  00F3               	movwf	___lwmod@dividend+1
  4035     05CD  083A               	movf	OLED_Printf_Line@val_530^(0+128),w
  4036     05CE  00F2               	movwf	___lwmod@dividend
  4037     05CF  318E  2620  3183   	fcall	___lwmod
  4038     05D2  0870               	movf	?___lwmod,w
  4039     05D3  3E30               	addlw	48
  4040     05D4  0081               	movwf	1
  4041     05D5                     l2661:
  4042     05D5  3001               	movlw	1
  4043     05D6  0020               	movlb	0	; select bank0
  4044     05D7  00AC               	movwf	??_OLED_Printf_Line
  4045     05D8  082C               	movf	??_OLED_Printf_Line,w
  4046     05D9  0021               	movlb	1	; select bank1
  4047     05DA  07C1               	addwf	OLED_Printf_Line@i_532^(0+128),f
  4048     05DB                     l2663:
  4049                           
  4050                           ;OLED_SSD1306.c: 496:                         val /= 10;
  4051     05DB  300A               	movlw	10
  4052     05DC  00F0               	movwf	___lwdiv@divisor
  4053     05DD  3000               	movlw	0
  4054     05DE  00F1               	movwf	___lwdiv@divisor+1
  4055     05DF  083B               	movf	(OLED_Printf_Line@val_530+1)^(0+128),w
  4056     05E0  00F3               	movwf	___lwdiv@dividend+1
  4057     05E1  083A               	movf	OLED_Printf_Line@val_530^(0+128),w
  4058     05E2  00F2               	movwf	___lwdiv@dividend
  4059     05E3  318E  2654  3183   	fcall	___lwdiv
  4060     05E6  0871               	movf	?___lwdiv+1,w
  4061     05E7  0021               	movlb	1	; select bank1
  4062     05E8  00BB               	movwf	(OLED_Printf_Line@val_530+1)^(0+128)
  4063     05E9  0870               	movf	?___lwdiv,w
  4064     05EA  00BA               	movwf	OLED_Printf_Line@val_530^(0+128)
  4065     05EB                     l2665:
  4066                           
  4067                           ;OLED_SSD1306.c: 497:                     } while (val && i < 6);
  4068     05EB  083A               	movf	OLED_Printf_Line@val_530^(0+128),w
  4069     05EC  043B               	iorwf	(OLED_Printf_Line@val_530+1)^(0+128),w
  4070     05ED  1903               	btfsc	3,2
  4071     05EE  2DF0               	goto	u2811
  4072     05EF  2DF1               	goto	u2810
  4073     05F0                     u2811:
  4074     05F0  2E07               	goto	l2673
  4075     05F1                     u2810:
  4076     05F1                     l2667:
  4077     05F1  3006               	movlw	6
  4078     05F2  0241               	subwf	OLED_Printf_Line@i_532^(0+128),w
  4079     05F3  1C03               	skipc
  4080     05F4  2DF6               	goto	u2821
  4081     05F5  2DF7               	goto	u2820
  4082     05F6                     u2821:
  4083     05F6  2DC3               	goto	l2659
  4084     05F7                     u2820:
  4085     05F7  2E07               	goto	l2673
  4086     05F8                     l2669:
  4087     05F8  084D               	movf	OLED_Printf_Line@dst^(0+128),w
  4088     05F9  0086               	movwf	6
  4089     05FA  0187               	clrf	7
  4090     05FB  0841               	movf	OLED_Printf_Line@i_532^(0+128),w
  4091     05FC  3EA6               	addlw	(low (OLED_Printf_Line@temp_531| 0))& (0+255)
  4092     05FD  0084               	movwf	4
  4093     05FE  0185               	clrf	5
  4094     05FF  0800               	movf	0,w
  4095     0600  0081               	movwf	1
  4096     0601                     l2671:
  4097     0601  3001               	movlw	1
  4098     0602  0020               	movlb	0	; select bank0
  4099     0603  00AC               	movwf	??_OLED_Printf_Line
  4100     0604  082C               	movf	??_OLED_Printf_Line,w
  4101     0605  0021               	movlb	1	; select bank1
  4102     0606  07CD               	addwf	OLED_Printf_Line@dst^(0+128),f
  4103     0607                     l2673:
  4104     0607  3001               	movlw	1
  4105     0608  02C1               	subwf	OLED_Printf_Line@i_532^(0+128),f
  4106     0609  0A41               	incf	OLED_Printf_Line@i_532^(0+128),w
  4107     060A  1D03               	btfss	3,2
  4108     060B  2E0D               	goto	u2831
  4109     060C  2E0E               	goto	u2830
  4110     060D                     u2831:
  4111     060D  2DF8               	goto	l2669
  4112     060E                     u2830:
  4113     060E  2EE9               	goto	l2739
  4114     060F                     l2675:
  4115                           
  4116                           ;OLED_SSD1306.c: 502:                     uint16_t val = (*(unsigned int *)__va_arg(*(un
      +                          signed int **)ap, (unsigned int)0));
  4117     060F  084A               	movf	OLED_Printf_Line@ap^(0+128),w
  4118     0610  0086               	movwf	6
  4119     0611  0187               	clrf	7
  4120     0612  3F40               	moviw [0]fsr1
  4121     0613  00B1               	movwf	OLED_Printf_Line@val_533^(0+128)
  4122     0614  3F41               	moviw [1]fsr1
  4123     0615  00B2               	movwf	(OLED_Printf_Line@val_533+1)^(0+128)
  4124     0616                     l2677:
  4125     0616  3002               	movlw	2
  4126     0617  0020               	movlb	0	; select bank0
  4127     0618  00AC               	movwf	??_OLED_Printf_Line
  4128     0619  082C               	movf	??_OLED_Printf_Line,w
  4129     061A  0021               	movlb	1	; select bank1
  4130     061B  07CA               	addwf	OLED_Printf_Line@ap^(0+128),f
  4131     061C                     l2679:
  4132                           
  4133                           ;OLED_SSD1306.c: 503:                     char temp[5];;OLED_SSD1306.c: 504:            
      +                                   uint8_t i = 0;
  4134     061C  01C2               	clrf	OLED_Printf_Line@i_535^(0+128)
  4135     061D                     l2681:
  4136                           
  4137                           ;OLED_SSD1306.c: 506:                         uint8_t nibble = val & 0xF;
  4138     061D  0831               	movf	OLED_Printf_Line@val_533^(0+128),w
  4139     061E  390F               	andlw	15
  4140     061F  00BC               	movwf	OLED_Printf_Line@nibble^(0+128)
  4141     0620                     l2683:
  4142                           
  4143                           ;OLED_SSD1306.c: 507:                         temp[i++] = (nibble < 10) ? ('0' + nibble)
      +                           : ('A' + nibble - 10);
  4144     0620  300A               	movlw	10
  4145     0621  023C               	subwf	OLED_Printf_Line@nibble^(0+128),w
  4146     0622  1C03               	skipc
  4147     0623  2E25               	goto	u2841
  4148     0624  2E26               	goto	u2840
  4149     0625                     u2841:
  4150     0625  2E2F               	goto	l2687
  4151     0626                     u2840:
  4152     0626                     l2685:
  4153     0626  083C               	movf	OLED_Printf_Line@nibble^(0+128),w
  4154     0627  3E37               	addlw	55
  4155     0628  0020               	movlb	0	; select bank0
  4156     0629  00EE               	movwf	_OLED_Printf_Line$537
  4157     062A  3000               	movlw	0
  4158     062B  1803               	skipnc
  4159     062C  3001               	movlw	1
  4160     062D  00EF               	movwf	_OLED_Printf_Line$537+1
  4161     062E  2E37               	goto	l2689
  4162     062F                     l2687:
  4163     062F  083C               	movf	OLED_Printf_Line@nibble^(0+128),w
  4164     0630  3E30               	addlw	48
  4165     0631  0020               	movlb	0	; select bank0
  4166     0632  00EE               	movwf	_OLED_Printf_Line$537
  4167     0633  3000               	movlw	0
  4168     0634  1803               	skipnc
  4169     0635  3001               	movlw	1
  4170     0636  00EF               	movwf	_OLED_Printf_Line$537+1
  4171     0637                     l2689:
  4172     0637  0021               	movlb	1	; select bank1
  4173     0638  0842               	movf	OLED_Printf_Line@i_535^(0+128),w
  4174     0639  3EAC               	addlw	(low (OLED_Printf_Line@temp_534| 0))& (0+255)
  4175     063A  0086               	movwf	6
  4176     063B  0187               	clrf	7
  4177     063C  0020               	movlb	0	; select bank0
  4178     063D  086E               	movf	_OLED_Printf_Line$537,w
  4179     063E  0081               	movwf	1
  4180     063F                     l2691:
  4181     063F  3001               	movlw	1
  4182     0640  00AC               	movwf	??_OLED_Printf_Line
  4183     0641  082C               	movf	??_OLED_Printf_Line,w
  4184     0642  0021               	movlb	1	; select bank1
  4185     0643  07C2               	addwf	OLED_Printf_Line@i_535^(0+128),f
  4186     0644                     l2693:
  4187                           
  4188                           ;OLED_SSD1306.c: 508:                         val >>= 4;
  4189     0644  3004               	movlw	4
  4190     0645                     u2855:
  4191     0645  36B2               	lsrf	(OLED_Printf_Line@val_533+1)^(0+128),f
  4192     0646  0CB1               	rrf	OLED_Printf_Line@val_533^(0+128),f
  4193     0647  0B89               	decfsz	9,f
  4194     0648  2E45               	goto	u2855
  4195     0649                     l2695:
  4196                           
  4197                           ;OLED_SSD1306.c: 509:                     } while (val && i < 5);
  4198     0649  0831               	movf	OLED_Printf_Line@val_533^(0+128),w
  4199     064A  0432               	iorwf	(OLED_Printf_Line@val_533+1)^(0+128),w
  4200     064B  1903               	btfsc	3,2
  4201     064C  2E4E               	goto	u2861
  4202     064D  2E4F               	goto	u2860
  4203     064E                     u2861:
  4204     064E  2E65               	goto	l2703
  4205     064F                     u2860:
  4206     064F                     l2697:
  4207     064F  3005               	movlw	5
  4208     0650  0242               	subwf	OLED_Printf_Line@i_535^(0+128),w
  4209     0651  1C03               	skipc
  4210     0652  2E54               	goto	u2871
  4211     0653  2E55               	goto	u2870
  4212     0654                     u2871:
  4213     0654  2E1D               	goto	l2681
  4214     0655                     u2870:
  4215     0655  2E65               	goto	l2703
  4216     0656                     l2699:
  4217     0656  084D               	movf	OLED_Printf_Line@dst^(0+128),w
  4218     0657  0086               	movwf	6
  4219     0658  0187               	clrf	7
  4220     0659  0842               	movf	OLED_Printf_Line@i_535^(0+128),w
  4221     065A  3EAC               	addlw	(low (OLED_Printf_Line@temp_534| 0))& (0+255)
  4222     065B  0084               	movwf	4
  4223     065C  0185               	clrf	5
  4224     065D  0800               	movf	0,w
  4225     065E  0081               	movwf	1
  4226     065F                     l2701:
  4227     065F  3001               	movlw	1
  4228     0660  0020               	movlb	0	; select bank0
  4229     0661  00AC               	movwf	??_OLED_Printf_Line
  4230     0662  082C               	movf	??_OLED_Printf_Line,w
  4231     0663  0021               	movlb	1	; select bank1
  4232     0664  07CD               	addwf	OLED_Printf_Line@dst^(0+128),f
  4233     0665                     l2703:
  4234     0665  3001               	movlw	1
  4235     0666  02C2               	subwf	OLED_Printf_Line@i_535^(0+128),f
  4236     0667  0A42               	incf	OLED_Printf_Line@i_535^(0+128),w
  4237     0668  1D03               	btfss	3,2
  4238     0669  2E6B               	goto	u2881
  4239     066A  2E6C               	goto	u2880
  4240     066B                     u2881:
  4241     066B  2E56               	goto	l2699
  4242     066C                     u2880:
  4243     066C  2EE9               	goto	l2739
  4244     066D                     l2705:
  4245                           
  4246                           ;OLED_SSD1306.c: 514:                     const char *str = (*(const char* *)__va_arg(*(
      +                          const char* **)ap, (const char*)0));
  4247     066D  084A               	movf	OLED_Printf_Line@ap^(0+128),w
  4248     066E  0086               	movwf	6
  4249     066F  0187               	clrf	7
  4250     0670  0801               	movf	1,w
  4251     0671  00B3               	movwf	OLED_Printf_Line@str^(0+128)
  4252     0672                     l2707:
  4253     0672  3001               	movlw	1
  4254     0673  0020               	movlb	0	; select bank0
  4255     0674  00AC               	movwf	??_OLED_Printf_Line
  4256     0675  082C               	movf	??_OLED_Printf_Line,w
  4257     0676  0021               	movlb	1	; select bank1
  4258     0677  07CA               	addwf	OLED_Printf_Line@ap^(0+128),f
  4259                           
  4260                           ;OLED_SSD1306.c: 515:                     while (*str && (dst - buf) < 31) {
  4261     0678  2E8D               	goto	l2715
  4262     0679                     l2709:
  4263                           
  4264                           ;OLED_SSD1306.c: 516:                         *dst++ = *str++;
  4265     0679  084D               	movf	OLED_Printf_Line@dst^(0+128),w
  4266     067A  0086               	movwf	6
  4267     067B  0187               	clrf	7
  4268     067C  0833               	movf	OLED_Printf_Line@str^(0+128),w
  4269     067D  0084               	movwf	4
  4270     067E  0185               	clrf	5
  4271     067F  0800               	movf	0,w
  4272     0680  0081               	movwf	1
  4273     0681                     l2711:
  4274     0681  3001               	movlw	1
  4275     0682  0020               	movlb	0	; select bank0
  4276     0683  00AC               	movwf	??_OLED_Printf_Line
  4277     0684  082C               	movf	??_OLED_Printf_Line,w
  4278     0685  0021               	movlb	1	; select bank1
  4279     0686  07B3               	addwf	OLED_Printf_Line@str^(0+128),f
  4280     0687                     l2713:
  4281     0687  3001               	movlw	1
  4282     0688  0020               	movlb	0	; select bank0
  4283     0689  00AC               	movwf	??_OLED_Printf_Line
  4284     068A  082C               	movf	??_OLED_Printf_Line,w
  4285     068B  0021               	movlb	1	; select bank1
  4286     068C  07CD               	addwf	OLED_Printf_Line@dst^(0+128),f
  4287     068D                     l2715:
  4288                           
  4289                           ;OLED_SSD1306.c: 515:                     while (*str && (dst - buf) < 31) {
  4290     068D  0833               	movf	OLED_Printf_Line@str^(0+128),w
  4291     068E  0086               	movwf	6
  4292     068F  0187               	clrf	7
  4293     0690  0801               	movf	1,w
  4294     0691  1903               	btfsc	3,2
  4295     0692  2E94               	goto	u2891
  4296     0693  2E95               	goto	u2890
  4297     0694                     u2891:
  4298     0694  2EE9               	goto	l2739
  4299     0695                     u2890:
  4300     0695                     l2717:
  4301     0695  304E               	movlw	(low OLED_Printf_Line@buf)& (0+255)
  4302     0696  024D               	subwf	OLED_Printf_Line@dst^(0+128),w
  4303     0697  3A80               	xorlw	128
  4304     0698  3E61               	addlw	-159
  4305     0699  1C03               	skipc
  4306     069A  2E9C               	goto	u2901
  4307     069B  2E9D               	goto	u2900
  4308     069C                     u2901:
  4309     069C  2E79               	goto	l2709
  4310     069D                     u2900:
  4311     069D  2EE9               	goto	l2739
  4312     069E                     l2719:
  4313                           
  4314                           ;OLED_SSD1306.c: 521:                     *dst++ = (char)(*(int *)__va_arg(*(int **)ap, 
      +                          (int)0));
  4315     069E  084D               	movf	OLED_Printf_Line@dst^(0+128),w
  4316     069F  0086               	movwf	6
  4317     06A0  0187               	clrf	7
  4318     06A1  084A               	movf	OLED_Printf_Line@ap^(0+128),w
  4319     06A2  0084               	movwf	4
  4320     06A3  0185               	clrf	5
  4321     06A4  0800               	movf	0,w
  4322     06A5  0081               	movwf	1
  4323     06A6                     l2721:
  4324     06A6  3002               	movlw	2
  4325     06A7  0020               	movlb	0	; select bank0
  4326     06A8  00AC               	movwf	??_OLED_Printf_Line
  4327     06A9  082C               	movf	??_OLED_Printf_Line,w
  4328     06AA  0021               	movlb	1	; select bank1
  4329     06AB  07CA               	addwf	OLED_Printf_Line@ap^(0+128),f
  4330     06AC                     l2723:
  4331     06AC  3001               	movlw	1
  4332     06AD  0020               	movlb	0	; select bank0
  4333     06AE  00AC               	movwf	??_OLED_Printf_Line
  4334     06AF  082C               	movf	??_OLED_Printf_Line,w
  4335     06B0  0021               	movlb	1	; select bank1
  4336     06B1  07CD               	addwf	OLED_Printf_Line@dst^(0+128),f
  4337                           
  4338                           ;OLED_SSD1306.c: 522:                     break;
  4339     06B2  2EE9               	goto	l2739
  4340     06B3                     l2725:
  4341                           
  4342                           ;OLED_SSD1306.c: 525:                     *dst++ = '%';
  4343     06B3  084D               	movf	OLED_Printf_Line@dst^(0+128),w
  4344     06B4  0086               	movwf	6
  4345     06B5  0187               	clrf	7
  4346     06B6  3025               	movlw	37
  4347     06B7  0081               	movwf	1
  4348     06B8  2EAC               	goto	l2723
  4349     06B9                     l2729:
  4350                           
  4351                           ;OLED_SSD1306.c: 529:                     *dst++ = '%';
  4352     06B9  084D               	movf	OLED_Printf_Line@dst^(0+128),w
  4353     06BA  0086               	movwf	6
  4354     06BB  0187               	clrf	7
  4355     06BC  3025               	movlw	37
  4356     06BD  0081               	movwf	1
  4357     06BE                     l2731:
  4358     06BE  3001               	movlw	1
  4359     06BF  0020               	movlb	0	; select bank0
  4360     06C0  00AC               	movwf	??_OLED_Printf_Line
  4361     06C1  082C               	movf	??_OLED_Printf_Line,w
  4362     06C2  0021               	movlb	1	; select bank1
  4363     06C3  07CD               	addwf	OLED_Printf_Line@dst^(0+128),f
  4364     06C4                     l2733:
  4365                           
  4366                           ;OLED_SSD1306.c: 530:                     *dst++ = *src;
  4367     06C4  084D               	movf	OLED_Printf_Line@dst^(0+128),w
  4368     06C5  0086               	movwf	6
  4369     06C6  0187               	clrf	7
  4370     06C7  084B               	movf	OLED_Printf_Line@src^(0+128),w
  4371     06C8  0084               	movwf	4
  4372     06C9  084C               	movf	(OLED_Printf_Line@src+1)^(0+128),w
  4373     06CA  0085               	movwf	5
  4374     06CB  0800               	movf	0,w	;code access
  4375     06CC  0081               	movwf	1
  4376     06CD  2EAC               	goto	l2723
  4377     06CE                     l2737:
  4378     06CE  084B               	movf	OLED_Printf_Line@src^(0+128),w
  4379     06CF  0084               	movwf	4
  4380     06D0  084C               	movf	(OLED_Printf_Line@src+1)^(0+128),w
  4381     06D1  0085               	movwf	5
  4382     06D2  0800               	movf	0,w	;code access
  4383                           
  4384                           ; Switch size 1, requested type "simple"
  4385                           ; Number of cases is 7, Range of values is 37 to 120
  4386                           ; switch strategies available:
  4387                           ; Name         Instructions Cycles
  4388                           ; simple_byte           22    12 (average)
  4389                           ; direct_byte          177     9 (fixed)
  4390                           ; jumptable            263     9 (fixed)
  4391                           ;	Chosen strategy is simple_byte
  4392     06D3  3A25               	xorlw	37	; case 37
  4393     06D4  1903               	skipnz
  4394     06D5  2EB3               	goto	l2725
  4395     06D6  3A46               	xorlw	70	; case 99
  4396     06D7  1903               	skipnz
  4397     06D8  2E9E               	goto	l2719
  4398     06D9  3A07               	xorlw	7	; case 100
  4399     06DA  1903               	skipnz
  4400     06DB  2C03               	goto	l2553
  4401     06DC  3A08               	xorlw	8	; case 108
  4402     06DD  1903               	skipnz
  4403     06DE  2C71               	goto	l2583
  4404     06DF  3A1F               	xorlw	31	; case 115
  4405     06E0  1903               	skipnz
  4406     06E1  2E6D               	goto	l2705
  4407     06E2  3A06               	xorlw	6	; case 117
  4408     06E3  1903               	skipnz
  4409     06E4  2DB5               	goto	l2653
  4410     06E5  3A0D               	xorlw	13	; case 120
  4411     06E6  1903               	skipnz
  4412     06E7  2E0F               	goto	l2675
  4413     06E8  2EB9               	goto	l2729
  4414     06E9                     l2739:
  4415                           
  4416                           ;OLED_SSD1306.c: 532:             src++;
  4417     06E9  3001               	movlw	1
  4418     06EA  07CB               	addwf	OLED_Printf_Line@src^(0+128),f
  4419     06EB  3000               	movlw	0
  4420     06EC  3DCC               	addwfc	(OLED_Printf_Line@src+1)^(0+128),f
  4421                           
  4422                           ;OLED_SSD1306.c: 533:         } else {
  4423     06ED  2F01               	goto	l2747
  4424     06EE                     l2741:
  4425                           
  4426                           ;OLED_SSD1306.c: 534:             *dst++ = *src++;
  4427     06EE  084D               	movf	OLED_Printf_Line@dst^(0+128),w
  4428     06EF  0086               	movwf	6
  4429     06F0  0187               	clrf	7
  4430     06F1  084B               	movf	OLED_Printf_Line@src^(0+128),w
  4431     06F2  0084               	movwf	4
  4432     06F3  084C               	movf	(OLED_Printf_Line@src+1)^(0+128),w
  4433     06F4  0085               	movwf	5
  4434     06F5  0800               	movf	0,w	;code access
  4435     06F6  0081               	movwf	1
  4436     06F7                     l2743:
  4437     06F7  3001               	movlw	1
  4438     06F8  07CB               	addwf	OLED_Printf_Line@src^(0+128),f
  4439     06F9  3000               	movlw	0
  4440     06FA  3DCC               	addwfc	(OLED_Printf_Line@src+1)^(0+128),f
  4441     06FB                     l2745:
  4442     06FB  3001               	movlw	1
  4443     06FC  0020               	movlb	0	; select bank0
  4444     06FD  00AC               	movwf	??_OLED_Printf_Line
  4445     06FE  082C               	movf	??_OLED_Printf_Line,w
  4446     06FF  0021               	movlb	1	; select bank1
  4447     0700  07CD               	addwf	OLED_Printf_Line@dst^(0+128),f
  4448     0701                     l2747:
  4449                           
  4450                           ;OLED_SSD1306.c: 437:     while (*src && (dst - buf) < 31) {
  4451     0701  084B               	movf	OLED_Printf_Line@src^(0+128),w
  4452     0702  0084               	movwf	4
  4453     0703  084C               	movf	(OLED_Printf_Line@src+1)^(0+128),w
  4454     0704  0085               	movwf	5
  4455     0705  0012               	moviw fsr0++
  4456     0706  1903               	btfsc	3,2
  4457     0707  2F09               	goto	u2911
  4458     0708  2F0A               	goto	u2910
  4459     0709                     u2911:
  4460     0709  2F12               	goto	l2751
  4461     070A                     u2910:
  4462     070A                     l2749:
  4463     070A  304E               	movlw	(low OLED_Printf_Line@buf)& (0+255)
  4464     070B  024D               	subwf	OLED_Printf_Line@dst^(0+128),w
  4465     070C  3A80               	xorlw	128
  4466     070D  3E61               	addlw	-159
  4467     070E  1C03               	skipc
  4468     070F  2F11               	goto	u2921
  4469     0710  2F12               	goto	u2920
  4470     0711                     u2921:
  4471     0711  2BF4               	goto	l2549
  4472     0712                     u2920:
  4473     0712                     l2751:
  4474                           
  4475                           ;OLED_SSD1306.c: 537:     *dst = '\0';
  4476     0712  084D               	movf	OLED_Printf_Line@dst^(0+128),w
  4477     0713  0086               	movwf	6
  4478     0714  0187               	clrf	7
  4479     0715  0181               	clrf	1
  4480     0716                     l2753:
  4481                           
  4482                           ;OLED_SSD1306.c: 541:     if (strcmp(buf, last_text[line]) == 0) return;
  4483     0716  0849               	movf	OLED_Printf_Line@line^(0+128),w
  4484     0717  0020               	movlb	0	; select bank0
  4485     0718  00AC               	movwf	??_OLED_Printf_Line
  4486     0719  01AD               	clrf	??_OLED_Printf_Line+1
  4487     071A  3005               	movlw	5
  4488     071B                     u2935:
  4489     071B  35AC               	lslf	??_OLED_Printf_Line,f
  4490     071C  0DAD               	rlf	??_OLED_Printf_Line+1,f
  4491     071D  0B89               	decfsz	9,f
  4492     071E  2F1B               	goto	u2935
  4493     071F  30F0               	movlw	240
  4494     0720  00AE               	movwf	??_OLED_Printf_Line+2
  4495     0721  3026               	movlw	38
  4496     0722  00AF               	movwf	??_OLED_Printf_Line+3
  4497     0723  082C               	movf	??_OLED_Printf_Line,w
  4498     0724  072E               	addwf	??_OLED_Printf_Line+2,w
  4499     0725  00B0               	movwf	??_OLED_Printf_Line+4
  4500     0726  082D               	movf	??_OLED_Printf_Line+1,w
  4501     0727  3D2F               	addwfc	??_OLED_Printf_Line+3,w
  4502     0728  00B1               	movwf	??_OLED_Printf_Line+5
  4503     0729  0830               	movf	??_OLED_Printf_Line+4,w
  4504     072A  00F0               	movwf	strcmp@r
  4505     072B  0831               	movf	??_OLED_Printf_Line+5,w
  4506     072C  00F1               	movwf	strcmp@r+1
  4507     072D  304E               	movlw	(low (OLED_Printf_Line@buf| 0))& (0+255)
  4508     072E  318D  2593  3183   	fcall	_strcmp
  4509     0731  0870               	movf	?_strcmp,w
  4510     0732  0471               	iorwf	?_strcmp+1,w
  4511     0733  1D03               	btfss	3,2
  4512     0734  2F36               	goto	u2941
  4513     0735  2F37               	goto	u2940
  4514     0736                     u2941:
  4515     0736  2F38               	goto	l2757
  4516     0737                     u2940:
  4517     0737  2FF1               	goto	l253
  4518     0738                     l2757:
  4519                           
  4520                           ;OLED_SSD1306.c: 542:     strcpy(last_text[line], buf);
  4521     0738  0021               	movlb	1	; select bank1
  4522     0739  0849               	movf	OLED_Printf_Line@line^(0+128),w
  4523     073A  0020               	movlb	0	; select bank0
  4524     073B  00AC               	movwf	??_OLED_Printf_Line
  4525     073C  01AD               	clrf	??_OLED_Printf_Line+1
  4526     073D  3005               	movlw	5
  4527     073E                     u2955:
  4528     073E  35AC               	lslf	??_OLED_Printf_Line,f
  4529     073F  0DAD               	rlf	??_OLED_Printf_Line+1,f
  4530     0740  0B89               	decfsz	9,f
  4531     0741  2F3E               	goto	u2955
  4532     0742  30F0               	movlw	240
  4533     0743  00AE               	movwf	??_OLED_Printf_Line+2
  4534     0744  3026               	movlw	38
  4535     0745  00AF               	movwf	??_OLED_Printf_Line+3
  4536     0746  082C               	movf	??_OLED_Printf_Line,w
  4537     0747  072E               	addwf	??_OLED_Printf_Line+2,w
  4538     0748  00F0               	movwf	strcpy@dest
  4539     0749  082D               	movf	??_OLED_Printf_Line+1,w
  4540     074A  3D2F               	addwfc	??_OLED_Printf_Line+3,w
  4541     074B  00F1               	movwf	strcpy@dest+1
  4542     074C  304E               	movlw	(low (OLED_Printf_Line@buf| 0))& (0+255)
  4543     074D  00F2               	movwf	strcpy@src
  4544     074E  318C  243B  3183   	fcall	_strcpy
  4545     0751                     l2759:
  4546                           
  4547                           ;OLED_SSD1306.c: 545:     memset(screen_buffer[line], 0, 128);
  4548     0751  0021               	movlb	1	; select bank1
  4549     0752  0849               	movf	OLED_Printf_Line@line^(0+128),w
  4550     0753  0020               	movlb	0	; select bank0
  4551     0754  00AC               	movwf	??_OLED_Printf_Line
  4552     0755  01AD               	clrf	??_OLED_Printf_Line+1
  4553     0756  3007               	movlw	7
  4554     0757                     u2965:
  4555     0757  35AC               	lslf	??_OLED_Printf_Line,f
  4556     0758  0DAD               	rlf	??_OLED_Printf_Line+1,f
  4557     0759  0B89               	decfsz	9,f
  4558     075A  2F57               	goto	u2965
  4559     075B  30F0               	movlw	240
  4560     075C  00AE               	movwf	??_OLED_Printf_Line+2
  4561     075D  3024               	movlw	36
  4562     075E  00AF               	movwf	??_OLED_Printf_Line+3
  4563     075F  082C               	movf	??_OLED_Printf_Line,w
  4564     0760  072E               	addwf	??_OLED_Printf_Line+2,w
  4565     0761  00F0               	movwf	memset@dest
  4566     0762  082D               	movf	??_OLED_Printf_Line+1,w
  4567     0763  3D2F               	addwfc	??_OLED_Printf_Line+3,w
  4568     0764  00F1               	movwf	memset@dest+1
  4569     0765  3000               	movlw	0
  4570     0766  00F2               	movwf	memset@c
  4571     0767  00F3               	movwf	memset@c+1
  4572     0768  3080               	movlw	128
  4573     0769  00F4               	movwf	memset@n
  4574     076A  3000               	movlw	0
  4575     076B  00F5               	movwf	memset@n+1
  4576     076C  318C  2456  3183   	fcall	_memset
  4577     076F                     l2761:
  4578                           
  4579                           ;OLED_SSD1306.c: 548:     uint8_t col = 0;
  4580     076F  0021               	movlb	1	; select bank1
  4581     0770  01B4               	clrf	OLED_Printf_Line@col^(0+128)
  4582     0771                     l2763:
  4583                           
  4584                           ;OLED_SSD1306.c: 549:     for (const char* p = buf; *p && (col + 8) <= 128; ++p)
  4585     0771  304E               	movlw	(low (OLED_Printf_Line@buf| 0))& (0+255)
  4586     0772  00B5               	movwf	OLED_Printf_Line@p^(0+128)
  4587     0773  2FCF               	goto	l2779
  4588     0774                     l2765:
  4589                           
  4590                           ;OLED_SSD1306.c: 550:     {;OLED_SSD1306.c: 551:         char ch = *p;
  4591     0774  0021               	movlb	1	; select bank1
  4592     0775  0835               	movf	OLED_Printf_Line@p^(0+128),w
  4593     0776  0086               	movwf	6
  4594     0777  0187               	clrf	7
  4595     0778  0801               	movf	1,w
  4596     0779  00BD               	movwf	OLED_Printf_Line@ch^(0+128)
  4597     077A                     l2767:
  4598                           
  4599                           ;OLED_SSD1306.c: 552:         if (ch < 32 || ch > 127) ch = ' ';
  4600     077A  3020               	movlw	32
  4601     077B  023D               	subwf	OLED_Printf_Line@ch^(0+128),w
  4602     077C  1C03               	skipc
  4603     077D  2F7F               	goto	u2971
  4604     077E  2F80               	goto	u2970
  4605     077F                     u2971:
  4606     077F  2F86               	goto	l2771
  4607     0780                     u2970:
  4608     0780                     l2769:
  4609     0780  3080               	movlw	128
  4610     0781  023D               	subwf	OLED_Printf_Line@ch^(0+128),w
  4611     0782  1C03               	skipc
  4612     0783  2F85               	goto	u2981
  4613     0784  2F86               	goto	u2980
  4614     0785                     u2981:
  4615     0785  2F88               	goto	l2773
  4616     0786                     u2980:
  4617     0786                     l2771:
  4618     0786  3020               	movlw	32
  4619     0787  00BD               	movwf	OLED_Printf_Line@ch^(0+128)
  4620     0788                     l2773:
  4621                           
  4622                           ;OLED_SSD1306.c: 554:         memcpy(&screen_buffer[line][col], &OledFont[(uint8_t)(ch -
      +                           32)][0], 8);
  4623     0788  0834               	movf	OLED_Printf_Line@col^(0+128),w
  4624     0789  0020               	movlb	0	; select bank0
  4625     078A  00AC               	movwf	??_OLED_Printf_Line
  4626     078B  01AD               	clrf	??_OLED_Printf_Line+1
  4627     078C  0021               	movlb	1	; select bank1
  4628     078D  0849               	movf	OLED_Printf_Line@line^(0+128),w
  4629     078E  0020               	movlb	0	; select bank0
  4630     078F  00AE               	movwf	??_OLED_Printf_Line+2
  4631     0790  01AF               	clrf	??_OLED_Printf_Line+3
  4632     0791  3007               	movlw	7
  4633     0792                     u2995:
  4634     0792  35AE               	lslf	??_OLED_Printf_Line+2,f
  4635     0793  0DAF               	rlf	??_OLED_Printf_Line+3,f
  4636     0794  0B89               	decfsz	9,f
  4637     0795  2F92               	goto	u2995
  4638     0796  30F0               	movlw	240
  4639     0797  00B0               	movwf	??_OLED_Printf_Line+4
  4640     0798  3024               	movlw	36
  4641     0799  00B1               	movwf	??_OLED_Printf_Line+5
  4642     079A  082E               	movf	??_OLED_Printf_Line+2,w
  4643     079B  0730               	addwf	??_OLED_Printf_Line+4,w
  4644     079C  00B2               	movwf	??_OLED_Printf_Line+6
  4645     079D  082F               	movf	??_OLED_Printf_Line+3,w
  4646     079E  3D31               	addwfc	??_OLED_Printf_Line+5,w
  4647     079F  00B3               	movwf	??_OLED_Printf_Line+7
  4648     07A0  082C               	movf	??_OLED_Printf_Line,w
  4649     07A1  0732               	addwf	??_OLED_Printf_Line+6,w
  4650     07A2  00F0               	movwf	memcpy@d1
  4651     07A3  082D               	movf	??_OLED_Printf_Line+1,w
  4652     07A4  3D33               	addwfc	??_OLED_Printf_Line+7,w
  4653     07A5  00F1               	movwf	memcpy@d1+1
  4654     07A6  0021               	movlb	1	; select bank1
  4655     07A7  083D               	movf	OLED_Printf_Line@ch^(0+128),w
  4656     07A8  3EE0               	addlw	224
  4657     07A9  0020               	movlb	0	; select bank0
  4658     07AA  00B4               	movwf	??_OLED_Printf_Line+8
  4659     07AB  01B5               	clrf	??_OLED_Printf_Line+9
  4660     07AC  35B4               	lslf	??_OLED_Printf_Line+8,f
  4661     07AD  0DB5               	rlf	??_OLED_Printf_Line+9,f
  4662     07AE  35B4               	lslf	??_OLED_Printf_Line+8,f
  4663     07AF  0DB5               	rlf	??_OLED_Printf_Line+9,f
  4664     07B0  35B4               	lslf	??_OLED_Printf_Line+8,f
  4665     07B1  0DB5               	rlf	??_OLED_Printf_Line+9,f
  4666     07B2  3000               	movlw	low (_OledFont| (0+32768))
  4667     07B3  00B6               	movwf	??_OLED_Printf_Line+10
  4668     07B4  3088               	movlw	high (_OledFont| (0+32768))
  4669     07B5  00B7               	movwf	??_OLED_Printf_Line+11
  4670     07B6  0834               	movf	??_OLED_Printf_Line+8,w
  4671     07B7  0736               	addwf	??_OLED_Printf_Line+10,w
  4672     07B8  00F2               	movwf	memcpy@s1
  4673     07B9  0835               	movf	??_OLED_Printf_Line+9,w
  4674     07BA  3D37               	addwfc	??_OLED_Printf_Line+11,w
  4675     07BB  00F3               	movwf	memcpy@s1+1
  4676     07BC  3008               	movlw	8
  4677     07BD  00F4               	movwf	memcpy@n
  4678     07BE  3000               	movlw	0
  4679     07BF  00F5               	movwf	memcpy@n+1
  4680     07C0  318D  253D  3183   	fcall	_memcpy
  4681     07C3                     l2775:
  4682                           
  4683                           ;OLED_SSD1306.c: 555:         col += 8;
  4684     07C3  3008               	movlw	8
  4685     07C4  0020               	movlb	0	; select bank0
  4686     07C5  00AC               	movwf	??_OLED_Printf_Line
  4687     07C6  082C               	movf	??_OLED_Printf_Line,w
  4688     07C7  0021               	movlb	1	; select bank1
  4689     07C8  07B4               	addwf	OLED_Printf_Line@col^(0+128),f
  4690     07C9                     l2777:
  4691                           
  4692                           ;OLED_SSD1306.c: 556:     }
  4693     07C9  3001               	movlw	1
  4694     07CA  0020               	movlb	0	; select bank0
  4695     07CB  00AC               	movwf	??_OLED_Printf_Line
  4696     07CC  082C               	movf	??_OLED_Printf_Line,w
  4697     07CD  0021               	movlb	1	; select bank1
  4698     07CE  07B5               	addwf	OLED_Printf_Line@p^(0+128),f
  4699     07CF                     l2779:
  4700     07CF  0835               	movf	OLED_Printf_Line@p^(0+128),w
  4701     07D0  0086               	movwf	6
  4702     07D1  0187               	clrf	7
  4703     07D2  0801               	movf	1,w
  4704     07D3  1903               	btfsc	3,2
  4705     07D4  2FD6               	goto	u3001
  4706     07D5  2FD7               	goto	u3000
  4707     07D6                     u3001:
  4708     07D6  2FEC               	goto	l2783
  4709     07D7                     u3000:
  4710     07D7                     l2781:
  4711     07D7  0834               	movf	OLED_Printf_Line@col^(0+128),w
  4712     07D8  3E08               	addlw	8
  4713     07D9  0020               	movlb	0	; select bank0
  4714     07DA  00AC               	movwf	??_OLED_Printf_Line
  4715     07DB  3000               	movlw	0
  4716     07DC  1803               	skipnc
  4717     07DD  3001               	movlw	1
  4718     07DE  00AD               	movwf	??_OLED_Printf_Line+1
  4719     07DF  082D               	movf	??_OLED_Printf_Line+1,w
  4720     07E0  3A80               	xorlw	128
  4721     07E1  00AE               	movwf	??_OLED_Printf_Line+2
  4722     07E2  3080               	movlw	128
  4723     07E3  022E               	subwf	??_OLED_Printf_Line+2,w
  4724     07E4  1D03               	skipz
  4725     07E5  2FE8               	goto	u3015
  4726     07E6  3081               	movlw	129
  4727     07E7  022C               	subwf	??_OLED_Printf_Line,w
  4728     07E8                     u3015:
  4729     07E8  1C03               	skipc
  4730     07E9  2FEB               	goto	u3011
  4731     07EA  2FEC               	goto	u3010
  4732     07EB                     u3011:
  4733     07EB  2F74               	goto	l2765
  4734     07EC                     u3010:
  4735     07EC                     l2783:
  4736                           
  4737                           ;OLED_SSD1306.c: 558:     OLED_UpdateLine(line);
  4738     07EC  0021               	movlb	1	; select bank1
  4739     07ED  0849               	movf	OLED_Printf_Line@line^(0+128),w
  4740     07EE  318D  2567  3183   	fcall	_OLED_UpdateLine
  4741     07F1                     l253:
  4742     07F1  0008               	return
  4743     07F2                     __end_of_OLED_Printf_Line:
  4744                           
  4745                           	psect	text5
  4746     0C3B                     __ptext5:	
  4747 ;; *************** function _strcpy *****************
  4748 ;; Defined at:
  4749 ;;		line 3 in file "C:\Program Files\Microchip\xc8\v2.46\pic\sources\c99\common\strcpy.c"
  4750 ;; Parameters:    Size  Location     Type
  4751 ;;  dest            2    0[COMMON] PTR unsigned char 
  4752 ;;		 -> OLED_Printf_Line@last_text(256), 
  4753 ;;  src             1    2[COMMON] PTR const unsigned char 
  4754 ;;		 -> OLED_Printf_Line@buf(32), 
  4755 ;; Auto vars:     Size  Location     Type
  4756 ;;  d               2    5[COMMON] PTR unsigned char 
  4757 ;;		 -> OLED_Printf_Line@last_text(256), 
  4758 ;; Return value:  Size  Location     Type
  4759 ;;                  2    0[COMMON] PTR unsigned char 
  4760 ;; Registers used:
  4761 ;;		wreg, fsr0l, fsr0h, fsr1l, fsr1h, status,2, status,0
  4762 ;; Tracked objects:
  4763 ;;		On entry : 0/0
  4764 ;;		On exit  : 0/0
  4765 ;;		Unchanged: 0/0
  4766 ;; Data sizes:     COMMON   BANK0   BANK1   BANK2   BANK3   BANK4   BANK5   BANK6   BANK7   BANK8   BANK9  BANK10  BANK1
      +1  BANK12  BANK13  BANK14  BANK15  BANK16  BANK17  BANK18  BANK19  BANK20  BANK21  BANK22  BANK23  BANK24  BANK25
  4767 ;;      Params:         3       0       0       0       0       0       0       0       0       0       0       0       
      +0       0       0       0       0       0       0       0       0       0       0       0       0       0       0
  4768 ;;      Locals:         2       0       0       0       0       0       0       0       0       0       0       0       
      +0       0       0       0       0       0       0       0       0       0       0       0       0       0       0
  4769 ;;      Temps:          2       0       0       0       0       0       0       0       0       0       0       0       
      +0       0       0       0       0       0       0       0       0       0       0       0       0       0       0
  4770 ;;      Totals:         7       0       0       0       0       0       0       0       0       0       0       0       
      +0       0       0       0       0       0       0       0       0       0       0       0       0       0       0
  4771 ;;Total ram usage:        7 bytes
  4772 ;; Hardware stack levels used: 1
  4773 ;; This function calls:
  4774 ;;		Nothing
  4775 ;; This function is called by:
  4776 ;;		_OLED_Printf_Line
  4777 ;; This function uses a non-reentrant model
  4778 ;;
  4779                           
  4780     0C3B                     _strcpy:	
  4781                           ;psect for function _strcpy
  4782                           
  4783     0C3B                     l2147:	
  4784                           ;incstack = 0
  4785                           ; Regs used in _strcpy: [wreg-fsr1h+status,2+status,0]
  4786                           
  4787     0C3B  0871               	movf	strcpy@dest+1,w
  4788     0C3C  00F6               	movwf	strcpy@d+1
  4789     0C3D  0870               	movf	strcpy@dest,w
  4790     0C3E  00F5               	movwf	strcpy@d
  4791     0C3F                     l2149:
  4792     0C3F  0876               	movf	strcpy@d+1,w
  4793     0C40  00F4               	movwf	??_strcpy+1
  4794     0C41  0875               	movf	strcpy@d,w
  4795     0C42  00F3               	movwf	??_strcpy
  4796     0C43  0AF5               	incf	strcpy@d,f
  4797     0C44  1903               	skipnz
  4798     0C45  0AF6               	incf	strcpy@d+1,f
  4799     0C46  0873               	movf	??_strcpy,w
  4800     0C47  0086               	movwf	6
  4801     0C48  0874               	movf	??_strcpy+1,w
  4802     0C49  0087               	movwf	7
  4803     0C4A  0872               	movf	strcpy@src,w
  4804     0C4B  0084               	movwf	4
  4805     0C4C  0185               	clrf	5
  4806     0C4D  0AF2               	incf	strcpy@src,f
  4807     0C4E  0800               	movf	0,w
  4808     0C4F  3FC0               	movwi [0]fsr1
  4809     0C50  0889               	movf	9,f
  4810     0C51  1D03               	btfss	3,2
  4811     0C52  2C54               	goto	u1961
  4812     0C53  2C55               	goto	u1960
  4813     0C54                     u1961:
  4814     0C54  2C3F               	goto	l2149
  4815     0C55                     u1960:
  4816     0C55                     l893:
  4817     0C55  0008               	return
  4818     0C56                     __end_of_strcpy:
  4819                           
  4820                           	psect	text6
  4821     0D93                     __ptext6:	
  4822 ;; *************** function _strcmp *****************
  4823 ;; Defined at:
  4824 ;;		line 3 in file "C:\Program Files\Microchip\xc8\v2.46\pic\sources\c99\common\strcmp.c"
  4825 ;; Parameters:    Size  Location     Type
  4826 ;;  l               1    wreg     PTR const unsigned char 
  4827 ;;		 -> OLED_Printf_Line@buf(32), 
  4828 ;;  r               2    0[COMMON] PTR const unsigned char 
  4829 ;;		 -> OLED_Printf_Line@last_text(256), 
  4830 ;; Auto vars:     Size  Location     Type
  4831 ;;  l               1    3[COMMON] PTR const unsigned char 
  4832 ;;		 -> OLED_Printf_Line@buf(32), 
  4833 ;; Return value:  Size  Location     Type
  4834 ;;                  2    0[COMMON] int 
  4835 ;; Registers used:
  4836 ;;		wreg, fsr0l, fsr0h, fsr1l, fsr1h, status,2, status,0
  4837 ;; Tracked objects:
  4838 ;;		On entry : 0/0
  4839 ;;		On exit  : 0/0
  4840 ;;		Unchanged: 0/0
  4841 ;; Data sizes:     COMMON   BANK0   BANK1   BANK2   BANK3   BANK4   BANK5   BANK6   BANK7   BANK8   BANK9  BANK10  BANK1
      +1  BANK12  BANK13  BANK14  BANK15  BANK16  BANK17  BANK18  BANK19  BANK20  BANK21  BANK22  BANK23  BANK24  BANK25
  4842 ;;      Params:         2       0       0       0       0       0       0       0       0       0       0       0       
      +0       0       0       0       0       0       0       0       0       0       0       0       0       0       0
  4843 ;;      Locals:         1       0       0       0       0       0       0       0       0       0       0       0       
      +0       0       0       0       0       0       0       0       0       0       0       0       0       0       0
  4844 ;;      Temps:          1       0       0       0       0       0       0       0       0       0       0       0       
      +0       0       0       0       0       0       0       0       0       0       0       0       0       0       0
  4845 ;;      Totals:         4       0       0       0       0       0       0       0       0       0       0       0       
      +0       0       0       0       0       0       0       0       0       0       0       0       0       0       0
  4846 ;;Total ram usage:        4 bytes
  4847 ;; Hardware stack levels used: 1
  4848 ;; This function calls:
  4849 ;;		Nothing
  4850 ;; This function is called by:
  4851 ;;		_OLED_Printf_Line
  4852 ;; This function uses a non-reentrant model
  4853 ;;
  4854                           
  4855     0D93                     _strcmp:	
  4856                           ;psect for function _strcmp
  4857                           
  4858                           
  4859                           ;incstack = 0
  4860                           ; Regs used in _strcmp: [wreg-fsr1h+status,2+status,0]
  4861                           ;strcmp@l stored from wreg
  4862     0D93  00F3               	movwf	strcmp@l
  4863     0D94                     l2135:
  4864     0D94  2D9D               	goto	l2139
  4865     0D95                     l2137:
  4866     0D95  3001               	movlw	1
  4867     0D96  00F2               	movwf	??_strcmp
  4868     0D97  0872               	movf	??_strcmp,w
  4869     0D98  07F3               	addwf	strcmp@l,f
  4870     0D99  3001               	movlw	1
  4871     0D9A  07F0               	addwf	strcmp@r,f
  4872     0D9B  3000               	movlw	0
  4873     0D9C  3DF1               	addwfc	strcmp@r+1,f
  4874     0D9D                     l2139:
  4875     0D9D  0870               	movf	strcmp@r,w
  4876     0D9E  0086               	movwf	6
  4877     0D9F  0871               	movf	strcmp@r+1,w
  4878     0DA0  0087               	movwf	7
  4879     0DA1  0873               	movf	strcmp@l,w
  4880     0DA2  0084               	movwf	4
  4881     0DA3  0185               	clrf	5
  4882     0DA4  0800               	movf	0,w
  4883     0DA5  0601               	xorwf	1,w
  4884     0DA6  1D03               	skipz
  4885     0DA7  2DA9               	goto	u1941
  4886     0DA8  2DAA               	goto	u1940
  4887     0DA9                     u1941:
  4888     0DA9  2DB2               	goto	l2143
  4889     0DAA                     u1940:
  4890     0DAA                     l2141:
  4891     0DAA  0873               	movf	strcmp@l,w
  4892     0DAB  0086               	movwf	6
  4893     0DAC  0187               	clrf	7
  4894     0DAD  0801               	movf	1,w
  4895     0DAE  1D03               	btfss	3,2
  4896     0DAF  2DB1               	goto	u1951
  4897     0DB0  2DB2               	goto	u1950
  4898     0DB1                     u1951:
  4899     0DB1  2D95               	goto	l2137
  4900     0DB2                     u1950:
  4901     0DB2                     l2143:
  4902     0DB2  0873               	movf	strcmp@l,w
  4903     0DB3  0086               	movwf	6
  4904     0DB4  0187               	clrf	7
  4905     0DB5  0870               	movf	strcmp@r,w
  4906     0DB6  0084               	movwf	4
  4907     0DB7  0871               	movf	strcmp@r+1,w
  4908     0DB8  0085               	movwf	5
  4909     0DB9  0800               	movf	0,w
  4910     0DBA  0201               	subwf	1,w
  4911     0DBB  00F0               	movwf	?_strcmp
  4912     0DBC  01F1               	clrf	?_strcmp+1
  4913     0DBD  1C03               	skipc
  4914     0DBE  03F1               	decf	?_strcmp+1,f
  4915     0DBF                     l887:
  4916     0DBF  0008               	return
  4917     0DC0                     __end_of_strcmp:
  4918                           
  4919                           	psect	text7
  4920     0D3D                     __ptext7:	
  4921 ;; *************** function _memcpy *****************
  4922 ;; Defined at:
  4923 ;;		line 4 in file "C:\Program Files\Microchip\xc8\v2.46\pic\sources\c99\common\memcpy.c"
  4924 ;; Parameters:    Size  Location     Type
  4925 ;;  d1              2    0[COMMON] PTR void 
  4926 ;;		 -> screen_buffer(512), 
  4927 ;;  s1              2    2[COMMON] PTR const void 
  4928 ;;		 -> OledFont(768), 
  4929 ;;  n               2    4[COMMON] unsigned int 
  4930 ;; Auto vars:     Size  Location     Type
  4931 ;;  s               2    8[COMMON] PTR const unsigned char 
  4932 ;;		 -> OledFont(768), 
  4933 ;;  d               2    6[COMMON] PTR unsigned char 
  4934 ;;		 -> screen_buffer(512), 
  4935 ;;  tmp             1   10[COMMON] unsigned char 
  4936 ;; Return value:  Size  Location     Type
  4937 ;;                  2    0[COMMON] PTR void 
  4938 ;; Registers used:
  4939 ;;		wreg, fsr0l, fsr0h, fsr1l, fsr1h, status,2, status,0, pclath
  4940 ;; Tracked objects:
  4941 ;;		On entry : 0/0
  4942 ;;		On exit  : 0/0
  4943 ;;		Unchanged: 0/0
  4944 ;; Data sizes:     COMMON   BANK0   BANK1   BANK2   BANK3   BANK4   BANK5   BANK6   BANK7   BANK8   BANK9  BANK10  BANK1
      +1  BANK12  BANK13  BANK14  BANK15  BANK16  BANK17  BANK18  BANK19  BANK20  BANK21  BANK22  BANK23  BANK24  BANK25
  4945 ;;      Params:         6       0       0       0       0       0       0       0       0       0       0       0       
      +0       0       0       0       0       0       0       0       0       0       0       0       0       0       0
  4946 ;;      Locals:         5       0       0       0       0       0       0       0       0       0       0       0       
      +0       0       0       0       0       0       0       0       0       0       0       0       0       0       0
  4947 ;;      Temps:          0       0       0       0       0       0       0       0       0       0       0       0       
      +0       0       0       0       0       0       0       0       0       0       0       0       0       0       0
  4948 ;;      Totals:        11       0       0       0       0       0       0       0       0       0       0       0       
      +0       0       0       0       0       0       0       0       0       0       0       0       0       0       0
  4949 ;;Total ram usage:       11 bytes
  4950 ;; Hardware stack levels used: 1
  4951 ;; This function calls:
  4952 ;;		Nothing
  4953 ;; This function is called by:
  4954 ;;		_OLED_Printf_Line
  4955 ;; This function uses a non-reentrant model
  4956 ;;
  4957                           
  4958     0D3D                     _memcpy:	
  4959                           ;psect for function _memcpy
  4960                           
  4961     0D3D                     l2151:	
  4962                           ;incstack = 0
  4963                           ; Regs used in _memcpy: [wreg-fsr1h+status,2+status,0+pclath]
  4964                           
  4965     0D3D  0873               	movf	memcpy@s1+1,w
  4966     0D3E  00F9               	movwf	memcpy@s+1
  4967     0D3F  0872               	movf	memcpy@s1,w
  4968     0D40  00F8               	movwf	memcpy@s
  4969     0D41  0871               	movf	memcpy@d1+1,w
  4970     0D42  00F7               	movwf	memcpy@d+1
  4971     0D43  0870               	movf	memcpy@d1,w
  4972     0D44  00F6               	movwf	memcpy@d
  4973     0D45  2D5A               	goto	l2161
  4974     0D46                     l2153:
  4975     0D46  0878               	movf	memcpy@s,w
  4976     0D47  0084               	movwf	4
  4977     0D48  0879               	movf	memcpy@s+1,w
  4978     0D49  0085               	movwf	5
  4979     0D4A  0800               	movf	0,w	;code access
  4980     0D4B  00FA               	movwf	memcpy@tmp
  4981     0D4C                     l2155:
  4982     0D4C  3001               	movlw	1
  4983     0D4D  07F8               	addwf	memcpy@s,f
  4984     0D4E  3000               	movlw	0
  4985     0D4F  3DF9               	addwfc	memcpy@s+1,f
  4986     0D50                     l2157:
  4987     0D50  0876               	movf	memcpy@d,w
  4988     0D51  0086               	movwf	6
  4989     0D52  0877               	movf	memcpy@d+1,w
  4990     0D53  0087               	movwf	7
  4991     0D54  087A               	movf	memcpy@tmp,w
  4992     0D55  0081               	movwf	1
  4993     0D56                     l2159:
  4994     0D56  3001               	movlw	1
  4995     0D57  07F6               	addwf	memcpy@d,f
  4996     0D58  3000               	movlw	0
  4997     0D59  3DF7               	addwfc	memcpy@d+1,f
  4998     0D5A                     l2161:
  4999     0D5A  3001               	movlw	1
  5000     0D5B  02F4               	subwf	memcpy@n,f
  5001     0D5C  3000               	movlw	0
  5002     0D5D  3BF5               	subwfb	memcpy@n+1,f
  5003     0D5E  0A74               	incf	memcpy@n,w
  5004     0D5F  1D03               	skipz
  5005     0D60  2D65               	goto	u1971
  5006     0D61  0A75               	incf	memcpy@n+1,w
  5007     0D62  1D03               	btfss	3,2
  5008     0D63  2D65               	goto	u1971
  5009     0D64  2D66               	goto	u1970
  5010     0D65                     u1971:
  5011     0D65  2D46               	goto	l2153
  5012     0D66                     u1970:
  5013     0D66                     l873:
  5014     0D66  0008               	return
  5015     0D67                     __end_of_memcpy:
  5016                           
  5017                           	psect	text8
  5018     0E20                     __ptext8:	
  5019 ;; *************** function ___lwmod *****************
  5020 ;; Defined at:
  5021 ;;		line 5 in file "C:\Program Files\Microchip\xc8\v2.46\pic\sources\c99\common\lwmod.c"
  5022 ;; Parameters:    Size  Location     Type
  5023 ;;  divisor         2    0[COMMON] unsigned int 
  5024 ;;  dividend        2    2[COMMON] unsigned int 
  5025 ;; Auto vars:     Size  Location     Type
  5026 ;;  counter         1    5[COMMON] unsigned char 
  5027 ;; Return value:  Size  Location     Type
  5028 ;;                  2    0[COMMON] unsigned int 
  5029 ;; Registers used:
  5030 ;;		wreg, status,2, status,0
  5031 ;; Tracked objects:
  5032 ;;		On entry : 0/0
  5033 ;;		On exit  : 0/0
  5034 ;;		Unchanged: 0/0
  5035 ;; Data sizes:     COMMON   BANK0   BANK1   BANK2   BANK3   BANK4   BANK5   BANK6   BANK7   BANK8   BANK9  BANK10  BANK1
      +1  BANK12  BANK13  BANK14  BANK15  BANK16  BANK17  BANK18  BANK19  BANK20  BANK21  BANK22  BANK23  BANK24  BANK25
  5036 ;;      Params:         4       0       0       0       0       0       0       0       0       0       0       0       
      +0       0       0       0       0       0       0       0       0       0       0       0       0       0       0
  5037 ;;      Locals:         1       0       0       0       0       0       0       0       0       0       0       0       
      +0       0       0       0       0       0       0       0       0       0       0       0       0       0       0
  5038 ;;      Temps:          1       0       0       0       0       0       0       0       0       0       0       0       
      +0       0       0       0       0       0       0       0       0       0       0       0       0       0       0
  5039 ;;      Totals:         6       0       0       0       0       0       0       0       0       0       0       0       
      +0       0       0       0       0       0       0       0       0       0       0       0       0       0       0
  5040 ;;Total ram usage:        6 bytes
  5041 ;; Hardware stack levels used: 1
  5042 ;; This function calls:
  5043 ;;		Nothing
  5044 ;; This function is called by:
  5045 ;;		_OLED_Printf_Line
  5046 ;; This function uses a non-reentrant model
  5047 ;;
  5048                           
  5049     0E20                     ___lwmod:	
  5050                           ;psect for function ___lwmod
  5051                           
  5052     0E20                     l2401:	
  5053                           ;incstack = 0
  5054                           ; Regs used in ___lwmod: [wreg+status,2+status,0]
  5055                           
  5056     0E20  0870               	movf	___lwmod@divisor,w
  5057     0E21  0471               	iorwf	___lwmod@divisor+1,w
  5058     0E22  1903               	btfsc	3,2
  5059     0E23  2E25               	goto	u2601
  5060     0E24  2E26               	goto	u2600
  5061     0E25                     u2601:
  5062     0E25  2E4F               	goto	l2419
  5063     0E26                     u2600:
  5064     0E26                     l2403:
  5065     0E26  01F5               	clrf	___lwmod@counter
  5066     0E27  0AF5               	incf	___lwmod@counter,f
  5067     0E28  2E32               	goto	l2409
  5068     0E29                     l2405:
  5069     0E29  3001               	movlw	1
  5070     0E2A                     u2615:
  5071     0E2A  35F0               	lslf	___lwmod@divisor,f
  5072     0E2B  0DF1               	rlf	___lwmod@divisor+1,f
  5073     0E2C  0B89               	decfsz	9,f
  5074     0E2D  2E2A               	goto	u2615
  5075     0E2E                     l2407:
  5076     0E2E  3001               	movlw	1
  5077     0E2F  00F4               	movwf	??___lwmod
  5078     0E30  0874               	movf	??___lwmod,w
  5079     0E31  07F5               	addwf	___lwmod@counter,f
  5080     0E32                     l2409:
  5081     0E32  1FF1               	btfss	___lwmod@divisor+1,7
  5082     0E33  2E35               	goto	u2621
  5083     0E34  2E36               	goto	u2620
  5084     0E35                     u2621:
  5085     0E35  2E29               	goto	l2405
  5086     0E36                     u2620:
  5087     0E36                     l2411:
  5088     0E36  0871               	movf	___lwmod@divisor+1,w
  5089     0E37  0273               	subwf	___lwmod@dividend+1,w
  5090     0E38  1D03               	skipz
  5091     0E39  2E3C               	goto	u2635
  5092     0E3A  0870               	movf	___lwmod@divisor,w
  5093     0E3B  0272               	subwf	___lwmod@dividend,w
  5094     0E3C                     u2635:
  5095     0E3C  1C03               	skipc
  5096     0E3D  2E3F               	goto	u2631
  5097     0E3E  2E40               	goto	u2630
  5098     0E3F                     u2631:
  5099     0E3F  2E44               	goto	l2415
  5100     0E40                     u2630:
  5101     0E40                     l2413:
  5102     0E40  0870               	movf	___lwmod@divisor,w
  5103     0E41  02F2               	subwf	___lwmod@dividend,f
  5104     0E42  0871               	movf	___lwmod@divisor+1,w
  5105     0E43  3BF3               	subwfb	___lwmod@dividend+1,f
  5106     0E44                     l2415:
  5107     0E44  3001               	movlw	1
  5108     0E45                     u2645:
  5109     0E45  36F1               	lsrf	___lwmod@divisor+1,f
  5110     0E46  0CF0               	rrf	___lwmod@divisor,f
  5111     0E47  0B89               	decfsz	9,f
  5112     0E48  2E45               	goto	u2645
  5113     0E49                     l2417:
  5114     0E49  3001               	movlw	1
  5115     0E4A  02F5               	subwf	___lwmod@counter,f
  5116     0E4B  1D03               	btfss	3,2
  5117     0E4C  2E4E               	goto	u2651
  5118     0E4D  2E4F               	goto	u2650
  5119     0E4E                     u2651:
  5120     0E4E  2E36               	goto	l2411
  5121     0E4F                     u2650:
  5122     0E4F                     l2419:
  5123     0E4F  0873               	movf	___lwmod@dividend+1,w
  5124     0E50  00F1               	movwf	?___lwmod+1
  5125     0E51  0872               	movf	___lwmod@dividend,w
  5126     0E52  00F0               	movwf	?___lwmod
  5127     0E53                     l701:
  5128     0E53  0008               	return
  5129     0E54                     __end_of___lwmod:
  5130                           
  5131                           	psect	text9
  5132     0E54                     __ptext9:	
  5133 ;; *************** function ___lwdiv *****************
  5134 ;; Defined at:
  5135 ;;		line 5 in file "C:\Program Files\Microchip\xc8\v2.46\pic\sources\c99\common\lwdiv.c"
  5136 ;; Parameters:    Size  Location     Type
  5137 ;;  divisor         2    0[COMMON] unsigned int 
  5138 ;;  dividend        2    2[COMMON] unsigned int 
  5139 ;; Auto vars:     Size  Location     Type
  5140 ;;  quotient        2    5[COMMON] unsigned int 
  5141 ;;  counter         1    7[COMMON] unsigned char 
  5142 ;; Return value:  Size  Location     Type
  5143 ;;                  2    0[COMMON] unsigned int 
  5144 ;; Registers used:
  5145 ;;		wreg, status,2, status,0
  5146 ;; Tracked objects:
  5147 ;;		On entry : 0/0
  5148 ;;		On exit  : 0/0
  5149 ;;		Unchanged: 0/0
  5150 ;; Data sizes:     COMMON   BANK0   BANK1   BANK2   BANK3   BANK4   BANK5   BANK6   BANK7   BANK8   BANK9  BANK10  BANK1
      +1  BANK12  BANK13  BANK14  BANK15  BANK16  BANK17  BANK18  BANK19  BANK20  BANK21  BANK22  BANK23  BANK24  BANK25
  5151 ;;      Params:         4       0       0       0       0       0       0       0       0       0       0       0       
      +0       0       0       0       0       0       0       0       0       0       0       0       0       0       0
  5152 ;;      Locals:         3       0       0       0       0       0       0       0       0       0       0       0       
      +0       0       0       0       0       0       0       0       0       0       0       0       0       0       0
  5153 ;;      Temps:          1       0       0       0       0       0       0       0       0       0       0       0       
      +0       0       0       0       0       0       0       0       0       0       0       0       0       0       0
  5154 ;;      Totals:         8       0       0       0       0       0       0       0       0       0       0       0       
      +0       0       0       0       0       0       0       0       0       0       0       0       0       0       0
  5155 ;;Total ram usage:        8 bytes
  5156 ;; Hardware stack levels used: 1
  5157 ;; This function calls:
  5158 ;;		Nothing
  5159 ;; This function is called by:
  5160 ;;		_OLED_Printf_Line
  5161 ;; This function uses a non-reentrant model
  5162 ;;
  5163                           
  5164     0E54                     ___lwdiv:	
  5165                           ;psect for function ___lwdiv
  5166                           
  5167     0E54                     l2375:	
  5168                           ;incstack = 0
  5169                           ; Regs used in ___lwdiv: [wreg+status,2+status,0]
  5170                           
  5171     0E54  01F5               	clrf	___lwdiv@quotient
  5172     0E55  01F6               	clrf	___lwdiv@quotient+1
  5173     0E56                     l2377:
  5174     0E56  0870               	movf	___lwdiv@divisor,w
  5175     0E57  0471               	iorwf	___lwdiv@divisor+1,w
  5176     0E58  1903               	btfsc	3,2
  5177     0E59  2E5B               	goto	u2531
  5178     0E5A  2E5C               	goto	u2530
  5179     0E5B                     u2531:
  5180     0E5B  2E8B               	goto	l2397
  5181     0E5C                     u2530:
  5182     0E5C                     l2379:
  5183     0E5C  01F7               	clrf	___lwdiv@counter
  5184     0E5D  0AF7               	incf	___lwdiv@counter,f
  5185     0E5E  2E68               	goto	l2385
  5186     0E5F                     l2381:
  5187     0E5F  3001               	movlw	1
  5188     0E60                     u2545:
  5189     0E60  35F0               	lslf	___lwdiv@divisor,f
  5190     0E61  0DF1               	rlf	___lwdiv@divisor+1,f
  5191     0E62  0B89               	decfsz	9,f
  5192     0E63  2E60               	goto	u2545
  5193     0E64                     l2383:
  5194     0E64  3001               	movlw	1
  5195     0E65  00F4               	movwf	??___lwdiv
  5196     0E66  0874               	movf	??___lwdiv,w
  5197     0E67  07F7               	addwf	___lwdiv@counter,f
  5198     0E68                     l2385:
  5199     0E68  1FF1               	btfss	___lwdiv@divisor+1,7
  5200     0E69  2E6B               	goto	u2551
  5201     0E6A  2E6C               	goto	u2550
  5202     0E6B                     u2551:
  5203     0E6B  2E5F               	goto	l2381
  5204     0E6C                     u2550:
  5205     0E6C                     l2387:
  5206     0E6C  3001               	movlw	1
  5207     0E6D                     u2565:
  5208     0E6D  35F5               	lslf	___lwdiv@quotient,f
  5209     0E6E  0DF6               	rlf	___lwdiv@quotient+1,f
  5210     0E6F  0B89               	decfsz	9,f
  5211     0E70  2E6D               	goto	u2565
  5212     0E71  0871               	movf	___lwdiv@divisor+1,w
  5213     0E72  0273               	subwf	___lwdiv@dividend+1,w
  5214     0E73  1D03               	skipz
  5215     0E74  2E77               	goto	u2575
  5216     0E75  0870               	movf	___lwdiv@divisor,w
  5217     0E76  0272               	subwf	___lwdiv@dividend,w
  5218     0E77                     u2575:
  5219     0E77  1C03               	skipc
  5220     0E78  2E7A               	goto	u2571
  5221     0E79  2E7B               	goto	u2570
  5222     0E7A                     u2571:
  5223     0E7A  2E80               	goto	l2393
  5224     0E7B                     u2570:
  5225     0E7B                     l2389:
  5226     0E7B  0870               	movf	___lwdiv@divisor,w
  5227     0E7C  02F2               	subwf	___lwdiv@dividend,f
  5228     0E7D  0871               	movf	___lwdiv@divisor+1,w
  5229     0E7E  3BF3               	subwfb	___lwdiv@dividend+1,f
  5230     0E7F                     l2391:
  5231     0E7F  1475               	bsf	___lwdiv@quotient,0
  5232     0E80                     l2393:
  5233     0E80  3001               	movlw	1
  5234     0E81                     u2585:
  5235     0E81  36F1               	lsrf	___lwdiv@divisor+1,f
  5236     0E82  0CF0               	rrf	___lwdiv@divisor,f
  5237     0E83  0B89               	decfsz	9,f
  5238     0E84  2E81               	goto	u2585
  5239     0E85                     l2395:
  5240     0E85  3001               	movlw	1
  5241     0E86  02F7               	subwf	___lwdiv@counter,f
  5242     0E87  1D03               	btfss	3,2
  5243     0E88  2E8A               	goto	u2591
  5244     0E89  2E8B               	goto	u2590
  5245     0E8A                     u2591:
  5246     0E8A  2E6C               	goto	l2387
  5247     0E8B                     u2590:
  5248     0E8B                     l2397:
  5249     0E8B  0876               	movf	___lwdiv@quotient+1,w
  5250     0E8C  00F1               	movwf	?___lwdiv+1
  5251     0E8D  0875               	movf	___lwdiv@quotient,w
  5252     0E8E  00F0               	movwf	?___lwdiv
  5253     0E8F                     l691:
  5254     0E8F  0008               	return
  5255     0E90                     __end_of___lwdiv:
  5256                           
  5257                           	psect	text10
  5258     0006                     __ptext10:	
  5259 ;; *************** function ___llmod *****************
  5260 ;; Defined at:
  5261 ;;		line 5 in file "C:\Program Files\Microchip\xc8\v2.46\pic\sources\c99\common\llmod.c"
  5262 ;; Parameters:    Size  Location     Type
  5263 ;;  divisor         4    0[COMMON] unsigned long 
  5264 ;;  dividend        4    4[COMMON] unsigned long 
  5265 ;; Auto vars:     Size  Location     Type
  5266 ;;  counter         1    9[COMMON] unsigned char 
  5267 ;; Return value:  Size  Location     Type
  5268 ;;                  4    0[COMMON] unsigned long 
  5269 ;; Registers used:
  5270 ;;		wreg, status,2, status,0
  5271 ;; Tracked objects:
  5272 ;;		On entry : 0/0
  5273 ;;		On exit  : 0/0
  5274 ;;		Unchanged: 0/0
  5275 ;; Data sizes:     COMMON   BANK0   BANK1   BANK2   BANK3   BANK4   BANK5   BANK6   BANK7   BANK8   BANK9  BANK10  BANK1
      +1  BANK12  BANK13  BANK14  BANK15  BANK16  BANK17  BANK18  BANK19  BANK20  BANK21  BANK22  BANK23  BANK24  BANK25
  5276 ;;      Params:         8       0       0       0       0       0       0       0       0       0       0       0       
      +0       0       0       0       0       0       0       0       0       0       0       0       0       0       0
  5277 ;;      Locals:         1       0       0       0       0       0       0       0       0       0       0       0       
      +0       0       0       0       0       0       0       0       0       0       0       0       0       0       0
  5278 ;;      Temps:          1       0       0       0       0       0       0       0       0       0       0       0       
      +0       0       0       0       0       0       0       0       0       0       0       0       0       0       0
  5279 ;;      Totals:        10       0       0       0       0       0       0       0       0       0       0       0       
      +0       0       0       0       0       0       0       0       0       0       0       0       0       0       0
  5280 ;;Total ram usage:       10 bytes
  5281 ;; Hardware stack levels used: 1
  5282 ;; This function calls:
  5283 ;;		Nothing
  5284 ;; This function is called by:
  5285 ;;		_OLED_Printf_Line
  5286 ;; This function uses a non-reentrant model
  5287 ;;
  5288                           
  5289     0006                     ___llmod:	
  5290                           ;psect for function ___llmod
  5291                           
  5292     0006                     l2355:	
  5293                           ;incstack = 0
  5294                           ; Regs used in ___llmod: [wreg+status,2+status,0]
  5295                           
  5296     0006  0873               	movf	___llmod@divisor+3,w
  5297     0007  0472               	iorwf	___llmod@divisor+2,w
  5298     0008  0471               	iorwf	___llmod@divisor+1,w
  5299     0009  0470               	iorwf	___llmod@divisor,w
  5300     000A  1903               	skipnz
  5301     000B  280D               	goto	u2471
  5302     000C  280E               	goto	u2470
  5303     000D                     u2471:
  5304     000D  2847               	goto	l2371
  5305     000E                     u2470:
  5306     000E                     l2357:
  5307     000E  01F9               	clrf	___llmod@counter
  5308     000F  0AF9               	incf	___llmod@counter,f
  5309     0010  281C               	goto	l2361
  5310     0011                     l2359:
  5311     0011  3001               	movlw	1
  5312     0012                     u2485:
  5313     0012  35F0               	lslf	___llmod@divisor,f
  5314     0013  0DF1               	rlf	___llmod@divisor+1,f
  5315     0014  0DF2               	rlf	___llmod@divisor+2,f
  5316     0015  0DF3               	rlf	___llmod@divisor+3,f
  5317     0016  0B89               	decfsz	9,f
  5318     0017  2812               	goto	u2485
  5319     0018  3001               	movlw	1
  5320     0019  00F8               	movwf	??___llmod
  5321     001A  0878               	movf	??___llmod,w
  5322     001B  07F9               	addwf	___llmod@counter,f
  5323     001C                     l2361:
  5324     001C  1FF3               	btfss	___llmod@divisor+3,7
  5325     001D  281F               	goto	u2491
  5326     001E  2820               	goto	u2490
  5327     001F                     u2491:
  5328     001F  2811               	goto	l2359
  5329     0020                     u2490:
  5330     0020                     l2363:
  5331     0020  0873               	movf	___llmod@divisor+3,w
  5332     0021  0277               	subwf	___llmod@dividend+3,w
  5333     0022  1D03               	skipz
  5334     0023  282E               	goto	u2505
  5335     0024  0872               	movf	___llmod@divisor+2,w
  5336     0025  0276               	subwf	___llmod@dividend+2,w
  5337     0026  1D03               	skipz
  5338     0027  282E               	goto	u2505
  5339     0028  0871               	movf	___llmod@divisor+1,w
  5340     0029  0275               	subwf	___llmod@dividend+1,w
  5341     002A  1D03               	skipz
  5342     002B  282E               	goto	u2505
  5343     002C  0870               	movf	___llmod@divisor,w
  5344     002D  0274               	subwf	___llmod@dividend,w
  5345     002E                     u2505:
  5346     002E  1C03               	skipc
  5347     002F  2831               	goto	u2501
  5348     0030  2832               	goto	u2500
  5349     0031                     u2501:
  5350     0031  283A               	goto	l2367
  5351     0032                     u2500:
  5352     0032                     l2365:
  5353     0032  0870               	movf	___llmod@divisor,w
  5354     0033  02F4               	subwf	___llmod@dividend,f
  5355     0034  0871               	movf	___llmod@divisor+1,w
  5356     0035  3BF5               	subwfb	___llmod@dividend+1,f
  5357     0036  0872               	movf	___llmod@divisor+2,w
  5358     0037  3BF6               	subwfb	___llmod@dividend+2,f
  5359     0038  0873               	movf	___llmod@divisor+3,w
  5360     0039  3BF7               	subwfb	___llmod@dividend+3,f
  5361     003A                     l2367:
  5362     003A  3001               	movlw	1
  5363     003B                     u2515:
  5364     003B  36F3               	lsrf	___llmod@divisor+3,f
  5365     003C  0CF2               	rrf	___llmod@divisor+2,f
  5366     003D  0CF1               	rrf	___llmod@divisor+1,f
  5367     003E  0CF0               	rrf	___llmod@divisor,f
  5368     003F  0B89               	decfsz	9,f
  5369     0040  283B               	goto	u2515
  5370     0041                     l2369:
  5371     0041  3001               	movlw	1
  5372     0042  02F9               	subwf	___llmod@counter,f
  5373     0043  1D03               	btfss	3,2
  5374     0044  2846               	goto	u2521
  5375     0045  2847               	goto	u2520
  5376     0046                     u2521:
  5377     0046  2820               	goto	l2363
  5378     0047                     u2520:
  5379     0047                     l2371:
  5380     0047  0877               	movf	___llmod@dividend+3,w
  5381     0048  00F3               	movwf	?___llmod+3
  5382     0049  0876               	movf	___llmod@dividend+2,w
  5383     004A  00F2               	movwf	?___llmod+2
  5384     004B  0875               	movf	___llmod@dividend+1,w
  5385     004C  00F1               	movwf	?___llmod+1
  5386     004D  0874               	movf	___llmod@dividend,w
  5387     004E  00F0               	movwf	?___llmod
  5388     004F                     l641:
  5389     004F  0008               	return
  5390     0050                     __end_of___llmod:
  5391                           
  5392                           	psect	text11
  5393     0050                     __ptext11:	
  5394 ;; *************** function ___lldiv *****************
  5395 ;; Defined at:
  5396 ;;		line 5 in file "C:\Program Files\Microchip\xc8\v2.46\pic\sources\c99\common\__lldiv.c"
  5397 ;; Parameters:    Size  Location     Type
  5398 ;;  divisor         4    0[COMMON] unsigned long 
  5399 ;;  dividend        4    4[COMMON] unsigned long 
  5400 ;; Auto vars:     Size  Location     Type
  5401 ;;  quotient        4    9[COMMON] unsigned long 
  5402 ;;  counter         1   13[COMMON] unsigned char 
  5403 ;; Return value:  Size  Location     Type
  5404 ;;                  4    0[COMMON] unsigned long 
  5405 ;; Registers used:
  5406 ;;		wreg, status,2, status,0
  5407 ;; Tracked objects:
  5408 ;;		On entry : 0/0
  5409 ;;		On exit  : 0/0
  5410 ;;		Unchanged: 0/0
  5411 ;; Data sizes:     COMMON   BANK0   BANK1   BANK2   BANK3   BANK4   BANK5   BANK6   BANK7   BANK8   BANK9  BANK10  BANK1
      +1  BANK12  BANK13  BANK14  BANK15  BANK16  BANK17  BANK18  BANK19  BANK20  BANK21  BANK22  BANK23  BANK24  BANK25
  5412 ;;      Params:         8       0       0       0       0       0       0       0       0       0       0       0       
      +0       0       0       0       0       0       0       0       0       0       0       0       0       0       0
  5413 ;;      Locals:         5       0       0       0       0       0       0       0       0       0       0       0       
      +0       0       0       0       0       0       0       0       0       0       0       0       0       0       0
  5414 ;;      Temps:          1       0       0       0       0       0       0       0       0       0       0       0       
      +0       0       0       0       0       0       0       0       0       0       0       0       0       0       0
  5415 ;;      Totals:        14       0       0       0       0       0       0       0       0       0       0       0       
      +0       0       0       0       0       0       0       0       0       0       0       0       0       0       0
  5416 ;;Total ram usage:       14 bytes
  5417 ;; Hardware stack levels used: 1
  5418 ;; This function calls:
  5419 ;;		Nothing
  5420 ;; This function is called by:
  5421 ;;		_OLED_Printf_Line
  5422 ;; This function uses a non-reentrant model
  5423 ;;
  5424                           
  5425     0050                     ___lldiv:	
  5426                           ;psect for function ___lldiv
  5427                           
  5428     0050                     l2177:	
  5429                           ;incstack = 0
  5430                           ; Regs used in ___lldiv: [wreg+status,2+status,0]
  5431                           
  5432     0050  3000               	movlw	0
  5433     0051  00FC               	movwf	___lldiv@quotient+3
  5434     0052  3000               	movlw	0
  5435     0053  00FB               	movwf	___lldiv@quotient+2
  5436     0054  3000               	movlw	0
  5437     0055  00FA               	movwf	___lldiv@quotient+1
  5438     0056  3000               	movlw	0
  5439     0057  00F9               	movwf	___lldiv@quotient
  5440     0058  0873               	movf	___lldiv@divisor+3,w
  5441     0059  0472               	iorwf	___lldiv@divisor+2,w
  5442     005A  0471               	iorwf	___lldiv@divisor+1,w
  5443     005B  0470               	iorwf	___lldiv@divisor,w
  5444     005C  1903               	skipnz
  5445     005D  285F               	goto	u2021
  5446     005E  2860               	goto	u2020
  5447     005F                     u2021:
  5448     005F  28A1               	goto	l2197
  5449     0060                     u2020:
  5450     0060                     l2179:
  5451     0060  01FD               	clrf	___lldiv@counter
  5452     0061  0AFD               	incf	___lldiv@counter,f
  5453     0062  286E               	goto	l2183
  5454     0063                     l2181:
  5455     0063  3001               	movlw	1
  5456     0064                     u2035:
  5457     0064  35F0               	lslf	___lldiv@divisor,f
  5458     0065  0DF1               	rlf	___lldiv@divisor+1,f
  5459     0066  0DF2               	rlf	___lldiv@divisor+2,f
  5460     0067  0DF3               	rlf	___lldiv@divisor+3,f
  5461     0068  0B89               	decfsz	9,f
  5462     0069  2864               	goto	u2035
  5463     006A  3001               	movlw	1
  5464     006B  00F8               	movwf	??___lldiv
  5465     006C  0878               	movf	??___lldiv,w
  5466     006D  07FD               	addwf	___lldiv@counter,f
  5467     006E                     l2183:
  5468     006E  1FF3               	btfss	___lldiv@divisor+3,7
  5469     006F  2871               	goto	u2041
  5470     0070  2872               	goto	u2040
  5471     0071                     u2041:
  5472     0071  2863               	goto	l2181
  5473     0072                     u2040:
  5474     0072                     l2185:
  5475     0072  3001               	movlw	1
  5476     0073                     u2055:
  5477     0073  35F9               	lslf	___lldiv@quotient,f
  5478     0074  0DFA               	rlf	___lldiv@quotient+1,f
  5479     0075  0DFB               	rlf	___lldiv@quotient+2,f
  5480     0076  0DFC               	rlf	___lldiv@quotient+3,f
  5481     0077  0B89               	decfsz	9,f
  5482     0078  2873               	goto	u2055
  5483     0079                     l2187:
  5484     0079  0873               	movf	___lldiv@divisor+3,w
  5485     007A  0277               	subwf	___lldiv@dividend+3,w
  5486     007B  1D03               	skipz
  5487     007C  2887               	goto	u2065
  5488     007D  0872               	movf	___lldiv@divisor+2,w
  5489     007E  0276               	subwf	___lldiv@dividend+2,w
  5490     007F  1D03               	skipz
  5491     0080  2887               	goto	u2065
  5492     0081  0871               	movf	___lldiv@divisor+1,w
  5493     0082  0275               	subwf	___lldiv@dividend+1,w
  5494     0083  1D03               	skipz
  5495     0084  2887               	goto	u2065
  5496     0085  0870               	movf	___lldiv@divisor,w
  5497     0086  0274               	subwf	___lldiv@dividend,w
  5498     0087                     u2065:
  5499     0087  1C03               	skipc
  5500     0088  288A               	goto	u2061
  5501     0089  288B               	goto	u2060
  5502     008A                     u2061:
  5503     008A  2894               	goto	l2193
  5504     008B                     u2060:
  5505     008B                     l2189:
  5506     008B  0870               	movf	___lldiv@divisor,w
  5507     008C  02F4               	subwf	___lldiv@dividend,f
  5508     008D  0871               	movf	___lldiv@divisor+1,w
  5509     008E  3BF5               	subwfb	___lldiv@dividend+1,f
  5510     008F  0872               	movf	___lldiv@divisor+2,w
  5511     0090  3BF6               	subwfb	___lldiv@dividend+2,f
  5512     0091  0873               	movf	___lldiv@divisor+3,w
  5513     0092  3BF7               	subwfb	___lldiv@dividend+3,f
  5514     0093                     l2191:
  5515     0093  1479               	bsf	___lldiv@quotient,0
  5516     0094                     l2193:
  5517     0094  3001               	movlw	1
  5518     0095                     u2075:
  5519     0095  36F3               	lsrf	___lldiv@divisor+3,f
  5520     0096  0CF2               	rrf	___lldiv@divisor+2,f
  5521     0097  0CF1               	rrf	___lldiv@divisor+1,f
  5522     0098  0CF0               	rrf	___lldiv@divisor,f
  5523     0099  0B89               	decfsz	9,f
  5524     009A  2895               	goto	u2075
  5525     009B                     l2195:
  5526     009B  3001               	movlw	1
  5527     009C  02FD               	subwf	___lldiv@counter,f
  5528     009D  1D03               	btfss	3,2
  5529     009E  28A0               	goto	u2081
  5530     009F  28A1               	goto	u2080
  5531     00A0                     u2081:
  5532     00A0  2872               	goto	l2185
  5533     00A1                     u2080:
  5534     00A1                     l2197:
  5535     00A1  087C               	movf	___lldiv@quotient+3,w
  5536     00A2  00F3               	movwf	?___lldiv+3
  5537     00A3  087B               	movf	___lldiv@quotient+2,w
  5538     00A4  00F2               	movwf	?___lldiv+2
  5539     00A5  087A               	movf	___lldiv@quotient+1,w
  5540     00A6  00F1               	movwf	?___lldiv+1
  5541     00A7  0879               	movf	___lldiv@quotient,w
  5542     00A8  00F0               	movwf	?___lldiv
  5543     00A9                     l447:
  5544     00A9  0008               	return
  5545     00AA                     __end_of___lldiv:
  5546                           
  5547                           	psect	text12
  5548     0FAD                     __ptext12:	
  5549 ;; *************** function ___awmod *****************
  5550 ;; Defined at:
  5551 ;;		line 5 in file "C:\Program Files\Microchip\xc8\v2.46\pic\sources\c99\common\awmod.c"
  5552 ;; Parameters:    Size  Location     Type
  5553 ;;  divisor         2    0[COMMON] int 
  5554 ;;  dividend        2    2[COMMON] int 
  5555 ;; Auto vars:     Size  Location     Type
  5556 ;;  sign            1    6[COMMON] unsigned char 
  5557 ;;  counter         1    5[COMMON] unsigned char 
  5558 ;; Return value:  Size  Location     Type
  5559 ;;                  2    0[COMMON] int 
  5560 ;; Registers used:
  5561 ;;		wreg, status,2, status,0
  5562 ;; Tracked objects:
  5563 ;;		On entry : 0/0
  5564 ;;		On exit  : 0/0
  5565 ;;		Unchanged: 0/0
  5566 ;; Data sizes:     COMMON   BANK0   BANK1   BANK2   BANK3   BANK4   BANK5   BANK6   BANK7   BANK8   BANK9  BANK10  BANK1
      +1  BANK12  BANK13  BANK14  BANK15  BANK16  BANK17  BANK18  BANK19  BANK20  BANK21  BANK22  BANK23  BANK24  BANK25
  5567 ;;      Params:         4       0       0       0       0       0       0       0       0       0       0       0       
      +0       0       0       0       0       0       0       0       0       0       0       0       0       0       0
  5568 ;;      Locals:         2       0       0       0       0       0       0       0       0       0       0       0       
      +0       0       0       0       0       0       0       0       0       0       0       0       0       0       0
  5569 ;;      Temps:          1       0       0       0       0       0       0       0       0       0       0       0       
      +0       0       0       0       0       0       0       0       0       0       0       0       0       0       0
  5570 ;;      Totals:         7       0       0       0       0       0       0       0       0       0       0       0       
      +0       0       0       0       0       0       0       0       0       0       0       0       0       0       0
  5571 ;;Total ram usage:        7 bytes
  5572 ;; Hardware stack levels used: 1
  5573 ;; This function calls:
  5574 ;;		Nothing
  5575 ;; This function is called by:
  5576 ;;		_OLED_Printf_Line
  5577 ;; This function uses a non-reentrant model
  5578 ;;
  5579                           
  5580     0FAD                     ___awmod:	
  5581                           ;psect for function ___awmod
  5582                           
  5583     0FAD                     l2317:	
  5584                           ;incstack = 0
  5585                           ; Regs used in ___awmod: [wreg+status,2+status,0]
  5586                           
  5587     0FAD  01F6               	clrf	___awmod@sign
  5588     0FAE                     l2319:
  5589     0FAE  1FF3               	btfss	___awmod@dividend+1,7
  5590     0FAF  2FB1               	goto	u2381
  5591     0FB0  2FB2               	goto	u2380
  5592     0FB1                     u2381:
  5593     0FB1  2FB9               	goto	l2325
  5594     0FB2                     u2380:
  5595     0FB2                     l2321:
  5596     0FB2  09F2               	comf	___awmod@dividend,f
  5597     0FB3  09F3               	comf	___awmod@dividend+1,f
  5598     0FB4  0AF2               	incf	___awmod@dividend,f
  5599     0FB5  1903               	skipnz
  5600     0FB6  0AF3               	incf	___awmod@dividend+1,f
  5601     0FB7                     l2323:
  5602     0FB7  01F6               	clrf	___awmod@sign
  5603     0FB8  0AF6               	incf	___awmod@sign,f
  5604     0FB9                     l2325:
  5605     0FB9  1FF1               	btfss	___awmod@divisor+1,7
  5606     0FBA  2FBC               	goto	u2391
  5607     0FBB  2FBD               	goto	u2390
  5608     0FBC                     u2391:
  5609     0FBC  2FC2               	goto	l2329
  5610     0FBD                     u2390:
  5611     0FBD                     l2327:
  5612     0FBD  09F0               	comf	___awmod@divisor,f
  5613     0FBE  09F1               	comf	___awmod@divisor+1,f
  5614     0FBF  0AF0               	incf	___awmod@divisor,f
  5615     0FC0  1903               	skipnz
  5616     0FC1  0AF1               	incf	___awmod@divisor+1,f
  5617     0FC2                     l2329:
  5618     0FC2  0870               	movf	___awmod@divisor,w
  5619     0FC3  0471               	iorwf	___awmod@divisor+1,w
  5620     0FC4  1903               	btfsc	3,2
  5621     0FC5  2FC7               	goto	u2401
  5622     0FC6  2FC8               	goto	u2400
  5623     0FC7                     u2401:
  5624     0FC7  2FF1               	goto	l2347
  5625     0FC8                     u2400:
  5626     0FC8                     l2331:
  5627     0FC8  01F5               	clrf	___awmod@counter
  5628     0FC9  0AF5               	incf	___awmod@counter,f
  5629     0FCA  2FD4               	goto	l2337
  5630     0FCB                     l2333:
  5631     0FCB  3001               	movlw	1
  5632     0FCC                     u2415:
  5633     0FCC  35F0               	lslf	___awmod@divisor,f
  5634     0FCD  0DF1               	rlf	___awmod@divisor+1,f
  5635     0FCE  0B89               	decfsz	9,f
  5636     0FCF  2FCC               	goto	u2415
  5637     0FD0                     l2335:
  5638     0FD0  3001               	movlw	1
  5639     0FD1  00F4               	movwf	??___awmod
  5640     0FD2  0874               	movf	??___awmod,w
  5641     0FD3  07F5               	addwf	___awmod@counter,f
  5642     0FD4                     l2337:
  5643     0FD4  1FF1               	btfss	___awmod@divisor+1,7
  5644     0FD5  2FD7               	goto	u2421
  5645     0FD6  2FD8               	goto	u2420
  5646     0FD7                     u2421:
  5647     0FD7  2FCB               	goto	l2333
  5648     0FD8                     u2420:
  5649     0FD8                     l2339:
  5650     0FD8  0871               	movf	___awmod@divisor+1,w
  5651     0FD9  0273               	subwf	___awmod@dividend+1,w
  5652     0FDA  1D03               	skipz
  5653     0FDB  2FDE               	goto	u2435
  5654     0FDC  0870               	movf	___awmod@divisor,w
  5655     0FDD  0272               	subwf	___awmod@dividend,w
  5656     0FDE                     u2435:
  5657     0FDE  1C03               	skipc
  5658     0FDF  2FE1               	goto	u2431
  5659     0FE0  2FE2               	goto	u2430
  5660     0FE1                     u2431:
  5661     0FE1  2FE6               	goto	l2343
  5662     0FE2                     u2430:
  5663     0FE2                     l2341:
  5664     0FE2  0870               	movf	___awmod@divisor,w
  5665     0FE3  02F2               	subwf	___awmod@dividend,f
  5666     0FE4  0871               	movf	___awmod@divisor+1,w
  5667     0FE5  3BF3               	subwfb	___awmod@dividend+1,f
  5668     0FE6                     l2343:
  5669     0FE6  3001               	movlw	1
  5670     0FE7                     u2445:
  5671     0FE7  36F1               	lsrf	___awmod@divisor+1,f
  5672     0FE8  0CF0               	rrf	___awmod@divisor,f
  5673     0FE9  0B89               	decfsz	9,f
  5674     0FEA  2FE7               	goto	u2445
  5675     0FEB                     l2345:
  5676     0FEB  3001               	movlw	1
  5677     0FEC  02F5               	subwf	___awmod@counter,f
  5678     0FED  1D03               	btfss	3,2
  5679     0FEE  2FF0               	goto	u2451
  5680     0FEF  2FF1               	goto	u2450
  5681     0FF0                     u2451:
  5682     0FF0  2FD8               	goto	l2339
  5683     0FF1                     u2450:
  5684     0FF1                     l2347:
  5685     0FF1  0876               	movf	___awmod@sign,w
  5686     0FF2  1903               	btfsc	3,2
  5687     0FF3  2FF5               	goto	u2461
  5688     0FF4  2FF6               	goto	u2460
  5689     0FF5                     u2461:
  5690     0FF5  2FFB               	goto	l2351
  5691     0FF6                     u2460:
  5692     0FF6                     l2349:
  5693     0FF6  09F2               	comf	___awmod@dividend,f
  5694     0FF7  09F3               	comf	___awmod@dividend+1,f
  5695     0FF8  0AF2               	incf	___awmod@dividend,f
  5696     0FF9  1903               	skipnz
  5697     0FFA  0AF3               	incf	___awmod@dividend+1,f
  5698     0FFB                     l2351:
  5699     0FFB  0873               	movf	___awmod@dividend+1,w
  5700     0FFC  00F1               	movwf	?___awmod+1
  5701     0FFD  0872               	movf	___awmod@dividend,w
  5702     0FFE  00F0               	movwf	?___awmod
  5703     0FFF                     l577:
  5704     0FFF  0008               	return
  5705     1000                     __end_of___awmod:
  5706                           
  5707                           	psect	text13
  5708     017E                     __ptext13:	
  5709 ;; *************** function ___almod *****************
  5710 ;; Defined at:
  5711 ;;		line 5 in file "C:\Program Files\Microchip\xc8\v2.46\pic\sources\c99\common\almod.c"
  5712 ;; Parameters:    Size  Location     Type
  5713 ;;  divisor         4    0[COMMON] long 
  5714 ;;  dividend        4    4[COMMON] long 
  5715 ;; Auto vars:     Size  Location     Type
  5716 ;;  sign            1   10[COMMON] unsigned char 
  5717 ;;  counter         1    9[COMMON] unsigned char 
  5718 ;; Return value:  Size  Location     Type
  5719 ;;                  4    0[COMMON] long 
  5720 ;; Registers used:
  5721 ;;		wreg, status,2, status,0
  5722 ;; Tracked objects:
  5723 ;;		On entry : 0/0
  5724 ;;		On exit  : 0/0
  5725 ;;		Unchanged: 0/0
  5726 ;; Data sizes:     COMMON   BANK0   BANK1   BANK2   BANK3   BANK4   BANK5   BANK6   BANK7   BANK8   BANK9  BANK10  BANK1
      +1  BANK12  BANK13  BANK14  BANK15  BANK16  BANK17  BANK18  BANK19  BANK20  BANK21  BANK22  BANK23  BANK24  BANK25
  5727 ;;      Params:         8       0       0       0       0       0       0       0       0       0       0       0       
      +0       0       0       0       0       0       0       0       0       0       0       0       0       0       0
  5728 ;;      Locals:         2       0       0       0       0       0       0       0       0       0       0       0       
      +0       0       0       0       0       0       0       0       0       0       0       0       0       0       0
  5729 ;;      Temps:          1       0       0       0       0       0       0       0       0       0       0       0       
      +0       0       0       0       0       0       0       0       0       0       0       0       0       0       0
  5730 ;;      Totals:        11       0       0       0       0       0       0       0       0       0       0       0       
      +0       0       0       0       0       0       0       0       0       0       0       0       0       0       0
  5731 ;;Total ram usage:       11 bytes
  5732 ;; Hardware stack levels used: 1
  5733 ;; This function calls:
  5734 ;;		Nothing
  5735 ;; This function is called by:
  5736 ;;		_OLED_Printf_Line
  5737 ;; This function uses a non-reentrant model
  5738 ;;
  5739                           
  5740     017E                     ___almod:	
  5741                           ;psect for function ___almod
  5742                           
  5743     017E                     l2241:	
  5744                           ;incstack = 0
  5745                           ; Regs used in ___almod: [wreg+status,2+status,0]
  5746                           
  5747     017E  01FA               	clrf	___almod@sign
  5748     017F                     l2243:
  5749     017F  1FF7               	btfss	___almod@dividend+3,7
  5750     0180  2982               	goto	u2191
  5751     0181  2983               	goto	u2190
  5752     0182                     u2191:
  5753     0182  2990               	goto	l489
  5754     0183                     u2190:
  5755     0183                     l2245:
  5756     0183  09F4               	comf	___almod@dividend,f
  5757     0184  09F5               	comf	___almod@dividend+1,f
  5758     0185  09F6               	comf	___almod@dividend+2,f
  5759     0186  09F7               	comf	___almod@dividend+3,f
  5760     0187  0AF4               	incf	___almod@dividend,f
  5761     0188  1903               	skipnz
  5762     0189  0AF5               	incf	___almod@dividend+1,f
  5763     018A  1903               	skipnz
  5764     018B  0AF6               	incf	___almod@dividend+2,f
  5765     018C  1903               	skipnz
  5766     018D  0AF7               	incf	___almod@dividend+3,f
  5767     018E  01FA               	clrf	___almod@sign
  5768     018F  0AFA               	incf	___almod@sign,f
  5769     0190                     l489:
  5770     0190  1FF3               	btfss	___almod@divisor+3,7
  5771     0191  2993               	goto	u2201
  5772     0192  2994               	goto	u2200
  5773     0193                     u2201:
  5774     0193  299F               	goto	l2249
  5775     0194                     u2200:
  5776     0194                     l2247:
  5777     0194  09F0               	comf	___almod@divisor,f
  5778     0195  09F1               	comf	___almod@divisor+1,f
  5779     0196  09F2               	comf	___almod@divisor+2,f
  5780     0197  09F3               	comf	___almod@divisor+3,f
  5781     0198  0AF0               	incf	___almod@divisor,f
  5782     0199  1903               	skipnz
  5783     019A  0AF1               	incf	___almod@divisor+1,f
  5784     019B  1903               	skipnz
  5785     019C  0AF2               	incf	___almod@divisor+2,f
  5786     019D  1903               	skipnz
  5787     019E  0AF3               	incf	___almod@divisor+3,f
  5788     019F                     l2249:
  5789     019F  0873               	movf	___almod@divisor+3,w
  5790     01A0  0472               	iorwf	___almod@divisor+2,w
  5791     01A1  0471               	iorwf	___almod@divisor+1,w
  5792     01A2  0470               	iorwf	___almod@divisor,w
  5793     01A3  1903               	skipnz
  5794     01A4  29A6               	goto	u2211
  5795     01A5  29A7               	goto	u2210
  5796     01A6                     u2211:
  5797     01A6  29E0               	goto	l2265
  5798     01A7                     u2210:
  5799     01A7                     l2251:
  5800     01A7  01F9               	clrf	___almod@counter
  5801     01A8  0AF9               	incf	___almod@counter,f
  5802     01A9  29B5               	goto	l2255
  5803     01AA                     l2253:
  5804     01AA  3001               	movlw	1
  5805     01AB                     u2225:
  5806     01AB  35F0               	lslf	___almod@divisor,f
  5807     01AC  0DF1               	rlf	___almod@divisor+1,f
  5808     01AD  0DF2               	rlf	___almod@divisor+2,f
  5809     01AE  0DF3               	rlf	___almod@divisor+3,f
  5810     01AF  0B89               	decfsz	9,f
  5811     01B0  29AB               	goto	u2225
  5812     01B1  3001               	movlw	1
  5813     01B2  00F8               	movwf	??___almod
  5814     01B3  0878               	movf	??___almod,w
  5815     01B4  07F9               	addwf	___almod@counter,f
  5816     01B5                     l2255:
  5817     01B5  1FF3               	btfss	___almod@divisor+3,7
  5818     01B6  29B8               	goto	u2231
  5819     01B7  29B9               	goto	u2230
  5820     01B8                     u2231:
  5821     01B8  29AA               	goto	l2253
  5822     01B9                     u2230:
  5823     01B9                     l2257:
  5824     01B9  0873               	movf	___almod@divisor+3,w
  5825     01BA  0277               	subwf	___almod@dividend+3,w
  5826     01BB  1D03               	skipz
  5827     01BC  29C7               	goto	u2245
  5828     01BD  0872               	movf	___almod@divisor+2,w
  5829     01BE  0276               	subwf	___almod@dividend+2,w
  5830     01BF  1D03               	skipz
  5831     01C0  29C7               	goto	u2245
  5832     01C1  0871               	movf	___almod@divisor+1,w
  5833     01C2  0275               	subwf	___almod@dividend+1,w
  5834     01C3  1D03               	skipz
  5835     01C4  29C7               	goto	u2245
  5836     01C5  0870               	movf	___almod@divisor,w
  5837     01C6  0274               	subwf	___almod@dividend,w
  5838     01C7                     u2245:
  5839     01C7  1C03               	skipc
  5840     01C8  29CA               	goto	u2241
  5841     01C9  29CB               	goto	u2240
  5842     01CA                     u2241:
  5843     01CA  29D3               	goto	l2261
  5844     01CB                     u2240:
  5845     01CB                     l2259:
  5846     01CB  0870               	movf	___almod@divisor,w
  5847     01CC  02F4               	subwf	___almod@dividend,f
  5848     01CD  0871               	movf	___almod@divisor+1,w
  5849     01CE  3BF5               	subwfb	___almod@dividend+1,f
  5850     01CF  0872               	movf	___almod@divisor+2,w
  5851     01D0  3BF6               	subwfb	___almod@dividend+2,f
  5852     01D1  0873               	movf	___almod@divisor+3,w
  5853     01D2  3BF7               	subwfb	___almod@dividend+3,f
  5854     01D3                     l2261:
  5855     01D3  3001               	movlw	1
  5856     01D4                     u2255:
  5857     01D4  36F3               	lsrf	___almod@divisor+3,f
  5858     01D5  0CF2               	rrf	___almod@divisor+2,f
  5859     01D6  0CF1               	rrf	___almod@divisor+1,f
  5860     01D7  0CF0               	rrf	___almod@divisor,f
  5861     01D8  0B89               	decfsz	9,f
  5862     01D9  29D4               	goto	u2255
  5863     01DA                     l2263:
  5864     01DA  3001               	movlw	1
  5865     01DB  02F9               	subwf	___almod@counter,f
  5866     01DC  1D03               	btfss	3,2
  5867     01DD  29DF               	goto	u2261
  5868     01DE  29E0               	goto	u2260
  5869     01DF                     u2261:
  5870     01DF  29B9               	goto	l2257
  5871     01E0                     u2260:
  5872     01E0                     l2265:
  5873     01E0  087A               	movf	___almod@sign,w
  5874     01E1  1903               	btfsc	3,2
  5875     01E2  29E4               	goto	u2271
  5876     01E3  29E5               	goto	u2270
  5877     01E4                     u2271:
  5878     01E4  29F0               	goto	l2269
  5879     01E5                     u2270:
  5880     01E5                     l2267:
  5881     01E5  09F4               	comf	___almod@dividend,f
  5882     01E6  09F5               	comf	___almod@dividend+1,f
  5883     01E7  09F6               	comf	___almod@dividend+2,f
  5884     01E8  09F7               	comf	___almod@dividend+3,f
  5885     01E9  0AF4               	incf	___almod@dividend,f
  5886     01EA  1903               	skipnz
  5887     01EB  0AF5               	incf	___almod@dividend+1,f
  5888     01EC  1903               	skipnz
  5889     01ED  0AF6               	incf	___almod@dividend+2,f
  5890     01EE  1903               	skipnz
  5891     01EF  0AF7               	incf	___almod@dividend+3,f
  5892     01F0                     l2269:
  5893     01F0  0877               	movf	___almod@dividend+3,w
  5894     01F1  00F3               	movwf	?___almod+3
  5895     01F2  0876               	movf	___almod@dividend+2,w
  5896     01F3  00F2               	movwf	?___almod+2
  5897     01F4  0875               	movf	___almod@dividend+1,w
  5898     01F5  00F1               	movwf	?___almod+1
  5899     01F6  0874               	movf	___almod@dividend,w
  5900     01F7  00F0               	movwf	?___almod
  5901     01F8                     l499:
  5902     01F8  0008               	return
  5903     01F9                     __end_of___almod:
  5904                           
  5905                           	psect	text14
  5906     0286                     __ptext14:	
  5907 ;; *************** function ___aldiv *****************
  5908 ;; Defined at:
  5909 ;;		line 5 in file "C:\Program Files\Microchip\xc8\v2.46\pic\sources\c99\common\aldiv.c"
  5910 ;; Parameters:    Size  Location     Type
  5911 ;;  divisor         4    0[COMMON] long 
  5912 ;;  dividend        4    4[COMMON] long 
  5913 ;; Auto vars:     Size  Location     Type
  5914 ;;  quotient        4    2[BANK0 ] long 
  5915 ;;  sign            1    1[BANK0 ] unsigned char 
  5916 ;;  counter         1    0[BANK0 ] unsigned char 
  5917 ;; Return value:  Size  Location     Type
  5918 ;;                  4    0[COMMON] long 
  5919 ;; Registers used:
  5920 ;;		wreg, status,2, status,0
  5921 ;; Tracked objects:
  5922 ;;		On entry : 0/0
  5923 ;;		On exit  : 0/0
  5924 ;;		Unchanged: 0/0
  5925 ;; Data sizes:     COMMON   BANK0   BANK1   BANK2   BANK3   BANK4   BANK5   BANK6   BANK7   BANK8   BANK9  BANK10  BANK1
      +1  BANK12  BANK13  BANK14  BANK15  BANK16  BANK17  BANK18  BANK19  BANK20  BANK21  BANK22  BANK23  BANK24  BANK25
  5926 ;;      Params:         8       0       0       0       0       0       0       0       0       0       0       0       
      +0       0       0       0       0       0       0       0       0       0       0       0       0       0       0
  5927 ;;      Locals:         0       6       0       0       0       0       0       0       0       0       0       0       
      +0       0       0       0       0       0       0       0       0       0       0       0       0       0       0
  5928 ;;      Temps:          1       0       0       0       0       0       0       0       0       0       0       0       
      +0       0       0       0       0       0       0       0       0       0       0       0       0       0       0
  5929 ;;      Totals:         9       6       0       0       0       0       0       0       0       0       0       0       
      +0       0       0       0       0       0       0       0       0       0       0       0       0       0       0
  5930 ;;Total ram usage:       15 bytes
  5931 ;; Hardware stack levels used: 1
  5932 ;; This function calls:
  5933 ;;		Nothing
  5934 ;; This function is called by:
  5935 ;;		_OLED_Printf_Line
  5936 ;; This function uses a non-reentrant model
  5937 ;;
  5938                           
  5939     0286                     ___aldiv:	
  5940                           ;psect for function ___aldiv
  5941                           
  5942     0286                     l2201:	
  5943                           ;incstack = 0
  5944                           ; Regs used in ___aldiv: [wreg+status,2+status,0]
  5945                           
  5946     0286  0020               	movlb	0	; select bank0
  5947     0287  01A1               	clrf	___aldiv@sign
  5948     0288                     l2203:
  5949     0288  1FF3               	btfss	___aldiv@divisor+3,7
  5950     0289  2A8B               	goto	u2091
  5951     028A  2A8C               	goto	u2090
  5952     028B                     u2091:
  5953     028B  2A99               	goto	l476
  5954     028C                     u2090:
  5955     028C                     l2205:
  5956     028C  09F0               	comf	___aldiv@divisor,f
  5957     028D  09F1               	comf	___aldiv@divisor+1,f
  5958     028E  09F2               	comf	___aldiv@divisor+2,f
  5959     028F  09F3               	comf	___aldiv@divisor+3,f
  5960     0290  0AF0               	incf	___aldiv@divisor,f
  5961     0291  1903               	skipnz
  5962     0292  0AF1               	incf	___aldiv@divisor+1,f
  5963     0293  1903               	skipnz
  5964     0294  0AF2               	incf	___aldiv@divisor+2,f
  5965     0295  1903               	skipnz
  5966     0296  0AF3               	incf	___aldiv@divisor+3,f
  5967     0297  01A1               	clrf	___aldiv@sign
  5968     0298  0AA1               	incf	___aldiv@sign,f
  5969     0299                     l476:
  5970     0299  1FF7               	btfss	___aldiv@dividend+3,7
  5971     029A  2A9C               	goto	u2101
  5972     029B  2A9D               	goto	u2100
  5973     029C                     u2101:
  5974     029C  2AAC               	goto	l2211
  5975     029D                     u2100:
  5976     029D                     l2207:
  5977     029D  09F4               	comf	___aldiv@dividend,f
  5978     029E  09F5               	comf	___aldiv@dividend+1,f
  5979     029F  09F6               	comf	___aldiv@dividend+2,f
  5980     02A0  09F7               	comf	___aldiv@dividend+3,f
  5981     02A1  0AF4               	incf	___aldiv@dividend,f
  5982     02A2  1903               	skipnz
  5983     02A3  0AF5               	incf	___aldiv@dividend+1,f
  5984     02A4  1903               	skipnz
  5985     02A5  0AF6               	incf	___aldiv@dividend+2,f
  5986     02A6  1903               	skipnz
  5987     02A7  0AF7               	incf	___aldiv@dividend+3,f
  5988     02A8                     l2209:
  5989     02A8  3001               	movlw	1
  5990     02A9  00F8               	movwf	??___aldiv
  5991     02AA  0878               	movf	??___aldiv,w
  5992     02AB  06A1               	xorwf	___aldiv@sign,f
  5993     02AC                     l2211:
  5994     02AC  3000               	movlw	0
  5995     02AD  00A5               	movwf	___aldiv@quotient+3
  5996     02AE  3000               	movlw	0
  5997     02AF  00A4               	movwf	___aldiv@quotient+2
  5998     02B0  3000               	movlw	0
  5999     02B1  00A3               	movwf	___aldiv@quotient+1
  6000     02B2  3000               	movlw	0
  6001     02B3  00A2               	movwf	___aldiv@quotient
  6002     02B4                     l2213:
  6003     02B4  0873               	movf	___aldiv@divisor+3,w
  6004     02B5  0472               	iorwf	___aldiv@divisor+2,w
  6005     02B6  0471               	iorwf	___aldiv@divisor+1,w
  6006     02B7  0470               	iorwf	___aldiv@divisor,w
  6007     02B8  1903               	skipnz
  6008     02B9  2ABB               	goto	u2111
  6009     02BA  2ABC               	goto	u2110
  6010     02BB                     u2111:
  6011     02BB  2AFD               	goto	l2233
  6012     02BC                     u2110:
  6013     02BC                     l2215:
  6014     02BC  01A0               	clrf	___aldiv@counter
  6015     02BD  0AA0               	incf	___aldiv@counter,f
  6016     02BE  2ACA               	goto	l2219
  6017     02BF                     l2217:
  6018     02BF  3001               	movlw	1
  6019     02C0                     u2125:
  6020     02C0  35F0               	lslf	___aldiv@divisor,f
  6021     02C1  0DF1               	rlf	___aldiv@divisor+1,f
  6022     02C2  0DF2               	rlf	___aldiv@divisor+2,f
  6023     02C3  0DF3               	rlf	___aldiv@divisor+3,f
  6024     02C4  0B89               	decfsz	9,f
  6025     02C5  2AC0               	goto	u2125
  6026     02C6  3001               	movlw	1
  6027     02C7  00F8               	movwf	??___aldiv
  6028     02C8  0878               	movf	??___aldiv,w
  6029     02C9  07A0               	addwf	___aldiv@counter,f
  6030     02CA                     l2219:
  6031     02CA  1FF3               	btfss	___aldiv@divisor+3,7
  6032     02CB  2ACD               	goto	u2131
  6033     02CC  2ACE               	goto	u2130
  6034     02CD                     u2131:
  6035     02CD  2ABF               	goto	l2217
  6036     02CE                     u2130:
  6037     02CE                     l2221:
  6038     02CE  3001               	movlw	1
  6039     02CF                     u2145:
  6040     02CF  35A2               	lslf	___aldiv@quotient,f
  6041     02D0  0DA3               	rlf	___aldiv@quotient+1,f
  6042     02D1  0DA4               	rlf	___aldiv@quotient+2,f
  6043     02D2  0DA5               	rlf	___aldiv@quotient+3,f
  6044     02D3  0B89               	decfsz	9,f
  6045     02D4  2ACF               	goto	u2145
  6046     02D5                     l2223:
  6047     02D5  0873               	movf	___aldiv@divisor+3,w
  6048     02D6  0277               	subwf	___aldiv@dividend+3,w
  6049     02D7  1D03               	skipz
  6050     02D8  2AE3               	goto	u2155
  6051     02D9  0872               	movf	___aldiv@divisor+2,w
  6052     02DA  0276               	subwf	___aldiv@dividend+2,w
  6053     02DB  1D03               	skipz
  6054     02DC  2AE3               	goto	u2155
  6055     02DD  0871               	movf	___aldiv@divisor+1,w
  6056     02DE  0275               	subwf	___aldiv@dividend+1,w
  6057     02DF  1D03               	skipz
  6058     02E0  2AE3               	goto	u2155
  6059     02E1  0870               	movf	___aldiv@divisor,w
  6060     02E2  0274               	subwf	___aldiv@dividend,w
  6061     02E3                     u2155:
  6062     02E3  1C03               	skipc
  6063     02E4  2AE6               	goto	u2151
  6064     02E5  2AE7               	goto	u2150
  6065     02E6                     u2151:
  6066     02E6  2AF0               	goto	l2229
  6067     02E7                     u2150:
  6068     02E7                     l2225:
  6069     02E7  0870               	movf	___aldiv@divisor,w
  6070     02E8  02F4               	subwf	___aldiv@dividend,f
  6071     02E9  0871               	movf	___aldiv@divisor+1,w
  6072     02EA  3BF5               	subwfb	___aldiv@dividend+1,f
  6073     02EB  0872               	movf	___aldiv@divisor+2,w
  6074     02EC  3BF6               	subwfb	___aldiv@dividend+2,f
  6075     02ED  0873               	movf	___aldiv@divisor+3,w
  6076     02EE  3BF7               	subwfb	___aldiv@dividend+3,f
  6077     02EF                     l2227:
  6078     02EF  1422               	bsf	___aldiv@quotient,0
  6079     02F0                     l2229:
  6080     02F0  3001               	movlw	1
  6081     02F1                     u2165:
  6082     02F1  36F3               	lsrf	___aldiv@divisor+3,f
  6083     02F2  0CF2               	rrf	___aldiv@divisor+2,f
  6084     02F3  0CF1               	rrf	___aldiv@divisor+1,f
  6085     02F4  0CF0               	rrf	___aldiv@divisor,f
  6086     02F5  0B89               	decfsz	9,f
  6087     02F6  2AF1               	goto	u2165
  6088     02F7                     l2231:
  6089     02F7  3001               	movlw	1
  6090     02F8  02A0               	subwf	___aldiv@counter,f
  6091     02F9  1D03               	btfss	3,2
  6092     02FA  2AFC               	goto	u2171
  6093     02FB  2AFD               	goto	u2170
  6094     02FC                     u2171:
  6095     02FC  2ACE               	goto	l2221
  6096     02FD                     u2170:
  6097     02FD                     l2233:
  6098     02FD  0821               	movf	___aldiv@sign,w
  6099     02FE  1903               	btfsc	3,2
  6100     02FF  2B01               	goto	u2181
  6101     0300  2B02               	goto	u2180
  6102     0301                     u2181:
  6103     0301  2B0D               	goto	l2237
  6104     0302                     u2180:
  6105     0302                     l2235:
  6106     0302  09A2               	comf	___aldiv@quotient,f
  6107     0303  09A3               	comf	___aldiv@quotient+1,f
  6108     0304  09A4               	comf	___aldiv@quotient+2,f
  6109     0305  09A5               	comf	___aldiv@quotient+3,f
  6110     0306  0AA2               	incf	___aldiv@quotient,f
  6111     0307  1903               	skipnz
  6112     0308  0AA3               	incf	___aldiv@quotient+1,f
  6113     0309  1903               	skipnz
  6114     030A  0AA4               	incf	___aldiv@quotient+2,f
  6115     030B  1903               	skipnz
  6116     030C  0AA5               	incf	___aldiv@quotient+3,f
  6117     030D                     l2237:
  6118     030D  0825               	movf	___aldiv@quotient+3,w
  6119     030E  00F3               	movwf	?___aldiv+3
  6120     030F  0824               	movf	___aldiv@quotient+2,w
  6121     0310  00F2               	movwf	?___aldiv+2
  6122     0311  0823               	movf	___aldiv@quotient+1,w
  6123     0312  00F1               	movwf	?___aldiv+1
  6124     0313  0822               	movf	___aldiv@quotient,w
  6125     0314  00F0               	movwf	?___aldiv
  6126     0315                     l486:
  6127     0315  0008               	return
  6128     0316                     __end_of___aldiv:
  6129                           
  6130                           	psect	text15
  6131     0D67                     __ptext15:	
  6132 ;; *************** function _OLED_UpdateLine *****************
  6133 ;; Defined at:
  6134 ;;		line 370 in file "OLED_SSD1306.c"
  6135 ;; Parameters:    Size  Location     Type
  6136 ;;  page            1    wreg     unsigned char 
  6137 ;; Auto vars:     Size  Location     Type
  6138 ;;  page            1   12[COMMON] unsigned char 
  6139 ;; Return value:  Size  Location     Type
  6140 ;;                  1    wreg      void 
  6141 ;; Registers used:
  6142 ;;		wreg, fsr0l, fsr0h, status,2, status,0, pclath, cstack
  6143 ;; Tracked objects:
  6144 ;;		On entry : 0/0
  6145 ;;		On exit  : 0/0
  6146 ;;		Unchanged: 0/0
  6147 ;; Data sizes:     COMMON   BANK0   BANK1   BANK2   BANK3   BANK4   BANK5   BANK6   BANK7   BANK8   BANK9  BANK10  BANK1
      +1  BANK12  BANK13  BANK14  BANK15  BANK16  BANK17  BANK18  BANK19  BANK20  BANK21  BANK22  BANK23  BANK24  BANK25
  6148 ;;      Params:         0       0       0       0       0       0       0       0       0       0       0       0       
      +0       0       0       0       0       0       0       0       0       0       0       0       0       0       0
  6149 ;;      Locals:         1       0       0       0       0       0       0       0       0       0       0       0       
      +0       0       0       0       0       0       0       0       0       0       0       0       0       0       0
  6150 ;;      Temps:          0       6       0       0       0       0       0       0       0       0       0       0       
      +0       0       0       0       0       0       0       0       0       0       0       0       0       0       0
  6151 ;;      Totals:         1       6       0       0       0       0       0       0       0       0       0       0       
      +0       0       0       0       0       0       0       0       0       0       0       0       0       0       0
  6152 ;;Total ram usage:        7 bytes
  6153 ;; Hardware stack levels used: 1
  6154 ;; Hardware stack levels required when called: 4
  6155 ;; This function calls:
  6156 ;;		_OLED_WriteData
  6157 ;;		_OLED_YX
  6158 ;; This function is called by:
  6159 ;;		_main
  6160 ;;		_OLED_Printf_Line
  6161 ;; This function uses a non-reentrant model
  6162 ;;
  6163                           
  6164     0D67                     _OLED_UpdateLine:	
  6165                           ;psect for function _OLED_UpdateLine
  6166                           
  6167                           
  6168                           ;incstack = 0
  6169                           ; Regs used in _OLED_UpdateLine: [wreg-fsr0h+status,2+status,0+pclath+cstack]
  6170                           ;OLED_UpdateLine@page stored from wreg
  6171     0D67  00FC               	movwf	OLED_UpdateLine@page
  6172     0D68                     l2127:
  6173                           
  6174                           ;OLED_SSD1306.c: 370: void OLED_UpdateLine(uint8_t page);OLED_SSD1306.c: 371: {;OLED_SSD
      +                          1306.c: 372:     if (page >= (32 / 8)) return;
  6175     0D68  3004               	movlw	4
  6176     0D69  027C               	subwf	OLED_UpdateLine@page,w
  6177     0D6A  1C03               	skipc
  6178     0D6B  2D6D               	goto	u1921
  6179     0D6C  2D6E               	goto	u1920
  6180     0D6D                     u1921:
  6181     0D6D  2D6F               	goto	l2131
  6182     0D6E                     u1920:
  6183     0D6E  2D92               	goto	l230
  6184     0D6F                     l2131:
  6185                           
  6186                           ;OLED_SSD1306.c: 374:     OLED_YX(page, 0);
  6187     0D6F  01F7               	clrf	OLED_YX@col_char
  6188     0D70  087C               	movf	OLED_UpdateLine@page,w
  6189     0D71  318C  24AF  318D   	fcall	_OLED_YX
  6190     0D74                     l2133:
  6191                           
  6192                           ;OLED_SSD1306.c: 375:     (void)OLED_WriteData(screen_buffer[page], 128);
  6193     0D74  087C               	movf	OLED_UpdateLine@page,w
  6194     0D75  0020               	movlb	0	; select bank0
  6195     0D76  00A0               	movwf	??_OLED_UpdateLine
  6196     0D77  01A1               	clrf	??_OLED_UpdateLine+1
  6197     0D78  3007               	movlw	7
  6198     0D79                     u1935:
  6199     0D79  35A0               	lslf	??_OLED_UpdateLine,f
  6200     0D7A  0DA1               	rlf	??_OLED_UpdateLine+1,f
  6201     0D7B  0B89               	decfsz	9,f
  6202     0D7C  2D79               	goto	u1935
  6203     0D7D  30F0               	movlw	240
  6204     0D7E  00A2               	movwf	??_OLED_UpdateLine+2
  6205     0D7F  3024               	movlw	36
  6206     0D80  00A3               	movwf	??_OLED_UpdateLine+3
  6207     0D81  0820               	movf	??_OLED_UpdateLine,w
  6208     0D82  0722               	addwf	??_OLED_UpdateLine+2,w
  6209     0D83  00A4               	movwf	??_OLED_UpdateLine+4
  6210     0D84  0821               	movf	??_OLED_UpdateLine+1,w
  6211     0D85  3D23               	addwfc	??_OLED_UpdateLine+3,w
  6212     0D86  00A5               	movwf	??_OLED_UpdateLine+5
  6213     0D87  0824               	movf	??_OLED_UpdateLine+4,w
  6214     0D88  00F5               	movwf	OLED_WriteData@data
  6215     0D89  0825               	movf	??_OLED_UpdateLine+5,w
  6216     0D8A  00F6               	movwf	OLED_WriteData@data+1
  6217     0D8B  3080               	movlw	128
  6218     0D8C  00F7               	movwf	OLED_WriteData@len
  6219     0D8D  3000               	movlw	0
  6220     0D8E  00F8               	movwf	OLED_WriteData@len+1
  6221     0D8F  318F  275D  318D   	fcall	_OLED_WriteData
  6222     0D92                     l230:
  6223     0D92  0008               	return
  6224     0D93                     __end_of_OLED_UpdateLine:
  6225                           
  6226                           	psect	text16
  6227     010A                     __ptext16:	
  6228 ;; *************** function _OLED_Init *****************
  6229 ;; Defined at:
  6230 ;;		line 298 in file "OLED_SSD1306.c"
  6231 ;; Parameters:    Size  Location     Type
  6232 ;;		None
  6233 ;; Auto vars:     Size  Location     Type
  6234 ;;		None
  6235 ;; Return value:  Size  Location     Type
  6236 ;;                  1    wreg      void 
  6237 ;; Registers used:
  6238 ;;		wreg, fsr0l, fsr0h, fsr1l, fsr1h, status,2, status,0, pclath, cstack
  6239 ;; Tracked objects:
  6240 ;;		On entry : 0/0
  6241 ;;		On exit  : 0/0
  6242 ;;		Unchanged: 0/0
  6243 ;; Data sizes:     COMMON   BANK0   BANK1   BANK2   BANK3   BANK4   BANK5   BANK6   BANK7   BANK8   BANK9  BANK10  BANK1
      +1  BANK12  BANK13  BANK14  BANK15  BANK16  BANK17  BANK18  BANK19  BANK20  BANK21  BANK22  BANK23  BANK24  BANK25
  6244 ;;      Params:         0       0       0       0       0       0       0       0       0       0       0       0       
      +0       0       0       0       0       0       0       0       0       0       0       0       0       0       0
  6245 ;;      Locals:         0       0       0       0       0       0       0       0       0       0       0       0       
      +0       0       0       0       0       0       0       0       0       0       0       0       0       0       0
  6246 ;;      Temps:          1       0       0       0       0       0       0       0       0       0       0       0       
      +0       0       0       0       0       0       0       0       0       0       0       0       0       0       0
  6247 ;;      Totals:         1       0       0       0       0       0       0       0       0       0       0       0       
      +0       0       0       0       0       0       0       0       0       0       0       0       0       0       0
  6248 ;;Total ram usage:        1 bytes
  6249 ;; Hardware stack levels used: 1
  6250 ;; Hardware stack levels required when called: 5
  6251 ;; This function calls:
  6252 ;;		_OLED_Clear
  6253 ;;		_OLED_Command
  6254 ;; This function is called by:
  6255 ;;		_main
  6256 ;; This function uses a non-reentrant model
  6257 ;;
  6258                           
  6259     010A                     _OLED_Init:	
  6260                           ;psect for function _OLED_Init
  6261                           
  6262     010A                     l2469:	
  6263                           ;incstack = 0
  6264                           ; Regs used in _OLED_Init: [wreg-fsr1h+status,2+status,0+pclath+cstack]
  6265                           
  6266                           
  6267                           ;OLED_SSD1306.c: 300:     _delay((unsigned long)((10)*(32000000/4000.0)));
  6268     010A  3068               	movlw	104
  6269     010B  00FD               	movwf	??_OLED_Init
  6270     010C  30E4               	movlw	228
  6271     010D                     u3317:
  6272     010D  0B89               	decfsz	9,f
  6273     010E  290D               	goto	u3317
  6274     010F  0BFD               	decfsz	??_OLED_Init,f
  6275     0110  290D               	goto	u3317
  6276     0111  3200               	nop2
  6277     0112                     l2471:
  6278                           
  6279                           ;OLED_SSD1306.c: 302:     (void)OLED_Command(0xAE);
  6280     0112  30AE               	movlw	174
  6281     0113  318D  25C0  3181   	fcall	_OLED_Command
  6282     0116                     l2473:
  6283                           
  6284                           ;OLED_SSD1306.c: 303:     (void)OLED_Command(0x2E);
  6285     0116  302E               	movlw	46
  6286     0117  318D  25C0  3181   	fcall	_OLED_Command
  6287     011A                     l2475:
  6288                           
  6289                           ;OLED_SSD1306.c: 305:     (void)OLED_Command(0xD5);
  6290     011A  30D5               	movlw	213
  6291     011B  318D  25C0  3181   	fcall	_OLED_Command
  6292     011E                     l2477:
  6293                           
  6294                           ;OLED_SSD1306.c: 306:     (void)OLED_Command(0x80);
  6295     011E  3080               	movlw	128
  6296     011F  318D  25C0  3181   	fcall	_OLED_Command
  6297     0122                     l2479:
  6298                           
  6299                           ;OLED_SSD1306.c: 308:     (void)OLED_Command(0xA8);
  6300     0122  30A8               	movlw	168
  6301     0123  318D  25C0  3181   	fcall	_OLED_Command
  6302     0126                     l2481:
  6303                           
  6304                           ;OLED_SSD1306.c: 312:     (void)OLED_Command(0x1F);
  6305     0126  301F               	movlw	31
  6306     0127  318D  25C0  3181   	fcall	_OLED_Command
  6307     012A                     l2483:
  6308                           
  6309                           ;OLED_SSD1306.c: 315:     (void)OLED_Command(0xD3);
  6310     012A  30D3               	movlw	211
  6311     012B  318D  25C0  3181   	fcall	_OLED_Command
  6312     012E                     l2485:
  6313                           
  6314                           ;OLED_SSD1306.c: 316:     (void)OLED_Command(0x00);
  6315     012E  3000               	movlw	0
  6316     012F  318D  25C0  3181   	fcall	_OLED_Command
  6317     0132                     l2487:
  6318                           
  6319                           ;OLED_SSD1306.c: 318:     (void)OLED_Command(0x40 | 0x00);
  6320     0132  3040               	movlw	64
  6321     0133  318D  25C0  3181   	fcall	_OLED_Command
  6322     0136                     l2489:
  6323                           
  6324                           ;OLED_SSD1306.c: 320:     (void)OLED_Command(0x8D);
  6325     0136  308D               	movlw	141
  6326     0137  318D  25C0  3181   	fcall	_OLED_Command
  6327     013A                     l2491:
  6328                           
  6329                           ;OLED_SSD1306.c: 321:     (void)OLED_Command(0x14);
  6330     013A  3014               	movlw	20
  6331     013B  318D  25C0  3181   	fcall	_OLED_Command
  6332     013E                     l2493:
  6333                           
  6334                           ;OLED_SSD1306.c: 323:     (void)OLED_Command(0x20);
  6335     013E  3020               	movlw	32
  6336     013F  318D  25C0  3181   	fcall	_OLED_Command
  6337     0142                     l2495:
  6338                           
  6339                           ;OLED_SSD1306.c: 324:     (void)OLED_Command(0x02);
  6340     0142  3002               	movlw	2
  6341     0143  318D  25C0  3181   	fcall	_OLED_Command
  6342     0146                     l2497:
  6343                           
  6344                           ;OLED_SSD1306.c: 326:     (void)OLED_Command(0xA0 | 0x01);
  6345     0146  30A1               	movlw	161
  6346     0147  318D  25C0  3181   	fcall	_OLED_Command
  6347     014A                     l2499:
  6348                           
  6349                           ;OLED_SSD1306.c: 327:     (void)OLED_Command(0xC8);
  6350     014A  30C8               	movlw	200
  6351     014B  318D  25C0  3181   	fcall	_OLED_Command
  6352     014E                     l2501:
  6353                           
  6354                           ;OLED_SSD1306.c: 329:     (void)OLED_Command(0xDA);
  6355     014E  30DA               	movlw	218
  6356     014F  318D  25C0  3181   	fcall	_OLED_Command
  6357     0152                     l2503:
  6358                           
  6359                           ;OLED_SSD1306.c: 333:     (void)OLED_Command(0x02);
  6360     0152  3002               	movlw	2
  6361     0153  318D  25C0  3181   	fcall	_OLED_Command
  6362     0156                     l2505:
  6363                           
  6364                           ;OLED_SSD1306.c: 336:     (void)OLED_Command(0x81);
  6365     0156  3081               	movlw	129
  6366     0157  318D  25C0  3181   	fcall	_OLED_Command
  6367     015A                     l2507:
  6368                           
  6369                           ;OLED_SSD1306.c: 337:     (void)OLED_Command(0x8F);
  6370     015A  308F               	movlw	143
  6371     015B  318D  25C0  3181   	fcall	_OLED_Command
  6372     015E                     l2509:
  6373                           
  6374                           ;OLED_SSD1306.c: 339:     (void)OLED_Command(0xD9);
  6375     015E  30D9               	movlw	217
  6376     015F  318D  25C0  3181   	fcall	_OLED_Command
  6377     0162                     l2511:
  6378                           
  6379                           ;OLED_SSD1306.c: 340:     (void)OLED_Command(0xF1);
  6380     0162  30F1               	movlw	241
  6381     0163  318D  25C0  3181   	fcall	_OLED_Command
  6382     0166                     l2513:
  6383                           
  6384                           ;OLED_SSD1306.c: 342:     (void)OLED_Command(0xDB);
  6385     0166  30DB               	movlw	219
  6386     0167  318D  25C0  3181   	fcall	_OLED_Command
  6387     016A                     l2515:
  6388                           
  6389                           ;OLED_SSD1306.c: 343:     (void)OLED_Command(0x40);
  6390     016A  3040               	movlw	64
  6391     016B  318D  25C0  3181   	fcall	_OLED_Command
  6392     016E                     l2517:
  6393                           
  6394                           ;OLED_SSD1306.c: 345:     (void)OLED_Command(0xA4);
  6395     016E  30A4               	movlw	164
  6396     016F  318D  25C0  3181   	fcall	_OLED_Command
  6397     0172                     l2519:
  6398                           
  6399                           ;OLED_SSD1306.c: 346:     (void)OLED_Command(0xA6);
  6400     0172  30A6               	movlw	166
  6401     0173  318D  25C0  3181   	fcall	_OLED_Command
  6402     0176                     l2521:
  6403                           
  6404                           ;OLED_SSD1306.c: 347:     (void)OLED_Command(0xAF);
  6405     0176  30AF               	movlw	175
  6406     0177  318D  25C0  3181   	fcall	_OLED_Command
  6407     017A                     l2523:
  6408                           
  6409                           ;OLED_SSD1306.c: 350:     OLED_Clear();
  6410     017A  318F  2710  3181   	fcall	_OLED_Clear
  6411     017D                     l221:
  6412     017D  0008               	return
  6413     017E                     __end_of_OLED_Init:
  6414                           
  6415                           	psect	text17
  6416     0F10                     __ptext17:	
  6417 ;; *************** function _OLED_Clear *****************
  6418 ;; Defined at:
  6419 ;;		line 356 in file "OLED_SSD1306.c"
  6420 ;; Parameters:    Size  Location     Type
  6421 ;;		None
  6422 ;; Auto vars:     Size  Location     Type
  6423 ;;  p               1   12[COMMON] unsigned char 
  6424 ;; Return value:  Size  Location     Type
  6425 ;;                  1    wreg      void 
  6426 ;; Registers used:
  6427 ;;		wreg, fsr0l, fsr0h, fsr1l, fsr1h, status,2, status,0, pclath, cstack
  6428 ;; Tracked objects:
  6429 ;;		On entry : 0/0
  6430 ;;		On exit  : 0/0
  6431 ;;		Unchanged: 0/0
  6432 ;; Data sizes:     COMMON   BANK0   BANK1   BANK2   BANK3   BANK4   BANK5   BANK6   BANK7   BANK8   BANK9  BANK10  BANK1
      +1  BANK12  BANK13  BANK14  BANK15  BANK16  BANK17  BANK18  BANK19  BANK20  BANK21  BANK22  BANK23  BANK24  BANK25
  6433 ;;      Params:         0       0       0       0       0       0       0       0       0       0       0       0       
      +0       0       0       0       0       0       0       0       0       0       0       0       0       0       0
  6434 ;;      Locals:         1       0       0       0       0       0       0       0       0       0       0       0       
      +0       0       0       0       0       0       0       0       0       0       0       0       0       0       0
  6435 ;;      Temps:          0       6       0       0       0       0       0       0       0       0       0       0       
      +0       0       0       0       0       0       0       0       0       0       0       0       0       0       0
  6436 ;;      Totals:         1       6       0       0       0       0       0       0       0       0       0       0       
      +0       0       0       0       0       0       0       0       0       0       0       0       0       0       0
  6437 ;;Total ram usage:        7 bytes
  6438 ;; Hardware stack levels used: 1
  6439 ;; Hardware stack levels required when called: 4
  6440 ;; This function calls:
  6441 ;;		_OLED_WriteData
  6442 ;;		_OLED_YX
  6443 ;;		_memset
  6444 ;; This function is called by:
  6445 ;;		_main
  6446 ;;		_OLED_Init
  6447 ;; This function uses a non-reentrant model
  6448 ;;
  6449                           
  6450     0F10                     _OLED_Clear:	
  6451                           ;psect for function _OLED_Clear
  6452                           
  6453     0F10                     l2111:	
  6454                           ;incstack = 0
  6455                           ; Regs used in _OLED_Clear: [wreg-fsr1h+status,2+status,0+pclath+cstack]
  6456                           
  6457                           
  6458                           ;OLED_SSD1306.c: 358:     for (uint8_t p = 0; p < (32 / 8); p++)
  6459     0F10  01FC               	clrf	OLED_Clear@p
  6460     0F11                     l2117:
  6461                           
  6462                           ;OLED_SSD1306.c: 359:     {;OLED_SSD1306.c: 360:         memset(screen_buffer[p], 0, 128
      +                          );
  6463     0F11  087C               	movf	OLED_Clear@p,w
  6464     0F12  0020               	movlb	0	; select bank0
  6465     0F13  00A0               	movwf	??_OLED_Clear
  6466     0F14  01A1               	clrf	??_OLED_Clear+1
  6467     0F15  3007               	movlw	7
  6468     0F16                     u1895:
  6469     0F16  35A0               	lslf	??_OLED_Clear,f
  6470     0F17  0DA1               	rlf	??_OLED_Clear+1,f
  6471     0F18  0B89               	decfsz	9,f
  6472     0F19  2F16               	goto	u1895
  6473     0F1A  30F0               	movlw	240
  6474     0F1B  00A2               	movwf	??_OLED_Clear+2
  6475     0F1C  3024               	movlw	36
  6476     0F1D  00A3               	movwf	??_OLED_Clear+3
  6477     0F1E  0820               	movf	??_OLED_Clear,w
  6478     0F1F  0722               	addwf	??_OLED_Clear+2,w
  6479     0F20  00F0               	movwf	memset@dest
  6480     0F21  0821               	movf	??_OLED_Clear+1,w
  6481     0F22  3D23               	addwfc	??_OLED_Clear+3,w
  6482     0F23  00F1               	movwf	memset@dest+1
  6483     0F24  3000               	movlw	0
  6484     0F25  00F2               	movwf	memset@c
  6485     0F26  00F3               	movwf	memset@c+1
  6486     0F27  3080               	movlw	128
  6487     0F28  00F4               	movwf	memset@n
  6488     0F29  3000               	movlw	0
  6489     0F2A  00F5               	movwf	memset@n+1
  6490     0F2B  318C  2456  318F   	fcall	_memset
  6491     0F2E                     l2119:
  6492                           
  6493                           ;OLED_SSD1306.c: 362:         OLED_YX(p, 0);
  6494     0F2E  01F7               	clrf	OLED_YX@col_char
  6495     0F2F  087C               	movf	OLED_Clear@p,w
  6496     0F30  318C  24AF  318F   	fcall	_OLED_YX
  6497     0F33                     l2121:
  6498                           
  6499                           ;OLED_SSD1306.c: 363:         (void)OLED_WriteData(screen_buffer[p], 128);
  6500     0F33  087C               	movf	OLED_Clear@p,w
  6501     0F34  0020               	movlb	0	; select bank0
  6502     0F35  00A0               	movwf	??_OLED_Clear
  6503     0F36  01A1               	clrf	??_OLED_Clear+1
  6504     0F37  3007               	movlw	7
  6505     0F38                     u1905:
  6506     0F38  35A0               	lslf	??_OLED_Clear,f
  6507     0F39  0DA1               	rlf	??_OLED_Clear+1,f
  6508     0F3A  0B89               	decfsz	9,f
  6509     0F3B  2F38               	goto	u1905
  6510     0F3C  30F0               	movlw	240
  6511     0F3D  00A2               	movwf	??_OLED_Clear+2
  6512     0F3E  3024               	movlw	36
  6513     0F3F  00A3               	movwf	??_OLED_Clear+3
  6514     0F40  0820               	movf	??_OLED_Clear,w
  6515     0F41  0722               	addwf	??_OLED_Clear+2,w
  6516     0F42  00A4               	movwf	??_OLED_Clear+4
  6517     0F43  0821               	movf	??_OLED_Clear+1,w
  6518     0F44  3D23               	addwfc	??_OLED_Clear+3,w
  6519     0F45  00A5               	movwf	??_OLED_Clear+5
  6520     0F46  0824               	movf	??_OLED_Clear+4,w
  6521     0F47  00F5               	movwf	OLED_WriteData@data
  6522     0F48  0825               	movf	??_OLED_Clear+5,w
  6523     0F49  00F6               	movwf	OLED_WriteData@data+1
  6524     0F4A  3080               	movlw	128
  6525     0F4B  00F7               	movwf	OLED_WriteData@len
  6526     0F4C  3000               	movlw	0
  6527     0F4D  00F8               	movwf	OLED_WriteData@len+1
  6528     0F4E  318F  275D  318F   	fcall	_OLED_WriteData
  6529     0F51                     l2123:
  6530                           
  6531                           ;OLED_SSD1306.c: 364:     }
  6532     0F51  3001               	movlw	1
  6533     0F52  0020               	movlb	0	; select bank0
  6534     0F53  00A0               	movwf	??_OLED_Clear
  6535     0F54  0820               	movf	??_OLED_Clear,w
  6536     0F55  07FC               	addwf	OLED_Clear@p,f
  6537     0F56                     l2125:
  6538     0F56  3004               	movlw	4
  6539     0F57  027C               	subwf	OLED_Clear@p,w
  6540     0F58  1C03               	skipc
  6541     0F59  2F5B               	goto	u1911
  6542     0F5A  2F5C               	goto	u1910
  6543     0F5B                     u1911:
  6544     0F5B  2F11               	goto	l2117
  6545     0F5C                     u1910:
  6546     0F5C                     l226:
  6547     0F5C  0008               	return
  6548     0F5D                     __end_of_OLED_Clear:
  6549                           
  6550                           	psect	text18
  6551     0C56                     __ptext18:	
  6552 ;; *************** function _memset *****************
  6553 ;; Defined at:
  6554 ;;		line 3 in file "C:\Program Files\Microchip\xc8\v2.46\pic\sources\c99\common\memset.c"
  6555 ;; Parameters:    Size  Location     Type
  6556 ;;  dest            2    0[COMMON] PTR void 
  6557 ;;		 -> screen_buffer(512), 
  6558 ;;  c               2    2[COMMON] int 
  6559 ;;  n               2    4[COMMON] unsigned int 
  6560 ;; Auto vars:     Size  Location     Type
  6561 ;;  p               2    6[COMMON] PTR unsigned char 
  6562 ;;		 -> screen_buffer(512), 
  6563 ;; Return value:  Size  Location     Type
  6564 ;;                  2    0[COMMON] PTR void 
  6565 ;; Registers used:
  6566 ;;		wreg, fsr1l, fsr1h, status,2, status,0
  6567 ;; Tracked objects:
  6568 ;;		On entry : 0/0
  6569 ;;		On exit  : 0/0
  6570 ;;		Unchanged: 0/0
  6571 ;; Data sizes:     COMMON   BANK0   BANK1   BANK2   BANK3   BANK4   BANK5   BANK6   BANK7   BANK8   BANK9  BANK10  BANK1
      +1  BANK12  BANK13  BANK14  BANK15  BANK16  BANK17  BANK18  BANK19  BANK20  BANK21  BANK22  BANK23  BANK24  BANK25
  6572 ;;      Params:         6       0       0       0       0       0       0       0       0       0       0       0       
      +0       0       0       0       0       0       0       0       0       0       0       0       0       0       0
  6573 ;;      Locals:         2       0       0       0       0       0       0       0       0       0       0       0       
      +0       0       0       0       0       0       0       0       0       0       0       0       0       0       0
  6574 ;;      Temps:          0       0       0       0       0       0       0       0       0       0       0       0       
      +0       0       0       0       0       0       0       0       0       0       0       0       0       0       0
  6575 ;;      Totals:         8       0       0       0       0       0       0       0       0       0       0       0       
      +0       0       0       0       0       0       0       0       0       0       0       0       0       0       0
  6576 ;;Total ram usage:        8 bytes
  6577 ;; Hardware stack levels used: 1
  6578 ;; This function calls:
  6579 ;;		Nothing
  6580 ;; This function is called by:
  6581 ;;		_OLED_Clear
  6582 ;;		_OLED_Printf_Line
  6583 ;; This function uses a non-reentrant model
  6584 ;;
  6585                           
  6586     0C56                     _memset:	
  6587                           ;psect for function _memset
  6588                           
  6589     0C56                     l2099:	
  6590                           ;incstack = 0
  6591                           ; Regs used in _memset: [wreg+fsr1l+fsr1h+status,2+status,0]
  6592                           
  6593     0C56  0871               	movf	memset@dest+1,w
  6594     0C57  00F7               	movwf	memset@p+1
  6595     0C58  0870               	movf	memset@dest,w
  6596     0C59  00F6               	movwf	memset@p
  6597     0C5A  2C65               	goto	l2105
  6598     0C5B                     l2101:
  6599     0C5B  0876               	movf	memset@p,w
  6600     0C5C  0086               	movwf	6
  6601     0C5D  0877               	movf	memset@p+1,w
  6602     0C5E  0087               	movwf	7
  6603     0C5F  0872               	movf	memset@c,w
  6604     0C60  0081               	movwf	1
  6605     0C61                     l2103:
  6606     0C61  3001               	movlw	1
  6607     0C62  07F6               	addwf	memset@p,f
  6608     0C63  3000               	movlw	0
  6609     0C64  3DF7               	addwfc	memset@p+1,f
  6610     0C65                     l2105:
  6611     0C65  3001               	movlw	1
  6612     0C66  02F4               	subwf	memset@n,f
  6613     0C67  3000               	movlw	0
  6614     0C68  3BF5               	subwfb	memset@n+1,f
  6615     0C69  0A74               	incf	memset@n,w
  6616     0C6A  1D03               	skipz
  6617     0C6B  2C70               	goto	u1881
  6618     0C6C  0A75               	incf	memset@n+1,w
  6619     0C6D  1D03               	btfss	3,2
  6620     0C6E  2C70               	goto	u1881
  6621     0C6F  2C71               	goto	u1880
  6622     0C70                     u1881:
  6623     0C70  2C5B               	goto	l2101
  6624     0C71                     u1880:
  6625     0C71                     l879:
  6626     0C71  0008               	return
  6627     0C72                     __end_of_memset:
  6628                           
  6629                           	psect	text19
  6630     0CAF                     __ptext19:	
  6631 ;; *************** function _OLED_YX *****************
  6632 ;; Defined at:
  6633 ;;		line 283 in file "OLED_SSD1306.c"
  6634 ;; Parameters:    Size  Location     Type
  6635 ;;  page            1    wreg     unsigned char 
  6636 ;;  col_char        1    7[COMMON] unsigned char 
  6637 ;; Auto vars:     Size  Location     Type
  6638 ;;  page            1    9[COMMON] unsigned char 
  6639 ;;  col             1   10[COMMON] unsigned char 
  6640 ;; Return value:  Size  Location     Type
  6641 ;;                  1    wreg      void 
  6642 ;; Registers used:
  6643 ;;		wreg, status,2, status,0, pclath, cstack
  6644 ;; Tracked objects:
  6645 ;;		On entry : 0/0
  6646 ;;		On exit  : 0/0
  6647 ;;		Unchanged: 0/0
  6648 ;; Data sizes:     COMMON   BANK0   BANK1   BANK2   BANK3   BANK4   BANK5   BANK6   BANK7   BANK8   BANK9  BANK10  BANK1
      +1  BANK12  BANK13  BANK14  BANK15  BANK16  BANK17  BANK18  BANK19  BANK20  BANK21  BANK22  BANK23  BANK24  BANK25
  6649 ;;      Params:         1       0       0       0       0       0       0       0       0       0       0       0       
      +0       0       0       0       0       0       0       0       0       0       0       0       0       0       0
  6650 ;;      Locals:         2       0       0       0       0       0       0       0       0       0       0       0       
      +0       0       0       0       0       0       0       0       0       0       0       0       0       0       0
  6651 ;;      Temps:          1       0       0       0       0       0       0       0       0       0       0       0       
      +0       0       0       0       0       0       0       0       0       0       0       0       0       0       0
  6652 ;;      Totals:         4       0       0       0       0       0       0       0       0       0       0       0       
      +0       0       0       0       0       0       0       0       0       0       0       0       0       0       0
  6653 ;;Total ram usage:        4 bytes
  6654 ;; Hardware stack levels used: 1
  6655 ;; Hardware stack levels required when called: 3
  6656 ;; This function calls:
  6657 ;;		_OLED_Command
  6658 ;; This function is called by:
  6659 ;;		_OLED_Clear
  6660 ;;		_OLED_UpdateLine
  6661 ;;		_OLED_WriteString
  6662 ;; This function uses a non-reentrant model
  6663 ;;
  6664                           
  6665     0CAF                     _OLED_YX:	
  6666                           ;psect for function _OLED_YX
  6667                           
  6668                           
  6669                           ;incstack = 0
  6670                           ; Regs used in _OLED_YX: [wreg+status,2+status,0+pclath+cstack]
  6671                           ;OLED_YX@page stored from wreg
  6672     0CAF  00F9               	movwf	OLED_YX@page
  6673     0CB0                     l2091:
  6674                           
  6675                           ;OLED_SSD1306.c: 283: void OLED_YX(uint8_t page, uint8_t col_char);OLED_SSD1306.c: 284: 
      +                          {;OLED_SSD1306.c: 285:     uint8_t col = (uint8_t)(col_char * 8);
  6676     0CB0  0877               	movf	OLED_YX@col_char,w
  6677     0CB1  00F8               	movwf	??_OLED_YX
  6678     0CB2  3002               	movlw	2
  6679     0CB3                     u1865:
  6680     0CB3  35F8               	lslf	??_OLED_YX,f
  6681     0CB4  3EFF               	addlw	-1
  6682     0CB5  1D03               	skipz
  6683     0CB6  2CB3               	goto	u1865
  6684     0CB7  3578               	lslf	??_OLED_YX,w
  6685     0CB8  00FA               	movwf	OLED_YX@col
  6686     0CB9                     l2093:
  6687                           
  6688                           ;OLED_SSD1306.c: 287:     (void)OLED_Command(0xB0 | (page & 0x07));
  6689     0CB9  0879               	movf	OLED_YX@page,w
  6690     0CBA  3907               	andlw	7
  6691     0CBB  38B0               	iorlw	176
  6692     0CBC  318D  25C0  318C   	fcall	_OLED_Command
  6693     0CBF                     l2095:
  6694                           
  6695                           ;OLED_SSD1306.c: 288:     (void)OLED_Command(0x00 | (col & 0x0F));
  6696     0CBF  087A               	movf	OLED_YX@col,w
  6697     0CC0  390F               	andlw	15
  6698     0CC1  318D  25C0  318C   	fcall	_OLED_Command
  6699     0CC4                     l2097:
  6700                           
  6701                           ;OLED_SSD1306.c: 289:     (void)OLED_Command(0x10 | ((col >> 4) & 0x0F));
  6702     0CC4  087A               	movf	OLED_YX@col,w
  6703     0CC5  00F8               	movwf	??_OLED_YX
  6704     0CC6  3004               	movlw	4
  6705     0CC7                     u1875:
  6706     0CC7  36F8               	lsrf	??_OLED_YX,f
  6707     0CC8  0B89               	decfsz	9,f
  6708     0CC9  2CC7               	goto	u1875
  6709     0CCA  0878               	movf	??_OLED_YX,w
  6710     0CCB  390F               	andlw	15
  6711     0CCC  3810               	iorlw	16
  6712     0CCD  318D  25C0  318C   	fcall	_OLED_Command
  6713     0CD0                     l218:
  6714     0CD0  0008               	return
  6715     0CD1                     __end_of_OLED_YX:
  6716                           
  6717                           	psect	text20
  6718     0DC0                     __ptext20:	
  6719 ;; *************** function _OLED_Command *****************
  6720 ;; Defined at:
  6721 ;;		line 190 in file "OLED_SSD1306.c"
  6722 ;; Parameters:    Size  Location     Type
  6723 ;;  cmd             1    wreg     unsigned char 
  6724 ;; Auto vars:     Size  Location     Type
  6725 ;;  cmd             1    5[COMMON] unsigned char 
  6726 ;;  st              1    6[COMMON] enum E6043
  6727 ;; Return value:  Size  Location     Type
  6728 ;;                  1    wreg      enum E6043
  6729 ;; Registers used:
  6730 ;;		wreg, status,2, status,0, pclath, cstack
  6731 ;; Tracked objects:
  6732 ;;		On entry : 0/0
  6733 ;;		On exit  : 0/0
  6734 ;;		Unchanged: 0/0
  6735 ;; Data sizes:     COMMON   BANK0   BANK1   BANK2   BANK3   BANK4   BANK5   BANK6   BANK7   BANK8   BANK9  BANK10  BANK1
      +1  BANK12  BANK13  BANK14  BANK15  BANK16  BANK17  BANK18  BANK19  BANK20  BANK21  BANK22  BANK23  BANK24  BANK25
  6736 ;;      Params:         0       0       0       0       0       0       0       0       0       0       0       0       
      +0       0       0       0       0       0       0       0       0       0       0       0       0       0       0
  6737 ;;      Locals:         2       0       0       0       0       0       0       0       0       0       0       0       
      +0       0       0       0       0       0       0       0       0       0       0       0       0       0       0
  6738 ;;      Temps:          0       0       0       0       0       0       0       0       0       0       0       0       
      +0       0       0       0       0       0       0       0       0       0       0       0       0       0       0
  6739 ;;      Totals:         2       0       0       0       0       0       0       0       0       0       0       0       
      +0       0       0       0       0       0       0       0       0       0       0       0       0       0       0
  6740 ;;Total ram usage:        2 bytes
  6741 ;; Hardware stack levels used: 1
  6742 ;; Hardware stack levels required when called: 2
  6743 ;; This function calls:
  6744 ;;		_I2C_Start
  6745 ;;		_I2C_Stop
  6746 ;;		_I2C_WriteByte
  6747 ;;		_SSD1306_CtrlW
  6748 ;; This function is called by:
  6749 ;;		_OLED_SetOrientation
  6750 ;;		_OLED_YX
  6751 ;;		_OLED_Init
  6752 ;;		_OLED_UpdatePartialLine
  6753 ;; This function uses a non-reentrant model
  6754 ;;
  6755                           
  6756     0DC0                     _OLED_Command:	
  6757                           ;psect for function _OLED_Command
  6758                           
  6759                           
  6760                           ;incstack = 0
  6761                           ; Regs used in _OLED_Command: [wreg+status,2+status,0+pclath+cstack]
  6762                           ;OLED_Command@cmd stored from wreg
  6763     0DC0  00F5               	movwf	OLED_Command@cmd
  6764     0DC1                     l2023:
  6765                           
  6766                           ;OLED_SSD1306.c: 190: static I2C_Status_t OLED_Command(uint8_t cmd);OLED_SSD1306.c: 191:
      +                           {;OLED_SSD1306.c: 192:     I2C_Status_t st;;OLED_SSD1306.c: 194:     st = I2C_Start();
  6767     0DC1  318D  2518  318D   	fcall	_I2C_Start
  6768     0DC4  00F6               	movwf	OLED_Command@st
  6769     0DC5                     l2025:
  6770                           
  6771                           ;OLED_SSD1306.c: 195:     if (st != I2C_OK) return st;
  6772     0DC5  0876               	movf	OLED_Command@st,w
  6773     0DC6  1903               	btfsc	3,2
  6774     0DC7  2DC9               	goto	u1771
  6775     0DC8  2DCA               	goto	u1770
  6776     0DC9                     u1771:
  6777     0DC9  2DCB               	goto	l2029
  6778     0DCA                     u1770:
  6779     0DCA  2DED               	goto	l192
  6780     0DCB                     l2029:
  6781                           
  6782                           ;OLED_SSD1306.c: 197:     st = I2C_WriteByte(SSD1306_CtrlW());
  6783     0DCB  3180  2004  318D   	fcall	_SSD1306_CtrlW
  6784     0DCE  318D  25EE  318D   	fcall	_I2C_WriteByte
  6785     0DD1  00F6               	movwf	OLED_Command@st
  6786     0DD2                     l2031:
  6787                           
  6788                           ;OLED_SSD1306.c: 198:     if (st != I2C_OK) { I2C_Stop(); return st; }
  6789     0DD2  0876               	movf	OLED_Command@st,w
  6790     0DD3  1903               	btfsc	3,2
  6791     0DD4  2DD6               	goto	u1781
  6792     0DD5  2DD7               	goto	u1780
  6793     0DD6                     u1781:
  6794     0DD6  2DDB               	goto	l2037
  6795     0DD7                     u1780:
  6796     0DD7                     l2033:
  6797     0DD7  318C  24D1  318D   	fcall	_I2C_Stop
  6798     0DDA  2DED               	goto	l192
  6799     0DDB                     l2037:
  6800                           
  6801                           ;OLED_SSD1306.c: 200:     st = I2C_WriteByte(0x00);
  6802     0DDB  3000               	movlw	0
  6803     0DDC  318D  25EE  318D   	fcall	_I2C_WriteByte
  6804     0DDF  00F6               	movwf	OLED_Command@st
  6805     0DE0                     l2039:
  6806                           
  6807                           ;OLED_SSD1306.c: 201:     if (st != I2C_OK) { I2C_Stop(); return st; }
  6808     0DE0  0876               	movf	OLED_Command@st,w
  6809     0DE1  1903               	btfsc	3,2
  6810     0DE2  2DE4               	goto	u1791
  6811     0DE3  2DE5               	goto	u1790
  6812     0DE4                     u1791:
  6813     0DE4  2DE6               	goto	l2045
  6814     0DE5                     u1790:
  6815     0DE5  2DD7               	goto	l2033
  6816     0DE6                     l2045:
  6817     0DE6  0875               	movf	OLED_Command@cmd,w
  6818     0DE7  318D  25EE  318D   	fcall	_I2C_WriteByte
  6819                           
  6820                           ;OLED_SSD1306.c: 204:     I2C_Stop();
  6821     0DEA  318C  24D1  318D   	fcall	_I2C_Stop
  6822     0DED                     l192:
  6823     0DED  0008               	return
  6824     0DEE                     __end_of_OLED_Command:
  6825                           
  6826                           	psect	text21
  6827     0F5D                     __ptext21:	
  6828 ;; *************** function _OLED_WriteData *****************
  6829 ;; Defined at:
  6830 ;;		line 215 in file "OLED_SSD1306.c"
  6831 ;; Parameters:    Size  Location     Type
  6832 ;;  data            2    5[COMMON] PTR const unsigned char 
  6833 ;;		 -> OledFont(768), screen_buffer(512), 
  6834 ;;  len             2    7[COMMON] unsigned short 
  6835 ;; Auto vars:     Size  Location     Type
  6836 ;;  i               2    9[COMMON] unsigned short 
  6837 ;;  st              1   11[COMMON] enum E6043
  6838 ;; Return value:  Size  Location     Type
  6839 ;;                  1    wreg      enum E6043
  6840 ;; Registers used:
  6841 ;;		wreg, fsr0l, fsr0h, status,2, status,0, pclath, cstack
  6842 ;; Tracked objects:
  6843 ;;		On entry : 0/0
  6844 ;;		On exit  : 0/0
  6845 ;;		Unchanged: 0/0
  6846 ;; Data sizes:     COMMON   BANK0   BANK1   BANK2   BANK3   BANK4   BANK5   BANK6   BANK7   BANK8   BANK9  BANK10  BANK1
      +1  BANK12  BANK13  BANK14  BANK15  BANK16  BANK17  BANK18  BANK19  BANK20  BANK21  BANK22  BANK23  BANK24  BANK25
  6847 ;;      Params:         4       0       0       0       0       0       0       0       0       0       0       0       
      +0       0       0       0       0       0       0       0       0       0       0       0       0       0       0
  6848 ;;      Locals:         3       0       0       0       0       0       0       0       0       0       0       0       
      +0       0       0       0       0       0       0       0       0       0       0       0       0       0       0
  6849 ;;      Temps:          0       0       0       0       0       0       0       0       0       0       0       0       
      +0       0       0       0       0       0       0       0       0       0       0       0       0       0       0
  6850 ;;      Totals:         7       0       0       0       0       0       0       0       0       0       0       0       
      +0       0       0       0       0       0       0       0       0       0       0       0       0       0       0
  6851 ;;Total ram usage:        7 bytes
  6852 ;; Hardware stack levels used: 1
  6853 ;; Hardware stack levels required when called: 2
  6854 ;; This function calls:
  6855 ;;		_I2C_Start
  6856 ;;		_I2C_Stop
  6857 ;;		_I2C_WriteByte
  6858 ;;		_SSD1306_CtrlW
  6859 ;; This function is called by:
  6860 ;;		_OLED_Clear
  6861 ;;		_OLED_UpdateLine
  6862 ;;		_OLED_UpdatePartialLine
  6863 ;;		_OLED_WriteString
  6864 ;; This function uses a non-reentrant model
  6865 ;;
  6866                           
  6867     0F5D                     _OLED_WriteData:	
  6868                           ;psect for function _OLED_WriteData
  6869                           
  6870     0F5D                     l2049:	
  6871                           ;incstack = 0
  6872                           ; Regs used in _OLED_WriteData: [wreg-fsr0h+status,2+status,0+pclath+cstack]
  6873                           
  6874                           
  6875                           ;OLED_SSD1306.c: 215: static I2C_Status_t OLED_WriteData(const uint8_t* data, uint16_t l
      +                          en);OLED_SSD1306.c: 216: {;OLED_SSD1306.c: 217:     I2C_Status_t st;;OLED_SSD1306.c: 219
      +                          :     if (data == ((void*)0)) return I2C_TIMEOUT;
  6876     0F5D  0875               	movf	OLED_WriteData@data,w
  6877     0F5E  0476               	iorwf	OLED_WriteData@data+1,w
  6878     0F5F  1D03               	btfss	3,2
  6879     0F60  2F62               	goto	u1801
  6880     0F61  2F63               	goto	u1800
  6881     0F62                     u1801:
  6882     0F62  2F64               	goto	l2053
  6883     0F63                     u1800:
  6884     0F63  2FAC               	goto	l198
  6885     0F64                     l2053:
  6886                           
  6887                           ;OLED_SSD1306.c: 221:     st = I2C_Start();
  6888     0F64  318D  2518  318F   	fcall	_I2C_Start
  6889     0F67  00FB               	movwf	OLED_WriteData@st
  6890     0F68                     l2055:
  6891                           
  6892                           ;OLED_SSD1306.c: 222:     if (st != I2C_OK) return st;
  6893     0F68  087B               	movf	OLED_WriteData@st,w
  6894     0F69  1903               	btfsc	3,2
  6895     0F6A  2F6C               	goto	u1811
  6896     0F6B  2F6D               	goto	u1810
  6897     0F6C                     u1811:
  6898     0F6C  2F6E               	goto	l2059
  6899     0F6D                     u1810:
  6900     0F6D  2FAC               	goto	l198
  6901     0F6E                     l2059:
  6902                           
  6903                           ;OLED_SSD1306.c: 224:     st = I2C_WriteByte(SSD1306_CtrlW());
  6904     0F6E  3180  2004  318F   	fcall	_SSD1306_CtrlW
  6905     0F71  318D  25EE  318F   	fcall	_I2C_WriteByte
  6906     0F74  00FB               	movwf	OLED_WriteData@st
  6907     0F75                     l2061:
  6908                           
  6909                           ;OLED_SSD1306.c: 225:     if (st != I2C_OK) { I2C_Stop(); return st; }
  6910     0F75  087B               	movf	OLED_WriteData@st,w
  6911     0F76  1903               	btfsc	3,2
  6912     0F77  2F79               	goto	u1821
  6913     0F78  2F7A               	goto	u1820
  6914     0F79                     u1821:
  6915     0F79  2F7E               	goto	l2067
  6916     0F7A                     u1820:
  6917     0F7A                     l2063:
  6918     0F7A  318C  24D1  318F   	fcall	_I2C_Stop
  6919     0F7D  2FAC               	goto	l198
  6920     0F7E                     l2067:
  6921                           
  6922                           ;OLED_SSD1306.c: 227:     st = I2C_WriteByte(0x40);
  6923     0F7E  3040               	movlw	64
  6924     0F7F  318D  25EE  318F   	fcall	_I2C_WriteByte
  6925     0F82  00FB               	movwf	OLED_WriteData@st
  6926     0F83                     l2069:
  6927                           
  6928                           ;OLED_SSD1306.c: 228:     if (st != I2C_OK) { I2C_Stop(); return st; }
  6929     0F83  087B               	movf	OLED_WriteData@st,w
  6930     0F84  1903               	btfsc	3,2
  6931     0F85  2F87               	goto	u1831
  6932     0F86  2F88               	goto	u1830
  6933     0F87                     u1831:
  6934     0F87  2F89               	goto	l2075
  6935     0F88                     u1830:
  6936     0F88  2F7A               	goto	l2063
  6937     0F89                     l2075:
  6938                           
  6939                           ;OLED_SSD1306.c: 230:     for (uint16_t i = 0; i < len; i++)
  6940     0F89  01F9               	clrf	OLED_WriteData@i
  6941     0F8A  01FA               	clrf	OLED_WriteData@i+1
  6942     0F8B  2FA1               	goto	l202
  6943     0F8C                     l2077:
  6944                           
  6945                           ;OLED_SSD1306.c: 231:     {;OLED_SSD1306.c: 232:         st = I2C_WriteByte(data[i]);
  6946     0F8C  0875               	movf	OLED_WriteData@data,w
  6947     0F8D  0779               	addwf	OLED_WriteData@i,w
  6948     0F8E  0084               	movwf	4
  6949     0F8F  0876               	movf	OLED_WriteData@data+1,w
  6950     0F90  3D7A               	addwfc	OLED_WriteData@i+1,w
  6951     0F91  0085               	movwf	5
  6952     0F92  0800               	movf	0,w	;code access
  6953     0F93  318D  25EE  318F   	fcall	_I2C_WriteByte
  6954     0F96  00FB               	movwf	OLED_WriteData@st
  6955     0F97                     l2079:
  6956                           
  6957                           ;OLED_SSD1306.c: 233:         if (st != I2C_OK) { I2C_Stop(); return st; }
  6958     0F97  087B               	movf	OLED_WriteData@st,w
  6959     0F98  1903               	btfsc	3,2
  6960     0F99  2F9B               	goto	u1841
  6961     0F9A  2F9C               	goto	u1840
  6962     0F9B                     u1841:
  6963     0F9B  2F9D               	goto	l2085
  6964     0F9C                     u1840:
  6965     0F9C  2F7A               	goto	l2063
  6966     0F9D                     l2085:
  6967                           
  6968                           ;OLED_SSD1306.c: 234:     }
  6969     0F9D  3001               	movlw	1
  6970     0F9E  07F9               	addwf	OLED_WriteData@i,f
  6971     0F9F  3000               	movlw	0
  6972     0FA0  3DFA               	addwfc	OLED_WriteData@i+1,f
  6973     0FA1                     l202:
  6974     0FA1  0878               	movf	OLED_WriteData@len+1,w
  6975     0FA2  027A               	subwf	OLED_WriteData@i+1,w
  6976     0FA3  1D03               	skipz
  6977     0FA4  2FA7               	goto	u1855
  6978     0FA5  0877               	movf	OLED_WriteData@len,w
  6979     0FA6  0279               	subwf	OLED_WriteData@i,w
  6980     0FA7                     u1855:
  6981     0FA7  1C03               	skipc
  6982     0FA8  2FAA               	goto	u1851
  6983     0FA9  2FAB               	goto	u1850
  6984     0FAA                     u1851:
  6985     0FAA  2F8C               	goto	l2077
  6986     0FAB                     u1850:
  6987     0FAB  2F7A               	goto	l2063
  6988     0FAC                     l198:
  6989     0FAC  0008               	return
  6990     0FAD                     __end_of_OLED_WriteData:
  6991                           
  6992                           	psect	text22
  6993     0004                     __ptext22:	
  6994 ;; *************** function _SSD1306_CtrlW *****************
  6995 ;; Defined at:
  6996 ;;		line 182 in file "OLED_SSD1306.c"
  6997 ;; Parameters:    Size  Location     Type
  6998 ;;		None
  6999 ;; Auto vars:     Size  Location     Type
  7000 ;;		None
  7001 ;; Return value:  Size  Location     Type
  7002 ;;                  1    wreg      unsigned char 
  7003 ;; Registers used:
  7004 ;;		wreg
  7005 ;; Tracked objects:
  7006 ;;		On entry : 0/0
  7007 ;;		On exit  : 0/0
  7008 ;;		Unchanged: 0/0
  7009 ;; Data sizes:     COMMON   BANK0   BANK1   BANK2   BANK3   BANK4   BANK5   BANK6   BANK7   BANK8   BANK9  BANK10  BANK1
      +1  BANK12  BANK13  BANK14  BANK15  BANK16  BANK17  BANK18  BANK19  BANK20  BANK21  BANK22  BANK23  BANK24  BANK25
  7010 ;;      Params:         0       0       0       0       0       0       0       0       0       0       0       0       
      +0       0       0       0       0       0       0       0       0       0       0       0       0       0       0
  7011 ;;      Locals:         0       0       0       0       0       0       0       0       0       0       0       0       
      +0       0       0       0       0       0       0       0       0       0       0       0       0       0       0
  7012 ;;      Temps:          0       0       0       0       0       0       0       0       0       0       0       0       
      +0       0       0       0       0       0       0       0       0       0       0       0       0       0       0
  7013 ;;      Totals:         0       0       0       0       0       0       0       0       0       0       0       0       
      +0       0       0       0       0       0       0       0       0       0       0       0       0       0       0
  7014 ;;Total ram usage:        0 bytes
  7015 ;; Hardware stack levels used: 1
  7016 ;; This function calls:
  7017 ;;		Nothing
  7018 ;; This function is called by:
  7019 ;;		_OLED_Command
  7020 ;;		_OLED_WriteData
  7021 ;; This function uses a non-reentrant model
  7022 ;;
  7023                           
  7024     0004                     _SSD1306_CtrlW:	
  7025                           ;psect for function _SSD1306_CtrlW
  7026                           
  7027     0004                     l2019:	
  7028                           ;incstack = 0
  7029                           ; Regs used in _SSD1306_CtrlW: [wreg]
  7030                           
  7031     0004  3078               	movlw	120
  7032     0005                     l188:
  7033     0005  0008               	return
  7034     0006                     __end_of_SSD1306_CtrlW:
  7035                           
  7036                           	psect	text23
  7037     0DEE                     __ptext23:	
  7038 ;; *************** function _I2C_WriteByte *****************
  7039 ;; Defined at:
  7040 ;;		line 161 in file "I2C.c"
  7041 ;; Parameters:    Size  Location     Type
  7042 ;;  data            1    wreg     unsigned char 
  7043 ;; Auto vars:     Size  Location     Type
  7044 ;;  data            1    3[COMMON] unsigned char 
  7045 ;;  st              1    4[COMMON] enum E6036
  7046 ;; Return value:  Size  Location     Type
  7047 ;;                  1    wreg      enum E6036
  7048 ;; Registers used:
  7049 ;;		wreg, status,2, status,0, pclath, cstack
  7050 ;; Tracked objects:
  7051 ;;		On entry : 0/0
  7052 ;;		On exit  : 0/0
  7053 ;;		Unchanged: 0/0
  7054 ;; Data sizes:     COMMON   BANK0   BANK1   BANK2   BANK3   BANK4   BANK5   BANK6   BANK7   BANK8   BANK9  BANK10  BANK1
      +1  BANK12  BANK13  BANK14  BANK15  BANK16  BANK17  BANK18  BANK19  BANK20  BANK21  BANK22  BANK23  BANK24  BANK25
  7055 ;;      Params:         0       0       0       0       0       0       0       0       0       0       0       0       
      +0       0       0       0       0       0       0       0       0       0       0       0       0       0       0
  7056 ;;      Locals:         2       0       0       0       0       0       0       0       0       0       0       0       
      +0       0       0       0       0       0       0       0       0       0       0       0       0       0       0
  7057 ;;      Temps:          0       0       0       0       0       0       0       0       0       0       0       0       
      +0       0       0       0       0       0       0       0       0       0       0       0       0       0       0
  7058 ;;      Totals:         2       0       0       0       0       0       0       0       0       0       0       0       
      +0       0       0       0       0       0       0       0       0       0       0       0       0       0       0
  7059 ;;Total ram usage:        2 bytes
  7060 ;; Hardware stack levels used: 1
  7061 ;; Hardware stack levels required when called: 1
  7062 ;; This function calls:
  7063 ;;		_I2C_WaitIF
  7064 ;;		_I2C_WaitIdle
  7065 ;; This function is called by:
  7066 ;;		_OLED_Command
  7067 ;;		_OLED_WriteData
  7068 ;; This function uses a non-reentrant model
  7069 ;;
  7070                           
  7071     0DEE                     _I2C_WriteByte:	
  7072                           ;psect for function _I2C_WriteByte
  7073                           
  7074                           
  7075                           ;incstack = 0
  7076                           ; Regs used in _I2C_WriteByte: [wreg+status,2+status,0+pclath+cstack]
  7077                           ;I2C_WriteByte@data stored from wreg
  7078     0DEE  00F3               	movwf	I2C_WriteByte@data
  7079     0DEF                     l1991:
  7080                           
  7081                           ;I2C.c: 161: I2C_Status_t I2C_WriteByte(uint8_t data);I2C.c: 162: {;I2C.c: 163:     I2C_
      +                          Status_t st;;I2C.c: 165:     st = I2C_WaitIdle(50);
  7082     0DEF  3032               	movlw	50
  7083     0DF0  00F0               	movwf	I2C_WaitIdle@timeout_ms
  7084     0DF1  3000               	movlw	0
  7085     0DF2  00F1               	movwf	I2C_WaitIdle@timeout_ms+1
  7086     0DF3  318C  24F4  318D   	fcall	_I2C_WaitIdle
  7087     0DF6  00F4               	movwf	I2C_WriteByte@st
  7088     0DF7                     l1993:
  7089                           
  7090                           ;I2C.c: 166:     if (st != I2C_OK) return st;
  7091     0DF7  0874               	movf	I2C_WriteByte@st,w
  7092     0DF8  1903               	btfsc	3,2
  7093     0DF9  2DFB               	goto	u1741
  7094     0DFA  2DFC               	goto	u1740
  7095     0DFB                     u1741:
  7096     0DFB  2DFE               	goto	l60
  7097     0DFC                     u1740:
  7098     0DFC                     l1995:
  7099     0DFC  0874               	movf	I2C_WriteByte@st,w
  7100     0DFD  2E1F               	goto	l61
  7101     0DFE                     l60:
  7102                           
  7103                           ;I2C.c: 168:     PIR1bits.SSP1IF = 0;
  7104     0DFE  0020               	movlb	0	; select bank0
  7105     0DFF  1191               	bcf	17,3	;volatile
  7106     0E00                     l1999:
  7107                           
  7108                           ;I2C.c: 169:     SSPBUF = data;
  7109     0E00  0873               	movf	I2C_WriteByte@data,w
  7110     0E01  0024               	movlb	4	; select bank4
  7111     0E02  0091               	movwf	17	;volatile
  7112     0E03                     l2001:
  7113                           
  7114                           ;I2C.c: 171:     st = I2C_WaitIF(50);
  7115     0E03  3032               	movlw	50
  7116     0E04  00F0               	movwf	I2C_WaitIF@timeout_ms
  7117     0E05  3000               	movlw	0
  7118     0E06  00F1               	movwf	I2C_WaitIF@timeout_ms+1
  7119     0E07  318C  2472  318D   	fcall	_I2C_WaitIF
  7120     0E0A  00F4               	movwf	I2C_WriteByte@st
  7121     0E0B                     l2003:
  7122                           
  7123                           ;I2C.c: 172:     if (st != I2C_OK) return st;
  7124     0E0B  0874               	movf	I2C_WriteByte@st,w
  7125     0E0C  1903               	btfsc	3,2
  7126     0E0D  2E0F               	goto	u1751
  7127     0E0E  2E10               	goto	u1750
  7128     0E0F                     u1751:
  7129     0E0F  2E11               	goto	l62
  7130     0E10                     u1750:
  7131     0E10  2DFC               	goto	l1995
  7132     0E11                     l62:
  7133                           
  7134                           ;I2C.c: 175:     if (PIR2bits.BCL1IF)
  7135     0E11  0020               	movlb	0	; select bank0
  7136     0E12  1D92               	btfss	18,3	;volatile
  7137     0E13  2E15               	goto	u1761
  7138     0E14  2E16               	goto	u1760
  7139     0E15                     u1761:
  7140     0E15  2E19               	goto	l63
  7141     0E16                     u1760:
  7142     0E16                     l2009:
  7143                           
  7144                           ;I2C.c: 176:     {;I2C.c: 177:         PIR2bits.BCL1IF = 0;
  7145     0E16  1192               	bcf	18,3	;volatile
  7146     0E17                     l2011:
  7147                           
  7148                           ;I2C.c: 178:         return I2C_BUS_COLLISION;
  7149     0E17  3003               	movlw	3
  7150     0E18  2E1F               	goto	l61
  7151     0E19                     l63:	
  7152                           ;I2C.c: 179:     }
  7153                           
  7154                           
  7155                           ;I2C.c: 182:     PIR1bits.SSP1IF = 0;
  7156     0E19  1191               	bcf	17,3	;volatile
  7157     0E1A                     l2015:
  7158                           
  7159                           ;I2C.c: 183:     return (SSPCON2bits.ACKSTAT == 0) ? I2C_OK : I2C_NAK;
  7160     0E1A  0024               	movlb	4	; select bank4
  7161     0E1B  0E16               	swapf	22,w	;volatile
  7162     0E1C  0C89               	rrf	9,f
  7163     0E1D  0C89               	rrf	9,f
  7164     0E1E  3901               	andlw	1
  7165     0E1F                     l61:
  7166     0E1F  0008               	return
  7167     0E20                     __end_of_I2C_WriteByte:
  7168                           
  7169                           	psect	text24
  7170     0CD1                     __ptext24:	
  7171 ;; *************** function _I2C_Stop *****************
  7172 ;; Defined at:
  7173 ;;		line 138 in file "I2C.c"
  7174 ;; Parameters:    Size  Location     Type
  7175 ;;		None
  7176 ;; Auto vars:     Size  Location     Type
  7177 ;;  st              1    3[COMMON] enum E6036
  7178 ;; Return value:  Size  Location     Type
  7179 ;;                  1    wreg      enum E6036
  7180 ;; Registers used:
  7181 ;;		wreg, status,2, status,0, pclath, cstack
  7182 ;; Tracked objects:
  7183 ;;		On entry : 0/0
  7184 ;;		On exit  : 0/0
  7185 ;;		Unchanged: 0/0
  7186 ;; Data sizes:     COMMON   BANK0   BANK1   BANK2   BANK3   BANK4   BANK5   BANK6   BANK7   BANK8   BANK9  BANK10  BANK1
      +1  BANK12  BANK13  BANK14  BANK15  BANK16  BANK17  BANK18  BANK19  BANK20  BANK21  BANK22  BANK23  BANK24  BANK25
  7187 ;;      Params:         0       0       0       0       0       0       0       0       0       0       0       0       
      +0       0       0       0       0       0       0       0       0       0       0       0       0       0       0
  7188 ;;      Locals:         1       0       0       0       0       0       0       0       0       0       0       0       
      +0       0       0       0       0       0       0       0       0       0       0       0       0       0       0
  7189 ;;      Temps:          0       0       0       0       0       0       0       0       0       0       0       0       
      +0       0       0       0       0       0       0       0       0       0       0       0       0       0       0
  7190 ;;      Totals:         1       0       0       0       0       0       0       0       0       0       0       0       
      +0       0       0       0       0       0       0       0       0       0       0       0       0       0       0
  7191 ;;Total ram usage:        1 bytes
  7192 ;; Hardware stack levels used: 1
  7193 ;; Hardware stack levels required when called: 1
  7194 ;; This function calls:
  7195 ;;		_I2C_WaitIF
  7196 ;;		_I2C_WaitIdle
  7197 ;; This function is called by:
  7198 ;;		_OLED_Command
  7199 ;;		_OLED_WriteData
  7200 ;; This function uses a non-reentrant model
  7201 ;;
  7202                           
  7203     0CD1                     _I2C_Stop:	
  7204                           ;psect for function _I2C_Stop
  7205                           
  7206     0CD1                     l1979:	
  7207                           ;incstack = 0
  7208                           ; Regs used in _I2C_Stop: [wreg+status,2+status,0+pclath+cstack]
  7209                           
  7210                           
  7211                           ;I2C.c: 140:     I2C_Status_t st;;I2C.c: 142:     st = I2C_WaitIdle(50);
  7212     0CD1  3032               	movlw	50
  7213     0CD2  00F0               	movwf	I2C_WaitIdle@timeout_ms
  7214     0CD3  3000               	movlw	0
  7215     0CD4  00F1               	movwf	I2C_WaitIdle@timeout_ms+1
  7216     0CD5  318C  24F4  318C   	fcall	_I2C_WaitIdle
  7217     0CD8  00F3               	movwf	I2C_Stop@st
  7218     0CD9                     l1981:
  7219                           
  7220                           ;I2C.c: 143:     if (st != I2C_OK) return st;
  7221     0CD9  0873               	movf	I2C_Stop@st,w
  7222     0CDA  1903               	btfsc	3,2
  7223     0CDB  2CDD               	goto	u1721
  7224     0CDC  2CDE               	goto	u1720
  7225     0CDD                     u1721:
  7226     0CDD  2CDF               	goto	l55
  7227     0CDE                     u1720:
  7228     0CDE  2CF3               	goto	l56
  7229     0CDF                     l55:
  7230                           
  7231                           ;I2C.c: 145:     PIR1bits.SSP1IF = 0;
  7232     0CDF  0020               	movlb	0	; select bank0
  7233     0CE0  1191               	bcf	17,3	;volatile
  7234                           
  7235                           ;I2C.c: 146:     SSPCON2bits.PEN = 1;
  7236     0CE1  0024               	movlb	4	; select bank4
  7237     0CE2  1516               	bsf	22,2	;volatile
  7238     0CE3                     l1985:
  7239                           
  7240                           ;I2C.c: 148:     st = I2C_WaitIF(50);
  7241     0CE3  3032               	movlw	50
  7242     0CE4  00F0               	movwf	I2C_WaitIF@timeout_ms
  7243     0CE5  3000               	movlw	0
  7244     0CE6  00F1               	movwf	I2C_WaitIF@timeout_ms+1
  7245     0CE7  318C  2472  318C   	fcall	_I2C_WaitIF
  7246     0CEA  00F3               	movwf	I2C_Stop@st
  7247     0CEB                     l1987:
  7248                           
  7249                           ;I2C.c: 149:     if (st != I2C_OK) return st;
  7250     0CEB  0873               	movf	I2C_Stop@st,w
  7251     0CEC  1903               	btfsc	3,2
  7252     0CED  2CEF               	goto	u1731
  7253     0CEE  2CF0               	goto	u1730
  7254     0CEF                     u1731:
  7255     0CEF  2CF1               	goto	l57
  7256     0CF0                     u1730:
  7257     0CF0  2CF3               	goto	l56
  7258     0CF1                     l57:
  7259                           
  7260                           ;I2C.c: 151:     PIR1bits.SSP1IF = 0;
  7261     0CF1  0020               	movlb	0	; select bank0
  7262     0CF2  1191               	bcf	17,3	;volatile
  7263     0CF3                     l56:	
  7264                           ;I2C.c: 152:     return I2C_OK;;	Return value of _I2C_Stop is never used
  7265                           
  7266     0CF3  0008               	return
  7267     0CF4                     __end_of_I2C_Stop:
  7268                           
  7269                           	psect	text25
  7270     0D18                     __ptext25:	
  7271 ;; *************** function _I2C_Start *****************
  7272 ;; Defined at:
  7273 ;;		line 98 in file "I2C.c"
  7274 ;; Parameters:    Size  Location     Type
  7275 ;;		None
  7276 ;; Auto vars:     Size  Location     Type
  7277 ;;  st              1    3[COMMON] enum E6036
  7278 ;; Return value:  Size  Location     Type
  7279 ;;                  1    wreg      enum E6036
  7280 ;; Registers used:
  7281 ;;		wreg, status,2, status,0, pclath, cstack
  7282 ;; Tracked objects:
  7283 ;;		On entry : 0/0
  7284 ;;		On exit  : 0/0
  7285 ;;		Unchanged: 0/0
  7286 ;; Data sizes:     COMMON   BANK0   BANK1   BANK2   BANK3   BANK4   BANK5   BANK6   BANK7   BANK8   BANK9  BANK10  BANK1
      +1  BANK12  BANK13  BANK14  BANK15  BANK16  BANK17  BANK18  BANK19  BANK20  BANK21  BANK22  BANK23  BANK24  BANK25
  7287 ;;      Params:         0       0       0       0       0       0       0       0       0       0       0       0       
      +0       0       0       0       0       0       0       0       0       0       0       0       0       0       0
  7288 ;;      Locals:         1       0       0       0       0       0       0       0       0       0       0       0       
      +0       0       0       0       0       0       0       0       0       0       0       0       0       0       0
  7289 ;;      Temps:          0       0       0       0       0       0       0       0       0       0       0       0       
      +0       0       0       0       0       0       0       0       0       0       0       0       0       0       0
  7290 ;;      Totals:         1       0       0       0       0       0       0       0       0       0       0       0       
      +0       0       0       0       0       0       0       0       0       0       0       0       0       0       0
  7291 ;;Total ram usage:        1 bytes
  7292 ;; Hardware stack levels used: 1
  7293 ;; Hardware stack levels required when called: 1
  7294 ;; This function calls:
  7295 ;;		_I2C_WaitIF
  7296 ;;		_I2C_WaitIdle
  7297 ;; This function is called by:
  7298 ;;		_OLED_Command
  7299 ;;		_OLED_WriteData
  7300 ;; This function uses a non-reentrant model
  7301 ;;
  7302                           
  7303     0D18                     _I2C_Start:	
  7304                           ;psect for function _I2C_Start
  7305                           
  7306     0D18                     l1959:	
  7307                           ;incstack = 0
  7308                           ; Regs used in _I2C_Start: [wreg+status,2+status,0+pclath+cstack]
  7309                           
  7310                           
  7311                           ;I2C.c: 100:     I2C_Status_t st;;I2C.c: 102:     st = I2C_WaitIdle(50);
  7312     0D18  3032               	movlw	50
  7313     0D19  00F0               	movwf	I2C_WaitIdle@timeout_ms
  7314     0D1A  3000               	movlw	0
  7315     0D1B  00F1               	movwf	I2C_WaitIdle@timeout_ms+1
  7316     0D1C  318C  24F4  318D   	fcall	_I2C_WaitIdle
  7317     0D1F  00F3               	movwf	I2C_Start@st
  7318     0D20                     l1961:
  7319                           
  7320                           ;I2C.c: 103:     if (st != I2C_OK) return st;
  7321     0D20  0873               	movf	I2C_Start@st,w
  7322     0D21  1903               	btfsc	3,2
  7323     0D22  2D24               	goto	u1701
  7324     0D23  2D25               	goto	u1700
  7325     0D24                     u1701:
  7326     0D24  2D27               	goto	l45
  7327     0D25                     u1700:
  7328     0D25                     l1963:
  7329     0D25  0873               	movf	I2C_Start@st,w
  7330     0D26  2D3C               	goto	l46
  7331     0D27                     l45:
  7332                           
  7333                           ;I2C.c: 105:     PIR1bits.SSP1IF = 0;
  7334     0D27  0020               	movlb	0	; select bank0
  7335     0D28  1191               	bcf	17,3	;volatile
  7336                           
  7337                           ;I2C.c: 106:     SSPCON2bits.SEN = 1;
  7338     0D29  0024               	movlb	4	; select bank4
  7339     0D2A  1416               	bsf	22,0	;volatile
  7340     0D2B                     l1967:
  7341                           
  7342                           ;I2C.c: 108:     st = I2C_WaitIF(50);
  7343     0D2B  3032               	movlw	50
  7344     0D2C  00F0               	movwf	I2C_WaitIF@timeout_ms
  7345     0D2D  3000               	movlw	0
  7346     0D2E  00F1               	movwf	I2C_WaitIF@timeout_ms+1
  7347     0D2F  318C  2472  318D   	fcall	_I2C_WaitIF
  7348     0D32  00F3               	movwf	I2C_Start@st
  7349     0D33                     l1969:
  7350                           
  7351                           ;I2C.c: 109:     if (st != I2C_OK) return st;
  7352     0D33  0873               	movf	I2C_Start@st,w
  7353     0D34  1903               	btfsc	3,2
  7354     0D35  2D37               	goto	u1711
  7355     0D36  2D38               	goto	u1710
  7356     0D37                     u1711:
  7357     0D37  2D39               	goto	l47
  7358     0D38                     u1710:
  7359     0D38  2D25               	goto	l1963
  7360     0D39                     l47:
  7361                           
  7362                           ;I2C.c: 111:     PIR1bits.SSP1IF = 0;
  7363     0D39  0020               	movlb	0	; select bank0
  7364     0D3A  1191               	bcf	17,3	;volatile
  7365     0D3B                     l1975:
  7366                           
  7367                           ;I2C.c: 112:     return I2C_OK;
  7368     0D3B  3000               	movlw	0
  7369     0D3C                     l46:
  7370     0D3C  0008               	return
  7371     0D3D                     __end_of_I2C_Start:
  7372                           
  7373                           	psect	text26
  7374     0CF4                     __ptext26:	
  7375 ;; *************** function _I2C_WaitIdle *****************
  7376 ;; Defined at:
  7377 ;;		line 81 in file "I2C.c"
  7378 ;; Parameters:    Size  Location     Type
  7379 ;;  timeout_ms      2    0[COMMON] unsigned short 
  7380 ;; Auto vars:     Size  Location     Type
  7381 ;;		None
  7382 ;; Return value:  Size  Location     Type
  7383 ;;                  1    wreg      enum E6036
  7384 ;; Registers used:
  7385 ;;		wreg, status,2, status,0
  7386 ;; Tracked objects:
  7387 ;;		On entry : 0/0
  7388 ;;		On exit  : 0/0
  7389 ;;		Unchanged: 0/0
  7390 ;; Data sizes:     COMMON   BANK0   BANK1   BANK2   BANK3   BANK4   BANK5   BANK6   BANK7   BANK8   BANK9  BANK10  BANK1
      +1  BANK12  BANK13  BANK14  BANK15  BANK16  BANK17  BANK18  BANK19  BANK20  BANK21  BANK22  BANK23  BANK24  BANK25
  7391 ;;      Params:         2       0       0       0       0       0       0       0       0       0       0       0       
      +0       0       0       0       0       0       0       0       0       0       0       0       0       0       0
  7392 ;;      Locals:         0       0       0       0       0       0       0       0       0       0       0       0       
      +0       0       0       0       0       0       0       0       0       0       0       0       0       0       0
  7393 ;;      Temps:          1       0       0       0       0       0       0       0       0       0       0       0       
      +0       0       0       0       0       0       0       0       0       0       0       0       0       0       0
  7394 ;;      Totals:         3       0       0       0       0       0       0       0       0       0       0       0       
      +0       0       0       0       0       0       0       0       0       0       0       0       0       0       0
  7395 ;;Total ram usage:        3 bytes
  7396 ;; Hardware stack levels used: 1
  7397 ;; This function calls:
  7398 ;;		Nothing
  7399 ;; This function is called by:
  7400 ;;		_I2C_Start
  7401 ;;		_I2C_Stop
  7402 ;;		_I2C_WriteByte
  7403 ;;		_I2C_RepeatedStart
  7404 ;;		_I2C_ReadByte
  7405 ;; This function uses a non-reentrant model
  7406 ;;
  7407                           
  7408     0CF4                     _I2C_WaitIdle:	
  7409                           ;psect for function _I2C_WaitIdle
  7410                           
  7411     0CF4                     l1941:	
  7412                           ;incstack = 0
  7413                           ; Regs used in _I2C_WaitIdle: [wreg+status,2+status,0]
  7414                           
  7415                           
  7416                           ;I2C.c: 81: I2C_Status_t I2C_WaitIdle(uint16_t timeout_ms);I2C.c: 82: {;I2C.c: 83:     w
      +                          hile (timeout_ms--)
  7417     0CF4  2D0A               	goto	l1953
  7418     0CF5                     l1943:
  7419                           
  7420                           ;I2C.c: 84:     {;I2C.c: 87:         if ((SSPCON2 & 0x1F) == 0 && SSPSTATbits.R_nW == 0)
  7421     0CF5  0024               	movlb	4	; select bank4
  7422     0CF6  0816               	movf	22,w	;volatile
  7423     0CF7  391F               	andlw	31
  7424     0CF8  1D03               	btfss	3,2
  7425     0CF9  2CFB               	goto	u1671
  7426     0CFA  2CFC               	goto	u1670
  7427     0CFB                     u1671:
  7428     0CFB  2D02               	goto	l1951
  7429     0CFC                     u1670:
  7430     0CFC                     l1945:
  7431     0CFC  1914               	btfsc	20,2	;volatile
  7432     0CFD  2CFF               	goto	u1681
  7433     0CFE  2D00               	goto	u1680
  7434     0CFF                     u1681:
  7435     0CFF  2D02               	goto	l1951
  7436     0D00                     u1680:
  7437     0D00                     l1947:
  7438                           
  7439                           ;I2C.c: 88:             return I2C_OK;
  7440     0D00  3000               	movlw	0
  7441     0D01  2D17               	goto	l41
  7442     0D02                     l1951:
  7443                           
  7444                           ;I2C.c: 90:         _delay((unsigned long)((1)*(32000000/4000.0)));
  7445     0D02  300B               	movlw	11
  7446     0D03  00F2               	movwf	??_I2C_WaitIdle
  7447     0D04  3062               	movlw	98
  7448     0D05                     u3327:
  7449     0D05  0B89               	decfsz	9,f
  7450     0D06  2D05               	goto	u3327
  7451     0D07  0BF2               	decfsz	??_I2C_WaitIdle,f
  7452     0D08  2D05               	goto	u3327
  7453     0D09  3200               	nop2
  7454     0D0A                     l1953:
  7455                           
  7456                           ;I2C.c: 83:     while (timeout_ms--)
  7457     0D0A  3001               	movlw	1
  7458     0D0B  02F0               	subwf	I2C_WaitIdle@timeout_ms,f
  7459     0D0C  3000               	movlw	0
  7460     0D0D  3BF1               	subwfb	I2C_WaitIdle@timeout_ms+1,f
  7461     0D0E  0A70               	incf	I2C_WaitIdle@timeout_ms,w
  7462     0D0F  1D03               	skipz
  7463     0D10  2D15               	goto	u1691
  7464     0D11  0A71               	incf	I2C_WaitIdle@timeout_ms+1,w
  7465     0D12  1D03               	btfss	3,2
  7466     0D13  2D15               	goto	u1691
  7467     0D14  2D16               	goto	u1690
  7468     0D15                     u1691:
  7469     0D15  2CF5               	goto	l1943
  7470     0D16                     u1690:
  7471     0D16                     l1955:
  7472                           
  7473                           ;I2C.c: 92:     return I2C_TIMEOUT;
  7474     0D16  3002               	movlw	2
  7475     0D17                     l41:
  7476     0D17  0008               	return
  7477     0D18                     __end_of_I2C_WaitIdle:
  7478                           
  7479                           	psect	text27
  7480     0C72                     __ptext27:	
  7481 ;; *************** function _I2C_WaitIF *****************
  7482 ;; Defined at:
  7483 ;;		line 23 in file "I2C.c"
  7484 ;; Parameters:    Size  Location     Type
  7485 ;;  timeout_ms      2    0[COMMON] unsigned short 
  7486 ;; Auto vars:     Size  Location     Type
  7487 ;;		None
  7488 ;; Return value:  Size  Location     Type
  7489 ;;                  1    wreg      enum E6036
  7490 ;; Registers used:
  7491 ;;		wreg, status,2, status,0
  7492 ;; Tracked objects:
  7493 ;;		On entry : 0/0
  7494 ;;		On exit  : 0/0
  7495 ;;		Unchanged: 0/0
  7496 ;; Data sizes:     COMMON   BANK0   BANK1   BANK2   BANK3   BANK4   BANK5   BANK6   BANK7   BANK8   BANK9  BANK10  BANK1
      +1  BANK12  BANK13  BANK14  BANK15  BANK16  BANK17  BANK18  BANK19  BANK20  BANK21  BANK22  BANK23  BANK24  BANK25
  7497 ;;      Params:         2       0       0       0       0       0       0       0       0       0       0       0       
      +0       0       0       0       0       0       0       0       0       0       0       0       0       0       0
  7498 ;;      Locals:         0       0       0       0       0       0       0       0       0       0       0       0       
      +0       0       0       0       0       0       0       0       0       0       0       0       0       0       0
  7499 ;;      Temps:          1       0       0       0       0       0       0       0       0       0       0       0       
      +0       0       0       0       0       0       0       0       0       0       0       0       0       0       0
  7500 ;;      Totals:         3       0       0       0       0       0       0       0       0       0       0       0       
      +0       0       0       0       0       0       0       0       0       0       0       0       0       0       0
  7501 ;;Total ram usage:        3 bytes
  7502 ;; Hardware stack levels used: 1
  7503 ;; This function calls:
  7504 ;;		Nothing
  7505 ;; This function is called by:
  7506 ;;		_I2C_Start
  7507 ;;		_I2C_Stop
  7508 ;;		_I2C_WriteByte
  7509 ;;		_I2C_RepeatedStart
  7510 ;;		_I2C_ReadByte
  7511 ;; This function uses a non-reentrant model
  7512 ;;
  7513                           
  7514     0C72                     _I2C_WaitIF:	
  7515                           ;psect for function _I2C_WaitIF
  7516                           
  7517     0C72                     l1927:	
  7518                           ;incstack = 0
  7519                           ; Regs used in _I2C_WaitIF: [wreg+status,2+status,0]
  7520                           
  7521                           
  7522                           ;I2C.c: 23: static I2C_Status_t I2C_WaitIF(uint16_t timeout_ms);I2C.c: 24: {;I2C.c: 25: 
      +                              while (timeout_ms--)
  7523     0C72  2C82               	goto	l1935
  7524     0C73                     l26:
  7525                           
  7526                           ;I2C.c: 26:     {;I2C.c: 27:         if (PIR1bits.SSP1IF)
  7527     0C73  0020               	movlb	0	; select bank0
  7528     0C74  1D91               	btfss	17,3	;volatile
  7529     0C75  2C77               	goto	u1651
  7530     0C76  2C78               	goto	u1650
  7531     0C77                     u1651:
  7532     0C77  2C7A               	goto	l1933
  7533     0C78                     u1650:
  7534     0C78                     l1929:
  7535                           
  7536                           ;I2C.c: 28:             return I2C_OK;
  7537     0C78  3000               	movlw	0
  7538     0C79  2C8F               	goto	l28
  7539     0C7A                     l1933:
  7540                           
  7541                           ;I2C.c: 30:         _delay((unsigned long)((1)*(32000000/4000.0)));
  7542     0C7A  300B               	movlw	11
  7543     0C7B  00F2               	movwf	??_I2C_WaitIF
  7544     0C7C  3062               	movlw	98
  7545     0C7D                     u3337:
  7546     0C7D  0B89               	decfsz	9,f
  7547     0C7E  2C7D               	goto	u3337
  7548     0C7F  0BF2               	decfsz	??_I2C_WaitIF,f
  7549     0C80  2C7D               	goto	u3337
  7550     0C81  3200               	nop2
  7551     0C82                     l1935:
  7552                           
  7553                           ;I2C.c: 25:     while (timeout_ms--)
  7554     0C82  3001               	movlw	1
  7555     0C83  02F0               	subwf	I2C_WaitIF@timeout_ms,f
  7556     0C84  3000               	movlw	0
  7557     0C85  3BF1               	subwfb	I2C_WaitIF@timeout_ms+1,f
  7558     0C86  0A70               	incf	I2C_WaitIF@timeout_ms,w
  7559     0C87  1D03               	skipz
  7560     0C88  2C8D               	goto	u1661
  7561     0C89  0A71               	incf	I2C_WaitIF@timeout_ms+1,w
  7562     0C8A  1D03               	btfss	3,2
  7563     0C8B  2C8D               	goto	u1661
  7564     0C8C  2C8E               	goto	u1660
  7565     0C8D                     u1661:
  7566     0C8D  2C73               	goto	l26
  7567     0C8E                     u1660:
  7568     0C8E                     l1937:
  7569                           
  7570                           ;I2C.c: 32:     return I2C_TIMEOUT;
  7571     0C8E  3002               	movlw	2
  7572     0C8F                     l28:
  7573     0C8F  0008               	return
  7574     0C90                     __end_of_I2C_WaitIF:
  7575                           
  7576                           	psect	text28
  7577     0316                     __ptext28:	
  7578 ;; *************** function _OLED_DrawBattery *****************
  7579 ;; Defined at:
  7580 ;;		line 564 in file "OLED_SSD1306.c"
  7581 ;; Parameters:    Size  Location     Type
  7582 ;;  percentage      1    wreg     unsigned char 
  7583 ;;  x               1    4[BANK0 ] unsigned char 
  7584 ;;  page            1    5[BANK0 ] unsigned char 
  7585 ;; Auto vars:     Size  Location     Type
  7586 ;;  percentage      1   22[BANK0 ] unsigned char 
  7587 ;;  i               1   24[BANK0 ] unsigned char 
  7588 ;;  i               1   23[BANK0 ] unsigned char 
  7589 ;;  fill_w          1   21[BANK0 ] unsigned char 
  7590 ;; Return value:  Size  Location     Type
  7591 ;;                  1    wreg      void 
  7592 ;; Registers used:
  7593 ;;		wreg, fsr0l, fsr0h, fsr1l, fsr1h, status,2, status,0, pclath, cstack
  7594 ;; Tracked objects:
  7595 ;;		On entry : 0/0
  7596 ;;		On exit  : 0/0
  7597 ;;		Unchanged: 0/0
  7598 ;; Data sizes:     COMMON   BANK0   BANK1   BANK2   BANK3   BANK4   BANK5   BANK6   BANK7   BANK8   BANK9  BANK10  BANK1
      +1  BANK12  BANK13  BANK14  BANK15  BANK16  BANK17  BANK18  BANK19  BANK20  BANK21  BANK22  BANK23  BANK24  BANK25
  7599 ;;      Params:         0       2       0       0       0       0       0       0       0       0       0       0       
      +0       0       0       0       0       0       0       0       0       0       0       0       0       0       0
  7600 ;;      Locals:         0       4       0       0       0       0       0       0       0       0       0       0       
      +0       0       0       0       0       0       0       0       0       0       0       0       0       0       0
  7601 ;;      Temps:          0      15       0       0       0       0       0       0       0       0       0       0       
      +0       0       0       0       0       0       0       0       0       0       0       0       0       0       0
  7602 ;;      Totals:         0      21       0       0       0       0       0       0       0       0       0       0       
      +0       0       0       0       0       0       0       0       0       0       0       0       0       0       0
  7603 ;;Total ram usage:       21 bytes
  7604 ;; Hardware stack levels used: 1
  7605 ;; Hardware stack levels required when called: 1
  7606 ;; This function calls:
  7607 ;;		___awdiv
  7608 ;;		___wmul
  7609 ;; This function is called by:
  7610 ;;		_main
  7611 ;; This function uses a non-reentrant model
  7612 ;;
  7613                           
  7614     0316                     _OLED_DrawBattery:	
  7615                           ;psect for function _OLED_DrawBattery
  7616                           
  7617                           
  7618                           ;incstack = 0
  7619                           ; Regs used in _OLED_DrawBattery: [wreg-fsr1h+status,2+status,0+pclath+cstack]
  7620                           ;OLED_DrawBattery@percentage stored from wreg
  7621     0316  0020               	movlb	0	; select bank0
  7622     0317  00B6               	movwf	OLED_DrawBattery@percentage
  7623     0318                     l2785:
  7624                           
  7625                           ;OLED_SSD1306.c: 564: void OLED_DrawBattery(uint8_t percentage, uint8_t x, uint8_t page)
      +                          ;OLED_SSD1306.c: 565: {;OLED_SSD1306.c: 566:     if (percentage > 100) percentage = 100;
  7626     0318  3065               	movlw	101
  7627     0319  0236               	subwf	OLED_DrawBattery@percentage,w
  7628     031A  1C03               	skipc
  7629     031B  2B1D               	goto	u3021
  7630     031C  2B1E               	goto	u3020
  7631     031D                     u3021:
  7632     031D  2B20               	goto	l332
  7633     031E                     u3020:
  7634     031E                     l2787:
  7635     031E  3064               	movlw	100
  7636     031F  00B6               	movwf	OLED_DrawBattery@percentage
  7637     0320                     l332:
  7638                           
  7639                           ;OLED_SSD1306.c: 567:     if (x + 8 > 128 || page >= (32 / 8)) return;
  7640     0320  0824               	movf	OLED_DrawBattery@x,w
  7641     0321  3E08               	addlw	8
  7642     0322  00A6               	movwf	??_OLED_DrawBattery
  7643     0323  3000               	movlw	0
  7644     0324  1803               	skipnc
  7645     0325  3001               	movlw	1
  7646     0326  00A7               	movwf	??_OLED_DrawBattery+1
  7647     0327  0827               	movf	??_OLED_DrawBattery+1,w
  7648     0328  3A80               	xorlw	128
  7649     0329  00A8               	movwf	??_OLED_DrawBattery+2
  7650     032A  3080               	movlw	128
  7651     032B  0228               	subwf	??_OLED_DrawBattery+2,w
  7652     032C  1D03               	skipz
  7653     032D  2B30               	goto	u3035
  7654     032E  3081               	movlw	129
  7655     032F  0226               	subwf	??_OLED_DrawBattery,w
  7656     0330                     u3035:
  7657     0330  1803               	skipnc
  7658     0331  2B33               	goto	u3031
  7659     0332  2B34               	goto	u3030
  7660     0333                     u3031:
  7661     0333  2BDD               	goto	l336
  7662     0334                     u3030:
  7663     0334                     l2789:
  7664     0334  3004               	movlw	4
  7665     0335  0020               	movlb	0	; select bank0
  7666     0336  0225               	subwf	OLED_DrawBattery@page,w
  7667     0337  1C03               	skipc
  7668     0338  2B3A               	goto	u3041
  7669     0339  2B3B               	goto	u3040
  7670     033A                     u3041:
  7671     033A  2B3C               	goto	l2791
  7672     033B                     u3040:
  7673     033B  2BDD               	goto	l336
  7674     033C                     l2791:
  7675                           
  7676                           ;OLED_SSD1306.c: 570:     for (uint8_t i = 0; i < 8; i++) {
  7677     033C  01B7               	clrf	OLED_DrawBattery@i
  7678     033D                     l2797:
  7679                           
  7680                           ;OLED_SSD1306.c: 571:         screen_buffer[page][x + i] = BatteryIcon[i];
  7681     033D  0837               	movf	OLED_DrawBattery@i,w
  7682     033E  3E16               	addlw	low (_BatteryIcon| (0+32768))
  7683     033F  0084               	movwf	4
  7684     0340  3090               	movlw	high (_BatteryIcon| (0+32768))
  7685     0341  1803               	skipnc
  7686     0342  3E01               	addlw	1
  7687     0343  0085               	movwf	5
  7688     0344  0800               	movf	0,w	;code access
  7689     0345  00A6               	movwf	??_OLED_DrawBattery
  7690     0346  0837               	movf	OLED_DrawBattery@i,w
  7691     0347  00A7               	movwf	??_OLED_DrawBattery+1
  7692     0348  01A8               	clrf	??_OLED_DrawBattery+2
  7693     0349  0824               	movf	OLED_DrawBattery@x,w
  7694     034A  00A9               	movwf	??_OLED_DrawBattery+3
  7695     034B  01AA               	clrf	??_OLED_DrawBattery+4
  7696     034C  0825               	movf	OLED_DrawBattery@page,w
  7697     034D  00AB               	movwf	??_OLED_DrawBattery+5
  7698     034E  01AC               	clrf	??_OLED_DrawBattery+6
  7699     034F  3007               	movlw	7
  7700     0350                     u3055:
  7701     0350  35AB               	lslf	??_OLED_DrawBattery+5,f
  7702     0351  0DAC               	rlf	??_OLED_DrawBattery+6,f
  7703     0352  0B89               	decfsz	9,f
  7704     0353  2B50               	goto	u3055
  7705     0354  30F0               	movlw	240
  7706     0355  00AD               	movwf	??_OLED_DrawBattery+7
  7707     0356  3024               	movlw	36
  7708     0357  00AE               	movwf	??_OLED_DrawBattery+8
  7709     0358  082B               	movf	??_OLED_DrawBattery+5,w
  7710     0359  072D               	addwf	??_OLED_DrawBattery+7,w
  7711     035A  00AF               	movwf	??_OLED_DrawBattery+9
  7712     035B  082C               	movf	??_OLED_DrawBattery+6,w
  7713     035C  3D2E               	addwfc	??_OLED_DrawBattery+8,w
  7714     035D  00B0               	movwf	??_OLED_DrawBattery+10
  7715     035E  0829               	movf	??_OLED_DrawBattery+3,w
  7716     035F  072F               	addwf	??_OLED_DrawBattery+9,w
  7717     0360  00B1               	movwf	??_OLED_DrawBattery+11
  7718     0361  082A               	movf	??_OLED_DrawBattery+4,w
  7719     0362  3D30               	addwfc	??_OLED_DrawBattery+10,w
  7720     0363  00B2               	movwf	??_OLED_DrawBattery+12
  7721     0364  0827               	movf	??_OLED_DrawBattery+1,w
  7722     0365  0731               	addwf	??_OLED_DrawBattery+11,w
  7723     0366  00B3               	movwf	??_OLED_DrawBattery+13
  7724     0367  0828               	movf	??_OLED_DrawBattery+2,w
  7725     0368  3D32               	addwfc	??_OLED_DrawBattery+12,w
  7726     0369  00B4               	movwf	??_OLED_DrawBattery+14
  7727     036A  0833               	movf	??_OLED_DrawBattery+13,w
  7728     036B  0086               	movwf	6
  7729     036C  0834               	movf	??_OLED_DrawBattery+14,w
  7730     036D  0087               	movwf	7
  7731     036E  0826               	movf	??_OLED_DrawBattery,w
  7732     036F  0081               	movwf	1
  7733     0370                     l2799:
  7734                           
  7735                           ;OLED_SSD1306.c: 572:     }
  7736     0370  3001               	movlw	1
  7737     0371  00A6               	movwf	??_OLED_DrawBattery
  7738     0372  0826               	movf	??_OLED_DrawBattery,w
  7739     0373  07B7               	addwf	OLED_DrawBattery@i,f
  7740     0374                     l2801:
  7741     0374  3008               	movlw	8
  7742     0375  0237               	subwf	OLED_DrawBattery@i,w
  7743     0376  1C03               	skipc
  7744     0377  2B79               	goto	u3061
  7745     0378  2B7A               	goto	u3060
  7746     0379                     u3061:
  7747     0379  2B3D               	goto	l2797
  7748     037A                     u3060:
  7749     037A                     l2803:
  7750                           
  7751                           ;OLED_SSD1306.c: 575:     uint8_t fill_w = (percentage * 6) / 100;
  7752     037A  3064               	movlw	100
  7753     037B  00F6               	movwf	___awdiv@divisor
  7754     037C  3000               	movlw	0
  7755     037D  00F7               	movwf	___awdiv@divisor+1
  7756     037E  0836               	movf	OLED_DrawBattery@percentage,w
  7757     037F  00A6               	movwf	??_OLED_DrawBattery
  7758     0380  01A7               	clrf	??_OLED_DrawBattery+1
  7759     0381  0826               	movf	??_OLED_DrawBattery,w
  7760     0382  00F0               	movwf	___wmul@multiplier
  7761     0383  0827               	movf	??_OLED_DrawBattery+1,w
  7762     0384  00F1               	movwf	___wmul@multiplier+1
  7763     0385  3006               	movlw	6
  7764     0386  00F2               	movwf	___wmul@multiplicand
  7765     0387  3000               	movlw	0
  7766     0388  00F3               	movwf	___wmul@multiplicand+1
  7767     0389  318C  2490  3183   	fcall	___wmul
  7768     038C  0871               	movf	?___wmul+1,w
  7769     038D  00F9               	movwf	___awdiv@dividend+1
  7770     038E  0870               	movf	?___wmul,w
  7771     038F  00F8               	movwf	___awdiv@dividend
  7772     0390  3180  20AA  3183   	fcall	___awdiv
  7773     0393  0876               	movf	?___awdiv,w
  7774     0394  0020               	movlb	0	; select bank0
  7775     0395  00B5               	movwf	OLED_DrawBattery@fill_w
  7776     0396                     l2805:
  7777                           
  7778                           ;OLED_SSD1306.c: 576:     for (uint8_t i = 1; i <= fill_w && i <= 6; i++) {
  7779     0396  01B8               	clrf	OLED_DrawBattery@i_548
  7780     0397  0AB8               	incf	OLED_DrawBattery@i_548,f
  7781     0398  2BD1               	goto	l2811
  7782     0399                     l2807:
  7783                           
  7784                           ;OLED_SSD1306.c: 577:         screen_buffer[page][x + i] = BatteryIcon[i] | 0x7E;
  7785     0399  0838               	movf	OLED_DrawBattery@i_548,w
  7786     039A  3E16               	addlw	low (_BatteryIcon| (0+32768))
  7787     039B  0084               	movwf	4
  7788     039C  3090               	movlw	high (_BatteryIcon| (0+32768))
  7789     039D  1803               	skipnc
  7790     039E  3E01               	addlw	1
  7791     039F  0085               	movwf	5
  7792     03A0  0800               	movf	0,w	;code access
  7793     03A1  387E               	iorlw	126
  7794     03A2  00A6               	movwf	??_OLED_DrawBattery
  7795     03A3  0838               	movf	OLED_DrawBattery@i_548,w
  7796     03A4  00A7               	movwf	??_OLED_DrawBattery+1
  7797     03A5  01A8               	clrf	??_OLED_DrawBattery+2
  7798     03A6  0824               	movf	OLED_DrawBattery@x,w
  7799     03A7  00A9               	movwf	??_OLED_DrawBattery+3
  7800     03A8  01AA               	clrf	??_OLED_DrawBattery+4
  7801     03A9  0825               	movf	OLED_DrawBattery@page,w
  7802     03AA  00AB               	movwf	??_OLED_DrawBattery+5
  7803     03AB  01AC               	clrf	??_OLED_DrawBattery+6
  7804     03AC  3007               	movlw	7
  7805     03AD                     u3075:
  7806     03AD  35AB               	lslf	??_OLED_DrawBattery+5,f
  7807     03AE  0DAC               	rlf	??_OLED_DrawBattery+6,f
  7808     03AF  0B89               	decfsz	9,f
  7809     03B0  2BAD               	goto	u3075
  7810     03B1  30F0               	movlw	240
  7811     03B2  00AD               	movwf	??_OLED_DrawBattery+7
  7812     03B3  3024               	movlw	36
  7813     03B4  00AE               	movwf	??_OLED_DrawBattery+8
  7814     03B5  082B               	movf	??_OLED_DrawBattery+5,w
  7815     03B6  072D               	addwf	??_OLED_DrawBattery+7,w
  7816     03B7  00AF               	movwf	??_OLED_DrawBattery+9
  7817     03B8  082C               	movf	??_OLED_DrawBattery+6,w
  7818     03B9  3D2E               	addwfc	??_OLED_DrawBattery+8,w
  7819     03BA  00B0               	movwf	??_OLED_DrawBattery+10
  7820     03BB  0829               	movf	??_OLED_DrawBattery+3,w
  7821     03BC  072F               	addwf	??_OLED_DrawBattery+9,w
  7822     03BD  00B1               	movwf	??_OLED_DrawBattery+11
  7823     03BE  082A               	movf	??_OLED_DrawBattery+4,w
  7824     03BF  3D30               	addwfc	??_OLED_DrawBattery+10,w
  7825     03C0  00B2               	movwf	??_OLED_DrawBattery+12
  7826     03C1  0827               	movf	??_OLED_DrawBattery+1,w
  7827     03C2  0731               	addwf	??_OLED_DrawBattery+11,w
  7828     03C3  00B3               	movwf	??_OLED_DrawBattery+13
  7829     03C4  0828               	movf	??_OLED_DrawBattery+2,w
  7830     03C5  3D32               	addwfc	??_OLED_DrawBattery+12,w
  7831     03C6  00B4               	movwf	??_OLED_DrawBattery+14
  7832     03C7  0833               	movf	??_OLED_DrawBattery+13,w
  7833     03C8  0086               	movwf	6
  7834     03C9  0834               	movf	??_OLED_DrawBattery+14,w
  7835     03CA  0087               	movwf	7
  7836     03CB  0826               	movf	??_OLED_DrawBattery,w
  7837     03CC  0081               	movwf	1
  7838     03CD                     l2809:
  7839                           
  7840                           ;OLED_SSD1306.c: 578:     }
  7841     03CD  3001               	movlw	1
  7842     03CE  00A6               	movwf	??_OLED_DrawBattery
  7843     03CF  0826               	movf	??_OLED_DrawBattery,w
  7844     03D0  07B8               	addwf	OLED_DrawBattery@i_548,f
  7845     03D1                     l2811:
  7846     03D1  0838               	movf	OLED_DrawBattery@i_548,w
  7847     03D2  0235               	subwf	OLED_DrawBattery@fill_w,w
  7848     03D3  1C03               	skipc
  7849     03D4  2BD6               	goto	u3081
  7850     03D5  2BD7               	goto	u3080
  7851     03D6                     u3081:
  7852     03D6  2BDD               	goto	l336
  7853     03D7                     u3080:
  7854     03D7                     l2813:
  7855     03D7  3007               	movlw	7
  7856     03D8  0238               	subwf	OLED_DrawBattery@i_548,w
  7857     03D9  1C03               	skipc
  7858     03DA  2BDC               	goto	u3091
  7859     03DB  2BDD               	goto	u3090
  7860     03DC                     u3091:
  7861     03DC  2B99               	goto	l2807
  7862     03DD                     u3090:
  7863     03DD                     l336:
  7864     03DD  0008               	return
  7865     03DE                     __end_of_OLED_DrawBattery:
  7866                           
  7867                           	psect	text29
  7868     0C90                     __ptext29:	
  7869 ;; *************** function ___wmul *****************
  7870 ;; Defined at:
  7871 ;;		line 15 in file "C:\Program Files\Microchip\xc8\v2.46\pic\sources\c99\common\Umul16.c"
  7872 ;; Parameters:    Size  Location     Type
  7873 ;;  multiplier      2    0[COMMON] unsigned int 
  7874 ;;  multiplicand    2    2[COMMON] unsigned int 
  7875 ;; Auto vars:     Size  Location     Type
  7876 ;;  product         2    4[COMMON] unsigned int 
  7877 ;; Return value:  Size  Location     Type
  7878 ;;                  2    0[COMMON] unsigned int 
  7879 ;; Registers used:
  7880 ;;		wreg, status,2, status,0
  7881 ;; Tracked objects:
  7882 ;;		On entry : 0/0
  7883 ;;		On exit  : 0/0
  7884 ;;		Unchanged: 0/0
  7885 ;; Data sizes:     COMMON   BANK0   BANK1   BANK2   BANK3   BANK4   BANK5   BANK6   BANK7   BANK8   BANK9  BANK10  BANK1
      +1  BANK12  BANK13  BANK14  BANK15  BANK16  BANK17  BANK18  BANK19  BANK20  BANK21  BANK22  BANK23  BANK24  BANK25
  7886 ;;      Params:         4       0       0       0       0       0       0       0       0       0       0       0       
      +0       0       0       0       0       0       0       0       0       0       0       0       0       0       0
  7887 ;;      Locals:         2       0       0       0       0       0       0       0       0       0       0       0       
      +0       0       0       0       0       0       0       0       0       0       0       0       0       0       0
  7888 ;;      Temps:          0       0       0       0       0       0       0       0       0       0       0       0       
      +0       0       0       0       0       0       0       0       0       0       0       0       0       0       0
  7889 ;;      Totals:         6       0       0       0       0       0       0       0       0       0       0       0       
      +0       0       0       0       0       0       0       0       0       0       0       0       0       0       0
  7890 ;;Total ram usage:        6 bytes
  7891 ;; Hardware stack levels used: 1
  7892 ;; This function calls:
  7893 ;;		Nothing
  7894 ;; This function is called by:
  7895 ;;		_OLED_DrawBattery
  7896 ;; This function uses a non-reentrant model
  7897 ;;
  7898                           
  7899     0C90                     ___wmul:	
  7900                           ;psect for function ___wmul
  7901                           
  7902     0C90                     l2163:	
  7903                           ;incstack = 0
  7904                           ; Regs used in ___wmul: [wreg+status,2+status,0]
  7905                           
  7906     0C90  01F4               	clrf	___wmul@product
  7907     0C91  01F5               	clrf	___wmul@product+1
  7908     0C92                     l2165:
  7909     0C92  1C70               	btfss	___wmul@multiplier,0
  7910     0C93  2C95               	goto	u1981
  7911     0C94  2C96               	goto	u1980
  7912     0C95                     u1981:
  7913     0C95  2C9A               	goto	l411
  7914     0C96                     u1980:
  7915     0C96                     l2167:
  7916     0C96  0872               	movf	___wmul@multiplicand,w
  7917     0C97  07F4               	addwf	___wmul@product,f
  7918     0C98  0873               	movf	___wmul@multiplicand+1,w
  7919     0C99  3DF5               	addwfc	___wmul@product+1,f
  7920     0C9A                     l411:
  7921     0C9A  3001               	movlw	1
  7922     0C9B                     u1995:
  7923     0C9B  35F2               	lslf	___wmul@multiplicand,f
  7924     0C9C  0DF3               	rlf	___wmul@multiplicand+1,f
  7925     0C9D  0B89               	decfsz	9,f
  7926     0C9E  2C9B               	goto	u1995
  7927     0C9F                     l2169:
  7928     0C9F  3001               	movlw	1
  7929     0CA0                     u2005:
  7930     0CA0  36F1               	lsrf	___wmul@multiplier+1,f
  7931     0CA1  0CF0               	rrf	___wmul@multiplier,f
  7932     0CA2  0B89               	decfsz	9,f
  7933     0CA3  2CA0               	goto	u2005
  7934     0CA4                     l2171:
  7935     0CA4  0870               	movf	___wmul@multiplier,w
  7936     0CA5  0471               	iorwf	___wmul@multiplier+1,w
  7937     0CA6  1D03               	btfss	3,2
  7938     0CA7  2CA9               	goto	u2011
  7939     0CA8  2CAA               	goto	u2010
  7940     0CA9                     u2011:
  7941     0CA9  2C92               	goto	l2165
  7942     0CAA                     u2010:
  7943     0CAA                     l2173:
  7944     0CAA  0875               	movf	___wmul@product+1,w
  7945     0CAB  00F1               	movwf	?___wmul+1
  7946     0CAC  0874               	movf	___wmul@product,w
  7947     0CAD  00F0               	movwf	?___wmul
  7948     0CAE                     l413:
  7949     0CAE  0008               	return
  7950     0CAF                     __end_of___wmul:
  7951                           
  7952                           	psect	text30
  7953     00AA                     __ptext30:	
  7954 ;; *************** function ___awdiv *****************
  7955 ;; Defined at:
  7956 ;;		line 5 in file "C:\Program Files\Microchip\xc8\v2.46\pic\sources\c99\common\awdiv.c"
  7957 ;; Parameters:    Size  Location     Type
  7958 ;;  divisor         2    6[COMMON] int 
  7959 ;;  dividend        2    8[COMMON] int 
  7960 ;; Auto vars:     Size  Location     Type
  7961 ;;  quotient        2    2[BANK0 ] int 
  7962 ;;  sign            1    1[BANK0 ] unsigned char 
  7963 ;;  counter         1    0[BANK0 ] unsigned char 
  7964 ;; Return value:  Size  Location     Type
  7965 ;;                  2    6[COMMON] int 
  7966 ;; Registers used:
  7967 ;;		wreg, status,2, status,0
  7968 ;; Tracked objects:
  7969 ;;		On entry : 0/0
  7970 ;;		On exit  : 0/0
  7971 ;;		Unchanged: 0/0
  7972 ;; Data sizes:     COMMON   BANK0   BANK1   BANK2   BANK3   BANK4   BANK5   BANK6   BANK7   BANK8   BANK9  BANK10  BANK1
      +1  BANK12  BANK13  BANK14  BANK15  BANK16  BANK17  BANK18  BANK19  BANK20  BANK21  BANK22  BANK23  BANK24  BANK25
  7973 ;;      Params:         4       0       0       0       0       0       0       0       0       0       0       0       
      +0       0       0       0       0       0       0       0       0       0       0       0       0       0       0
  7974 ;;      Locals:         0       4       0       0       0       0       0       0       0       0       0       0       
      +0       0       0       0       0       0       0       0       0       0       0       0       0       0       0
  7975 ;;      Temps:          1       0       0       0       0       0       0       0       0       0       0       0       
      +0       0       0       0       0       0       0       0       0       0       0       0       0       0       0
  7976 ;;      Totals:         5       4       0       0       0       0       0       0       0       0       0       0       
      +0       0       0       0       0       0       0       0       0       0       0       0       0       0       0
  7977 ;;Total ram usage:        9 bytes
  7978 ;; Hardware stack levels used: 1
  7979 ;; This function calls:
  7980 ;;		Nothing
  7981 ;; This function is called by:
  7982 ;;		_OLED_Printf_Line
  7983 ;;		_OLED_DrawBattery
  7984 ;; This function uses a non-reentrant model
  7985 ;;
  7986                           
  7987     00AA                     ___awdiv:	
  7988                           ;psect for function ___awdiv
  7989                           
  7990     00AA                     l2273:	
  7991                           ;incstack = 0
  7992                           ; Regs used in ___awdiv: [wreg+status,2+status,0]
  7993                           
  7994     00AA  0020               	movlb	0	; select bank0
  7995     00AB  01A1               	clrf	___awdiv@sign
  7996     00AC                     l2275:
  7997     00AC  1FF7               	btfss	___awdiv@divisor+1,7
  7998     00AD  28AF               	goto	u2281
  7999     00AE  28B0               	goto	u2280
  8000     00AF                     u2281:
  8001     00AF  28B7               	goto	l2281
  8002     00B0                     u2280:
  8003     00B0                     l2277:
  8004     00B0  09F6               	comf	___awdiv@divisor,f
  8005     00B1  09F7               	comf	___awdiv@divisor+1,f
  8006     00B2  0AF6               	incf	___awdiv@divisor,f
  8007     00B3  1903               	skipnz
  8008     00B4  0AF7               	incf	___awdiv@divisor+1,f
  8009     00B5                     l2279:
  8010     00B5  01A1               	clrf	___awdiv@sign
  8011     00B6  0AA1               	incf	___awdiv@sign,f
  8012     00B7                     l2281:
  8013     00B7  1FF9               	btfss	___awdiv@dividend+1,7
  8014     00B8  28BA               	goto	u2291
  8015     00B9  28BB               	goto	u2290
  8016     00BA                     u2291:
  8017     00BA  28C4               	goto	l2287
  8018     00BB                     u2290:
  8019     00BB                     l2283:
  8020     00BB  09F8               	comf	___awdiv@dividend,f
  8021     00BC  09F9               	comf	___awdiv@dividend+1,f
  8022     00BD  0AF8               	incf	___awdiv@dividend,f
  8023     00BE  1903               	skipnz
  8024     00BF  0AF9               	incf	___awdiv@dividend+1,f
  8025     00C0                     l2285:
  8026     00C0  3001               	movlw	1
  8027     00C1  00FA               	movwf	??___awdiv
  8028     00C2  087A               	movf	??___awdiv,w
  8029     00C3  06A1               	xorwf	___awdiv@sign,f
  8030     00C4                     l2287:
  8031     00C4  01A2               	clrf	___awdiv@quotient
  8032     00C5  01A3               	clrf	___awdiv@quotient+1
  8033     00C6                     l2289:
  8034     00C6  0876               	movf	___awdiv@divisor,w
  8035     00C7  0477               	iorwf	___awdiv@divisor+1,w
  8036     00C8  1903               	btfsc	3,2
  8037     00C9  28CB               	goto	u2301
  8038     00CA  28CC               	goto	u2300
  8039     00CB                     u2301:
  8040     00CB  28FB               	goto	l2309
  8041     00CC                     u2300:
  8042     00CC                     l2291:
  8043     00CC  01A0               	clrf	___awdiv@counter
  8044     00CD  0AA0               	incf	___awdiv@counter,f
  8045     00CE  28D8               	goto	l2297
  8046     00CF                     l2293:
  8047     00CF  3001               	movlw	1
  8048     00D0                     u2315:
  8049     00D0  35F6               	lslf	___awdiv@divisor,f
  8050     00D1  0DF7               	rlf	___awdiv@divisor+1,f
  8051     00D2  0B89               	decfsz	9,f
  8052     00D3  28D0               	goto	u2315
  8053     00D4                     l2295:
  8054     00D4  3001               	movlw	1
  8055     00D5  00FA               	movwf	??___awdiv
  8056     00D6  087A               	movf	??___awdiv,w
  8057     00D7  07A0               	addwf	___awdiv@counter,f
  8058     00D8                     l2297:
  8059     00D8  1FF7               	btfss	___awdiv@divisor+1,7
  8060     00D9  28DB               	goto	u2321
  8061     00DA  28DC               	goto	u2320
  8062     00DB                     u2321:
  8063     00DB  28CF               	goto	l2293
  8064     00DC                     u2320:
  8065     00DC                     l2299:
  8066     00DC  3001               	movlw	1
  8067     00DD                     u2335:
  8068     00DD  35A2               	lslf	___awdiv@quotient,f
  8069     00DE  0DA3               	rlf	___awdiv@quotient+1,f
  8070     00DF  0B89               	decfsz	9,f
  8071     00E0  28DD               	goto	u2335
  8072     00E1  0877               	movf	___awdiv@divisor+1,w
  8073     00E2  0279               	subwf	___awdiv@dividend+1,w
  8074     00E3  1D03               	skipz
  8075     00E4  28E7               	goto	u2345
  8076     00E5  0876               	movf	___awdiv@divisor,w
  8077     00E6  0278               	subwf	___awdiv@dividend,w
  8078     00E7                     u2345:
  8079     00E7  1C03               	skipc
  8080     00E8  28EA               	goto	u2341
  8081     00E9  28EB               	goto	u2340
  8082     00EA                     u2341:
  8083     00EA  28F0               	goto	l2305
  8084     00EB                     u2340:
  8085     00EB                     l2301:
  8086     00EB  0876               	movf	___awdiv@divisor,w
  8087     00EC  02F8               	subwf	___awdiv@dividend,f
  8088     00ED  0877               	movf	___awdiv@divisor+1,w
  8089     00EE  3BF9               	subwfb	___awdiv@dividend+1,f
  8090     00EF                     l2303:
  8091     00EF  1422               	bsf	___awdiv@quotient,0
  8092     00F0                     l2305:
  8093     00F0  3001               	movlw	1
  8094     00F1                     u2355:
  8095     00F1  36F7               	lsrf	___awdiv@divisor+1,f
  8096     00F2  0CF6               	rrf	___awdiv@divisor,f
  8097     00F3  0B89               	decfsz	9,f
  8098     00F4  28F1               	goto	u2355
  8099     00F5                     l2307:
  8100     00F5  3001               	movlw	1
  8101     00F6  02A0               	subwf	___awdiv@counter,f
  8102     00F7  1D03               	btfss	3,2
  8103     00F8  28FA               	goto	u2361
  8104     00F9  28FB               	goto	u2360
  8105     00FA                     u2361:
  8106     00FA  28DC               	goto	l2299
  8107     00FB                     u2360:
  8108     00FB                     l2309:
  8109     00FB  0821               	movf	___awdiv@sign,w
  8110     00FC  1903               	btfsc	3,2
  8111     00FD  28FF               	goto	u2371
  8112     00FE  2900               	goto	u2370
  8113     00FF                     u2371:
  8114     00FF  2905               	goto	l2313
  8115     0100                     u2370:
  8116     0100                     l2311:
  8117     0100  09A2               	comf	___awdiv@quotient,f
  8118     0101  09A3               	comf	___awdiv@quotient+1,f
  8119     0102  0AA2               	incf	___awdiv@quotient,f
  8120     0103  1903               	skipnz
  8121     0104  0AA3               	incf	___awdiv@quotient+1,f
  8122     0105                     l2313:
  8123     0105  0823               	movf	___awdiv@quotient+1,w
  8124     0106  00F7               	movwf	?___awdiv+1
  8125     0107  0822               	movf	___awdiv@quotient,w
  8126     0108  00F6               	movwf	?___awdiv
  8127     0109                     l564:
  8128     0109  0008               	return
  8129     010A                     __end_of___awdiv:
  8130                           
  8131                           	psect	text31
  8132     0C27                     __ptext31:	
  8133 ;; *************** function _I2C_Init *****************
  8134 ;; Defined at:
  8135 ;;		line 41 in file "I2C.c"
  8136 ;; Parameters:    Size  Location     Type
  8137 ;;		None
  8138 ;; Auto vars:     Size  Location     Type
  8139 ;;		None
  8140 ;; Return value:  Size  Location     Type
  8141 ;;                  1    wreg      void 
  8142 ;; Registers used:
  8143 ;;		wreg, status,2, status,0, pclath, cstack
  8144 ;; Tracked objects:
  8145 ;;		On entry : 0/0
  8146 ;;		On exit  : 0/0
  8147 ;;		Unchanged: 0/0
  8148 ;; Data sizes:     COMMON   BANK0   BANK1   BANK2   BANK3   BANK4   BANK5   BANK6   BANK7   BANK8   BANK9  BANK10  BANK1
      +1  BANK12  BANK13  BANK14  BANK15  BANK16  BANK17  BANK18  BANK19  BANK20  BANK21  BANK22  BANK23  BANK24  BANK25
  8149 ;;      Params:         0       0       0       0       0       0       0       0       0       0       0       0       
      +0       0       0       0       0       0       0       0       0       0       0       0       0       0       0
  8150 ;;      Locals:         0       0       0       0       0       0       0       0       0       0       0       0       
      +0       0       0       0       0       0       0       0       0       0       0       0       0       0       0
  8151 ;;      Temps:          1       0       0       0       0       0       0       0       0       0       0       0       
      +0       0       0       0       0       0       0       0       0       0       0       0       0       0       0
  8152 ;;      Totals:         1       0       0       0       0       0       0       0       0       0       0       0       
      +0       0       0       0       0       0       0       0       0       0       0       0       0       0       0
  8153 ;;Total ram usage:        1 bytes
  8154 ;; Hardware stack levels used: 1
  8155 ;; Hardware stack levels required when called: 1
  8156 ;; This function calls:
  8157 ;;		_I2C_ClearErrors
  8158 ;; This function is called by:
  8159 ;;		_main
  8160 ;; This function uses a non-reentrant model
  8161 ;;
  8162                           
  8163     0C27                     _I2C_Init:	
  8164                           ;psect for function _I2C_Init
  8165                           
  8166     0C27                     l2423:	
  8167                           ;incstack = 0
  8168                           ; Regs used in _I2C_Init: [wreg+status,2+status,0+pclath+cstack]
  8169                           
  8170                           
  8171                           ;I2C.c: 44:     SSPCONbits.SSPM = 0x08;
  8172     0C27  0024               	movlb	4	; select bank4
  8173     0C28  0815               	movf	21,w	;volatile
  8174     0C29  39F0               	andlw	-16
  8175     0C2A  3808               	iorlw	8
  8176     0C2B  0095               	movwf	21	;volatile
  8177     0C2C                     l2425:
  8178                           
  8179                           ;I2C.c: 47:     SSPCONbits.SSPEN = 1;
  8180     0C2C  1695               	bsf	21,5	;volatile
  8181     0C2D                     l2427:
  8182                           
  8183                           ;I2C.c: 50:     SSPADD = 79;
  8184     0C2D  304F               	movlw	79
  8185     0C2E  0092               	movwf	18	;volatile
  8186     0C2F                     l2429:
  8187                           
  8188                           ;I2C.c: 52:     I2C_ClearErrors();
  8189     0C2F  318C  240B  318C   	fcall	_I2C_ClearErrors
  8190     0C32                     l2431:
  8191                           
  8192                           ;I2C.c: 53:     _delay((unsigned long)((10)*(32000000/4000.0)));
  8193     0C32  3068               	movlw	104
  8194     0C33  00F0               	movwf	??_I2C_Init
  8195     0C34  30E4               	movlw	228
  8196     0C35                     u3347:
  8197     0C35  0B89               	decfsz	9,f
  8198     0C36  2C35               	goto	u3347
  8199     0C37  0BF0               	decfsz	??_I2C_Init,f
  8200     0C38  2C35               	goto	u3347
  8201     0C39  3200               	nop2
  8202     0C3A                     l32:
  8203     0C3A  0008               	return
  8204     0C3B                     __end_of_I2C_Init:
  8205                           
  8206                           	psect	text32
  8207     0C0B                     __ptext32:	
  8208 ;; *************** function _I2C_ClearErrors *****************
  8209 ;; Defined at:
  8210 ;;		line 62 in file "I2C.c"
  8211 ;; Parameters:    Size  Location     Type
  8212 ;;		None
  8213 ;; Auto vars:     Size  Location     Type
  8214 ;;		None
  8215 ;; Return value:  Size  Location     Type
  8216 ;;                  1    wreg      void 
  8217 ;; Registers used:
  8218 ;;		None
  8219 ;; Tracked objects:
  8220 ;;		On entry : 0/0
  8221 ;;		On exit  : 0/0
  8222 ;;		Unchanged: 0/0
  8223 ;; Data sizes:     COMMON   BANK0   BANK1   BANK2   BANK3   BANK4   BANK5   BANK6   BANK7   BANK8   BANK9  BANK10  BANK1
      +1  BANK12  BANK13  BANK14  BANK15  BANK16  BANK17  BANK18  BANK19  BANK20  BANK21  BANK22  BANK23  BANK24  BANK25
  8224 ;;      Params:         0       0       0       0       0       0       0       0       0       0       0       0       
      +0       0       0       0       0       0       0       0       0       0       0       0       0       0       0
  8225 ;;      Locals:         0       0       0       0       0       0       0       0       0       0       0       0       
      +0       0       0       0       0       0       0       0       0       0       0       0       0       0       0
  8226 ;;      Temps:          0       0       0       0       0       0       0       0       0       0       0       0       
      +0       0       0       0       0       0       0       0       0       0       0       0       0       0       0
  8227 ;;      Totals:         0       0       0       0       0       0       0       0       0       0       0       0       
      +0       0       0       0       0       0       0       0       0       0       0       0       0       0       0
  8228 ;;Total ram usage:        0 bytes
  8229 ;; Hardware stack levels used: 1
  8230 ;; This function calls:
  8231 ;;		Nothing
  8232 ;; This function is called by:
  8233 ;;		_I2C_Init
  8234 ;; This function uses a non-reentrant model
  8235 ;;
  8236                           
  8237     0C0B                     _I2C_ClearErrors:	
  8238                           ;psect for function _I2C_ClearErrors
  8239                           
  8240     0C0B                     l2107:	
  8241                           ;incstack = 0
  8242                           ; Regs used in _I2C_ClearErrors: []
  8243                           
  8244                           
  8245                           ;I2C.c: 65:     SSPCON1bits.SSPOV = 0;
  8246     0C0B  0024               	movlb	4	; select bank4
  8247     0C0C  1315               	bcf	21,6	;volatile
  8248                           
  8249                           ;I2C.c: 66:     SSPCON1bits.WCOL = 0;
  8250     0C0D  1395               	bcf	21,7	;volatile
  8251                           
  8252                           ;I2C.c: 69:     PIR2bits.BCL1IF = 0;
  8253     0C0E  0020               	movlb	0	; select bank0
  8254     0C0F  1192               	bcf	18,3	;volatile
  8255                           
  8256                           ;I2C.c: 72:     PIR1bits.SSP1IF = 0;
  8257     0C10  1191               	bcf	17,3	;volatile
  8258     0C11                     l35:
  8259     0C11  0008               	return
  8260     0C12                     __end_of_I2C_ClearErrors:
  8261     007E                     btemp	set	126	;btemp
  8262     007E                     wtemp0	set	126
  8263     24F0                     
  8264                           	psect	config
  8265                           
  8266                           ;Config register CONFIG1 @ 0x8007
  8267                           ;	Oscillator Selection Bits
  8268                           ;	FOSC = INTOSC, INTOSC oscillator: I/O function on CLKIN pin
  8269                           ;	Watchdog Timer Enable
  8270                           ;	WDTE = OFF, WDT disabled
  8271                           ;	Power-up Timer Enable
  8272                           ;	PWRTE = OFF, PWRT disabled
  8273                           ;	MCLR Pin Function Select
  8274                           ;	MCLRE = OFF, MCLR/VPP pin function is digital input if LVP bit is also 0.
  8275                           ;	Flash Program Memory Code Protection
  8276                           ;	CP = OFF, Program memory code protection is disabled
  8277                           ;	Brown-out Reset Enable
  8278                           ;	BOREN = OFF, Brown-out Reset disabled
  8279                           ;	Clock Out Enable
  8280                           ;	CLKOUTEN = OFF, CLKOUT function is disabled. I/O or oscillator function on the CLKOUT 
      +                          pin
  8281                           ;	Internal/External Switchover Mode
  8282                           ;	IESO = ON, Internal/External Switchover Mode is enabled
  8283                           ;	Fail-Safe Clock Monitor Enable
  8284                           ;	FCMEN = OFF, Fail-Safe Clock Monitor is disabled
  8285     8007                     	org	32775
  8286     8007  19A4               	dw	6564
  8287                           
  8288                           ;Config register CONFIG2 @ 0x8008
  8289                           ;	Flash Memory Self-Write Protection
  8290                           ;	WRT = OFF, Write protection off
  8291                           ;	Peripheral Pin Select one-way control
  8292                           ;	PPS1WAY = ON, The PPSLOCK bit cannot be cleared once it is set by software
  8293                           ;	Zero-cross detect disable
  8294                           ;	ZCDDIS = ON, ZCD disabled. ZCD can be enabled by setting the ZCDSEN bit of ZCDCON
  8295                           ;	Phase Lock Loop enable
  8296                           ;	PLLEN = OFF, 4x PLL is disabled
  8297                           ;	Stack Overflow/Underflow Reset Enable
  8298                           ;	STVREN = ON, Stack Overflow or Underflow will cause a Reset
  8299                           ;	Brown-out Reset Voltage Selection
  8300                           ;	BORV = LO, Brown-out Reset Voltage (Vbor), low trip point selected.
  8301                           ;	Low-Power Brown Out Reset
  8302                           ;	LPBOR = OFF, Low-Power BOR is disabled
  8303                           ;	In-Circuit Debugger Mode
  8304                           ;	DEBUG = 0x1, unprogrammed default
  8305                           ;	Low-Voltage Programming Enable
  8306                           ;	LVP = OFF, High-voltage on MCLR/VPP must be used for programming
  8307     8008                     	org	32776
  8308     8008  1EFF               	dw	7935

Data Sizes:
    Strings     36
    Constant    778
    Data        0
    BSS         0
    Persistent  32
    Stack       0

Auto Spaces:
    Space          Size  Autos    Used
    COMMON           14     14      14
    BANK0            80     80      80
    BANK1            80     53      53
    BANK2            80      0       0
    BANK3            80      0       0
    BANK4            80      0       0
    BANK5            80      0       0
    BANK6            80      0       0
    BANK7            80      0       0
    BANK8            80      0       0
    BANK9            80      0       0
    BANK10           80      0       0
    BANK11           80      0       0
    BANK12           80      0       0
    BANK13           80      0       0
    BANK14           80      0       0
    BANK15           64      0       0
    BANK16            0      0       0
    BANK17            0      0       0
    BANK18            0      0       0
    BANK19            0      0       0
    BANK20            0      0       0
    BANK21            0      0       0
    BANK22            0      0       0
    BANK23            0      0       0
    BANK24            0      0       0
    BANK25            0      0       0

Pointer List with Targets:

    memcpy@d	PTR unsigned char  size(2) Largest target is 512
		 -> screen_buffer(BIGRAM[512]), 

    memcpy@d1	PTR void  size(2) Largest target is 512
		 -> screen_buffer(BIGRAM[512]), 

    memcpy@s	PTR const unsigned char  size(2) Largest target is 768
		 -> OledFont(CODE[768]), 

    memcpy@s1	PTR const void  size(2) Largest target is 768
		 -> OledFont(CODE[768]), 

    memset@dest	PTR void  size(2) Largest target is 512
		 -> screen_buffer(BIGRAM[512]), 

    memset@p	PTR unsigned char  size(2) Largest target is 512
		 -> screen_buffer(BIGRAM[512]), 

    OLED_Printf_Line@ap	PTR void [1] size(1) Largest target is 1
		 -> ?_OLED_Printf_Line(BANK0[1]), 

    OLED_Printf_Line@dst	PTR unsigned char  size(1) Largest target is 32
		 -> OLED_Printf_Line@buf(BANK0[32]), 

    OLED_Printf_Line@fmt	PTR const unsigned char  size(2) Largest target is 14
		 -> STR_1(CODE[14]), STR_2(CODE[11]), STR_3(CODE[11]), 

    OLED_Printf_Line@p	PTR const unsigned char  size(1) Largest target is 32
		 -> OLED_Printf_Line@buf(BANK0[32]), 

    OLED_Printf_Line@src	PTR const unsigned char  size(2) Largest target is 14
		 -> STR_1(CODE[14]), STR_2(CODE[11]), STR_3(CODE[11]), 

    OLED_Printf_Line@str	PTR const unsigned char  size(1) Largest target is 1
		 -> ?_OLED_Printf_Line(BANK0[1]), 

    OLED_WriteData@data	PTR const unsigned char  size(2) Largest target is 768
		 -> OledFont(CODE[768]), screen_buffer(BIGRAM[512]), 

    sp__memcpy	PTR void  size(2) Largest target is 512
		 -> screen_buffer(BIGRAM[512]), 

    sp__memset	PTR void  size(2) Largest target is 512
		 -> screen_buffer(BIGRAM[512]), 

    sp__strcpy	PTR unsigned char  size(2) Largest target is 256
		 -> OLED_Printf_Line@last_text(BIGRAM[256]), 

    strcmp@l	PTR const unsigned char  size(1) Largest target is 32
		 -> OLED_Printf_Line@buf(BANK0[32]), 

    strcmp@r	PTR const unsigned char  size(2) Largest target is 256
		 -> OLED_Printf_Line@last_text(BIGRAM[256]), 

    strcpy@d	PTR unsigned char  size(2) Largest target is 256
		 -> OLED_Printf_Line@last_text(BIGRAM[256]), 

    strcpy@dest	PTR unsigned char  size(2) Largest target is 256
		 -> OLED_Printf_Line@last_text(BIGRAM[256]), 

    strcpy@src	PTR const unsigned char  size(1) Largest target is 32
		 -> OLED_Printf_Line@buf(BANK0[32]), 


Critical Paths under _main in COMMON

    _main->_OLED_Init
    _OLED_SetOrientation->_OLED_Command
    _OLED_Printf_Line->___lldiv
    _OLED_UpdateLine->_OLED_WriteData
    _OLED_Init->_OLED_Clear
    _OLED_Clear->_OLED_WriteData
    _OLED_YX->_OLED_Command
    _OLED_Command->_I2C_WriteByte
    _OLED_WriteData->_I2C_WriteByte
    _I2C_WriteByte->_I2C_WaitIF
    _I2C_WriteByte->_I2C_WaitIdle
    _I2C_Stop->_I2C_WaitIF
    _I2C_Stop->_I2C_WaitIdle
    _I2C_Start->_I2C_WaitIF
    _I2C_Start->_I2C_WaitIdle
    _OLED_DrawBattery->___awdiv
    ___awdiv->___wmul

Critical Paths under _main in BANK0

    _main->_OLED_Printf_Line
    _OLED_Printf_Line->_OLED_UpdateLine
    _OLED_Printf_Line->___aldiv
    _OLED_Init->_OLED_Clear
    _OLED_DrawBattery->___awdiv

Critical Paths under _main in BANK1

    _main->_OLED_Printf_Line

Critical Paths under _main in BANK2

    None.

Critical Paths under _main in BANK3

    None.

Critical Paths under _main in BANK4

    None.

Critical Paths under _main in BANK5

    None.

Critical Paths under _main in BANK6

    None.

Critical Paths under _main in BANK7

    None.

Critical Paths under _main in BANK8

    None.

Critical Paths under _main in BANK9

    None.

Critical Paths under _main in BANK10

    None.

Critical Paths under _main in BANK11

    None.

Critical Paths under _main in BANK12

    None.

Critical Paths under _main in BANK13

    None.

Critical Paths under _main in BANK14

    None.

Critical Paths under _main in BANK15

    None.

Critical Paths under _main in BANK16

    None.

Critical Paths under _main in BANK17

    None.

Critical Paths under _main in BANK18

    None.

Critical Paths under _main in BANK19

    None.

Critical Paths under _main in BANK20

    None.

Critical Paths under _main in BANK21

    None.

Critical Paths under _main in BANK22

    None.

Critical Paths under _main in BANK23

    None.

Critical Paths under _main in BANK24

    None.

Critical Paths under _main in BANK25

    None.

Call Graph Tables:

 ---------------------------------------------------------------------------------
 (Depth) Function   	        Calls       Base Space   Used Autos Params    Refs
 ---------------------------------------------------------------------------------
 (0) _main                                                 7     7      0   44558
                                             46 BANK1      7     7      0
                           _I2C_Init
                         _OLED_Clear
                   _OLED_DrawBattery
                          _OLED_Init
                   _OLED_Printf_Line
                _OLED_SetOrientation
                    _OLED_UpdateLine
                           _initMain
 ---------------------------------------------------------------------------------
 (1) _initMain                                             2     2      0       0
                                              0 COMMON     2     2      0
                        _internal_32
 ---------------------------------------------------------------------------------
 (2) _internal_32                                          0     0      0       0
 ---------------------------------------------------------------------------------
 (1) _OLED_SetOrientation                                  3     3      0    3038
                                              7 COMMON     3     3      0
                       _OLED_Command
 ---------------------------------------------------------------------------------
 (1) _OLED_Printf_Line                                   120   114      6   14429
                                              6 BANK0     74    68      6
                                              0 BANK1     46    46      0
                    _OLED_UpdateLine
                            ___aldiv
                            ___almod
                            ___awdiv
                            ___awmod
                            ___lldiv
                            ___llmod
                            ___lwdiv
                            ___lwmod
                             _memcpy
                             _memset
                             _strcmp
                             _strcpy
 ---------------------------------------------------------------------------------
 (2) _strcpy                                               7     4      3     225
                                              0 COMMON     7     4      3
 ---------------------------------------------------------------------------------
 (2) _strcmp                                               4     2      2     221
                                              0 COMMON     4     2      2
 ---------------------------------------------------------------------------------
 (2) _memcpy                                              11     5      6     371
                                              0 COMMON    11     5      6
 ---------------------------------------------------------------------------------
 (2) ___lwmod                                              6     2      4     311
                                              0 COMMON     6     2      4
 ---------------------------------------------------------------------------------
 (2) ___lwdiv                                              8     4      4     314
                                              0 COMMON     8     4      4
 ---------------------------------------------------------------------------------
 (2) ___llmod                                             10     2      8     311
                                              0 COMMON    10     2      8
 ---------------------------------------------------------------------------------
 (2) ___lldiv                                             14     6      8     314
                                              0 COMMON    14     6      8
 ---------------------------------------------------------------------------------
 (2) ___awmod                                              7     3      4     448
                                              0 COMMON     7     3      4
 ---------------------------------------------------------------------------------
 (2) ___almod                                             11     3      8     448
                                              0 COMMON    11     3      8
 ---------------------------------------------------------------------------------
 (2) ___aldiv                                             15     7      8     452
                                              0 COMMON     9     1      8
                                              0 BANK0      6     6      0
 ---------------------------------------------------------------------------------
 (1) _OLED_UpdateLine                                      7     7      0    7135
                                             12 COMMON     1     1      0
                                              0 BANK0      6     6      0
                     _OLED_WriteData
                            _OLED_YX
 ---------------------------------------------------------------------------------
 (1) _OLED_Init                                            1     1      0   10749
                                             13 COMMON     1     1      0
                         _OLED_Clear
                       _OLED_Command
 ---------------------------------------------------------------------------------
 (2) _OLED_Clear                                           7     7      0    7733
                                             12 COMMON     1     1      0
                                              0 BANK0      6     6      0
                     _OLED_WriteData
                            _OLED_YX
                             _memset
 ---------------------------------------------------------------------------------
 (2) _memset                                               8     2      6     552
                                              0 COMMON     8     2      6
 ---------------------------------------------------------------------------------
 (2) _OLED_YX                                              4     3      1    3333
                                              7 COMMON     4     3      1
                       _OLED_Command
 ---------------------------------------------------------------------------------
 (3) _OLED_Command                                         2     2      0    3016
                                              5 COMMON     2     2      0
                          _I2C_Start
                           _I2C_Stop
                      _I2C_WriteByte
                      _SSD1306_CtrlW
 ---------------------------------------------------------------------------------
 (2) _OLED_WriteData                                       7     3      4    3736
                                              5 COMMON     7     3      4
                          _I2C_Start
                           _I2C_Stop
                      _I2C_WriteByte
                      _SSD1306_CtrlW
 ---------------------------------------------------------------------------------
 (4) _SSD1306_CtrlW                                        0     0      0       0
 ---------------------------------------------------------------------------------
 (4) _I2C_WriteByte                                        2     2      0     992
                                              3 COMMON     2     2      0
                         _I2C_WaitIF
                       _I2C_WaitIdle
 ---------------------------------------------------------------------------------
 (4) _I2C_Stop                                             1     1      0     938
                                              3 COMMON     1     1      0
                         _I2C_WaitIF
                       _I2C_WaitIdle
 ---------------------------------------------------------------------------------
 (4) _I2C_Start                                            1     1      0     970
                                              3 COMMON     1     1      0
                         _I2C_WaitIF
                       _I2C_WaitIdle
 ---------------------------------------------------------------------------------
 (5) _I2C_WaitIdle                                         3     1      2     402
                                              0 COMMON     3     1      2
 ---------------------------------------------------------------------------------
 (5) _I2C_WaitIF                                           3     1      2     478
                                              0 COMMON     3     1      2
 ---------------------------------------------------------------------------------
 (1) _OLED_DrawBattery                                    21    19      2    1380
                                              4 BANK0     21    19      2
                            ___awdiv
                             ___wmul
 ---------------------------------------------------------------------------------
 (2) ___wmul                                               6     2      4     244
                                              0 COMMON     6     2      4
 ---------------------------------------------------------------------------------
 (2) ___awdiv                                              9     5      4     604
                                              6 COMMON     5     1      4
                                              0 BANK0      4     4      0
                             ___wmul (ARG)
 ---------------------------------------------------------------------------------
 (1) _I2C_Init                                             1     1      0       0
                                              0 COMMON     1     1      0
                    _I2C_ClearErrors
 ---------------------------------------------------------------------------------
 (2) _I2C_ClearErrors                                      0     0      0       0
 ---------------------------------------------------------------------------------
 Estimated maximum stack depth 5
 ---------------------------------------------------------------------------------

 Call Graph Graphs:

 _main (ROOT)
   _I2C_Init
     _I2C_ClearErrors
   _OLED_Clear
     _OLED_WriteData
       _I2C_Start
         _I2C_WaitIF
         _I2C_WaitIdle
       _I2C_Stop
         _I2C_WaitIF
         _I2C_WaitIdle
       _I2C_WriteByte
         _I2C_WaitIF
         _I2C_WaitIdle
       _SSD1306_CtrlW
     _OLED_YX
       _OLED_Command
         _I2C_Start
         _I2C_Stop
         _I2C_WriteByte
         _SSD1306_CtrlW
     _memset
   _OLED_DrawBattery
     ___awdiv
       ___wmul (ARG)
     ___wmul
   _OLED_Init
     _OLED_Clear
     _OLED_Command
   _OLED_Printf_Line
     _OLED_UpdateLine
       _OLED_WriteData
       _OLED_YX
     ___aldiv
     ___almod
     ___awdiv
     ___awmod
     ___lldiv
     ___llmod
     ___lwdiv
     ___lwmod
     _memcpy
     _memset
     _strcmp
     _strcpy
   _OLED_SetOrientation
     _OLED_Command
   _OLED_UpdateLine
   _initMain
     _internal_32

 Address spaces:
Name               Size   Autos  Total    Cost      Usage
BIGRAM             7F0      0       0       0        0.0%
NULL                 0      0       0       0        0.0%
CODE                 0      0       0       0        0.0%
BITCOMMON            E      0       0       1        0.0%
BITSFR0              0      0       0       1        0.0%
SFR0                 0      0       0       1        0.0%
COMMON               E      E       E       2      100.0%
BITSFR1              0      0       0       2        0.0%
SFR1                 0      0       0       2        0.0%
BITSFR2              0      0       0       3        0.0%
SFR2                 0      0       0       3        0.0%
STACK                0      0       0       3        0.0%
BITBANK0            50      0       0       4        0.0%
BITSFR3              0      0       0       4        0.0%
SFR3                 0      0       0       4        0.0%
BANK0               50     50      50       5      100.0%
BITSFR4              0      0       0       5        0.0%
SFR4                 0      0       0       5        0.0%
BITBANK1            50      0       0       6        0.0%
BITSFR5              0      0       0       6        0.0%
SFR5                 0      0       0       6        0.0%
BANK1               50     35      35       7       66.2%
BITSFR6              0      0       0       7        0.0%
SFR6                 0      0       0       7        0.0%
BITBANK2            50      0       0       8        0.0%
BITSFR7              0      0       0       8        0.0%
SFR7                 0      0       0       8        0.0%
BANK2               50      0       0       9        0.0%
BITSFR8              0      0       0       9        0.0%
SFR8                 0      0       0       9        0.0%
BITBANK3            50      0       0      10        0.0%
BITSFR9              0      0       0      10        0.0%
SFR9                 0      0       0      10        0.0%
BANK3               50      0       0      11        0.0%
BITSFR10             0      0       0      11        0.0%
SFR10                0      0       0      11        0.0%
BITBANK4            50      0       0      12        0.0%
BITSFR11             0      0       0      12        0.0%
SFR11                0      0       0      12        0.0%
BANK4               50      0       0      13        0.0%
BITSFR12             0      0       0      13        0.0%
SFR12                0      0       0      13        0.0%
BITSFR13             0      0       0      14        0.0%
SFR13                0      0       0      14        0.0%
ABS                  0      0       0      14        0.0%
BITBANK5            50      0       0      15        0.0%
BITSFR14             0      0       0      15        0.0%
SFR14                0      0       0      15        0.0%
BANK5               50      0       0      16        0.0%
BITSFR15             0      0       0      16        0.0%
SFR15                0      0       0      16        0.0%
BITBANK6            50      0       0      17        0.0%
BITSFR16             0      0       0      17        0.0%
SFR16                0      0       0      17        0.0%
BANK6               50      0       0      18        0.0%
BITSFR17             0      0       0      18        0.0%
SFR17                0      0       0      18        0.0%
BITBANK7            50      0       0      19        0.0%
BITSFR18             0      0       0      19        0.0%
SFR18                0      0       0      19        0.0%
BANK7               50      0       0      20        0.0%
BITSFR19             0      0       0      20        0.0%
SFR19                0      0       0      20        0.0%
BITBANK8            50      0       0      21        0.0%
BITSFR20             0      0       0      21        0.0%
SFR20                0      0       0      21        0.0%
BANK8               50      0       0      22        0.0%
BITSFR21             0      0       0      22        0.0%
SFR21                0      0       0      22        0.0%
BITBANK9            50      0       0      23        0.0%
BITSFR22             0      0       0      23        0.0%
SFR22                0      0       0      23        0.0%
BANK9               50      0       0      24        0.0%
BITSFR23             0      0       0      24        0.0%
SFR23                0      0       0      24        0.0%
BITBANK10           50      0       0      25        0.0%
BITSFR24             0      0       0      25        0.0%
SFR24                0      0       0      25        0.0%
BANK10              50      0       0      26        0.0%
BITSFR25             0      0       0      26        0.0%
SFR25                0      0       0      26        0.0%
BITBANK11           50      0       0      27        0.0%
BITSFR26             0      0       0      27        0.0%
SFR26                0      0       0      27        0.0%
BITSFR27             0      0       0      28        0.0%
SFR27                0      0       0      28        0.0%
DATA                 0      0       0      28        0.0%
BANK11              50      0       0      29        0.0%
BITSFR28             0      0       0      29        0.0%
SFR28                0      0       0      29        0.0%
BITBANK12           50      0       0      30        0.0%
BITSFR29             0      0       0      30        0.0%
SFR29                0      0       0      30        0.0%
BANK12              50      0       0      31        0.0%
BITSFR30             0      0       0      31        0.0%
SFR30                0      0       0      31        0.0%
BITBANK13           50      0       0      32        0.0%
BITSFR31             0      0       0      32        0.0%
SFR31                0      0       0      32        0.0%
BANK13              50      0       0      33        0.0%
BITBANK14           50      0       0      34        0.0%
BANK14              50      0       0      35        0.0%
BITBANK15           50      0       0      36        0.0%
BANK15              40      0       0      37        0.0%
BITBANK16           50      0       0      38        0.0%
BANK16               0      0       0      39        0.0%
BITBANK17           50      0       0      40        0.0%
BANK17               0      0       0      41        0.0%
BITBANK18           50      0       0      42        0.0%
BANK18               0      0       0      43        0.0%
BITBANK19           50      0       0      44        0.0%
BANK19               0      0       0      45        0.0%
BITBANK20           50      0       0      46        0.0%
BANK20               0      0       0      47        0.0%
BITBANK21           50      0       0      48        0.0%
BANK21               0      0       0      49        0.0%
BITBANK22           50      0       0      50        0.0%
BANK22               0      0       0      51        0.0%
BITBANK23           50      0       0      52        0.0%
BANK23               0      0       0      53        0.0%
BITBANK24           50      0       0      54        0.0%
BANK24               0      0       0      55        0.0%
BITBANK25           20      0       0      56        0.0%
BANK25               0      0       0      57        0.0%


Microchip Technology PIC Macro Assembler V2.46 build 20240104201356 
Symbol Table                                                                                   Thu Jan 29 22:50:31 2026

          OLED_DrawBattery@i 0037            OLED_DrawBattery@x 0024                  _SSPSTATbits 0214  
                         l32 0C3A                           l41 0D17                           l26 0C73  
                         l35 0C11                           l28 0C8F                           l60 0DFE  
                         l45 0D27                           l61 0E1F                           l46 0D3C  
                         l62 0E11                           l47 0D39                           l55 0CDF  
                         l63 0E19                           l56 0CF3                           l57 0CF1  
                         l87 0C1A                 ___awdiv@sign 0021          ___wmul@multiplicand 0072  
  OLED_Printf_Line@last_text 26F0         OLED_DrawBattery@page 0025                          l202 0FA1  
                        l221 017D                          l230 0D92                          l215 0F0F  
                        l218 0CD0                          l226 0F5C                          l146 0ECE  
                        l154 0277                          l411 0C9A                          l332 0320  
                        l413 0CAE                          l253 07F1                          l336 03DD  
                        l192 0DED                          l188 0005                          l701 0E53  
                        l198 0FAC                          l447 00A9                          l641 004F  
                        l564 0109                          l476 0299                          l486 0315  
                        l489 0190                          l577 0FFF                          l499 01F8  
                        l691 0E8F                          l873 0D66                          l893 0C55  
                        l879 0C71                          l887 0DBF                 ___awmod@sign 0076  
                        wreg 0009        OLED_DrawBattery@i_548 0038                  main@battery 00D4  
                       l2001 0E03                         l2011 0E17                         l2003 0E0B  
                       l2101 0C5B                         l2015 0E1A                         l2031 0DD2  
                       l2023 0DC1                         l2103 0C61                         l2111 0F10  
                       l2009 0E16                         l2033 0DD7                         l2025 0DC5  
                       l2105 0C65                         l2121 0F33                         l2201 0286  
                       l2107 0C0B                         l2019 0004                         l2123 0F51  
                       l2131 0D6F                         l2211 02AC                         l2203 0288  
                       l2301 00EB                         l2061 0F75                         l2053 0F64  
                       l2045 0DE6                         l2037 0DDB                         l2029 0DCB  
                       l2125 0F56                         l2117 0F11                         l2133 0D74  
                       l2221 02CE                         l2213 02B4                         l2205 028C  
                       l2141 0DAA                         l2109 0C12                         l2311 0100  
                       l2303 00EF                         l2063 0F7A                         l2055 0F68  
                       l2039 0DE0                         l2119 0F2E                         l2127 0D68  
                       l2231 02F7                         l2223 02D5                         l2215 02BC  
                       l2207 029D                         l2151 0D3D                         l2143 0DB2  
                       l2135 0D94                         l2313 0105                         l2305 00F0  
                       l2049 0F5D                         l2225 02E7                         l2217 02BF  
                       l2233 02FD                         l2209 02A8                         l2241 017E  
                       l2321 0FB2                         l2401 0E20                         l2153 0D46  
                       l2161 0D5A                         l2137 0D95                         l2307 00F5  
                       l2171 0CA4                         l2163 0C90                         l2075 0F89  
                       l2067 0F7E                         l2059 0F6E                         l2091 0CB0  
                       l2235 0302                         l2227 02EF                         l2219 02CA  
                       l2251 01A7                         l2243 017F                         l2331 0FC8  
                       l2323 0FB7                         l2411 0E36                         l2403 0E26  
                       l2155 0D4C                         l2139 0D9D                         l2147 0C3B  
                       l2309 00FB                         l2173 0CAA                         l2165 0C92  
                       l2085 0F9D                         l2077 0F8C                         l2069 0F83  
                       l2093 0CB9                         l2501 014E                         l2237 030D  
                       l2229 02F0                         l2261 01D3                         l2253 01AA  
                       l2245 0183                         l2341 0FE2                         l2333 0FCB  
                       l2325 0FB9                         l2317 0FAD                         l2181 0063  
                       l2413 0E40                         l2405 0E29                         l2157 0D50  
                       l2149 0C3F                         l2431 0C32                         l2423 0C27  
                       l2167 0C96                         l2079 0F97                         l2095 0CBF  
                       l2511 0162                         l2503 0152                         l2263 01DA  
                       l2255 01B5                         l2247 0194                         l2351 0FFB  
                       l2343 0FE6                         l2335 0FD0                         l2327 0FBD  
                       l2319 0FAE                         l2191 0093                         l2183 006E  
                       l2415 0E44                         l2407 0E2E                         l2159 0D56  
                       l2425 0C2C                         l2281 00B7                         l2273 00AA  
                       l2169 0C9F                         l2097 0CC4                         l2521 0176  
                       l2513 0166                         l2505 0156                         l2257 01B9  
                       l2265 01E0                         l2249 019F                         l2345 0FEB  
                       l2337 0FD4                         l2329 0FC2                         l2193 0094  
                       l2185 0072                         l2177 0050                         l2361 001C  
                       l2417 0E49                         l2409 0E32                         l2601 04D5  
                       l2441 0EA2                         l2433 0E90                         l2427 0C2D  
                       l2291 00CC                         l2283 00BB                         l2275 00AC  
                       l2099 0C56                         l2523 017A                         l2515 016A  
                       l2507 015A                         l2267 01E5                         l2259 01CB  
                       l2339 0FD8                         l2347 0FF1                         l2195 009B  
                       l2187 0079                         l2179 0060                         l2363 0020  
                       l2371 0047                         l2355 0006                         l2419 0E4F  
                       l2611 04FD                         l2603 04DC                         l2531 0EE7  
                       l2451 0EAB                         l2443 0EA4                         l2435 0E93  
                       l2429 0C2F                         l2293 00CF                         l2285 00C0  
                       l2277 00B0                         l2517 016E                         l2509 015E  
                       l2269 01F0                         l2349 0FF6                         l2189 008B  
                       l2197 00A1                         l2365 0032                         l2357 000E  
                       l2381 0E5F                         l2701 065F                         l2621 051D  
                       l2613 0508                         l2605 04E5                         l2533 0EF0  
                       l2525 0ED0                         l2461 0EC3                         l2453 0EB0  
                       l2445 0EA5                         l2437 0E9F                         l2295 00D4  
                       l2287 00C4                         l2279 00B5                         l2519 0172  
                       l2471 0112                         l2367 003A                         l2359 0011  
                       l2391 0E7F                         l2383 0E64                         l2375 0E54  
                       l2711 0681                         l2703 0665                         l2631 0565  
                       l2623 0528                         l2615 050E                         l2607 04EB  
                       l2551 03FE                         l2543 03E0                         l2527 0ED5  
                       l2463 0EC8                         l2455 0EB5                         l2447 0EA8  
                       l2439 0EA1                         l2297 00D8                         l2289 00C6  
                       l2801 0374                         l2481 0126                         l2473 0116  
                       l2369 0041                         l2393 0E80                         l2385 0E68  
                       l2377 0E56                         l2721 06A6                         l2713 0687  
                       l2705 066D                         l2633 056D                         l2625 0529  
                       l2617 0512                         l2641 058B                         l2609 04F3  
                       l2561 0419                         l2553 0403                         l2529 0EDE  
                       l2537 0EF9                         l2465 0ECB                         l2457 0EBA  
                       l2449 0EAA                         l2299 00DC                         l2811 03D1  
                       l2803 037A                         l2491 013A                         l2483 012A  
                       l2475 011A                         l2395 0E85                         l2387 0E6C  
                       l2379 0E5C                         l2731 06BE                         l2723 06AC  
                       l2715 068D                         l2707 0672                         l2643 0590  
                       l2635 0574                         l2627 0543                         l2619 0517  
                       l2651 05B0                         l2571 043D                         l2563 041F  
                       l2555 040A                         l2547 03F1                         l2467 0ECD  
                       l2459 0EBF                         l2813 03D7                         l2805 0396  
                       l1933 0C7A                         l1941 0CF4                         l2493 013E  
                       l2485 012E                         l2477 011E                         l2469 010A  
                       l2389 0E7B                         l2397 0E8B                         l2733 06C4  
                       l2725 06B3                         l2717 0695                         l2709 0679  
                       l2661 05D5                         l2653 05B5                         l2645 0596  
                       l2637 057D                         l2629 0549                         l2581 0469  
                       l2573 044D                         l2565 0424                         l2557 0410  
                       l2741 06EE                         l2549 03F4                         l2807 0399  
                       l1935 0C82                         l1927 0C72                         l1951 0D02  
                       l1943 0CF5                         l2495 0142                         l2487 0132  
                       l2479 0122                         l2751 0712                         l2743 06F7  
                       l2719 069E                         l2671 0601                         l2663 05DB  
                       l2655 05BC                         l2647 05A1                         l2639 0583  
                       l2591 0490                         l2583 0471                         l2575 0453  
                       l2567 0425                         l2559 0414                         l2809 03CD  
                       l1937 0C8E                         l1929 0C78                         l1945 0CFC  
                       l1953 0D0A                         l1961 0D20                         l2497 0146  
                       l2489 0136                         l2761 076F                         l2753 0716  
                       l2745 06FB                         l2729 06B9                         l2681 061D  
                       l2673 0607                         l2665 05EB                         l2657 05C2  
                       l2649 05AA                         l2593 0491                         l2585 0475  
                       l2577 045A                         l2569 0437                         l2737 06CE  
                       l1955 0D16                         l1947 0D00                         l1963 0D25  
                       l2499 014A                         l2771 0786                         l2763 0771  
                       l2691 063F                         l2683 0620                         l2675 060F  
                       l2667 05F1                         l2659 05C3                         l2595 04AB  
                       l2587 047F                         l2739 06E9                         l2579 0463  
                       l2747 0701                         l1981 0CD9                         l2781 07D7  
                       l2773 0788                         l2765 0774                         l2757 0738  
                       l2749 070A                         l2693 0644                         l2685 0626  
                       l2677 0616                         l2669 05F8                         l2597 04B1  
                       l2589 048A                         l2861 0202                         l2791 033C  
                       l1975 0D3B                         l1967 0D2B                         l1959 0D18  
                       l1991 0DEF                         l2783 07EC                         l2775 07C3  
                       l2767 077A                         l2759 0751                         l2695 0649  
                       l2687 062F                         l2679 061C                         l2599 04CD  
                       l2871 021D                         l2863 0206                         l2785 0318  
                       l1969 0D33                         l1985 0CE3                         l1993 0DF7  
                       l2777 07C9                         l2769 0780                         l2697 064F  
                       l2689 0637                         l2881 0255                         l2873 0226  
                       l2865 0209                         l2857 01F9                         l2787 031E  
                       l1987 0CEB                         l1979 0CD1                         l1995 0DFC  
                       l2779 07CF                         l2699 0656                         l2947 0F01  
                       l2883 025A                         l2875 022F                         l2867 0212  
                       l2859 01FF                         l2797 033D                         l2789 0334  
                       l2885 025D                         l2877 0233                         l2869 0214  
                       l2799 0370                         l1999 0E00                         l2887 025F  
                       l2879 024C                         l2889 026E                         STR_1 0B00  
                       STR_2 1000                         STR_3 100B              __end_of_OLED_YX 0CD1  
                       u2010 0CAA                         u2011 0CA9                         u2100 029D  
                       u2020 0060                         u2005 0CA0                         u2101 029C  
                       u2021 005F                         u2110 02BC                         u2111 02BB  
                ?_OLED_Clear 0070                         u2200 0194                         u2040 0072  
                       u3000 07D7                         u2201 0193                         u2041 0071  
                       u3001 07D6                         u2130 02CE                         u2210 01A7  
                       u3010 07EC                         u2131 02CD                         u2211 01A6  
                       u2035 0064                         u3011 07EB                         u2300 00CC  
                       u3020 031E                         u2060 008B                         u2301 00CB  
                       u3021 031D                         u2125 02C0                         u2061 008A  
                       u3030 0334                         u2150 02E7                         u2230 01B9  
                       u3031 0333                         u2151 02E6                         u2231 01B8  
                       u2055 0073                         u3015 07E8                         u2320 00DC  
                       u3040 033B                         u2240 01CB                         u2400 0FC8  
                       u2080 00A1                         u2321 00DB                         u3041 033A  
                       u2145 02CF                         u2241 01CA                         u2225 01AB  
                       u2401 0FC7                         u2081 00A0                         u2065 0087  
                       u2170 02FD                         u2090 028C                         u2315 00D0  
                       u3035 0330                         u2171 02FC                         u2155 02E3  
                       u2091 028B                         u2075 0095                         u2340 00EB  
                       u3060 037A                         u1700 0D25                         u2180 0302  
                       u2260 01E0                         u2420 0FD8                         u2500 0032  
                       u2341 00EA                         u3061 0379                         u1701 0D24  
                       u2181 0301                         u2165 02F1                         u2261 01DF  
                       u2245 01C7                         u2421 0FD7                         u2501 0031  
                       u1710 0D38                         u2270 01E5                         u2190 0183  
                       u2430 0FE2                         u2335 00DD                         u3055 0350  
                       u1711 0D37                         u2271 01E4                         u2255 01D4  
                       u2191 0182                         u2431 0FE1                         u2415 0FCC  
                       u2360 00FB                         u2280 00B0                         u3080 03D7  
                       u1720 0CDE                         u1800 0F63                         u2520 0047  
                       u2600 0E26                         u2361 00FA                         u2345 00E7  
                       u2281 00AF                         u3081 03D6                         u1721 0CDD  
                       u1801 0F62                         u2521 0046                         u2505 002E  
                       u2601 0E25                         u2370 0100                         u2290 00BB  
                       u3090 03DD                         u1650 0C78                         u1730 0CF0  
                       u1810 0F6D                         u2450 0FF1                         u2530 0E5C  
                       u2371 00FF                         u2355 00F1                         u2291 00BA  
                       u3091 03DC                         u3075 03AD                         u1651 0C77  
                       u1731 0CEF                         u1811 0F6C                         u2451 0FF0  
                       u2435 0FDE                         u2515 003B                         u2531 0E5B  
                       u3307 0E98                         u1660 0C8E                         u1740 0DFC  
                       u1820 0F7A                         u2460 0FF6                         u2380 0FB2  
                       u2620 0E36                         u2700 0459                         u3180 025A  
                       u1661 0C8D                         u1741 0DFB                         u1821 0F79  
                       u3317 010D                         u2461 0FF5                         u2445 0FE7  
                       u2381 0FB1                         u2621 0E35                         u2701 0458  
                       u3181 0259                         u1670 0CFC                         u1750 0E10  
                       u1830 0F88                         u1910 0F5C                         u2390 0FBD  
                       u2470 000E                         u2550 0E6C                         u2630 0E40  
                       u2710 0470                         u3190 026E                         u3327 0D05  
                       u1671 0CFB                         u1751 0E0F                         u1831 0F87  
                       u1911 0F5B                         u2391 0FBC                         u2471 000D  
                       u2551 0E6B                         u2631 0E3F                         u2615 0E2A  
                       u2711 046F                         u3191 026D                         u1680 0D00  
                       u1760 0E16                         u1840 0F9C                         u1920 0D6E  
                       u2800 058A                         u2720 047F                         u3337 0C7D  
                       u1681 0CFF                         u1761 0E15                         u1841 0F9B  
                       u1905 0F38                         u1921 0D6D                         u2545 0E60  
                       u2801 0589                         u2721 047E                  main@counter 00D0  
                       u1690 0D16                         u1850 0FAB                         u1770 0DCA  
                       u2490 0020                         u2570 0E7B                         u2650 0E4F  
                       u2810 05F1                         u2730 04D5                         u3347 0C35  
                       u1691 0D15                         u1851 0FAA                         u1771 0DC9  
                       u2491 001F                         u2571 0E7A                         u2651 0E4E  
                       u2635 0E3C                         u2811 05F0                         u2731 04D4  
                       u1780 0DD7                         u1940 0DAA                         u2900 069D  
                       u2820 05F7                         u2740 04DB                         u2660 03F0  
                       u1781 0DD6                         u2485 0012                         u2565 0E6D  
                       u2645 0E45                         u1941 0DA9                         u2901 069C  
                       u2821 05F6                         u2741 04DA                         u2661 03EF  
                       u1790 0DE5                         u2590 0E8B                         u1950 0DB2  
                       u2910 070A                         u2830 060E                         u2750 04F2  
                       u2670 03FE                         u1855 0FA7                         u1791 0DE4  
                       u1935 0D79                         u2591 0E8A                         u2575 0E77  
                       u1951 0DB1                         u2911 0709                         u2831 060D  
                       u2751 04F1                         u2671 03FD                         u1880 0C71  
                       u1960 0C55                         u2920 0712                         u2840 0626  
                       u2760 04FD                         u2680 0414                         u1865 0CB3  
                       u1881 0C70                         u2585 0E81                         u1961 0C54  
                       u2921 0711                         u2841 0625                         u2761 04FC  
                       u2681 0413                         u3297 027D                         u1970 0D66  
                       u2770 0512                         u2690 0453                         u1875 0CC7  
                       u1971 0D65                         u2771 0511                         u2691 0452  
                       u1980 0C96                         u2940 0737                         u2860 064F  
                       u2780 056D                         u1981 0C95                         u2941 0736  
                       u2861 064E                         u2781 056C                         u2870 0655  
                       u2790 0573                         u1895 0F16                         u2935 071B  
                       u2871 0654                         u2855 0645                         u2791 0572  
                       u2880 066C                         u2881 066B                         u2970 0780  
                       u2890 0695                         u1995 0C9B                         u2971 077F  
                       u2955 073E                         u2891 0694                         u2980 0786  
                       u2981 0785                         u2965 0757                         _SCS0 04C8  
                       u2995 0792                         _SCS1 04C9            OLED_Printf_Line@i 00BE  
          OLED_Printf_Line@p 00B5                         _main 01F9             __end_of_I2C_Init 0C3B  
                       fsr0h 0005                         fsr1h 0007                         indf0 0000  
                       fsr0l 0004                         indf1 0001                         fsr1l 0006  
                       btemp 007E             __end_of_I2C_Stop 0CF4                         start 0002  
           ??_OLED_WriteData 0079       OLED_DrawBattery@fill_w 0035              __end_of___aldiv 0316  
            __end_of___almod 01F9                        ?_main 0070              __end_of___awdiv 010A  
            __end_of___awmod 1000              __end_of___lldiv 00AA              ___awdiv@divisor 0076  
            __end_of___llmod 0050                        _IRCF0 04CB                        _IRCF1 04CC  
                      _IRCF2 04CD                        _IRCF3 04CE              __end_of___lwdiv 0E90  
            __end_of___lwmod 0E54              ___awdiv@counter 0020           OLED_Printf_Line@ch 00BD  
         OLED_Printf_Line@ap 00CA            ??_OLED_UpdateLine 0020            __end_of_I2C_Start 0D3D  
                _BatteryIcon 1016                 _I2C_WaitIdle 0CF4         I2C_WaitIF@timeout_ms 0070  
                      status 0003         OLED_SetOrientation@o 0079                        wtemp0 007E  
               ?_internal_32 0070              __initialization 07F2                 __end_of_main 0286  
           __end_of_OledFont 0B00                       ??_main 00CE                    ??_OLED_YX 0078  
           ___llmod@dividend 0074             ___awdiv@dividend 0078                 ??_I2C_WaitIF 0072  
          __end_of_OLED_Init 017E                ?_OLED_Command 0070                       _SPLLEN 04CF  
                     _SSPADD 0212                       _SSPBUF 0211            ?_OLED_Printf_Line 0026  
         ??_OLED_Printf_Line 002C                    ??___aldiv 0078                    ??___almod 0078  
                     ___wmul 0C90                    ??___awdiv 007A                    ??___awmod 0074  
                  ??___lldiv 0078                    ??___llmod 0078          OLED_Printf_Line@col 00B4  
        OLED_Printf_Line@buf 004E                    ??___lwdiv 0074          OLED_Printf_Line@fmt 0026  
        OLED_Printf_Line@dst 00CD                    ??___lwmod 0074          OLED_Printf_Line@val 00C7  
        OLED_Printf_Line@src 00CB             __end_of_initMain 0ECF          OLED_Printf_Line@str 00B3  
                     _memcpy 0D3D                       _memset 0C56                  OLED_Clear@p 007C  
           ___awdiv@quotient 0022              ___awmod@divisor 0070              ___awmod@counter 0075  
                OLED_YX@page 0079           __end_of_I2C_WaitIF 0C90                       _strcmp 0D93  
                     _strcpy 0C3B                    ?_I2C_Init 0070                    ?_I2C_Stop 0070  
             ??_OLED_Command 0075              I2C_WriteByte@st 0074      __end_of__initialization 07FD  
             __pcstackCOMMON 0070                _I2C_WriteByte 0DEE                   ??_I2C_Init 0070  
                 ??_I2C_Stop 0073  __end_of_OLED_SetOrientation 0F10                 ??_OLED_Clear 0020  
              _SSD1306_CtrlW 0004                   __pmaintext 01F9               ?_I2C_WriteByte 0070  
                    ?___wmul 0070                      ?_memcpy 0070                      ?_memset 0070  
                 I2C_Stop@st 0073              _OLED_UpdateLine 0D67           __end_of_OLED_Clear 0F5D  
                    ?_strcmp 0070                      ?_strcpy 0070      OLED_Printf_Line@val_530 00BA  
    OLED_Printf_Line@val_524 00B6      OLED_Printf_Line@val_533 00B1      OLED_Printf_Line@val_527 00C3  
                    _OLED_YX 0CAF                      _PPSLOCK 0E0F                      _SSPCON2 0216  
     I2C_WaitIdle@timeout_ms 0070                    ?_initMain 0070                    _I2C_Start 0D18  
             ?_SSD1306_CtrlW 0070                      ___aldiv 0286                      ___almod 017E  
                    ___awdiv 00AA                      ___awmod 0FAD                      ___lldiv 0050  
                    ___llmod 0006            ??_I2C_ClearErrors 0070                      ___lwdiv 0E54  
                    ___lwmod 0E20         __end_of_OLED_Command 0DEE                      __ptext1 0E90  
                    __ptext2 0C12                      __ptext3 0ECF                      __ptext4 03DE  
                    __ptext5 0C3B                      __ptext6 0D93                      __ptext7 0D3D  
                    __ptext8 0E20                      __ptext9 0E54         OLED_Printf_Line@line 00C9  
           _OLED_DrawBattery 0316         OLED_Printf_Line@temp 00A0             ___awmod@dividend 0072  
           ___aldiv@dividend 0074                      clrloop0 0C1C         end_of_initialization 07FD  
                    memcpy@d 0076                      memcpy@n 0074                      memcpy@s 0078  
                 ??_initMain 0070                      memset@c 0072                      memset@n 0074  
                    memset@p 0076                    _OLED_Init 010A                   ?_I2C_Start 0070  
          OLED_WriteData@len 0077              ??_I2C_WriteByte 0073              ___lldiv@divisor 0070  
            ___lldiv@counter 007D      __end_of_OLED_UpdateLine 0D93             ___aldiv@quotient 0022  
                    strcmp@l 0073                      strcmp@r 0070                      strcpy@d 0075  
        OLED_UpdateLine@page 007C                    _TRISCbits 008E              OLED_YX@col_char 0077  
                  _RXPPSbits 0E24              OLED_Command@cmd 0075              ??_SSD1306_CtrlW 0070  
                 ?_OLED_Init 0070               __end_of___wmul 0CAF               __end_of_memcpy 0D67  
             __end_of_memset 0C72               __end_of_strcmp 0DC0               __end_of_strcpy 0C56  
        start_initialization 07F2              ___llmod@divisor 0070   OLED_DrawBattery@percentage 0036  
                ??_I2C_Start 0073              ___llmod@counter 0079             ?_OLED_UpdateLine 0070  
                   ??___wmul 0074                   OLED_YX@col 007A                     ??_memcpy 0076  
                   ??_memset 0076                   memset@dest 0070                     ??_strcmp 0072  
                   ??_strcpy 0073                  __pbssBIGRAM 24F0                    ___latbits 0003  
                   ?_OLED_YX 0077                __pcstackBANK0 0020                __pcstackBANK1 00A0  
              ?_I2C_WaitIdle 0070                 _OLED_Command 0DC0              _I2C_ClearErrors 0C0B  
   __end_of_OLED_DrawBattery 03DE                ??_internal_32 0070                  ??_OLED_Init 007D  
              _screen_buffer 24F0             ___lwdiv@dividend 0072                     ?___aldiv 0070  
                   ?___almod 0070                     ?___awdiv 0076                     ?___awmod 0070  
                   ?___lldiv 0070                     ?___llmod 0070                     ?___lwdiv 0070  
                   ?___lwmod 0070       OLED_Printf_Line@nibble 00BC             _OLED_Printf_Line 03DE  
           ___almod@dividend 0074                  I2C_Start@st 0073                     _I2C_Init 0C27  
                   _I2C_Stop 0CD1               _OLED_WriteData 0F5D             ___lwdiv@quotient 0075  
             ??_I2C_WaitIdle 0072              ___aldiv@divisor 0070              ___aldiv@counter 0020  
             ___wmul@product 0074                    clear_ram0 0C1B     OLED_Printf_Line@temp_531 00A6  
   OLED_Printf_Line@temp_525 0038     OLED_Printf_Line@temp_534 00AC     OLED_Printf_Line@temp_528 0043  
           OLED_WriteData@st 007B                     _PIR1bits 0011                     _PIR2bits 0012  
        __end_of_internal_32 0C1B            ___wmul@multiplier 0070       __end_of_OLED_WriteData 0FAD  
             OLED_Command@st 0076      __end_of_I2C_ClearErrors 0C12                   _I2C_WaitIF 0C72  
                   _OledFont 0800                    memcpy@tmp 007A        __end_of_I2C_WriteByte 0E20  
                 _ANSELCbits 018E              ?_OLED_WriteData 0075        OLED_Printf_Line@i_532 00C1  
      OLED_Printf_Line@i_526 00BF        OLED_Printf_Line@i_535 00C2        OLED_Printf_Line@i_529 00C0  
            ___lwdiv@divisor 0070              ___lwdiv@counter 0077                     __ptext10 0006  
                   __ptext11 0050                     __ptext20 0DC0                     __ptext12 0FAD  
                   __ptext21 0F5D                     __ptext13 017E                     __ptext30 00AA  
                   __ptext22 0004                     __ptext14 0286                     __ptext31 0C27  
                   __ptext23 0DEE                     __ptext15 0D67                     __ptext32 0C0B  
                   __ptext24 0CD1                     __ptext16 010A                     __ptext25 0D18  
                   __ptext17 0F10                     __ptext26 0CF4                     __ptext18 0C56  
                   __ptext27 0C72                     __ptext19 0CAF                     __ptext28 0316  
                   __ptext29 0C90              ___almod@divisor 0070              ___almod@counter 0079  
                 strcpy@dest 0070                     _initMain 0E90                _SSPDATPPSbits 0E21  
                _internal_32 0C12        __end_of_SSD1306_CtrlW 0006                   _RB2PPSbits 0E9A  
            OLED_WriteData@i 0079                   _RC4PPSbits 0EA4                _SSPCLKPPSbits 0E20  
                 _RC5PPSbits 0EA5         __end_of_I2C_WaitIdle 0D18          _OLED_SetOrientation 0ECF  
                   memcpy@d1 0070                     memcpy@s1 0072             ?_I2C_ClearErrors 0070  
                ?_I2C_WaitIF 0070                   _OLED_Clear 0F10         _OLED_Printf_Line$537 006E  
         OLED_WriteData@data 0075     __end_of_OLED_Printf_Line 07F2             ___lwmod@dividend 0072  
       ?_OLED_SetOrientation 0070             ___lldiv@dividend 0074                    strcpy@src 0072  
          ?_OLED_DrawBattery 0024                  _PPSLOCKbits 0E0F           ??_OLED_DrawBattery 0026  
              __pstringtext1 1016                __pstringtext2 0800                __pstringtext3 1000  
              __pstringtext4 100B                __pstringtext5 0000             ___lldiv@quotient 0079  
            ___lwmod@divisor 0070              ___lwmod@counter 0075                 ___aldiv@sign 0021  
                _SSPCON1bits 0215                  _SSPCON2bits 0216                 ___almod@sign 007A  
      ??_OLED_SetOrientation 0077            I2C_WriteByte@data 0073                   _SSPCONbits 0215  
        __end_of_BatteryIcon 1020  
