

Microchip MPLAB XC8 Assembler V2.46 build 20240104201356 
                                                                                               Fri Dec 26 16:15:35 2025

Microchip MPLAB XC8 C Compiler v2.46 (Free license) build 20240104201356 Og1 
     1                           	processor	16F1718
     2                           	pagewidth 120
     3                           	opt	flic
     4                           	psect	stringtext1,global,class=STRCODE,delta=2,noexec
     5                           	psect	stringtext2,global,class=STRCODE,delta=2,noexec
     6                           	psect	stringtext3,global,class=STRCODE,delta=2,noexec
     7                           	psect	stringtext4,global,class=STRCODE,delta=2,noexec
     8                           	psect	stringtext5,global,class=STRCODE,delta=2,noexec
     9                           	psect	stringtext6,global,class=STRCODE,delta=2,noexec
    10                           	psect	stringtext7,global,class=STRCODE,delta=2,noexec
    11                           	psect	stringtext8,global,class=STRCODE,delta=2,noexec
    12                           	psect	stringtext9,global,class=STRCODE,delta=2,noexec
    13                           	psect	stringtext10,global,class=STRCODE,delta=2,noexec
    14                           	psect	stringtext11,global,class=STRCODE,delta=2,noexec
    15                           	psect	stringtext12,global,class=STRCODE,delta=2,noexec
    16                           	psect	stringtext13,global,class=STRCODE,delta=2,noexec
    17                           	psect	stringtext14,global,class=STRCODE,delta=2,noexec
    18                           	psect	stringtext15,global,class=STRCODE,delta=2,noexec
    19                           	psect	stringtext16,global,class=STRCODE,delta=2,noexec
    20                           	psect	stringtext17,global,class=STRCODE,delta=2,noexec
    21                           	psect	stringtext18,global,class=STRCODE,delta=2,noexec
    22                           	psect	stringtext19,global,class=STRCODE,delta=2,noexec
    23                           	psect	stringtext20,global,class=STRCODE,delta=2,noexec
    24                           	psect	stringtext21,global,class=STRCODE,delta=2,noexec
    25                           	psect	stringtext22,global,class=STRCODE,delta=2,noexec
    26                           	psect	stringtext23,global,class=STRCODE,delta=2,noexec
    27                           	psect	stringtext24,global,class=STRCODE,delta=2,noexec
    28                           	psect	stringtext25,global,class=STRCODE,delta=2,noexec
    29                           	psect	stringtext26,global,class=STRCODE,delta=2,noexec
    30                           	psect	stringtext27,global,class=STRCODE,delta=2,noexec
    31                           	psect	stringtext28,global,class=STRCODE,delta=2,noexec
    32                           	psect	stringtext29,global,class=STRCODE,delta=2,noexec
    33                           	psect	stringtext30,global,class=STRCODE,delta=2,noexec
    34                           	psect	stringtext31,global,class=STRCODE,delta=2,noexec
    35                           	psect	stringtext32,global,class=STRCODE,delta=2,noexec
    36                           	psect	stringtext33,global,class=STRCODE,delta=2,noexec
    37                           	psect	stringtext34,global,class=STRCODE,delta=2,noexec
    38                           	psect	stringtext35,global,class=STRCODE,delta=2,noexec
    39                           	psect	stringtext36,global,class=STRCODE,delta=2,noexec
    40                           	psect	stringtext37,global,class=STRCODE,delta=2,noexec
    41                           	psect	stringtext38,global,class=STRCODE,delta=2,noexec
    42                           	psect	stringtext39,global,class=STRCODE,delta=2,noexec
    43                           	psect	cinit,global,class=CODE,merge=1,delta=2
    44                           	psect	bssBANK0,global,class=BANK0,space=1,delta=1,noexec
    45                           	psect	bssBANK1,global,class=BANK1,space=1,delta=1,noexec
    46                           	psect	clrtext,global,class=CODE,delta=2
    47                           	psect	cstackCOMMON,global,class=COMMON,space=1,delta=1,noexec
    48                           	psect	cstackBANK0,global,class=BANK0,space=1,delta=1,noexec
    49                           	psect	maintext,global,class=CODE,merge=1,split=1,delta=2
    50                           	psect	text1,local,class=CODE,merge=1,delta=2
    51                           	psect	text2,local,class=CODE,merge=1,delta=2
    52                           	psect	text3,local,class=CODE,merge=1,delta=2
    53                           	psect	text4,local,class=CODE,merge=1,delta=2
    54                           	psect	text5,local,class=CODE,merge=1,delta=2
    55                           	psect	text6,local,class=CODE,merge=1,delta=2,group=1
    56                           	psect	text7,local,class=CODE,merge=1,delta=2
    57                           	psect	text8,local,class=CODE,merge=1,delta=2
    58                           	psect	text9,local,class=CODE,merge=1,delta=2
    59                           	psect	text10,local,class=CODE,merge=1,delta=2
    60                           	psect	text11,local,class=CODE,merge=1,delta=2
    61                           	psect	text12,local,class=CODE,merge=1,delta=2,group=1
    62                           	psect	text13,local,class=CODE,merge=1,delta=2,group=1
    63                           	psect	text14,local,class=CODE,merge=1,delta=2,group=1
    64                           	psect	text15,local,class=CODE,merge=1,delta=2
    65                           	psect	text16,local,class=CODE,merge=1,delta=2
    66                           	psect	text17,local,class=CODE,merge=1,inline,delta=2
    67                           	psect	text18,local,class=CODE,merge=1,delta=2
    68                           	psect	text19,local,class=CODE,merge=1,inline,delta=2
    69                           	psect	text20,local,class=CODE,merge=1,delta=2,group=1
    70                           	psect	text21,local,class=CODE,merge=1,delta=2,group=1
    71                           	psect	text22,local,class=CODE,merge=1,delta=2
    72                           	psect	text23,local,class=CODE,merge=1,delta=2
    73                           	psect	text24,local,class=CODE,merge=1,delta=2
    74                           	psect	text25,local,class=CODE,merge=1,delta=2
    75                           	psect	text26,local,class=CODE,merge=1,delta=2
    76                           	psect	text27,local,class=CODE,merge=1,delta=2
    77                           	psect	text28,local,class=CODE,merge=1,delta=2
    78                           	psect	text29,local,class=CODE,merge=1,delta=2
    79                           	psect	text30,local,class=CODE,merge=1,delta=2
    80                           	psect	text31,local,class=CODE,merge=1,delta=2
    81                           	psect	text32,local,class=CODE,merge=1,inline,delta=2
    82                           	psect	text33,local,class=CODE,merge=1,delta=2
    83                           	psect	text34,local,class=CODE,merge=1,inline,delta=2
    84                           	psect	text35,local,class=CODE,merge=1,delta=2
    85                           	psect	text36,local,class=CODE,merge=1,delta=2
    86                           	psect	text37,local,class=CODE,merge=1,inline,delta=2
    87                           	psect	text38,local,class=CODE,merge=1,inline,delta=2
    88                           	psect	config,global,abs,ovrld,class=CONFIG,space=4,delta=2,noexec
    89                           	dabs	1,0xCA0,32
    90                           	dabs	1,0xC20,80
    91                           	dabs	1,0xBA0,80
    92                           	dabs	1,0xB20,80
    93                           	dabs	1,0xAA0,80
    94                           	dabs	1,0xA20,80
    95                           	dabs	1,0x9A0,80
    96                           	dabs	1,0x920,80
    97                           	dabs	1,0x8A0,80
    98                           	dabs	1,0x820,80
    99                           	dabs	1,0x7A0,80
   100                           	dabs	1,0x720,80
   101                           	dabs	1,0x6A0,80
   102                           	dabs	1,0x650,32
   103                           	dabs	1,0x23F0,0,_SDWdata
   104                           	dabs	1,0x25F0,0,_SDRdata
   105                           	dabs	1,0x7E,2
   106     0000                     
   107                           ; Generated 07/09/2023 GMT
   108                           ; 
   109                           ; Copyright © 2023, Microchip Technology Inc. and its subsidiaries ("Microchip")
   110                           ; All rights reserved.
   111                           ; 
   112                           ; This software is developed by Microchip Technology Inc. and its subsidiaries ("Microch
      +                          ip").
   113                           ; 
   114                           ; Redistribution and use in source and binary forms, with or without modification, are
   115                           ; permitted provided that the following conditions are met:
   116                           ; 
   117                           ;     1. Redistributions of source code must retain the above copyright notice, this lis
      +                          t of
   118                           ;        conditions and the following disclaimer.
   119                           ; 
   120                           ;     2. Redistributions in binary form must reproduce the above copyright notice, this 
      +                          list
   121                           ;        of conditions and the following disclaimer in the documentation and/or other
   122                           ;        materials provided with the distribution. Publication is not required when
   123                           ;        this file is used in an embedded application.
   124                           ; 
   125                           ;     3. Microchip's name may not be used to endorse or promote products derived from th
      +                          is
   126                           ;        software without specific prior written permission.
   127                           ; 
   128                           ; THIS SOFTWARE IS PROVIDED BY MICROCHIP "AS IS" AND ANY EXPRESS OR IMPLIED WARRANTIES,
   129                           ; INCLUDING, BUT NOT LIMITED TO, THE IMPLIED WARRANTIES OF MERCHANTABILITY AND FITNESS F
      +                          OR
   130                           ; PURPOSE ARE DISCLAIMED.  IN NO EVENT SHALL MICROCHIP BE LIABLE FOR ANY DIRECT, INDIREC
      +                          T,
   131                           ; INCIDENTAL, SPECIAL, EXEMPLARY, OR CONSEQUENTIAL DAMAGES (INCLUDING BUT NOT LIMITED TO
   132                           ; PROCUREMENT OF SUBSTITUTE GOODS OR SERVICES; LOSS OF USE, DATA OR PROFITS; OR BUSINESS
   133                           ; INTERRUPTION) HOWSOEVER CAUSED AND ON ANY THEORY OF LIABILITY, WHETHER IN CONTRACT, ST
      +                          RICT
   134                           ; LIABILITY, OR TORT (INCLUDING NEGLIGENCE OR OTHERWISE) ARISING IN ANY WAY OUT OF THE U
      +                          SE OF
   135                           ; THIS SOFTWARE, EVEN IF ADVISED OF THE POSSIBILITY OF SUCH DAMAGE.
   136                           ; 
   137                           ; 
   138                           ; Code-generator required, PIC16F1718 Definitions
   139                           ; 
   140                           ; SFR Addresses
   141     0000                     	;# 
   142     0001                     	;# 
   143     0002                     	;# 
   144     0003                     	;# 
   145     0004                     	;# 
   146     0005                     	;# 
   147     0006                     	;# 
   148     0007                     	;# 
   149     0008                     	;# 
   150     0009                     	;# 
   151     000A                     	;# 
   152     000B                     	;# 
   153     000C                     	;# 
   154     000D                     	;# 
   155     000E                     	;# 
   156     0010                     	;# 
   157     0011                     	;# 
   158     0012                     	;# 
   159     0013                     	;# 
   160     0015                     	;# 
   161     0016                     	;# 
   162     0016                     	;# 
   163     0017                     	;# 
   164     0018                     	;# 
   165     0019                     	;# 
   166     001A                     	;# 
   167     001B                     	;# 
   168     001C                     	;# 
   169     008C                     	;# 
   170     008D                     	;# 
   171     008E                     	;# 
   172     0090                     	;# 
   173     0091                     	;# 
   174     0092                     	;# 
   175     0093                     	;# 
   176     0095                     	;# 
   177     0096                     	;# 
   178     0097                     	;# 
   179     0098                     	;# 
   180     0099                     	;# 
   181     009A                     	;# 
   182     009B                     	;# 
   183     009B                     	;# 
   184     009C                     	;# 
   185     009D                     	;# 
   186     009E                     	;# 
   187     009F                     	;# 
   188     010C                     	;# 
   189     010D                     	;# 
   190     010E                     	;# 
   191     0111                     	;# 
   192     0112                     	;# 
   193     0113                     	;# 
   194     0114                     	;# 
   195     0115                     	;# 
   196     0116                     	;# 
   197     0117                     	;# 
   198     0118                     	;# 
   199     0119                     	;# 
   200     011A                     	;# 
   201     011B                     	;# 
   202     011B                     	;# 
   203     011C                     	;# 
   204     018C                     	;# 
   205     018D                     	;# 
   206     018E                     	;# 
   207     0191                     	;# 
   208     0191                     	;# 
   209     0192                     	;# 
   210     0193                     	;# 
   211     0193                     	;# 
   212     0194                     	;# 
   213     0195                     	;# 
   214     0196                     	;# 
   215     0197                     	;# 
   216     0199                     	;# 
   217     0199                     	;# 
   218     0199                     	;# 
   219     019A                     	;# 
   220     019A                     	;# 
   221     019A                     	;# 
   222     019B                     	;# 
   223     019B                     	;# 
   224     019B                     	;# 
   225     019B                     	;# 
   226     019B                     	;# 
   227     019C                     	;# 
   228     019C                     	;# 
   229     019C                     	;# 
   230     019D                     	;# 
   231     019D                     	;# 
   232     019D                     	;# 
   233     019E                     	;# 
   234     019E                     	;# 
   235     019E                     	;# 
   236     019F                     	;# 
   237     019F                     	;# 
   238     019F                     	;# 
   239     019F                     	;# 
   240     019F                     	;# 
   241     020C                     	;# 
   242     020D                     	;# 
   243     020E                     	;# 
   244     0210                     	;# 
   245     0211                     	;# 
   246     0211                     	;# 
   247     0212                     	;# 
   248     0212                     	;# 
   249     0213                     	;# 
   250     0213                     	;# 
   251     0214                     	;# 
   252     0214                     	;# 
   253     0215                     	;# 
   254     0215                     	;# 
   255     0215                     	;# 
   256     0215                     	;# 
   257     0216                     	;# 
   258     0216                     	;# 
   259     0217                     	;# 
   260     0217                     	;# 
   261     028C                     	;# 
   262     028D                     	;# 
   263     028E                     	;# 
   264     0291                     	;# 
   265     0291                     	;# 
   266     0292                     	;# 
   267     0293                     	;# 
   268     0293                     	;# 
   269     0298                     	;# 
   270     0298                     	;# 
   271     0299                     	;# 
   272     029A                     	;# 
   273     029A                     	;# 
   274     029E                     	;# 
   275     030C                     	;# 
   276     030D                     	;# 
   277     030E                     	;# 
   278     038C                     	;# 
   279     038D                     	;# 
   280     038E                     	;# 
   281     0390                     	;# 
   282     0391                     	;# 
   283     0392                     	;# 
   284     0393                     	;# 
   285     0394                     	;# 
   286     0395                     	;# 
   287     0396                     	;# 
   288     0397                     	;# 
   289     0398                     	;# 
   290     0399                     	;# 
   291     039D                     	;# 
   292     039E                     	;# 
   293     039F                     	;# 
   294     0415                     	;# 
   295     0416                     	;# 
   296     0417                     	;# 
   297     041C                     	;# 
   298     041D                     	;# 
   299     041E                     	;# 
   300     0498                     	;# 
   301     0498                     	;# 
   302     0499                     	;# 
   303     049A                     	;# 
   304     049B                     	;# 
   305     049B                     	;# 
   306     049C                     	;# 
   307     049D                     	;# 
   308     049E                     	;# 
   309     049F                     	;# 
   310     0511                     	;# 
   311     0515                     	;# 
   312     0617                     	;# 
   313     0618                     	;# 
   314     0619                     	;# 
   315     0619                     	;# 
   316     061A                     	;# 
   317     061B                     	;# 
   318     061C                     	;# 
   319     061C                     	;# 
   320     0691                     	;# 
   321     0692                     	;# 
   322     0693                     	;# 
   323     0694                     	;# 
   324     0695                     	;# 
   325     0696                     	;# 
   326     0697                     	;# 
   327     0698                     	;# 
   328     0699                     	;# 
   329     069A                     	;# 
   330     069B                     	;# 
   331     069C                     	;# 
   332     069D                     	;# 
   333     069E                     	;# 
   334     069F                     	;# 
   335     0E0F                     	;# 
   336     0E10                     	;# 
   337     0E11                     	;# 
   338     0E12                     	;# 
   339     0E13                     	;# 
   340     0E14                     	;# 
   341     0E15                     	;# 
   342     0E17                     	;# 
   343     0E20                     	;# 
   344     0E21                     	;# 
   345     0E22                     	;# 
   346     0E24                     	;# 
   347     0E25                     	;# 
   348     0E28                     	;# 
   349     0E29                     	;# 
   350     0E2A                     	;# 
   351     0E2B                     	;# 
   352     0E90                     	;# 
   353     0E91                     	;# 
   354     0E92                     	;# 
   355     0E93                     	;# 
   356     0E94                     	;# 
   357     0E95                     	;# 
   358     0E96                     	;# 
   359     0E97                     	;# 
   360     0E98                     	;# 
   361     0E99                     	;# 
   362     0E9A                     	;# 
   363     0E9B                     	;# 
   364     0E9C                     	;# 
   365     0E9D                     	;# 
   366     0E9E                     	;# 
   367     0E9F                     	;# 
   368     0EA0                     	;# 
   369     0EA1                     	;# 
   370     0EA2                     	;# 
   371     0EA3                     	;# 
   372     0EA4                     	;# 
   373     0EA5                     	;# 
   374     0EA6                     	;# 
   375     0EA7                     	;# 
   376     0F0F                     	;# 
   377     0F10                     	;# 
   378     0F11                     	;# 
   379     0F12                     	;# 
   380     0F13                     	;# 
   381     0F14                     	;# 
   382     0F15                     	;# 
   383     0F16                     	;# 
   384     0F17                     	;# 
   385     0F18                     	;# 
   386     0F19                     	;# 
   387     0F1A                     	;# 
   388     0F1B                     	;# 
   389     0F1C                     	;# 
   390     0F1D                     	;# 
   391     0F1E                     	;# 
   392     0F1F                     	;# 
   393     0F20                     	;# 
   394     0F21                     	;# 
   395     0F22                     	;# 
   396     0F23                     	;# 
   397     0F24                     	;# 
   398     0F25                     	;# 
   399     0F26                     	;# 
   400     0F27                     	;# 
   401     0F28                     	;# 
   402     0F29                     	;# 
   403     0F2A                     	;# 
   404     0F2B                     	;# 
   405     0F2C                     	;# 
   406     0F2D                     	;# 
   407     0F2E                     	;# 
   408     0F2F                     	;# 
   409     0F30                     	;# 
   410     0F31                     	;# 
   411     0F32                     	;# 
   412     0F33                     	;# 
   413     0F34                     	;# 
   414     0F35                     	;# 
   415     0F36                     	;# 
   416     0F37                     	;# 
   417     0FE4                     	;# 
   418     0FE5                     	;# 
   419     0FE6                     	;# 
   420     0FE7                     	;# 
   421     0FE8                     	;# 
   422     0FE9                     	;# 
   423     0FEA                     	;# 
   424     0FEB                     	;# 
   425     0FED                     	;# 
   426     0FEE                     	;# 
   427     0FEF                     	;# 
   428     0000                     	;# 
   429     0001                     	;# 
   430     0002                     	;# 
   431     0003                     	;# 
   432     0004                     	;# 
   433     0005                     	;# 
   434     0006                     	;# 
   435     0007                     	;# 
   436     0008                     	;# 
   437     0009                     	;# 
   438     000A                     	;# 
   439     000B                     	;# 
   440     000C                     	;# 
   441     000D                     	;# 
   442     000E                     	;# 
   443     0010                     	;# 
   444     0011                     	;# 
   445     0012                     	;# 
   446     0013                     	;# 
   447     0015                     	;# 
   448     0016                     	;# 
   449     0016                     	;# 
   450     0017                     	;# 
   451     0018                     	;# 
   452     0019                     	;# 
   453     001A                     	;# 
   454     001B                     	;# 
   455     001C                     	;# 
   456     008C                     	;# 
   457     008D                     	;# 
   458     008E                     	;# 
   459     0090                     	;# 
   460     0091                     	;# 
   461     0092                     	;# 
   462     0093                     	;# 
   463     0095                     	;# 
   464     0096                     	;# 
   465     0097                     	;# 
   466     0098                     	;# 
   467     0099                     	;# 
   468     009A                     	;# 
   469     009B                     	;# 
   470     009B                     	;# 
   471     009C                     	;# 
   472     009D                     	;# 
   473     009E                     	;# 
   474     009F                     	;# 
   475     010C                     	;# 
   476     010D                     	;# 
   477     010E                     	;# 
   478     0111                     	;# 
   479     0112                     	;# 
   480     0113                     	;# 
   481     0114                     	;# 
   482     0115                     	;# 
   483     0116                     	;# 
   484     0117                     	;# 
   485     0118                     	;# 
   486     0119                     	;# 
   487     011A                     	;# 
   488     011B                     	;# 
   489     011B                     	;# 
   490     011C                     	;# 
   491     018C                     	;# 
   492     018D                     	;# 
   493     018E                     	;# 
   494     0191                     	;# 
   495     0191                     	;# 
   496     0192                     	;# 
   497     0193                     	;# 
   498     0193                     	;# 
   499     0194                     	;# 
   500     0195                     	;# 
   501     0196                     	;# 
   502     0197                     	;# 
   503     0199                     	;# 
   504     0199                     	;# 
   505     0199                     	;# 
   506     019A                     	;# 
   507     019A                     	;# 
   508     019A                     	;# 
   509     019B                     	;# 
   510     019B                     	;# 
   511     019B                     	;# 
   512     019B                     	;# 
   513     019B                     	;# 
   514     019C                     	;# 
   515     019C                     	;# 
   516     019C                     	;# 
   517     019D                     	;# 
   518     019D                     	;# 
   519     019D                     	;# 
   520     019E                     	;# 
   521     019E                     	;# 
   522     019E                     	;# 
   523     019F                     	;# 
   524     019F                     	;# 
   525     019F                     	;# 
   526     019F                     	;# 
   527     019F                     	;# 
   528     020C                     	;# 
   529     020D                     	;# 
   530     020E                     	;# 
   531     0210                     	;# 
   532     0211                     	;# 
   533     0211                     	;# 
   534     0212                     	;# 
   535     0212                     	;# 
   536     0213                     	;# 
   537     0213                     	;# 
   538     0214                     	;# 
   539     0214                     	;# 
   540     0215                     	;# 
   541     0215                     	;# 
   542     0215                     	;# 
   543     0215                     	;# 
   544     0216                     	;# 
   545     0216                     	;# 
   546     0217                     	;# 
   547     0217                     	;# 
   548     028C                     	;# 
   549     028D                     	;# 
   550     028E                     	;# 
   551     0291                     	;# 
   552     0291                     	;# 
   553     0292                     	;# 
   554     0293                     	;# 
   555     0293                     	;# 
   556     0298                     	;# 
   557     0298                     	;# 
   558     0299                     	;# 
   559     029A                     	;# 
   560     029A                     	;# 
   561     029E                     	;# 
   562     030C                     	;# 
   563     030D                     	;# 
   564     030E                     	;# 
   565     038C                     	;# 
   566     038D                     	;# 
   567     038E                     	;# 
   568     0390                     	;# 
   569     0391                     	;# 
   570     0392                     	;# 
   571     0393                     	;# 
   572     0394                     	;# 
   573     0395                     	;# 
   574     0396                     	;# 
   575     0397                     	;# 
   576     0398                     	;# 
   577     0399                     	;# 
   578     039D                     	;# 
   579     039E                     	;# 
   580     039F                     	;# 
   581     0415                     	;# 
   582     0416                     	;# 
   583     0417                     	;# 
   584     041C                     	;# 
   585     041D                     	;# 
   586     041E                     	;# 
   587     0498                     	;# 
   588     0498                     	;# 
   589     0499                     	;# 
   590     049A                     	;# 
   591     049B                     	;# 
   592     049B                     	;# 
   593     049C                     	;# 
   594     049D                     	;# 
   595     049E                     	;# 
   596     049F                     	;# 
   597     0511                     	;# 
   598     0515                     	;# 
   599     0617                     	;# 
   600     0618                     	;# 
   601     0619                     	;# 
   602     0619                     	;# 
   603     061A                     	;# 
   604     061B                     	;# 
   605     061C                     	;# 
   606     061C                     	;# 
   607     0691                     	;# 
   608     0692                     	;# 
   609     0693                     	;# 
   610     0694                     	;# 
   611     0695                     	;# 
   612     0696                     	;# 
   613     0697                     	;# 
   614     0698                     	;# 
   615     0699                     	;# 
   616     069A                     	;# 
   617     069B                     	;# 
   618     069C                     	;# 
   619     069D                     	;# 
   620     069E                     	;# 
   621     069F                     	;# 
   622     0E0F                     	;# 
   623     0E10                     	;# 
   624     0E11                     	;# 
   625     0E12                     	;# 
   626     0E13                     	;# 
   627     0E14                     	;# 
   628     0E15                     	;# 
   629     0E17                     	;# 
   630     0E20                     	;# 
   631     0E21                     	;# 
   632     0E22                     	;# 
   633     0E24                     	;# 
   634     0E25                     	;# 
   635     0E28                     	;# 
   636     0E29                     	;# 
   637     0E2A                     	;# 
   638     0E2B                     	;# 
   639     0E90                     	;# 
   640     0E91                     	;# 
   641     0E92                     	;# 
   642     0E93                     	;# 
   643     0E94                     	;# 
   644     0E95                     	;# 
   645     0E96                     	;# 
   646     0E97                     	;# 
   647     0E98                     	;# 
   648     0E99                     	;# 
   649     0E9A                     	;# 
   650     0E9B                     	;# 
   651     0E9C                     	;# 
   652     0E9D                     	;# 
   653     0E9E                     	;# 
   654     0E9F                     	;# 
   655     0EA0                     	;# 
   656     0EA1                     	;# 
   657     0EA2                     	;# 
   658     0EA3                     	;# 
   659     0EA4                     	;# 
   660     0EA5                     	;# 
   661     0EA6                     	;# 
   662     0EA7                     	;# 
   663     0F0F                     	;# 
   664     0F10                     	;# 
   665     0F11                     	;# 
   666     0F12                     	;# 
   667     0F13                     	;# 
   668     0F14                     	;# 
   669     0F15                     	;# 
   670     0F16                     	;# 
   671     0F17                     	;# 
   672     0F18                     	;# 
   673     0F19                     	;# 
   674     0F1A                     	;# 
   675     0F1B                     	;# 
   676     0F1C                     	;# 
   677     0F1D                     	;# 
   678     0F1E                     	;# 
   679     0F1F                     	;# 
   680     0F20                     	;# 
   681     0F21                     	;# 
   682     0F22                     	;# 
   683     0F23                     	;# 
   684     0F24                     	;# 
   685     0F25                     	;# 
   686     0F26                     	;# 
   687     0F27                     	;# 
   688     0F28                     	;# 
   689     0F29                     	;# 
   690     0F2A                     	;# 
   691     0F2B                     	;# 
   692     0F2C                     	;# 
   693     0F2D                     	;# 
   694     0F2E                     	;# 
   695     0F2F                     	;# 
   696     0F30                     	;# 
   697     0F31                     	;# 
   698     0F32                     	;# 
   699     0F33                     	;# 
   700     0F34                     	;# 
   701     0F35                     	;# 
   702     0F36                     	;# 
   703     0F37                     	;# 
   704     0FE4                     	;# 
   705     0FE5                     	;# 
   706     0FE6                     	;# 
   707     0FE7                     	;# 
   708     0FE8                     	;# 
   709     0FE9                     	;# 
   710     0FEA                     	;# 
   711     0FEB                     	;# 
   712     0FED                     	;# 
   713     0FEE                     	;# 
   714     0FEF                     	;# 
   715     0000                     	;# 
   716     0001                     	;# 
   717     0002                     	;# 
   718     0003                     	;# 
   719     0004                     	;# 
   720     0005                     	;# 
   721     0006                     	;# 
   722     0007                     	;# 
   723     0008                     	;# 
   724     0009                     	;# 
   725     000A                     	;# 
   726     000B                     	;# 
   727     000C                     	;# 
   728     000D                     	;# 
   729     000E                     	;# 
   730     0010                     	;# 
   731     0011                     	;# 
   732     0012                     	;# 
   733     0013                     	;# 
   734     0015                     	;# 
   735     0016                     	;# 
   736     0016                     	;# 
   737     0017                     	;# 
   738     0018                     	;# 
   739     0019                     	;# 
   740     001A                     	;# 
   741     001B                     	;# 
   742     001C                     	;# 
   743     008C                     	;# 
   744     008D                     	;# 
   745     008E                     	;# 
   746     0090                     	;# 
   747     0091                     	;# 
   748     0092                     	;# 
   749     0093                     	;# 
   750     0095                     	;# 
   751     0096                     	;# 
   752     0097                     	;# 
   753     0098                     	;# 
   754     0099                     	;# 
   755     009A                     	;# 
   756     009B                     	;# 
   757     009B                     	;# 
   758     009C                     	;# 
   759     009D                     	;# 
   760     009E                     	;# 
   761     009F                     	;# 
   762     010C                     	;# 
   763     010D                     	;# 
   764     010E                     	;# 
   765     0111                     	;# 
   766     0112                     	;# 
   767     0113                     	;# 
   768     0114                     	;# 
   769     0115                     	;# 
   770     0116                     	;# 
   771     0117                     	;# 
   772     0118                     	;# 
   773     0119                     	;# 
   774     011A                     	;# 
   775     011B                     	;# 
   776     011B                     	;# 
   777     011C                     	;# 
   778     018C                     	;# 
   779     018D                     	;# 
   780     018E                     	;# 
   781     0191                     	;# 
   782     0191                     	;# 
   783     0192                     	;# 
   784     0193                     	;# 
   785     0193                     	;# 
   786     0194                     	;# 
   787     0195                     	;# 
   788     0196                     	;# 
   789     0197                     	;# 
   790     0199                     	;# 
   791     0199                     	;# 
   792     0199                     	;# 
   793     019A                     	;# 
   794     019A                     	;# 
   795     019A                     	;# 
   796     019B                     	;# 
   797     019B                     	;# 
   798     019B                     	;# 
   799     019B                     	;# 
   800     019B                     	;# 
   801     019C                     	;# 
   802     019C                     	;# 
   803     019C                     	;# 
   804     019D                     	;# 
   805     019D                     	;# 
   806     019D                     	;# 
   807     019E                     	;# 
   808     019E                     	;# 
   809     019E                     	;# 
   810     019F                     	;# 
   811     019F                     	;# 
   812     019F                     	;# 
   813     019F                     	;# 
   814     019F                     	;# 
   815     020C                     	;# 
   816     020D                     	;# 
   817     020E                     	;# 
   818     0210                     	;# 
   819     0211                     	;# 
   820     0211                     	;# 
   821     0212                     	;# 
   822     0212                     	;# 
   823     0213                     	;# 
   824     0213                     	;# 
   825     0214                     	;# 
   826     0214                     	;# 
   827     0215                     	;# 
   828     0215                     	;# 
   829     0215                     	;# 
   830     0215                     	;# 
   831     0216                     	;# 
   832     0216                     	;# 
   833     0217                     	;# 
   834     0217                     	;# 
   835     028C                     	;# 
   836     028D                     	;# 
   837     028E                     	;# 
   838     0291                     	;# 
   839     0291                     	;# 
   840     0292                     	;# 
   841     0293                     	;# 
   842     0293                     	;# 
   843     0298                     	;# 
   844     0298                     	;# 
   845     0299                     	;# 
   846     029A                     	;# 
   847     029A                     	;# 
   848     029E                     	;# 
   849     030C                     	;# 
   850     030D                     	;# 
   851     030E                     	;# 
   852     038C                     	;# 
   853     038D                     	;# 
   854     038E                     	;# 
   855     0390                     	;# 
   856     0391                     	;# 
   857     0392                     	;# 
   858     0393                     	;# 
   859     0394                     	;# 
   860     0395                     	;# 
   861     0396                     	;# 
   862     0397                     	;# 
   863     0398                     	;# 
   864     0399                     	;# 
   865     039D                     	;# 
   866     039E                     	;# 
   867     039F                     	;# 
   868     0415                     	;# 
   869     0416                     	;# 
   870     0417                     	;# 
   871     041C                     	;# 
   872     041D                     	;# 
   873     041E                     	;# 
   874     0498                     	;# 
   875     0498                     	;# 
   876     0499                     	;# 
   877     049A                     	;# 
   878     049B                     	;# 
   879     049B                     	;# 
   880     049C                     	;# 
   881     049D                     	;# 
   882     049E                     	;# 
   883     049F                     	;# 
   884     0511                     	;# 
   885     0515                     	;# 
   886     0617                     	;# 
   887     0618                     	;# 
   888     0619                     	;# 
   889     0619                     	;# 
   890     061A                     	;# 
   891     061B                     	;# 
   892     061C                     	;# 
   893     061C                     	;# 
   894     0691                     	;# 
   895     0692                     	;# 
   896     0693                     	;# 
   897     0694                     	;# 
   898     0695                     	;# 
   899     0696                     	;# 
   900     0697                     	;# 
   901     0698                     	;# 
   902     0699                     	;# 
   903     069A                     	;# 
   904     069B                     	;# 
   905     069C                     	;# 
   906     069D                     	;# 
   907     069E                     	;# 
   908     069F                     	;# 
   909     0E0F                     	;# 
   910     0E10                     	;# 
   911     0E11                     	;# 
   912     0E12                     	;# 
   913     0E13                     	;# 
   914     0E14                     	;# 
   915     0E15                     	;# 
   916     0E17                     	;# 
   917     0E20                     	;# 
   918     0E21                     	;# 
   919     0E22                     	;# 
   920     0E24                     	;# 
   921     0E25                     	;# 
   922     0E28                     	;# 
   923     0E29                     	;# 
   924     0E2A                     	;# 
   925     0E2B                     	;# 
   926     0E90                     	;# 
   927     0E91                     	;# 
   928     0E92                     	;# 
   929     0E93                     	;# 
   930     0E94                     	;# 
   931     0E95                     	;# 
   932     0E96                     	;# 
   933     0E97                     	;# 
   934     0E98                     	;# 
   935     0E99                     	;# 
   936     0E9A                     	;# 
   937     0E9B                     	;# 
   938     0E9C                     	;# 
   939     0E9D                     	;# 
   940     0E9E                     	;# 
   941     0E9F                     	;# 
   942     0EA0                     	;# 
   943     0EA1                     	;# 
   944     0EA2                     	;# 
   945     0EA3                     	;# 
   946     0EA4                     	;# 
   947     0EA5                     	;# 
   948     0EA6                     	;# 
   949     0EA7                     	;# 
   950     0F0F                     	;# 
   951     0F10                     	;# 
   952     0F11                     	;# 
   953     0F12                     	;# 
   954     0F13                     	;# 
   955     0F14                     	;# 
   956     0F15                     	;# 
   957     0F16                     	;# 
   958     0F17                     	;# 
   959     0F18                     	;# 
   960     0F19                     	;# 
   961     0F1A                     	;# 
   962     0F1B                     	;# 
   963     0F1C                     	;# 
   964     0F1D                     	;# 
   965     0F1E                     	;# 
   966     0F1F                     	;# 
   967     0F20                     	;# 
   968     0F21                     	;# 
   969     0F22                     	;# 
   970     0F23                     	;# 
   971     0F24                     	;# 
   972     0F25                     	;# 
   973     0F26                     	;# 
   974     0F27                     	;# 
   975     0F28                     	;# 
   976     0F29                     	;# 
   977     0F2A                     	;# 
   978     0F2B                     	;# 
   979     0F2C                     	;# 
   980     0F2D                     	;# 
   981     0F2E                     	;# 
   982     0F2F                     	;# 
   983     0F30                     	;# 
   984     0F31                     	;# 
   985     0F32                     	;# 
   986     0F33                     	;# 
   987     0F34                     	;# 
   988     0F35                     	;# 
   989     0F36                     	;# 
   990     0F37                     	;# 
   991     0FE4                     	;# 
   992     0FE5                     	;# 
   993     0FE6                     	;# 
   994     0FE7                     	;# 
   995     0FE8                     	;# 
   996     0FE9                     	;# 
   997     0FEA                     	;# 
   998     0FEB                     	;# 
   999     0FED                     	;# 
  1000     0FEE                     	;# 
  1001     0FEF                     	;# 
  1002     0000                     	;# 
  1003     0001                     	;# 
  1004     0002                     	;# 
  1005     0003                     	;# 
  1006     0004                     	;# 
  1007     0005                     	;# 
  1008     0006                     	;# 
  1009     0007                     	;# 
  1010     0008                     	;# 
  1011     0009                     	;# 
  1012     000A                     	;# 
  1013     000B                     	;# 
  1014     000C                     	;# 
  1015     000D                     	;# 
  1016     000E                     	;# 
  1017     0010                     	;# 
  1018     0011                     	;# 
  1019     0012                     	;# 
  1020     0013                     	;# 
  1021     0015                     	;# 
  1022     0016                     	;# 
  1023     0016                     	;# 
  1024     0017                     	;# 
  1025     0018                     	;# 
  1026     0019                     	;# 
  1027     001A                     	;# 
  1028     001B                     	;# 
  1029     001C                     	;# 
  1030     008C                     	;# 
  1031     008D                     	;# 
  1032     008E                     	;# 
  1033     0090                     	;# 
  1034     0091                     	;# 
  1035     0092                     	;# 
  1036     0093                     	;# 
  1037     0095                     	;# 
  1038     0096                     	;# 
  1039     0097                     	;# 
  1040     0098                     	;# 
  1041     0099                     	;# 
  1042     009A                     	;# 
  1043     009B                     	;# 
  1044     009B                     	;# 
  1045     009C                     	;# 
  1046     009D                     	;# 
  1047     009E                     	;# 
  1048     009F                     	;# 
  1049     010C                     	;# 
  1050     010D                     	;# 
  1051     010E                     	;# 
  1052     0111                     	;# 
  1053     0112                     	;# 
  1054     0113                     	;# 
  1055     0114                     	;# 
  1056     0115                     	;# 
  1057     0116                     	;# 
  1058     0117                     	;# 
  1059     0118                     	;# 
  1060     0119                     	;# 
  1061     011A                     	;# 
  1062     011B                     	;# 
  1063     011B                     	;# 
  1064     011C                     	;# 
  1065     018C                     	;# 
  1066     018D                     	;# 
  1067     018E                     	;# 
  1068     0191                     	;# 
  1069     0191                     	;# 
  1070     0192                     	;# 
  1071     0193                     	;# 
  1072     0193                     	;# 
  1073     0194                     	;# 
  1074     0195                     	;# 
  1075     0196                     	;# 
  1076     0197                     	;# 
  1077     0199                     	;# 
  1078     0199                     	;# 
  1079     0199                     	;# 
  1080     019A                     	;# 
  1081     019A                     	;# 
  1082     019A                     	;# 
  1083     019B                     	;# 
  1084     019B                     	;# 
  1085     019B                     	;# 
  1086     019B                     	;# 
  1087     019B                     	;# 
  1088     019C                     	;# 
  1089     019C                     	;# 
  1090     019C                     	;# 
  1091     019D                     	;# 
  1092     019D                     	;# 
  1093     019D                     	;# 
  1094     019E                     	;# 
  1095     019E                     	;# 
  1096     019E                     	;# 
  1097     019F                     	;# 
  1098     019F                     	;# 
  1099     019F                     	;# 
  1100     019F                     	;# 
  1101     019F                     	;# 
  1102     020C                     	;# 
  1103     020D                     	;# 
  1104     020E                     	;# 
  1105     0210                     	;# 
  1106     0211                     	;# 
  1107     0211                     	;# 
  1108     0212                     	;# 
  1109     0212                     	;# 
  1110     0213                     	;# 
  1111     0213                     	;# 
  1112     0214                     	;# 
  1113     0214                     	;# 
  1114     0215                     	;# 
  1115     0215                     	;# 
  1116     0215                     	;# 
  1117     0215                     	;# 
  1118     0216                     	;# 
  1119     0216                     	;# 
  1120     0217                     	;# 
  1121     0217                     	;# 
  1122     028C                     	;# 
  1123     028D                     	;# 
  1124     028E                     	;# 
  1125     0291                     	;# 
  1126     0291                     	;# 
  1127     0292                     	;# 
  1128     0293                     	;# 
  1129     0293                     	;# 
  1130     0298                     	;# 
  1131     0298                     	;# 
  1132     0299                     	;# 
  1133     029A                     	;# 
  1134     029A                     	;# 
  1135     029E                     	;# 
  1136     030C                     	;# 
  1137     030D                     	;# 
  1138     030E                     	;# 
  1139     038C                     	;# 
  1140     038D                     	;# 
  1141     038E                     	;# 
  1142     0390                     	;# 
  1143     0391                     	;# 
  1144     0392                     	;# 
  1145     0393                     	;# 
  1146     0394                     	;# 
  1147     0395                     	;# 
  1148     0396                     	;# 
  1149     0397                     	;# 
  1150     0398                     	;# 
  1151     0399                     	;# 
  1152     039D                     	;# 
  1153     039E                     	;# 
  1154     039F                     	;# 
  1155     0415                     	;# 
  1156     0416                     	;# 
  1157     0417                     	;# 
  1158     041C                     	;# 
  1159     041D                     	;# 
  1160     041E                     	;# 
  1161     0498                     	;# 
  1162     0498                     	;# 
  1163     0499                     	;# 
  1164     049A                     	;# 
  1165     049B                     	;# 
  1166     049B                     	;# 
  1167     049C                     	;# 
  1168     049D                     	;# 
  1169     049E                     	;# 
  1170     049F                     	;# 
  1171     0511                     	;# 
  1172     0515                     	;# 
  1173     0617                     	;# 
  1174     0618                     	;# 
  1175     0619                     	;# 
  1176     0619                     	;# 
  1177     061A                     	;# 
  1178     061B                     	;# 
  1179     061C                     	;# 
  1180     061C                     	;# 
  1181     0691                     	;# 
  1182     0692                     	;# 
  1183     0693                     	;# 
  1184     0694                     	;# 
  1185     0695                     	;# 
  1186     0696                     	;# 
  1187     0697                     	;# 
  1188     0698                     	;# 
  1189     0699                     	;# 
  1190     069A                     	;# 
  1191     069B                     	;# 
  1192     069C                     	;# 
  1193     069D                     	;# 
  1194     069E                     	;# 
  1195     069F                     	;# 
  1196     0E0F                     	;# 
  1197     0E10                     	;# 
  1198     0E11                     	;# 
  1199     0E12                     	;# 
  1200     0E13                     	;# 
  1201     0E14                     	;# 
  1202     0E15                     	;# 
  1203     0E17                     	;# 
  1204     0E20                     	;# 
  1205     0E21                     	;# 
  1206     0E22                     	;# 
  1207     0E24                     	;# 
  1208     0E25                     	;# 
  1209     0E28                     	;# 
  1210     0E29                     	;# 
  1211     0E2A                     	;# 
  1212     0E2B                     	;# 
  1213     0E90                     	;# 
  1214     0E91                     	;# 
  1215     0E92                     	;# 
  1216     0E93                     	;# 
  1217     0E94                     	;# 
  1218     0E95                     	;# 
  1219     0E96                     	;# 
  1220     0E97                     	;# 
  1221     0E98                     	;# 
  1222     0E99                     	;# 
  1223     0E9A                     	;# 
  1224     0E9B                     	;# 
  1225     0E9C                     	;# 
  1226     0E9D                     	;# 
  1227     0E9E                     	;# 
  1228     0E9F                     	;# 
  1229     0EA0                     	;# 
  1230     0EA1                     	;# 
  1231     0EA2                     	;# 
  1232     0EA3                     	;# 
  1233     0EA4                     	;# 
  1234     0EA5                     	;# 
  1235     0EA6                     	;# 
  1236     0EA7                     	;# 
  1237     0F0F                     	;# 
  1238     0F10                     	;# 
  1239     0F11                     	;# 
  1240     0F12                     	;# 
  1241     0F13                     	;# 
  1242     0F14                     	;# 
  1243     0F15                     	;# 
  1244     0F16                     	;# 
  1245     0F17                     	;# 
  1246     0F18                     	;# 
  1247     0F19                     	;# 
  1248     0F1A                     	;# 
  1249     0F1B                     	;# 
  1250     0F1C                     	;# 
  1251     0F1D                     	;# 
  1252     0F1E                     	;# 
  1253     0F1F                     	;# 
  1254     0F20                     	;# 
  1255     0F21                     	;# 
  1256     0F22                     	;# 
  1257     0F23                     	;# 
  1258     0F24                     	;# 
  1259     0F25                     	;# 
  1260     0F26                     	;# 
  1261     0F27                     	;# 
  1262     0F28                     	;# 
  1263     0F29                     	;# 
  1264     0F2A                     	;# 
  1265     0F2B                     	;# 
  1266     0F2C                     	;# 
  1267     0F2D                     	;# 
  1268     0F2E                     	;# 
  1269     0F2F                     	;# 
  1270     0F30                     	;# 
  1271     0F31                     	;# 
  1272     0F32                     	;# 
  1273     0F33                     	;# 
  1274     0F34                     	;# 
  1275     0F35                     	;# 
  1276     0F36                     	;# 
  1277     0F37                     	;# 
  1278     0FE4                     	;# 
  1279     0FE5                     	;# 
  1280     0FE6                     	;# 
  1281     0FE7                     	;# 
  1282     0FE8                     	;# 
  1283     0FE9                     	;# 
  1284     0FEA                     	;# 
  1285     0FEB                     	;# 
  1286     0FED                     	;# 
  1287     0FEE                     	;# 
  1288     0FEF                     	;# 
  1289     0000                     	;# 
  1290     0001                     	;# 
  1291     0002                     	;# 
  1292     0003                     	;# 
  1293     0004                     	;# 
  1294     0005                     	;# 
  1295     0006                     	;# 
  1296     0007                     	;# 
  1297     0008                     	;# 
  1298     0009                     	;# 
  1299     000A                     	;# 
  1300     000B                     	;# 
  1301     000C                     	;# 
  1302     000D                     	;# 
  1303     000E                     	;# 
  1304     0010                     	;# 
  1305     0011                     	;# 
  1306     0012                     	;# 
  1307     0013                     	;# 
  1308     0015                     	;# 
  1309     0016                     	;# 
  1310     0016                     	;# 
  1311     0017                     	;# 
  1312     0018                     	;# 
  1313     0019                     	;# 
  1314     001A                     	;# 
  1315     001B                     	;# 
  1316     001C                     	;# 
  1317     008C                     	;# 
  1318     008D                     	;# 
  1319     008E                     	;# 
  1320     0090                     	;# 
  1321     0091                     	;# 
  1322     0092                     	;# 
  1323     0093                     	;# 
  1324     0095                     	;# 
  1325     0096                     	;# 
  1326     0097                     	;# 
  1327     0098                     	;# 
  1328     0099                     	;# 
  1329     009A                     	;# 
  1330     009B                     	;# 
  1331     009B                     	;# 
  1332     009C                     	;# 
  1333     009D                     	;# 
  1334     009E                     	;# 
  1335     009F                     	;# 
  1336     010C                     	;# 
  1337     010D                     	;# 
  1338     010E                     	;# 
  1339     0111                     	;# 
  1340     0112                     	;# 
  1341     0113                     	;# 
  1342     0114                     	;# 
  1343     0115                     	;# 
  1344     0116                     	;# 
  1345     0117                     	;# 
  1346     0118                     	;# 
  1347     0119                     	;# 
  1348     011A                     	;# 
  1349     011B                     	;# 
  1350     011B                     	;# 
  1351     011C                     	;# 
  1352     018C                     	;# 
  1353     018D                     	;# 
  1354     018E                     	;# 
  1355     0191                     	;# 
  1356     0191                     	;# 
  1357     0192                     	;# 
  1358     0193                     	;# 
  1359     0193                     	;# 
  1360     0194                     	;# 
  1361     0195                     	;# 
  1362     0196                     	;# 
  1363     0197                     	;# 
  1364     0199                     	;# 
  1365     0199                     	;# 
  1366     0199                     	;# 
  1367     019A                     	;# 
  1368     019A                     	;# 
  1369     019A                     	;# 
  1370     019B                     	;# 
  1371     019B                     	;# 
  1372     019B                     	;# 
  1373     019B                     	;# 
  1374     019B                     	;# 
  1375     019C                     	;# 
  1376     019C                     	;# 
  1377     019C                     	;# 
  1378     019D                     	;# 
  1379     019D                     	;# 
  1380     019D                     	;# 
  1381     019E                     	;# 
  1382     019E                     	;# 
  1383     019E                     	;# 
  1384     019F                     	;# 
  1385     019F                     	;# 
  1386     019F                     	;# 
  1387     019F                     	;# 
  1388     019F                     	;# 
  1389     020C                     	;# 
  1390     020D                     	;# 
  1391     020E                     	;# 
  1392     0210                     	;# 
  1393     0211                     	;# 
  1394     0211                     	;# 
  1395     0212                     	;# 
  1396     0212                     	;# 
  1397     0213                     	;# 
  1398     0213                     	;# 
  1399     0214                     	;# 
  1400     0214                     	;# 
  1401     0215                     	;# 
  1402     0215                     	;# 
  1403     0215                     	;# 
  1404     0215                     	;# 
  1405     0216                     	;# 
  1406     0216                     	;# 
  1407     0217                     	;# 
  1408     0217                     	;# 
  1409     028C                     	;# 
  1410     028D                     	;# 
  1411     028E                     	;# 
  1412     0291                     	;# 
  1413     0291                     	;# 
  1414     0292                     	;# 
  1415     0293                     	;# 
  1416     0293                     	;# 
  1417     0298                     	;# 
  1418     0298                     	;# 
  1419     0299                     	;# 
  1420     029A                     	;# 
  1421     029A                     	;# 
  1422     029E                     	;# 
  1423     030C                     	;# 
  1424     030D                     	;# 
  1425     030E                     	;# 
  1426     038C                     	;# 
  1427     038D                     	;# 
  1428     038E                     	;# 
  1429     0390                     	;# 
  1430     0391                     	;# 
  1431     0392                     	;# 
  1432     0393                     	;# 
  1433     0394                     	;# 
  1434     0395                     	;# 
  1435     0396                     	;# 
  1436     0397                     	;# 
  1437     0398                     	;# 
  1438     0399                     	;# 
  1439     039D                     	;# 
  1440     039E                     	;# 
  1441     039F                     	;# 
  1442     0415                     	;# 
  1443     0416                     	;# 
  1444     0417                     	;# 
  1445     041C                     	;# 
  1446     041D                     	;# 
  1447     041E                     	;# 
  1448     0498                     	;# 
  1449     0498                     	;# 
  1450     0499                     	;# 
  1451     049A                     	;# 
  1452     049B                     	;# 
  1453     049B                     	;# 
  1454     049C                     	;# 
  1455     049D                     	;# 
  1456     049E                     	;# 
  1457     049F                     	;# 
  1458     0511                     	;# 
  1459     0515                     	;# 
  1460     0617                     	;# 
  1461     0618                     	;# 
  1462     0619                     	;# 
  1463     0619                     	;# 
  1464     061A                     	;# 
  1465     061B                     	;# 
  1466     061C                     	;# 
  1467     061C                     	;# 
  1468     0691                     	;# 
  1469     0692                     	;# 
  1470     0693                     	;# 
  1471     0694                     	;# 
  1472     0695                     	;# 
  1473     0696                     	;# 
  1474     0697                     	;# 
  1475     0698                     	;# 
  1476     0699                     	;# 
  1477     069A                     	;# 
  1478     069B                     	;# 
  1479     069C                     	;# 
  1480     069D                     	;# 
  1481     069E                     	;# 
  1482     069F                     	;# 
  1483     0E0F                     	;# 
  1484     0E10                     	;# 
  1485     0E11                     	;# 
  1486     0E12                     	;# 
  1487     0E13                     	;# 
  1488     0E14                     	;# 
  1489     0E15                     	;# 
  1490     0E17                     	;# 
  1491     0E20                     	;# 
  1492     0E21                     	;# 
  1493     0E22                     	;# 
  1494     0E24                     	;# 
  1495     0E25                     	;# 
  1496     0E28                     	;# 
  1497     0E29                     	;# 
  1498     0E2A                     	;# 
  1499     0E2B                     	;# 
  1500     0E90                     	;# 
  1501     0E91                     	;# 
  1502     0E92                     	;# 
  1503     0E93                     	;# 
  1504     0E94                     	;# 
  1505     0E95                     	;# 
  1506     0E96                     	;# 
  1507     0E97                     	;# 
  1508     0E98                     	;# 
  1509     0E99                     	;# 
  1510     0E9A                     	;# 
  1511     0E9B                     	;# 
  1512     0E9C                     	;# 
  1513     0E9D                     	;# 
  1514     0E9E                     	;# 
  1515     0E9F                     	;# 
  1516     0EA0                     	;# 
  1517     0EA1                     	;# 
  1518     0EA2                     	;# 
  1519     0EA3                     	;# 
  1520     0EA4                     	;# 
  1521     0EA5                     	;# 
  1522     0EA6                     	;# 
  1523     0EA7                     	;# 
  1524     0F0F                     	;# 
  1525     0F10                     	;# 
  1526     0F11                     	;# 
  1527     0F12                     	;# 
  1528     0F13                     	;# 
  1529     0F14                     	;# 
  1530     0F15                     	;# 
  1531     0F16                     	;# 
  1532     0F17                     	;# 
  1533     0F18                     	;# 
  1534     0F19                     	;# 
  1535     0F1A                     	;# 
  1536     0F1B                     	;# 
  1537     0F1C                     	;# 
  1538     0F1D                     	;# 
  1539     0F1E                     	;# 
  1540     0F1F                     	;# 
  1541     0F20                     	;# 
  1542     0F21                     	;# 
  1543     0F22                     	;# 
  1544     0F23                     	;# 
  1545     0F24                     	;# 
  1546     0F25                     	;# 
  1547     0F26                     	;# 
  1548     0F27                     	;# 
  1549     0F28                     	;# 
  1550     0F29                     	;# 
  1551     0F2A                     	;# 
  1552     0F2B                     	;# 
  1553     0F2C                     	;# 
  1554     0F2D                     	;# 
  1555     0F2E                     	;# 
  1556     0F2F                     	;# 
  1557     0F30                     	;# 
  1558     0F31                     	;# 
  1559     0F32                     	;# 
  1560     0F33                     	;# 
  1561     0F34                     	;# 
  1562     0F35                     	;# 
  1563     0F36                     	;# 
  1564     0F37                     	;# 
  1565     0FE4                     	;# 
  1566     0FE5                     	;# 
  1567     0FE6                     	;# 
  1568     0FE7                     	;# 
  1569     0FE8                     	;# 
  1570     0FE9                     	;# 
  1571     0FEA                     	;# 
  1572     0FEB                     	;# 
  1573     0FED                     	;# 
  1574     0FEE                     	;# 
  1575     0FEF                     	;# 
  1576     0000                     	;# 
  1577     0001                     	;# 
  1578     0002                     	;# 
  1579     0003                     	;# 
  1580     0004                     	;# 
  1581     0005                     	;# 
  1582     0006                     	;# 
  1583     0007                     	;# 
  1584     0008                     	;# 
  1585     0009                     	;# 
  1586     000A                     	;# 
  1587     000B                     	;# 
  1588     000C                     	;# 
  1589     000D                     	;# 
  1590     000E                     	;# 
  1591     0010                     	;# 
  1592     0011                     	;# 
  1593     0012                     	;# 
  1594     0013                     	;# 
  1595     0015                     	;# 
  1596     0016                     	;# 
  1597     0016                     	;# 
  1598     0017                     	;# 
  1599     0018                     	;# 
  1600     0019                     	;# 
  1601     001A                     	;# 
  1602     001B                     	;# 
  1603     001C                     	;# 
  1604     008C                     	;# 
  1605     008D                     	;# 
  1606     008E                     	;# 
  1607     0090                     	;# 
  1608     0091                     	;# 
  1609     0092                     	;# 
  1610     0093                     	;# 
  1611     0095                     	;# 
  1612     0096                     	;# 
  1613     0097                     	;# 
  1614     0098                     	;# 
  1615     0099                     	;# 
  1616     009A                     	;# 
  1617     009B                     	;# 
  1618     009B                     	;# 
  1619     009C                     	;# 
  1620     009D                     	;# 
  1621     009E                     	;# 
  1622     009F                     	;# 
  1623     010C                     	;# 
  1624     010D                     	;# 
  1625     010E                     	;# 
  1626     0111                     	;# 
  1627     0112                     	;# 
  1628     0113                     	;# 
  1629     0114                     	;# 
  1630     0115                     	;# 
  1631     0116                     	;# 
  1632     0117                     	;# 
  1633     0118                     	;# 
  1634     0119                     	;# 
  1635     011A                     	;# 
  1636     011B                     	;# 
  1637     011B                     	;# 
  1638     011C                     	;# 
  1639     018C                     	;# 
  1640     018D                     	;# 
  1641     018E                     	;# 
  1642     0191                     	;# 
  1643     0191                     	;# 
  1644     0192                     	;# 
  1645     0193                     	;# 
  1646     0193                     	;# 
  1647     0194                     	;# 
  1648     0195                     	;# 
  1649     0196                     	;# 
  1650     0197                     	;# 
  1651     0199                     	;# 
  1652     0199                     	;# 
  1653     0199                     	;# 
  1654     019A                     	;# 
  1655     019A                     	;# 
  1656     019A                     	;# 
  1657     019B                     	;# 
  1658     019B                     	;# 
  1659     019B                     	;# 
  1660     019B                     	;# 
  1661     019B                     	;# 
  1662     019C                     	;# 
  1663     019C                     	;# 
  1664     019C                     	;# 
  1665     019D                     	;# 
  1666     019D                     	;# 
  1667     019D                     	;# 
  1668     019E                     	;# 
  1669     019E                     	;# 
  1670     019E                     	;# 
  1671     019F                     	;# 
  1672     019F                     	;# 
  1673     019F                     	;# 
  1674     019F                     	;# 
  1675     019F                     	;# 
  1676     020C                     	;# 
  1677     020D                     	;# 
  1678     020E                     	;# 
  1679     0210                     	;# 
  1680     0211                     	;# 
  1681     0211                     	;# 
  1682     0212                     	;# 
  1683     0212                     	;# 
  1684     0213                     	;# 
  1685     0213                     	;# 
  1686     0214                     	;# 
  1687     0214                     	;# 
  1688     0215                     	;# 
  1689     0215                     	;# 
  1690     0215                     	;# 
  1691     0215                     	;# 
  1692     0216                     	;# 
  1693     0216                     	;# 
  1694     0217                     	;# 
  1695     0217                     	;# 
  1696     028C                     	;# 
  1697     028D                     	;# 
  1698     028E                     	;# 
  1699     0291                     	;# 
  1700     0291                     	;# 
  1701     0292                     	;# 
  1702     0293                     	;# 
  1703     0293                     	;# 
  1704     0298                     	;# 
  1705     0298                     	;# 
  1706     0299                     	;# 
  1707     029A                     	;# 
  1708     029A                     	;# 
  1709     029E                     	;# 
  1710     030C                     	;# 
  1711     030D                     	;# 
  1712     030E                     	;# 
  1713     038C                     	;# 
  1714     038D                     	;# 
  1715     038E                     	;# 
  1716     0390                     	;# 
  1717     0391                     	;# 
  1718     0392                     	;# 
  1719     0393                     	;# 
  1720     0394                     	;# 
  1721     0395                     	;# 
  1722     0396                     	;# 
  1723     0397                     	;# 
  1724     0398                     	;# 
  1725     0399                     	;# 
  1726     039D                     	;# 
  1727     039E                     	;# 
  1728     039F                     	;# 
  1729     0415                     	;# 
  1730     0416                     	;# 
  1731     0417                     	;# 
  1732     041C                     	;# 
  1733     041D                     	;# 
  1734     041E                     	;# 
  1735     0498                     	;# 
  1736     0498                     	;# 
  1737     0499                     	;# 
  1738     049A                     	;# 
  1739     049B                     	;# 
  1740     049B                     	;# 
  1741     049C                     	;# 
  1742     049D                     	;# 
  1743     049E                     	;# 
  1744     049F                     	;# 
  1745     0511                     	;# 
  1746     0515                     	;# 
  1747     0617                     	;# 
  1748     0618                     	;# 
  1749     0619                     	;# 
  1750     0619                     	;# 
  1751     061A                     	;# 
  1752     061B                     	;# 
  1753     061C                     	;# 
  1754     061C                     	;# 
  1755     0691                     	;# 
  1756     0692                     	;# 
  1757     0693                     	;# 
  1758     0694                     	;# 
  1759     0695                     	;# 
  1760     0696                     	;# 
  1761     0697                     	;# 
  1762     0698                     	;# 
  1763     0699                     	;# 
  1764     069A                     	;# 
  1765     069B                     	;# 
  1766     069C                     	;# 
  1767     069D                     	;# 
  1768     069E                     	;# 
  1769     069F                     	;# 
  1770     0E0F                     	;# 
  1771     0E10                     	;# 
  1772     0E11                     	;# 
  1773     0E12                     	;# 
  1774     0E13                     	;# 
  1775     0E14                     	;# 
  1776     0E15                     	;# 
  1777     0E17                     	;# 
  1778     0E20                     	;# 
  1779     0E21                     	;# 
  1780     0E22                     	;# 
  1781     0E24                     	;# 
  1782     0E25                     	;# 
  1783     0E28                     	;# 
  1784     0E29                     	;# 
  1785     0E2A                     	;# 
  1786     0E2B                     	;# 
  1787     0E90                     	;# 
  1788     0E91                     	;# 
  1789     0E92                     	;# 
  1790     0E93                     	;# 
  1791     0E94                     	;# 
  1792     0E95                     	;# 
  1793     0E96                     	;# 
  1794     0E97                     	;# 
  1795     0E98                     	;# 
  1796     0E99                     	;# 
  1797     0E9A                     	;# 
  1798     0E9B                     	;# 
  1799     0E9C                     	;# 
  1800     0E9D                     	;# 
  1801     0E9E                     	;# 
  1802     0E9F                     	;# 
  1803     0EA0                     	;# 
  1804     0EA1                     	;# 
  1805     0EA2                     	;# 
  1806     0EA3                     	;# 
  1807     0EA4                     	;# 
  1808     0EA5                     	;# 
  1809     0EA6                     	;# 
  1810     0EA7                     	;# 
  1811     0F0F                     	;# 
  1812     0F10                     	;# 
  1813     0F11                     	;# 
  1814     0F12                     	;# 
  1815     0F13                     	;# 
  1816     0F14                     	;# 
  1817     0F15                     	;# 
  1818     0F16                     	;# 
  1819     0F17                     	;# 
  1820     0F18                     	;# 
  1821     0F19                     	;# 
  1822     0F1A                     	;# 
  1823     0F1B                     	;# 
  1824     0F1C                     	;# 
  1825     0F1D                     	;# 
  1826     0F1E                     	;# 
  1827     0F1F                     	;# 
  1828     0F20                     	;# 
  1829     0F21                     	;# 
  1830     0F22                     	;# 
  1831     0F23                     	;# 
  1832     0F24                     	;# 
  1833     0F25                     	;# 
  1834     0F26                     	;# 
  1835     0F27                     	;# 
  1836     0F28                     	;# 
  1837     0F29                     	;# 
  1838     0F2A                     	;# 
  1839     0F2B                     	;# 
  1840     0F2C                     	;# 
  1841     0F2D                     	;# 
  1842     0F2E                     	;# 
  1843     0F2F                     	;# 
  1844     0F30                     	;# 
  1845     0F31                     	;# 
  1846     0F32                     	;# 
  1847     0F33                     	;# 
  1848     0F34                     	;# 
  1849     0F35                     	;# 
  1850     0F36                     	;# 
  1851     0F37                     	;# 
  1852     0FE4                     	;# 
  1853     0FE5                     	;# 
  1854     0FE6                     	;# 
  1855     0FE7                     	;# 
  1856     0FE8                     	;# 
  1857     0FE9                     	;# 
  1858     0FEA                     	;# 
  1859     0FEB                     	;# 
  1860     0FED                     	;# 
  1861     0FEE                     	;# 
  1862     0FEF                     	;_SDWdata
  1863                           
  1864                           	psect	stringtext1
  1865     1000                     __pstringtext1:
  1866     1000                     dbg_hex32@hex:
  1867     1000  3430               	retlw	48
  1868     1001  3431               	retlw	49
  1869     1002  3432               	retlw	50
  1870     1003  3433               	retlw	51
  1871     1004  3434               	retlw	52
  1872     1005  3435               	retlw	53
  1873     1006  3436               	retlw	54
  1874     1007  3437               	retlw	55
  1875     1008  3438               	retlw	56
  1876     1009  3439               	retlw	57
  1877     100A  3441               	retlw	65
  1878     100B  3442               	retlw	66
  1879     100C  3443               	retlw	67
  1880     100D  3444               	retlw	68
  1881     100E  3445               	retlw	69
  1882     100F  3446               	retlw	70
  1883     1010  3400               	retlw	0
  1884     1011                     __end_ofdbg_hex32@hex:
  1885     0011                     _PIR1bits	set	17
  1886     008D                     _TRISBbits	set	141
  1887     008E                     _TRISCbits	set	142
  1888     04CF                     _SPLLEN	set	1231
  1889     04CE                     _IRCF3	set	1230
  1890     04CD                     _IRCF2	set	1229
  1891     04CC                     _IRCF1	set	1228
  1892     04CB                     _IRCF0	set	1227
  1893     04C9                     _SCS1	set	1225
  1894     04C8                     _SCS0	set	1224
  1895     010E                     _LATCbits	set	270
  1896     018E                     _ANSELCbits	set	398
  1897     018D                     _ANSELBbits	set	397
  1898     019A                     _TX1REG	set	410
  1899     0199                     _RC1REG	set	409
  1900     019D                     _RC1STAbits	set	413
  1901     019B                     _SPBRGL	set	411
  1902     0CF5                     _TXEN	set	3317
  1903     0CEC                     _CREN	set	3308
  1904     0CEF                     _SPEN	set	3311
  1905     0CF4                     _SYNC	set	3316
  1906     0CFB                     _BRG16	set	3323
  1907     0CF2                     _BRGH	set	3314
  1908     0214                     _SSP1STATbits	set	532
  1909     0211                     _SSPBUF	set	529
  1910     0215                     _SSP1CON1bits	set	533
  1911     0212                     _SSP1ADD	set	530
  1912     0215                     _SSP1CON1	set	533
  1913     0214                     _SSP1STAT	set	532
  1914     0E21                     _SSPDATPPSbits	set	3617
  1915     0E24                     _RXPPSbits	set	3620
  1916     0E0F                     _PPSLOCKbits	set	3599
  1917     0E0F                     _PPSLOCK	set	3599
  1918     0EA5                     _RC5PPSbits	set	3749
  1919     0EA3                     _RC3PPSbits	set	3747
  1920     0E9A                     _RB2PPSbits	set	3738
  1921     1011                     STR_7:
  1922     1011  3453               	retlw	83	;'S'
  1923     1012  3465               	retlw	101	;'e'
  1924     1013  3461               	retlw	97	;'a'
  1925     1014  3472               	retlw	114	;'r'
  1926     1015  3463               	retlw	99	;'c'
  1927     1016  3468               	retlw	104	;'h'
  1928     1017  3469               	retlw	105	;'i'
  1929     1018  346E               	retlw	110	;'n'
  1930     1019  3467               	retlw	103	;'g'
  1931     101A  3420               	retlw	32	;' '
  1932     101B  3466               	retlw	102	;'f'
  1933     101C  3469               	retlw	105	;'i'
  1934     101D  3472               	retlw	114	;'r'
  1935     101E  3473               	retlw	115	;'s'
  1936     101F  3474               	retlw	116	;'t'
  1937     1020  3420               	retlw	32	;' '
  1938     1021  3475               	retlw	117	;'u'
  1939     1022  346E               	retlw	110	;'n'
  1940     1023  3461               	retlw	97	;'a'
  1941     1024  346C               	retlw	108	;'l'
  1942     1025  346C               	retlw	108	;'l'
  1943     1026  346F               	retlw	111	;'o'
  1944     1027  3463               	retlw	99	;'c'
  1945     1028  3461               	retlw	97	;'a'
  1946     1029  3474               	retlw	116	;'t'
  1947     102A  3465               	retlw	101	;'e'
  1948     102B  3464               	retlw	100	;'d'
  1949     102C  3420               	retlw	32	;' '
  1950     102D  3472               	retlw	114	;'r'
  1951     102E  346F               	retlw	111	;'o'
  1952     102F  346F               	retlw	111	;'o'
  1953     1030  3474               	retlw	116	;'t'
  1954     1031  3420               	retlw	32	;' '
  1955     1032  3474               	retlw	116	;'t'
  1956     1033  3461               	retlw	97	;'a'
  1957     1034  3462               	retlw	98	;'b'
  1958     1035  346C               	retlw	108	;'l'
  1959     1036  3465               	retlw	101	;'e'
  1960     1037  3420               	retlw	32	;' '
  1961     1038  3465               	retlw	101	;'e'
  1962     1039  346E               	retlw	110	;'n'
  1963     103A  3474               	retlw	116	;'t'
  1964     103B  3472               	retlw	114	;'r'
  1965     103C  3479               	retlw	121	;'y'
  1966     103D  342E               	retlw	46	;'.'
  1967     103E  342E               	retlw	46	;'.'
  1968     103F  342E               	retlw	46	;'.'
  1969     1040  3400               	retlw	0
  1970                           
  1971                           	psect	stringtext2
  1972     1041                     __pstringtext2:
  1973     1041                     STR_26:
  1974     1041  3443               	retlw	67	;'C'
  1975     1042  344D               	retlw	77	;'M'
  1976     1043  3444               	retlw	68	;'D'
  1977     1044  3438               	retlw	56	;'8'
  1978     1045  3420               	retlw	32	;' '
  1979     1046  346E               	retlw	110	;'n'
  1980     1047  346F               	retlw	111	;'o'
  1981     1048  3474               	retlw	116	;'t'
  1982     1049  3420               	retlw	32	;' '
  1983     104A  3473               	retlw	115	;'s'
  1984     104B  3475               	retlw	117	;'u'
  1985     104C  3470               	retlw	112	;'p'
  1986     104D  3470               	retlw	112	;'p'
  1987     104E  346F               	retlw	111	;'o'
  1988     104F  3472               	retlw	114	;'r'
  1989     1050  3474               	retlw	116	;'t'
  1990     1051  3465               	retlw	101	;'e'
  1991     1052  3464               	retlw	100	;'d'
  1992     1053  3420               	retlw	32	;' '
  1993     1054  3428               	retlw	40	;'('
  1994     1055  346C               	retlw	108	;'l'
  1995     1056  3469               	retlw	105	;'i'
  1996     1057  346B               	retlw	107	;'k'
  1997     1058  3465               	retlw	101	;'e'
  1998     1059  346C               	retlw	108	;'l'
  1999     105A  3479               	retlw	121	;'y'
  2000     105B  3420               	retlw	32	;' '
  2001     105C  3453               	retlw	83	;'S'
  2002     105D  3444               	retlw	68	;'D'
  2003     105E  3453               	retlw	83	;'S'
  2004     105F  3443               	retlw	67	;'C'
  2005     1060  3420               	retlw	32	;' '
  2006     1061  3476               	retlw	118	;'v'
  2007     1062  3431               	retlw	49	;'1'
  2008     1063  3429               	retlw	41	;')'
  2009     1064  342E               	retlw	46	;'.'
  2010     1065  3420               	retlw	32	;' '
  2011     1066  3449               	retlw	73	;'I'
  2012     1067  346E               	retlw	110	;'n'
  2013     1068  3469               	retlw	105	;'i'
  2014     1069  3474               	retlw	116	;'t'
  2015     106A  342E               	retlw	46	;'.'
  2016     106B  342E               	retlw	46	;'.'
  2017     106C  342E               	retlw	46	;'.'
  2018     106D  340A               	retlw	10
  2019     106E  3400               	retlw	0
  2020                           
  2021                           	psect	stringtext3
  2022     106F                     __pstringtext3:
  2023     106F                     STR_40:
  2024     106F  3457               	retlw	87	;'W'
  2025     1070  3461               	retlw	97	;'a'
  2026     1071  3469               	retlw	105	;'i'
  2027     1072  3474               	retlw	116	;'t'
  2028     1073  3469               	retlw	105	;'i'
  2029     1074  346E               	retlw	110	;'n'
  2030     1075  3467               	retlw	103	;'g'
  2031     1076  3420               	retlw	32	;' '
  2032     1077  3466               	retlw	102	;'f'
  2033     1078  346F               	retlw	111	;'o'
  2034     1079  3472               	retlw	114	;'r'
  2035     107A  3420               	retlw	32	;' '
  2036     107B  3463               	retlw	99	;'c'
  2037     107C  3461               	retlw	97	;'a'
  2038     107D  3472               	retlw	114	;'r'
  2039     107E  3464               	retlw	100	;'d'
  2040     107F  3420               	retlw	32	;' '
  2041     1080  3474               	retlw	116	;'t'
  2042     1081  346F               	retlw	111	;'o'
  2043     1082  3420               	retlw	32	;' '
  2044     1083  3466               	retlw	102	;'f'
  2045     1084  3469               	retlw	105	;'i'
  2046     1085  346E               	retlw	110	;'n'
  2047     1086  3469               	retlw	105	;'i'
  2048     1087  3473               	retlw	115	;'s'
  2049     1088  3468               	retlw	104	;'h'
  2050     1089  3420               	retlw	32	;' '
  2051     108A  3477               	retlw	119	;'w'
  2052     108B  3472               	retlw	114	;'r'
  2053     108C  3469               	retlw	105	;'i'
  2054     108D  3474               	retlw	116	;'t'
  2055     108E  3465               	retlw	101	;'e'
  2056     108F  3420               	retlw	32	;' '
  2057     1090  3470               	retlw	112	;'p'
  2058     1091  3472               	retlw	114	;'r'
  2059     1092  346F               	retlw	111	;'o'
  2060     1093  3463               	retlw	99	;'c'
  2061     1094  3465               	retlw	101	;'e'
  2062     1095  3473               	retlw	115	;'s'
  2063     1096  3473               	retlw	115	;'s'
  2064     1097  342E               	retlw	46	;'.'
  2065     1098  342E               	retlw	46	;'.'
  2066     1099  342E               	retlw	46	;'.'
  2067     109A  3400               	retlw	0
  2068                           
  2069                           	psect	stringtext4
  2070     109B                     __pstringtext4:
  2071     109B                     STR_3:
  2072     109B  3453               	retlw	83	;'S'
  2073     109C  3465               	retlw	101	;'e'
  2074     109D  3461               	retlw	97	;'a'
  2075     109E  3472               	retlw	114	;'r'
  2076     109F  3463               	retlw	99	;'c'
  2077     10A0  3468               	retlw	104	;'h'
  2078     10A1  3469               	retlw	105	;'i'
  2079     10A2  346E               	retlw	110	;'n'
  2080     10A3  3467               	retlw	103	;'g'
  2081     10A4  3420               	retlw	32	;' '
  2082     10A5  3466               	retlw	102	;'f'
  2083     10A6  3469               	retlw	105	;'i'
  2084     10A7  3472               	retlw	114	;'r'
  2085     10A8  3473               	retlw	115	;'s'
  2086     10A9  3474               	retlw	116	;'t'
  2087     10AA  3420               	retlw	32	;' '
  2088     10AB  3475               	retlw	117	;'u'
  2089     10AC  346E               	retlw	110	;'n'
  2090     10AD  3461               	retlw	97	;'a'
  2091     10AE  346C               	retlw	108	;'l'
  2092     10AF  346C               	retlw	108	;'l'
  2093     10B0  346F               	retlw	111	;'o'
  2094     10B1  3463               	retlw	99	;'c'
  2095     10B2  3461               	retlw	97	;'a'
  2096     10B3  3474               	retlw	116	;'t'
  2097     10B4  3465               	retlw	101	;'e'
  2098     10B5  3464               	retlw	100	;'d'
  2099     10B6  3420               	retlw	32	;' '
  2100     10B7  3463               	retlw	99	;'c'
  2101     10B8  346C               	retlw	108	;'l'
  2102     10B9  3475               	retlw	117	;'u'
  2103     10BA  3473               	retlw	115	;'s'
  2104     10BB  3474               	retlw	116	;'t'
  2105     10BC  3465               	retlw	101	;'e'
  2106     10BD  3472               	retlw	114	;'r'
  2107     10BE  342E               	retlw	46	;'.'
  2108     10BF  342E               	retlw	46	;'.'
  2109     10C0  342E               	retlw	46	;'.'
  2110     10C1  3400               	retlw	0
  2111                           
  2112                           	psect	stringtext5
  2113     10C2                     __pstringtext5:
  2114     10C2                     STR_12:
  2115     10C2  3453               	retlw	83	;'S'
  2116     10C3  3474               	retlw	116	;'t'
  2117     10C4  3461               	retlw	97	;'a'
  2118     10C5  3472               	retlw	114	;'r'
  2119     10C6  3474               	retlw	116	;'t'
  2120     10C7  3469               	retlw	105	;'i'
  2121     10C8  346E               	retlw	110	;'n'
  2122     10C9  3467               	retlw	103	;'g'
  2123     10CA  3420               	retlw	32	;' '
  2124     10CB  3453               	retlw	83	;'S'
  2125     10CC  3444               	retlw	68	;'D'
  2126     10CD  3420               	retlw	32	;' '
  2127     10CE  3463               	retlw	99	;'c'
  2128     10CF  3461               	retlw	97	;'a'
  2129     10D0  3472               	retlw	114	;'r'
  2130     10D1  3464               	retlw	100	;'d'
  2131     10D2  3420               	retlw	32	;' '
  2132     10D3  3469               	retlw	105	;'i'
  2133     10D4  346E               	retlw	110	;'n'
  2134     10D5  3469               	retlw	105	;'i'
  2135     10D6  3474               	retlw	116	;'t'
  2136     10D7  3469               	retlw	105	;'i'
  2137     10D8  3461               	retlw	97	;'a'
  2138     10D9  346C               	retlw	108	;'l'
  2139     10DA  3469               	retlw	105	;'i'
  2140     10DB  347A               	retlw	122	;'z'
  2141     10DC  3461               	retlw	97	;'a'
  2142     10DD  3474               	retlw	116	;'t'
  2143     10DE  3469               	retlw	105	;'i'
  2144     10DF  346F               	retlw	111	;'o'
  2145     10E0  346E               	retlw	110	;'n'
  2146     10E1  342E               	retlw	46	;'.'
  2147     10E2  342E               	retlw	46	;'.'
  2148     10E3  342E               	retlw	46	;'.'
  2149     10E4  340A               	retlw	10
  2150     10E5  3400               	retlw	0
  2151                           
  2152                           	psect	stringtext6
  2153     10E6                     __pstringtext6:
  2154     10E6                     STR_28:
  2155     10E6  3453               	retlw	83	;'S'
  2156     10E7  3444               	retlw	68	;'D'
  2157     10E8  3420               	retlw	32	;' '
  2158     10E9  3463               	retlw	99	;'c'
  2159     10EA  3461               	retlw	97	;'a'
  2160     10EB  3472               	retlw	114	;'r'
  2161     10EC  3464               	retlw	100	;'d'
  2162     10ED  3420               	retlw	32	;' '
  2163     10EE  3469               	retlw	105	;'i'
  2164     10EF  346E               	retlw	110	;'n'
  2165     10F0  3469               	retlw	105	;'i'
  2166     10F1  3474               	retlw	116	;'t'
  2167     10F2  3469               	retlw	105	;'i'
  2168     10F3  3461               	retlw	97	;'a'
  2169     10F4  346C               	retlw	108	;'l'
  2170     10F5  3469               	retlw	105	;'i'
  2171     10F6  347A               	retlw	122	;'z'
  2172     10F7  3465               	retlw	101	;'e'
  2173     10F8  3464               	retlw	100	;'d'
  2174     10F9  3420               	retlw	32	;' '
  2175     10FA  3473               	retlw	115	;'s'
  2176     10FB  3475               	retlw	117	;'u'
  2177     10FC  3463               	retlw	99	;'c'
  2178     10FD  3463               	retlw	99	;'c'
  2179     10FE  3465               	retlw	101	;'e'
  2180     10FF  3473               	retlw	115	;'s'
  2181     1100  3473               	retlw	115	;'s'
  2182     1101  3466               	retlw	102	;'f'
  2183     1102  3475               	retlw	117	;'u'
  2184     1103  346C               	retlw	108	;'l'
  2185     1104  346C               	retlw	108	;'l'
  2186     1105  3479               	retlw	121	;'y'
  2187     1106  3421               	retlw	33	;'!'
  2188     1107  340A               	retlw	10
  2189     1108  3400               	retlw	0
  2190                           
  2191                           	psect	stringtext7
  2192     1109                     __pstringtext7:
  2193     1109                     STR_13:
  2194     1109  3453               	retlw	83	;'S'
  2195     110A  3465               	retlw	101	;'e'
  2196     110B  346E               	retlw	110	;'n'
  2197     110C  3464               	retlw	100	;'d'
  2198     110D  3469               	retlw	105	;'i'
  2199     110E  346E               	retlw	110	;'n'
  2200     110F  3467               	retlw	103	;'g'
  2201     1110  3420               	retlw	32	;' '
  2202     1111  3443               	retlw	67	;'C'
  2203     1112  344D               	retlw	77	;'M'
  2204     1113  3444               	retlw	68	;'D'
  2205     1114  3430               	retlw	48	;'0'
  2206     1115  342C               	retlw	44	;','
  2207     1116  3420               	retlw	32	;' '
  2208     1117  3461               	retlw	97	;'a'
  2209     1118  3477               	retlw	119	;'w'
  2210     1119  3461               	retlw	97	;'a'
  2211     111A  3469               	retlw	105	;'i'
  2212     111B  3474               	retlw	116	;'t'
  2213     111C  3469               	retlw	105	;'i'
  2214     111D  346E               	retlw	110	;'n'
  2215     111E  3467               	retlw	103	;'g'
  2216     111F  3420               	retlw	32	;' '
  2217     1120  3472               	retlw	114	;'r'
  2218     1121  3465               	retlw	101	;'e'
  2219     1122  3473               	retlw	115	;'s'
  2220     1123  3470               	retlw	112	;'p'
  2221     1124  346F               	retlw	111	;'o'
  2222     1125  346E               	retlw	110	;'n'
  2223     1126  3473               	retlw	115	;'s'
  2224     1127  3465               	retlw	101	;'e'
  2225     1128  342E               	retlw	46	;'.'
  2226     1129  342E               	retlw	46	;'.'
  2227     112A  342E               	retlw	46	;'.'
  2228     112B  3400               	retlw	0
  2229                           
  2230                           	psect	stringtext8
  2231     112C                     __pstringtext8:
  2232     112C                     STR_45:
  2233     112C  3448               	retlw	72	;'H'
  2234     112D  3465               	retlw	101	;'e'
  2235     112E  346C               	retlw	108	;'l'
  2236     112F  346C               	retlw	108	;'l'
  2237     1130  346F               	retlw	111	;'o'
  2238     1131  3420               	retlw	32	;' '
  2239     1132  3466               	retlw	102	;'f'
  2240     1133  3472               	retlw	114	;'r'
  2241     1134  346F               	retlw	111	;'o'
  2242     1135  346D               	retlw	109	;'m'
  2243     1136  3420               	retlw	32	;' '
  2244     1137  3450               	retlw	80	;'P'
  2245     1138  3449               	retlw	73	;'I'
  2246     1139  3443               	retlw	67	;'C'
  2247     113A  3431               	retlw	49	;'1'
  2248     113B  3436               	retlw	54	;'6'
  2249     113C  3446               	retlw	70	;'F'
  2250     113D  3431               	retlw	49	;'1'
  2251     113E  3437               	retlw	55	;'7'
  2252     113F  3431               	retlw	49	;'1'
  2253     1140  3438               	retlw	56	;'8'
  2254     1141  3421               	retlw	33	;'!'
  2255     1142  3420               	retlw	32	;' '
  2256     1143  3448               	retlw	72	;'H'
  2257     1144  3443               	retlw	67	;'C'
  2258     1145  3420               	retlw	32	;' '
  2259     1146  3443               	retlw	67	;'C'
  2260     1147  3461               	retlw	97	;'a'
  2261     1148  3472               	retlw	114	;'r'
  2262     1149  3464               	retlw	100	;'d'
  2263     114A  3421               	retlw	33	;'!'
  2264     114B  340A               	retlw	10
  2265     114C  3400               	retlw	0
  2266                           
  2267                           	psect	stringtext9
  2268     114D                     __pstringtext9:
  2269     114D                     STR_27:
  2270     114D  3441               	retlw	65	;'A'
  2271     114E  3443               	retlw	67	;'C'
  2272     114F  344D               	retlw	77	;'M'
  2273     1150  3444               	retlw	68	;'D'
  2274     1151  3434               	retlw	52	;'4'
  2275     1152  3431               	retlw	49	;'1'
  2276     1153  3420               	retlw	32	;' '
  2277     1154  3474               	retlw	116	;'t'
  2278     1155  3469               	retlw	105	;'i'
  2279     1156  346D               	retlw	109	;'m'
  2280     1157  3465               	retlw	101	;'e'
  2281     1158  346F               	retlw	111	;'o'
  2282     1159  3475               	retlw	117	;'u'
  2283     115A  3474               	retlw	116	;'t'
  2284     115B  342C               	retlw	44	;','
  2285     115C  3420               	retlw	32	;' '
  2286     115D  3474               	retlw	116	;'t'
  2287     115E  3472               	retlw	114	;'r'
  2288     115F  3479               	retlw	121	;'y'
  2289     1160  3469               	retlw	105	;'i'
  2290     1161  346E               	retlw	110	;'n'
  2291     1162  3467               	retlw	103	;'g'
  2292     1163  3420               	retlw	32	;' '
  2293     1164  3443               	retlw	67	;'C'
  2294     1165  344D               	retlw	77	;'M'
  2295     1166  3444               	retlw	68	;'D'
  2296     1167  3431               	retlw	49	;'1'
  2297     1168  342E               	retlw	46	;'.'
  2298     1169  342E               	retlw	46	;'.'
  2299     116A  342E               	retlw	46	;'.'
  2300     116B  340A               	retlw	10
  2301     116C  3400               	retlw	0
  2302                           
  2303                           	psect	stringtext10
  2304     116D                     __pstringtext10:
  2305     116D                     STR_18:
  2306     116D  3449               	retlw	73	;'I'
  2307     116E  346E               	retlw	110	;'n'
  2308     116F  3469               	retlw	105	;'i'
  2309     1170  3474               	retlw	116	;'t'
  2310     1171  3469               	retlw	105	;'i'
  2311     1172  3461               	retlw	97	;'a'
  2312     1173  346C               	retlw	108	;'l'
  2313     1174  3469               	retlw	105	;'i'
  2314     1175  347A               	retlw	122	;'z'
  2315     1176  3469               	retlw	105	;'i'
  2316     1177  346E               	retlw	110	;'n'
  2317     1178  3467               	retlw	103	;'g'
  2318     1179  3420               	retlw	32	;' '
  2319     117A  3477               	retlw	119	;'w'
  2320     117B  3469               	retlw	105	;'i'
  2321     117C  3474               	retlw	116	;'t'
  2322     117D  3468               	retlw	104	;'h'
  2323     117E  3420               	retlw	32	;' '
  2324     117F  3441               	retlw	65	;'A'
  2325     1180  3443               	retlw	67	;'C'
  2326     1181  344D               	retlw	77	;'M'
  2327     1182  3444               	retlw	68	;'D'
  2328     1183  3434               	retlw	52	;'4'
  2329     1184  3431               	retlw	49	;'1'
  2330     1185  342E               	retlw	46	;'.'
  2331     1186  342E               	retlw	46	;'.'
  2332     1187  342E               	retlw	46	;'.'
  2333     1188  3400               	retlw	0
  2334                           
  2335                           	psect	stringtext11
  2336     1189                     __pstringtext11:
  2337     1189                     STR_10:
  2338     1189  3441               	retlw	65	;'A'
  2339     118A  3464               	retlw	100	;'d'
  2340     118B  3464               	retlw	100	;'d'
  2341     118C  3472               	retlw	114	;'r'
  2342     118D  3465               	retlw	101	;'e'
  2343     118E  3473               	retlw	115	;'s'
  2344     118F  3473               	retlw	115	;'s'
  2345     1190  3420               	retlw	32	;' '
  2346     1191  346F               	retlw	111	;'o'
  2347     1192  3466               	retlw	102	;'f'
  2348     1193  3420               	retlw	32	;' '
  2349     1194  3463               	retlw	99	;'c'
  2350     1195  3475               	retlw	117	;'u'
  2351     1196  3472               	retlw	114	;'r'
  2352     1197  3472               	retlw	114	;'r'
  2353     1198  3465               	retlw	101	;'e'
  2354     1199  346E               	retlw	110	;'n'
  2355     119A  3474               	retlw	116	;'t'
  2356     119B  3420               	retlw	32	;' '
  2357     119C  3473               	retlw	115	;'s'
  2358     119D  3465               	retlw	101	;'e'
  2359     119E  3463               	retlw	99	;'c'
  2360     119F  3474               	retlw	116	;'t'
  2361     11A0  346F               	retlw	111	;'o'
  2362     11A1  3472               	retlw	114	;'r'
  2363     11A2  343A               	retlw	58	;':'
  2364     11A3  3420               	retlw	32	;' '
  2365     11A4  3400               	retlw	0
  2366                           
  2367                           	psect	stringtext12
  2368     11A5                     __pstringtext12:
  2369     11A5                     STR_46:
  2370     11A5  3454               	retlw	84	;'T'
  2371     11A6  3468               	retlw	104	;'h'
  2372     11A7  3469               	retlw	105	;'i'
  2373     11A8  3473               	retlw	115	;'s'
  2374     11A9  3420               	retlw	32	;' '
  2375     11AA  3469               	retlw	105	;'i'
  2376     11AB  3473               	retlw	115	;'s'
  2377     11AC  3420               	retlw	32	;' '
  2378     11AD  3461               	retlw	97	;'a'
  2379     11AE  3420               	retlw	32	;' '
  2380     11AF  3474               	retlw	116	;'t'
  2381     11B0  3465               	retlw	101	;'e'
  2382     11B1  3473               	retlw	115	;'s'
  2383     11B2  3474               	retlw	116	;'t'
  2384     11B3  3420               	retlw	32	;' '
  2385     11B4  346C               	retlw	108	;'l'
  2386     11B5  346F               	retlw	111	;'o'
  2387     11B6  3467               	retlw	103	;'g'
  2388     11B7  3420               	retlw	32	;' '
  2389     11B8  346C               	retlw	108	;'l'
  2390     11B9  3469               	retlw	105	;'i'
  2391     11BA  346E               	retlw	110	;'n'
  2392     11BB  3465               	retlw	101	;'e'
  2393     11BC  342E               	retlw	46	;'.'
  2394     11BD  340A               	retlw	10
  2395     11BE  3400               	retlw	0
  2396                           
  2397                           	psect	stringtext13
  2398     11BF                     __pstringtext13:
  2399     11BF                     STR_43:
  2400     11BF  3442               	retlw	66	;'B'
  2401     11C0  346F               	retlw	111	;'o'
  2402     11C1  346F               	retlw	111	;'o'
  2403     11C2  3474               	retlw	116	;'t'
  2404     11C3  3469               	retlw	105	;'i'
  2405     11C4  346E               	retlw	110	;'n'
  2406     11C5  3467               	retlw	103	;'g'
  2407     11C6  3420               	retlw	32	;' '
  2408     11C7  3453               	retlw	83	;'S'
  2409     11C8  3444               	retlw	68	;'D'
  2410     11C9  342B               	retlw	43	;'+'
  2411     11CA  3446               	retlw	70	;'F'
  2412     11CB  3441               	retlw	65	;'A'
  2413     11CC  3454               	retlw	84	;'T'
  2414     11CD  3420               	retlw	32	;' '
  2415     11CE  3464               	retlw	100	;'d'
  2416     11CF  3465               	retlw	101	;'e'
  2417     11D0  346D               	retlw	109	;'m'
  2418     11D1  346F               	retlw	111	;'o'
  2419     11D2  342E               	retlw	46	;'.'
  2420     11D3  342E               	retlw	46	;'.'
  2421     11D4  342E               	retlw	46	;'.'
  2422     11D5  340A               	retlw	10
  2423     11D6  3400               	retlw	0
  2424                           
  2425                           	psect	stringtext14
  2426     11D7                     __pstringtext14:
  2427     11D7                     STR_25:
  2428     11D7  3443               	retlw	67	;'C'
  2429     11D8  344D               	retlw	77	;'M'
  2430     11D9  3444               	retlw	68	;'D'
  2431     11DA  3438               	retlw	56	;'8'
  2432     11DB  3420               	retlw	32	;' '
  2433     11DC  3470               	retlw	112	;'p'
  2434     11DD  3461               	retlw	97	;'a'
  2435     11DE  3474               	retlw	116	;'t'
  2436     11DF  3474               	retlw	116	;'t'
  2437     11E0  3465               	retlw	101	;'e'
  2438     11E1  3472               	retlw	114	;'r'
  2439     11E2  346E               	retlw	110	;'n'
  2440     11E3  3420               	retlw	32	;' '
  2441     11E4  346D               	retlw	109	;'m'
  2442     11E5  3469               	retlw	105	;'i'
  2443     11E6  3473               	retlw	115	;'s'
  2444     11E7  346D               	retlw	109	;'m'
  2445     11E8  3461               	retlw	97	;'a'
  2446     11E9  3474               	retlw	116	;'t'
  2447     11EA  3463               	retlw	99	;'c'
  2448     11EB  3468               	retlw	104	;'h'
  2449     11EC  342E               	retlw	46	;'.'
  2450     11ED  340A               	retlw	10
  2451     11EE  3400               	retlw	0
  2452                           
  2453                           	psect	stringtext15
  2454     11EF                     __pstringtext15:
  2455     11EF                     STR_21:
  2456     11EF  3452               	retlw	82	;'R'
  2457     11F0  3465               	retlw	101	;'e'
  2458     11F1  3461               	retlw	97	;'a'
  2459     11F2  3464               	retlw	100	;'d'
  2460     11F3  3469               	retlw	105	;'i'
  2461     11F4  346E               	retlw	110	;'n'
  2462     11F5  3467               	retlw	103	;'g'
  2463     11F6  3420               	retlw	32	;' '
  2464     11F7  344F               	retlw	79	;'O'
  2465     11F8  3443               	retlw	67	;'C'
  2466     11F9  3452               	retlw	82	;'R'
  2467     11FA  3420               	retlw	32	;' '
  2468     11FB  3428               	retlw	40	;'('
  2469     11FC  3443               	retlw	67	;'C'
  2470     11FD  344D               	retlw	77	;'M'
  2471     11FE  3444               	retlw	68	;'D'
  2472     11FF  3435               	retlw	53	;'5'
  2473     1200  3438               	retlw	56	;'8'
  2474     1201  3429               	retlw	41	;')'
  2475     1202  342E               	retlw	46	;'.'
  2476     1203  342E               	retlw	46	;'.'
  2477     1204  342E               	retlw	46	;'.'
  2478     1205  3400               	retlw	0
  2479                           
  2480                           	psect	stringtext16
  2481     1206                     __pstringtext16:
  2482     1206                     STR_37:
  2483     1206  3477               	retlw	119	;'w'
  2484     1207  3472               	retlw	114	;'r'
  2485     1208  3469               	retlw	105	;'i'
  2486     1209  3474               	retlw	116	;'t'
  2487     120A  3465               	retlw	101	;'e'
  2488     120B  3420               	retlw	32	;' '
  2489     120C  3465               	retlw	101	;'e'
  2490     120D  3472               	retlw	114	;'r'
  2491     120E  3472               	retlw	114	;'r'
  2492     120F  346F               	retlw	111	;'o'
  2493     1210  3472               	retlw	114	;'r'
  2494     1211  3420               	retlw	32	;' '
  2495     1212  346F               	retlw	111	;'o'
  2496     1213  3463               	retlw	99	;'c'
  2497     1214  3463               	retlw	99	;'c'
  2498     1215  3475               	retlw	117	;'u'
  2499     1216  3472               	retlw	114	;'r'
  2500     1217  3465               	retlw	101	;'e'
  2501     1218  3464               	retlw	100	;'d'
  2502     1219  3421               	retlw	33	;'!'
  2503     121A  340A               	retlw	10
  2504     121B  3400               	retlw	0
  2505                           
  2506                           	psect	stringtext17
  2507     121C                     __pstringtext17:
  2508     121C                     STR_36:
  2509     121C  3453               	retlw	83	;'S'
  2510     121D  3465               	retlw	101	;'e'
  2511     121E  346E               	retlw	110	;'n'
  2512     121F  3464               	retlw	100	;'d'
  2513     1220  3469               	retlw	105	;'i'
  2514     1221  346E               	retlw	110	;'n'
  2515     1222  3467               	retlw	103	;'g'
  2516     1223  3420               	retlw	32	;' '
  2517     1224  3464               	retlw	100	;'d'
  2518     1225  3461               	retlw	97	;'a'
  2519     1226  3474               	retlw	116	;'t'
  2520     1227  3461               	retlw	97	;'a'
  2521     1228  3420               	retlw	32	;' '
  2522     1229  3462               	retlw	98	;'b'
  2523     122A  346C               	retlw	108	;'l'
  2524     122B  346F               	retlw	111	;'o'
  2525     122C  3463               	retlw	99	;'c'
  2526     122D  346B               	retlw	107	;'k'
  2527     122E  342E               	retlw	46	;'.'
  2528     122F  342E               	retlw	46	;'.'
  2529     1230  342E               	retlw	46	;'.'
  2530     1231  3400               	retlw	0
  2531                           
  2532                           	psect	stringtext18
  2533     1232                     __pstringtext18:
  2534     1232                     STR_23:
  2535     1232  3453               	retlw	83	;'S'
  2536     1233  3444               	retlw	68	;'D'
  2537     1234  3448               	retlw	72	;'H'
  2538     1235  3443               	retlw	67	;'C'
  2539     1236  342F               	retlw	47	;'/'
  2540     1237  3453               	retlw	83	;'S'
  2541     1238  3444               	retlw	68	;'D'
  2542     1239  3458               	retlw	88	;'X'
  2543     123A  3443               	retlw	67	;'C'
  2544     123B  3420               	retlw	32	;' '
  2545     123C  3464               	retlw	100	;'d'
  2546     123D  3465               	retlw	101	;'e'
  2547     123E  3474               	retlw	116	;'t'
  2548     123F  3465               	retlw	101	;'e'
  2549     1240  3463               	retlw	99	;'c'
  2550     1241  3474               	retlw	116	;'t'
  2551     1242  3465               	retlw	101	;'e'
  2552     1243  3464               	retlw	100	;'d'
  2553     1244  342E               	retlw	46	;'.'
  2554     1245  340A               	retlw	10
  2555     1246  3400               	retlw	0
  2556                           
  2557                           	psect	stringtext19
  2558     1247                     __pstringtext19:
  2559     1247                     STR_38:
  2560     1247  3443               	retlw	67	;'C'
  2561     1248  3452               	retlw	82	;'R'
  2562     1249  3443               	retlw	67	;'C'
  2563     124A  3420               	retlw	32	;' '
  2564     124B  3465               	retlw	101	;'e'
  2565     124C  3472               	retlw	114	;'r'
  2566     124D  3472               	retlw	114	;'r'
  2567     124E  346F               	retlw	111	;'o'
  2568     124F  3472               	retlw	114	;'r'
  2569     1250  3420               	retlw	32	;' '
  2570     1251  346F               	retlw	111	;'o'
  2571     1252  3463               	retlw	99	;'c'
  2572     1253  3463               	retlw	99	;'c'
  2573     1254  3475               	retlw	117	;'u'
  2574     1255  3472               	retlw	114	;'r'
  2575     1256  3465               	retlw	101	;'e'
  2576     1257  3464               	retlw	100	;'d'
  2577     1258  3421               	retlw	33	;'!'
  2578     1259  340A               	retlw	10
  2579     125A  3400               	retlw	0
  2580                           
  2581                           	psect	stringtext20
  2582     125B                     __pstringtext20:
  2583     125B                     STR_24:
  2584     125B  3453               	retlw	83	;'S'
  2585     125C  3444               	retlw	68	;'D'
  2586     125D  3453               	retlw	83	;'S'
  2587     125E  3443               	retlw	67	;'C'
  2588     125F  3420               	retlw	32	;' '
  2589     1260  3476               	retlw	118	;'v'
  2590     1261  3432               	retlw	50	;'2'
  2591     1262  3420               	retlw	32	;' '
  2592     1263  3464               	retlw	100	;'d'
  2593     1264  3465               	retlw	101	;'e'
  2594     1265  3474               	retlw	116	;'t'
  2595     1266  3465               	retlw	101	;'e'
  2596     1267  3463               	retlw	99	;'c'
  2597     1268  3474               	retlw	116	;'t'
  2598     1269  3465               	retlw	101	;'e'
  2599     126A  3464               	retlw	100	;'d'
  2600     126B  342E               	retlw	46	;'.'
  2601     126C  340A               	retlw	10
  2602     126D  3400               	retlw	0
  2603                           
  2604                           	psect	stringtext21
  2605     126E                     __pstringtext21:
  2606     126E                     STR_6:
  2607     126E  3453               	retlw	83	;'S'
  2608     126F  3465               	retlw	101	;'e'
  2609     1270  3463               	retlw	99	;'c'
  2610     1271  3474               	retlw	116	;'t'
  2611     1272  346F               	retlw	111	;'o'
  2612     1273  3472               	retlw	114	;'r'
  2613     1274  3420               	retlw	32	;' '
  2614     1275  3430               	retlw	48	;'0'
  2615     1276  3420               	retlw	32	;' '
  2616     1277  3461               	retlw	97	;'a'
  2617     1278  3464               	retlw	100	;'d'
  2618     1279  3464               	retlw	100	;'d'
  2619     127A  3472               	retlw	114	;'r'
  2620     127B  3465               	retlw	101	;'e'
  2621     127C  3473               	retlw	115	;'s'
  2622     127D  3473               	retlw	115	;'s'
  2623     127E  343A               	retlw	58	;':'
  2624     127F  3420               	retlw	32	;' '
  2625     1280  3400               	retlw	0
  2626                           
  2627                           	psect	stringtext22
  2628     1281                     __pstringtext22:
  2629     1281                     STR_17:
  2630     1281  3453               	retlw	83	;'S'
  2631     1282  3444               	retlw	68	;'D'
  2632     1283  3420               	retlw	32	;' '
  2633     1284  3476               	retlw	118	;'v'
  2634     1285  3432               	retlw	50	;'2'
  2635     1286  3420               	retlw	32	;' '
  2636     1287  3464               	retlw	100	;'d'
  2637     1288  3465               	retlw	101	;'e'
  2638     1289  3474               	retlw	116	;'t'
  2639     128A  3465               	retlw	101	;'e'
  2640     128B  3463               	retlw	99	;'c'
  2641     128C  3474               	retlw	116	;'t'
  2642     128D  3465               	retlw	101	;'e'
  2643     128E  3464               	retlw	100	;'d'
  2644     128F  342E               	retlw	46	;'.'
  2645     1290  340A               	retlw	10
  2646     1291  3400               	retlw	0
  2647                           
  2648                           	psect	stringtext23
  2649     1292                     __pstringtext23:
  2650     1292                     STR_33:
  2651     1292  3453               	retlw	83	;'S'
  2652     1293  3465               	retlw	101	;'e'
  2653     1294  346E               	retlw	110	;'n'
  2654     1295  3464               	retlw	100	;'d'
  2655     1296  3469               	retlw	105	;'i'
  2656     1297  346E               	retlw	110	;'n'
  2657     1298  3467               	retlw	103	;'g'
  2658     1299  3420               	retlw	32	;' '
  2659     129A  3443               	retlw	67	;'C'
  2660     129B  344D               	retlw	77	;'M'
  2661     129C  3444               	retlw	68	;'D'
  2662     129D  3432               	retlw	50	;'2'
  2663     129E  3434               	retlw	52	;'4'
  2664     129F  342E               	retlw	46	;'.'
  2665     12A0  342E               	retlw	46	;'.'
  2666     12A1  342E               	retlw	46	;'.'
  2667     12A2  3400               	retlw	0
  2668                           
  2669                           	psect	stringtext24
  2670     12A3                     __pstringtext24:
  2671     12A3                     STR_29:
  2672     12A3  3453               	retlw	83	;'S'
  2673     12A4  3465               	retlw	101	;'e'
  2674     12A5  346E               	retlw	110	;'n'
  2675     12A6  3464               	retlw	100	;'d'
  2676     12A7  3469               	retlw	105	;'i'
  2677     12A8  346E               	retlw	110	;'n'
  2678     12A9  3467               	retlw	103	;'g'
  2679     12AA  3420               	retlw	32	;' '
  2680     12AB  3443               	retlw	67	;'C'
  2681     12AC  344D               	retlw	77	;'M'
  2682     12AD  3444               	retlw	68	;'D'
  2683     12AE  3431               	retlw	49	;'1'
  2684     12AF  3437               	retlw	55	;'7'
  2685     12B0  342E               	retlw	46	;'.'
  2686     12B1  342E               	retlw	46	;'.'
  2687     12B2  342E               	retlw	46	;'.'
  2688     12B3  3400               	retlw	0
  2689                           
  2690                           	psect	stringtext25
  2691     12B4                     __pstringtext25:
  2692     12B4                     STR_5:
  2693     12B4  3443               	retlw	67	;'C'
  2694     12B5  346C               	retlw	108	;'l'
  2695     12B6  3475               	retlw	117	;'u'
  2696     12B7  3473               	retlw	115	;'s'
  2697     12B8  3474               	retlw	116	;'t'
  2698     12B9  3465               	retlw	101	;'e'
  2699     12BA  3472               	retlw	114	;'r'
  2700     12BB  3420               	retlw	32	;' '
  2701     12BC  346E               	retlw	110	;'n'
  2702     12BD  3475               	retlw	117	;'u'
  2703     12BE  346D               	retlw	109	;'m'
  2704     12BF  3462               	retlw	98	;'b'
  2705     12C0  3465               	retlw	101	;'e'
  2706     12C1  3472               	retlw	114	;'r'
  2707     12C2  343A               	retlw	58	;':'
  2708     12C3  3420               	retlw	32	;' '
  2709     12C4  3400               	retlw	0
  2710                           
  2711                           	psect	stringtext26
  2712     12C5                     __pstringtext26:
  2713     12C5                     STR_47:
  2714     12C5  3444               	retlw	68	;'D'
  2715     12C6  346F               	retlw	111	;'o'
  2716     12C7  346E               	retlw	110	;'n'
  2717     12C8  3465               	retlw	101	;'e'
  2718     12C9  342E               	retlw	46	;'.'
  2719     12CA  3420               	retlw	32	;' '
  2720     12CB  3448               	retlw	72	;'H'
  2721     12CC  3461               	retlw	97	;'a'
  2722     12CD  346C               	retlw	108	;'l'
  2723     12CE  3474               	retlw	116	;'t'
  2724     12CF  3469               	retlw	105	;'i'
  2725     12D0  346E               	retlw	110	;'n'
  2726     12D1  3467               	retlw	103	;'g'
  2727     12D2  342E               	retlw	46	;'.'
  2728     12D3  340A               	retlw	10
  2729     12D4  3400               	retlw	0
  2730                           
  2731                           	psect	stringtext27
  2732     12D5                     __pstringtext27:
  2733     12D5                     STR_19:
  2734     12D5  3441               	retlw	65	;'A'
  2735     12D6  3443               	retlw	67	;'C'
  2736     12D7  344D               	retlw	77	;'M'
  2737     12D8  3444               	retlw	68	;'D'
  2738     12D9  3434               	retlw	52	;'4'
  2739     12DA  3431               	retlw	49	;'1'
  2740     12DB  3420               	retlw	32	;' '
  2741     12DC  3474               	retlw	116	;'t'
  2742     12DD  3469               	retlw	105	;'i'
  2743     12DE  346D               	retlw	109	;'m'
  2744     12DF  3465               	retlw	101	;'e'
  2745     12E0  346F               	retlw	111	;'o'
  2746     12E1  3475               	retlw	117	;'u'
  2747     12E2  3474               	retlw	116	;'t'
  2748     12E3  340A               	retlw	10
  2749     12E4  3400               	retlw	0
  2750                           
  2751                           	psect	stringtext28
  2752     12E5                     __pstringtext28:
  2753     12E5                     STR_16:
  2754     12E5  3453               	retlw	83	;'S'
  2755     12E6  3465               	retlw	101	;'e'
  2756     12E7  346E               	retlw	110	;'n'
  2757     12E8  3464               	retlw	100	;'d'
  2758     12E9  3469               	retlw	105	;'i'
  2759     12EA  346E               	retlw	110	;'n'
  2760     12EB  3467               	retlw	103	;'g'
  2761     12EC  3420               	retlw	32	;' '
  2762     12ED  3443               	retlw	67	;'C'
  2763     12EE  344D               	retlw	77	;'M'
  2764     12EF  3444               	retlw	68	;'D'
  2765     12F0  3438               	retlw	56	;'8'
  2766     12F1  342E               	retlw	46	;'.'
  2767     12F2  342E               	retlw	46	;'.'
  2768     12F3  342E               	retlw	46	;'.'
  2769     12F4  3400               	retlw	0
  2770                           
  2771                           	psect	stringtext29
  2772     12F5                     __pstringtext29:
  2773     12F5                     STR_32:
  2774     12F5  3474               	retlw	116	;'t'
  2775     12F6  346F               	retlw	111	;'o'
  2776     12F7  346B               	retlw	107	;'k'
  2777     12F8  3465               	retlw	101	;'e'
  2778     12F9  346E               	retlw	110	;'n'
  2779     12FA  3420               	retlw	32	;' '
  2780     12FB  3474               	retlw	116	;'t'
  2781     12FC  3469               	retlw	105	;'i'
  2782     12FD  346D               	retlw	109	;'m'
  2783     12FE  3465               	retlw	101	;'e'
  2784     12FF  346F               	retlw	111	;'o'
  2785     1300  3475               	retlw	117	;'u'
  2786     1301  3474               	retlw	116	;'t'
  2787     1302  340A               	retlw	10
  2788     1303  3400               	retlw	0
  2789                           
  2790                           	psect	stringtext30
  2791     1304                     __pstringtext30:
  2792     1304                     STR_1:
  2793     1304  344D               	retlw	77	;'M'
  2794     1305  346F               	retlw	111	;'o'
  2795     1306  3475               	retlw	117	;'u'
  2796     1307  346E               	retlw	110	;'n'
  2797     1308  3474               	retlw	116	;'t'
  2798     1309  3465               	retlw	101	;'e'
  2799     130A  3464               	retlw	100	;'d'
  2800     130B  3420               	retlw	32	;' '
  2801     130C  3464               	retlw	100	;'d'
  2802     130D  3469               	retlw	105	;'i'
  2803     130E  3473               	retlw	115	;'s'
  2804     130F  346B               	retlw	107	;'k'
  2805     1310  342E               	retlw	46	;'.'
  2806     1311  340A               	retlw	10
  2807     1312  3400               	retlw	0
  2808                           
  2809                           	psect	stringtext31
  2810     1313                     __pstringtext31:
  2811     1313                     STR_9:
  2812     1313  3445               	retlw	69	;'E'
  2813     1314  346E               	retlw	110	;'n'
  2814     1315  3474               	retlw	116	;'t'
  2815     1316  3472               	retlw	114	;'r'
  2816     1317  3479               	retlw	121	;'y'
  2817     1318  3420               	retlw	32	;' '
  2818     1319  346F               	retlw	111	;'o'
  2819     131A  3466               	retlw	102	;'f'
  2820     131B  3466               	retlw	102	;'f'
  2821     131C  3473               	retlw	115	;'s'
  2822     131D  3465               	retlw	101	;'e'
  2823     131E  3474               	retlw	116	;'t'
  2824     131F  343A               	retlw	58	;':'
  2825     1320  3420               	retlw	32	;' '
  2826     1321  3400               	retlw	0
  2827                           
  2828                           	psect	stringtext32
  2829     1322                     __pstringtext32:
  2830     1322                     STR_30:
  2831     1322  3474               	retlw	116	;'t'
  2832     1323  3469               	retlw	105	;'i'
  2833     1324  346D               	retlw	109	;'m'
  2834     1325  3465               	retlw	101	;'e'
  2835     1326  346F               	retlw	111	;'o'
  2836     1327  3475               	retlw	117	;'u'
  2837     1328  3474               	retlw	116	;'t'
  2838     1329  342F               	retlw	47	;'/'
  2839     132A  3466               	retlw	102	;'f'
  2840     132B  3461               	retlw	97	;'a'
  2841     132C  3469               	retlw	105	;'i'
  2842     132D  346C               	retlw	108	;'l'
  2843     132E  340A               	retlw	10
  2844     132F  3400               	retlw	0
  2845                           
  2846                           	psect	stringtext33
  2847     1330                     __pstringtext33:
  2848     1330                     STR_44:
  2849     1330  345A               	retlw	90	;'Z'
  2850     1331  3445               	retlw	69	;'E'
  2851     1332  3454               	retlw	84	;'T'
  2852     1333  3441               	retlw	65	;'A'
  2853     1334  344C               	retlw	76	;'L'
  2854     1335  344F               	retlw	79	;'O'
  2855     1336  3447               	retlw	71	;'G'
  2856     1337  3453               	retlw	83	;'S'
  2857     1338  342E               	retlw	46	;'.'
  2858     1339  3454               	retlw	84	;'T'
  2859     133A  3458               	retlw	88	;'X'
  2860     133B  3454               	retlw	84	;'T'
  2861     133C  3400               	retlw	0
  2862                           
  2863                           	psect	stringtext34
  2864     133D                     __pstringtext34:
  2865     133D                     STR_11:
  2866     133D  3446               	retlw	70	;'F'
  2867     133E  3469               	retlw	105	;'i'
  2868     133F  346C               	retlw	108	;'l'
  2869     1340  3465               	retlw	101	;'e'
  2870     1341  3420               	retlw	32	;' '
  2871     1342  3473               	retlw	115	;'s'
  2872     1343  3469               	retlw	105	;'i'
  2873     1344  347A               	retlw	122	;'z'
  2874     1345  3465               	retlw	101	;'e'
  2875     1346  343A               	retlw	58	;':'
  2876     1347  3420               	retlw	32	;' '
  2877     1348  3400               	retlw	0
  2878                           
  2879                           	psect	stringtext35
  2880     1349                     __pstringtext35:
  2881     1349                     STR_15:
  2882     1349  3473               	retlw	115	;'s'
  2883     134A  3475               	retlw	117	;'u'
  2884     134B  3463               	retlw	99	;'c'
  2885     134C  3463               	retlw	99	;'c'
  2886     134D  3465               	retlw	101	;'e'
  2887     134E  3473               	retlw	115	;'s'
  2888     134F  3473               	retlw	115	;'s'
  2889     1350  3421               	retlw	33	;'!'
  2890     1351  340A               	retlw	10
  2891     1352  3400               	retlw	0
  2892                           
  2893                           	psect	stringtext36
  2894     1353                     __pstringtext36:
  2895     1353                     STR_41:
  2896     1353  3474               	retlw	116	;'t'
  2897     1354  3469               	retlw	105	;'i'
  2898     1355  346D               	retlw	109	;'m'
  2899     1356  3465               	retlw	101	;'e'
  2900     1357  346F               	retlw	111	;'o'
  2901     1358  3475               	retlw	117	;'u'
  2902     1359  3474               	retlw	116	;'t'
  2903     135A  3421               	retlw	33	;'!'
  2904     135B  3400               	retlw	0
  2905                           
  2906                           	psect	stringtext37
  2907     135C                     __pstringtext37:
  2908     135C                     STR_4:
  2909     135C  3464               	retlw	100	;'d'
  2910     135D  346F               	retlw	111	;'o'
  2911     135E  346E               	retlw	110	;'n'
  2912     135F  3465               	retlw	101	;'e'
  2913     1360  3421               	retlw	33	;'!'
  2914     1361  340A               	retlw	10
  2915     1362  3400               	retlw	0
  2916                           
  2917                           	psect	stringtext38
  2918     1363                     __pstringtext38:
  2919     1363                     STR_2:
  2920     1363  3450               	retlw	80	;'P'
  2921     1364  3442               	retlw	66	;'B'
  2922     1365  3452               	retlw	82	;'R'
  2923     1366  3420               	retlw	32	;' '
  2924     1367  3440               	retlw	64	;'@'
  2925     1368  3420               	retlw	32	;' '
  2926     1369  3400               	retlw	0
  2927                           
  2928                           	psect	stringtext39
  2929     0000                     __pstringtext39:
  2930     135C                     
  2931                           	psect	cinit
  2932     07DC                     start_initialization:	
  2933                           ; #config settings
  2934                           
  2935     07DC                     __initialization:	;BIGRAM
  2936                           
  2937                           ; Clear objects allocated to BIGRAM
  2938     07DC  30F0               	movlw	low (0+9200)
  2939     07DD  0084               	movwf	4
  2940     07DE  3023               	movlw	high (0+9200)
  2941     07DF  0085               	movwf	5
  2942     07E0  3000               	movlw	0
  2943     07E1  00FE               	movwf	btemp
  2944     07E2  3004               	movlw	4
  2945     07E3  00FF               	movwf	btemp+1
  2946     07E4  3188  20B0  3187   	fcall	clear_ram0
  2947                           
  2948                           ; Clear objects allocated to BANK0
  2949     07E7  3057               	movlw	low __pbssBANK0
  2950     07E8  0084               	movwf	4
  2951     07E9  3000               	movlw	high __pbssBANK0
  2952     07EA  0085               	movwf	5
  2953     07EB  3018               	movlw	24
  2954     07EC  00FE               	movwf	btemp
  2955     07ED  3000               	movlw	0
  2956     07EE  00FF               	movwf	btemp+1
  2957     07EF  3188  20B0  3187   	fcall	clear_ram0
  2958                           
  2959                           ; Clear objects allocated to BANK1
  2960     07F2  30A0               	movlw	low __pbssBANK1
  2961     07F3  0084               	movwf	4
  2962     07F4  3000               	movlw	high __pbssBANK1
  2963     07F5  0085               	movwf	5
  2964     07F6  3020               	movlw	32
  2965     07F7  00FE               	movwf	btemp
  2966     07F8  3000               	movlw	0
  2967     07F9  00FF               	movwf	btemp+1
  2968     07FA  3188  20B0  3187   	fcall	clear_ram0
  2969     07FD                     end_of_initialization:	
  2970                           ;End of C runtime variable initialization code
  2971                           
  2972     07FD                     __end_of__initialization:
  2973     07FD  0020               	movlb	0
  2974     07FE  3189  29E6         	ljmp	_main	;jump to C main() function
  2975                           
  2976                           	psect	bssBANK0
  2977     0057                     __pbssBANK0:
  2978     0057                     _file_length:
  2979     0057                     	ds	4
  2980     005B                     _rootdir_start:
  2981     005B                     	ds	4
  2982     005F                     _byte_number:
  2983     005F                     	ds	2
  2984     0061                     _entry_addr:
  2985     0061                     	ds	2
  2986     0063                     _cluster_number:
  2987     0063                     	ds	2
  2988     0065                     _sectors_FAT:
  2989     0065                     	ds	2
  2990     0067                     _sectors_reserved:
  2991     0067                     	ds	2
  2992     0069                     _sector_size:
  2993     0069                     	ds	2
  2994     006B                     _sd_is_sdhc:
  2995     006B                     	ds	1
  2996     006C                     _current_sector:
  2997     006C                     	ds	1
  2998     006D                     _FAT_copies:
  2999     006D                     	ds	1
  3000     006E                     _sectors_cluster:
  3001     006E                     	ds	1
  3002                           
  3003                           	psect	bssBANK1
  3004     00A0                     __pbssBANK1:
  3005     00A0                     _FAT_address:
  3006     00A0                     	ds	8
  3007     00A8                     _current_sector_address:
  3008     00A8                     	ds	4
  3009     00AC                     _start_sector_address:
  3010     00AC                     	ds	4
  3011     00B0                     _datareg_start:
  3012     00B0                     	ds	4
  3013     00B4                     _part1_addr:
  3014     00B4                     	ds	4
  3015     00B8                     _root_entries:
  3016     00B8                     	ds	2
  3017     00BA                     _SDcommand:
  3018     00BA                     	ds	6
  3019                           
  3020                           	psect	clrtext
  3021     08B0                     clear_ram0:	
  3022                           ;	Called with FSR0 containing the base address, and
  3023                           ;	btemp/btemp+1 has the size to clear
  3024                           
  3025     08B0  0064               	clrwdt	;clear the watchdog before getting into this loop
  3026     08B1                     clrloop0:
  3027     08B1  0180               	clrf	0	;clear RAM location pointed to by FSR
  3028     08B2  3101               	addfsr 0,1
  3029     08B3  3001               	movlw	1
  3030     08B4  02FE               	subwf	btemp,f
  3031     08B5  3000               	movlw	0
  3032     08B6  3BFF               	subwfb	btemp+1,f
  3033     08B7  087F               	movf	btemp+1,w
  3034     08B8  047E               	iorwf	btemp,w
  3035     08B9  1D03               	skipz
  3036     08BA  28B1               	goto	clrloop0	;have we reached the end yet?
  3037     08BB  3400               	retlw	0	;all done for this memory range, return
  3038                           
  3039                           	psect	cstackCOMMON
  3040     0070                     __pcstackCOMMON:
  3041     0070                     ?_SPI_Exchange8bit:
  3042     0070                     ??_SPI_Exchange8bit:	
  3043                           ; 1 bytes @ 0x0
  3044                           
  3045     0070                     ?_EUSART_Write:	
  3046                           ; 1 bytes @ 0x0
  3047                           
  3048     0070                     ??_EUSART_Write:	
  3049                           ; 1 bytes @ 0x0
  3050                           
  3051     0070                     ?_dbg_nl:	
  3052                           ; 1 bytes @ 0x0
  3053                           
  3054     0070                     ?_mount_disk:	
  3055                           ; 1 bytes @ 0x0
  3056                           
  3057     0070                     ?_sector_open:	
  3058                           ; 1 bytes @ 0x0
  3059                           
  3060     0070                     ?_sector_close:	
  3061                           ; 1 bytes @ 0x0
  3062                           
  3063     0070                     ?_file_update_size:	
  3064                           ; 1 bytes @ 0x0
  3065                           
  3066     0070                     ?_internal_32:	
  3067                           ; 1 bytes @ 0x0
  3068                           
  3069     0070                     ??_internal_32:	
  3070                           ; 1 bytes @ 0x0
  3071                           
  3072     0070                     ?_SD_Select:	
  3073                           ; 1 bytes @ 0x0
  3074                           
  3075     0070                     ??_SD_Select:	
  3076                           ; 1 bytes @ 0x0
  3077                           
  3078     0070                     ?_SD_Deselect:	
  3079                           ; 1 bytes @ 0x0
  3080                           
  3081     0070                     ??_SD_Deselect:	
  3082                           ; 1 bytes @ 0x0
  3083                           
  3084     0070                     ?_sd_xfer:	
  3085                           ; 1 bytes @ 0x0
  3086                           
  3087     0070                     ?_SDcard_get_response:	
  3088                           ; 1 bytes @ 0x0
  3089                           
  3090     0070                     ?_sd_get_r1:	
  3091                           ; 1 bytes @ 0x0
  3092                           
  3093     0070                     ?_SDcard_init:	
  3094                           ; 1 bytes @ 0x0
  3095                           
  3096     0070                     ?_SPI_Initialize:	
  3097                           ; 1 bytes @ 0x0
  3098                           
  3099     0070                     ??_SPI_Initialize:	
  3100                           ; 1 bytes @ 0x0
  3101                           
  3102     0070                     ?_initMain:	
  3103                           ; 1 bytes @ 0x0
  3104                           
  3105     0070                     ?_main:	
  3106                           ; 1 bytes @ 0x0
  3107                           
  3108     0070                     ?___bmul:	
  3109                           ; 1 bytes @ 0x0
  3110                           
  3111     0070                     ?___wmul:	
  3112                           ; 1 bytes @ 0x0
  3113                           
  3114     0070                     ?___awdiv:	
  3115                           ; 2 bytes @ 0x0
  3116                           
  3117     0070                     ?___awmod:	
  3118                           ; 2 bytes @ 0x0
  3119                           
  3120     0070                     ?___lmul:	
  3121                           ; 2 bytes @ 0x0
  3122                           
  3123     0070                     ?___aldiv:	
  3124                           ; 4 bytes @ 0x0
  3125                           
  3126     0070                     EUSART_Write@txData:	
  3127                           ; 4 bytes @ 0x0
  3128                           
  3129     0070                     SPI_Exchange8bit@data:	
  3130                           ; 1 bytes @ 0x0
  3131                           
  3132     0070                     ___bmul@multiplicand:	
  3133                           ; 1 bytes @ 0x0
  3134                           
  3135     0070                     ___wmul@multiplier:	
  3136                           ; 1 bytes @ 0x0
  3137                           
  3138     0070                     ___awdiv@divisor:	
  3139                           ; 2 bytes @ 0x0
  3140                           
  3141     0070                     ___awmod@divisor:	
  3142                           ; 2 bytes @ 0x0
  3143                           
  3144     0070                     ___lmul@multiplier:	
  3145                           ; 2 bytes @ 0x0
  3146                           
  3147     0070                     ___aldiv@divisor:	
  3148                           ; 4 bytes @ 0x0
  3149                           
  3150                           
  3151                           ; 4 bytes @ 0x0
  3152     0070                     	ds	1
  3153     0071                     ?_EUSART_Write_Text:
  3154     0071                     ??_dbg_nl:	
  3155                           ; 1 bytes @ 0x1
  3156                           
  3157     0071                     ??_sd_xfer:	
  3158                           ; 1 bytes @ 0x1
  3159                           
  3160     0071                     ??___bmul:	
  3161                           ; 1 bytes @ 0x1
  3162                           
  3163     0071                     sd_xfer@b:	
  3164                           ; 1 bytes @ 0x1
  3165                           
  3166     0071                     EUSART_Write_Text@text:	
  3167                           ; 1 bytes @ 0x1
  3168                           
  3169                           
  3170                           ; 2 bytes @ 0x1
  3171     0071                     	ds	1
  3172     0072                     ?_sd_send:
  3173     0072                     ?_sd_recv:	
  3174                           ; 1 bytes @ 0x2
  3175                           
  3176     0072                     ??_SDcard_get_response:	
  3177                           ; 1 bytes @ 0x2
  3178                           
  3179     0072                     ??_sd_get_r1:	
  3180                           ; 1 bytes @ 0x2
  3181                           
  3182     0072                     ___bmul@product:	
  3183                           ; 1 bytes @ 0x2
  3184                           
  3185     0072                     sd_send@buf:	
  3186                           ; 1 bytes @ 0x2
  3187                           
  3188     0072                     sd_recv@buf:	
  3189                           ; 2 bytes @ 0x2
  3190                           
  3191     0072                     SDcard_get_response@t:	
  3192                           ; 2 bytes @ 0x2
  3193                           
  3194     0072                     sd_get_r1@t:	
  3195                           ; 2 bytes @ 0x2
  3196                           
  3197     0072                     ___wmul@multiplicand:	
  3198                           ; 2 bytes @ 0x2
  3199                           
  3200     0072                     ___awdiv@dividend:	
  3201                           ; 2 bytes @ 0x2
  3202                           
  3203     0072                     ___awmod@dividend:	
  3204                           ; 2 bytes @ 0x2
  3205                           
  3206                           
  3207                           ; 2 bytes @ 0x2
  3208     0072                     	ds	1
  3209     0073                     ??_EUSART_Write_Text:
  3210     0073                     ___bmul@multiplier:	
  3211                           ; 1 bytes @ 0x3
  3212                           
  3213                           
  3214                           ; 1 bytes @ 0x3
  3215     0073                     	ds	1
  3216     0074                     ??___wmul:
  3217     0074                     ??___awdiv:	
  3218                           ; 1 bytes @ 0x4
  3219                           
  3220     0074                     ??___awmod:	
  3221                           ; 1 bytes @ 0x4
  3222                           
  3223     0074                     SDcard_get_response@response:	
  3224                           ; 1 bytes @ 0x4
  3225                           
  3226     0074                     sd_get_r1@r1:	
  3227                           ; 1 bytes @ 0x4
  3228                           
  3229     0074                     EUSART_Write_Text@i:	
  3230                           ; 1 bytes @ 0x4
  3231                           
  3232     0074                     sd_send@len:	
  3233                           ; 2 bytes @ 0x4
  3234                           
  3235     0074                     sd_recv@len:	
  3236                           ; 2 bytes @ 0x4
  3237                           
  3238     0074                     ___wmul@product:	
  3239                           ; 2 bytes @ 0x4
  3240                           
  3241     0074                     ___lmul@multiplicand:	
  3242                           ; 2 bytes @ 0x4
  3243                           
  3244     0074                     ___aldiv@dividend:	
  3245                           ; 4 bytes @ 0x4
  3246                           
  3247                           
  3248                           ; 4 bytes @ 0x4
  3249     0074                     	ds	1
  3250     0075                     SDcard_get_response@b:
  3251     0075                     ___awdiv@counter:	
  3252                           ; 1 bytes @ 0x5
  3253                           
  3254     0075                     ___awmod@counter:	
  3255                           ; 1 bytes @ 0x5
  3256                           
  3257                           
  3258                           ; 1 bytes @ 0x5
  3259     0075                     	ds	1
  3260     0076                     ?_dbg:
  3261     0076                     ?_dbg@sdcard$F275:	
  3262                           ; 1 bytes @ 0x6
  3263                           
  3264     0076                     ??_sd_send:	
  3265                           ; 1 bytes @ 0x6
  3266                           
  3267     0076                     ??_sd_recv:	
  3268                           ; 1 bytes @ 0x6
  3269                           
  3270     0076                     ?_sd_send_cmd:	
  3271                           ; 1 bytes @ 0x6
  3272                           
  3273     0076                     ___awdiv@sign:	
  3274                           ; 1 bytes @ 0x6
  3275                           
  3276     0076                     ___awmod@sign:	
  3277                           ; 1 bytes @ 0x6
  3278                           
  3279     0076                     dbg@s:	
  3280                           ; 1 bytes @ 0x6
  3281                           
  3282     0076                     dbg@sdcard$F275@s:	
  3283                           ; 2 bytes @ 0x6
  3284                           
  3285     0076                     sd_send_cmd@arg:	
  3286                           ; 2 bytes @ 0x6
  3287                           
  3288                           
  3289                           ; 4 bytes @ 0x6
  3290     0076                     	ds	1
  3291     0077                     ___awdiv@quotient:
  3292                           
  3293                           ; 2 bytes @ 0x7
  3294     0077                     	ds	1
  3295     0078                     ?_SDcard_read_block:
  3296     0078                     ?_SDcard_write_block:	
  3297                           ; 1 bytes @ 0x8
  3298                           
  3299     0078                     ??_dbg:	
  3300                           ; 1 bytes @ 0x8
  3301                           
  3302     0078                     ?_dbg_hex32:	
  3303                           ; 1 bytes @ 0x8
  3304                           
  3305     0078                     ??_dbg@sdcard$F275:	
  3306                           ; 1 bytes @ 0x8
  3307                           
  3308     0078                     ??___lmul:	
  3309                           ; 1 bytes @ 0x8
  3310                           
  3311     0078                     ??___aldiv:	
  3312                           ; 1 bytes @ 0x8
  3313                           
  3314     0078                     dbg_hex32@v:	
  3315                           ; 1 bytes @ 0x8
  3316                           
  3317     0078                     SDcard_read_block@address:	
  3318                           ; 4 bytes @ 0x8
  3319                           
  3320     0078                     SDcard_write_block@address:	
  3321                           ; 4 bytes @ 0x8
  3322                           
  3323     0078                     ___lmul@product:	
  3324                           ; 4 bytes @ 0x8
  3325                           
  3326                           
  3327                           ; 4 bytes @ 0x8
  3328     0078                     	ds	1
  3329     0079                     ?_itoa:
  3330     0079                     EUSART_Initialize@x:	
  3331                           ; 1 bytes @ 0x9
  3332                           
  3333     0079                     itoa@d:	
  3334                           ; 2 bytes @ 0x9
  3335                           
  3336                           
  3337                           ; 2 bytes @ 0x9
  3338     0079                     	ds	1
  3339     007A                     sd_send_cmd@crc:
  3340                           
  3341                           ; 1 bytes @ 0xA
  3342     007A                     	ds	1
  3343     007B                     ??_itoa:
  3344     007B                     ?_EUSART_Write_Integer:	
  3345                           ; 1 bytes @ 0xB
  3346                           
  3347     007B                     ??_initMain:	
  3348                           ; 1 bytes @ 0xB
  3349                           
  3350     007B                     sd_send_cmd@cmd:	
  3351                           ; 1 bytes @ 0xB
  3352                           
  3353     007B                     EUSART_Write_Integer@value_to_send:	
  3354                           ; 1 bytes @ 0xB
  3355                           
  3356                           
  3357                           ; 2 bytes @ 0xB
  3358     007B                     	ds	1
  3359     007C                     ??_sector_close:
  3360     007C                     ??_sd_send_acmd41:	
  3361                           ; 1 bytes @ 0xC
  3362                           
  3363     007C                     sd_send_acmd41@r1:	
  3364                           ; 1 bytes @ 0xC
  3365                           
  3366     007C                     sector_open@i:	
  3367                           ; 1 bytes @ 0xC
  3368                           
  3369     007C                     file_update_size@i:	
  3370                           ; 2 bytes @ 0xC
  3371                           
  3372                           
  3373                           ; 2 bytes @ 0xC
  3374     007C                     	ds	1
  3375     007D                     ??_EUSART_Write_Integer:
  3376                           
  3377                           ; 1 bytes @ 0xD
  3378     007D                     	ds	1
  3379     007E                     ??_dbg_u16_dec:
  3380                           
  3381                           	psect	cstackBANK0
  3382     0020                     __pcstackBANK0:	
  3383                           ; 1 bytes @ 0xE
  3384                           
  3385     0020                     ??_SDcard_read_block:
  3386     0020                     ??_SDcard_write_block:	
  3387                           ; 1 bytes @ 0x0
  3388                           
  3389     0020                     ??_dbg_hex32:	
  3390                           ; 1 bytes @ 0x0
  3391                           
  3392     0020                     ??_sd_send_cmd:	
  3393                           ; 1 bytes @ 0x0
  3394                           
  3395     0020                     ___aldiv@counter:	
  3396                           ; 1 bytes @ 0x0
  3397                           
  3398     0020                     itoa@num:	
  3399                           ; 1 bytes @ 0x0
  3400                           
  3401                           
  3402                           ; 2 bytes @ 0x0
  3403     0020                     	ds	1
  3404     0021                     ___aldiv@sign:
  3405                           
  3406                           ; 1 bytes @ 0x1
  3407     0021                     	ds	1
  3408     0022                     itoa@temp:
  3409     0022                     ___aldiv@quotient:	
  3410                           ; 2 bytes @ 0x2
  3411                           
  3412                           
  3413                           ; 4 bytes @ 0x2
  3414     0022                     	ds	2
  3415     0024                     ?_sd_send_acmd41:
  3416     0024                     itoa@buf:	
  3417                           ; 1 bytes @ 0x4
  3418                           
  3419     0024                     SDcard_write_block@t:	
  3420                           ; 1 bytes @ 0x4
  3421                           
  3422     0024                     sd_send_acmd41@arg:	
  3423                           ; 2 bytes @ 0x4
  3424                           
  3425     0024                     SDcard_read_block@arg:	
  3426                           ; 4 bytes @ 0x4
  3427                           
  3428     0024                     dbg_hex32@buf:	
  3429                           ; 4 bytes @ 0x4
  3430                           
  3431                           
  3432                           ; 11 bytes @ 0x4
  3433     0024                     	ds	1
  3434     0025                     itoa@div:
  3435                           
  3436                           ; 2 bytes @ 0x5
  3437     0025                     	ds	1
  3438     0026                     ?_EUSART_Initialize:
  3439     0026                     SDcard_write_block@resp:	
  3440                           ; 1 bytes @ 0x6
  3441                           
  3442     0026                     EUSART_Initialize@baudrate:	
  3443                           ; 1 bytes @ 0x6
  3444                           
  3445                           
  3446                           ; 4 bytes @ 0x6
  3447     0026                     	ds	1
  3448     0027                     SDcard_write_block@arg:
  3449     0027                     EUSART_Write_Integer@buffer:	
  3450                           ; 4 bytes @ 0x7
  3451                           
  3452                           
  3453                           ; 20 bytes @ 0x7
  3454     0027                     	ds	1
  3455     0028                     ??_SDcard_init:
  3456                           
  3457                           ; 1 bytes @ 0x8
  3458     0028                     	ds	2
  3459     002A                     ??_EUSART_Initialize:
  3460     002A                     SDcard_init@ocr:	
  3461                           ; 1 bytes @ 0xA
  3462                           
  3463                           
  3464                           ; 4 bytes @ 0xA
  3465     002A                     	ds	4
  3466     002E                     SDcard_init@r7:
  3467                           
  3468                           ; 4 bytes @ 0xE
  3469     002E                     	ds	1
  3470     002F                     dbg_hex32@nib:
  3471                           
  3472                           ; 1 bytes @ 0xF
  3473     002F                     	ds	1
  3474     0030                     dbg_hex32@i:
  3475                           
  3476                           ; 2 bytes @ 0x10
  3477     0030                     	ds	2
  3478     0032                     ??_mount_disk:
  3479     0032                     ??_sector_open:	
  3480                           ; 1 bytes @ 0x12
  3481                           
  3482     0032                     ??_file_update_size:	
  3483                           ; 1 bytes @ 0x12
  3484                           
  3485     0032                     SDcard_init@t:	
  3486                           ; 1 bytes @ 0x12
  3487                           
  3488                           
  3489                           ; 2 bytes @ 0x12
  3490     0032                     	ds	2
  3491     0034                     SDcard_init@t_338:
  3492                           
  3493                           ; 2 bytes @ 0x14
  3494     0034                     	ds	2
  3495     0036                     SDcard_init@i:
  3496                           
  3497                           ; 1 bytes @ 0x16
  3498     0036                     	ds	1
  3499     0037                     SDcard_init@r1:
  3500                           
  3501                           ; 1 bytes @ 0x17
  3502     0037                     	ds	3
  3503     003A                     ?_file_append:
  3504     003A                     file_append@string:	
  3505                           ; 1 bytes @ 0x1A
  3506                           
  3507                           
  3508                           ; 2 bytes @ 0x1A
  3509     003A                     	ds	1
  3510     003B                     EUSART_Write_Integer@ptr:
  3511                           
  3512                           ; 1 bytes @ 0x1B
  3513     003B                     	ds	1
  3514     003C                     ??_file_append:
  3515     003C                     EUSART_Write_Integer@temp_ptr:	
  3516                           ; 1 bytes @ 0x1C
  3517                           
  3518                           
  3519                           ; 1 bytes @ 0x1C
  3520     003C                     	ds	1
  3521     003D                     ?_dbg_u16_dec:
  3522     003D                     dbg_u16_dec@v:	
  3523                           ; 1 bytes @ 0x1D
  3524                           
  3525                           
  3526                           ; 2 bytes @ 0x1D
  3527     003D                     	ds	2
  3528     003F                     ?_file_create:
  3529     003F                     file_create@filename:	
  3530                           ; 1 bytes @ 0x1F
  3531                           
  3532                           
  3533                           ; 2 bytes @ 0x1F
  3534     003F                     	ds	2
  3535     0041                     ??_file_create:
  3536                           
  3537                           ; 1 bytes @ 0x21
  3538     0041                     	ds	7
  3539     0048                     _file_create$1146:
  3540                           
  3541                           ; 4 bytes @ 0x28
  3542     0048                     	ds	4
  3543     004C                     file_create@offset:
  3544                           
  3545                           ; 1 bytes @ 0x2C
  3546     004C                     	ds	1
  3547     004D                     file_create@idx:
  3548                           
  3549                           ; 2 bytes @ 0x2D
  3550     004D                     	ds	2
  3551     004F                     file_create@idx_176:
  3552                           
  3553                           ; 2 bytes @ 0x2F
  3554     004F                     	ds	2
  3555     0051                     file_create@i:
  3556                           
  3557                           ; 2 bytes @ 0x31
  3558     0051                     	ds	2
  3559     0053                     file_create@i_183:
  3560                           
  3561                           ; 2 bytes @ 0x33
  3562     0053                     	ds	2
  3563     0055                     ??_main:
  3564                           
  3565                           ; 1 bytes @ 0x35
  3566     0055                     	ds	2
  3567                           
  3568                           	psect	maintext
  3569     09E6                     __pmaintext:	
  3570 ;;
  3571 ;;Main: autosize = 0, tempsize = 2, incstack = 0, save=0
  3572 ;;
  3573 ;; *************** function _main *****************
  3574 ;; Defined at:
  3575 ;;		line 100 in file "main.c"
  3576 ;; Parameters:    Size  Location     Type
  3577 ;;		None
  3578 ;; Auto vars:     Size  Location     Type
  3579 ;;		None
  3580 ;; Return value:  Size  Location     Type
  3581 ;;                  1    wreg      void 
  3582 ;; Registers used:
  3583 ;;		wreg, fsr0l, fsr0h, fsr1l, fsr1h, status,2, status,0, pclath, cstack
  3584 ;; Tracked objects:
  3585 ;;		On entry : B1F/0
  3586 ;;		On exit  : 0/0
  3587 ;;		Unchanged: 0/0
  3588 ;; Data sizes:     COMMON   BANK0   BANK1   BANK2   BANK3   BANK4   BANK5   BANK6   BANK7   BANK8   BANK9  BANK10  BANK1
      +1  BANK12  BANK13  BANK14  BANK15  BANK16  BANK17  BANK18  BANK19  BANK20  BANK21  BANK22  BANK23  BANK24  BANK25
  3589 ;;      Params:         0       0       0       0       0       0       0       0       0       0       0       0       
      +0       0       0       0       0       0       0       0       0       0       0       0       0       0       0
  3590 ;;      Locals:         0       0       0       0       0       0       0       0       0       0       0       0       
      +0       0       0       0       0       0       0       0       0       0       0       0       0       0       0
  3591 ;;      Temps:          0       2       0       0       0       0       0       0       0       0       0       0       
      +0       0       0       0       0       0       0       0       0       0       0       0       0       0       0
  3592 ;;      Totals:         0       2       0       0       0       0       0       0       0       0       0       0       
      +0       0       0       0       0       0       0       0       0       0       0       0       0       0       0
  3593 ;;Total ram usage:        2 bytes
  3594 ;; Hardware stack levels required when called: 6
  3595 ;; This function calls:
  3596 ;;		_EUSART_Write_Text
  3597 ;;		_SDcard_init
  3598 ;;		_file_append
  3599 ;;		_file_create
  3600 ;;		_file_update_size
  3601 ;;		_initMain
  3602 ;;		_mount_disk
  3603 ;;		_sector_close
  3604 ;;		_sector_open
  3605 ;; This function is called by:
  3606 ;;		Startup code after reset
  3607 ;; This function uses a non-reentrant model
  3608 ;;
  3609                           
  3610     09E6                     _main:	
  3611                           ;psect for function _main
  3612                           
  3613     09E6                     l2870:	
  3614                           ;incstack = 0
  3615                           ; Regs used in _main: [wreg-fsr1h+status,2+status,0+pclath+cstack]
  3616                           
  3617                           
  3618                           ;main.c: 102:     initMain();
  3619     09E6  318B  23B8  3189   	fcall	_initMain
  3620     09E9                     l2872:
  3621                           
  3622                           ;main.c: 104:     _delay((unsigned long)((5000)*(32000000/4000.0)));
  3623     09E9  30CB               	movlw	203
  3624     09EA  0020               	movlb	0	; select bank0
  3625     09EB  00D6               	movwf	??_main+1
  3626     09EC  30EC               	movlw	236
  3627     09ED  00D5               	movwf	??_main
  3628     09EE  3084               	movlw	132
  3629     09EF                     u2527:
  3630     09EF  0B89               	decfsz	9,f
  3631     09F0  29EF               	goto	u2527
  3632     09F1  0BD5               	decfsz	??_main,f
  3633     09F2  29EF               	goto	u2527
  3634     09F3  0BD6               	decfsz	??_main+1,f
  3635     09F4  29EF               	goto	u2527
  3636     09F5  0000               	nop
  3637     09F6                     l2874:
  3638                           
  3639                           ;main.c: 106:     EUSART_Write_Text("Booting SD+FAT demo...\n");
  3640     09F6  30BF               	movlw	low (STR_43| (0+32768))
  3641     09F7  00F1               	movwf	EUSART_Write_Text@text
  3642     09F8  3091               	movlw	high (STR_43| (0+32768))
  3643     09F9  00F2               	movwf	EUSART_Write_Text@text+1
  3644     09FA  3188  20F8  3189   	fcall	_EUSART_Write_Text
  3645     09FD                     l2876:
  3646                           
  3647                           ;main.c: 109:     SDcard_init();
  3648     09FD  3180  20FE  3189   	fcall	_SDcard_init
  3649     0A00                     l2878:
  3650                           
  3651                           ;main.c: 112:     mount_disk();
  3652     0A00  3182  228D  3189   	fcall	_mount_disk
  3653     0A03                     l2880:
  3654                           
  3655                           ;main.c: 113:     file_create((const unsigned char*)"ZETALOGS.TXT");
  3656     0A03  3030               	movlw	low (STR_44| (0+32768))
  3657     0A04  0020               	movlb	0	; select bank0
  3658     0A05  00BF               	movwf	file_create@filename
  3659     0A06  3093               	movlw	high (STR_44| (0+32768))
  3660     0A07  00C0               	movwf	file_create@filename+1
  3661     0A08  3184  2485  3189   	fcall	_file_create
  3662     0A0B                     l2882:
  3663                           
  3664                           ;main.c: 115:     sector_open();
  3665     0A0B  318C  246B  3189   	fcall	_sector_open
  3666     0A0E                     l2884:
  3667                           
  3668                           ;main.c: 116:     file_append((const unsigned char*)"Hello from PIC16F1718! HC Card!\n")
      +                          ;
  3669     0A0E  302C               	movlw	low (STR_45| (0+32768))
  3670     0A0F  0020               	movlb	0	; select bank0
  3671     0A10  00BA               	movwf	file_append@string
  3672     0A11  3091               	movlw	high (STR_45| (0+32768))
  3673     0A12  00BB               	movwf	file_append@string+1
  3674     0A13  318A  222E  3189   	fcall	_file_append
  3675     0A16                     l2886:
  3676                           
  3677                           ;main.c: 117:     file_append((const unsigned char*)"This is a test log line.\n");
  3678     0A16  30A5               	movlw	low (STR_46| (0+32768))
  3679     0A17  0020               	movlb	0	; select bank0
  3680     0A18  00BA               	movwf	file_append@string
  3681     0A19  3091               	movlw	high (STR_46| (0+32768))
  3682     0A1A  00BB               	movwf	file_append@string+1
  3683     0A1B  318A  222E  3189   	fcall	_file_append
  3684     0A1E                     l2888:
  3685                           
  3686                           ;main.c: 118:     sector_close();
  3687     0A1E  3188  20BC  3189   	fcall	_sector_close
  3688     0A21                     l2890:
  3689                           
  3690                           ;main.c: 120:     file_update_size();
  3691     0A21  3180  2030  3189   	fcall	_file_update_size
  3692     0A24                     l2892:
  3693                           
  3694                           ;main.c: 122:     EUSART_Write_Text("Done. Halting.\n");
  3695     0A24  30C5               	movlw	low (STR_47| (0+32768))
  3696     0A25  00F1               	movwf	EUSART_Write_Text@text
  3697     0A26  3092               	movlw	high (STR_47| (0+32768))
  3698     0A27  00F2               	movwf	EUSART_Write_Text@text+1
  3699     0A28  3188  20F8  3189   	fcall	_EUSART_Write_Text
  3700     0A2B                     l417:	
  3701                           ;main.c: 124:     while (1)
  3702                           
  3703     0A2B                     l418:	
  3704                           ;main.c: 125:     {;main.c: 127:     }
  3705                           
  3706     0A2B  2A2B               	goto	l417
  3707     0A2C  3180  2803         	ljmp	start
  3708     0A2E                     __end_of_main:
  3709                           
  3710                           	psect	text1
  3711     028D                     __ptext1:	
  3712 ;; *************** function _mount_disk *****************
  3713 ;; Defined at:
  3714 ;;		line 73 in file "fatfs.c"
  3715 ;; Parameters:    Size  Location     Type
  3716 ;;		None
  3717 ;; Auto vars:     Size  Location     Type
  3718 ;;		None
  3719 ;; Return value:  Size  Location     Type
  3720 ;;                  1    wreg      void 
  3721 ;; Registers used:
  3722 ;;		wreg, fsr0l, fsr0h, fsr1l, fsr1h, status,2, status,0, pclath, cstack
  3723 ;; Tracked objects:
  3724 ;;		On entry : 0/0
  3725 ;;		On exit  : 0/0
  3726 ;;		Unchanged: 0/0
  3727 ;; Data sizes:     COMMON   BANK0   BANK1   BANK2   BANK3   BANK4   BANK5   BANK6   BANK7   BANK8   BANK9  BANK10  BANK1
      +1  BANK12  BANK13  BANK14  BANK15  BANK16  BANK17  BANK18  BANK19  BANK20  BANK21  BANK22  BANK23  BANK24  BANK25
  3728 ;;      Params:         0       0       0       0       0       0       0       0       0       0       0       0       
      +0       0       0       0       0       0       0       0       0       0       0       0       0       0       0
  3729 ;;      Locals:         0       0       0       0       0       0       0       0       0       0       0       0       
      +0       0       0       0       0       0       0       0       0       0       0       0       0       0       0
  3730 ;;      Temps:          0       8       0       0       0       0       0       0       0       0       0       0       
      +0       0       0       0       0       0       0       0       0       0       0       0       0       0       0
  3731 ;;      Totals:         0       8       0       0       0       0       0       0       0       0       0       0       
      +0       0       0       0       0       0       0       0       0       0       0       0       0       0       0
  3732 ;;Total ram usage:        8 bytes
  3733 ;; Hardware stack levels used: 1
  3734 ;; Hardware stack levels required when called: 4
  3735 ;; This function calls:
  3736 ;;		_SDcard_read_block
  3737 ;;		___lmul
  3738 ;;		_dbg
  3739 ;;		_dbg_hex32
  3740 ;;		_dbg_nl
  3741 ;; This function is called by:
  3742 ;;		_main
  3743 ;; This function uses a non-reentrant model
  3744 ;;
  3745                           
  3746     028D                     _mount_disk:	
  3747                           ;psect for function _mount_disk
  3748                           
  3749     028D                     l2436:	
  3750                           ;incstack = 0
  3751                           ; Regs used in _mount_disk: [wreg-fsr1h+status,2+status,0+pclath+cstack]
  3752                           
  3753                           
  3754                           ;fatfs.c: 76:     SDcard_read_block(0x00000000);
  3755     028D  3000               	movlw	0
  3756     028E  00FB               	movwf	SDcard_read_block@address+3
  3757     028F  3000               	movlw	0
  3758     0290  00FA               	movwf	SDcard_read_block@address+2
  3759     0291  3000               	movlw	0
  3760     0292  00F9               	movwf	SDcard_read_block@address+1
  3761     0293  3000               	movlw	0
  3762     0294  00F8               	movwf	SDcard_read_block@address
  3763     0295  318E  261C  3182   	fcall	_SDcard_read_block
  3764     0298                     l2438:
  3765                           
  3766                           ;fatfs.c: 79:     part1_addr = (unsigned long)SDRdata[0x01C6];
  3767     0298  30B6               	movlw	182
  3768     0299  0086               	movwf	6
  3769     029A  3027               	movlw	39
  3770     029B  0087               	movwf	7
  3771     029C  0801               	movf	1,w
  3772     029D  0020               	movlb	0	; select bank0
  3773     029E  00B2               	movwf	??_mount_disk
  3774     029F  01B3               	clrf	??_mount_disk+1
  3775     02A0  01B4               	clrf	??_mount_disk+2
  3776     02A1  01B5               	clrf	??_mount_disk+3
  3777     02A2  0835               	movf	??_mount_disk+3,w
  3778     02A3  0021               	movlb	1	; select bank1
  3779     02A4  00B7               	movwf	(_part1_addr+3)^(0+128)
  3780     02A5  0020               	movlb	0	; select bank0
  3781     02A6  0834               	movf	??_mount_disk+2,w
  3782     02A7  0021               	movlb	1	; select bank1
  3783     02A8  00B6               	movwf	(_part1_addr+2)^(0+128)
  3784     02A9  0020               	movlb	0	; select bank0
  3785     02AA  0833               	movf	??_mount_disk+1,w
  3786     02AB  0021               	movlb	1	; select bank1
  3787     02AC  00B5               	movwf	(_part1_addr+1)^(0+128)
  3788     02AD  0020               	movlb	0	; select bank0
  3789     02AE  0832               	movf	??_mount_disk,w
  3790     02AF  0021               	movlb	1	; select bank1
  3791     02B0  00B4               	movwf	_part1_addr^(0+128)
  3792     02B1                     l2440:
  3793                           
  3794                           ;fatfs.c: 80:     part1_addr |= ((unsigned long)SDRdata[0x01C7] << 8);
  3795     02B1  30B7               	movlw	183
  3796     02B2  0086               	movwf	6
  3797     02B3  3027               	movlw	39
  3798     02B4  0087               	movwf	7
  3799     02B5  0801               	movf	1,w
  3800     02B6  0020               	movlb	0	; select bank0
  3801     02B7  00B2               	movwf	??_mount_disk
  3802     02B8  01B3               	clrf	??_mount_disk+1
  3803     02B9  01B4               	clrf	??_mount_disk+2
  3804     02BA  01B5               	clrf	??_mount_disk+3
  3805     02BB  3008               	movlw	8
  3806     02BC                     u2085:
  3807     02BC  35B2               	lslf	??_mount_disk,f
  3808     02BD  0DB3               	rlf	??_mount_disk+1,f
  3809     02BE  0DB4               	rlf	??_mount_disk+2,f
  3810     02BF  0DB5               	rlf	??_mount_disk+3,f
  3811     02C0                     u2080:
  3812     02C0  0B89               	decfsz	9,f
  3813     02C1  2ABC               	goto	u2085
  3814     02C2  0832               	movf	??_mount_disk,w
  3815     02C3  0021               	movlb	1	; select bank1
  3816     02C4  04B4               	iorwf	_part1_addr^(0+128),f
  3817     02C5  0020               	movlb	0	; select bank0
  3818     02C6  0833               	movf	??_mount_disk+1,w
  3819     02C7  0021               	movlb	1	; select bank1
  3820     02C8  04B5               	iorwf	(_part1_addr+1)^(0+128),f
  3821     02C9  0020               	movlb	0	; select bank0
  3822     02CA  0834               	movf	??_mount_disk+2,w
  3823     02CB  0021               	movlb	1	; select bank1
  3824     02CC  04B6               	iorwf	(_part1_addr+2)^(0+128),f
  3825     02CD  0020               	movlb	0	; select bank0
  3826     02CE  0835               	movf	??_mount_disk+3,w
  3827     02CF  0021               	movlb	1	; select bank1
  3828     02D0  04B7               	iorwf	(_part1_addr+3)^(0+128),f
  3829     02D1                     l2442:
  3830                           
  3831                           ;fatfs.c: 81:     part1_addr |= ((unsigned long)SDRdata[0x01C8] << 16);
  3832     02D1  30B8               	movlw	184
  3833     02D2  0086               	movwf	6
  3834     02D3  3027               	movlw	39
  3835     02D4  0087               	movwf	7
  3836     02D5  0801               	movf	1,w
  3837     02D6  0020               	movlb	0	; select bank0
  3838     02D7  00B2               	movwf	??_mount_disk
  3839     02D8  01B3               	clrf	??_mount_disk+1
  3840     02D9  01B4               	clrf	??_mount_disk+2
  3841     02DA  01B5               	clrf	??_mount_disk+3
  3842     02DB  3010               	movlw	16
  3843     02DC                     u2095:
  3844     02DC  35B2               	lslf	??_mount_disk,f
  3845     02DD  0DB3               	rlf	??_mount_disk+1,f
  3846     02DE  0DB4               	rlf	??_mount_disk+2,f
  3847     02DF  0DB5               	rlf	??_mount_disk+3,f
  3848     02E0                     u2090:
  3849     02E0  0B89               	decfsz	9,f
  3850     02E1  2ADC               	goto	u2095
  3851     02E2  0832               	movf	??_mount_disk,w
  3852     02E3  0021               	movlb	1	; select bank1
  3853     02E4  04B4               	iorwf	_part1_addr^(0+128),f
  3854     02E5  0020               	movlb	0	; select bank0
  3855     02E6  0833               	movf	??_mount_disk+1,w
  3856     02E7  0021               	movlb	1	; select bank1
  3857     02E8  04B5               	iorwf	(_part1_addr+1)^(0+128),f
  3858     02E9  0020               	movlb	0	; select bank0
  3859     02EA  0834               	movf	??_mount_disk+2,w
  3860     02EB  0021               	movlb	1	; select bank1
  3861     02EC  04B6               	iorwf	(_part1_addr+2)^(0+128),f
  3862     02ED  0020               	movlb	0	; select bank0
  3863     02EE  0835               	movf	??_mount_disk+3,w
  3864     02EF  0021               	movlb	1	; select bank1
  3865     02F0  04B7               	iorwf	(_part1_addr+3)^(0+128),f
  3866     02F1                     l2444:
  3867                           
  3868                           ;fatfs.c: 82:     part1_addr |= ((unsigned long)SDRdata[0x01C9] << 24);
  3869     02F1  30B9               	movlw	185
  3870     02F2  0086               	movwf	6
  3871     02F3  3027               	movlw	39
  3872     02F4  0087               	movwf	7
  3873     02F5  0801               	movf	1,w
  3874     02F6  0020               	movlb	0	; select bank0
  3875     02F7  00B2               	movwf	??_mount_disk
  3876     02F8  01B3               	clrf	??_mount_disk+1
  3877     02F9  01B4               	clrf	??_mount_disk+2
  3878     02FA  01B5               	clrf	??_mount_disk+3
  3879     02FB  3018               	movlw	24
  3880     02FC                     u2105:
  3881     02FC  35B2               	lslf	??_mount_disk,f
  3882     02FD  0DB3               	rlf	??_mount_disk+1,f
  3883     02FE  0DB4               	rlf	??_mount_disk+2,f
  3884     02FF  0DB5               	rlf	??_mount_disk+3,f
  3885     0300                     u2100:
  3886     0300  0B89               	decfsz	9,f
  3887     0301  2AFC               	goto	u2105
  3888     0302  0832               	movf	??_mount_disk,w
  3889     0303  0021               	movlb	1	; select bank1
  3890     0304  04B4               	iorwf	_part1_addr^(0+128),f
  3891     0305  0020               	movlb	0	; select bank0
  3892     0306  0833               	movf	??_mount_disk+1,w
  3893     0307  0021               	movlb	1	; select bank1
  3894     0308  04B5               	iorwf	(_part1_addr+1)^(0+128),f
  3895     0309  0020               	movlb	0	; select bank0
  3896     030A  0834               	movf	??_mount_disk+2,w
  3897     030B  0021               	movlb	1	; select bank1
  3898     030C  04B6               	iorwf	(_part1_addr+2)^(0+128),f
  3899     030D  0020               	movlb	0	; select bank0
  3900     030E  0835               	movf	??_mount_disk+3,w
  3901     030F  0021               	movlb	1	; select bank1
  3902     0310  04B7               	iorwf	(_part1_addr+3)^(0+128),f
  3903     0311                     l2446:
  3904                           
  3905                           ;fatfs.c: 85:     part1_addr *= 0x00000200UL;
  3906     0311  3009               	movlw	9
  3907     0312                     u2115:
  3908     0312  35B4               	lslf	_part1_addr^(0+128),f
  3909     0313  0DB5               	rlf	(_part1_addr+1)^(0+128),f
  3910     0314  0DB6               	rlf	(_part1_addr+2)^(0+128),f
  3911     0315  0DB7               	rlf	(_part1_addr+3)^(0+128),f
  3912     0316  0B89               	decfsz	9,f
  3913     0317  2B12               	goto	u2115
  3914     0318                     l2448:
  3915                           
  3916                           ;fatfs.c: 88:     SDcard_read_block(part1_addr);
  3917     0318  0837               	movf	(_part1_addr+3)^(0+128),w
  3918     0319  00FB               	movwf	SDcard_read_block@address+3
  3919     031A  0836               	movf	(_part1_addr+2)^(0+128),w
  3920     031B  00FA               	movwf	SDcard_read_block@address+2
  3921     031C  0835               	movf	(_part1_addr+1)^(0+128),w
  3922     031D  00F9               	movwf	SDcard_read_block@address+1
  3923     031E  0834               	movf	_part1_addr^(0+128),w
  3924     031F  00F8               	movwf	SDcard_read_block@address
  3925     0320  318E  261C  3182   	fcall	_SDcard_read_block
  3926     0323                     l2450:
  3927                           
  3928                           ;fatfs.c: 91:     sector_size = (unsigned int)SDRdata[0x000B];
  3929     0323  30F0               	movlw	240
  3930     0324  0086               	movwf	6
  3931     0325  3025               	movlw	37
  3932     0326  0087               	movwf	7
  3933     0327  314B               	addfsr 1,11
  3934     0328  0801               	movf	1,w
  3935     0329  0020               	movlb	0	; select bank0
  3936     032A  00B2               	movwf	??_mount_disk
  3937     032B  01B3               	clrf	??_mount_disk+1
  3938     032C  0832               	movf	??_mount_disk,w
  3939     032D  00E9               	movwf	_sector_size
  3940     032E  0833               	movf	??_mount_disk+1,w
  3941     032F  00EA               	movwf	_sector_size+1
  3942     0330                     l2452:
  3943                           
  3944                           ;fatfs.c: 92:     sector_size |= ((unsigned int)SDRdata[0x000C] << 8);
  3945     0330  30F0               	movlw	240
  3946     0331  0086               	movwf	6
  3947     0332  3025               	movlw	37
  3948     0333  0087               	movwf	7
  3949     0334  314C               	addfsr 1,12
  3950     0335  0801               	movf	1,w
  3951     0336  00B2               	movwf	??_mount_disk
  3952     0337  01B3               	clrf	??_mount_disk+1
  3953     0338  0832               	movf	??_mount_disk,w
  3954     0339  00B3               	movwf	??_mount_disk+1
  3955     033A  01B2               	clrf	??_mount_disk
  3956     033B  0832               	movf	??_mount_disk,w
  3957     033C  04E9               	iorwf	_sector_size,f
  3958     033D  0833               	movf	??_mount_disk+1,w
  3959     033E  04EA               	iorwf	_sector_size+1,f
  3960     033F                     l2454:
  3961                           
  3962                           ;fatfs.c: 94:     sectors_cluster = SDRdata[0x000D];
  3963     033F  30F0               	movlw	240
  3964     0340  0086               	movwf	6
  3965     0341  3025               	movlw	37
  3966     0342  0087               	movwf	7
  3967     0343  314D               	addfsr 1,13
  3968     0344  0801               	movf	1,w
  3969     0345  00EE               	movwf	_sectors_cluster
  3970     0346                     l2456:
  3971                           
  3972                           ;fatfs.c: 96:     sectors_reserved = (unsigned int)SDRdata[0x000E];
  3973     0346  30F0               	movlw	240
  3974     0347  0086               	movwf	6
  3975     0348  3025               	movlw	37
  3976     0349  0087               	movwf	7
  3977     034A  314E               	addfsr 1,14
  3978     034B  0801               	movf	1,w
  3979     034C  00B2               	movwf	??_mount_disk
  3980     034D  01B3               	clrf	??_mount_disk+1
  3981     034E  0832               	movf	??_mount_disk,w
  3982     034F  00E7               	movwf	_sectors_reserved
  3983     0350  0833               	movf	??_mount_disk+1,w
  3984     0351  00E8               	movwf	_sectors_reserved+1
  3985     0352                     l2458:
  3986                           
  3987                           ;fatfs.c: 97:     sectors_reserved |= ((unsigned int)SDRdata[0x000F] << 8);
  3988     0352  30F0               	movlw	240
  3989     0353  0086               	movwf	6
  3990     0354  3025               	movlw	37
  3991     0355  0087               	movwf	7
  3992     0356  314F               	addfsr 1,15
  3993     0357  0801               	movf	1,w
  3994     0358  00B2               	movwf	??_mount_disk
  3995     0359  01B3               	clrf	??_mount_disk+1
  3996     035A  0832               	movf	??_mount_disk,w
  3997     035B  00B3               	movwf	??_mount_disk+1
  3998     035C  01B2               	clrf	??_mount_disk
  3999     035D  0832               	movf	??_mount_disk,w
  4000     035E  04E7               	iorwf	_sectors_reserved,f
  4001     035F  0833               	movf	??_mount_disk+1,w
  4002     0360  04E8               	iorwf	_sectors_reserved+1,f
  4003     0361                     l2460:
  4004                           
  4005                           ;fatfs.c: 99:     FAT_copies = SDRdata[0x0010];
  4006     0361  30F0               	movlw	240
  4007     0362  0086               	movwf	6
  4008     0363  3025               	movlw	37
  4009     0364  0087               	movwf	7
  4010     0365  3150               	addfsr 1,16
  4011     0366  0801               	movf	1,w
  4012     0367  00ED               	movwf	_FAT_copies
  4013     0368                     l2462:
  4014                           
  4015                           ;fatfs.c: 101:     root_entries = (unsigned int)SDRdata[0x0011];
  4016     0368  30F0               	movlw	240
  4017     0369  0086               	movwf	6
  4018     036A  3025               	movlw	37
  4019     036B  0087               	movwf	7
  4020     036C  3151               	addfsr 1,17
  4021     036D  0801               	movf	1,w
  4022     036E  00B2               	movwf	??_mount_disk
  4023     036F  01B3               	clrf	??_mount_disk+1
  4024     0370  0832               	movf	??_mount_disk,w
  4025     0371  0021               	movlb	1	; select bank1
  4026     0372  00B8               	movwf	_root_entries^(0+128)
  4027     0373  0020               	movlb	0	; select bank0
  4028     0374  0833               	movf	??_mount_disk+1,w
  4029     0375  0021               	movlb	1	; select bank1
  4030     0376  00B9               	movwf	(_root_entries+1)^(0+128)
  4031     0377                     l2464:
  4032                           
  4033                           ;fatfs.c: 102:     root_entries |= ((unsigned int)SDRdata[0x0012] << 8);
  4034     0377  30F0               	movlw	240
  4035     0378  0086               	movwf	6
  4036     0379  3025               	movlw	37
  4037     037A  0087               	movwf	7
  4038     037B  3152               	addfsr 1,18
  4039     037C  0801               	movf	1,w
  4040     037D  0020               	movlb	0	; select bank0
  4041     037E  00B2               	movwf	??_mount_disk
  4042     037F  01B3               	clrf	??_mount_disk+1
  4043     0380  0832               	movf	??_mount_disk,w
  4044     0381  00B3               	movwf	??_mount_disk+1
  4045     0382  01B2               	clrf	??_mount_disk
  4046     0383  0832               	movf	??_mount_disk,w
  4047     0384  0021               	movlb	1	; select bank1
  4048     0385  04B8               	iorwf	_root_entries^(0+128),f
  4049     0386  0020               	movlb	0	; select bank0
  4050     0387  0833               	movf	??_mount_disk+1,w
  4051     0388  0021               	movlb	1	; select bank1
  4052     0389  04B9               	iorwf	(_root_entries+1)^(0+128),f
  4053     038A                     l2466:
  4054                           
  4055                           ;fatfs.c: 104:     sectors_FAT = (unsigned int)SDRdata[0x0016];
  4056     038A  30F0               	movlw	240
  4057     038B  0086               	movwf	6
  4058     038C  3025               	movlw	37
  4059     038D  0087               	movwf	7
  4060     038E  3156               	addfsr 1,22
  4061     038F  0801               	movf	1,w
  4062     0390  0020               	movlb	0	; select bank0
  4063     0391  00B2               	movwf	??_mount_disk
  4064     0392  01B3               	clrf	??_mount_disk+1
  4065     0393  0832               	movf	??_mount_disk,w
  4066     0394  00E5               	movwf	_sectors_FAT
  4067     0395  0833               	movf	??_mount_disk+1,w
  4068     0396  00E6               	movwf	_sectors_FAT+1
  4069     0397                     l2468:
  4070                           
  4071                           ;fatfs.c: 105:     sectors_FAT |= ((unsigned int)SDRdata[0x0017] << 8);
  4072     0397  30F0               	movlw	240
  4073     0398  0086               	movwf	6
  4074     0399  3025               	movlw	37
  4075     039A  0087               	movwf	7
  4076     039B  3157               	addfsr 1,23
  4077     039C  0801               	movf	1,w
  4078     039D  00B2               	movwf	??_mount_disk
  4079     039E  01B3               	clrf	??_mount_disk+1
  4080     039F  0832               	movf	??_mount_disk,w
  4081     03A0  00B3               	movwf	??_mount_disk+1
  4082     03A1  01B2               	clrf	??_mount_disk
  4083     03A2  0832               	movf	??_mount_disk,w
  4084     03A3  04E5               	iorwf	_sectors_FAT,f
  4085     03A4  0833               	movf	??_mount_disk+1,w
  4086     03A5  04E6               	iorwf	_sectors_FAT+1,f
  4087     03A6                     l2470:
  4088                           
  4089                           ;fatfs.c: 108:     FAT_address[0] = part1_addr + ((unsigned long)sectors_reserved * (uns
      +                          igned long)sector_size);
  4090     03A6  0867               	movf	_sectors_reserved,w
  4091     03A7  00F0               	movwf	___lmul@multiplier
  4092     03A8  0868               	movf	_sectors_reserved+1,w
  4093     03A9  00F1               	movwf	___lmul@multiplier+1
  4094     03AA  01F2               	clrf	___lmul@multiplier+2
  4095     03AB  01F3               	clrf	___lmul@multiplier+3
  4096     03AC  0869               	movf	_sector_size,w
  4097     03AD  00F4               	movwf	___lmul@multiplicand
  4098     03AE  086A               	movf	_sector_size+1,w
  4099     03AF  00F5               	movwf	___lmul@multiplicand+1
  4100     03B0  01F6               	clrf	___lmul@multiplicand+2
  4101     03B1  01F7               	clrf	___lmul@multiplicand+3
  4102     03B2  3189  21B3  3182   	fcall	___lmul
  4103     03B5  0870               	movf	?___lmul,w
  4104     03B6  0021               	movlb	1	; select bank1
  4105     03B7  0734               	addwf	_part1_addr^(0+128),w
  4106     03B8  0020               	movlb	0	; select bank0
  4107     03B9  00B2               	movwf	??_mount_disk
  4108     03BA  0871               	movf	?___lmul+1,w
  4109     03BB  0021               	movlb	1	; select bank1
  4110     03BC  3D35               	addwfc	(_part1_addr+1)^(0+128),w
  4111     03BD  0020               	movlb	0	; select bank0
  4112     03BE  00B3               	movwf	??_mount_disk+1
  4113     03BF  0872               	movf	?___lmul+2,w
  4114     03C0  0021               	movlb	1	; select bank1
  4115     03C1  3D36               	addwfc	(_part1_addr+2)^(0+128),w
  4116     03C2  0020               	movlb	0	; select bank0
  4117     03C3  00B4               	movwf	??_mount_disk+2
  4118     03C4  0873               	movf	?___lmul+3,w
  4119     03C5  0021               	movlb	1	; select bank1
  4120     03C6  3D37               	addwfc	(_part1_addr+3)^(0+128),w
  4121     03C7  0020               	movlb	0	; select bank0
  4122     03C8  00B5               	movwf	??_mount_disk+3
  4123     03C9  0835               	movf	??_mount_disk+3,w
  4124     03CA  0021               	movlb	1	; select bank1
  4125     03CB  00A3               	movwf	(_FAT_address+3)^(0+128)
  4126     03CC  0020               	movlb	0	; select bank0
  4127     03CD  0834               	movf	??_mount_disk+2,w
  4128     03CE  0021               	movlb	1	; select bank1
  4129     03CF  00A2               	movwf	(_FAT_address+2)^(0+128)
  4130     03D0  0020               	movlb	0	; select bank0
  4131     03D1  0833               	movf	??_mount_disk+1,w
  4132     03D2  0021               	movlb	1	; select bank1
  4133     03D3  00A1               	movwf	(_FAT_address+1)^(0+128)
  4134     03D4  0020               	movlb	0	; select bank0
  4135     03D5  0832               	movf	??_mount_disk,w
  4136     03D6  0021               	movlb	1	; select bank1
  4137     03D7  00A0               	movwf	_FAT_address^(0+128)
  4138     03D8                     l2472:
  4139                           
  4140                           ;fatfs.c: 109:     FAT_address[1] = FAT_address[0] + ((unsigned long)sectors_FAT * (unsi
      +                          gned long)sector_size);
  4141     03D8  0020               	movlb	0	; select bank0
  4142     03D9  0865               	movf	_sectors_FAT,w
  4143     03DA  00F0               	movwf	___lmul@multiplier
  4144     03DB  0866               	movf	_sectors_FAT+1,w
  4145     03DC  00F1               	movwf	___lmul@multiplier+1
  4146     03DD  01F2               	clrf	___lmul@multiplier+2
  4147     03DE  01F3               	clrf	___lmul@multiplier+3
  4148     03DF  0869               	movf	_sector_size,w
  4149     03E0  00F4               	movwf	___lmul@multiplicand
  4150     03E1  086A               	movf	_sector_size+1,w
  4151     03E2  00F5               	movwf	___lmul@multiplicand+1
  4152     03E3  01F6               	clrf	___lmul@multiplicand+2
  4153     03E4  01F7               	clrf	___lmul@multiplicand+3
  4154     03E5  3189  21B3  3182   	fcall	___lmul
  4155     03E8  0870               	movf	?___lmul,w
  4156     03E9  0021               	movlb	1	; select bank1
  4157     03EA  0720               	addwf	_FAT_address^(0+128),w
  4158     03EB  0020               	movlb	0	; select bank0
  4159     03EC  00B2               	movwf	??_mount_disk
  4160     03ED  0871               	movf	?___lmul+1,w
  4161     03EE  0021               	movlb	1	; select bank1
  4162     03EF  3D21               	addwfc	(_FAT_address+1)^(0+128),w
  4163     03F0  0020               	movlb	0	; select bank0
  4164     03F1  00B3               	movwf	??_mount_disk+1
  4165     03F2  0872               	movf	?___lmul+2,w
  4166     03F3  0021               	movlb	1	; select bank1
  4167     03F4  3D22               	addwfc	(_FAT_address+2)^(0+128),w
  4168     03F5  0020               	movlb	0	; select bank0
  4169     03F6  00B4               	movwf	??_mount_disk+2
  4170     03F7  0873               	movf	?___lmul+3,w
  4171     03F8  0021               	movlb	1	; select bank1
  4172     03F9  3D23               	addwfc	(_FAT_address+3)^(0+128),w
  4173     03FA  0020               	movlb	0	; select bank0
  4174     03FB  00B5               	movwf	??_mount_disk+3
  4175     03FC  0835               	movf	??_mount_disk+3,w
  4176     03FD  0021               	movlb	1	; select bank1
  4177     03FE  00A7               	movwf	((_FAT_address+3)^(0+128)+4)
  4178     03FF  0020               	movlb	0	; select bank0
  4179     0400  0834               	movf	??_mount_disk+2,w
  4180     0401  0021               	movlb	1	; select bank1
  4181     0402  00A6               	movwf	((_FAT_address+2)^(0+128)+4)
  4182     0403  0020               	movlb	0	; select bank0
  4183     0404  0833               	movf	??_mount_disk+1,w
  4184     0405  0021               	movlb	1	; select bank1
  4185     0406  00A5               	movwf	((_FAT_address+1)^(0+128)+4)
  4186     0407  0020               	movlb	0	; select bank0
  4187     0408  0832               	movf	??_mount_disk,w
  4188     0409  0021               	movlb	1	; select bank1
  4189     040A  00A4               	movwf	(_FAT_address^(0+128)+4)
  4190     040B                     l2474:
  4191                           
  4192                           ;fatfs.c: 112:     rootdir_start = FAT_address[1] + ((unsigned long)sectors_FAT * (unsig
      +                          ned long)sector_size);
  4193     040B  0020               	movlb	0	; select bank0
  4194     040C  0865               	movf	_sectors_FAT,w
  4195     040D  00F0               	movwf	___lmul@multiplier
  4196     040E  0866               	movf	_sectors_FAT+1,w
  4197     040F  00F1               	movwf	___lmul@multiplier+1
  4198     0410  01F2               	clrf	___lmul@multiplier+2
  4199     0411  01F3               	clrf	___lmul@multiplier+3
  4200     0412  0869               	movf	_sector_size,w
  4201     0413  00F4               	movwf	___lmul@multiplicand
  4202     0414  086A               	movf	_sector_size+1,w
  4203     0415  00F5               	movwf	___lmul@multiplicand+1
  4204     0416  01F6               	clrf	___lmul@multiplicand+2
  4205     0417  01F7               	clrf	___lmul@multiplicand+3
  4206     0418  3189  21B3  3182   	fcall	___lmul
  4207     041B  0870               	movf	?___lmul,w
  4208     041C  0021               	movlb	1	; select bank1
  4209     041D  0724               	addwf	(_FAT_address^(0+128)+4),w
  4210     041E  0020               	movlb	0	; select bank0
  4211     041F  00B2               	movwf	??_mount_disk
  4212     0420  0871               	movf	?___lmul+1,w
  4213     0421  0021               	movlb	1	; select bank1
  4214     0422  3D25               	addwfc	((_FAT_address+1)^(0+128)+4),w
  4215     0423  0020               	movlb	0	; select bank0
  4216     0424  00B3               	movwf	??_mount_disk+1
  4217     0425  0872               	movf	?___lmul+2,w
  4218     0426  0021               	movlb	1	; select bank1
  4219     0427  3D26               	addwfc	((_FAT_address+2)^(0+128)+4),w
  4220     0428  0020               	movlb	0	; select bank0
  4221     0429  00B4               	movwf	??_mount_disk+2
  4222     042A  0873               	movf	?___lmul+3,w
  4223     042B  0021               	movlb	1	; select bank1
  4224     042C  3D27               	addwfc	((_FAT_address+3)^(0+128)+4),w
  4225     042D  0020               	movlb	0	; select bank0
  4226     042E  00B5               	movwf	??_mount_disk+3
  4227     042F  0835               	movf	??_mount_disk+3,w
  4228     0430  00DE               	movwf	_rootdir_start+3
  4229     0431  0834               	movf	??_mount_disk+2,w
  4230     0432  00DD               	movwf	_rootdir_start+2
  4231     0433  0833               	movf	??_mount_disk+1,w
  4232     0434  00DC               	movwf	_rootdir_start+1
  4233     0435  0832               	movf	??_mount_disk,w
  4234     0436  00DB               	movwf	_rootdir_start
  4235     0437                     l2476:
  4236                           
  4237                           ;fatfs.c: 115:     datareg_start = rootdir_start + ((unsigned long)root_entries * 32UL);
  4238     0437  085B               	movf	_rootdir_start,w
  4239     0438  00B2               	movwf	??_mount_disk
  4240     0439  085C               	movf	_rootdir_start+1,w
  4241     043A  00B3               	movwf	??_mount_disk+1
  4242     043B  085D               	movf	_rootdir_start+2,w
  4243     043C  00B4               	movwf	??_mount_disk+2
  4244     043D  085E               	movf	_rootdir_start+3,w
  4245     043E  00B5               	movwf	??_mount_disk+3
  4246     043F  0021               	movlb	1	; select bank1
  4247     0440  0838               	movf	_root_entries^(0+128),w
  4248     0441  0020               	movlb	0	; select bank0
  4249     0442  00B6               	movwf	??_mount_disk+4
  4250     0443  0021               	movlb	1	; select bank1
  4251     0444  0839               	movf	(_root_entries+1)^(0+128),w
  4252     0445  0020               	movlb	0	; select bank0
  4253     0446  00B7               	movwf	??_mount_disk+5
  4254     0447  01B8               	clrf	??_mount_disk+6
  4255     0448  01B9               	clrf	??_mount_disk+7
  4256     0449  3005               	movlw	5
  4257     044A                     u2125:
  4258     044A  35B6               	lslf	??_mount_disk+4,f
  4259     044B  0DB7               	rlf	??_mount_disk+5,f
  4260     044C  0DB8               	rlf	??_mount_disk+6,f
  4261     044D  0DB9               	rlf	??_mount_disk+7,f
  4262     044E                     u2120:
  4263     044E  0B89               	decfsz	9,f
  4264     044F  2C4A               	goto	u2125
  4265     0450  0836               	movf	??_mount_disk+4,w
  4266     0451  07B2               	addwf	??_mount_disk,f
  4267     0452  0837               	movf	??_mount_disk+5,w
  4268     0453  3DB3               	addwfc	??_mount_disk+1,f
  4269     0454  0838               	movf	??_mount_disk+6,w
  4270     0455  3DB4               	addwfc	??_mount_disk+2,f
  4271     0456  0839               	movf	??_mount_disk+7,w
  4272     0457  3DB5               	addwfc	??_mount_disk+3,f
  4273     0458  0835               	movf	??_mount_disk+3,w
  4274     0459  0021               	movlb	1	; select bank1
  4275     045A  00B3               	movwf	(_datareg_start+3)^(0+128)
  4276     045B  0020               	movlb	0	; select bank0
  4277     045C  0834               	movf	??_mount_disk+2,w
  4278     045D  0021               	movlb	1	; select bank1
  4279     045E  00B2               	movwf	(_datareg_start+2)^(0+128)
  4280     045F  0020               	movlb	0	; select bank0
  4281     0460  0833               	movf	??_mount_disk+1,w
  4282     0461  0021               	movlb	1	; select bank1
  4283     0462  00B1               	movwf	(_datareg_start+1)^(0+128)
  4284     0463  0020               	movlb	0	; select bank0
  4285     0464  0832               	movf	??_mount_disk,w
  4286     0465  0021               	movlb	1	; select bank1
  4287     0466  00B0               	movwf	_datareg_start^(0+128)
  4288     0467                     l2478:
  4289                           
  4290                           ;fatfs.c: 118:     dbg("Mounted disk.\n");
  4291     0467  3004               	movlw	low (STR_1| (0+32768))
  4292     0468  00F6               	movwf	dbg@s
  4293     0469  3093               	movlw	high (STR_1| (0+32768))
  4294     046A  00F7               	movwf	dbg@s+1
  4295     046B  3188  2081  3182   	fcall	_dbg
  4296     046E                     l2480:
  4297                           
  4298                           ;fatfs.c: 119:     dbg("PBR @ "); dbg_hex32(part1_addr); dbg_nl();
  4299     046E  3063               	movlw	low (STR_2| (0+32768))
  4300     046F  00F6               	movwf	dbg@s
  4301     0470  3093               	movlw	high (STR_2| (0+32768))
  4302     0471  00F7               	movwf	dbg@s+1
  4303     0472  3188  2081  3182   	fcall	_dbg
  4304     0475                     l2482:
  4305     0475  0021               	movlb	1	; select bank1
  4306     0476  0837               	movf	(_part1_addr+3)^(0+128),w
  4307     0477  00FB               	movwf	dbg_hex32@v+3
  4308     0478  0836               	movf	(_part1_addr+2)^(0+128),w
  4309     0479  00FA               	movwf	dbg_hex32@v+2
  4310     047A  0835               	movf	(_part1_addr+1)^(0+128),w
  4311     047B  00F9               	movwf	dbg_hex32@v+1
  4312     047C  0834               	movf	_part1_addr^(0+128),w
  4313     047D  00F8               	movwf	dbg_hex32@v
  4314     047E  318A  2277  3182   	fcall	_dbg_hex32
  4315     0481                     l2484:
  4316     0481  3188  2067  3182   	fcall	_dbg_nl
  4317     0484                     l133:
  4318     0484  0008               	return
  4319     0485                     __end_of_mount_disk:
  4320                           
  4321                           	psect	text2
  4322     0BB8                     __ptext2:	
  4323 ;; *************** function _initMain *****************
  4324 ;; Defined at:
  4325 ;;		line 37 in file "main.c"
  4326 ;; Parameters:    Size  Location     Type
  4327 ;;		None
  4328 ;; Auto vars:     Size  Location     Type
  4329 ;;		None
  4330 ;; Return value:  Size  Location     Type
  4331 ;;                  1    wreg      void 
  4332 ;; Registers used:
  4333 ;;		wreg, status,2, status,0, pclath, cstack
  4334 ;; Tracked objects:
  4335 ;;		On entry : 0/0
  4336 ;;		On exit  : 0/0
  4337 ;;		Unchanged: 0/0
  4338 ;; Data sizes:     COMMON   BANK0   BANK1   BANK2   BANK3   BANK4   BANK5   BANK6   BANK7   BANK8   BANK9  BANK10  BANK1
      +1  BANK12  BANK13  BANK14  BANK15  BANK16  BANK17  BANK18  BANK19  BANK20  BANK21  BANK22  BANK23  BANK24  BANK25
  4339 ;;      Params:         0       0       0       0       0       0       0       0       0       0       0       0       
      +0       0       0       0       0       0       0       0       0       0       0       0       0       0       0
  4340 ;;      Locals:         0       0       0       0       0       0       0       0       0       0       0       0       
      +0       0       0       0       0       0       0       0       0       0       0       0       0       0       0
  4341 ;;      Temps:          2       0       0       0       0       0       0       0       0       0       0       0       
      +0       0       0       0       0       0       0       0       0       0       0       0       0       0       0
  4342 ;;      Totals:         2       0       0       0       0       0       0       0       0       0       0       0       
      +0       0       0       0       0       0       0       0       0       0       0       0       0       0       0
  4343 ;;Total ram usage:        2 bytes
  4344 ;; Hardware stack levels used: 1
  4345 ;; Hardware stack levels required when called: 2
  4346 ;; This function calls:
  4347 ;;		_EUSART_Initialize
  4348 ;;		_SPI_Initialize
  4349 ;;		_internal_32
  4350 ;; This function is called by:
  4351 ;;		_main
  4352 ;; This function uses a non-reentrant model
  4353 ;;
  4354                           
  4355     0BB8                     _initMain:	
  4356                           ;psect for function _initMain
  4357                           
  4358     0BB8                     l2786:	
  4359                           ;incstack = 0
  4360                           ; Regs used in _initMain: [wreg+status,2+status,0+pclath+cstack]
  4361                           
  4362                           
  4363                           ;main.c: 40:     internal_32();
  4364     0BB8  3188  2092  318B   	fcall	_internal_32
  4365     0BBB                     l2788:
  4366                           
  4367                           ;main.c: 43:     _delay((unsigned long)((100)*(32000000/4000.0)));
  4368     0BBB  3005               	movlw	5
  4369     0BBC  00FC               	movwf	??_initMain+1
  4370     0BBD  300F               	movlw	15
  4371     0BBE  00FB               	movwf	??_initMain
  4372     0BBF  30F1               	movlw	241
  4373     0BC0                     u2537:
  4374     0BC0  0B89               	decfsz	9,f
  4375     0BC1  2BC0               	goto	u2537
  4376     0BC2  0BFB               	decfsz	??_initMain,f
  4377     0BC3  2BC0               	goto	u2537
  4378     0BC4  0BFC               	decfsz	??_initMain+1,f
  4379     0BC5  2BC0               	goto	u2537
  4380     0BC6  0000               	nop
  4381     0BC7                     l2790:
  4382                           
  4383                           ;main.c: 48:     ANSELBbits.ANSB2 = 0;
  4384     0BC7  0023               	movlb	3	; select bank3
  4385     0BC8  110D               	bcf	13,2	;volatile
  4386     0BC9                     l2792:
  4387                           
  4388                           ;main.c: 49:     ANSELBbits.ANSB3 = 0;
  4389     0BC9  118D               	bcf	13,3	;volatile
  4390     0BCA                     l2794:
  4391                           
  4392                           ;main.c: 50:     TRISBbits.TRISB2 = 0;
  4393     0BCA  0021               	movlb	1	; select bank1
  4394     0BCB  110D               	bcf	13,2	;volatile
  4395     0BCC                     l2796:
  4396                           
  4397                           ;main.c: 51:     TRISBbits.TRISB3 = 1;
  4398     0BCC  158D               	bsf	13,3	;volatile
  4399     0BCD                     l2798:
  4400                           
  4401                           ;main.c: 60:     ANSELCbits.ANSC2 = 0;
  4402     0BCD  0023               	movlb	3	; select bank3
  4403     0BCE  110E               	bcf	14,2	;volatile
  4404     0BCF                     l2800:
  4405                           
  4406                           ;main.c: 61:     ANSELCbits.ANSC3 = 0;
  4407     0BCF  118E               	bcf	14,3	;volatile
  4408     0BD0                     l2802:
  4409                           
  4410                           ;main.c: 62:     ANSELCbits.ANSC4 = 0;
  4411     0BD0  120E               	bcf	14,4	;volatile
  4412     0BD1                     l2804:
  4413                           
  4414                           ;main.c: 63:     ANSELCbits.ANSC5 = 0;
  4415     0BD1  128E               	bcf	14,5	;volatile
  4416     0BD2                     l2806:
  4417                           
  4418                           ;main.c: 65:     TRISCbits.TRISC2 = 0;
  4419     0BD2  0021               	movlb	1	; select bank1
  4420     0BD3  110E               	bcf	14,2	;volatile
  4421     0BD4                     l2808:
  4422                           
  4423                           ;main.c: 66:     TRISCbits.TRISC3 = 0;
  4424     0BD4  118E               	bcf	14,3	;volatile
  4425     0BD5                     l2810:
  4426                           
  4427                           ;main.c: 67:     TRISCbits.TRISC4 = 1;
  4428     0BD5  160E               	bsf	14,4	;volatile
  4429     0BD6                     l2812:
  4430                           
  4431                           ;main.c: 68:     TRISCbits.TRISC5 = 0;
  4432     0BD6  128E               	bcf	14,5	;volatile
  4433     0BD7                     l2814:
  4434                           
  4435                           ;main.c: 70:     LATCbits.LATC2 = 1;
  4436     0BD7  0022               	movlb	2	; select bank2
  4437     0BD8  150E               	bsf	14,2	;volatile
  4438     0BD9                     l2816:
  4439                           
  4440                           ;main.c: 75:     PPSLOCK = 0x55;
  4441     0BD9  3055               	movlw	85
  4442     0BDA  003C               	movlb	28	; select bank28
  4443     0BDB  008F               	movwf	15	;volsfr
  4444     0BDC                     l2818:
  4445                           
  4446                           ;main.c: 76:     PPSLOCK = 0xAA;
  4447     0BDC  30AA               	movlw	170
  4448     0BDD  008F               	movwf	15	;volsfr
  4449     0BDE                     l2820:
  4450                           
  4451                           ;main.c: 77:     PPSLOCKbits.PPSLOCKED = 0x00;
  4452     0BDE  100F               	bcf	15,0	;volsfr
  4453     0BDF                     l2822:
  4454                           
  4455                           ;main.c: 80:     RB2PPSbits.RB2PPS = 0x14;
  4456     0BDF  003D               	movlb	29	; select bank29
  4457     0BE0  081A               	movf	26,w	;volatile
  4458     0BE1  39E0               	andlw	-32
  4459     0BE2  3814               	iorlw	20
  4460     0BE3  009A               	movwf	26	;volatile
  4461     0BE4                     l2824:
  4462                           
  4463                           ;main.c: 81:     RXPPSbits.RXPPS = 0x0B;
  4464     0BE4  003C               	movlb	28	; select bank28
  4465     0BE5  0824               	movf	36,w	;volatile
  4466     0BE6  39E0               	andlw	-32
  4467     0BE7  380B               	iorlw	11
  4468     0BE8  00A4               	movwf	36	;volatile
  4469     0BE9                     l2826:
  4470                           
  4471                           ;main.c: 84:     SSPDATPPSbits.SSPDATPPS = 0x14;
  4472     0BE9  0821               	movf	33,w	;volatile
  4473     0BEA  39E0               	andlw	-32
  4474     0BEB  3814               	iorlw	20
  4475     0BEC  00A1               	movwf	33	;volatile
  4476     0BED                     l2828:
  4477                           
  4478                           ;main.c: 85:     RC3PPSbits.RC3PPS = 0x10;
  4479     0BED  003D               	movlb	29	; select bank29
  4480     0BEE  0823               	movf	35,w	;volatile
  4481     0BEF  39E0               	andlw	-32
  4482     0BF0  3810               	iorlw	16
  4483     0BF1  00A3               	movwf	35	;volatile
  4484     0BF2                     l2830:
  4485                           
  4486                           ;main.c: 86:     RC5PPSbits.RC5PPS = 0x11;
  4487     0BF2  0825               	movf	37,w	;volatile
  4488     0BF3  39E0               	andlw	-32
  4489     0BF4  3811               	iorlw	17
  4490     0BF5  00A5               	movwf	37	;volatile
  4491     0BF6                     l2832:
  4492                           
  4493                           ;main.c: 88:     PPSLOCK = 0x55;
  4494     0BF6  3055               	movlw	85
  4495     0BF7  003C               	movlb	28	; select bank28
  4496     0BF8  008F               	movwf	15	;volsfr
  4497     0BF9                     l2834:
  4498                           
  4499                           ;main.c: 89:     PPSLOCK = 0xAA;
  4500     0BF9  30AA               	movlw	170
  4501     0BFA  008F               	movwf	15	;volsfr
  4502     0BFB                     l2836:
  4503                           
  4504                           ;main.c: 90:     PPSLOCKbits.PPSLOCKED = 0x01;
  4505     0BFB  140F               	bsf	15,0	;volsfr
  4506     0BFC                     l2838:
  4507                           
  4508                           ;main.c: 93:     SPI_Initialize();
  4509     0BFC  3188  2072  318B   	fcall	_SPI_Initialize
  4510     0BFF                     l2840:
  4511                           
  4512                           ;main.c: 94:     EUSART_Initialize(19200);
  4513     0BFF  3000               	movlw	0
  4514     0C00  0020               	movlb	0	; select bank0
  4515     0C01  00A9               	movwf	EUSART_Initialize@baudrate+3
  4516     0C02  3000               	movlw	0
  4517     0C03  00A8               	movwf	EUSART_Initialize@baudrate+2
  4518     0C04  304B               	movlw	75
  4519     0C05  00A7               	movwf	EUSART_Initialize@baudrate+1
  4520     0C06  3000               	movlw	0
  4521     0C07  00A6               	movwf	EUSART_Initialize@baudrate
  4522     0C08  318A  22C3  318B   	fcall	_EUSART_Initialize
  4523     0C0B                     l412:
  4524     0C0B  0008               	return
  4525     0C0C                     __end_of_initMain:
  4526                           
  4527                           	psect	text3
  4528     0892                     __ptext3:	
  4529 ;; *************** function _internal_32 *****************
  4530 ;; Defined at:
  4531 ;;		line 36 in file "PIC16F1718_Internal.c"
  4532 ;; Parameters:    Size  Location     Type
  4533 ;;		None
  4534 ;; Auto vars:     Size  Location     Type
  4535 ;;		None
  4536 ;; Return value:  Size  Location     Type
  4537 ;;                  1    wreg      void 
  4538 ;; Registers used:
  4539 ;;		None
  4540 ;; Tracked objects:
  4541 ;;		On entry : 0/0
  4542 ;;		On exit  : 0/0
  4543 ;;		Unchanged: 0/0
  4544 ;; Data sizes:     COMMON   BANK0   BANK1   BANK2   BANK3   BANK4   BANK5   BANK6   BANK7   BANK8   BANK9  BANK10  BANK1
      +1  BANK12  BANK13  BANK14  BANK15  BANK16  BANK17  BANK18  BANK19  BANK20  BANK21  BANK22  BANK23  BANK24  BANK25
  4545 ;;      Params:         0       0       0       0       0       0       0       0       0       0       0       0       
      +0       0       0       0       0       0       0       0       0       0       0       0       0       0       0
  4546 ;;      Locals:         0       0       0       0       0       0       0       0       0       0       0       0       
      +0       0       0       0       0       0       0       0       0       0       0       0       0       0       0
  4547 ;;      Temps:          0       0       0       0       0       0       0       0       0       0       0       0       
      +0       0       0       0       0       0       0       0       0       0       0       0       0       0       0
  4548 ;;      Totals:         0       0       0       0       0       0       0       0       0       0       0       0       
      +0       0       0       0       0       0       0       0       0       0       0       0       0       0       0
  4549 ;;Total ram usage:        0 bytes
  4550 ;; Hardware stack levels used: 1
  4551 ;; This function calls:
  4552 ;;		Nothing
  4553 ;; This function is called by:
  4554 ;;		_initMain
  4555 ;; This function uses a non-reentrant model
  4556 ;;
  4557                           
  4558     0892                     _internal_32:	
  4559                           ;psect for function _internal_32
  4560                           
  4561     0892                     l1426:	
  4562                           ;incstack = 0
  4563                           ; Regs used in _internal_32: []
  4564                           
  4565                           
  4566                           ;PIC16F1718_Internal.c: 38:     SCS0 = 0;
  4567     0892  0021               	movlb	1	; select bank1
  4568     0893  1019               	bcf	25,0	;volatile
  4569                           
  4570                           ;PIC16F1718_Internal.c: 39:     SCS1 = 0;
  4571     0894  1099               	bcf	25,1	;volatile
  4572                           
  4573                           ;PIC16F1718_Internal.c: 42:     IRCF0 = 0;
  4574     0895  1199               	bcf	25,3	;volatile
  4575                           
  4576                           ;PIC16F1718_Internal.c: 43:     IRCF1 = 1;
  4577     0896  1619               	bsf	25,4	;volatile
  4578                           
  4579                           ;PIC16F1718_Internal.c: 44:     IRCF2 = 1;
  4580     0897  1699               	bsf	25,5	;volatile
  4581                           
  4582                           ;PIC16F1718_Internal.c: 45:     IRCF3 = 1;
  4583     0898  1719               	bsf	25,6	;volatile
  4584                           
  4585                           ;PIC16F1718_Internal.c: 48:     SPLLEN = 1;
  4586     0899  1799               	bsf	25,7	;volatile
  4587     089A                     l194:
  4588     089A  0008               	return
  4589     089B                     __end_of_internal_32:
  4590                           
  4591                           	psect	text4
  4592     0872                     __ptext4:	
  4593 ;; *************** function _SPI_Initialize *****************
  4594 ;; Defined at:
  4595 ;;		line 52 in file "SPI.c"
  4596 ;; Parameters:    Size  Location     Type
  4597 ;;		None
  4598 ;; Auto vars:     Size  Location     Type
  4599 ;;		None
  4600 ;; Return value:  Size  Location     Type
  4601 ;;                  1    wreg      void 
  4602 ;; Registers used:
  4603 ;;		wreg, status,2
  4604 ;; Tracked objects:
  4605 ;;		On entry : 0/0
  4606 ;;		On exit  : 0/0
  4607 ;;		Unchanged: 0/0
  4608 ;; Data sizes:     COMMON   BANK0   BANK1   BANK2   BANK3   BANK4   BANK5   BANK6   BANK7   BANK8   BANK9  BANK10  BANK1
      +1  BANK12  BANK13  BANK14  BANK15  BANK16  BANK17  BANK18  BANK19  BANK20  BANK21  BANK22  BANK23  BANK24  BANK25
  4609 ;;      Params:         0       0       0       0       0       0       0       0       0       0       0       0       
      +0       0       0       0       0       0       0       0       0       0       0       0       0       0       0
  4610 ;;      Locals:         0       0       0       0       0       0       0       0       0       0       0       0       
      +0       0       0       0       0       0       0       0       0       0       0       0       0       0       0
  4611 ;;      Temps:          0       0       0       0       0       0       0       0       0       0       0       0       
      +0       0       0       0       0       0       0       0       0       0       0       0       0       0       0
  4612 ;;      Totals:         0       0       0       0       0       0       0       0       0       0       0       0       
      +0       0       0       0       0       0       0       0       0       0       0       0       0       0       0
  4613 ;;Total ram usage:        0 bytes
  4614 ;; Hardware stack levels used: 1
  4615 ;; This function calls:
  4616 ;;		Nothing
  4617 ;; This function is called by:
  4618 ;;		_initMain
  4619 ;; This function uses a non-reentrant model
  4620 ;;
  4621                           
  4622     0872                     _SPI_Initialize:	
  4623                           ;psect for function _SPI_Initialize
  4624                           
  4625     0872                     l1442:	
  4626                           ;incstack = 0
  4627                           ; Regs used in _SPI_Initialize: [wreg+status,2]
  4628                           
  4629                           
  4630                           ;SPI.c: 59:     SSP1STAT = 0x40;
  4631     0872  3040               	movlw	64
  4632     0873  0024               	movlb	4	; select bank4
  4633     0874  0094               	movwf	20	;volatile
  4634                           
  4635                           ;SPI.c: 63:     SSP1CON1 = 0x22;
  4636     0875  3022               	movlw	34
  4637     0876  0095               	movwf	21	;volatile
  4638     0877                     l1444:
  4639                           
  4640                           ;SPI.c: 66:     SSP1ADD = 0x00;
  4641     0877  0192               	clrf	18	;volatile
  4642     0878                     l331:
  4643     0878  0008               	return
  4644     0879                     __end_of_SPI_Initialize:
  4645                           
  4646                           	psect	text5
  4647     0AC3                     __ptext5:	
  4648 ;; *************** function _EUSART_Initialize *****************
  4649 ;; Defined at:
  4650 ;;		line 36 in file "EUSART.c"
  4651 ;; Parameters:    Size  Location     Type
  4652 ;;  baudrate        4    6[BANK0 ] const long 
  4653 ;; Auto vars:     Size  Location     Type
  4654 ;;  x               2    9[COMMON] unsigned int 
  4655 ;; Return value:  Size  Location     Type
  4656 ;;                  1    wreg      unsigned char 
  4657 ;; Registers used:
  4658 ;;		wreg, status,2, status,0, pclath, cstack
  4659 ;; Tracked objects:
  4660 ;;		On entry : 0/0
  4661 ;;		On exit  : 0/0
  4662 ;;		Unchanged: 0/0
  4663 ;; Data sizes:     COMMON   BANK0   BANK1   BANK2   BANK3   BANK4   BANK5   BANK6   BANK7   BANK8   BANK9  BANK10  BANK1
      +1  BANK12  BANK13  BANK14  BANK15  BANK16  BANK17  BANK18  BANK19  BANK20  BANK21  BANK22  BANK23  BANK24  BANK25
  4664 ;;      Params:         0       4       0       0       0       0       0       0       0       0       0       0       
      +0       0       0       0       0       0       0       0       0       0       0       0       0       0       0
  4665 ;;      Locals:         2       0       0       0       0       0       0       0       0       0       0       0       
      +0       0       0       0       0       0       0       0       0       0       0       0       0       0       0
  4666 ;;      Temps:          0      12       0       0       0       0       0       0       0       0       0       0       
      +0       0       0       0       0       0       0       0       0       0       0       0       0       0       0
  4667 ;;      Totals:         2      16       0       0       0       0       0       0       0       0       0       0       
      +0       0       0       0       0       0       0       0       0       0       0       0       0       0       0
  4668 ;;Total ram usage:       18 bytes
  4669 ;; Hardware stack levels used: 1
  4670 ;; Hardware stack levels required when called: 1
  4671 ;; This function calls:
  4672 ;;		___aldiv
  4673 ;; This function is called by:
  4674 ;;		_initMain
  4675 ;; This function uses a non-reentrant model
  4676 ;;
  4677                           
  4678     0AC3                     _EUSART_Initialize:	
  4679                           ;psect for function _EUSART_Initialize
  4680                           
  4681     0AC3                     l2378:	
  4682                           ;incstack = 0
  4683                           ; Regs used in _EUSART_Initialize: [wreg+status,2+status,0+pclath+cstack]
  4684                           
  4685                           
  4686                           ;EUSART.c: 36: char EUSART_Initialize(const long int baudrate);EUSART.c: 37: {;EUSART.c:
      +                           38:     unsigned int x;;EUSART.c: 39:  x = (32000000 - baudrate*64)/(baudrate*64);
  4687     0AC3  0020               	movlb	0	; select bank0
  4688     0AC4  0826               	movf	EUSART_Initialize@baudrate,w
  4689     0AC5  00AA               	movwf	??_EUSART_Initialize
  4690     0AC6  0827               	movf	EUSART_Initialize@baudrate+1,w
  4691     0AC7  00AB               	movwf	??_EUSART_Initialize+1
  4692     0AC8  0828               	movf	EUSART_Initialize@baudrate+2,w
  4693     0AC9  00AC               	movwf	??_EUSART_Initialize+2
  4694     0ACA  0829               	movf	EUSART_Initialize@baudrate+3,w
  4695     0ACB  00AD               	movwf	??_EUSART_Initialize+3
  4696     0ACC  3006               	movlw	6
  4697     0ACD                     u2045:
  4698     0ACD  35AA               	lslf	??_EUSART_Initialize,f
  4699     0ACE  0DAB               	rlf	??_EUSART_Initialize+1,f
  4700     0ACF  0DAC               	rlf	??_EUSART_Initialize+2,f
  4701     0AD0  0DAD               	rlf	??_EUSART_Initialize+3,f
  4702     0AD1                     u2040:
  4703     0AD1  0B89               	decfsz	9,f
  4704     0AD2  2ACD               	goto	u2045
  4705     0AD3  082D               	movf	??_EUSART_Initialize+3,w
  4706     0AD4  00F3               	movwf	___aldiv@divisor+3
  4707     0AD5  082C               	movf	??_EUSART_Initialize+2,w
  4708     0AD6  00F2               	movwf	___aldiv@divisor+2
  4709     0AD7  082B               	movf	??_EUSART_Initialize+1,w
  4710     0AD8  00F1               	movwf	___aldiv@divisor+1
  4711     0AD9  082A               	movf	??_EUSART_Initialize,w
  4712     0ADA  00F0               	movwf	___aldiv@divisor
  4713     0ADB  0826               	movf	EUSART_Initialize@baudrate,w
  4714     0ADC  00AE               	movwf	??_EUSART_Initialize+4
  4715     0ADD  0827               	movf	EUSART_Initialize@baudrate+1,w
  4716     0ADE  00AF               	movwf	??_EUSART_Initialize+5
  4717     0ADF  0828               	movf	EUSART_Initialize@baudrate+2,w
  4718     0AE0  00B0               	movwf	??_EUSART_Initialize+6
  4719     0AE1  0829               	movf	EUSART_Initialize@baudrate+3,w
  4720     0AE2  00B1               	movwf	??_EUSART_Initialize+7
  4721     0AE3  3006               	movlw	6
  4722     0AE4                     u2055:
  4723     0AE4  35AE               	lslf	??_EUSART_Initialize+4,f
  4724     0AE5  0DAF               	rlf	??_EUSART_Initialize+5,f
  4725     0AE6  0DB0               	rlf	??_EUSART_Initialize+6,f
  4726     0AE7  0DB1               	rlf	??_EUSART_Initialize+7,f
  4727     0AE8                     u2050:
  4728     0AE8  0B89               	decfsz	9,f
  4729     0AE9  2AE4               	goto	u2055
  4730     0AEA  3000               	movlw	0
  4731     0AEB  00B2               	movwf	??_EUSART_Initialize+8
  4732     0AEC  3048               	movlw	72
  4733     0AED  00B3               	movwf	??_EUSART_Initialize+9
  4734     0AEE  30E8               	movlw	232
  4735     0AEF  00B4               	movwf	??_EUSART_Initialize+10
  4736     0AF0  3001               	movlw	1
  4737     0AF1  00B5               	movwf	??_EUSART_Initialize+11
  4738     0AF2  082E               	movf	??_EUSART_Initialize+4,w
  4739     0AF3  02B2               	subwf	??_EUSART_Initialize+8,f
  4740     0AF4  082F               	movf	??_EUSART_Initialize+5,w
  4741     0AF5  3BB3               	subwfb	??_EUSART_Initialize+9,f
  4742     0AF6  0830               	movf	??_EUSART_Initialize+6,w
  4743     0AF7  3BB4               	subwfb	??_EUSART_Initialize+10,f
  4744     0AF8  0831               	movf	??_EUSART_Initialize+7,w
  4745     0AF9  3BB5               	subwfb	??_EUSART_Initialize+11,f
  4746     0AFA  0835               	movf	??_EUSART_Initialize+11,w
  4747     0AFB  00F7               	movwf	___aldiv@dividend+3
  4748     0AFC  0834               	movf	??_EUSART_Initialize+10,w
  4749     0AFD  00F6               	movwf	___aldiv@dividend+2
  4750     0AFE  0833               	movf	??_EUSART_Initialize+9,w
  4751     0AFF  00F5               	movwf	___aldiv@dividend+1
  4752     0B00  0832               	movf	??_EUSART_Initialize+8,w
  4753     0B01  00F4               	movwf	___aldiv@dividend
  4754     0B02  318C  24F3  318A   	fcall	___aldiv
  4755     0B05  0871               	movf	?___aldiv+1,w
  4756     0B06  00FA               	movwf	EUSART_Initialize@x+1
  4757     0B07  0870               	movf	?___aldiv,w
  4758     0B08  00F9               	movwf	EUSART_Initialize@x
  4759     0B09                     l2380:
  4760                           
  4761                           ;EUSART.c: 41:  SPBRGL = x;
  4762     0B09  0879               	movf	EUSART_Initialize@x,w
  4763     0B0A  0023               	movlb	3	; select bank3
  4764     0B0B  009B               	movwf	27	;volatile
  4765     0B0C                     l2382:
  4766                           
  4767                           ;EUSART.c: 42:     BRGH = 0;
  4768     0B0C  111E               	bcf	30,2	;volatile
  4769     0B0D                     l2384:
  4770                           
  4771                           ;EUSART.c: 43:     BRG16 = 0;
  4772     0B0D  119F               	bcf	31,3	;volatile
  4773     0B0E                     l2386:
  4774                           
  4775                           ;EUSART.c: 44:     SYNC = 0;
  4776     0B0E  121E               	bcf	30,4	;volatile
  4777     0B0F                     l2388:
  4778                           
  4779                           ;EUSART.c: 45:     SPEN = 1;
  4780     0B0F  179D               	bsf	29,7	;volatile
  4781     0B10                     l2390:
  4782                           
  4783                           ;EUSART.c: 46:     CREN = 1;
  4784     0B10  161D               	bsf	29,4	;volatile
  4785     0B11                     l2392:
  4786                           
  4787                           ;EUSART.c: 47:     TXEN = 1;
  4788     0B11  169E               	bsf	30,5	;volatile
  4789     0B12                     l25:
  4790     0B12  0008               	return
  4791     0B13                     __end_of_EUSART_Initialize:
  4792                           
  4793                           	psect	text6
  4794     0CF3                     __ptext6:	
  4795 ;; *************** function ___aldiv *****************
  4796 ;; Defined at:
  4797 ;;		line 5 in file "C:\Program Files\Microchip\xc8\v2.46\pic\sources\c99\common\aldiv.c"
  4798 ;; Parameters:    Size  Location     Type
  4799 ;;  divisor         4    0[COMMON] long 
  4800 ;;  dividend        4    4[COMMON] long 
  4801 ;; Auto vars:     Size  Location     Type
  4802 ;;  quotient        4    2[BANK0 ] long 
  4803 ;;  sign            1    1[BANK0 ] unsigned char 
  4804 ;;  counter         1    0[BANK0 ] unsigned char 
  4805 ;; Return value:  Size  Location     Type
  4806 ;;                  4    0[COMMON] long 
  4807 ;; Registers used:
  4808 ;;		wreg, status,2, status,0
  4809 ;; Tracked objects:
  4810 ;;		On entry : 0/0
  4811 ;;		On exit  : 0/0
  4812 ;;		Unchanged: 0/0
  4813 ;; Data sizes:     COMMON   BANK0   BANK1   BANK2   BANK3   BANK4   BANK5   BANK6   BANK7   BANK8   BANK9  BANK10  BANK1
      +1  BANK12  BANK13  BANK14  BANK15  BANK16  BANK17  BANK18  BANK19  BANK20  BANK21  BANK22  BANK23  BANK24  BANK25
  4814 ;;      Params:         8       0       0       0       0       0       0       0       0       0       0       0       
      +0       0       0       0       0       0       0       0       0       0       0       0       0       0       0
  4815 ;;      Locals:         0       6       0       0       0       0       0       0       0       0       0       0       
      +0       0       0       0       0       0       0       0       0       0       0       0       0       0       0
  4816 ;;      Temps:          1       0       0       0       0       0       0       0       0       0       0       0       
      +0       0       0       0       0       0       0       0       0       0       0       0       0       0       0
  4817 ;;      Totals:         9       6       0       0       0       0       0       0       0       0       0       0       
      +0       0       0       0       0       0       0       0       0       0       0       0       0       0       0
  4818 ;;Total ram usage:       15 bytes
  4819 ;; Hardware stack levels used: 1
  4820 ;; This function calls:
  4821 ;;		Nothing
  4822 ;; This function is called by:
  4823 ;;		_EUSART_Initialize
  4824 ;; This function uses a non-reentrant model
  4825 ;;
  4826                           
  4827     0CF3                     ___aldiv:	
  4828                           ;psect for function ___aldiv
  4829                           
  4830     0CF3                     l2338:	
  4831                           ;incstack = 0
  4832                           ; Regs used in ___aldiv: [wreg+status,2+status,0]
  4833                           
  4834     0CF3  0020               	movlb	0	; select bank0
  4835     0CF4  01A1               	clrf	___aldiv@sign
  4836     0CF5                     l2340:
  4837     0CF5  1FF3               	btfss	___aldiv@divisor+3,7
  4838     0CF6  2CF8               	goto	u1941
  4839     0CF7  2CF9               	goto	u1940
  4840     0CF8                     u1941:
  4841     0CF8  2D06               	goto	l553
  4842     0CF9                     u1940:
  4843     0CF9                     l2342:
  4844     0CF9  09F0               	comf	___aldiv@divisor,f
  4845     0CFA  09F1               	comf	___aldiv@divisor+1,f
  4846     0CFB  09F2               	comf	___aldiv@divisor+2,f
  4847     0CFC  09F3               	comf	___aldiv@divisor+3,f
  4848     0CFD  0AF0               	incf	___aldiv@divisor,f
  4849     0CFE  1903               	skipnz
  4850     0CFF  0AF1               	incf	___aldiv@divisor+1,f
  4851     0D00  1903               	skipnz
  4852     0D01  0AF2               	incf	___aldiv@divisor+2,f
  4853     0D02  1903               	skipnz
  4854     0D03  0AF3               	incf	___aldiv@divisor+3,f
  4855     0D04  01A1               	clrf	___aldiv@sign
  4856     0D05  0AA1               	incf	___aldiv@sign,f
  4857     0D06                     l553:
  4858     0D06  1FF7               	btfss	___aldiv@dividend+3,7
  4859     0D07  2D09               	goto	u1951
  4860     0D08  2D0A               	goto	u1950
  4861     0D09                     u1951:
  4862     0D09  2D19               	goto	l2348
  4863     0D0A                     u1950:
  4864     0D0A                     l2344:
  4865     0D0A  09F4               	comf	___aldiv@dividend,f
  4866     0D0B  09F5               	comf	___aldiv@dividend+1,f
  4867     0D0C  09F6               	comf	___aldiv@dividend+2,f
  4868     0D0D  09F7               	comf	___aldiv@dividend+3,f
  4869     0D0E  0AF4               	incf	___aldiv@dividend,f
  4870     0D0F  1903               	skipnz
  4871     0D10  0AF5               	incf	___aldiv@dividend+1,f
  4872     0D11  1903               	skipnz
  4873     0D12  0AF6               	incf	___aldiv@dividend+2,f
  4874     0D13  1903               	skipnz
  4875     0D14  0AF7               	incf	___aldiv@dividend+3,f
  4876     0D15                     l2346:
  4877     0D15  3001               	movlw	1
  4878     0D16  00F8               	movwf	??___aldiv
  4879     0D17  0878               	movf	??___aldiv,w
  4880     0D18  06A1               	xorwf	___aldiv@sign,f
  4881     0D19                     l2348:
  4882     0D19  3000               	movlw	0
  4883     0D1A  00A5               	movwf	___aldiv@quotient+3
  4884     0D1B  3000               	movlw	0
  4885     0D1C  00A4               	movwf	___aldiv@quotient+2
  4886     0D1D  3000               	movlw	0
  4887     0D1E  00A3               	movwf	___aldiv@quotient+1
  4888     0D1F  3000               	movlw	0
  4889     0D20  00A2               	movwf	___aldiv@quotient
  4890     0D21                     l2350:
  4891     0D21  0873               	movf	___aldiv@divisor+3,w
  4892     0D22  0472               	iorwf	___aldiv@divisor+2,w
  4893     0D23  0471               	iorwf	___aldiv@divisor+1,w
  4894     0D24  0470               	iorwf	___aldiv@divisor,w
  4895     0D25  1903               	skipnz
  4896     0D26  2D28               	goto	u1961
  4897     0D27  2D29               	goto	u1960
  4898     0D28                     u1961:
  4899     0D28  2D6A               	goto	l2370
  4900     0D29                     u1960:
  4901     0D29                     l2352:
  4902     0D29  01A0               	clrf	___aldiv@counter
  4903     0D2A  0AA0               	incf	___aldiv@counter,f
  4904     0D2B  2D37               	goto	l2356
  4905     0D2C                     l2354:
  4906     0D2C  3001               	movlw	1
  4907     0D2D                     u1975:
  4908     0D2D  35F0               	lslf	___aldiv@divisor,f
  4909     0D2E  0DF1               	rlf	___aldiv@divisor+1,f
  4910     0D2F  0DF2               	rlf	___aldiv@divisor+2,f
  4911     0D30  0DF3               	rlf	___aldiv@divisor+3,f
  4912     0D31  0B89               	decfsz	9,f
  4913     0D32  2D2D               	goto	u1975
  4914     0D33  3001               	movlw	1
  4915     0D34  00F8               	movwf	??___aldiv
  4916     0D35  0878               	movf	??___aldiv,w
  4917     0D36  07A0               	addwf	___aldiv@counter,f
  4918     0D37                     l2356:
  4919     0D37  1FF3               	btfss	___aldiv@divisor+3,7
  4920     0D38  2D3A               	goto	u1981
  4921     0D39  2D3B               	goto	u1980
  4922     0D3A                     u1981:
  4923     0D3A  2D2C               	goto	l2354
  4924     0D3B                     u1980:
  4925     0D3B                     l2358:
  4926     0D3B  3001               	movlw	1
  4927     0D3C                     u1995:
  4928     0D3C  35A2               	lslf	___aldiv@quotient,f
  4929     0D3D  0DA3               	rlf	___aldiv@quotient+1,f
  4930     0D3E  0DA4               	rlf	___aldiv@quotient+2,f
  4931     0D3F  0DA5               	rlf	___aldiv@quotient+3,f
  4932     0D40  0B89               	decfsz	9,f
  4933     0D41  2D3C               	goto	u1995
  4934     0D42                     l2360:
  4935     0D42  0873               	movf	___aldiv@divisor+3,w
  4936     0D43  0277               	subwf	___aldiv@dividend+3,w
  4937     0D44  1D03               	skipz
  4938     0D45  2D50               	goto	u2005
  4939     0D46  0872               	movf	___aldiv@divisor+2,w
  4940     0D47  0276               	subwf	___aldiv@dividend+2,w
  4941     0D48  1D03               	skipz
  4942     0D49  2D50               	goto	u2005
  4943     0D4A  0871               	movf	___aldiv@divisor+1,w
  4944     0D4B  0275               	subwf	___aldiv@dividend+1,w
  4945     0D4C  1D03               	skipz
  4946     0D4D  2D50               	goto	u2005
  4947     0D4E  0870               	movf	___aldiv@divisor,w
  4948     0D4F  0274               	subwf	___aldiv@dividend,w
  4949     0D50                     u2005:
  4950     0D50  1C03               	skipc
  4951     0D51  2D53               	goto	u2001
  4952     0D52  2D54               	goto	u2000
  4953     0D53                     u2001:
  4954     0D53  2D5D               	goto	l2366
  4955     0D54                     u2000:
  4956     0D54                     l2362:
  4957     0D54  0870               	movf	___aldiv@divisor,w
  4958     0D55  02F4               	subwf	___aldiv@dividend,f
  4959     0D56  0871               	movf	___aldiv@divisor+1,w
  4960     0D57  3BF5               	subwfb	___aldiv@dividend+1,f
  4961     0D58  0872               	movf	___aldiv@divisor+2,w
  4962     0D59  3BF6               	subwfb	___aldiv@dividend+2,f
  4963     0D5A  0873               	movf	___aldiv@divisor+3,w
  4964     0D5B  3BF7               	subwfb	___aldiv@dividend+3,f
  4965     0D5C                     l2364:
  4966     0D5C  1422               	bsf	___aldiv@quotient,0
  4967     0D5D                     l2366:
  4968     0D5D  3001               	movlw	1
  4969     0D5E                     u2015:
  4970     0D5E  36F3               	lsrf	___aldiv@divisor+3,f
  4971     0D5F  0CF2               	rrf	___aldiv@divisor+2,f
  4972     0D60  0CF1               	rrf	___aldiv@divisor+1,f
  4973     0D61  0CF0               	rrf	___aldiv@divisor,f
  4974     0D62  0B89               	decfsz	9,f
  4975     0D63  2D5E               	goto	u2015
  4976     0D64                     l2368:
  4977     0D64  3001               	movlw	1
  4978     0D65  02A0               	subwf	___aldiv@counter,f
  4979     0D66  1D03               	btfss	3,2
  4980     0D67  2D69               	goto	u2021
  4981     0D68  2D6A               	goto	u2020
  4982     0D69                     u2021:
  4983     0D69  2D3B               	goto	l2358
  4984     0D6A                     u2020:
  4985     0D6A                     l2370:
  4986     0D6A  0821               	movf	___aldiv@sign,w
  4987     0D6B  1903               	btfsc	3,2
  4988     0D6C  2D6E               	goto	u2031
  4989     0D6D  2D6F               	goto	u2030
  4990     0D6E                     u2031:
  4991     0D6E  2D7A               	goto	l2374
  4992     0D6F                     u2030:
  4993     0D6F                     l2372:
  4994     0D6F  09A2               	comf	___aldiv@quotient,f
  4995     0D70  09A3               	comf	___aldiv@quotient+1,f
  4996     0D71  09A4               	comf	___aldiv@quotient+2,f
  4997     0D72  09A5               	comf	___aldiv@quotient+3,f
  4998     0D73  0AA2               	incf	___aldiv@quotient,f
  4999     0D74  1903               	skipnz
  5000     0D75  0AA3               	incf	___aldiv@quotient+1,f
  5001     0D76  1903               	skipnz
  5002     0D77  0AA4               	incf	___aldiv@quotient+2,f
  5003     0D78  1903               	skipnz
  5004     0D79  0AA5               	incf	___aldiv@quotient+3,f
  5005     0D7A                     l2374:
  5006     0D7A  0825               	movf	___aldiv@quotient+3,w
  5007     0D7B  00F3               	movwf	?___aldiv+3
  5008     0D7C  0824               	movf	___aldiv@quotient+2,w
  5009     0D7D  00F2               	movwf	?___aldiv+2
  5010     0D7E  0823               	movf	___aldiv@quotient+1,w
  5011     0D7F  00F1               	movwf	?___aldiv+1
  5012     0D80  0822               	movf	___aldiv@quotient,w
  5013     0D81  00F0               	movwf	?___aldiv
  5014     0D82                     l563:
  5015     0D82  0008               	return
  5016     0D83                     __end_of___aldiv:
  5017                           
  5018                           	psect	text7
  5019     0030                     __ptext7:	
  5020 ;; *************** function _file_update_size *****************
  5021 ;; Defined at:
  5022 ;;		line 291 in file "fatfs.c"
  5023 ;; Parameters:    Size  Location     Type
  5024 ;;		None
  5025 ;; Auto vars:     Size  Location     Type
  5026 ;;  i               2   12[COMMON] unsigned int 
  5027 ;; Return value:  Size  Location     Type
  5028 ;;                  1    wreg      void 
  5029 ;; Registers used:
  5030 ;;		wreg, fsr0l, fsr0h, fsr1l, fsr1h, status,2, status,0, pclath, cstack
  5031 ;; Tracked objects:
  5032 ;;		On entry : 0/0
  5033 ;;		On exit  : 0/0
  5034 ;;		Unchanged: 0/0
  5035 ;; Data sizes:     COMMON   BANK0   BANK1   BANK2   BANK3   BANK4   BANK5   BANK6   BANK7   BANK8   BANK9  BANK10  BANK1
      +1  BANK12  BANK13  BANK14  BANK15  BANK16  BANK17  BANK18  BANK19  BANK20  BANK21  BANK22  BANK23  BANK24  BANK25
  5036 ;;      Params:         0       0       0       0       0       0       0       0       0       0       0       0       
      +0       0       0       0       0       0       0       0       0       0       0       0       0       0       0
  5037 ;;      Locals:         2       0       0       0       0       0       0       0       0       0       0       0       
      +0       0       0       0       0       0       0       0       0       0       0       0       0       0       0
  5038 ;;      Temps:          0       9       0       0       0       0       0       0       0       0       0       0       
      +0       0       0       0       0       0       0       0       0       0       0       0       0       0       0
  5039 ;;      Totals:         2       9       0       0       0       0       0       0       0       0       0       0       
      +0       0       0       0       0       0       0       0       0       0       0       0       0       0       0
  5040 ;;Total ram usage:       11 bytes
  5041 ;; Hardware stack levels used: 1
  5042 ;; Hardware stack levels required when called: 4
  5043 ;; This function calls:
  5044 ;;		_SDcard_read_block
  5045 ;;		_SDcard_write_block
  5046 ;;		_dbg
  5047 ;;		_dbg_hex32
  5048 ;;		_dbg_nl
  5049 ;; This function is called by:
  5050 ;;		_main
  5051 ;; This function uses a non-reentrant model
  5052 ;;
  5053                           
  5054     0030                     _file_update_size:	
  5055                           ;psect for function _file_update_size
  5056                           
  5057     0030                     l2630:	
  5058                           ;incstack = 0
  5059                           ; Regs used in _file_update_size: [wreg-fsr1h+status,2+status,0+pclath+cstack]
  5060                           
  5061                           
  5062                           ;fatfs.c: 293:     SDcard_read_block(rootdir_start);
  5063     0030  0020               	movlb	0	; select bank0
  5064     0031  085E               	movf	_rootdir_start+3,w
  5065     0032  00FB               	movwf	SDcard_read_block@address+3
  5066     0033  085D               	movf	_rootdir_start+2,w
  5067     0034  00FA               	movwf	SDcard_read_block@address+2
  5068     0035  085C               	movf	_rootdir_start+1,w
  5069     0036  00F9               	movwf	SDcard_read_block@address+1
  5070     0037  085B               	movf	_rootdir_start,w
  5071     0038  00F8               	movwf	SDcard_read_block@address
  5072     0039  318E  261C  3180   	fcall	_SDcard_read_block
  5073     003C                     l2632:
  5074                           
  5075                           ;fatfs.c: 295:     for (unsigned int i = 0; i < 512; i++)
  5076     003C  01FC               	clrf	file_update_size@i
  5077     003D  01FD               	clrf	file_update_size@i+1
  5078     003E                     l2638:
  5079                           
  5080                           ;fatfs.c: 296:         SDWdata[i] = SDRdata[i];
  5081     003E  30F0               	movlw	240
  5082     003F  0020               	movlb	0	; select bank0
  5083     0040  00B2               	movwf	??_file_update_size
  5084     0041  3025               	movlw	37
  5085     0042  00B3               	movwf	??_file_update_size+1
  5086     0043  087C               	movf	file_update_size@i,w
  5087     0044  0732               	addwf	??_file_update_size,w
  5088     0045  0086               	movwf	6
  5089     0046  087D               	movf	file_update_size@i+1,w
  5090     0047  3D33               	addwfc	??_file_update_size+1,w
  5091     0048  0087               	movwf	7
  5092     0049  0801               	movf	1,w
  5093     004A  00B4               	movwf	??_file_update_size+2
  5094     004B  30F0               	movlw	240
  5095     004C  00B5               	movwf	??_file_update_size+3
  5096     004D  3023               	movlw	35
  5097     004E  00B6               	movwf	??_file_update_size+4
  5098     004F  087C               	movf	file_update_size@i,w
  5099     0050  0735               	addwf	??_file_update_size+3,w
  5100     0051  00B7               	movwf	??_file_update_size+5
  5101     0052  087D               	movf	file_update_size@i+1,w
  5102     0053  3D36               	addwfc	??_file_update_size+4,w
  5103     0054  00B8               	movwf	??_file_update_size+6
  5104     0055  0837               	movf	??_file_update_size+5,w
  5105     0056  0086               	movwf	6
  5106     0057  0838               	movf	??_file_update_size+6,w
  5107     0058  0087               	movwf	7
  5108     0059  0834               	movf	??_file_update_size+2,w
  5109     005A  0081               	movwf	1
  5110     005B                     l2640:
  5111     005B  3001               	movlw	1
  5112     005C  07FC               	addwf	file_update_size@i,f
  5113     005D  3000               	movlw	0
  5114     005E  3DFD               	addwfc	file_update_size@i+1,f
  5115     005F                     l2642:
  5116     005F  3002               	movlw	2
  5117     0060  027D               	subwf	file_update_size@i+1,w
  5118     0061  3000               	movlw	0
  5119     0062  1903               	skipnz
  5120     0063  027C               	subwf	file_update_size@i,w
  5121     0064  1C03               	skipc
  5122     0065  2867               	goto	u2291
  5123     0066  2868               	goto	u2290
  5124     0067                     u2291:
  5125     0067  283E               	goto	l2638
  5126     0068                     u2290:
  5127     0068                     l2644:
  5128                           
  5129                           ;fatfs.c: 298:     dbg("File size: ");
  5130     0068  303D               	movlw	low (STR_11| (0+32768))
  5131     0069  00F6               	movwf	dbg@s
  5132     006A  3093               	movlw	high (STR_11| (0+32768))
  5133     006B  00F7               	movwf	dbg@s+1
  5134     006C  3188  2081  3180   	fcall	_dbg
  5135     006F                     l2646:
  5136                           
  5137                           ;fatfs.c: 299:     dbg_hex32(file_length);
  5138     006F  0020               	movlb	0	; select bank0
  5139     0070  085A               	movf	_file_length+3,w
  5140     0071  00FB               	movwf	dbg_hex32@v+3
  5141     0072  0859               	movf	_file_length+2,w
  5142     0073  00FA               	movwf	dbg_hex32@v+2
  5143     0074  0858               	movf	_file_length+1,w
  5144     0075  00F9               	movwf	dbg_hex32@v+1
  5145     0076  0857               	movf	_file_length,w
  5146     0077  00F8               	movwf	dbg_hex32@v
  5147     0078  318A  2277  3180   	fcall	_dbg_hex32
  5148     007B                     l2648:
  5149                           
  5150                           ;fatfs.c: 300:     dbg_nl();
  5151     007B  3188  2067  3180   	fcall	_dbg_nl
  5152     007E                     l2650:
  5153                           
  5154                           ;fatfs.c: 302:     SDWdata[entry_addr + 0x1C] = (unsigned char)(file_length & 0xFF);
  5155     007E  300C               	movlw	12
  5156     007F  0020               	movlb	0	; select bank0
  5157     0080  00B2               	movwf	??_file_update_size
  5158     0081  3024               	movlw	36
  5159     0082  00B3               	movwf	??_file_update_size+1
  5160     0083  0861               	movf	_entry_addr,w
  5161     0084  0732               	addwf	??_file_update_size,w
  5162     0085  00B4               	movwf	??_file_update_size+2
  5163     0086  0862               	movf	_entry_addr+1,w
  5164     0087  3D33               	addwfc	??_file_update_size+1,w
  5165     0088  00B5               	movwf	??_file_update_size+3
  5166     0089  0834               	movf	??_file_update_size+2,w
  5167     008A  0086               	movwf	6
  5168     008B  0835               	movf	??_file_update_size+3,w
  5169     008C  0087               	movwf	7
  5170     008D  0857               	movf	_file_length,w
  5171     008E  0081               	movwf	1
  5172     008F                     l2652:
  5173                           
  5174                           ;fatfs.c: 303:     SDWdata[entry_addr + 0x1D] = (unsigned char)((file_length >> 8) & 0xF
      +                          F);
  5175     008F  0857               	movf	_file_length,w
  5176     0090  00B2               	movwf	??_file_update_size
  5177     0091  0858               	movf	_file_length+1,w
  5178     0092  00B3               	movwf	??_file_update_size+1
  5179     0093  0859               	movf	_file_length+2,w
  5180     0094  00B4               	movwf	??_file_update_size+2
  5181     0095  085A               	movf	_file_length+3,w
  5182     0096  00B5               	movwf	??_file_update_size+3
  5183     0097  3008               	movlw	8
  5184     0098                     u2305:
  5185     0098  36B5               	lsrf	??_file_update_size+3,f
  5186     0099  0CB4               	rrf	??_file_update_size+2,f
  5187     009A  0CB3               	rrf	??_file_update_size+1,f
  5188     009B  0CB2               	rrf	??_file_update_size,f
  5189     009C                     u2300:
  5190     009C  0B89               	decfsz	9,f
  5191     009D  2898               	goto	u2305
  5192     009E  0832               	movf	??_file_update_size,w
  5193     009F  00B6               	movwf	??_file_update_size+4
  5194     00A0  300D               	movlw	13
  5195     00A1  00B7               	movwf	??_file_update_size+5
  5196     00A2  3024               	movlw	36
  5197     00A3  00B8               	movwf	??_file_update_size+6
  5198     00A4  0861               	movf	_entry_addr,w
  5199     00A5  0737               	addwf	??_file_update_size+5,w
  5200     00A6  00B9               	movwf	??_file_update_size+7
  5201     00A7  0862               	movf	_entry_addr+1,w
  5202     00A8  3D38               	addwfc	??_file_update_size+6,w
  5203     00A9  00BA               	movwf	??_file_update_size+8
  5204     00AA  0839               	movf	??_file_update_size+7,w
  5205     00AB  0086               	movwf	6
  5206     00AC  083A               	movf	??_file_update_size+8,w
  5207     00AD  0087               	movwf	7
  5208     00AE  0836               	movf	??_file_update_size+4,w
  5209     00AF  0081               	movwf	1
  5210     00B0                     l2654:
  5211                           
  5212                           ;fatfs.c: 304:     SDWdata[entry_addr + 0x1E] = (unsigned char)((file_length >> 16) & 0x
      +                          FF);
  5213     00B0  0857               	movf	_file_length,w
  5214     00B1  00B2               	movwf	??_file_update_size
  5215     00B2  0858               	movf	_file_length+1,w
  5216     00B3  00B3               	movwf	??_file_update_size+1
  5217     00B4  0859               	movf	_file_length+2,w
  5218     00B5  00B4               	movwf	??_file_update_size+2
  5219     00B6  085A               	movf	_file_length+3,w
  5220     00B7  00B5               	movwf	??_file_update_size+3
  5221     00B8  3010               	movlw	16
  5222     00B9                     u2315:
  5223     00B9  36B5               	lsrf	??_file_update_size+3,f
  5224     00BA  0CB4               	rrf	??_file_update_size+2,f
  5225     00BB  0CB3               	rrf	??_file_update_size+1,f
  5226     00BC  0CB2               	rrf	??_file_update_size,f
  5227     00BD                     u2310:
  5228     00BD  0B89               	decfsz	9,f
  5229     00BE  28B9               	goto	u2315
  5230     00BF  0832               	movf	??_file_update_size,w
  5231     00C0  00B6               	movwf	??_file_update_size+4
  5232     00C1  300E               	movlw	14
  5233     00C2  00B7               	movwf	??_file_update_size+5
  5234     00C3  3024               	movlw	36
  5235     00C4  00B8               	movwf	??_file_update_size+6
  5236     00C5  0861               	movf	_entry_addr,w
  5237     00C6  0737               	addwf	??_file_update_size+5,w
  5238     00C7  00B9               	movwf	??_file_update_size+7
  5239     00C8  0862               	movf	_entry_addr+1,w
  5240     00C9  3D38               	addwfc	??_file_update_size+6,w
  5241     00CA  00BA               	movwf	??_file_update_size+8
  5242     00CB  0839               	movf	??_file_update_size+7,w
  5243     00CC  0086               	movwf	6
  5244     00CD  083A               	movf	??_file_update_size+8,w
  5245     00CE  0087               	movwf	7
  5246     00CF  0836               	movf	??_file_update_size+4,w
  5247     00D0  0081               	movwf	1
  5248     00D1                     l2656:
  5249                           
  5250                           ;fatfs.c: 305:     SDWdata[entry_addr + 0x1F] = (unsigned char)((file_length >> 24) & 0x
      +                          FF);
  5251     00D1  0857               	movf	_file_length,w
  5252     00D2  00B2               	movwf	??_file_update_size
  5253     00D3  0858               	movf	_file_length+1,w
  5254     00D4  00B3               	movwf	??_file_update_size+1
  5255     00D5  0859               	movf	_file_length+2,w
  5256     00D6  00B4               	movwf	??_file_update_size+2
  5257     00D7  085A               	movf	_file_length+3,w
  5258     00D8  00B5               	movwf	??_file_update_size+3
  5259     00D9  3018               	movlw	24
  5260     00DA                     u2325:
  5261     00DA  36B5               	lsrf	??_file_update_size+3,f
  5262     00DB  0CB4               	rrf	??_file_update_size+2,f
  5263     00DC  0CB3               	rrf	??_file_update_size+1,f
  5264     00DD  0CB2               	rrf	??_file_update_size,f
  5265     00DE                     u2320:
  5266     00DE  0B89               	decfsz	9,f
  5267     00DF  28DA               	goto	u2325
  5268     00E0  0832               	movf	??_file_update_size,w
  5269     00E1  00B6               	movwf	??_file_update_size+4
  5270     00E2  300F               	movlw	15
  5271     00E3  00B7               	movwf	??_file_update_size+5
  5272     00E4  3024               	movlw	36
  5273     00E5  00B8               	movwf	??_file_update_size+6
  5274     00E6  0861               	movf	_entry_addr,w
  5275     00E7  0737               	addwf	??_file_update_size+5,w
  5276     00E8  00B9               	movwf	??_file_update_size+7
  5277     00E9  0862               	movf	_entry_addr+1,w
  5278     00EA  3D38               	addwfc	??_file_update_size+6,w
  5279     00EB  00BA               	movwf	??_file_update_size+8
  5280     00EC  0839               	movf	??_file_update_size+7,w
  5281     00ED  0086               	movwf	6
  5282     00EE  083A               	movf	??_file_update_size+8,w
  5283     00EF  0087               	movwf	7
  5284     00F0  0836               	movf	??_file_update_size+4,w
  5285     00F1  0081               	movwf	1
  5286     00F2                     l2658:
  5287                           
  5288                           ;fatfs.c: 307:     SDcard_write_block(rootdir_start);
  5289     00F2  085E               	movf	_rootdir_start+3,w
  5290     00F3  00FB               	movwf	SDcard_write_block@address+3
  5291     00F4  085D               	movf	_rootdir_start+2,w
  5292     00F5  00FA               	movwf	SDcard_write_block@address+2
  5293     00F6  085C               	movf	_rootdir_start+1,w
  5294     00F7  00F9               	movwf	SDcard_write_block@address+1
  5295     00F8  085B               	movf	_rootdir_start,w
  5296     00F9  00F8               	movwf	SDcard_write_block@address
  5297     00FA  318E  26DA  3180   	fcall	_SDcard_write_block
  5298     00FD                     l177:
  5299     00FD  0008               	return
  5300     00FE                     __end_of_file_update_size:
  5301                           
  5302                           	psect	text8
  5303     0485                     __ptext8:	
  5304 ;; *************** function _file_create *****************
  5305 ;; Defined at:
  5306 ;;		line 122 in file "fatfs.c"
  5307 ;; Parameters:    Size  Location     Type
  5308 ;;  filename        2   31[BANK0 ] PTR const unsigned char 
  5309 ;;		 -> STR_44(13), 
  5310 ;; Auto vars:     Size  Location     Type
  5311 ;;  idx             2   45[BANK0 ] unsigned int 
  5312 ;;  i               2   51[BANK0 ] unsigned int 
  5313 ;;  idx             2   47[BANK0 ] unsigned int 
  5314 ;;  i               2   49[BANK0 ] unsigned int 
  5315 ;;  offset          1   44[BANK0 ] unsigned char 
  5316 ;; Return value:  Size  Location     Type
  5317 ;;                  1    wreg      void 
  5318 ;; Registers used:
  5319 ;;		wreg, fsr0l, fsr0h, fsr1l, fsr1h, status,2, status,0, pclath, cstack
  5320 ;; Tracked objects:
  5321 ;;		On entry : 0/0
  5322 ;;		On exit  : 0/0
  5323 ;;		Unchanged: 0/0
  5324 ;; Data sizes:     COMMON   BANK0   BANK1   BANK2   BANK3   BANK4   BANK5   BANK6   BANK7   BANK8   BANK9  BANK10  BANK1
      +1  BANK12  BANK13  BANK14  BANK15  BANK16  BANK17  BANK18  BANK19  BANK20  BANK21  BANK22  BANK23  BANK24  BANK25
  5325 ;;      Params:         0       2       0       0       0       0       0       0       0       0       0       0       
      +0       0       0       0       0       0       0       0       0       0       0       0       0       0       0
  5326 ;;      Locals:         0      13       0       0       0       0       0       0       0       0       0       0       
      +0       0       0       0       0       0       0       0       0       0       0       0       0       0       0
  5327 ;;      Temps:          0       7       0       0       0       0       0       0       0       0       0       0       
      +0       0       0       0       0       0       0       0       0       0       0       0       0       0       0
  5328 ;;      Totals:         0      22       0       0       0       0       0       0       0       0       0       0       
      +0       0       0       0       0       0       0       0       0       0       0       0       0       0       0
  5329 ;;Total ram usage:       22 bytes
  5330 ;; Hardware stack levels used: 1
  5331 ;; Hardware stack levels required when called: 4
  5332 ;; This function calls:
  5333 ;;		_SDcard_read_block
  5334 ;;		_SDcard_write_block
  5335 ;;		___lmul
  5336 ;;		_dbg
  5337 ;;		_dbg_hex32
  5338 ;;		_dbg_nl
  5339 ;;		_dbg_u16_dec
  5340 ;; This function is called by:
  5341 ;;		_main
  5342 ;; This function uses a non-reentrant model
  5343 ;;
  5344                           
  5345     0485                     _file_create:	
  5346                           ;psect for function _file_create
  5347                           
  5348     0485                     l2486:	
  5349                           ;incstack = 0
  5350                           ; Regs used in _file_create: [wreg-fsr1h+status,2+status,0+pclath+cstack]
  5351                           
  5352                           
  5353                           ;fatfs.c: 122: void file_create(const unsigned char* filename);fatfs.c: 123: {;fatfs.c: 
      +                          125:     SDcard_read_block(FAT_address[0]);
  5354     0485  0021               	movlb	1	; select bank1
  5355     0486  0823               	movf	(_FAT_address+3)^(0+128),w
  5356     0487  00FB               	movwf	SDcard_read_block@address+3
  5357     0488  0822               	movf	(_FAT_address+2)^(0+128),w
  5358     0489  00FA               	movwf	SDcard_read_block@address+2
  5359     048A  0821               	movf	(_FAT_address+1)^(0+128),w
  5360     048B  00F9               	movwf	SDcard_read_block@address+1
  5361     048C  0820               	movf	_FAT_address^(0+128),w
  5362     048D  00F8               	movwf	SDcard_read_block@address
  5363     048E  318E  261C  3184   	fcall	_SDcard_read_block
  5364     0491                     l2488:
  5365                           
  5366                           ;fatfs.c: 128:     dbg("Searching first unallocated cluster...");
  5367     0491  309B               	movlw	low (STR_3| (0+32768))
  5368     0492  00F6               	movwf	dbg@s
  5369     0493  3090               	movlw	high (STR_3| (0+32768))
  5370     0494  00F7               	movwf	dbg@s+1
  5371     0495  3188  2081  3184   	fcall	_dbg
  5372     0498                     l2490:
  5373                           
  5374                           ;fatfs.c: 129:     for (cluster_number = 0; cluster_number < 0xFFFF; cluster_number++)
  5375     0498  0020               	movlb	0	; select bank0
  5376     0499  01E3               	clrf	_cluster_number
  5377     049A  01E4               	clrf	_cluster_number+1
  5378     049B                     l2496:
  5379                           
  5380                           ;fatfs.c: 130:     {;fatfs.c: 131:         unsigned int idx = (unsigned int)(cluster_num
      +                          ber * 2U);
  5381     049B  3563               	lslf	_cluster_number,w
  5382     049C  00CD               	movwf	file_create@idx
  5383     049D  0D64               	rlf	_cluster_number+1,w
  5384     049E  00CE               	movwf	file_create@idx+1
  5385     049F                     l2498:
  5386                           
  5387                           ;fatfs.c: 132:         if (idx + 1U >= 512U) break;
  5388     049F  084D               	movf	file_create@idx,w
  5389     04A0  3E01               	addlw	1
  5390     04A1  00C1               	movwf	??_file_create
  5391     04A2  3000               	movlw	0
  5392     04A3  3D4E               	addwfc	file_create@idx+1,w
  5393     04A4  00C2               	movwf	??_file_create+1
  5394     04A5  3002               	movlw	2
  5395     04A6  0242               	subwf	??_file_create+1,w
  5396     04A7  3000               	movlw	0
  5397     04A8  1903               	skipnz
  5398     04A9  0241               	subwf	??_file_create,w
  5399     04AA  1C03               	skipc
  5400     04AB  2CAD               	goto	u2131
  5401     04AC  2CAE               	goto	u2130
  5402     04AD                     u2131:
  5403     04AD  2CAF               	goto	l2502
  5404     04AE                     u2130:
  5405     04AE  2CDA               	goto	l2512
  5406     04AF                     l2502:
  5407                           
  5408                           ;fatfs.c: 134:         if ((SDRdata[idx] == 0) && (SDRdata[idx + 1] == 0))
  5409     04AF  30F0               	movlw	240
  5410     04B0  00C1               	movwf	??_file_create
  5411     04B1  3025               	movlw	37
  5412     04B2  00C2               	movwf	??_file_create+1
  5413     04B3  084D               	movf	file_create@idx,w
  5414     04B4  0741               	addwf	??_file_create,w
  5415     04B5  0086               	movwf	6
  5416     04B6  084E               	movf	file_create@idx+1,w
  5417     04B7  3D42               	addwfc	??_file_create+1,w
  5418     04B8  0087               	movwf	7
  5419     04B9  0801               	movf	1,w
  5420     04BA  1D03               	btfss	3,2
  5421     04BB  2CBD               	goto	u2141
  5422     04BC  2CBE               	goto	u2140
  5423     04BD                     u2141:
  5424     04BD  2CCE               	goto	l2508
  5425     04BE                     u2140:
  5426     04BE                     l2504:
  5427     04BE  30F1               	movlw	241
  5428     04BF  00C1               	movwf	??_file_create
  5429     04C0  3025               	movlw	37
  5430     04C1  00C2               	movwf	??_file_create+1
  5431     04C2  084D               	movf	file_create@idx,w
  5432     04C3  0741               	addwf	??_file_create,w
  5433     04C4  0086               	movwf	6
  5434     04C5  084E               	movf	file_create@idx+1,w
  5435     04C6  3D42               	addwfc	??_file_create+1,w
  5436     04C7  0087               	movwf	7
  5437     04C8  0801               	movf	1,w
  5438     04C9  1D03               	btfss	3,2
  5439     04CA  2CCC               	goto	u2151
  5440     04CB  2CCD               	goto	u2150
  5441     04CC                     u2151:
  5442     04CC  2CCE               	goto	l2508
  5443     04CD                     u2150:
  5444     04CD  2CDA               	goto	l2512
  5445     04CE                     l2508:
  5446                           
  5447                           ;fatfs.c: 136:     }
  5448     04CE  3001               	movlw	1
  5449     04CF  07E3               	addwf	_cluster_number,f
  5450     04D0  3000               	movlw	0
  5451     04D1  3DE4               	addwfc	_cluster_number+1,f
  5452     04D2                     l2510:
  5453     04D2  0A63               	incf	_cluster_number,w
  5454     04D3  1D03               	skipz
  5455     04D4  2CD9               	goto	u2161
  5456     04D5  0A64               	incf	_cluster_number+1,w
  5457     04D6  1D03               	btfss	3,2
  5458     04D7  2CD9               	goto	u2161
  5459     04D8  2CDA               	goto	u2160
  5460     04D9                     u2161:
  5461     04D9  2C9B               	goto	l2496
  5462     04DA                     u2160:
  5463     04DA                     l2512:
  5464                           
  5465                           ;fatfs.c: 137:     dbg("done!\n");
  5466     04DA  305C               	movlw	low (STR_4| (0+32768))
  5467     04DB  00F6               	movwf	dbg@s
  5468     04DC  3093               	movlw	high (STR_4| (0+32768))
  5469     04DD  00F7               	movwf	dbg@s+1
  5470     04DE  3188  2081  3184   	fcall	_dbg
  5471     04E1                     l2514:
  5472                           
  5473                           ;fatfs.c: 140:     for (unsigned int i = 0; i < 512; i++)
  5474     04E1  0020               	movlb	0	; select bank0
  5475     04E2  01D1               	clrf	file_create@i
  5476     04E3  01D2               	clrf	file_create@i+1
  5477     04E4                     l2520:
  5478                           
  5479                           ;fatfs.c: 141:         SDWdata[i] = SDRdata[i];
  5480     04E4  30F0               	movlw	240
  5481     04E5  00C1               	movwf	??_file_create
  5482     04E6  3025               	movlw	37
  5483     04E7  00C2               	movwf	??_file_create+1
  5484     04E8  0851               	movf	file_create@i,w
  5485     04E9  0741               	addwf	??_file_create,w
  5486     04EA  0086               	movwf	6
  5487     04EB  0852               	movf	file_create@i+1,w
  5488     04EC  3D42               	addwfc	??_file_create+1,w
  5489     04ED  0087               	movwf	7
  5490     04EE  0801               	movf	1,w
  5491     04EF  00C3               	movwf	??_file_create+2
  5492     04F0  30F0               	movlw	240
  5493     04F1  00C4               	movwf	??_file_create+3
  5494     04F2  3023               	movlw	35
  5495     04F3  00C5               	movwf	??_file_create+4
  5496     04F4  0851               	movf	file_create@i,w
  5497     04F5  0744               	addwf	??_file_create+3,w
  5498     04F6  00C6               	movwf	??_file_create+5
  5499     04F7  0852               	movf	file_create@i+1,w
  5500     04F8  3D45               	addwfc	??_file_create+4,w
  5501     04F9  00C7               	movwf	??_file_create+6
  5502     04FA  0846               	movf	??_file_create+5,w
  5503     04FB  0086               	movwf	6
  5504     04FC  0847               	movf	??_file_create+6,w
  5505     04FD  0087               	movwf	7
  5506     04FE  0843               	movf	??_file_create+2,w
  5507     04FF  0081               	movwf	1
  5508     0500                     l2522:
  5509     0500  3001               	movlw	1
  5510     0501  07D1               	addwf	file_create@i,f
  5511     0502  3000               	movlw	0
  5512     0503  3DD2               	addwfc	file_create@i+1,f
  5513     0504                     l2524:
  5514     0504  3002               	movlw	2
  5515     0505  0252               	subwf	file_create@i+1,w
  5516     0506  3000               	movlw	0
  5517     0507  1903               	skipnz
  5518     0508  0251               	subwf	file_create@i,w
  5519     0509  1C03               	skipc
  5520     050A  2D0C               	goto	u2171
  5521     050B  2D0D               	goto	u2170
  5522     050C                     u2171:
  5523     050C  2CE4               	goto	l2520
  5524     050D                     u2170:
  5525     050D                     l2526:
  5526                           
  5527                           ;fatfs.c: 143:     {;fatfs.c: 144:         unsigned int idx = (unsigned int)(cluster_num
      +                          ber * 2U);
  5528     050D  3563               	lslf	_cluster_number,w
  5529     050E  00CF               	movwf	file_create@idx_176
  5530     050F  0D64               	rlf	_cluster_number+1,w
  5531     0510  00D0               	movwf	file_create@idx_176+1
  5532     0511                     l2528:
  5533                           
  5534                           ;fatfs.c: 145:         if (idx + 1U < 512U)
  5535     0511  084F               	movf	file_create@idx_176,w
  5536     0512  3E01               	addlw	1
  5537     0513  00C1               	movwf	??_file_create
  5538     0514  3000               	movlw	0
  5539     0515  3D50               	addwfc	file_create@idx_176+1,w
  5540     0516  00C2               	movwf	??_file_create+1
  5541     0517  3002               	movlw	2
  5542     0518  0242               	subwf	??_file_create+1,w
  5543     0519  3000               	movlw	0
  5544     051A  1903               	skipnz
  5545     051B  0241               	subwf	??_file_create,w
  5546     051C  1803               	skipnc
  5547     051D  2D1F               	goto	u2181
  5548     051E  2D20               	goto	u2180
  5549     051F                     u2181:
  5550     051F  2D40               	goto	l2532
  5551     0520                     u2180:
  5552     0520                     l2530:
  5553                           
  5554                           ;fatfs.c: 146:         {;fatfs.c: 147:             SDWdata[idx] = 0xFF;
  5555     0520  30F0               	movlw	240
  5556     0521  00C1               	movwf	??_file_create
  5557     0522  3023               	movlw	35
  5558     0523  00C2               	movwf	??_file_create+1
  5559     0524  084F               	movf	file_create@idx_176,w
  5560     0525  0741               	addwf	??_file_create,w
  5561     0526  00C3               	movwf	??_file_create+2
  5562     0527  0850               	movf	file_create@idx_176+1,w
  5563     0528  3D42               	addwfc	??_file_create+1,w
  5564     0529  00C4               	movwf	??_file_create+3
  5565     052A  0843               	movf	??_file_create+2,w
  5566     052B  0086               	movwf	6
  5567     052C  0844               	movf	??_file_create+3,w
  5568     052D  0087               	movwf	7
  5569     052E  30FF               	movlw	255
  5570     052F  0081               	movwf	1
  5571                           
  5572                           ;fatfs.c: 148:             SDWdata[idx + 1] = 0xFF;
  5573     0530  30F1               	movlw	241
  5574     0531  00C1               	movwf	??_file_create
  5575     0532  3023               	movlw	35
  5576     0533  00C2               	movwf	??_file_create+1
  5577     0534  084F               	movf	file_create@idx_176,w
  5578     0535  0741               	addwf	??_file_create,w
  5579     0536  00C3               	movwf	??_file_create+2
  5580     0537  0850               	movf	file_create@idx_176+1,w
  5581     0538  3D42               	addwfc	??_file_create+1,w
  5582     0539  00C4               	movwf	??_file_create+3
  5583     053A  0843               	movf	??_file_create+2,w
  5584     053B  0086               	movwf	6
  5585     053C  0844               	movf	??_file_create+3,w
  5586     053D  0087               	movwf	7
  5587     053E  30FF               	movlw	255
  5588     053F  0081               	movwf	1
  5589     0540                     l2532:
  5590                           
  5591                           ;fatfs.c: 150:     };fatfs.c: 153:     SDcard_write_block(FAT_address[0]);
  5592     0540  0021               	movlb	1	; select bank1
  5593     0541  0823               	movf	(_FAT_address+3)^(0+128),w
  5594     0542  00FB               	movwf	SDcard_write_block@address+3
  5595     0543  0822               	movf	(_FAT_address+2)^(0+128),w
  5596     0544  00FA               	movwf	SDcard_write_block@address+2
  5597     0545  0821               	movf	(_FAT_address+1)^(0+128),w
  5598     0546  00F9               	movwf	SDcard_write_block@address+1
  5599     0547  0820               	movf	_FAT_address^(0+128),w
  5600     0548  00F8               	movwf	SDcard_write_block@address
  5601     0549  318E  26DA  3184   	fcall	_SDcard_write_block
  5602     054C                     l2534:
  5603                           
  5604                           ;fatfs.c: 154:     SDcard_write_block(FAT_address[1]);
  5605     054C  3004               	movlw	4
  5606     054D  3EA0               	addlw	(low (_FAT_address| 0))& (0+255)
  5607     054E  0086               	movwf	6
  5608     054F  0187               	clrf	7
  5609     0550  3F40               	moviw [0]fsr1
  5610     0551  00F8               	movwf	SDcard_write_block@address
  5611     0552  3F41               	moviw [1]fsr1
  5612     0553  00F9               	movwf	SDcard_write_block@address+1
  5613     0554  3F42               	moviw [2]fsr1
  5614     0555  00FA               	movwf	SDcard_write_block@address+2
  5615     0556  3F43               	moviw [3]fsr1
  5616     0557  00FB               	movwf	SDcard_write_block@address+3
  5617     0558  318E  26DA  3184   	fcall	_SDcard_write_block
  5618     055B                     l2536:
  5619                           
  5620                           ;fatfs.c: 157:     start_sector_address =
  5621     055B  0020               	movlb	0	; select bank0
  5622     055C  0863               	movf	_cluster_number,w
  5623     055D  3EFE               	addlw	254
  5624     055E  00F0               	movwf	___lmul@multiplier
  5625     055F  30FF               	movlw	255
  5626     0560  3D64               	addwfc	_cluster_number+1,w
  5627     0561  00F1               	movwf	___lmul@multiplier+1
  5628     0562  01F2               	clrf	___lmul@multiplier+2
  5629     0563  01F3               	clrf	___lmul@multiplier+3
  5630     0564  086E               	movf	_sectors_cluster,w
  5631     0565  00C1               	movwf	??_file_create
  5632     0566  01C2               	clrf	??_file_create+1
  5633     0567  01C3               	clrf	??_file_create+2
  5634     0568  01C4               	clrf	??_file_create+3
  5635     0569  0844               	movf	??_file_create+3,w
  5636     056A  00F7               	movwf	___lmul@multiplicand+3
  5637     056B  0843               	movf	??_file_create+2,w
  5638     056C  00F6               	movwf	___lmul@multiplicand+2
  5639     056D  0842               	movf	??_file_create+1,w
  5640     056E  00F5               	movwf	___lmul@multiplicand+1
  5641     056F  0841               	movf	??_file_create,w
  5642     0570  00F4               	movwf	___lmul@multiplicand
  5643     0571  3189  21B3  3184   	fcall	___lmul
  5644     0574  0873               	movf	?___lmul+3,w
  5645     0575  0020               	movlb	0	; select bank0
  5646     0576  00CB               	movwf	_file_create$1146+3
  5647     0577  0872               	movf	?___lmul+2,w
  5648     0578  00CA               	movwf	_file_create$1146+2
  5649     0579  0871               	movf	?___lmul+1,w
  5650     057A  00C9               	movwf	_file_create$1146+1
  5651     057B  0870               	movf	?___lmul,w
  5652     057C  00C8               	movwf	_file_create$1146
  5653     057D                     l2538:
  5654                           
  5655                           ;fatfs.c: 157:     start_sector_address =
  5656     057D  084B               	movf	_file_create$1146+3,w
  5657     057E  00F3               	movwf	___lmul@multiplier+3
  5658     057F  084A               	movf	_file_create$1146+2,w
  5659     0580  00F2               	movwf	___lmul@multiplier+2
  5660     0581  0849               	movf	_file_create$1146+1,w
  5661     0582  00F1               	movwf	___lmul@multiplier+1
  5662     0583  0848               	movf	_file_create$1146,w
  5663     0584  00F0               	movwf	___lmul@multiplier
  5664     0585  0869               	movf	_sector_size,w
  5665     0586  00F4               	movwf	___lmul@multiplicand
  5666     0587  086A               	movf	_sector_size+1,w
  5667     0588  00F5               	movwf	___lmul@multiplicand+1
  5668     0589  01F6               	clrf	___lmul@multiplicand+2
  5669     058A  01F7               	clrf	___lmul@multiplicand+3
  5670     058B  3189  21B3  3184   	fcall	___lmul
  5671     058E  0870               	movf	?___lmul,w
  5672     058F  0021               	movlb	1	; select bank1
  5673     0590  0730               	addwf	_datareg_start^(0+128),w
  5674     0591  0020               	movlb	0	; select bank0
  5675     0592  00C1               	movwf	??_file_create
  5676     0593  0871               	movf	?___lmul+1,w
  5677     0594  0021               	movlb	1	; select bank1
  5678     0595  3D31               	addwfc	(_datareg_start+1)^(0+128),w
  5679     0596  0020               	movlb	0	; select bank0
  5680     0597  00C2               	movwf	??_file_create+1
  5681     0598  0872               	movf	?___lmul+2,w
  5682     0599  0021               	movlb	1	; select bank1
  5683     059A  3D32               	addwfc	(_datareg_start+2)^(0+128),w
  5684     059B  0020               	movlb	0	; select bank0
  5685     059C  00C3               	movwf	??_file_create+2
  5686     059D  0873               	movf	?___lmul+3,w
  5687     059E  0021               	movlb	1	; select bank1
  5688     059F  3D33               	addwfc	(_datareg_start+3)^(0+128),w
  5689     05A0  0020               	movlb	0	; select bank0
  5690     05A1  00C4               	movwf	??_file_create+3
  5691     05A2  0844               	movf	??_file_create+3,w
  5692     05A3  0021               	movlb	1	; select bank1
  5693     05A4  00AF               	movwf	(_start_sector_address+3)^(0+128)
  5694     05A5  0020               	movlb	0	; select bank0
  5695     05A6  0843               	movf	??_file_create+2,w
  5696     05A7  0021               	movlb	1	; select bank1
  5697     05A8  00AE               	movwf	(_start_sector_address+2)^(0+128)
  5698     05A9  0020               	movlb	0	; select bank0
  5699     05AA  0842               	movf	??_file_create+1,w
  5700     05AB  0021               	movlb	1	; select bank1
  5701     05AC  00AD               	movwf	(_start_sector_address+1)^(0+128)
  5702     05AD  0020               	movlb	0	; select bank0
  5703     05AE  0841               	movf	??_file_create,w
  5704     05AF  0021               	movlb	1	; select bank1
  5705     05B0  00AC               	movwf	_start_sector_address^(0+128)
  5706     05B1                     l2540:
  5707                           
  5708                           ;fatfs.c: 163:     current_sector = 0;
  5709     05B1  0020               	movlb	0	; select bank0
  5710     05B2  01EC               	clrf	_current_sector
  5711     05B3                     l2542:
  5712                           
  5713                           ;fatfs.c: 165:     dbg("Cluster number: ");
  5714     05B3  30B4               	movlw	low (STR_5| (0+32768))
  5715     05B4  00F6               	movwf	dbg@s
  5716     05B5  3092               	movlw	high (STR_5| (0+32768))
  5717     05B6  00F7               	movwf	dbg@s+1
  5718     05B7  3188  2081  3184   	fcall	_dbg
  5719     05BA                     l2544:
  5720                           
  5721                           ;fatfs.c: 166:     dbg_u16_dec(cluster_number);
  5722     05BA  0020               	movlb	0	; select bank0
  5723     05BB  0864               	movf	_cluster_number+1,w
  5724     05BC  00BE               	movwf	dbg_u16_dec@v+1
  5725     05BD  0863               	movf	_cluster_number,w
  5726     05BE  00BD               	movwf	dbg_u16_dec@v
  5727     05BF  3188  2089  3184   	fcall	_dbg_u16_dec
  5728     05C2                     l2546:
  5729                           
  5730                           ;fatfs.c: 167:     dbg_nl();
  5731     05C2  3188  2067  3184   	fcall	_dbg_nl
  5732     05C5                     l2548:
  5733                           
  5734                           ;fatfs.c: 169:     dbg("Sector 0 address: ");
  5735     05C5  306E               	movlw	low (STR_6| (0+32768))
  5736     05C6  00F6               	movwf	dbg@s
  5737     05C7  3092               	movlw	high (STR_6| (0+32768))
  5738     05C8  00F7               	movwf	dbg@s+1
  5739     05C9  3188  2081  3184   	fcall	_dbg
  5740     05CC                     l2550:
  5741                           
  5742                           ;fatfs.c: 170:     dbg_hex32(start_sector_address);
  5743     05CC  0021               	movlb	1	; select bank1
  5744     05CD  082F               	movf	(_start_sector_address+3)^(0+128),w
  5745     05CE  00FB               	movwf	dbg_hex32@v+3
  5746     05CF  082E               	movf	(_start_sector_address+2)^(0+128),w
  5747     05D0  00FA               	movwf	dbg_hex32@v+2
  5748     05D1  082D               	movf	(_start_sector_address+1)^(0+128),w
  5749     05D2  00F9               	movwf	dbg_hex32@v+1
  5750     05D3  082C               	movf	_start_sector_address^(0+128),w
  5751     05D4  00F8               	movwf	dbg_hex32@v
  5752     05D5  318A  2277  3184   	fcall	_dbg_hex32
  5753     05D8                     l2552:
  5754                           
  5755                           ;fatfs.c: 171:     dbg_nl();
  5756     05D8  3188  2067  3184   	fcall	_dbg_nl
  5757     05DB                     l2554:
  5758                           
  5759                           ;fatfs.c: 174:     SDcard_read_block(rootdir_start);
  5760     05DB  0020               	movlb	0	; select bank0
  5761     05DC  085E               	movf	_rootdir_start+3,w
  5762     05DD  00FB               	movwf	SDcard_read_block@address+3
  5763     05DE  085D               	movf	_rootdir_start+2,w
  5764     05DF  00FA               	movwf	SDcard_read_block@address+2
  5765     05E0  085C               	movf	_rootdir_start+1,w
  5766     05E1  00F9               	movwf	SDcard_read_block@address+1
  5767     05E2  085B               	movf	_rootdir_start,w
  5768     05E3  00F8               	movwf	SDcard_read_block@address
  5769     05E4  318E  261C  3184   	fcall	_SDcard_read_block
  5770     05E7                     l2556:
  5771                           
  5772                           ;fatfs.c: 177:     dbg("Searching first unallocated root table entry...");
  5773     05E7  3011               	movlw	low (STR_7| (0+32768))
  5774     05E8  00F6               	movwf	dbg@s
  5775     05E9  3090               	movlw	high (STR_7| (0+32768))
  5776     05EA  00F7               	movwf	dbg@s+1
  5777     05EB  3188  2081  3184   	fcall	_dbg
  5778     05EE                     l2558:
  5779                           
  5780                           ;fatfs.c: 178:     for (entry_addr = 0; entry_addr < 0x0200; entry_addr += 32)
  5781     05EE  0020               	movlb	0	; select bank0
  5782     05EF  01E1               	clrf	_entry_addr
  5783     05F0  01E2               	clrf	_entry_addr+1
  5784     05F1                     l2560:
  5785     05F1  3002               	movlw	2
  5786     05F2  0262               	subwf	_entry_addr+1,w
  5787     05F3  3000               	movlw	0
  5788     05F4  1903               	skipnz
  5789     05F5  0261               	subwf	_entry_addr,w
  5790     05F6  1C03               	skipc
  5791     05F7  2DF9               	goto	u2191
  5792     05F8  2DFA               	goto	u2190
  5793     05F9                     u2191:
  5794     05F9  2DFB               	goto	l2564
  5795     05FA                     u2190:
  5796     05FA  2E28               	goto	l2570
  5797     05FB                     l2564:
  5798                           
  5799                           ;fatfs.c: 179:     {;fatfs.c: 180:         if ((SDRdata[entry_addr] == 0xE5) || (SDRdata
      +                          [entry_addr] == 0x00))
  5800     05FB  30F0               	movlw	240
  5801     05FC  00C1               	movwf	??_file_create
  5802     05FD  3025               	movlw	37
  5803     05FE  00C2               	movwf	??_file_create+1
  5804     05FF  0861               	movf	_entry_addr,w
  5805     0600  0741               	addwf	??_file_create,w
  5806     0601  0086               	movwf	6
  5807     0602  0862               	movf	_entry_addr+1,w
  5808     0603  3D42               	addwfc	??_file_create+1,w
  5809     0604  0087               	movwf	7
  5810     0605  30E5               	movlw	229
  5811     0606  0601               	xorwf	1,w
  5812     0607  1903               	btfsc	3,2
  5813     0608  2E0A               	goto	u2201
  5814     0609  2E0B               	goto	u2200
  5815     060A                     u2201:
  5816     060A  2E28               	goto	l2570
  5817     060B                     u2200:
  5818     060B                     l2566:
  5819     060B  30F0               	movlw	240
  5820     060C  00C1               	movwf	??_file_create
  5821     060D  3025               	movlw	37
  5822     060E  00C2               	movwf	??_file_create+1
  5823     060F  0861               	movf	_entry_addr,w
  5824     0610  0741               	addwf	??_file_create,w
  5825     0611  0086               	movwf	6
  5826     0612  0862               	movf	_entry_addr+1,w
  5827     0613  3D42               	addwfc	??_file_create+1,w
  5828     0614  0087               	movwf	7
  5829     0615  0801               	movf	1,w
  5830     0616  1D03               	btfss	3,2
  5831     0617  2E19               	goto	u2211
  5832     0618  2E1A               	goto	u2210
  5833     0619                     u2211:
  5834     0619  2E1B               	goto	l2568
  5835     061A                     u2210:
  5836     061A  2E28               	goto	l2570
  5837     061B                     l2568:
  5838                           
  5839                           ;fatfs.c: 182:     }
  5840     061B  3020               	movlw	32
  5841     061C  07E1               	addwf	_entry_addr,f
  5842     061D  3000               	movlw	0
  5843     061E  3DE2               	addwfc	_entry_addr+1,f
  5844     061F  3002               	movlw	2
  5845     0620  0262               	subwf	_entry_addr+1,w
  5846     0621  3000               	movlw	0
  5847     0622  1903               	skipnz
  5848     0623  0261               	subwf	_entry_addr,w
  5849     0624  1C03               	skipc
  5850     0625  2E27               	goto	u2221
  5851     0626  2E28               	goto	u2220
  5852     0627                     u2221:
  5853     0627  2DFB               	goto	l2564
  5854     0628                     u2220:
  5855     0628                     l2570:
  5856                           
  5857                           ;fatfs.c: 183:     dbg("done!\n");
  5858     0628  305C               	movlw	low (STR_4| (0+32768))
  5859     0629  00F6               	movwf	dbg@s
  5860     062A  3093               	movlw	high (STR_4| (0+32768))
  5861     062B  00F7               	movwf	dbg@s+1
  5862     062C  3188  2081  3184   	fcall	_dbg
  5863                           
  5864                           ;fatfs.c: 185:     dbg("Entry offset: ");
  5865     062F  3013               	movlw	low (STR_9| (0+32768))
  5866     0630  00F6               	movwf	dbg@s
  5867     0631  3093               	movlw	high (STR_9| (0+32768))
  5868     0632  00F7               	movwf	dbg@s+1
  5869     0633  3188  2081  3184   	fcall	_dbg
  5870     0636                     l2572:
  5871                           
  5872                           ;fatfs.c: 186:     dbg_hex32((unsigned long)entry_addr);
  5873     0636  0020               	movlb	0	; select bank0
  5874     0637  0861               	movf	_entry_addr,w
  5875     0638  00F8               	movwf	dbg_hex32@v
  5876     0639  0862               	movf	_entry_addr+1,w
  5877     063A  00F9               	movwf	dbg_hex32@v+1
  5878     063B  01FA               	clrf	dbg_hex32@v+2
  5879     063C  01FB               	clrf	dbg_hex32@v+3
  5880     063D  318A  2277  3184   	fcall	_dbg_hex32
  5881     0640                     l2574:
  5882                           
  5883                           ;fatfs.c: 187:     dbg_nl();
  5884     0640  3188  2067  3184   	fcall	_dbg_nl
  5885     0643                     l2576:
  5886                           
  5887                           ;fatfs.c: 190:     for (unsigned int i = 0; i < 512; i++)
  5888     0643  0020               	movlb	0	; select bank0
  5889     0644  01D3               	clrf	file_create@i_183
  5890     0645  01D4               	clrf	file_create@i_183+1
  5891     0646                     l2582:
  5892                           
  5893                           ;fatfs.c: 191:         SDWdata[i] = SDRdata[i];
  5894     0646  30F0               	movlw	240
  5895     0647  00C1               	movwf	??_file_create
  5896     0648  3025               	movlw	37
  5897     0649  00C2               	movwf	??_file_create+1
  5898     064A  0853               	movf	file_create@i_183,w
  5899     064B  0741               	addwf	??_file_create,w
  5900     064C  0086               	movwf	6
  5901     064D  0854               	movf	file_create@i_183+1,w
  5902     064E  3D42               	addwfc	??_file_create+1,w
  5903     064F  0087               	movwf	7
  5904     0650  0801               	movf	1,w
  5905     0651  00C3               	movwf	??_file_create+2
  5906     0652  30F0               	movlw	240
  5907     0653  00C4               	movwf	??_file_create+3
  5908     0654  3023               	movlw	35
  5909     0655  00C5               	movwf	??_file_create+4
  5910     0656  0853               	movf	file_create@i_183,w
  5911     0657  0744               	addwf	??_file_create+3,w
  5912     0658  00C6               	movwf	??_file_create+5
  5913     0659  0854               	movf	file_create@i_183+1,w
  5914     065A  3D45               	addwfc	??_file_create+4,w
  5915     065B  00C7               	movwf	??_file_create+6
  5916     065C  0846               	movf	??_file_create+5,w
  5917     065D  0086               	movwf	6
  5918     065E  0847               	movf	??_file_create+6,w
  5919     065F  0087               	movwf	7
  5920     0660  0843               	movf	??_file_create+2,w
  5921     0661  0081               	movwf	1
  5922     0662                     l2584:
  5923     0662  3001               	movlw	1
  5924     0663  07D3               	addwf	file_create@i_183,f
  5925     0664  3000               	movlw	0
  5926     0665  3DD4               	addwfc	file_create@i_183+1,f
  5927     0666                     l2586:
  5928     0666  3002               	movlw	2
  5929     0667  0254               	subwf	file_create@i_183+1,w
  5930     0668  3000               	movlw	0
  5931     0669  1903               	skipnz
  5932     066A  0253               	subwf	file_create@i_183,w
  5933     066B  1C03               	skipc
  5934     066C  2E6E               	goto	u2231
  5935     066D  2E6F               	goto	u2230
  5936     066E                     u2231:
  5937     066E  2E46               	goto	l2582
  5938     066F                     u2230:
  5939     066F                     l2588:
  5940                           
  5941                           ;fatfs.c: 194:     unsigned char offset = 0;
  5942     066F  01CC               	clrf	file_create@offset
  5943                           
  5944                           ;fatfs.c: 195:     while (*filename)
  5945     0670  2EA7               	goto	l2602
  5946     0671                     l2590:
  5947                           
  5948                           ;fatfs.c: 196:     {;fatfs.c: 197:         if (*filename != '.')
  5949     0671  083F               	movf	file_create@filename,w
  5950     0672  0084               	movwf	4
  5951     0673  0840               	movf	file_create@filename+1,w
  5952     0674  0085               	movwf	5
  5953     0675  0012               	moviw fsr0++
  5954     0676  3A2E               	xorlw	46
  5955     0677  1903               	btfsc	3,2
  5956     0678  2E7A               	goto	u2241
  5957     0679  2E7B               	goto	u2240
  5958     067A                     u2241:
  5959     067A  2E9C               	goto	l2598
  5960     067B                     u2240:
  5961     067B                     l2592:
  5962                           
  5963                           ;fatfs.c: 198:         {;fatfs.c: 199:             SDWdata[entry_addr + offset] = *filen
      +                          ame;
  5964     067B  083F               	movf	file_create@filename,w
  5965     067C  0084               	movwf	4
  5966     067D  0840               	movf	file_create@filename+1,w
  5967     067E  0085               	movwf	5
  5968     067F  0800               	movf	0,w	;code access
  5969     0680  00C1               	movwf	??_file_create
  5970     0681  084C               	movf	file_create@offset,w
  5971     0682  3EF0               	addlw	240
  5972     0683  00C2               	movwf	??_file_create+1
  5973     0684  01C3               	clrf	??_file_create+2
  5974     0685  3023               	movlw	35
  5975     0686  3DC3               	addwfc	??_file_create+2,f
  5976     0687  0861               	movf	_entry_addr,w
  5977     0688  0742               	addwf	??_file_create+1,w
  5978     0689  00C4               	movwf	??_file_create+3
  5979     068A  0862               	movf	_entry_addr+1,w
  5980     068B  3D43               	addwfc	??_file_create+2,w
  5981     068C  00C5               	movwf	??_file_create+4
  5982     068D  0844               	movf	??_file_create+3,w
  5983     068E  0086               	movwf	6
  5984     068F  0845               	movf	??_file_create+4,w
  5985     0690  0087               	movwf	7
  5986     0691  0841               	movf	??_file_create,w
  5987     0692  0081               	movwf	1
  5988     0693                     l2594:
  5989                           
  5990                           ;fatfs.c: 200:             filename++;
  5991     0693  3001               	movlw	1
  5992     0694  07BF               	addwf	file_create@filename,f
  5993     0695  3000               	movlw	0
  5994     0696  3DC0               	addwfc	file_create@filename+1,f
  5995     0697                     l2596:
  5996                           
  5997                           ;fatfs.c: 201:             offset++;
  5998     0697  3001               	movlw	1
  5999     0698  00C1               	movwf	??_file_create
  6000     0699  0841               	movf	??_file_create,w
  6001     069A  07CC               	addwf	file_create@offset,f
  6002                           
  6003                           ;fatfs.c: 202:         }
  6004     069B  2EA0               	goto	l153
  6005     069C                     l2598:
  6006                           
  6007                           ;fatfs.c: 204:         {;fatfs.c: 205:             filename++;
  6008     069C  3001               	movlw	1
  6009     069D  07BF               	addwf	file_create@filename,f
  6010     069E  3000               	movlw	0
  6011     069F  3DC0               	addwfc	file_create@filename+1,f
  6012     06A0                     l153:	
  6013                           ;fatfs.c: 206:         }
  6014                           
  6015                           
  6016                           ;fatfs.c: 207:         if (offset >= 11) break;
  6017     06A0  300B               	movlw	11
  6018     06A1  024C               	subwf	file_create@offset,w
  6019     06A2  1C03               	skipc
  6020     06A3  2EA5               	goto	u2251
  6021     06A4  2EA6               	goto	u2250
  6022     06A5                     u2251:
  6023     06A5  2EA7               	goto	l2602
  6024     06A6                     u2250:
  6025     06A6  2EB0               	goto	l2604
  6026     06A7                     l2602:
  6027                           
  6028                           ;fatfs.c: 195:     while (*filename)
  6029     06A7  083F               	movf	file_create@filename,w
  6030     06A8  0084               	movwf	4
  6031     06A9  0840               	movf	file_create@filename+1,w
  6032     06AA  0085               	movwf	5
  6033     06AB  0012               	moviw fsr0++
  6034     06AC  1D03               	btfss	3,2
  6035     06AD  2EAF               	goto	u2261
  6036     06AE  2EB0               	goto	u2260
  6037     06AF                     u2261:
  6038     06AF  2E71               	goto	l2590
  6039     06B0                     u2260:
  6040     06B0                     l2604:
  6041                           
  6042                           ;fatfs.c: 211:     SDWdata[entry_addr + 0x0B] = 0x20;
  6043     06B0  30FB               	movlw	251
  6044     06B1  00C1               	movwf	??_file_create
  6045     06B2  3023               	movlw	35
  6046     06B3  00C2               	movwf	??_file_create+1
  6047     06B4  0861               	movf	_entry_addr,w
  6048     06B5  0741               	addwf	??_file_create,w
  6049     06B6  00C3               	movwf	??_file_create+2
  6050     06B7  0862               	movf	_entry_addr+1,w
  6051     06B8  3D42               	addwfc	??_file_create+1,w
  6052     06B9  00C4               	movwf	??_file_create+3
  6053     06BA  0843               	movf	??_file_create+2,w
  6054     06BB  0086               	movwf	6
  6055     06BC  0844               	movf	??_file_create+3,w
  6056     06BD  0087               	movwf	7
  6057     06BE  3020               	movlw	32
  6058     06BF  0081               	movwf	1
  6059                           
  6060                           ;fatfs.c: 214:     SDWdata[entry_addr + 0x0C] = 0x00;
  6061     06C0  30FC               	movlw	252
  6062     06C1  00C1               	movwf	??_file_create
  6063     06C2  3023               	movlw	35
  6064     06C3  00C2               	movwf	??_file_create+1
  6065     06C4  0861               	movf	_entry_addr,w
  6066     06C5  0741               	addwf	??_file_create,w
  6067     06C6  0086               	movwf	6
  6068     06C7  0862               	movf	_entry_addr+1,w
  6069     06C8  3D42               	addwfc	??_file_create+1,w
  6070     06C9  0087               	movwf	7
  6071     06CA  0181               	clrf	1
  6072                           
  6073                           ;fatfs.c: 215:     SDWdata[entry_addr + 0x0D] = 0x00;
  6074     06CB  30FD               	movlw	253
  6075     06CC  00C1               	movwf	??_file_create
  6076     06CD  3023               	movlw	35
  6077     06CE  00C2               	movwf	??_file_create+1
  6078     06CF  0861               	movf	_entry_addr,w
  6079     06D0  0741               	addwf	??_file_create,w
  6080     06D1  0086               	movwf	6
  6081     06D2  0862               	movf	_entry_addr+1,w
  6082     06D3  3D42               	addwfc	??_file_create+1,w
  6083     06D4  0087               	movwf	7
  6084     06D5  0181               	clrf	1
  6085                           
  6086                           ;fatfs.c: 217:     SDWdata[entry_addr + 0x0E] = 0x00;
  6087     06D6  30FE               	movlw	254
  6088     06D7  00C1               	movwf	??_file_create
  6089     06D8  3023               	movlw	35
  6090     06D9  00C2               	movwf	??_file_create+1
  6091     06DA  0861               	movf	_entry_addr,w
  6092     06DB  0741               	addwf	??_file_create,w
  6093     06DC  0086               	movwf	6
  6094     06DD  0862               	movf	_entry_addr+1,w
  6095     06DE  3D42               	addwfc	??_file_create+1,w
  6096     06DF  0087               	movwf	7
  6097     06E0  0181               	clrf	1
  6098                           
  6099                           ;fatfs.c: 218:     SDWdata[entry_addr + 0x0F] = 0x60;
  6100     06E1  30FF               	movlw	255
  6101     06E2  00C1               	movwf	??_file_create
  6102     06E3  3023               	movlw	35
  6103     06E4  00C2               	movwf	??_file_create+1
  6104     06E5  0861               	movf	_entry_addr,w
  6105     06E6  0741               	addwf	??_file_create,w
  6106     06E7  00C3               	movwf	??_file_create+2
  6107     06E8  0862               	movf	_entry_addr+1,w
  6108     06E9  3D42               	addwfc	??_file_create+1,w
  6109     06EA  00C4               	movwf	??_file_create+3
  6110     06EB  0843               	movf	??_file_create+2,w
  6111     06EC  0086               	movwf	6
  6112     06ED  0844               	movf	??_file_create+3,w
  6113     06EE  0087               	movwf	7
  6114     06EF  3060               	movlw	96
  6115     06F0  0081               	movwf	1
  6116                           
  6117                           ;fatfs.c: 220:     SDWdata[entry_addr + 0x10] = 0x21;
  6118     06F1  3000               	movlw	0
  6119     06F2  00C1               	movwf	??_file_create
  6120     06F3  3024               	movlw	36
  6121     06F4  00C2               	movwf	??_file_create+1
  6122     06F5  0861               	movf	_entry_addr,w
  6123     06F6  0741               	addwf	??_file_create,w
  6124     06F7  00C3               	movwf	??_file_create+2
  6125     06F8  0862               	movf	_entry_addr+1,w
  6126     06F9  3D42               	addwfc	??_file_create+1,w
  6127     06FA  00C4               	movwf	??_file_create+3
  6128     06FB  0843               	movf	??_file_create+2,w
  6129     06FC  0086               	movwf	6
  6130     06FD  0844               	movf	??_file_create+3,w
  6131     06FE  0087               	movwf	7
  6132     06FF  3021               	movlw	33
  6133     0700  0081               	movwf	1
  6134                           
  6135                           ;fatfs.c: 221:     SDWdata[entry_addr + 0x11] = 0x24;
  6136     0701  3001               	movlw	1
  6137     0702  00C1               	movwf	??_file_create
  6138     0703  3024               	movlw	36
  6139     0704  00C2               	movwf	??_file_create+1
  6140     0705  0861               	movf	_entry_addr,w
  6141     0706  0741               	addwf	??_file_create,w
  6142     0707  00C3               	movwf	??_file_create+2
  6143     0708  0862               	movf	_entry_addr+1,w
  6144     0709  3D42               	addwfc	??_file_create+1,w
  6145     070A  00C4               	movwf	??_file_create+3
  6146     070B  0843               	movf	??_file_create+2,w
  6147     070C  0086               	movwf	6
  6148     070D  0844               	movf	??_file_create+3,w
  6149     070E  0087               	movwf	7
  6150     070F  3024               	movlw	36
  6151     0710  0081               	movwf	1
  6152                           
  6153                           ;fatfs.c: 223:     SDWdata[entry_addr + 0x12] = 0x21;
  6154     0711  3002               	movlw	2
  6155     0712  00C1               	movwf	??_file_create
  6156     0713  3024               	movlw	36
  6157     0714  00C2               	movwf	??_file_create+1
  6158     0715  0861               	movf	_entry_addr,w
  6159     0716  0741               	addwf	??_file_create,w
  6160     0717  00C3               	movwf	??_file_create+2
  6161     0718  0862               	movf	_entry_addr+1,w
  6162     0719  3D42               	addwfc	??_file_create+1,w
  6163     071A  00C4               	movwf	??_file_create+3
  6164     071B  0843               	movf	??_file_create+2,w
  6165     071C  0086               	movwf	6
  6166     071D  0844               	movf	??_file_create+3,w
  6167     071E  0087               	movwf	7
  6168     071F  3021               	movlw	33
  6169     0720  0081               	movwf	1
  6170                           
  6171                           ;fatfs.c: 224:     SDWdata[entry_addr + 0x13] = 0x24;
  6172     0721  3003               	movlw	3
  6173     0722  00C1               	movwf	??_file_create
  6174     0723  3024               	movlw	36
  6175     0724  00C2               	movwf	??_file_create+1
  6176     0725  0861               	movf	_entry_addr,w
  6177     0726  0741               	addwf	??_file_create,w
  6178     0727  00C3               	movwf	??_file_create+2
  6179     0728  0862               	movf	_entry_addr+1,w
  6180     0729  3D42               	addwfc	??_file_create+1,w
  6181     072A  00C4               	movwf	??_file_create+3
  6182     072B  0843               	movf	??_file_create+2,w
  6183     072C  0086               	movwf	6
  6184     072D  0844               	movf	??_file_create+3,w
  6185     072E  0087               	movwf	7
  6186     072F  3024               	movlw	36
  6187     0730  0081               	movwf	1
  6188                           
  6189                           ;fatfs.c: 226:     SDWdata[entry_addr + 0x14] = 0x00;
  6190     0731  3004               	movlw	4
  6191     0732  00C1               	movwf	??_file_create
  6192     0733  3024               	movlw	36
  6193     0734  00C2               	movwf	??_file_create+1
  6194     0735  0861               	movf	_entry_addr,w
  6195     0736  0741               	addwf	??_file_create,w
  6196     0737  0086               	movwf	6
  6197     0738  0862               	movf	_entry_addr+1,w
  6198     0739  3D42               	addwfc	??_file_create+1,w
  6199     073A  0087               	movwf	7
  6200     073B  0181               	clrf	1
  6201                           
  6202                           ;fatfs.c: 227:     SDWdata[entry_addr + 0x15] = 0x00;
  6203     073C  3005               	movlw	5
  6204     073D  00C1               	movwf	??_file_create
  6205     073E  3024               	movlw	36
  6206     073F  00C2               	movwf	??_file_create+1
  6207     0740  0861               	movf	_entry_addr,w
  6208     0741  0741               	addwf	??_file_create,w
  6209     0742  0086               	movwf	6
  6210     0743  0862               	movf	_entry_addr+1,w
  6211     0744  3D42               	addwfc	??_file_create+1,w
  6212     0745  0087               	movwf	7
  6213     0746  0181               	clrf	1
  6214                           
  6215                           ;fatfs.c: 229:     SDWdata[entry_addr + 0x16] = 0x00;
  6216     0747  3006               	movlw	6
  6217     0748  00C1               	movwf	??_file_create
  6218     0749  3024               	movlw	36
  6219     074A  00C2               	movwf	??_file_create+1
  6220     074B  0861               	movf	_entry_addr,w
  6221     074C  0741               	addwf	??_file_create,w
  6222     074D  0086               	movwf	6
  6223     074E  0862               	movf	_entry_addr+1,w
  6224     074F  3D42               	addwfc	??_file_create+1,w
  6225     0750  0087               	movwf	7
  6226     0751  0181               	clrf	1
  6227                           
  6228                           ;fatfs.c: 230:     SDWdata[entry_addr + 0x17] = 0x60;
  6229     0752  3007               	movlw	7
  6230     0753  00C1               	movwf	??_file_create
  6231     0754  3024               	movlw	36
  6232     0755  00C2               	movwf	??_file_create+1
  6233     0756  0861               	movf	_entry_addr,w
  6234     0757  0741               	addwf	??_file_create,w
  6235     0758  00C3               	movwf	??_file_create+2
  6236     0759  0862               	movf	_entry_addr+1,w
  6237     075A  3D42               	addwfc	??_file_create+1,w
  6238     075B  00C4               	movwf	??_file_create+3
  6239     075C  0843               	movf	??_file_create+2,w
  6240     075D  0086               	movwf	6
  6241     075E  0844               	movf	??_file_create+3,w
  6242     075F  0087               	movwf	7
  6243     0760  3060               	movlw	96
  6244     0761  0081               	movwf	1
  6245                           
  6246                           ;fatfs.c: 232:     SDWdata[entry_addr + 0x18] = 0x21;
  6247     0762  3008               	movlw	8
  6248     0763  00C1               	movwf	??_file_create
  6249     0764  3024               	movlw	36
  6250     0765  00C2               	movwf	??_file_create+1
  6251     0766  0861               	movf	_entry_addr,w
  6252     0767  0741               	addwf	??_file_create,w
  6253     0768  00C3               	movwf	??_file_create+2
  6254     0769  0862               	movf	_entry_addr+1,w
  6255     076A  3D42               	addwfc	??_file_create+1,w
  6256     076B  00C4               	movwf	??_file_create+3
  6257     076C  0843               	movf	??_file_create+2,w
  6258     076D  0086               	movwf	6
  6259     076E  0844               	movf	??_file_create+3,w
  6260     076F  0087               	movwf	7
  6261     0770  3021               	movlw	33
  6262     0771  0081               	movwf	1
  6263                           
  6264                           ;fatfs.c: 233:     SDWdata[entry_addr + 0x19] = 0x24;
  6265     0772  3009               	movlw	9
  6266     0773  00C1               	movwf	??_file_create
  6267     0774  3024               	movlw	36
  6268     0775  00C2               	movwf	??_file_create+1
  6269     0776  0861               	movf	_entry_addr,w
  6270     0777  0741               	addwf	??_file_create,w
  6271     0778  00C3               	movwf	??_file_create+2
  6272     0779  0862               	movf	_entry_addr+1,w
  6273     077A  3D42               	addwfc	??_file_create+1,w
  6274     077B  00C4               	movwf	??_file_create+3
  6275     077C  0843               	movf	??_file_create+2,w
  6276     077D  0086               	movwf	6
  6277     077E  0844               	movf	??_file_create+3,w
  6278     077F  0087               	movwf	7
  6279     0780  3024               	movlw	36
  6280     0781  0081               	movwf	1
  6281                           
  6282                           ;fatfs.c: 236:     SDWdata[entry_addr + 0x1A] = (unsigned char)(cluster_number & 0xFF);
  6283     0782  300A               	movlw	10
  6284     0783  00C1               	movwf	??_file_create
  6285     0784  3024               	movlw	36
  6286     0785  00C2               	movwf	??_file_create+1
  6287     0786  0861               	movf	_entry_addr,w
  6288     0787  0741               	addwf	??_file_create,w
  6289     0788  00C3               	movwf	??_file_create+2
  6290     0789  0862               	movf	_entry_addr+1,w
  6291     078A  3D42               	addwfc	??_file_create+1,w
  6292     078B  00C4               	movwf	??_file_create+3
  6293     078C  0843               	movf	??_file_create+2,w
  6294     078D  0086               	movwf	6
  6295     078E  0844               	movf	??_file_create+3,w
  6296     078F  0087               	movwf	7
  6297     0790  0863               	movf	_cluster_number,w
  6298     0791  0081               	movwf	1
  6299                           
  6300                           ;fatfs.c: 237:     SDWdata[entry_addr + 0x1B] = (unsigned char)((cluster_number >> 8) & 
      +                          0xFF);
  6301     0792  0864               	movf	_cluster_number+1,w
  6302     0793  00C1               	movwf	??_file_create
  6303     0794  300B               	movlw	11
  6304     0795  00C2               	movwf	??_file_create+1
  6305     0796  3024               	movlw	36
  6306     0797  00C3               	movwf	??_file_create+2
  6307     0798  0861               	movf	_entry_addr,w
  6308     0799  0742               	addwf	??_file_create+1,w
  6309     079A  00C4               	movwf	??_file_create+3
  6310     079B  0862               	movf	_entry_addr+1,w
  6311     079C  3D43               	addwfc	??_file_create+2,w
  6312     079D  00C5               	movwf	??_file_create+4
  6313     079E  0844               	movf	??_file_create+3,w
  6314     079F  0086               	movwf	6
  6315     07A0  0845               	movf	??_file_create+4,w
  6316     07A1  0087               	movwf	7
  6317     07A2  0841               	movf	??_file_create,w
  6318     07A3  0081               	movwf	1
  6319                           
  6320                           ;fatfs.c: 240:     SDWdata[entry_addr + 0x1C] = 0x00;
  6321     07A4  300C               	movlw	12
  6322     07A5  00C1               	movwf	??_file_create
  6323     07A6  3024               	movlw	36
  6324     07A7  00C2               	movwf	??_file_create+1
  6325     07A8  0861               	movf	_entry_addr,w
  6326     07A9  0741               	addwf	??_file_create,w
  6327     07AA  0086               	movwf	6
  6328     07AB  0862               	movf	_entry_addr+1,w
  6329     07AC  3D42               	addwfc	??_file_create+1,w
  6330     07AD  0087               	movwf	7
  6331     07AE  0181               	clrf	1
  6332                           
  6333                           ;fatfs.c: 241:     SDWdata[entry_addr + 0x1D] = 0x00;
  6334     07AF  300D               	movlw	13
  6335     07B0  00C1               	movwf	??_file_create
  6336     07B1  3024               	movlw	36
  6337     07B2  00C2               	movwf	??_file_create+1
  6338     07B3  0861               	movf	_entry_addr,w
  6339     07B4  0741               	addwf	??_file_create,w
  6340     07B5  0086               	movwf	6
  6341     07B6  0862               	movf	_entry_addr+1,w
  6342     07B7  3D42               	addwfc	??_file_create+1,w
  6343     07B8  0087               	movwf	7
  6344     07B9  0181               	clrf	1
  6345                           
  6346                           ;fatfs.c: 242:     SDWdata[entry_addr + 0x1E] = 0x00;
  6347     07BA  300E               	movlw	14
  6348     07BB  00C1               	movwf	??_file_create
  6349     07BC  3024               	movlw	36
  6350     07BD  00C2               	movwf	??_file_create+1
  6351     07BE  0861               	movf	_entry_addr,w
  6352     07BF  0741               	addwf	??_file_create,w
  6353     07C0  0086               	movwf	6
  6354     07C1  0862               	movf	_entry_addr+1,w
  6355     07C2  3D42               	addwfc	??_file_create+1,w
  6356     07C3  0087               	movwf	7
  6357     07C4  0181               	clrf	1
  6358                           
  6359                           ;fatfs.c: 243:     SDWdata[entry_addr + 0x1F] = 0x00;
  6360     07C5  300F               	movlw	15
  6361     07C6  00C1               	movwf	??_file_create
  6362     07C7  3024               	movlw	36
  6363     07C8  00C2               	movwf	??_file_create+1
  6364     07C9  0861               	movf	_entry_addr,w
  6365     07CA  0741               	addwf	??_file_create,w
  6366     07CB  0086               	movwf	6
  6367     07CC  0862               	movf	_entry_addr+1,w
  6368     07CD  3D42               	addwfc	??_file_create+1,w
  6369     07CE  0087               	movwf	7
  6370     07CF  0181               	clrf	1
  6371     07D0                     l2606:
  6372                           
  6373                           ;fatfs.c: 246:     SDcard_write_block(rootdir_start);
  6374     07D0  085E               	movf	_rootdir_start+3,w
  6375     07D1  00FB               	movwf	SDcard_write_block@address+3
  6376     07D2  085D               	movf	_rootdir_start+2,w
  6377     07D3  00FA               	movwf	SDcard_write_block@address+2
  6378     07D4  085C               	movf	_rootdir_start+1,w
  6379     07D5  00F9               	movwf	SDcard_write_block@address+1
  6380     07D6  085B               	movf	_rootdir_start,w
  6381     07D7  00F8               	movwf	SDcard_write_block@address
  6382     07D8  318E  26DA  3184   	fcall	_SDcard_write_block
  6383     07DB                     l156:
  6384     07DB  0008               	return
  6385     07DC                     __end_of_file_create:
  6386                           
  6387                           	psect	text9
  6388     0889                     __ptext9:	
  6389 ;; *************** function _dbg_u16_dec *****************
  6390 ;; Defined at:
  6391 ;;		line 68 in file "fatfs.c"
  6392 ;; Parameters:    Size  Location     Type
  6393 ;;  v               2   29[BANK0 ] unsigned int 
  6394 ;; Auto vars:     Size  Location     Type
  6395 ;;		None
  6396 ;; Return value:  Size  Location     Type
  6397 ;;                  1    wreg      void 
  6398 ;; Registers used:
  6399 ;;		wreg, fsr0l, fsr0h, fsr1l, fsr1h, status,2, status,0, pclath, cstack
  6400 ;; Tracked objects:
  6401 ;;		On entry : 0/0
  6402 ;;		On exit  : 0/0
  6403 ;;		Unchanged: 0/0
  6404 ;; Data sizes:     COMMON   BANK0   BANK1   BANK2   BANK3   BANK4   BANK5   BANK6   BANK7   BANK8   BANK9  BANK10  BANK1
      +1  BANK12  BANK13  BANK14  BANK15  BANK16  BANK17  BANK18  BANK19  BANK20  BANK21  BANK22  BANK23  BANK24  BANK25
  6405 ;;      Params:         0       2       0       0       0       0       0       0       0       0       0       0       
      +0       0       0       0       0       0       0       0       0       0       0       0       0       0       0
  6406 ;;      Locals:         0       0       0       0       0       0       0       0       0       0       0       0       
      +0       0       0       0       0       0       0       0       0       0       0       0       0       0       0
  6407 ;;      Temps:          0       0       0       0       0       0       0       0       0       0       0       0       
      +0       0       0       0       0       0       0       0       0       0       0       0       0       0       0
  6408 ;;      Totals:         0       2       0       0       0       0       0       0       0       0       0       0       
      +0       0       0       0       0       0       0       0       0       0       0       0       0       0       0
  6409 ;;Total ram usage:        2 bytes
  6410 ;; Hardware stack levels used: 1
  6411 ;; Hardware stack levels required when called: 3
  6412 ;; This function calls:
  6413 ;;		_EUSART_Write_Integer
  6414 ;; This function is called by:
  6415 ;;		_file_create
  6416 ;; This function uses a non-reentrant model
  6417 ;;
  6418                           
  6419     0889                     _dbg_u16_dec:	
  6420                           ;psect for function _dbg_u16_dec
  6421                           
  6422     0889                     l2396:	
  6423                           ;incstack = 0
  6424                           ; Regs used in _dbg_u16_dec: [wreg-fsr1h+status,2+status,0+pclath+cstack]
  6425                           
  6426                           
  6427                           ;fatfs.c: 68: static void dbg_u16_dec(unsigned int v);fatfs.c: 69: {;fatfs.c: 70:     EU
      +                          SART_Write_Integer((int)v);
  6428     0889  0020               	movlb	0	; select bank0
  6429     088A  083E               	movf	dbg_u16_dec@v+1,w
  6430     088B  00FC               	movwf	EUSART_Write_Integer@value_to_send+1
  6431     088C  083D               	movf	dbg_u16_dec@v,w
  6432     088D  00FB               	movwf	EUSART_Write_Integer@value_to_send
  6433     088E  3189  218F  3188   	fcall	_EUSART_Write_Integer
  6434     0891                     l130:
  6435     0891  0008               	return
  6436     0892                     __end_of_dbg_u16_dec:
  6437                           
  6438                           	psect	text10
  6439     098F                     __ptext10:	
  6440 ;; *************** function _EUSART_Write_Integer *****************
  6441 ;; Defined at:
  6442 ;;		line 185 in file "EUSART.c"
  6443 ;; Parameters:    Size  Location     Type
  6444 ;;  value_to_sen    2   11[COMMON] int 
  6445 ;; Auto vars:     Size  Location     Type
  6446 ;;  buffer         20    7[BANK0 ] unsigned char [20]
  6447 ;;  temp_ptr        1   28[BANK0 ] PTR unsigned char 
  6448 ;;		 -> EUSART_Write_Integer@buffer(20), 
  6449 ;;  ptr             1   27[BANK0 ] PTR unsigned char 
  6450 ;;		 -> EUSART_Write_Integer@buffer(20), 
  6451 ;; Return value:  Size  Location     Type
  6452 ;;                  1    wreg      void 
  6453 ;; Registers used:
  6454 ;;		wreg, fsr0l, fsr0h, fsr1l, fsr1h, status,2, status,0, pclath, cstack
  6455 ;; Tracked objects:
  6456 ;;		On entry : 0/0
  6457 ;;		On exit  : 0/0
  6458 ;;		Unchanged: 0/0
  6459 ;; Data sizes:     COMMON   BANK0   BANK1   BANK2   BANK3   BANK4   BANK5   BANK6   BANK7   BANK8   BANK9  BANK10  BANK1
      +1  BANK12  BANK13  BANK14  BANK15  BANK16  BANK17  BANK18  BANK19  BANK20  BANK21  BANK22  BANK23  BANK24  BANK25
  6460 ;;      Params:         2       0       0       0       0       0       0       0       0       0       0       0       
      +0       0       0       0       0       0       0       0       0       0       0       0       0       0       0
  6461 ;;      Locals:         0      22       0       0       0       0       0       0       0       0       0       0       
      +0       0       0       0       0       0       0       0       0       0       0       0       0       0       0
  6462 ;;      Temps:          1       0       0       0       0       0       0       0       0       0       0       0       
      +0       0       0       0       0       0       0       0       0       0       0       0       0       0       0
  6463 ;;      Totals:         3      22       0       0       0       0       0       0       0       0       0       0       
      +0       0       0       0       0       0       0       0       0       0       0       0       0       0       0
  6464 ;;Total ram usage:       25 bytes
  6465 ;; Hardware stack levels used: 1
  6466 ;; Hardware stack levels required when called: 2
  6467 ;; This function calls:
  6468 ;;		_EUSART_Write
  6469 ;;		_itoa
  6470 ;; This function is called by:
  6471 ;;		_dbg_u16_dec
  6472 ;; This function uses a non-reentrant model
  6473 ;;
  6474                           
  6475     098F                     _EUSART_Write_Integer:	
  6476                           ;psect for function _EUSART_Write_Integer
  6477                           
  6478     098F                     l2148:	
  6479                           ;incstack = 0
  6480                           ; Regs used in _EUSART_Write_Integer: [wreg-fsr1h+status,2+status,0+pclath+cstack]
  6481                           
  6482                           
  6483                           ;EUSART.c: 185: void EUSART_Write_Integer(int value_to_send);EUSART.c: 186: {;EUSART.c: 
      +                          187:     char buffer[20];;EUSART.c: 188:     char *ptr = buffer;
  6484     098F  3027               	movlw	(low (EUSART_Write_Integer@buffer| 0))& (0+255)
  6485     0990  0020               	movlb	0	; select bank0
  6486     0991  00BB               	movwf	EUSART_Write_Integer@ptr
  6487     0992                     l2150:
  6488                           
  6489                           ;EUSART.c: 190:     itoa(&ptr, value_to_send);
  6490     0992  087C               	movf	EUSART_Write_Integer@value_to_send+1,w
  6491     0993  00FA               	movwf	itoa@d+1
  6492     0994  087B               	movf	EUSART_Write_Integer@value_to_send,w
  6493     0995  00F9               	movwf	itoa@d
  6494     0996  303B               	movlw	(low (EUSART_Write_Integer@ptr| 0))& (0+255)
  6495     0997  318D  2583  3189   	fcall	_itoa
  6496     099A                     l2152:
  6497                           
  6498                           ;EUSART.c: 193:     char *temp_ptr = buffer;
  6499     099A  3027               	movlw	(low (EUSART_Write_Integer@buffer| 0))& (0+255)
  6500     099B  0020               	movlb	0	; select bank0
  6501     099C  00BC               	movwf	EUSART_Write_Integer@temp_ptr
  6502                           
  6503                           ;EUSART.c: 194:     while (*temp_ptr != '\0') {
  6504     099D  29AA               	goto	l2158
  6505     099E                     l2154:
  6506                           
  6507                           ;EUSART.c: 195:         EUSART_Write(*temp_ptr++);
  6508     099E  083C               	movf	EUSART_Write_Integer@temp_ptr,w
  6509     099F  0086               	movwf	6
  6510     09A0  0187               	clrf	7
  6511     09A1  0801               	movf	1,w
  6512     09A2  3188  209B  3189   	fcall	_EUSART_Write
  6513     09A5                     l2156:
  6514     09A5  3001               	movlw	1
  6515     09A6  00FD               	movwf	??_EUSART_Write_Integer
  6516     09A7  087D               	movf	??_EUSART_Write_Integer,w
  6517     09A8  0020               	movlb	0	; select bank0
  6518     09A9  07BC               	addwf	EUSART_Write_Integer@temp_ptr,f
  6519     09AA                     l2158:
  6520                           
  6521                           ;EUSART.c: 194:     while (*temp_ptr != '\0') {
  6522     09AA  083C               	movf	EUSART_Write_Integer@temp_ptr,w
  6523     09AB  0086               	movwf	6
  6524     09AC  0187               	clrf	7
  6525     09AD  0801               	movf	1,w
  6526     09AE  1D03               	btfss	3,2
  6527     09AF  29B1               	goto	u1651
  6528     09B0  29B2               	goto	u1650
  6529     09B1                     u1651:
  6530     09B1  299E               	goto	l2154
  6531     09B2                     u1650:
  6532     09B2                     l66:
  6533     09B2  0008               	return
  6534     09B3                     __end_of_EUSART_Write_Integer:
  6535                           
  6536                           	psect	text11
  6537     0D83                     __ptext11:	
  6538 ;; *************** function _itoa *****************
  6539 ;; Defined at:
  6540 ;;		line 149 in file "EUSART.c"
  6541 ;; Parameters:    Size  Location     Type
  6542 ;;  buf             1    wreg     PTR PTR unsigned char 
  6543 ;;		 -> EUSART_Write_Integer@ptr(1), 
  6544 ;;  d               2    9[COMMON] int 
  6545 ;; Auto vars:     Size  Location     Type
  6546 ;;  buf             1    4[BANK0 ] PTR PTR unsigned char 
  6547 ;;		 -> EUSART_Write_Integer@ptr(1), 
  6548 ;;  num             2    0[BANK0 ] int 
  6549 ;;  div             2    5[BANK0 ] int 
  6550 ;;  temp            2    2[BANK0 ] int 
  6551 ;; Return value:  Size  Location     Type
  6552 ;;                  1    wreg      void 
  6553 ;; Registers used:
  6554 ;;		wreg, fsr0l, fsr0h, fsr1l, fsr1h, status,2, status,0, pclath, cstack
  6555 ;; Tracked objects:
  6556 ;;		On entry : 0/0
  6557 ;;		On exit  : 0/0
  6558 ;;		Unchanged: 0/0
  6559 ;; Data sizes:     COMMON   BANK0   BANK1   BANK2   BANK3   BANK4   BANK5   BANK6   BANK7   BANK8   BANK9  BANK10  BANK1
      +1  BANK12  BANK13  BANK14  BANK15  BANK16  BANK17  BANK18  BANK19  BANK20  BANK21  BANK22  BANK23  BANK24  BANK25
  6560 ;;      Params:         2       0       0       0       0       0       0       0       0       0       0       0       
      +0       0       0       0       0       0       0       0       0       0       0       0       0       0       0
  6561 ;;      Locals:         0       7       0       0       0       0       0       0       0       0       0       0       
      +0       0       0       0       0       0       0       0       0       0       0       0       0       0       0
  6562 ;;      Temps:          0       0       0       0       0       0       0       0       0       0       0       0       
      +0       0       0       0       0       0       0       0       0       0       0       0       0       0       0
  6563 ;;      Totals:         2       7       0       0       0       0       0       0       0       0       0       0       
      +0       0       0       0       0       0       0       0       0       0       0       0       0       0       0
  6564 ;;Total ram usage:        9 bytes
  6565 ;; Hardware stack levels used: 1
  6566 ;; Hardware stack levels required when called: 1
  6567 ;; This function calls:
  6568 ;;		___awdiv
  6569 ;;		___awmod
  6570 ;;		___wmul
  6571 ;; This function is called by:
  6572 ;;		_EUSART_Write_Integer
  6573 ;; This function uses a non-reentrant model
  6574 ;;
  6575                           
  6576     0D83                     _itoa:	
  6577                           ;psect for function _itoa
  6578                           
  6579                           
  6580                           ;incstack = 0
  6581                           ; Regs used in _itoa: [wreg-fsr1h+status,2+status,0+pclath+cstack]
  6582                           ;itoa@buf stored from wreg
  6583     0D83  0020               	movlb	0	; select bank0
  6584     0D84  00A4               	movwf	itoa@buf
  6585     0D85                     l2062:
  6586                           
  6587                           ;EUSART.c: 149: void itoa(char **buf, int d);EUSART.c: 150: {;EUSART.c: 151:     int div
      +                           = 1;
  6588     0D85  3001               	movlw	1
  6589     0D86  00A5               	movwf	itoa@div
  6590     0D87  3000               	movlw	0
  6591     0D88  00A6               	movwf	itoa@div+1
  6592                           
  6593                           ;EUSART.c: 152:     if (d < 0)
  6594     0D89  1FFA               	btfss	itoa@d+1,7
  6595     0D8A  2D8C               	goto	u1541
  6596     0D8B  2D8D               	goto	u1540
  6597     0D8C                     u1541:
  6598     0D8C  2D9B               	goto	l2068
  6599     0D8D                     u1540:
  6600     0D8D                     l2064:
  6601                           
  6602                           ;EUSART.c: 153:     {;EUSART.c: 154:         *((*buf)++) = '-';
  6603     0D8D  0824               	movf	itoa@buf,w
  6604     0D8E  0086               	movwf	6
  6605     0D8F  0187               	clrf	7
  6606     0D90  3F40               	moviw [0]fsr1
  6607     0D91  0084               	movwf	4
  6608     0D92  0185               	clrf	5
  6609     0D93  0A81               	incf	1,f
  6610     0D94  302D               	movlw	45
  6611     0D95  0080               	movwf	0
  6612     0D96                     l2066:
  6613                           
  6614                           ;EUSART.c: 155:         d = -d;
  6615     0D96  09F9               	comf	itoa@d,f
  6616     0D97  09FA               	comf	itoa@d+1,f
  6617     0D98  0AF9               	incf	itoa@d,f
  6618     0D99  1903               	skipnz
  6619     0D9A  0AFA               	incf	itoa@d+1,f
  6620     0D9B                     l2068:
  6621                           
  6622                           ;EUSART.c: 158:     int temp = d;
  6623     0D9B  087A               	movf	itoa@d+1,w
  6624     0D9C  00A3               	movwf	itoa@temp+1
  6625     0D9D  0879               	movf	itoa@d,w
  6626     0D9E  00A2               	movwf	itoa@temp
  6627                           
  6628                           ;EUSART.c: 159:     while (temp / 10)
  6629     0D9F  2DC1               	goto	l54
  6630     0DA0                     l2070:
  6631                           
  6632                           ;EUSART.c: 160:     {;EUSART.c: 161:         temp /= 10;
  6633     0DA0  300A               	movlw	10
  6634     0DA1  00F0               	movwf	___awdiv@divisor
  6635     0DA2  3000               	movlw	0
  6636     0DA3  00F1               	movwf	___awdiv@divisor+1
  6637     0DA4  0020               	movlb	0	; select bank0
  6638     0DA5  0823               	movf	itoa@temp+1,w
  6639     0DA6  00F3               	movwf	___awdiv@dividend+1
  6640     0DA7  0822               	movf	itoa@temp,w
  6641     0DA8  00F2               	movwf	___awdiv@dividend
  6642     0DA9  318C  240C  318D   	fcall	___awdiv
  6643     0DAC  0871               	movf	?___awdiv+1,w
  6644     0DAD  0020               	movlb	0	; select bank0
  6645     0DAE  00A3               	movwf	itoa@temp+1
  6646     0DAF  0870               	movf	?___awdiv,w
  6647     0DB0  00A2               	movwf	itoa@temp
  6648                           
  6649                           ;EUSART.c: 162:         div *= 10;
  6650     0DB1  300A               	movlw	10
  6651     0DB2  00F0               	movwf	___wmul@multiplier
  6652     0DB3  3000               	movlw	0
  6653     0DB4  00F1               	movwf	___wmul@multiplier+1
  6654     0DB5  0826               	movf	itoa@div+1,w
  6655     0DB6  00F3               	movwf	___wmul@multiplicand+1
  6656     0DB7  0825               	movf	itoa@div,w
  6657     0DB8  00F2               	movwf	___wmul@multiplicand
  6658     0DB9  3189  2150  318D   	fcall	___wmul
  6659     0DBC  0871               	movf	?___wmul+1,w
  6660     0DBD  0020               	movlb	0	; select bank0
  6661     0DBE  00A6               	movwf	itoa@div+1
  6662     0DBF  0870               	movf	?___wmul,w
  6663     0DC0  00A5               	movwf	itoa@div
  6664     0DC1                     l54:	
  6665                           ;EUSART.c: 163:     }
  6666                           
  6667                           
  6668                           ;EUSART.c: 159:     while (temp / 10)
  6669     0DC1  300A               	movlw	10
  6670     0DC2  00F0               	movwf	___awdiv@divisor
  6671     0DC3  3000               	movlw	0
  6672     0DC4  00F1               	movwf	___awdiv@divisor+1
  6673     0DC5  0823               	movf	itoa@temp+1,w
  6674     0DC6  00F3               	movwf	___awdiv@dividend+1
  6675     0DC7  0822               	movf	itoa@temp,w
  6676     0DC8  00F2               	movwf	___awdiv@dividend
  6677     0DC9  318C  240C  318D   	fcall	___awdiv
  6678     0DCC  0870               	movf	?___awdiv,w
  6679     0DCD  0471               	iorwf	?___awdiv+1,w
  6680     0DCE  1D03               	btfss	3,2
  6681     0DCF  2DD1               	goto	u1551
  6682     0DD0  2DD2               	goto	u1550
  6683     0DD1                     u1551:
  6684     0DD1  2DA0               	goto	l2070
  6685     0DD2                     u1550:
  6686     0DD2  2E0D               	goto	l2076
  6687     0DD3                     l2072:
  6688                           
  6689                           ;EUSART.c: 166:     {;EUSART.c: 167:         int num = d / div;
  6690     0DD3  0826               	movf	itoa@div+1,w
  6691     0DD4  00F1               	movwf	___awdiv@divisor+1
  6692     0DD5  0825               	movf	itoa@div,w
  6693     0DD6  00F0               	movwf	___awdiv@divisor
  6694     0DD7  087A               	movf	itoa@d+1,w
  6695     0DD8  00F3               	movwf	___awdiv@dividend+1
  6696     0DD9  0879               	movf	itoa@d,w
  6697     0DDA  00F2               	movwf	___awdiv@dividend
  6698     0DDB  318C  240C  318D   	fcall	___awdiv
  6699     0DDE  0871               	movf	?___awdiv+1,w
  6700     0DDF  0020               	movlb	0	; select bank0
  6701     0DE0  00A1               	movwf	itoa@num+1
  6702     0DE1  0870               	movf	?___awdiv,w
  6703     0DE2  00A0               	movwf	itoa@num
  6704                           
  6705                           ;EUSART.c: 168:         d %= div;
  6706     0DE3  0826               	movf	itoa@div+1,w
  6707     0DE4  00F1               	movwf	___awmod@divisor+1
  6708     0DE5  0825               	movf	itoa@div,w
  6709     0DE6  00F0               	movwf	___awmod@divisor
  6710     0DE7  087A               	movf	itoa@d+1,w
  6711     0DE8  00F3               	movwf	___awmod@dividend+1
  6712     0DE9  0879               	movf	itoa@d,w
  6713     0DEA  00F2               	movwf	___awmod@dividend
  6714     0DEB  318B  2365  318D   	fcall	___awmod
  6715     0DEE  0871               	movf	?___awmod+1,w
  6716     0DEF  00FA               	movwf	itoa@d+1
  6717     0DF0  0870               	movf	?___awmod,w
  6718     0DF1  00F9               	movwf	itoa@d
  6719                           
  6720                           ;EUSART.c: 169:         div /= 10;
  6721     0DF2  300A               	movlw	10
  6722     0DF3  00F0               	movwf	___awdiv@divisor
  6723     0DF4  3000               	movlw	0
  6724     0DF5  00F1               	movwf	___awdiv@divisor+1
  6725     0DF6  0020               	movlb	0	; select bank0
  6726     0DF7  0826               	movf	itoa@div+1,w
  6727     0DF8  00F3               	movwf	___awdiv@dividend+1
  6728     0DF9  0825               	movf	itoa@div,w
  6729     0DFA  00F2               	movwf	___awdiv@dividend
  6730     0DFB  318C  240C  318D   	fcall	___awdiv
  6731     0DFE  0871               	movf	?___awdiv+1,w
  6732     0DFF  0020               	movlb	0	; select bank0
  6733     0E00  00A6               	movwf	itoa@div+1
  6734     0E01  0870               	movf	?___awdiv,w
  6735     0E02  00A5               	movwf	itoa@div
  6736     0E03                     l2074:
  6737                           
  6738                           ;EUSART.c: 170:         *((*buf)++) = num + '0';
  6739     0E03  0824               	movf	itoa@buf,w
  6740     0E04  0086               	movwf	6
  6741     0E05  0187               	clrf	7
  6742     0E06  3F40               	moviw [0]fsr1
  6743     0E07  0084               	movwf	4
  6744     0E08  0185               	clrf	5
  6745     0E09  0A81               	incf	1,f
  6746     0E0A  0820               	movf	itoa@num,w
  6747     0E0B  3E30               	addlw	48
  6748     0E0C  0080               	movwf	0
  6749     0E0D                     l2076:
  6750                           
  6751                           ;EUSART.c: 165:     while (div != 0)
  6752     0E0D  0020               	movlb	0	; select bank0
  6753     0E0E  0825               	movf	itoa@div,w
  6754     0E0F  0426               	iorwf	itoa@div+1,w
  6755     0E10  1D03               	btfss	3,2
  6756     0E11  2E13               	goto	u1561
  6757     0E12  2E14               	goto	u1560
  6758     0E13                     u1561:
  6759     0E13  2DD3               	goto	l2072
  6760     0E14                     u1560:
  6761     0E14                     l2078:
  6762                           
  6763                           ;EUSART.c: 172:     *(*buf) = '\0';
  6764     0E14  0824               	movf	itoa@buf,w
  6765     0E15  0086               	movwf	6
  6766     0E16  0187               	clrf	7
  6767     0E17  0801               	movf	1,w
  6768     0E18  0086               	movwf	6
  6769     0E19  0187               	clrf	7
  6770     0E1A  0181               	clrf	1
  6771     0E1B                     l60:
  6772     0E1B  0008               	return
  6773     0E1C                     __end_of_itoa:
  6774                           
  6775                           	psect	text12
  6776     0950                     __ptext12:	
  6777 ;; *************** function ___wmul *****************
  6778 ;; Defined at:
  6779 ;;		line 15 in file "C:\Program Files\Microchip\xc8\v2.46\pic\sources\c99\common\Umul16.c"
  6780 ;; Parameters:    Size  Location     Type
  6781 ;;  multiplier      2    0[COMMON] unsigned int 
  6782 ;;  multiplicand    2    2[COMMON] unsigned int 
  6783 ;; Auto vars:     Size  Location     Type
  6784 ;;  product         2    4[COMMON] unsigned int 
  6785 ;; Return value:  Size  Location     Type
  6786 ;;                  2    0[COMMON] unsigned int 
  6787 ;; Registers used:
  6788 ;;		wreg, status,2, status,0
  6789 ;; Tracked objects:
  6790 ;;		On entry : 0/0
  6791 ;;		On exit  : 0/0
  6792 ;;		Unchanged: 0/0
  6793 ;; Data sizes:     COMMON   BANK0   BANK1   BANK2   BANK3   BANK4   BANK5   BANK6   BANK7   BANK8   BANK9  BANK10  BANK1
      +1  BANK12  BANK13  BANK14  BANK15  BANK16  BANK17  BANK18  BANK19  BANK20  BANK21  BANK22  BANK23  BANK24  BANK25
  6794 ;;      Params:         4       0       0       0       0       0       0       0       0       0       0       0       
      +0       0       0       0       0       0       0       0       0       0       0       0       0       0       0
  6795 ;;      Locals:         2       0       0       0       0       0       0       0       0       0       0       0       
      +0       0       0       0       0       0       0       0       0       0       0       0       0       0       0
  6796 ;;      Temps:          0       0       0       0       0       0       0       0       0       0       0       0       
      +0       0       0       0       0       0       0       0       0       0       0       0       0       0       0
  6797 ;;      Totals:         6       0       0       0       0       0       0       0       0       0       0       0       
      +0       0       0       0       0       0       0       0       0       0       0       0       0       0       0
  6798 ;;Total ram usage:        6 bytes
  6799 ;; Hardware stack levels used: 1
  6800 ;; This function calls:
  6801 ;;		Nothing
  6802 ;; This function is called by:
  6803 ;;		_itoa
  6804 ;; This function uses a non-reentrant model
  6805 ;;
  6806                           
  6807     0950                     ___wmul:	
  6808                           ;psect for function ___wmul
  6809                           
  6810     0950                     l1966:	
  6811                           ;incstack = 0
  6812                           ; Regs used in ___wmul: [wreg+status,2+status,0]
  6813                           
  6814     0950  01F4               	clrf	___wmul@product
  6815     0951  01F5               	clrf	___wmul@product+1
  6816     0952                     l1968:
  6817     0952  1C70               	btfss	___wmul@multiplier,0
  6818     0953  2955               	goto	u1311
  6819     0954  2956               	goto	u1310
  6820     0955                     u1311:
  6821     0955  295A               	goto	l488
  6822     0956                     u1310:
  6823     0956                     l1970:
  6824     0956  0872               	movf	___wmul@multiplicand,w
  6825     0957  07F4               	addwf	___wmul@product,f
  6826     0958  0873               	movf	___wmul@multiplicand+1,w
  6827     0959  3DF5               	addwfc	___wmul@product+1,f
  6828     095A                     l488:
  6829     095A  3001               	movlw	1
  6830     095B                     u1325:
  6831     095B  35F2               	lslf	___wmul@multiplicand,f
  6832     095C  0DF3               	rlf	___wmul@multiplicand+1,f
  6833     095D  0B89               	decfsz	9,f
  6834     095E  295B               	goto	u1325
  6835     095F                     l1972:
  6836     095F  3001               	movlw	1
  6837     0960                     u1335:
  6838     0960  36F1               	lsrf	___wmul@multiplier+1,f
  6839     0961  0CF0               	rrf	___wmul@multiplier,f
  6840     0962  0B89               	decfsz	9,f
  6841     0963  2960               	goto	u1335
  6842     0964                     l1974:
  6843     0964  0870               	movf	___wmul@multiplier,w
  6844     0965  0471               	iorwf	___wmul@multiplier+1,w
  6845     0966  1D03               	btfss	3,2
  6846     0967  2969               	goto	u1341
  6847     0968  296A               	goto	u1340
  6848     0969                     u1341:
  6849     0969  2952               	goto	l1968
  6850     096A                     u1340:
  6851     096A                     l1976:
  6852     096A  0875               	movf	___wmul@product+1,w
  6853     096B  00F1               	movwf	?___wmul+1
  6854     096C  0874               	movf	___wmul@product,w
  6855     096D  00F0               	movwf	?___wmul
  6856     096E                     l490:
  6857     096E  0008               	return
  6858     096F                     __end_of___wmul:
  6859                           
  6860                           	psect	text13
  6861     0B65                     __ptext13:	
  6862 ;; *************** function ___awmod *****************
  6863 ;; Defined at:
  6864 ;;		line 5 in file "C:\Program Files\Microchip\xc8\v2.46\pic\sources\c99\common\awmod.c"
  6865 ;; Parameters:    Size  Location     Type
  6866 ;;  divisor         2    0[COMMON] int 
  6867 ;;  dividend        2    2[COMMON] int 
  6868 ;; Auto vars:     Size  Location     Type
  6869 ;;  sign            1    6[COMMON] unsigned char 
  6870 ;;  counter         1    5[COMMON] unsigned char 
  6871 ;; Return value:  Size  Location     Type
  6872 ;;                  2    0[COMMON] int 
  6873 ;; Registers used:
  6874 ;;		wreg, status,2, status,0
  6875 ;; Tracked objects:
  6876 ;;		On entry : 0/0
  6877 ;;		On exit  : 0/0
  6878 ;;		Unchanged: 0/0
  6879 ;; Data sizes:     COMMON   BANK0   BANK1   BANK2   BANK3   BANK4   BANK5   BANK6   BANK7   BANK8   BANK9  BANK10  BANK1
      +1  BANK12  BANK13  BANK14  BANK15  BANK16  BANK17  BANK18  BANK19  BANK20  BANK21  BANK22  BANK23  BANK24  BANK25
  6880 ;;      Params:         4       0       0       0       0       0       0       0       0       0       0       0       
      +0       0       0       0       0       0       0       0       0       0       0       0       0       0       0
  6881 ;;      Locals:         2       0       0       0       0       0       0       0       0       0       0       0       
      +0       0       0       0       0       0       0       0       0       0       0       0       0       0       0
  6882 ;;      Temps:          1       0       0       0       0       0       0       0       0       0       0       0       
      +0       0       0       0       0       0       0       0       0       0       0       0       0       0       0
  6883 ;;      Totals:         7       0       0       0       0       0       0       0       0       0       0       0       
      +0       0       0       0       0       0       0       0       0       0       0       0       0       0       0
  6884 ;;Total ram usage:        7 bytes
  6885 ;; Hardware stack levels used: 1
  6886 ;; This function calls:
  6887 ;;		Nothing
  6888 ;; This function is called by:
  6889 ;;		_itoa
  6890 ;; This function uses a non-reentrant model
  6891 ;;
  6892                           
  6893     0B65                     ___awmod:	
  6894                           ;psect for function ___awmod
  6895                           
  6896     0B65                     l2024:	
  6897                           ;incstack = 0
  6898                           ; Regs used in ___awmod: [wreg+status,2+status,0]
  6899                           
  6900     0B65  01F6               	clrf	___awmod@sign
  6901     0B66                     l2026:
  6902     0B66  1FF3               	btfss	___awmod@dividend+1,7
  6903     0B67  2B69               	goto	u1451
  6904     0B68  2B6A               	goto	u1450
  6905     0B69                     u1451:
  6906     0B69  2B71               	goto	l2032
  6907     0B6A                     u1450:
  6908     0B6A                     l2028:
  6909     0B6A  09F2               	comf	___awmod@dividend,f
  6910     0B6B  09F3               	comf	___awmod@dividend+1,f
  6911     0B6C  0AF2               	incf	___awmod@dividend,f
  6912     0B6D  1903               	skipnz
  6913     0B6E  0AF3               	incf	___awmod@dividend+1,f
  6914     0B6F                     l2030:
  6915     0B6F  01F6               	clrf	___awmod@sign
  6916     0B70  0AF6               	incf	___awmod@sign,f
  6917     0B71                     l2032:
  6918     0B71  1FF1               	btfss	___awmod@divisor+1,7
  6919     0B72  2B74               	goto	u1461
  6920     0B73  2B75               	goto	u1460
  6921     0B74                     u1461:
  6922     0B74  2B7A               	goto	l2036
  6923     0B75                     u1460:
  6924     0B75                     l2034:
  6925     0B75  09F0               	comf	___awmod@divisor,f
  6926     0B76  09F1               	comf	___awmod@divisor+1,f
  6927     0B77  0AF0               	incf	___awmod@divisor,f
  6928     0B78  1903               	skipnz
  6929     0B79  0AF1               	incf	___awmod@divisor+1,f
  6930     0B7A                     l2036:
  6931     0B7A  0870               	movf	___awmod@divisor,w
  6932     0B7B  0471               	iorwf	___awmod@divisor+1,w
  6933     0B7C  1903               	btfsc	3,2
  6934     0B7D  2B7F               	goto	u1471
  6935     0B7E  2B80               	goto	u1470
  6936     0B7F                     u1471:
  6937     0B7F  2BA9               	goto	l2054
  6938     0B80                     u1470:
  6939     0B80                     l2038:
  6940     0B80  01F5               	clrf	___awmod@counter
  6941     0B81  0AF5               	incf	___awmod@counter,f
  6942     0B82  2B8C               	goto	l2044
  6943     0B83                     l2040:
  6944     0B83  3001               	movlw	1
  6945     0B84                     u1485:
  6946     0B84  35F0               	lslf	___awmod@divisor,f
  6947     0B85  0DF1               	rlf	___awmod@divisor+1,f
  6948     0B86  0B89               	decfsz	9,f
  6949     0B87  2B84               	goto	u1485
  6950     0B88                     l2042:
  6951     0B88  3001               	movlw	1
  6952     0B89  00F4               	movwf	??___awmod
  6953     0B8A  0874               	movf	??___awmod,w
  6954     0B8B  07F5               	addwf	___awmod@counter,f
  6955     0B8C                     l2044:
  6956     0B8C  1FF1               	btfss	___awmod@divisor+1,7
  6957     0B8D  2B8F               	goto	u1491
  6958     0B8E  2B90               	goto	u1490
  6959     0B8F                     u1491:
  6960     0B8F  2B83               	goto	l2040
  6961     0B90                     u1490:
  6962     0B90                     l2046:
  6963     0B90  0871               	movf	___awmod@divisor+1,w
  6964     0B91  0273               	subwf	___awmod@dividend+1,w
  6965     0B92  1D03               	skipz
  6966     0B93  2B96               	goto	u1505
  6967     0B94  0870               	movf	___awmod@divisor,w
  6968     0B95  0272               	subwf	___awmod@dividend,w
  6969     0B96                     u1505:
  6970     0B96  1C03               	skipc
  6971     0B97  2B99               	goto	u1501
  6972     0B98  2B9A               	goto	u1500
  6973     0B99                     u1501:
  6974     0B99  2B9E               	goto	l2050
  6975     0B9A                     u1500:
  6976     0B9A                     l2048:
  6977     0B9A  0870               	movf	___awmod@divisor,w
  6978     0B9B  02F2               	subwf	___awmod@dividend,f
  6979     0B9C  0871               	movf	___awmod@divisor+1,w
  6980     0B9D  3BF3               	subwfb	___awmod@dividend+1,f
  6981     0B9E                     l2050:
  6982     0B9E  3001               	movlw	1
  6983     0B9F                     u1515:
  6984     0B9F  36F1               	lsrf	___awmod@divisor+1,f
  6985     0BA0  0CF0               	rrf	___awmod@divisor,f
  6986     0BA1  0B89               	decfsz	9,f
  6987     0BA2  2B9F               	goto	u1515
  6988     0BA3                     l2052:
  6989     0BA3  3001               	movlw	1
  6990     0BA4  02F5               	subwf	___awmod@counter,f
  6991     0BA5  1D03               	btfss	3,2
  6992     0BA6  2BA8               	goto	u1521
  6993     0BA7  2BA9               	goto	u1520
  6994     0BA8                     u1521:
  6995     0BA8  2B90               	goto	l2046
  6996     0BA9                     u1520:
  6997     0BA9                     l2054:
  6998     0BA9  0876               	movf	___awmod@sign,w
  6999     0BAA  1903               	btfsc	3,2
  7000     0BAB  2BAD               	goto	u1531
  7001     0BAC  2BAE               	goto	u1530
  7002     0BAD                     u1531:
  7003     0BAD  2BB3               	goto	l2058
  7004     0BAE                     u1530:
  7005     0BAE                     l2056:
  7006     0BAE  09F2               	comf	___awmod@dividend,f
  7007     0BAF  09F3               	comf	___awmod@dividend+1,f
  7008     0BB0  0AF2               	incf	___awmod@dividend,f
  7009     0BB1  1903               	skipnz
  7010     0BB2  0AF3               	incf	___awmod@dividend+1,f
  7011     0BB3                     l2058:
  7012     0BB3  0873               	movf	___awmod@dividend+1,w
  7013     0BB4  00F1               	movwf	?___awmod+1
  7014     0BB5  0872               	movf	___awmod@dividend,w
  7015     0BB6  00F0               	movwf	?___awmod
  7016     0BB7                     l654:
  7017     0BB7  0008               	return
  7018     0BB8                     __end_of___awmod:
  7019                           
  7020                           	psect	text14
  7021     0C0C                     __ptext14:	
  7022 ;; *************** function ___awdiv *****************
  7023 ;; Defined at:
  7024 ;;		line 5 in file "C:\Program Files\Microchip\xc8\v2.46\pic\sources\c99\common\awdiv.c"
  7025 ;; Parameters:    Size  Location     Type
  7026 ;;  divisor         2    0[COMMON] int 
  7027 ;;  dividend        2    2[COMMON] int 
  7028 ;; Auto vars:     Size  Location     Type
  7029 ;;  quotient        2    7[COMMON] int 
  7030 ;;  sign            1    6[COMMON] unsigned char 
  7031 ;;  counter         1    5[COMMON] unsigned char 
  7032 ;; Return value:  Size  Location     Type
  7033 ;;                  2    0[COMMON] int 
  7034 ;; Registers used:
  7035 ;;		wreg, status,2, status,0
  7036 ;; Tracked objects:
  7037 ;;		On entry : 0/0
  7038 ;;		On exit  : 0/0
  7039 ;;		Unchanged: 0/0
  7040 ;; Data sizes:     COMMON   BANK0   BANK1   BANK2   BANK3   BANK4   BANK5   BANK6   BANK7   BANK8   BANK9  BANK10  BANK1
      +1  BANK12  BANK13  BANK14  BANK15  BANK16  BANK17  BANK18  BANK19  BANK20  BANK21  BANK22  BANK23  BANK24  BANK25
  7041 ;;      Params:         4       0       0       0       0       0       0       0       0       0       0       0       
      +0       0       0       0       0       0       0       0       0       0       0       0       0       0       0
  7042 ;;      Locals:         4       0       0       0       0       0       0       0       0       0       0       0       
      +0       0       0       0       0       0       0       0       0       0       0       0       0       0       0
  7043 ;;      Temps:          1       0       0       0       0       0       0       0       0       0       0       0       
      +0       0       0       0       0       0       0       0       0       0       0       0       0       0       0
  7044 ;;      Totals:         9       0       0       0       0       0       0       0       0       0       0       0       
      +0       0       0       0       0       0       0       0       0       0       0       0       0       0       0
  7045 ;;Total ram usage:        9 bytes
  7046 ;; Hardware stack levels used: 1
  7047 ;; This function calls:
  7048 ;;		Nothing
  7049 ;; This function is called by:
  7050 ;;		_itoa
  7051 ;; This function uses a non-reentrant model
  7052 ;;
  7053                           
  7054     0C0C                     ___awdiv:	
  7055                           ;psect for function ___awdiv
  7056                           
  7057     0C0C                     l1980:	
  7058                           ;incstack = 0
  7059                           ; Regs used in ___awdiv: [wreg+status,2+status,0]
  7060                           
  7061     0C0C  01F6               	clrf	___awdiv@sign
  7062     0C0D                     l1982:
  7063     0C0D  1FF1               	btfss	___awdiv@divisor+1,7
  7064     0C0E  2C10               	goto	u1351
  7065     0C0F  2C11               	goto	u1350
  7066     0C10                     u1351:
  7067     0C10  2C18               	goto	l1988
  7068     0C11                     u1350:
  7069     0C11                     l1984:
  7070     0C11  09F0               	comf	___awdiv@divisor,f
  7071     0C12  09F1               	comf	___awdiv@divisor+1,f
  7072     0C13  0AF0               	incf	___awdiv@divisor,f
  7073     0C14  1903               	skipnz
  7074     0C15  0AF1               	incf	___awdiv@divisor+1,f
  7075     0C16                     l1986:
  7076     0C16  01F6               	clrf	___awdiv@sign
  7077     0C17  0AF6               	incf	___awdiv@sign,f
  7078     0C18                     l1988:
  7079     0C18  1FF3               	btfss	___awdiv@dividend+1,7
  7080     0C19  2C1B               	goto	u1361
  7081     0C1A  2C1C               	goto	u1360
  7082     0C1B                     u1361:
  7083     0C1B  2C25               	goto	l1994
  7084     0C1C                     u1360:
  7085     0C1C                     l1990:
  7086     0C1C  09F2               	comf	___awdiv@dividend,f
  7087     0C1D  09F3               	comf	___awdiv@dividend+1,f
  7088     0C1E  0AF2               	incf	___awdiv@dividend,f
  7089     0C1F  1903               	skipnz
  7090     0C20  0AF3               	incf	___awdiv@dividend+1,f
  7091     0C21                     l1992:
  7092     0C21  3001               	movlw	1
  7093     0C22  00F4               	movwf	??___awdiv
  7094     0C23  0874               	movf	??___awdiv,w
  7095     0C24  06F6               	xorwf	___awdiv@sign,f
  7096     0C25                     l1994:
  7097     0C25  01F7               	clrf	___awdiv@quotient
  7098     0C26  01F8               	clrf	___awdiv@quotient+1
  7099     0C27                     l1996:
  7100     0C27  0870               	movf	___awdiv@divisor,w
  7101     0C28  0471               	iorwf	___awdiv@divisor+1,w
  7102     0C29  1903               	btfsc	3,2
  7103     0C2A  2C2C               	goto	u1371
  7104     0C2B  2C2D               	goto	u1370
  7105     0C2C                     u1371:
  7106     0C2C  2C5C               	goto	l2016
  7107     0C2D                     u1370:
  7108     0C2D                     l1998:
  7109     0C2D  01F5               	clrf	___awdiv@counter
  7110     0C2E  0AF5               	incf	___awdiv@counter,f
  7111     0C2F  2C39               	goto	l2004
  7112     0C30                     l2000:
  7113     0C30  3001               	movlw	1
  7114     0C31                     u1385:
  7115     0C31  35F0               	lslf	___awdiv@divisor,f
  7116     0C32  0DF1               	rlf	___awdiv@divisor+1,f
  7117     0C33  0B89               	decfsz	9,f
  7118     0C34  2C31               	goto	u1385
  7119     0C35                     l2002:
  7120     0C35  3001               	movlw	1
  7121     0C36  00F4               	movwf	??___awdiv
  7122     0C37  0874               	movf	??___awdiv,w
  7123     0C38  07F5               	addwf	___awdiv@counter,f
  7124     0C39                     l2004:
  7125     0C39  1FF1               	btfss	___awdiv@divisor+1,7
  7126     0C3A  2C3C               	goto	u1391
  7127     0C3B  2C3D               	goto	u1390
  7128     0C3C                     u1391:
  7129     0C3C  2C30               	goto	l2000
  7130     0C3D                     u1390:
  7131     0C3D                     l2006:
  7132     0C3D  3001               	movlw	1
  7133     0C3E                     u1405:
  7134     0C3E  35F7               	lslf	___awdiv@quotient,f
  7135     0C3F  0DF8               	rlf	___awdiv@quotient+1,f
  7136     0C40  0B89               	decfsz	9,f
  7137     0C41  2C3E               	goto	u1405
  7138     0C42  0871               	movf	___awdiv@divisor+1,w
  7139     0C43  0273               	subwf	___awdiv@dividend+1,w
  7140     0C44  1D03               	skipz
  7141     0C45  2C48               	goto	u1415
  7142     0C46  0870               	movf	___awdiv@divisor,w
  7143     0C47  0272               	subwf	___awdiv@dividend,w
  7144     0C48                     u1415:
  7145     0C48  1C03               	skipc
  7146     0C49  2C4B               	goto	u1411
  7147     0C4A  2C4C               	goto	u1410
  7148     0C4B                     u1411:
  7149     0C4B  2C51               	goto	l2012
  7150     0C4C                     u1410:
  7151     0C4C                     l2008:
  7152     0C4C  0870               	movf	___awdiv@divisor,w
  7153     0C4D  02F2               	subwf	___awdiv@dividend,f
  7154     0C4E  0871               	movf	___awdiv@divisor+1,w
  7155     0C4F  3BF3               	subwfb	___awdiv@dividend+1,f
  7156     0C50                     l2010:
  7157     0C50  1477               	bsf	___awdiv@quotient,0
  7158     0C51                     l2012:
  7159     0C51  3001               	movlw	1
  7160     0C52                     u1425:
  7161     0C52  36F1               	lsrf	___awdiv@divisor+1,f
  7162     0C53  0CF0               	rrf	___awdiv@divisor,f
  7163     0C54  0B89               	decfsz	9,f
  7164     0C55  2C52               	goto	u1425
  7165     0C56                     l2014:
  7166     0C56  3001               	movlw	1
  7167     0C57  02F5               	subwf	___awdiv@counter,f
  7168     0C58  1D03               	btfss	3,2
  7169     0C59  2C5B               	goto	u1431
  7170     0C5A  2C5C               	goto	u1430
  7171     0C5B                     u1431:
  7172     0C5B  2C3D               	goto	l2006
  7173     0C5C                     u1430:
  7174     0C5C                     l2016:
  7175     0C5C  0876               	movf	___awdiv@sign,w
  7176     0C5D  1903               	btfsc	3,2
  7177     0C5E  2C60               	goto	u1441
  7178     0C5F  2C61               	goto	u1440
  7179     0C60                     u1441:
  7180     0C60  2C66               	goto	l2020
  7181     0C61                     u1440:
  7182     0C61                     l2018:
  7183     0C61  09F7               	comf	___awdiv@quotient,f
  7184     0C62  09F8               	comf	___awdiv@quotient+1,f
  7185     0C63  0AF7               	incf	___awdiv@quotient,f
  7186     0C64  1903               	skipnz
  7187     0C65  0AF8               	incf	___awdiv@quotient+1,f
  7188     0C66                     l2020:
  7189     0C66  0878               	movf	___awdiv@quotient+1,w
  7190     0C67  00F1               	movwf	?___awdiv+1
  7191     0C68  0877               	movf	___awdiv@quotient,w
  7192     0C69  00F0               	movwf	?___awdiv
  7193     0C6A                     l641:
  7194     0C6A  0008               	return
  7195     0C6B                     __end_of___awdiv:
  7196                           
  7197                           	psect	text15
  7198     0A2E                     __ptext15:	
  7199 ;; *************** function _file_append *****************
  7200 ;; Defined at:
  7201 ;;		line 270 in file "fatfs.c"
  7202 ;; Parameters:    Size  Location     Type
  7203 ;;  string          2   26[BANK0 ] PTR const unsigned char 
  7204 ;;		 -> STR_46(26), STR_45(33), 
  7205 ;; Auto vars:     Size  Location     Type
  7206 ;;		None
  7207 ;; Return value:  Size  Location     Type
  7208 ;;                  1    wreg      void 
  7209 ;; Registers used:
  7210 ;;		wreg, fsr0l, fsr0h, fsr1l, fsr1h, status,2, status,0, pclath, cstack
  7211 ;; Tracked objects:
  7212 ;;		On entry : 0/0
  7213 ;;		On exit  : 0/0
  7214 ;;		Unchanged: 0/0
  7215 ;; Data sizes:     COMMON   BANK0   BANK1   BANK2   BANK3   BANK4   BANK5   BANK6   BANK7   BANK8   BANK9  BANK10  BANK1
      +1  BANK12  BANK13  BANK14  BANK15  BANK16  BANK17  BANK18  BANK19  BANK20  BANK21  BANK22  BANK23  BANK24  BANK25
  7216 ;;      Params:         0       2       0       0       0       0       0       0       0       0       0       0       
      +0       0       0       0       0       0       0       0       0       0       0       0       0       0       0
  7217 ;;      Locals:         0       0       0       0       0       0       0       0       0       0       0       0       
      +0       0       0       0       0       0       0       0       0       0       0       0       0       0       0
  7218 ;;      Temps:          0       5       0       0       0       0       0       0       0       0       0       0       
      +0       0       0       0       0       0       0       0       0       0       0       0       0       0       0
  7219 ;;      Totals:         0       7       0       0       0       0       0       0       0       0       0       0       
      +0       0       0       0       0       0       0       0       0       0       0       0       0       0       0
  7220 ;;Total ram usage:        7 bytes
  7221 ;; Hardware stack levels used: 1
  7222 ;; Hardware stack levels required when called: 5
  7223 ;; This function calls:
  7224 ;;		_sector_close
  7225 ;;		_sector_open
  7226 ;; This function is called by:
  7227 ;;		_main
  7228 ;; This function uses a non-reentrant model
  7229 ;;
  7230                           
  7231     0A2E                     _file_append:	
  7232                           ;psect for function _file_append
  7233                           
  7234     0A2E                     l2608:	
  7235                           ;incstack = 0
  7236                           ; Regs used in _file_append: [wreg-fsr1h+status,2+status,0+pclath+cstack]
  7237                           
  7238                           
  7239                           ;fatfs.c: 270: void file_append(const unsigned char* string);fatfs.c: 271: {;fatfs.c: 27
      +                          2:     while (*string)
  7240     0A2E  2A6C               	goto	l2628
  7241     0A2F                     l2610:
  7242                           
  7243                           ;fatfs.c: 273:     {;fatfs.c: 274:         if (byte_number < 512)
  7244     0A2F  3002               	movlw	2
  7245     0A30  0260               	subwf	_byte_number+1,w
  7246     0A31  3000               	movlw	0
  7247     0A32  1903               	skipnz
  7248     0A33  025F               	subwf	_byte_number,w
  7249     0A34  1803               	skipnc
  7250     0A35  2A37               	goto	u2271
  7251     0A36  2A38               	goto	u2270
  7252     0A37                     u2271:
  7253     0A37  2A5F               	goto	l2620
  7254     0A38                     u2270:
  7255     0A38                     l2612:
  7256                           
  7257                           ;fatfs.c: 275:         {;fatfs.c: 276:             SDWdata[byte_number] = *string;
  7258     0A38  083A               	movf	file_append@string,w
  7259     0A39  0084               	movwf	4
  7260     0A3A  083B               	movf	file_append@string+1,w
  7261     0A3B  0085               	movwf	5
  7262     0A3C  0800               	movf	0,w	;code access
  7263     0A3D  00BC               	movwf	??_file_append
  7264     0A3E  30F0               	movlw	240
  7265     0A3F  00BD               	movwf	??_file_append+1
  7266     0A40  3023               	movlw	35
  7267     0A41  00BE               	movwf	??_file_append+2
  7268     0A42  085F               	movf	_byte_number,w
  7269     0A43  073D               	addwf	??_file_append+1,w
  7270     0A44  00BF               	movwf	??_file_append+3
  7271     0A45  0860               	movf	_byte_number+1,w
  7272     0A46  3D3E               	addwfc	??_file_append+2,w
  7273     0A47  00C0               	movwf	??_file_append+4
  7274     0A48  083F               	movf	??_file_append+3,w
  7275     0A49  0086               	movwf	6
  7276     0A4A  0840               	movf	??_file_append+4,w
  7277     0A4B  0087               	movwf	7
  7278     0A4C  083C               	movf	??_file_append,w
  7279     0A4D  0081               	movwf	1
  7280     0A4E                     l2614:
  7281                           
  7282                           ;fatfs.c: 277:             string++;
  7283     0A4E  3001               	movlw	1
  7284     0A4F  07BA               	addwf	file_append@string,f
  7285     0A50  3000               	movlw	0
  7286     0A51  3DBB               	addwfc	file_append@string+1,f
  7287     0A52                     l2616:
  7288                           
  7289                           ;fatfs.c: 278:             byte_number++;
  7290     0A52  3001               	movlw	1
  7291     0A53  07DF               	addwf	_byte_number,f
  7292     0A54  3000               	movlw	0
  7293     0A55  3DE0               	addwfc	_byte_number+1,f
  7294     0A56                     l2618:
  7295                           
  7296                           ;fatfs.c: 279:             file_length++;
  7297     0A56  3001               	movlw	1
  7298     0A57  07D7               	addwf	_file_length,f
  7299     0A58  3000               	movlw	0
  7300     0A59  3DD8               	addwfc	_file_length+1,f
  7301     0A5A  3000               	movlw	0
  7302     0A5B  3DD9               	addwfc	_file_length+2,f
  7303     0A5C  3000               	movlw	0
  7304     0A5D  3DDA               	addwfc	_file_length+3,f
  7305                           
  7306                           ;fatfs.c: 280:         }
  7307     0A5E  2A6C               	goto	l2628
  7308     0A5F                     l2620:
  7309                           
  7310                           ;fatfs.c: 282:         {;fatfs.c: 283:             sector_close();
  7311     0A5F  3188  20BC  318A   	fcall	_sector_close
  7312     0A62                     l2622:
  7313                           
  7314                           ;fatfs.c: 284:             byte_number = 0;
  7315     0A62  0020               	movlb	0	; select bank0
  7316     0A63  01DF               	clrf	_byte_number
  7317     0A64  01E0               	clrf	_byte_number+1
  7318     0A65                     l2624:
  7319                           
  7320                           ;fatfs.c: 285:             current_sector++;
  7321     0A65  3001               	movlw	1
  7322     0A66  00BC               	movwf	??_file_append
  7323     0A67  083C               	movf	??_file_append,w
  7324     0A68  07EC               	addwf	_current_sector,f
  7325     0A69                     l2626:
  7326                           
  7327                           ;fatfs.c: 286:             sector_open();
  7328     0A69  318C  246B  318A   	fcall	_sector_open
  7329     0A6C                     l2628:
  7330                           
  7331                           ;fatfs.c: 272:     while (*string)
  7332     0A6C  0020               	movlb	0	; select bank0
  7333     0A6D  083A               	movf	file_append@string,w
  7334     0A6E  0084               	movwf	4
  7335     0A6F  083B               	movf	file_append@string+1,w
  7336     0A70  0085               	movwf	5
  7337     0A71  0012               	moviw fsr0++
  7338     0A72  1D03               	btfss	3,2
  7339     0A73  2A75               	goto	u2281
  7340     0A74  2A76               	goto	u2280
  7341     0A75                     u2281:
  7342     0A75  2A2F               	goto	l2610
  7343     0A76                     u2280:
  7344     0A76                     l172:
  7345     0A76  0008               	return
  7346     0A77                     __end_of_file_append:
  7347                           
  7348                           	psect	text16
  7349     0C6B                     __ptext16:	
  7350 ;; *************** function _sector_open *****************
  7351 ;; Defined at:
  7352 ;;		line 249 in file "fatfs.c"
  7353 ;; Parameters:    Size  Location     Type
  7354 ;;		None
  7355 ;; Auto vars:     Size  Location     Type
  7356 ;;  i               2   12[COMMON] unsigned int 
  7357 ;; Return value:  Size  Location     Type
  7358 ;;                  1    wreg      void 
  7359 ;; Registers used:
  7360 ;;		wreg, fsr0l, fsr0h, fsr1l, fsr1h, status,2, status,0, pclath, cstack
  7361 ;; Tracked objects:
  7362 ;;		On entry : 0/0
  7363 ;;		On exit  : 0/0
  7364 ;;		Unchanged: 0/0
  7365 ;; Data sizes:     COMMON   BANK0   BANK1   BANK2   BANK3   BANK4   BANK5   BANK6   BANK7   BANK8   BANK9  BANK10  BANK1
      +1  BANK12  BANK13  BANK14  BANK15  BANK16  BANK17  BANK18  BANK19  BANK20  BANK21  BANK22  BANK23  BANK24  BANK25
  7366 ;;      Params:         0       0       0       0       0       0       0       0       0       0       0       0       
      +0       0       0       0       0       0       0       0       0       0       0       0       0       0       0
  7367 ;;      Locals:         2       0       0       0       0       0       0       0       0       0       0       0       
      +0       0       0       0       0       0       0       0       0       0       0       0       0       0       0
  7368 ;;      Temps:          0       8       0       0       0       0       0       0       0       0       0       0       
      +0       0       0       0       0       0       0       0       0       0       0       0       0       0       0
  7369 ;;      Totals:         2       8       0       0       0       0       0       0       0       0       0       0       
      +0       0       0       0       0       0       0       0       0       0       0       0       0       0       0
  7370 ;;Total ram usage:       10 bytes
  7371 ;; Hardware stack levels used: 1
  7372 ;; Hardware stack levels required when called: 4
  7373 ;; This function calls:
  7374 ;;		_SDcard_read_block
  7375 ;;		___lmul
  7376 ;;		_dbg
  7377 ;;		_dbg_hex32
  7378 ;;		_dbg_nl
  7379 ;; This function is called by:
  7380 ;;		_file_append
  7381 ;;		_main
  7382 ;; This function uses a non-reentrant model
  7383 ;;
  7384                           
  7385     0C6B                     _sector_open:	
  7386                           ;psect for function _sector_open
  7387                           
  7388     0C6B                     l2398:	
  7389                           ;incstack = 0
  7390                           ; Regs used in _sector_open: [wreg-fsr1h+status,2+status,0+pclath+cstack]
  7391                           
  7392                           
  7393                           ;fatfs.c: 251:     current_sector_address =
  7394     0C6B  0020               	movlb	0	; select bank0
  7395     0C6C  086C               	movf	_current_sector,w
  7396     0C6D  00B2               	movwf	??_sector_open
  7397     0C6E  01B3               	clrf	??_sector_open+1
  7398     0C6F  01B4               	clrf	??_sector_open+2
  7399     0C70  01B5               	clrf	??_sector_open+3
  7400     0C71  0835               	movf	??_sector_open+3,w
  7401     0C72  00F3               	movwf	___lmul@multiplier+3
  7402     0C73  0834               	movf	??_sector_open+2,w
  7403     0C74  00F2               	movwf	___lmul@multiplier+2
  7404     0C75  0833               	movf	??_sector_open+1,w
  7405     0C76  00F1               	movwf	___lmul@multiplier+1
  7406     0C77  0832               	movf	??_sector_open,w
  7407     0C78  00F0               	movwf	___lmul@multiplier
  7408     0C79  0869               	movf	_sector_size,w
  7409     0C7A  00F4               	movwf	___lmul@multiplicand
  7410     0C7B  086A               	movf	_sector_size+1,w
  7411     0C7C  00F5               	movwf	___lmul@multiplicand+1
  7412     0C7D  01F6               	clrf	___lmul@multiplicand+2
  7413     0C7E  01F7               	clrf	___lmul@multiplicand+3
  7414     0C7F  3189  21B3  318C   	fcall	___lmul
  7415     0C82  0870               	movf	?___lmul,w
  7416     0C83  0021               	movlb	1	; select bank1
  7417     0C84  072C               	addwf	_start_sector_address^(0+128),w
  7418     0C85  0020               	movlb	0	; select bank0
  7419     0C86  00B6               	movwf	??_sector_open+4
  7420     0C87  0871               	movf	?___lmul+1,w
  7421     0C88  0021               	movlb	1	; select bank1
  7422     0C89  3D2D               	addwfc	(_start_sector_address+1)^(0+128),w
  7423     0C8A  0020               	movlb	0	; select bank0
  7424     0C8B  00B7               	movwf	??_sector_open+5
  7425     0C8C  0872               	movf	?___lmul+2,w
  7426     0C8D  0021               	movlb	1	; select bank1
  7427     0C8E  3D2E               	addwfc	(_start_sector_address+2)^(0+128),w
  7428     0C8F  0020               	movlb	0	; select bank0
  7429     0C90  00B8               	movwf	??_sector_open+6
  7430     0C91  0873               	movf	?___lmul+3,w
  7431     0C92  0021               	movlb	1	; select bank1
  7432     0C93  3D2F               	addwfc	(_start_sector_address+3)^(0+128),w
  7433     0C94  0020               	movlb	0	; select bank0
  7434     0C95  00B9               	movwf	??_sector_open+7
  7435     0C96  0839               	movf	??_sector_open+7,w
  7436     0C97  0021               	movlb	1	; select bank1
  7437     0C98  00AB               	movwf	(_current_sector_address+3)^(0+128)
  7438     0C99  0020               	movlb	0	; select bank0
  7439     0C9A  0838               	movf	??_sector_open+6,w
  7440     0C9B  0021               	movlb	1	; select bank1
  7441     0C9C  00AA               	movwf	(_current_sector_address+2)^(0+128)
  7442     0C9D  0020               	movlb	0	; select bank0
  7443     0C9E  0837               	movf	??_sector_open+5,w
  7444     0C9F  0021               	movlb	1	; select bank1
  7445     0CA0  00A9               	movwf	(_current_sector_address+1)^(0+128)
  7446     0CA1  0020               	movlb	0	; select bank0
  7447     0CA2  0836               	movf	??_sector_open+4,w
  7448     0CA3  0021               	movlb	1	; select bank1
  7449     0CA4  00A8               	movwf	_current_sector_address^(0+128)
  7450     0CA5                     l2400:
  7451                           
  7452                           ;fatfs.c: 255:     SDcard_read_block(current_sector_address);
  7453     0CA5  082B               	movf	(_current_sector_address+3)^(0+128),w
  7454     0CA6  00FB               	movwf	SDcard_read_block@address+3
  7455     0CA7  082A               	movf	(_current_sector_address+2)^(0+128),w
  7456     0CA8  00FA               	movwf	SDcard_read_block@address+2
  7457     0CA9  0829               	movf	(_current_sector_address+1)^(0+128),w
  7458     0CAA  00F9               	movwf	SDcard_read_block@address+1
  7459     0CAB  0828               	movf	_current_sector_address^(0+128),w
  7460     0CAC  00F8               	movwf	SDcard_read_block@address
  7461     0CAD  318E  261C  318C   	fcall	_SDcard_read_block
  7462     0CB0                     l2402:
  7463                           
  7464                           ;fatfs.c: 257:     dbg("Address of current sector: ");
  7465     0CB0  3089               	movlw	low (STR_10| (0+32768))
  7466     0CB1  00F6               	movwf	dbg@s
  7467     0CB2  3091               	movlw	high (STR_10| (0+32768))
  7468     0CB3  00F7               	movwf	dbg@s+1
  7469     0CB4  3188  2081  318C   	fcall	_dbg
  7470     0CB7                     l2404:
  7471                           
  7472                           ;fatfs.c: 258:     dbg_hex32(current_sector_address);
  7473     0CB7  0021               	movlb	1	; select bank1
  7474     0CB8  082B               	movf	(_current_sector_address+3)^(0+128),w
  7475     0CB9  00FB               	movwf	dbg_hex32@v+3
  7476     0CBA  082A               	movf	(_current_sector_address+2)^(0+128),w
  7477     0CBB  00FA               	movwf	dbg_hex32@v+2
  7478     0CBC  0829               	movf	(_current_sector_address+1)^(0+128),w
  7479     0CBD  00F9               	movwf	dbg_hex32@v+1
  7480     0CBE  0828               	movf	_current_sector_address^(0+128),w
  7481     0CBF  00F8               	movwf	dbg_hex32@v
  7482     0CC0  318A  2277  318C   	fcall	_dbg_hex32
  7483     0CC3                     l2406:
  7484                           
  7485                           ;fatfs.c: 259:     dbg_nl();
  7486     0CC3  3188  2067  318C   	fcall	_dbg_nl
  7487     0CC6                     l2408:
  7488                           
  7489                           ;fatfs.c: 261:     for (unsigned int i = 0; i < 512; i++)
  7490     0CC6  01FC               	clrf	sector_open@i
  7491     0CC7  01FD               	clrf	sector_open@i+1
  7492     0CC8                     l2414:
  7493                           
  7494                           ;fatfs.c: 262:         SDWdata[i] = SDRdata[i];
  7495     0CC8  30F0               	movlw	240
  7496     0CC9  0020               	movlb	0	; select bank0
  7497     0CCA  00B2               	movwf	??_sector_open
  7498     0CCB  3025               	movlw	37
  7499     0CCC  00B3               	movwf	??_sector_open+1
  7500     0CCD  087C               	movf	sector_open@i,w
  7501     0CCE  0732               	addwf	??_sector_open,w
  7502     0CCF  0086               	movwf	6
  7503     0CD0  087D               	movf	sector_open@i+1,w
  7504     0CD1  3D33               	addwfc	??_sector_open+1,w
  7505     0CD2  0087               	movwf	7
  7506     0CD3  0801               	movf	1,w
  7507     0CD4  00B4               	movwf	??_sector_open+2
  7508     0CD5  30F0               	movlw	240
  7509     0CD6  00B5               	movwf	??_sector_open+3
  7510     0CD7  3023               	movlw	35
  7511     0CD8  00B6               	movwf	??_sector_open+4
  7512     0CD9  087C               	movf	sector_open@i,w
  7513     0CDA  0735               	addwf	??_sector_open+3,w
  7514     0CDB  00B7               	movwf	??_sector_open+5
  7515     0CDC  087D               	movf	sector_open@i+1,w
  7516     0CDD  3D36               	addwfc	??_sector_open+4,w
  7517     0CDE  00B8               	movwf	??_sector_open+6
  7518     0CDF  0837               	movf	??_sector_open+5,w
  7519     0CE0  0086               	movwf	6
  7520     0CE1  0838               	movf	??_sector_open+6,w
  7521     0CE2  0087               	movwf	7
  7522     0CE3  0834               	movf	??_sector_open+2,w
  7523     0CE4  0081               	movwf	1
  7524     0CE5                     l2416:
  7525     0CE5  3001               	movlw	1
  7526     0CE6  07FC               	addwf	sector_open@i,f
  7527     0CE7  3000               	movlw	0
  7528     0CE8  3DFD               	addwfc	sector_open@i+1,f
  7529     0CE9                     l2418:
  7530     0CE9  3002               	movlw	2
  7531     0CEA  027D               	subwf	sector_open@i+1,w
  7532     0CEB  3000               	movlw	0
  7533     0CEC  1903               	skipnz
  7534     0CED  027C               	subwf	sector_open@i,w
  7535     0CEE  1C03               	skipc
  7536     0CEF  2CF1               	goto	u2061
  7537     0CF0  2CF2               	goto	u2060
  7538     0CF1                     u2061:
  7539     0CF1  2CC8               	goto	l2414
  7540     0CF2                     u2060:
  7541     0CF2                     l161:
  7542     0CF2  0008               	return
  7543     0CF3                     __end_of_sector_open:
  7544                           
  7545                           	psect	text17
  7546     0867                     __ptext17:	
  7547 ;; *************** function _dbg_nl *****************
  7548 ;; Defined at:
  7549 ;;		line 46 in file "fatfs.c"
  7550 ;; Parameters:    Size  Location     Type
  7551 ;;		None
  7552 ;; Auto vars:     Size  Location     Type
  7553 ;;		None
  7554 ;; Return value:  Size  Location     Type
  7555 ;;                  1    wreg      void 
  7556 ;; Registers used:
  7557 ;;		wreg, status,2, status,0, pclath, cstack
  7558 ;; Tracked objects:
  7559 ;;		On entry : 0/0
  7560 ;;		On exit  : 0/0
  7561 ;;		Unchanged: 0/0
  7562 ;; Data sizes:     COMMON   BANK0   BANK1   BANK2   BANK3   BANK4   BANK5   BANK6   BANK7   BANK8   BANK9  BANK10  BANK1
      +1  BANK12  BANK13  BANK14  BANK15  BANK16  BANK17  BANK18  BANK19  BANK20  BANK21  BANK22  BANK23  BANK24  BANK25
  7563 ;;      Params:         0       0       0       0       0       0       0       0       0       0       0       0       
      +0       0       0       0       0       0       0       0       0       0       0       0       0       0       0
  7564 ;;      Locals:         0       0       0       0       0       0       0       0       0       0       0       0       
      +0       0       0       0       0       0       0       0       0       0       0       0       0       0       0
  7565 ;;      Temps:          0       0       0       0       0       0       0       0       0       0       0       0       
      +0       0       0       0       0       0       0       0       0       0       0       0       0       0       0
  7566 ;;      Totals:         0       0       0       0       0       0       0       0       0       0       0       0       
      +0       0       0       0       0       0       0       0       0       0       0       0       0       0       0
  7567 ;;Total ram usage:        0 bytes
  7568 ;; Hardware stack levels used: 1
  7569 ;; Hardware stack levels required when called: 1
  7570 ;; This function calls:
  7571 ;;		_EUSART_Write
  7572 ;; This function is called by:
  7573 ;;		_mount_disk
  7574 ;;		_file_create
  7575 ;;		_sector_open
  7576 ;;		_file_update_size
  7577 ;; This function uses a non-reentrant model
  7578 ;;
  7579                           
  7580     0867                     _dbg_nl:	
  7581                           ;psect for function _dbg_nl
  7582                           
  7583     0867                     l2160:	
  7584                           ;incstack = 0
  7585                           ; Regs used in _dbg_nl: [wreg+status,2+status,0+pclath+cstack]
  7586                           
  7587                           
  7588                           ;fatfs.c: 48:     EUSART_Write('\n');
  7589     0867  300A               	movlw	10
  7590     0868  3188  209B  3188   	fcall	_EUSART_Write
  7591     086B                     l120:
  7592     086B  0008               	return
  7593     086C                     __end_of_dbg_nl:
  7594                           
  7595                           	psect	text18
  7596     0A77                     __ptext18:	
  7597 ;; *************** function _dbg_hex32 *****************
  7598 ;; Defined at:
  7599 ;;		line 52 in file "fatfs.c"
  7600 ;; Parameters:    Size  Location     Type
  7601 ;;  v               4    8[COMMON] unsigned long 
  7602 ;; Auto vars:     Size  Location     Type
  7603 ;;  nib             1   15[BANK0 ] unsigned char 
  7604 ;;  i               2   16[BANK0 ] int 
  7605 ;;  buf            11    4[BANK0 ] unsigned char [11]
  7606 ;; Return value:  Size  Location     Type
  7607 ;;                  1    wreg      void 
  7608 ;; Registers used:
  7609 ;;		wreg, fsr0l, fsr0h, fsr1l, fsr1h, status,2, status,0, pclath, cstack
  7610 ;; Tracked objects:
  7611 ;;		On entry : 0/0
  7612 ;;		On exit  : 0/0
  7613 ;;		Unchanged: 0/0
  7614 ;; Data sizes:     COMMON   BANK0   BANK1   BANK2   BANK3   BANK4   BANK5   BANK6   BANK7   BANK8   BANK9  BANK10  BANK1
      +1  BANK12  BANK13  BANK14  BANK15  BANK16  BANK17  BANK18  BANK19  BANK20  BANK21  BANK22  BANK23  BANK24  BANK25
  7615 ;;      Params:         4       0       0       0       0       0       0       0       0       0       0       0       
      +0       0       0       0       0       0       0       0       0       0       0       0       0       0       0
  7616 ;;      Locals:         0      14       0       0       0       0       0       0       0       0       0       0       
      +0       0       0       0       0       0       0       0       0       0       0       0       0       0       0
  7617 ;;      Temps:          0       4       0       0       0       0       0       0       0       0       0       0       
      +0       0       0       0       0       0       0       0       0       0       0       0       0       0       0
  7618 ;;      Totals:         4      18       0       0       0       0       0       0       0       0       0       0       
      +0       0       0       0       0       0       0       0       0       0       0       0       0       0       0
  7619 ;;Total ram usage:       22 bytes
  7620 ;; Hardware stack levels used: 1
  7621 ;; Hardware stack levels required when called: 3
  7622 ;; This function calls:
  7623 ;;		___bmul
  7624 ;;		_dbg
  7625 ;; This function is called by:
  7626 ;;		_mount_disk
  7627 ;;		_file_create
  7628 ;;		_sector_open
  7629 ;;		_file_update_size
  7630 ;; This function uses a non-reentrant model
  7631 ;;
  7632                           
  7633     0A77                     _dbg_hex32:	
  7634                           ;psect for function _dbg_hex32
  7635                           
  7636     0A77                     l2162:	
  7637                           ;incstack = 0
  7638                           ; Regs used in _dbg_hex32: [wreg-fsr1h+status,2+status,0+pclath+cstack]
  7639                           
  7640                           
  7641                           ;fatfs.c: 52: static void dbg_hex32(unsigned long v);fatfs.c: 53: {;fatfs.c: 54:     sta
      +                          tic const char hex[] = "0123456789ABCDEF";;fatfs.c: 55:     char buf[11];;fatfs.c: 56:  
      +                             buf[0] = '0';
  7642     0A77  3030               	movlw	48
  7643     0A78  0020               	movlb	0	; select bank0
  7644     0A79  00A4               	movwf	dbg_hex32@buf
  7645                           
  7646                           ;fatfs.c: 57:     buf[1] = 'x';
  7647     0A7A  3078               	movlw	120
  7648     0A7B  00A5               	movwf	dbg_hex32@buf+1
  7649     0A7C                     l2164:
  7650                           
  7651                           ;fatfs.c: 58:     for (int i = 0; i < 8; i++)
  7652     0A7C  01B0               	clrf	dbg_hex32@i
  7653     0A7D  01B1               	clrf	dbg_hex32@i+1
  7654     0A7E                     l2170:
  7655                           
  7656                           ;fatfs.c: 59:     {;fatfs.c: 60:         unsigned char nib = (v >> (28 - 4*i)) & 0x0F;
  7657     0A7E  0878               	movf	dbg_hex32@v,w
  7658     0A7F  0020               	movlb	0	; select bank0
  7659     0A80  00A0               	movwf	??_dbg_hex32
  7660     0A81  0879               	movf	dbg_hex32@v+1,w
  7661     0A82  00A1               	movwf	??_dbg_hex32+1
  7662     0A83  087A               	movf	dbg_hex32@v+2,w
  7663     0A84  00A2               	movwf	??_dbg_hex32+2
  7664     0A85  087B               	movf	dbg_hex32@v+3,w
  7665     0A86  00A3               	movwf	??_dbg_hex32+3
  7666     0A87  30FC               	movlw	252
  7667     0A88  00F0               	movwf	___bmul@multiplicand
  7668     0A89  0830               	movf	dbg_hex32@i,w
  7669     0A8A  3188  20C9  318A   	fcall	___bmul
  7670     0A8D  3E1C               	addlw	28
  7671     0A8E  0A89               	incf	9,f
  7672     0A8F  0020               	movlb	0	; select bank0
  7673     0A90  2A95               	goto	u1660
  7674     0A91                     u1665:
  7675     0A91  36A3               	lsrf	??_dbg_hex32+3,f
  7676     0A92  0CA2               	rrf	??_dbg_hex32+2,f
  7677     0A93  0CA1               	rrf	??_dbg_hex32+1,f
  7678     0A94  0CA0               	rrf	??_dbg_hex32,f
  7679     0A95                     u1660:
  7680     0A95  0B89               	decfsz	9,f
  7681     0A96  2A91               	goto	u1665
  7682     0A97  0820               	movf	??_dbg_hex32,w
  7683     0A98  390F               	andlw	15
  7684     0A99  00AF               	movwf	dbg_hex32@nib
  7685     0A9A                     l2172:
  7686                           
  7687                           ;fatfs.c: 61:         buf[2 + i] = hex[nib];
  7688     0A9A  0830               	movf	dbg_hex32@i,w
  7689     0A9B  3E02               	addlw	2
  7690     0A9C  3E24               	addlw	(low (dbg_hex32@buf| 0))& (0+255)
  7691     0A9D  0086               	movwf	6
  7692     0A9E  0187               	clrf	7
  7693     0A9F  082F               	movf	dbg_hex32@nib,w
  7694     0AA0  3E00               	addlw	low (dbg_hex32@hex| (0+32768))
  7695     0AA1  0084               	movwf	4
  7696     0AA2  3090               	movlw	high (dbg_hex32@hex| (0+32768))
  7697     0AA3  1803               	skipnc
  7698     0AA4  3E01               	addlw	1
  7699     0AA5  0085               	movwf	5
  7700     0AA6  0800               	movf	0,w	;code access
  7701     0AA7  0081               	movwf	1
  7702     0AA8                     l2174:
  7703                           
  7704                           ;fatfs.c: 62:     }
  7705     0AA8  3001               	movlw	1
  7706     0AA9  07B0               	addwf	dbg_hex32@i,f
  7707     0AAA  3000               	movlw	0
  7708     0AAB  3DB1               	addwfc	dbg_hex32@i+1,f
  7709     0AAC                     l2176:
  7710     0AAC  0831               	movf	dbg_hex32@i+1,w
  7711     0AAD  3A80               	xorlw	128
  7712     0AAE  00A0               	movwf	??_dbg_hex32
  7713     0AAF  3080               	movlw	128
  7714     0AB0  0220               	subwf	??_dbg_hex32,w
  7715     0AB1  1D03               	skipz
  7716     0AB2  2AB5               	goto	u1675
  7717     0AB3  3008               	movlw	8
  7718     0AB4  0230               	subwf	dbg_hex32@i,w
  7719     0AB5                     u1675:
  7720     0AB5  1C03               	skipc
  7721     0AB6  2AB8               	goto	u1671
  7722     0AB7  2AB9               	goto	u1670
  7723     0AB8                     u1671:
  7724     0AB8  2A7E               	goto	l2170
  7725     0AB9                     u1670:
  7726     0AB9                     l2178:
  7727                           
  7728                           ;fatfs.c: 63:     buf[10] = '\0';
  7729     0AB9  0020               	movlb	0	; select bank0
  7730     0ABA  01AE               	clrf	dbg_hex32@buf+10
  7731     0ABB                     l2180:
  7732                           
  7733                           ;fatfs.c: 64:     dbg(buf);
  7734     0ABB  3024               	movlw	low dbg_hex32@buf
  7735     0ABC  00F6               	movwf	dbg@s
  7736     0ABD  3000               	movlw	high dbg_hex32@buf
  7737     0ABE  00F7               	movwf	dbg@s+1
  7738     0ABF  3188  2081  318A   	fcall	_dbg
  7739     0AC2                     l127:
  7740     0AC2  0008               	return
  7741     0AC3                     __end_of_dbg_hex32:
  7742                           
  7743                           	psect	text19
  7744     0881                     __ptext19:	
  7745 ;; *************** function _dbg *****************
  7746 ;; Defined at:
  7747 ;;		line 41 in file "fatfs.c"
  7748 ;; Parameters:    Size  Location     Type
  7749 ;;  s               2    6[COMMON] PTR const unsigned char 
  7750 ;;		 -> STR_11(12), STR_10(28), STR_9(15), STR_8(7), 
  7751 ;;		 -> STR_7(48), STR_6(19), STR_5(17), STR_4(7), 
  7752 ;;		 -> STR_3(39), STR_2(7), STR_1(15), dbg_hex32@buf(11), 
  7753 ;; Auto vars:     Size  Location     Type
  7754 ;;		None
  7755 ;; Return value:  Size  Location     Type
  7756 ;;                  1    wreg      void 
  7757 ;; Registers used:
  7758 ;;		wreg, fsr0l, fsr0h, status,2, status,0, pclath, cstack
  7759 ;; Tracked objects:
  7760 ;;		On entry : 0/0
  7761 ;;		On exit  : 0/0
  7762 ;;		Unchanged: 0/0
  7763 ;; Data sizes:     COMMON   BANK0   BANK1   BANK2   BANK3   BANK4   BANK5   BANK6   BANK7   BANK8   BANK9  BANK10  BANK1
      +1  BANK12  BANK13  BANK14  BANK15  BANK16  BANK17  BANK18  BANK19  BANK20  BANK21  BANK22  BANK23  BANK24  BANK25
  7764 ;;      Params:         2       0       0       0       0       0       0       0       0       0       0       0       
      +0       0       0       0       0       0       0       0       0       0       0       0       0       0       0
  7765 ;;      Locals:         0       0       0       0       0       0       0       0       0       0       0       0       
      +0       0       0       0       0       0       0       0       0       0       0       0       0       0       0
  7766 ;;      Temps:          0       0       0       0       0       0       0       0       0       0       0       0       
      +0       0       0       0       0       0       0       0       0       0       0       0       0       0       0
  7767 ;;      Totals:         2       0       0       0       0       0       0       0       0       0       0       0       
      +0       0       0       0       0       0       0       0       0       0       0       0       0       0       0
  7768 ;;Total ram usage:        2 bytes
  7769 ;; Hardware stack levels used: 1
  7770 ;; Hardware stack levels required when called: 2
  7771 ;; This function calls:
  7772 ;;		_EUSART_Write_Text
  7773 ;; This function is called by:
  7774 ;;		_dbg_hex32
  7775 ;;		_mount_disk
  7776 ;;		_file_create
  7777 ;;		_sector_open
  7778 ;;		_file_update_size
  7779 ;; This function uses a non-reentrant model
  7780 ;;
  7781                           
  7782     0881                     _dbg:	
  7783                           ;psect for function _dbg
  7784                           
  7785     0881                     l2080:	
  7786                           ;incstack = 0
  7787                           ; Regs used in _dbg: [wreg-fsr0h+status,2+status,0+pclath+cstack]
  7788                           
  7789                           
  7790                           ;fatfs.c: 41: static __attribute__((inline)) void dbg(const char *s);fatfs.c: 42: {;fatf
      +                          s.c: 43:     EUSART_Write_Text((char*)s);
  7791     0881  0877               	movf	dbg@s+1,w
  7792     0882  00F2               	movwf	EUSART_Write_Text@text+1
  7793     0883  0876               	movf	dbg@s,w
  7794     0884  00F1               	movwf	EUSART_Write_Text@text
  7795     0885  3188  20F8  3188   	fcall	_EUSART_Write_Text
  7796     0888                     l117:
  7797     0888  0008               	return
  7798     0889                     __end_of_dbg:
  7799                           
  7800                           	psect	text20
  7801     08C9                     __ptext20:	
  7802 ;; *************** function ___bmul *****************
  7803 ;; Defined at:
  7804 ;;		line 4 in file "C:\Program Files\Microchip\xc8\v2.46\pic\sources\c99\common\Umul8.c"
  7805 ;; Parameters:    Size  Location     Type
  7806 ;;  multiplier      1    wreg     unsigned char 
  7807 ;;  multiplicand    1    0[COMMON] unsigned char 
  7808 ;; Auto vars:     Size  Location     Type
  7809 ;;  multiplier      1    3[COMMON] unsigned char 
  7810 ;;  product         1    2[COMMON] unsigned char 
  7811 ;; Return value:  Size  Location     Type
  7812 ;;                  1    wreg      unsigned char 
  7813 ;; Registers used:
  7814 ;;		wreg, status,2, status,0
  7815 ;; Tracked objects:
  7816 ;;		On entry : 0/0
  7817 ;;		On exit  : 0/0
  7818 ;;		Unchanged: 0/0
  7819 ;; Data sizes:     COMMON   BANK0   BANK1   BANK2   BANK3   BANK4   BANK5   BANK6   BANK7   BANK8   BANK9  BANK10  BANK1
      +1  BANK12  BANK13  BANK14  BANK15  BANK16  BANK17  BANK18  BANK19  BANK20  BANK21  BANK22  BANK23  BANK24  BANK25
  7820 ;;      Params:         1       0       0       0       0       0       0       0       0       0       0       0       
      +0       0       0       0       0       0       0       0       0       0       0       0       0       0       0
  7821 ;;      Locals:         2       0       0       0       0       0       0       0       0       0       0       0       
      +0       0       0       0       0       0       0       0       0       0       0       0       0       0       0
  7822 ;;      Temps:          1       0       0       0       0       0       0       0       0       0       0       0       
      +0       0       0       0       0       0       0       0       0       0       0       0       0       0       0
  7823 ;;      Totals:         4       0       0       0       0       0       0       0       0       0       0       0       
      +0       0       0       0       0       0       0       0       0       0       0       0       0       0       0
  7824 ;;Total ram usage:        4 bytes
  7825 ;; Hardware stack levels used: 1
  7826 ;; This function calls:
  7827 ;;		Nothing
  7828 ;; This function is called by:
  7829 ;;		_dbg_hex32
  7830 ;; This function uses a non-reentrant model
  7831 ;;
  7832                           
  7833     08C9                     ___bmul:	
  7834                           ;psect for function ___bmul
  7835                           
  7836                           
  7837                           ;incstack = 0
  7838                           ; Regs used in ___bmul: [wreg+status,2+status,0]
  7839                           ;___bmul@multiplier stored from wreg
  7840     08C9  00F3               	movwf	___bmul@multiplier
  7841     08CA                     l2134:
  7842     08CA  01F2               	clrf	___bmul@product
  7843     08CB                     l2136:
  7844     08CB  1C73               	btfss	___bmul@multiplier,0
  7845     08CC  28CE               	goto	u1631
  7846     08CD  28CF               	goto	u1630
  7847     08CE                     u1631:
  7848     08CE  28D3               	goto	l2140
  7849     08CF                     u1630:
  7850     08CF                     l2138:
  7851     08CF  0870               	movf	___bmul@multiplicand,w
  7852     08D0  00F1               	movwf	??___bmul
  7853     08D1  0871               	movf	??___bmul,w
  7854     08D2  07F2               	addwf	___bmul@product,f
  7855     08D3                     l2140:
  7856     08D3  1003               	clrc
  7857     08D4  0DF0               	rlf	___bmul@multiplicand,f
  7858     08D5                     l2142:
  7859     08D5  1003               	clrc
  7860     08D6  0CF3               	rrf	___bmul@multiplier,f
  7861     08D7  0873               	movf	___bmul@multiplier,w
  7862     08D8  1D03               	btfss	3,2
  7863     08D9  28DB               	goto	u1641
  7864     08DA  28DC               	goto	u1640
  7865     08DB                     u1641:
  7866     08DB  28CB               	goto	l2136
  7867     08DC                     u1640:
  7868     08DC                     l2144:
  7869     08DC  0872               	movf	___bmul@product,w
  7870     08DD                     l514:
  7871     08DD  0008               	return
  7872     08DE                     __end_of___bmul:
  7873                           
  7874                           	psect	text21
  7875     09B3                     __ptext21:	
  7876 ;; *************** function ___lmul *****************
  7877 ;; Defined at:
  7878 ;;		line 15 in file "C:\Program Files\Microchip\xc8\v2.46\pic\sources\c99\common\Umul32.c"
  7879 ;; Parameters:    Size  Location     Type
  7880 ;;  multiplier      4    0[COMMON] unsigned long 
  7881 ;;  multiplicand    4    4[COMMON] unsigned long 
  7882 ;; Auto vars:     Size  Location     Type
  7883 ;;  product         4    8[COMMON] unsigned long 
  7884 ;; Return value:  Size  Location     Type
  7885 ;;                  4    0[COMMON] unsigned long 
  7886 ;; Registers used:
  7887 ;;		wreg, status,2, status,0
  7888 ;; Tracked objects:
  7889 ;;		On entry : 0/0
  7890 ;;		On exit  : 0/0
  7891 ;;		Unchanged: 0/0
  7892 ;; Data sizes:     COMMON   BANK0   BANK1   BANK2   BANK3   BANK4   BANK5   BANK6   BANK7   BANK8   BANK9  BANK10  BANK1
      +1  BANK12  BANK13  BANK14  BANK15  BANK16  BANK17  BANK18  BANK19  BANK20  BANK21  BANK22  BANK23  BANK24  BANK25
  7893 ;;      Params:         8       0       0       0       0       0       0       0       0       0       0       0       
      +0       0       0       0       0       0       0       0       0       0       0       0       0       0       0
  7894 ;;      Locals:         4       0       0       0       0       0       0       0       0       0       0       0       
      +0       0       0       0       0       0       0       0       0       0       0       0       0       0       0
  7895 ;;      Temps:          0       0       0       0       0       0       0       0       0       0       0       0       
      +0       0       0       0       0       0       0       0       0       0       0       0       0       0       0
  7896 ;;      Totals:        12       0       0       0       0       0       0       0       0       0       0       0       
      +0       0       0       0       0       0       0       0       0       0       0       0       0       0       0
  7897 ;;Total ram usage:       12 bytes
  7898 ;; Hardware stack levels used: 1
  7899 ;; This function calls:
  7900 ;;		Nothing
  7901 ;; This function is called by:
  7902 ;;		_mount_disk
  7903 ;;		_file_create
  7904 ;;		_sector_open
  7905 ;; This function uses a non-reentrant model
  7906 ;;
  7907                           
  7908     09B3                     ___lmul:	
  7909                           ;psect for function ___lmul
  7910                           
  7911     09B3                     l2324:	
  7912                           ;incstack = 0
  7913                           ; Regs used in ___lmul: [wreg+status,2+status,0]
  7914                           
  7915     09B3  3000               	movlw	0
  7916     09B4  00FB               	movwf	___lmul@product+3
  7917     09B5  3000               	movlw	0
  7918     09B6  00FA               	movwf	___lmul@product+2
  7919     09B7  3000               	movlw	0
  7920     09B8  00F9               	movwf	___lmul@product+1
  7921     09B9  3000               	movlw	0
  7922     09BA  00F8               	movwf	___lmul@product
  7923     09BB                     l2326:
  7924     09BB  1C70               	btfss	___lmul@multiplier,0
  7925     09BC  29BE               	goto	u1901
  7926     09BD  29BF               	goto	u1900
  7927     09BE                     u1901:
  7928     09BE  29C7               	goto	l2330
  7929     09BF                     u1900:
  7930     09BF                     l2328:
  7931     09BF  0874               	movf	___lmul@multiplicand,w
  7932     09C0  07F8               	addwf	___lmul@product,f
  7933     09C1  0875               	movf	___lmul@multiplicand+1,w
  7934     09C2  3DF9               	addwfc	___lmul@product+1,f
  7935     09C3  0876               	movf	___lmul@multiplicand+2,w
  7936     09C4  3DFA               	addwfc	___lmul@product+2,f
  7937     09C5  0877               	movf	___lmul@multiplicand+3,w
  7938     09C6  3DFB               	addwfc	___lmul@product+3,f
  7939     09C7                     l2330:
  7940     09C7  3001               	movlw	1
  7941     09C8                     u1915:
  7942     09C8  35F4               	lslf	___lmul@multiplicand,f
  7943     09C9  0DF5               	rlf	___lmul@multiplicand+1,f
  7944     09CA  0DF6               	rlf	___lmul@multiplicand+2,f
  7945     09CB  0DF7               	rlf	___lmul@multiplicand+3,f
  7946     09CC  0B89               	decfsz	9,f
  7947     09CD  29C8               	goto	u1915
  7948     09CE                     l2332:
  7949     09CE  3001               	movlw	1
  7950     09CF                     u1925:
  7951     09CF  36F3               	lsrf	___lmul@multiplier+3,f
  7952     09D0  0CF2               	rrf	___lmul@multiplier+2,f
  7953     09D1  0CF1               	rrf	___lmul@multiplier+1,f
  7954     09D2  0CF0               	rrf	___lmul@multiplier,f
  7955     09D3  0B89               	decfsz	9,f
  7956     09D4  29CF               	goto	u1925
  7957     09D5  0873               	movf	___lmul@multiplier+3,w
  7958     09D6  0472               	iorwf	___lmul@multiplier+2,w
  7959     09D7  0471               	iorwf	___lmul@multiplier+1,w
  7960     09D8  0470               	iorwf	___lmul@multiplier,w
  7961     09D9  1D03               	skipz
  7962     09DA  29DC               	goto	u1931
  7963     09DB  29DD               	goto	u1930
  7964     09DC                     u1931:
  7965     09DC  29BB               	goto	l2326
  7966     09DD                     u1930:
  7967     09DD                     l2334:
  7968     09DD  087B               	movf	___lmul@product+3,w
  7969     09DE  00F3               	movwf	?___lmul+3
  7970     09DF  087A               	movf	___lmul@product+2,w
  7971     09E0  00F2               	movwf	?___lmul+2
  7972     09E1  0879               	movf	___lmul@product+1,w
  7973     09E2  00F1               	movwf	?___lmul+1
  7974     09E3  0878               	movf	___lmul@product,w
  7975     09E4  00F0               	movwf	?___lmul
  7976     09E5                     l502:
  7977     09E5  0008               	return
  7978     09E6                     __end_of___lmul:
  7979                           
  7980                           	psect	text22
  7981     0E1C                     __ptext22:	
  7982 ;; *************** function _SDcard_read_block *****************
  7983 ;; Defined at:
  7984 ;;		line 231 in file "sdcard.c"
  7985 ;; Parameters:    Size  Location     Type
  7986 ;;  address         4    8[COMMON] unsigned long 
  7987 ;; Auto vars:     Size  Location     Type
  7988 ;;  arg             4    4[BANK0 ] unsigned long 
  7989 ;; Return value:  Size  Location     Type
  7990 ;;                  1    wreg      void 
  7991 ;; Registers used:
  7992 ;;		wreg, fsr0l, fsr0h, fsr1l, fsr1h, status,2, status,0, pclath, cstack
  7993 ;; Tracked objects:
  7994 ;;		On entry : 0/0
  7995 ;;		On exit  : 0/0
  7996 ;;		Unchanged: 0/0
  7997 ;; Data sizes:     COMMON   BANK0   BANK1   BANK2   BANK3   BANK4   BANK5   BANK6   BANK7   BANK8   BANK9  BANK10  BANK1
      +1  BANK12  BANK13  BANK14  BANK15  BANK16  BANK17  BANK18  BANK19  BANK20  BANK21  BANK22  BANK23  BANK24  BANK25
  7998 ;;      Params:         4       0       0       0       0       0       0       0       0       0       0       0       
      +0       0       0       0       0       0       0       0       0       0       0       0       0       0       0
  7999 ;;      Locals:         0       4       0       0       0       0       0       0       0       0       0       0       
      +0       0       0       0       0       0       0       0       0       0       0       0       0       0       0
  8000 ;;      Temps:          0       4       0       0       0       0       0       0       0       0       0       0       
      +0       0       0       0       0       0       0       0       0       0       0       0       0       0       0
  8001 ;;      Totals:         4       8       0       0       0       0       0       0       0       0       0       0       
      +0       0       0       0       0       0       0       0       0       0       0       0       0       0       0
  8002 ;;Total ram usage:       12 bytes
  8003 ;; Hardware stack levels used: 1
  8004 ;; Hardware stack levels required when called: 3
  8005 ;; This function calls:
  8006 ;;		_SD_Deselect
  8007 ;;		_SD_Select
  8008 ;;		_SDcard_get_response
  8009 ;;		_dbg@sdcard$F275
  8010 ;;		_sd_recv
  8011 ;;		_sd_send
  8012 ;;		_sd_xfer
  8013 ;; This function is called by:
  8014 ;;		_mount_disk
  8015 ;;		_file_create
  8016 ;;		_sector_open
  8017 ;;		_file_update_size
  8018 ;; This function uses a non-reentrant model
  8019 ;;
  8020                           
  8021     0E1C                     _SDcard_read_block:	
  8022                           ;psect for function _SDcard_read_block
  8023                           
  8024     0E1C                     l2182:	
  8025                           ;incstack = 0
  8026                           ; Regs used in _SDcard_read_block: [wreg-fsr1h+status,2+status,0+pclath+cstack]
  8027                           
  8028                           
  8029                           ;sdcard.c: 231: void SDcard_read_block(unsigned long address);sdcard.c: 232: {;sdcard.c:
      +                           233:     dbg("Sending CMD17...");
  8030     0E1C  30A3               	movlw	low (STR_29| (0+32768))
  8031     0E1D  00F6               	movwf	dbg@sdcard$F275@s
  8032     0E1E  3092               	movlw	high (STR_29| (0+32768))
  8033     0E1F  00F7               	movwf	dbg@sdcard$F275@s+1
  8034     0E20  3188  2079  318E   	fcall	_dbg@sdcard$F275
  8035     0E23                     l2184:
  8036                           
  8037                           ;sdcard.c: 234:     SD_Select();
  8038     0E23  3188  2064  318E   	fcall	_SD_Select
  8039     0E26                     l2186:
  8040                           
  8041                           ;sdcard.c: 237:     uint32_t arg = (uint32_t)address;
  8042     0E26  087B               	movf	SDcard_read_block@address+3,w
  8043     0E27  0020               	movlb	0	; select bank0
  8044     0E28  00A7               	movwf	SDcard_read_block@arg+3
  8045     0E29  087A               	movf	SDcard_read_block@address+2,w
  8046     0E2A  00A6               	movwf	SDcard_read_block@arg+2
  8047     0E2B  0879               	movf	SDcard_read_block@address+1,w
  8048     0E2C  00A5               	movwf	SDcard_read_block@arg+1
  8049     0E2D  0878               	movf	SDcard_read_block@address,w
  8050     0E2E  00A4               	movwf	SDcard_read_block@arg
  8051     0E2F                     l2188:
  8052                           
  8053                           ;sdcard.c: 238:     if (sd_is_sdhc)
  8054     0E2F  086B               	movf	_sd_is_sdhc,w
  8055     0E30  1903               	btfsc	3,2
  8056     0E31  2E33               	goto	u1681
  8057     0E32  2E34               	goto	u1680
  8058     0E33                     u1681:
  8059     0E33  2E3B               	goto	l2192
  8060     0E34                     u1680:
  8061     0E34                     l2190:
  8062                           
  8063                           ;sdcard.c: 239:         arg >>= 9;
  8064     0E34  3009               	movlw	9
  8065     0E35                     u1695:
  8066     0E35  36A7               	lsrf	SDcard_read_block@arg+3,f
  8067     0E36  0CA6               	rrf	SDcard_read_block@arg+2,f
  8068     0E37  0CA5               	rrf	SDcard_read_block@arg+1,f
  8069     0E38  0CA4               	rrf	SDcard_read_block@arg,f
  8070     0E39  0B89               	decfsz	9,f
  8071     0E3A  2E35               	goto	u1695
  8072     0E3B                     l2192:
  8073                           
  8074                           ;sdcard.c: 242:     SDcommand[0] = 0x51;
  8075     0E3B  3051               	movlw	81
  8076     0E3C  0021               	movlb	1	; select bank1
  8077     0E3D  00BA               	movwf	_SDcommand^(0+128)
  8078     0E3E                     l2194:
  8079                           
  8080                           ;sdcard.c: 243:     SDcommand[1] = (arg >> 24) & 0xFF;
  8081     0E3E  0020               	movlb	0	; select bank0
  8082     0E3F  0824               	movf	SDcard_read_block@arg,w
  8083     0E40  00A0               	movwf	??_SDcard_read_block
  8084     0E41  0825               	movf	SDcard_read_block@arg+1,w
  8085     0E42  00A1               	movwf	??_SDcard_read_block+1
  8086     0E43  0826               	movf	SDcard_read_block@arg+2,w
  8087     0E44  00A2               	movwf	??_SDcard_read_block+2
  8088     0E45  0827               	movf	SDcard_read_block@arg+3,w
  8089     0E46  00A3               	movwf	??_SDcard_read_block+3
  8090     0E47  3018               	movlw	24
  8091     0E48                     u1705:
  8092     0E48  36A3               	lsrf	??_SDcard_read_block+3,f
  8093     0E49  0CA2               	rrf	??_SDcard_read_block+2,f
  8094     0E4A  0CA1               	rrf	??_SDcard_read_block+1,f
  8095     0E4B  0CA0               	rrf	??_SDcard_read_block,f
  8096     0E4C                     u1700:
  8097     0E4C  0B89               	decfsz	9,f
  8098     0E4D  2E48               	goto	u1705
  8099     0E4E  0820               	movf	??_SDcard_read_block,w
  8100     0E4F  0021               	movlb	1	; select bank1
  8101     0E50  00BB               	movwf	(_SDcommand^(0+128)+1)
  8102     0E51                     l2196:
  8103                           
  8104                           ;sdcard.c: 244:     SDcommand[2] = (arg >> 16) & 0xFF;
  8105     0E51  0020               	movlb	0	; select bank0
  8106     0E52  0824               	movf	SDcard_read_block@arg,w
  8107     0E53  00A0               	movwf	??_SDcard_read_block
  8108     0E54  0825               	movf	SDcard_read_block@arg+1,w
  8109     0E55  00A1               	movwf	??_SDcard_read_block+1
  8110     0E56  0826               	movf	SDcard_read_block@arg+2,w
  8111     0E57  00A2               	movwf	??_SDcard_read_block+2
  8112     0E58  0827               	movf	SDcard_read_block@arg+3,w
  8113     0E59  00A3               	movwf	??_SDcard_read_block+3
  8114     0E5A  3010               	movlw	16
  8115     0E5B                     u1715:
  8116     0E5B  36A3               	lsrf	??_SDcard_read_block+3,f
  8117     0E5C  0CA2               	rrf	??_SDcard_read_block+2,f
  8118     0E5D  0CA1               	rrf	??_SDcard_read_block+1,f
  8119     0E5E  0CA0               	rrf	??_SDcard_read_block,f
  8120     0E5F                     u1710:
  8121     0E5F  0B89               	decfsz	9,f
  8122     0E60  2E5B               	goto	u1715
  8123     0E61  0820               	movf	??_SDcard_read_block,w
  8124     0E62  0021               	movlb	1	; select bank1
  8125     0E63  00BC               	movwf	(_SDcommand^(0+128)+2)
  8126     0E64                     l2198:
  8127                           
  8128                           ;sdcard.c: 245:     SDcommand[3] = (arg >> 8) & 0xFF;
  8129     0E64  0020               	movlb	0	; select bank0
  8130     0E65  0824               	movf	SDcard_read_block@arg,w
  8131     0E66  00A0               	movwf	??_SDcard_read_block
  8132     0E67  0825               	movf	SDcard_read_block@arg+1,w
  8133     0E68  00A1               	movwf	??_SDcard_read_block+1
  8134     0E69  0826               	movf	SDcard_read_block@arg+2,w
  8135     0E6A  00A2               	movwf	??_SDcard_read_block+2
  8136     0E6B  0827               	movf	SDcard_read_block@arg+3,w
  8137     0E6C  00A3               	movwf	??_SDcard_read_block+3
  8138     0E6D  3008               	movlw	8
  8139     0E6E                     u1725:
  8140     0E6E  36A3               	lsrf	??_SDcard_read_block+3,f
  8141     0E6F  0CA2               	rrf	??_SDcard_read_block+2,f
  8142     0E70  0CA1               	rrf	??_SDcard_read_block+1,f
  8143     0E71  0CA0               	rrf	??_SDcard_read_block,f
  8144     0E72                     u1720:
  8145     0E72  0B89               	decfsz	9,f
  8146     0E73  2E6E               	goto	u1725
  8147     0E74  0820               	movf	??_SDcard_read_block,w
  8148     0E75  0021               	movlb	1	; select bank1
  8149     0E76  00BD               	movwf	(_SDcommand^(0+128)+3)
  8150                           
  8151                           ;sdcard.c: 246:     SDcommand[4] = (arg >> 0) & 0xFF;
  8152     0E77  0020               	movlb	0	; select bank0
  8153     0E78  0824               	movf	SDcard_read_block@arg,w
  8154     0E79  0021               	movlb	1	; select bank1
  8155     0E7A  00BE               	movwf	(_SDcommand^(0+128)+4)
  8156                           
  8157                           ;sdcard.c: 247:     SDcommand[5] = 0xFF;
  8158     0E7B  30FF               	movlw	255
  8159     0E7C  00BF               	movwf	(_SDcommand^(0+128)+5)
  8160     0E7D                     l2200:
  8161                           
  8162                           ;sdcard.c: 249:     sd_send(SDcommand, 6);
  8163     0E7D  30BA               	movlw	low _SDcommand
  8164     0E7E  00F2               	movwf	sd_send@buf
  8165     0E7F  3000               	movlw	high _SDcommand
  8166     0E80  00F3               	movwf	sd_send@buf+1
  8167     0E81  3006               	movlw	6
  8168     0E82  00F4               	movwf	sd_send@len
  8169     0E83  3000               	movlw	0
  8170     0E84  00F5               	movwf	sd_send@len+1
  8171     0E85  3188  20DE  318E   	fcall	_sd_send
  8172     0E88                     l2202:
  8173                           
  8174                           ;sdcard.c: 251:     if (SDcard_get_response(0x00))
  8175     0E88  3000               	movlw	0
  8176     0E89  3189  2132  318E   	fcall	_SDcard_get_response
  8177     0E8C  3A00               	xorlw	0
  8178     0E8D  1903               	skipnz
  8179     0E8E  2E90               	goto	u1731
  8180     0E8F  2E91               	goto	u1730
  8181     0E90                     u1731:
  8182     0E90  2EA0               	goto	l2212
  8183     0E91                     u1730:
  8184     0E91                     l2204:
  8185                           
  8186                           ;sdcard.c: 252:     {;sdcard.c: 253:         dbg("timeout/fail\n");
  8187     0E91  3022               	movlw	low (STR_30| (0+32768))
  8188     0E92  00F6               	movwf	dbg@sdcard$F275@s
  8189     0E93  3093               	movlw	high (STR_30| (0+32768))
  8190     0E94  00F7               	movwf	dbg@sdcard$F275@s+1
  8191     0E95  3188  2079  318E   	fcall	_dbg@sdcard$F275
  8192     0E98                     l2206:
  8193                           
  8194                           ;sdcard.c: 254:         SD_Deselect();
  8195     0E98  3188  2061  318E   	fcall	_SD_Deselect
  8196     0E9B                     l2208:
  8197                           
  8198                           ;sdcard.c: 255:         sd_xfer(0xFF);
  8199     0E9B  30FF               	movlw	255
  8200     0E9C  3188  206C  318E   	fcall	_sd_xfer
  8201     0E9F  2ED9               	goto	l302
  8202     0EA0                     l2212:
  8203                           
  8204                           ;sdcard.c: 258:     dbg("success!\n");
  8205     0EA0  3049               	movlw	low (STR_15| (0+32768))
  8206     0EA1  00F6               	movwf	dbg@sdcard$F275@s
  8207     0EA2  3093               	movlw	high (STR_15| (0+32768))
  8208     0EA3  00F7               	movwf	dbg@sdcard$F275@s+1
  8209     0EA4  3188  2079  318E   	fcall	_dbg@sdcard$F275
  8210     0EA7                     l2214:
  8211                           
  8212                           ;sdcard.c: 261:     if (SDcard_get_response(0xFE))
  8213     0EA7  30FE               	movlw	254
  8214     0EA8  3189  2132  318E   	fcall	_SDcard_get_response
  8215     0EAB  3A00               	xorlw	0
  8216     0EAC  1903               	skipnz
  8217     0EAD  2EAF               	goto	u1741
  8218     0EAE  2EB0               	goto	u1740
  8219     0EAF                     u1741:
  8220     0EAF  2EBF               	goto	l2224
  8221     0EB0                     u1740:
  8222     0EB0                     l2216:
  8223                           
  8224                           ;sdcard.c: 262:     {;sdcard.c: 263:         dbg("token timeout\n");
  8225     0EB0  30F5               	movlw	low (STR_32| (0+32768))
  8226     0EB1  00F6               	movwf	dbg@sdcard$F275@s
  8227     0EB2  3092               	movlw	high (STR_32| (0+32768))
  8228     0EB3  00F7               	movwf	dbg@sdcard$F275@s+1
  8229     0EB4  3188  2079  318E   	fcall	_dbg@sdcard$F275
  8230     0EB7                     l2218:
  8231                           
  8232                           ;sdcard.c: 264:         SD_Deselect();
  8233     0EB7  3188  2061  318E   	fcall	_SD_Deselect
  8234     0EBA                     l2220:
  8235                           
  8236                           ;sdcard.c: 265:         sd_xfer(0xFF);
  8237     0EBA  30FF               	movlw	255
  8238     0EBB  3188  206C  318E   	fcall	_sd_xfer
  8239     0EBE  2ED9               	goto	l302
  8240     0EBF                     l2224:
  8241                           
  8242                           ;sdcard.c: 269:     sd_recv(SDRdata, 512);
  8243     0EBF  30F0               	movlw	240
  8244     0EC0  00F2               	movwf	sd_recv@buf
  8245     0EC1  3025               	movlw	37
  8246     0EC2  00F3               	movwf	sd_recv@buf+1
  8247     0EC3  3000               	movlw	0
  8248     0EC4  00F4               	movwf	sd_recv@len
  8249     0EC5  3002               	movlw	2
  8250     0EC6  00F5               	movwf	sd_recv@len+1
  8251     0EC7  3189  2115  318E   	fcall	_sd_recv
  8252     0ECA                     l2226:
  8253                           
  8254                           ;sdcard.c: 272:     (void)sd_xfer(0xFF);
  8255     0ECA  30FF               	movlw	255
  8256     0ECB  3188  206C  318E   	fcall	_sd_xfer
  8257     0ECE                     l2228:
  8258                           
  8259                           ;sdcard.c: 273:     (void)sd_xfer(0xFF);
  8260     0ECE  30FF               	movlw	255
  8261     0ECF  3188  206C  318E   	fcall	_sd_xfer
  8262     0ED2                     l2230:
  8263                           
  8264                           ;sdcard.c: 275:     SD_Deselect();
  8265     0ED2  3188  2061  318E   	fcall	_SD_Deselect
  8266     0ED5                     l2232:
  8267                           
  8268                           ;sdcard.c: 276:     sd_xfer(0xFF);
  8269     0ED5  30FF               	movlw	255
  8270     0ED6  3188  206C  318E   	fcall	_sd_xfer
  8271     0ED9                     l302:
  8272     0ED9  0008               	return
  8273     0EDA                     __end_of_SDcard_read_block:
  8274                           
  8275                           	psect	text23
  8276     08BC                     __ptext23:	
  8277 ;; *************** function _sector_close *****************
  8278 ;; Defined at:
  8279 ;;		line 265 in file "fatfs.c"
  8280 ;; Parameters:    Size  Location     Type
  8281 ;;		None
  8282 ;; Auto vars:     Size  Location     Type
  8283 ;;		None
  8284 ;; Return value:  Size  Location     Type
  8285 ;;                  1    wreg      void 
  8286 ;; Registers used:
  8287 ;;		wreg, fsr0l, fsr0h, fsr1l, fsr1h, status,2, status,0, pclath, cstack
  8288 ;; Tracked objects:
  8289 ;;		On entry : 0/0
  8290 ;;		On exit  : 0/0
  8291 ;;		Unchanged: 0/0
  8292 ;; Data sizes:     COMMON   BANK0   BANK1   BANK2   BANK3   BANK4   BANK5   BANK6   BANK7   BANK8   BANK9  BANK10  BANK1
      +1  BANK12  BANK13  BANK14  BANK15  BANK16  BANK17  BANK18  BANK19  BANK20  BANK21  BANK22  BANK23  BANK24  BANK25
  8293 ;;      Params:         0       0       0       0       0       0       0       0       0       0       0       0       
      +0       0       0       0       0       0       0       0       0       0       0       0       0       0       0
  8294 ;;      Locals:         0       0       0       0       0       0       0       0       0       0       0       0       
      +0       0       0       0       0       0       0       0       0       0       0       0       0       0       0
  8295 ;;      Temps:          0       0       0       0       0       0       0       0       0       0       0       0       
      +0       0       0       0       0       0       0       0       0       0       0       0       0       0       0
  8296 ;;      Totals:         0       0       0       0       0       0       0       0       0       0       0       0       
      +0       0       0       0       0       0       0       0       0       0       0       0       0       0       0
  8297 ;;Total ram usage:        0 bytes
  8298 ;; Hardware stack levels used: 1
  8299 ;; Hardware stack levels required when called: 4
  8300 ;; This function calls:
  8301 ;;		_SDcard_write_block
  8302 ;; This function is called by:
  8303 ;;		_file_append
  8304 ;;		_main
  8305 ;; This function uses a non-reentrant model
  8306 ;;
  8307                           
  8308     08BC                     _sector_close:	
  8309                           ;psect for function _sector_close
  8310                           
  8311     08BC                     l2420:	
  8312                           ;incstack = 0
  8313                           ; Regs used in _sector_close: [wreg-fsr1h+status,2+status,0+pclath+cstack]
  8314                           
  8315                           
  8316                           ;fatfs.c: 267:     SDcard_write_block(current_sector_address);
  8317     08BC  0021               	movlb	1	; select bank1
  8318     08BD  082B               	movf	(_current_sector_address+3)^(0+128),w
  8319     08BE  00FB               	movwf	SDcard_write_block@address+3
  8320     08BF  082A               	movf	(_current_sector_address+2)^(0+128),w
  8321     08C0  00FA               	movwf	SDcard_write_block@address+2
  8322     08C1  0829               	movf	(_current_sector_address+1)^(0+128),w
  8323     08C2  00F9               	movwf	SDcard_write_block@address+1
  8324     08C3  0828               	movf	_current_sector_address^(0+128),w
  8325     08C4  00F8               	movwf	SDcard_write_block@address
  8326     08C5  318E  26DA  3188   	fcall	_SDcard_write_block
  8327     08C8                     l164:
  8328     08C8  0008               	return
  8329     08C9                     __end_of_sector_close:
  8330                           
  8331                           	psect	text24
  8332     0EDA                     __ptext24:	
  8333 ;; *************** function _SDcard_write_block *****************
  8334 ;; Defined at:
  8335 ;;		line 279 in file "sdcard.c"
  8336 ;; Parameters:    Size  Location     Type
  8337 ;;  address         4    8[COMMON] unsigned long 
  8338 ;; Auto vars:     Size  Location     Type
  8339 ;;  t               2    4[BANK0 ] unsigned int 
  8340 ;;  arg             4    7[BANK0 ] unsigned long 
  8341 ;;  resp            1    6[BANK0 ] unsigned char 
  8342 ;; Return value:  Size  Location     Type
  8343 ;;                  1    wreg      void 
  8344 ;; Registers used:
  8345 ;;		wreg, fsr0l, fsr0h, fsr1l, fsr1h, status,2, status,0, pclath, cstack
  8346 ;; Tracked objects:
  8347 ;;		On entry : 0/0
  8348 ;;		On exit  : 0/0
  8349 ;;		Unchanged: 0/0
  8350 ;; Data sizes:     COMMON   BANK0   BANK1   BANK2   BANK3   BANK4   BANK5   BANK6   BANK7   BANK8   BANK9  BANK10  BANK1
      +1  BANK12  BANK13  BANK14  BANK15  BANK16  BANK17  BANK18  BANK19  BANK20  BANK21  BANK22  BANK23  BANK24  BANK25
  8351 ;;      Params:         4       0       0       0       0       0       0       0       0       0       0       0       
      +0       0       0       0       0       0       0       0       0       0       0       0       0       0       0
  8352 ;;      Locals:         0       7       0       0       0       0       0       0       0       0       0       0       
      +0       0       0       0       0       0       0       0       0       0       0       0       0       0       0
  8353 ;;      Temps:          0       4       0       0       0       0       0       0       0       0       0       0       
      +0       0       0       0       0       0       0       0       0       0       0       0       0       0       0
  8354 ;;      Totals:         4      11       0       0       0       0       0       0       0       0       0       0       
      +0       0       0       0       0       0       0       0       0       0       0       0       0       0       0
  8355 ;;Total ram usage:       15 bytes
  8356 ;; Hardware stack levels used: 1
  8357 ;; Hardware stack levels required when called: 3
  8358 ;; This function calls:
  8359 ;;		_SD_Deselect
  8360 ;;		_SD_Select
  8361 ;;		_SDcard_get_response
  8362 ;;		_dbg@sdcard$F275
  8363 ;;		_sd_send
  8364 ;;		_sd_xfer
  8365 ;; This function is called by:
  8366 ;;		_file_create
  8367 ;;		_sector_close
  8368 ;;		_file_update_size
  8369 ;; This function uses a non-reentrant model
  8370 ;;
  8371                           
  8372     0EDA                     _SDcard_write_block:	
  8373                           ;psect for function _SDcard_write_block
  8374                           
  8375     0EDA                     l2234:	
  8376                           ;incstack = 0
  8377                           ; Regs used in _SDcard_write_block: [wreg-fsr1h+status,2+status,0+pclath+cstack]
  8378                           
  8379                           
  8380                           ;sdcard.c: 279: void SDcard_write_block(unsigned long address);sdcard.c: 280: {;sdcard.c
      +                          : 281:     dbg("Sending CMD24...");
  8381     0EDA  3092               	movlw	low (STR_33| (0+32768))
  8382     0EDB  00F6               	movwf	dbg@sdcard$F275@s
  8383     0EDC  3092               	movlw	high (STR_33| (0+32768))
  8384     0EDD  00F7               	movwf	dbg@sdcard$F275@s+1
  8385     0EDE  3188  2079  318E   	fcall	_dbg@sdcard$F275
  8386     0EE1                     l2236:
  8387                           
  8388                           ;sdcard.c: 282:     SD_Select();
  8389     0EE1  3188  2064  318E   	fcall	_SD_Select
  8390     0EE4                     l2238:
  8391                           
  8392                           ;sdcard.c: 285:     uint32_t arg = (uint32_t)address;
  8393     0EE4  087B               	movf	SDcard_write_block@address+3,w
  8394     0EE5  0020               	movlb	0	; select bank0
  8395     0EE6  00AA               	movwf	SDcard_write_block@arg+3
  8396     0EE7  087A               	movf	SDcard_write_block@address+2,w
  8397     0EE8  00A9               	movwf	SDcard_write_block@arg+2
  8398     0EE9  0879               	movf	SDcard_write_block@address+1,w
  8399     0EEA  00A8               	movwf	SDcard_write_block@arg+1
  8400     0EEB  0878               	movf	SDcard_write_block@address,w
  8401     0EEC  00A7               	movwf	SDcard_write_block@arg
  8402     0EED                     l2240:
  8403                           
  8404                           ;sdcard.c: 286:     if (sd_is_sdhc)
  8405     0EED  086B               	movf	_sd_is_sdhc,w
  8406     0EEE  1903               	btfsc	3,2
  8407     0EEF  2EF1               	goto	u1751
  8408     0EF0  2EF2               	goto	u1750
  8409     0EF1                     u1751:
  8410     0EF1  2EF9               	goto	l2244
  8411     0EF2                     u1750:
  8412     0EF2                     l2242:
  8413                           
  8414                           ;sdcard.c: 287:         arg >>= 9;
  8415     0EF2  3009               	movlw	9
  8416     0EF3                     u1765:
  8417     0EF3  36AA               	lsrf	SDcard_write_block@arg+3,f
  8418     0EF4  0CA9               	rrf	SDcard_write_block@arg+2,f
  8419     0EF5  0CA8               	rrf	SDcard_write_block@arg+1,f
  8420     0EF6  0CA7               	rrf	SDcard_write_block@arg,f
  8421     0EF7  0B89               	decfsz	9,f
  8422     0EF8  2EF3               	goto	u1765
  8423     0EF9                     l2244:
  8424                           
  8425                           ;sdcard.c: 290:     SDcommand[0] = 0x58;
  8426     0EF9  3058               	movlw	88
  8427     0EFA  0021               	movlb	1	; select bank1
  8428     0EFB  00BA               	movwf	_SDcommand^(0+128)
  8429     0EFC                     l2246:
  8430                           
  8431                           ;sdcard.c: 291:     SDcommand[1] = (arg >> 24) & 0xFF;
  8432     0EFC  0020               	movlb	0	; select bank0
  8433     0EFD  0827               	movf	SDcard_write_block@arg,w
  8434     0EFE  00A0               	movwf	??_SDcard_write_block
  8435     0EFF  0828               	movf	SDcard_write_block@arg+1,w
  8436     0F00  00A1               	movwf	??_SDcard_write_block+1
  8437     0F01  0829               	movf	SDcard_write_block@arg+2,w
  8438     0F02  00A2               	movwf	??_SDcard_write_block+2
  8439     0F03  082A               	movf	SDcard_write_block@arg+3,w
  8440     0F04  00A3               	movwf	??_SDcard_write_block+3
  8441     0F05  3018               	movlw	24
  8442     0F06                     u1775:
  8443     0F06  36A3               	lsrf	??_SDcard_write_block+3,f
  8444     0F07  0CA2               	rrf	??_SDcard_write_block+2,f
  8445     0F08  0CA1               	rrf	??_SDcard_write_block+1,f
  8446     0F09  0CA0               	rrf	??_SDcard_write_block,f
  8447     0F0A                     u1770:
  8448     0F0A  0B89               	decfsz	9,f
  8449     0F0B  2F06               	goto	u1775
  8450     0F0C  0820               	movf	??_SDcard_write_block,w
  8451     0F0D  0021               	movlb	1	; select bank1
  8452     0F0E  00BB               	movwf	(_SDcommand^(0+128)+1)
  8453     0F0F                     l2248:
  8454                           
  8455                           ;sdcard.c: 292:     SDcommand[2] = (arg >> 16) & 0xFF;
  8456     0F0F  0020               	movlb	0	; select bank0
  8457     0F10  0827               	movf	SDcard_write_block@arg,w
  8458     0F11  00A0               	movwf	??_SDcard_write_block
  8459     0F12  0828               	movf	SDcard_write_block@arg+1,w
  8460     0F13  00A1               	movwf	??_SDcard_write_block+1
  8461     0F14  0829               	movf	SDcard_write_block@arg+2,w
  8462     0F15  00A2               	movwf	??_SDcard_write_block+2
  8463     0F16  082A               	movf	SDcard_write_block@arg+3,w
  8464     0F17  00A3               	movwf	??_SDcard_write_block+3
  8465     0F18  3010               	movlw	16
  8466     0F19                     u1785:
  8467     0F19  36A3               	lsrf	??_SDcard_write_block+3,f
  8468     0F1A  0CA2               	rrf	??_SDcard_write_block+2,f
  8469     0F1B  0CA1               	rrf	??_SDcard_write_block+1,f
  8470     0F1C  0CA0               	rrf	??_SDcard_write_block,f
  8471     0F1D                     u1780:
  8472     0F1D  0B89               	decfsz	9,f
  8473     0F1E  2F19               	goto	u1785
  8474     0F1F  0820               	movf	??_SDcard_write_block,w
  8475     0F20  0021               	movlb	1	; select bank1
  8476     0F21  00BC               	movwf	(_SDcommand^(0+128)+2)
  8477     0F22                     l2250:
  8478                           
  8479                           ;sdcard.c: 293:     SDcommand[3] = (arg >> 8) & 0xFF;
  8480     0F22  0020               	movlb	0	; select bank0
  8481     0F23  0827               	movf	SDcard_write_block@arg,w
  8482     0F24  00A0               	movwf	??_SDcard_write_block
  8483     0F25  0828               	movf	SDcard_write_block@arg+1,w
  8484     0F26  00A1               	movwf	??_SDcard_write_block+1
  8485     0F27  0829               	movf	SDcard_write_block@arg+2,w
  8486     0F28  00A2               	movwf	??_SDcard_write_block+2
  8487     0F29  082A               	movf	SDcard_write_block@arg+3,w
  8488     0F2A  00A3               	movwf	??_SDcard_write_block+3
  8489     0F2B  3008               	movlw	8
  8490     0F2C                     u1795:
  8491     0F2C  36A3               	lsrf	??_SDcard_write_block+3,f
  8492     0F2D  0CA2               	rrf	??_SDcard_write_block+2,f
  8493     0F2E  0CA1               	rrf	??_SDcard_write_block+1,f
  8494     0F2F  0CA0               	rrf	??_SDcard_write_block,f
  8495     0F30                     u1790:
  8496     0F30  0B89               	decfsz	9,f
  8497     0F31  2F2C               	goto	u1795
  8498     0F32  0820               	movf	??_SDcard_write_block,w
  8499     0F33  0021               	movlb	1	; select bank1
  8500     0F34  00BD               	movwf	(_SDcommand^(0+128)+3)
  8501                           
  8502                           ;sdcard.c: 294:     SDcommand[4] = (arg >> 0) & 0xFF;
  8503     0F35  0020               	movlb	0	; select bank0
  8504     0F36  0827               	movf	SDcard_write_block@arg,w
  8505     0F37  0021               	movlb	1	; select bank1
  8506     0F38  00BE               	movwf	(_SDcommand^(0+128)+4)
  8507                           
  8508                           ;sdcard.c: 295:     SDcommand[5] = 0xFF;
  8509     0F39  30FF               	movlw	255
  8510     0F3A  00BF               	movwf	(_SDcommand^(0+128)+5)
  8511     0F3B                     l2252:
  8512                           
  8513                           ;sdcard.c: 297:     sd_send(SDcommand, 6);
  8514     0F3B  30BA               	movlw	low _SDcommand
  8515     0F3C  00F2               	movwf	sd_send@buf
  8516     0F3D  3000               	movlw	high _SDcommand
  8517     0F3E  00F3               	movwf	sd_send@buf+1
  8518     0F3F  3006               	movlw	6
  8519     0F40  00F4               	movwf	sd_send@len
  8520     0F41  3000               	movlw	0
  8521     0F42  00F5               	movwf	sd_send@len+1
  8522     0F43  3188  20DE  318E   	fcall	_sd_send
  8523     0F46                     l2254:
  8524                           
  8525                           ;sdcard.c: 299:     if (SDcard_get_response(0x00))
  8526     0F46  3000               	movlw	0
  8527     0F47  3189  2132  318E   	fcall	_SDcard_get_response
  8528     0F4A  3A00               	xorlw	0
  8529     0F4B  1903               	skipnz
  8530     0F4C  2F4E               	goto	u1801
  8531     0F4D  2F4F               	goto	u1800
  8532     0F4E                     u1801:
  8533     0F4E  2F5E               	goto	l2264
  8534     0F4F                     u1800:
  8535     0F4F                     l2256:
  8536                           
  8537                           ;sdcard.c: 300:     {;sdcard.c: 301:         dbg("timeout/fail\n");
  8538     0F4F  3022               	movlw	low (STR_30| (0+32768))
  8539     0F50  00F6               	movwf	dbg@sdcard$F275@s
  8540     0F51  3093               	movlw	high (STR_30| (0+32768))
  8541     0F52  00F7               	movwf	dbg@sdcard$F275@s+1
  8542     0F53  3188  2079  318E   	fcall	_dbg@sdcard$F275
  8543     0F56                     l2258:
  8544                           
  8545                           ;sdcard.c: 302:         SD_Deselect();
  8546     0F56  3188  2061  318E   	fcall	_SD_Deselect
  8547     0F59                     l2260:
  8548                           
  8549                           ;sdcard.c: 303:         sd_xfer(0xFF);
  8550     0F59  30FF               	movlw	255
  8551     0F5A  3188  206C  318E   	fcall	_sd_xfer
  8552     0F5D  2FFF               	goto	l308
  8553     0F5E                     l2264:
  8554                           
  8555                           ;sdcard.c: 306:     dbg("success!\n");
  8556     0F5E  3049               	movlw	low (STR_15| (0+32768))
  8557     0F5F  00F6               	movwf	dbg@sdcard$F275@s
  8558     0F60  3093               	movlw	high (STR_15| (0+32768))
  8559     0F61  00F7               	movwf	dbg@sdcard$F275@s+1
  8560     0F62  3188  2079  318E   	fcall	_dbg@sdcard$F275
  8561     0F65                     l2266:
  8562                           
  8563                           ;sdcard.c: 309:     sd_xfer(0xFF);
  8564     0F65  30FF               	movlw	255
  8565     0F66  3188  206C  318E   	fcall	_sd_xfer
  8566     0F69                     l2268:
  8567                           
  8568                           ;sdcard.c: 311:     dbg("Sending data block...");
  8569     0F69  301C               	movlw	low (STR_36| (0+32768))
  8570     0F6A  00F6               	movwf	dbg@sdcard$F275@s
  8571     0F6B  3092               	movlw	high (STR_36| (0+32768))
  8572     0F6C  00F7               	movwf	dbg@sdcard$F275@s+1
  8573     0F6D  3188  2079  318E   	fcall	_dbg@sdcard$F275
  8574                           
  8575                           ;sdcard.c: 312:     sd_xfer(0xFE);
  8576     0F70  30FE               	movlw	254
  8577     0F71  3188  206C  318E   	fcall	_sd_xfer
  8578     0F74                     l2270:
  8579                           
  8580                           ;sdcard.c: 313:     sd_send(SDWdata, 512);
  8581     0F74  30F0               	movlw	240
  8582     0F75  00F2               	movwf	sd_send@buf
  8583     0F76  3023               	movlw	35
  8584     0F77  00F3               	movwf	sd_send@buf+1
  8585     0F78  3000               	movlw	0
  8586     0F79  00F4               	movwf	sd_send@len
  8587     0F7A  3002               	movlw	2
  8588     0F7B  00F5               	movwf	sd_send@len+1
  8589     0F7C  3188  20DE  318E   	fcall	_sd_send
  8590     0F7F                     l2272:
  8591                           
  8592                           ;sdcard.c: 314:     sd_xfer(0xFF);
  8593     0F7F  30FF               	movlw	255
  8594     0F80  3188  206C  318E   	fcall	_sd_xfer
  8595     0F83                     l2274:
  8596                           
  8597                           ;sdcard.c: 315:     sd_xfer(0xFF);
  8598     0F83  30FF               	movlw	255
  8599     0F84  3188  206C  318E   	fcall	_sd_xfer
  8600     0F87                     l2276:
  8601                           
  8602                           ;sdcard.c: 317:     unsigned char resp = sd_xfer(0xFF);
  8603     0F87  30FF               	movlw	255
  8604     0F88  3188  206C  318E   	fcall	_sd_xfer
  8605     0F8B  0020               	movlb	0	; select bank0
  8606     0F8C  00A6               	movwf	SDcard_write_block@resp
  8607     0F8D                     l2278:
  8608                           
  8609                           ;sdcard.c: 319:     if ((resp & 0x0F) == 0x0D) dbg("write error occured!\n");
  8610     0F8D  300F               	movlw	15
  8611     0F8E  0526               	andwf	SDcard_write_block@resp,w
  8612     0F8F  00A0               	movwf	??_SDcard_write_block
  8613     0F90  300D               	movlw	13
  8614     0F91  0620               	xorwf	??_SDcard_write_block,w
  8615     0F92  1D03               	btfss	3,2
  8616     0F93  2F95               	goto	u1811
  8617     0F94  2F96               	goto	u1810
  8618     0F95                     u1811:
  8619     0F95  2F9D               	goto	l2282
  8620     0F96                     u1810:
  8621     0F96                     l2280:
  8622     0F96  3006               	movlw	low (STR_37| (0+32768))
  8623     0F97  00F6               	movwf	dbg@sdcard$F275@s
  8624     0F98  3092               	movlw	high (STR_37| (0+32768))
  8625     0F99  00F7               	movwf	dbg@sdcard$F275@s+1
  8626     0F9A  3188  2079  318E   	fcall	_dbg@sdcard$F275
  8627     0F9D                     l2282:
  8628                           
  8629                           ;sdcard.c: 320:     if ((resp & 0x0F) == 0x0B) dbg("CRC error occured!\n");
  8630     0F9D  300F               	movlw	15
  8631     0F9E  0020               	movlb	0	; select bank0
  8632     0F9F  0526               	andwf	SDcard_write_block@resp,w
  8633     0FA0  00A0               	movwf	??_SDcard_write_block
  8634     0FA1  300B               	movlw	11
  8635     0FA2  0620               	xorwf	??_SDcard_write_block,w
  8636     0FA3  1D03               	btfss	3,2
  8637     0FA4  2FA6               	goto	u1821
  8638     0FA5  2FA7               	goto	u1820
  8639     0FA6                     u1821:
  8640     0FA6  2FAE               	goto	l2286
  8641     0FA7                     u1820:
  8642     0FA7                     l2284:
  8643     0FA7  3047               	movlw	low (STR_38| (0+32768))
  8644     0FA8  00F6               	movwf	dbg@sdcard$F275@s
  8645     0FA9  3092               	movlw	high (STR_38| (0+32768))
  8646     0FAA  00F7               	movwf	dbg@sdcard$F275@s+1
  8647     0FAB  3188  2079  318E   	fcall	_dbg@sdcard$F275
  8648     0FAE                     l2286:
  8649                           
  8650                           ;sdcard.c: 321:     if ((resp & 0x0F) == 0x05)
  8651     0FAE  300F               	movlw	15
  8652     0FAF  0020               	movlb	0	; select bank0
  8653     0FB0  0526               	andwf	SDcard_write_block@resp,w
  8654     0FB1  00A0               	movwf	??_SDcard_write_block
  8655     0FB2  3005               	movlw	5
  8656     0FB3  0620               	xorwf	??_SDcard_write_block,w
  8657     0FB4  1D03               	btfss	3,2
  8658     0FB5  2FB7               	goto	u1831
  8659     0FB6  2FB8               	goto	u1830
  8660     0FB7                     u1831:
  8661     0FB7  2FF8               	goto	l2302
  8662     0FB8                     u1830:
  8663     0FB8                     l2288:
  8664                           
  8665                           ;sdcard.c: 322:     {;sdcard.c: 323:         dbg("success!\n");
  8666     0FB8  3049               	movlw	low (STR_15| (0+32768))
  8667     0FB9  00F6               	movwf	dbg@sdcard$F275@s
  8668     0FBA  3093               	movlw	high (STR_15| (0+32768))
  8669     0FBB  00F7               	movwf	dbg@sdcard$F275@s+1
  8670     0FBC  3188  2079  318E   	fcall	_dbg@sdcard$F275
  8671                           
  8672                           ;sdcard.c: 324:         dbg("Waiting for card to finish write process...");
  8673     0FBF  306F               	movlw	low (STR_40| (0+32768))
  8674     0FC0  00F6               	movwf	dbg@sdcard$F275@s
  8675     0FC1  3090               	movlw	high (STR_40| (0+32768))
  8676     0FC2  00F7               	movwf	dbg@sdcard$F275@s+1
  8677     0FC3  3188  2079  318E   	fcall	_dbg@sdcard$F275
  8678     0FC6                     l2290:
  8679                           
  8680                           ;sdcard.c: 326:         unsigned int t = 4096;
  8681     0FC6  3000               	movlw	0
  8682     0FC7  0020               	movlb	0	; select bank0
  8683     0FC8  00A4               	movwf	SDcard_write_block@t
  8684     0FC9  3010               	movlw	16
  8685     0FCA  00A5               	movwf	SDcard_write_block@t+1
  8686                           
  8687                           ;sdcard.c: 327:         while (t--)
  8688     0FCB  2FD6               	goto	l2296
  8689     0FCC                     l2292:
  8690                           
  8691                           ;sdcard.c: 328:         {;sdcard.c: 329:             if (sd_xfer(0xFF) == 0xFF) break;
  8692     0FCC  30FF               	movlw	255
  8693     0FCD  3188  206C  318E   	fcall	_sd_xfer
  8694     0FD0  3AFF               	xorlw	255
  8695     0FD1  1D03               	skipz
  8696     0FD2  2FD4               	goto	u1841
  8697     0FD3  2FD5               	goto	u1840
  8698     0FD4                     u1841:
  8699     0FD4  2FD6               	goto	l2296
  8700     0FD5                     u1840:
  8701     0FD5  2FE3               	goto	l2298
  8702     0FD6                     l2296:
  8703                           
  8704                           ;sdcard.c: 327:         while (t--)
  8705     0FD6  3001               	movlw	1
  8706     0FD7  0020               	movlb	0	; select bank0
  8707     0FD8  02A4               	subwf	SDcard_write_block@t,f
  8708     0FD9  3000               	movlw	0
  8709     0FDA  3BA5               	subwfb	SDcard_write_block@t+1,f
  8710     0FDB  0A24               	incf	SDcard_write_block@t,w
  8711     0FDC  1D03               	skipz
  8712     0FDD  2FE2               	goto	u1851
  8713     0FDE  0A25               	incf	SDcard_write_block@t+1,w
  8714     0FDF  1D03               	btfss	3,2
  8715     0FE0  2FE2               	goto	u1851
  8716     0FE1  2FE3               	goto	u1850
  8717     0FE2                     u1851:
  8718     0FE2  2FCC               	goto	l2292
  8719     0FE3                     u1850:
  8720     0FE3                     l2298:
  8721                           
  8722                           ;sdcard.c: 331:         if (t == 0) dbg("timeout!");
  8723     0FE3  0020               	movlb	0	; select bank0
  8724     0FE4  0824               	movf	SDcard_write_block@t,w
  8725     0FE5  0425               	iorwf	SDcard_write_block@t+1,w
  8726     0FE6  1D03               	btfss	3,2
  8727     0FE7  2FE9               	goto	u1861
  8728     0FE8  2FEA               	goto	u1860
  8729     0FE9                     u1861:
  8730     0FE9  2FF1               	goto	l316
  8731     0FEA                     u1860:
  8732     0FEA                     l2300:
  8733     0FEA  3053               	movlw	low (STR_41| (0+32768))
  8734     0FEB  00F6               	movwf	dbg@sdcard$F275@s
  8735     0FEC  3093               	movlw	high (STR_41| (0+32768))
  8736     0FED  00F7               	movwf	dbg@sdcard$F275@s+1
  8737     0FEE  3188  2079  318E   	fcall	_dbg@sdcard$F275
  8738     0FF1                     l316:
  8739                           
  8740                           ;sdcard.c: 332:         dbg("done!\n");
  8741     0FF1  305C               	movlw	low (STR_4| (0+32768))
  8742     0FF2  00F6               	movwf	dbg@sdcard$F275@s
  8743     0FF3  3093               	movlw	high (STR_4| (0+32768))
  8744     0FF4  00F7               	movwf	dbg@sdcard$F275@s+1
  8745     0FF5  3188  2079  318E   	fcall	_dbg@sdcard$F275
  8746     0FF8                     l2302:
  8747                           
  8748                           ;sdcard.c: 335:     SD_Deselect();
  8749     0FF8  3188  2061  318E   	fcall	_SD_Deselect
  8750     0FFB                     l2304:
  8751                           
  8752                           ;sdcard.c: 336:     sd_xfer(0xFF);
  8753     0FFB  30FF               	movlw	255
  8754     0FFC  3188  206C  318E   	fcall	_sd_xfer
  8755     0FFF                     l308:
  8756     0FFF  0008               	return
  8757     1000                     __end_of_SDcard_write_block:
  8758                           
  8759                           	psect	text25
  8760     0932                     __ptext25:	
  8761 ;; *************** function _SDcard_get_response *****************
  8762 ;; Defined at:
  8763 ;;		line 51 in file "sdcard.c"
  8764 ;; Parameters:    Size  Location     Type
  8765 ;;  response        1    wreg     unsigned char 
  8766 ;; Auto vars:     Size  Location     Type
  8767 ;;  response        1    4[COMMON] unsigned char 
  8768 ;;  t               2    2[COMMON] unsigned int 
  8769 ;;  b               1    5[COMMON] unsigned char 
  8770 ;; Return value:  Size  Location     Type
  8771 ;;                  1    wreg      unsigned char 
  8772 ;; Registers used:
  8773 ;;		wreg, status,2, status,0, pclath, cstack
  8774 ;; Tracked objects:
  8775 ;;		On entry : 0/0
  8776 ;;		On exit  : 0/0
  8777 ;;		Unchanged: 0/0
  8778 ;; Data sizes:     COMMON   BANK0   BANK1   BANK2   BANK3   BANK4   BANK5   BANK6   BANK7   BANK8   BANK9  BANK10  BANK1
      +1  BANK12  BANK13  BANK14  BANK15  BANK16  BANK17  BANK18  BANK19  BANK20  BANK21  BANK22  BANK23  BANK24  BANK25
  8779 ;;      Params:         0       0       0       0       0       0       0       0       0       0       0       0       
      +0       0       0       0       0       0       0       0       0       0       0       0       0       0       0
  8780 ;;      Locals:         4       0       0       0       0       0       0       0       0       0       0       0       
      +0       0       0       0       0       0       0       0       0       0       0       0       0       0       0
  8781 ;;      Temps:          0       0       0       0       0       0       0       0       0       0       0       0       
      +0       0       0       0       0       0       0       0       0       0       0       0       0       0       0
  8782 ;;      Totals:         4       0       0       0       0       0       0       0       0       0       0       0       
      +0       0       0       0       0       0       0       0       0       0       0       0       0       0       0
  8783 ;;Total ram usage:        4 bytes
  8784 ;; Hardware stack levels used: 1
  8785 ;; Hardware stack levels required when called: 2
  8786 ;; This function calls:
  8787 ;;		_sd_xfer
  8788 ;; This function is called by:
  8789 ;;		_SDcard_read_block
  8790 ;;		_SDcard_write_block
  8791 ;; This function uses a non-reentrant model
  8792 ;;
  8793                           
  8794     0932                     _SDcard_get_response:	
  8795                           ;psect for function _SDcard_get_response
  8796                           
  8797                           
  8798                           ;incstack = 0
  8799                           ; Regs used in _SDcard_get_response: [wreg+status,2+status,0+pclath+cstack]
  8800                           ;SDcard_get_response@response stored from wreg
  8801     0932  00F4               	movwf	SDcard_get_response@response
  8802     0933                     l2104:
  8803                           
  8804                           ;sdcard.c: 51: static unsigned char SDcard_get_response(unsigned char response);sdcard.c
      +                          : 52: {;sdcard.c: 53:     unsigned int t = 4096;
  8805     0933  3000               	movlw	0
  8806     0934  00F2               	movwf	SDcard_get_response@t
  8807     0935  3010               	movlw	16
  8808     0936  00F3               	movwf	SDcard_get_response@t+1
  8809     0937                     l2106:
  8810                           
  8811                           ;sdcard.c: 57:     {;sdcard.c: 58:         b = sd_xfer(0xFF);
  8812     0937  30FF               	movlw	255
  8813     0938  3188  206C  3189   	fcall	_sd_xfer
  8814     093B  00F5               	movwf	SDcard_get_response@b
  8815     093C                     l2108:
  8816                           
  8817                           ;sdcard.c: 59:         if (b == response) return 0;
  8818     093C  0875               	movf	SDcard_get_response@b,w
  8819     093D  0674               	xorwf	SDcard_get_response@response,w
  8820     093E  1D03               	skipz
  8821     093F  2941               	goto	u1591
  8822     0940  2942               	goto	u1590
  8823     0941                     u1591:
  8824     0941  2944               	goto	l2114
  8825     0942                     u1590:
  8826     0942                     l2110:
  8827     0942  3000               	movlw	0
  8828     0943  294F               	goto	l257
  8829     0944                     l2114:
  8830                           
  8831                           ;sdcard.c: 60:     }
  8832     0944  3001               	movlw	1
  8833     0945  02F2               	subwf	SDcard_get_response@t,f
  8834     0946  3000               	movlw	0
  8835     0947  3BF3               	subwfb	SDcard_get_response@t+1,f
  8836     0948  0872               	movf	SDcard_get_response@t,w
  8837     0949  0473               	iorwf	SDcard_get_response@t+1,w
  8838     094A  1D03               	btfss	3,2
  8839     094B  294D               	goto	u1601
  8840     094C  294E               	goto	u1600
  8841     094D                     u1601:
  8842     094D  2937               	goto	l2106
  8843     094E                     u1600:
  8844     094E                     l2116:
  8845                           
  8846                           ;sdcard.c: 63:     return 1;
  8847     094E  3001               	movlw	1
  8848     094F                     l257:
  8849     094F  0008               	return
  8850     0950                     __end_of_SDcard_get_response:
  8851                           
  8852                           	psect	text26
  8853     00FE                     __ptext26:	
  8854 ;; *************** function _SDcard_init *****************
  8855 ;; Defined at:
  8856 ;;		line 106 in file "sdcard.c"
  8857 ;; Parameters:    Size  Location     Type
  8858 ;;		None
  8859 ;; Auto vars:     Size  Location     Type
  8860 ;;  ocr             4   10[BANK0 ] unsigned char [4]
  8861 ;;  t               2   18[BANK0 ] unsigned int 
  8862 ;;  t               2   20[BANK0 ] unsigned int 
  8863 ;;  r7              4   14[BANK0 ] unsigned char [4]
  8864 ;;  i               1   22[BANK0 ] unsigned char 
  8865 ;;  r1              1   23[BANK0 ] unsigned char 
  8866 ;; Return value:  Size  Location     Type
  8867 ;;                  1    wreg      void 
  8868 ;; Registers used:
  8869 ;;		wreg, fsr0l, fsr0h, fsr1l, fsr1h, status,2, status,0, pclath, cstack
  8870 ;; Tracked objects:
  8871 ;;		On entry : 0/0
  8872 ;;		On exit  : 0/0
  8873 ;;		Unchanged: 0/0
  8874 ;; Data sizes:     COMMON   BANK0   BANK1   BANK2   BANK3   BANK4   BANK5   BANK6   BANK7   BANK8   BANK9  BANK10  BANK1
      +1  BANK12  BANK13  BANK14  BANK15  BANK16  BANK17  BANK18  BANK19  BANK20  BANK21  BANK22  BANK23  BANK24  BANK25
  8875 ;;      Params:         0       0       0       0       0       0       0       0       0       0       0       0       
      +0       0       0       0       0       0       0       0       0       0       0       0       0       0       0
  8876 ;;      Locals:         0      14       0       0       0       0       0       0       0       0       0       0       
      +0       0       0       0       0       0       0       0       0       0       0       0       0       0       0
  8877 ;;      Temps:          0       2       0       0       0       0       0       0       0       0       0       0       
      +0       0       0       0       0       0       0       0       0       0       0       0       0       0       0
  8878 ;;      Totals:         0      16       0       0       0       0       0       0       0       0       0       0       
      +0       0       0       0       0       0       0       0       0       0       0       0       0       0       0
  8879 ;;Total ram usage:       16 bytes
  8880 ;; Hardware stack levels used: 1
  8881 ;; Hardware stack levels required when called: 5
  8882 ;; This function calls:
  8883 ;;		_SD_Deselect
  8884 ;;		_SD_Select
  8885 ;;		_dbg@sdcard$F275
  8886 ;;		_sd_recv
  8887 ;;		_sd_send
  8888 ;;		_sd_send_acmd41
  8889 ;;		_sd_send_cmd
  8890 ;;		_sd_xfer
  8891 ;; This function is called by:
  8892 ;;		_main
  8893 ;; This function uses a non-reentrant model
  8894 ;;
  8895                           
  8896     00FE                     _SDcard_init:	
  8897                           ;psect for function _SDcard_init
  8898                           
  8899     00FE                     l2660:	
  8900                           ;incstack = 0
  8901                           ; Regs used in _SDcard_init: [wreg-fsr1h+status,2+status,0+pclath+cstack]
  8902                           
  8903                           
  8904                           ;sdcard.c: 108:     dbg("Starting SD card initialization...\n");
  8905     00FE  30C2               	movlw	low (STR_12| (0+32768))
  8906     00FF  00F6               	movwf	dbg@sdcard$F275@s
  8907     0100  3090               	movlw	high (STR_12| (0+32768))
  8908     0101  00F7               	movwf	dbg@sdcard$F275@s+1
  8909     0102  3188  2079  3180   	fcall	_dbg@sdcard$F275
  8910     0105                     l2662:
  8911                           
  8912                           ;sdcard.c: 110:     sd_is_sdhc = 0;
  8913     0105  0020               	movlb	0	; select bank0
  8914     0106  01EB               	clrf	_sd_is_sdhc
  8915     0107                     l2664:
  8916                           
  8917                           ;sdcard.c: 113:     TRISCbits.TRISC2 = 0;
  8918     0107  0021               	movlb	1	; select bank1
  8919     0108  110E               	bcf	14,2	;volatile
  8920     0109                     l2666:
  8921                           
  8922                           ;sdcard.c: 114:     SD_Deselect();
  8923     0109  3188  2061  3180   	fcall	_SD_Deselect
  8924     010C                     l2668:
  8925                           
  8926                           ;sdcard.c: 117:     for (unsigned char i = 0; i < 10; i++) SDWdata[i] = 0xFF;
  8927     010C  0020               	movlb	0	; select bank0
  8928     010D  01B6               	clrf	SDcard_init@i
  8929     010E                     l2674:
  8930     010E  0836               	movf	SDcard_init@i,w
  8931     010F  3EF0               	addlw	240
  8932     0110  00A8               	movwf	??_SDcard_init
  8933     0111  01A9               	clrf	??_SDcard_init+1
  8934     0112  3023               	movlw	35
  8935     0113  3DA9               	addwfc	??_SDcard_init+1,f
  8936     0114  0828               	movf	??_SDcard_init,w
  8937     0115  0086               	movwf	6
  8938     0116  0829               	movf	??_SDcard_init+1,w
  8939     0117  0087               	movwf	7
  8940     0118  30FF               	movlw	255
  8941     0119  0081               	movwf	1
  8942     011A                     l2676:
  8943     011A  3001               	movlw	1
  8944     011B  00A8               	movwf	??_SDcard_init
  8945     011C  0828               	movf	??_SDcard_init,w
  8946     011D  07B6               	addwf	SDcard_init@i,f
  8947     011E                     l2678:
  8948     011E  300A               	movlw	10
  8949     011F  0236               	subwf	SDcard_init@i,w
  8950     0120  1C03               	skipc
  8951     0121  2923               	goto	u2331
  8952     0122  2924               	goto	u2330
  8953     0123                     u2331:
  8954     0123  290E               	goto	l2674
  8955     0124                     u2330:
  8956     0124                     l2680:
  8957                           
  8958                           ;sdcard.c: 118:     sd_send(SDWdata, 10);
  8959     0124  30F0               	movlw	240
  8960     0125  00F2               	movwf	sd_send@buf
  8961     0126  3023               	movlw	35
  8962     0127  00F3               	movwf	sd_send@buf+1
  8963     0128  300A               	movlw	10
  8964     0129  00F4               	movwf	sd_send@len
  8965     012A  3000               	movlw	0
  8966     012B  00F5               	movwf	sd_send@len+1
  8967     012C  3188  20DE  3180   	fcall	_sd_send
  8968     012F                     l2682:
  8969                           
  8970                           ;sdcard.c: 121:     SD_Select();
  8971     012F  3188  2064  3180   	fcall	_SD_Select
  8972     0132                     l2684:
  8973                           
  8974                           ;sdcard.c: 123:     dbg("Sending CMD0, awaiting response...");
  8975     0132  3009               	movlw	low (STR_13| (0+32768))
  8976     0133  00F6               	movwf	dbg@sdcard$F275@s
  8977     0134  3091               	movlw	high (STR_13| (0+32768))
  8978     0135  00F7               	movwf	dbg@sdcard$F275@s+1
  8979     0136  3188  2079  3180   	fcall	_dbg@sdcard$F275
  8980     0139                     l2686:
  8981                           
  8982                           ;sdcard.c: 125:     if (sd_send_cmd(0, 0, 0x95) != 0x01)
  8983     0139  3000               	movlw	0
  8984     013A  00F9               	movwf	sd_send_cmd@arg+3
  8985     013B  3000               	movlw	0
  8986     013C  00F8               	movwf	sd_send_cmd@arg+2
  8987     013D  3000               	movlw	0
  8988     013E  00F7               	movwf	sd_send_cmd@arg+1
  8989     013F  3000               	movlw	0
  8990     0140  00F6               	movwf	sd_send_cmd@arg
  8991     0141  3095               	movlw	149
  8992     0142  00FA               	movwf	sd_send_cmd@crc
  8993     0143  3000               	movlw	0
  8994     0144  318B  2313  3180   	fcall	_sd_send_cmd
  8995     0147  3A01               	xorlw	1
  8996     0148  1903               	skipnz
  8997     0149  294B               	goto	u2341
  8998     014A  294C               	goto	u2340
  8999     014B                     u2341:
  9000     014B  295B               	goto	l2696
  9001     014C                     u2340:
  9002     014C                     l2688:
  9003                           
  9004                           ;sdcard.c: 126:     {;sdcard.c: 127:         dbg("fail\n");
  9005     014C  302A               	movlw	low ((STR_30+8)| (0+32768))
  9006     014D  00F6               	movwf	dbg@sdcard$F275@s
  9007     014E  3093               	movlw	high ((STR_30+8)| (0+32768))
  9008     014F  00F7               	movwf	dbg@sdcard$F275@s+1
  9009     0150  3188  2079  3180   	fcall	_dbg@sdcard$F275
  9010     0153                     l2690:
  9011                           
  9012                           ;sdcard.c: 128:         SD_Deselect();
  9013     0153  3188  2061  3180   	fcall	_SD_Deselect
  9014     0156                     l2692:
  9015                           
  9016                           ;sdcard.c: 129:         sd_xfer(0xFF);
  9017     0156  30FF               	movlw	255
  9018     0157  3188  206C  3180   	fcall	_sd_xfer
  9019     015A  2A8C               	goto	l278
  9020     015B                     l2696:
  9021                           
  9022                           ;sdcard.c: 132:     dbg("success!\n");
  9023     015B  3049               	movlw	low (STR_15| (0+32768))
  9024     015C  00F6               	movwf	dbg@sdcard$F275@s
  9025     015D  3093               	movlw	high (STR_15| (0+32768))
  9026     015E  00F7               	movwf	dbg@sdcard$F275@s+1
  9027     015F  3188  2079  3180   	fcall	_dbg@sdcard$F275
  9028                           
  9029                           ;sdcard.c: 135:     dbg("Sending CMD8...");
  9030     0162  30E5               	movlw	low (STR_16| (0+32768))
  9031     0163  00F6               	movwf	dbg@sdcard$F275@s
  9032     0164  3092               	movlw	high (STR_16| (0+32768))
  9033     0165  00F7               	movwf	dbg@sdcard$F275@s+1
  9034     0166  3188  2079  3180   	fcall	_dbg@sdcard$F275
  9035     0169                     l2698:
  9036                           
  9037                           ;sdcard.c: 136:     unsigned char r1 = sd_send_cmd(8, 0x000001AAUL, 0x87);
  9038     0169  3000               	movlw	0
  9039     016A  00F9               	movwf	sd_send_cmd@arg+3
  9040     016B  3000               	movlw	0
  9041     016C  00F8               	movwf	sd_send_cmd@arg+2
  9042     016D  3001               	movlw	1
  9043     016E  00F7               	movwf	sd_send_cmd@arg+1
  9044     016F  30AA               	movlw	170
  9045     0170  00F6               	movwf	sd_send_cmd@arg
  9046     0171  3087               	movlw	135
  9047     0172  00FA               	movwf	sd_send_cmd@crc
  9048     0173  3008               	movlw	8
  9049     0174  318B  2313  3180   	fcall	_sd_send_cmd
  9050     0177  0020               	movlb	0	; select bank0
  9051     0178  00B7               	movwf	SDcard_init@r1
  9052     0179                     l2700:
  9053                           
  9054                           ;sdcard.c: 137:     if (r1 == 0x01)
  9055     0179  0337               	decf	SDcard_init@r1,w
  9056     017A  1D03               	btfss	3,2
  9057     017B  297D               	goto	u2351
  9058     017C  297E               	goto	u2350
  9059     017D                     u2351:
  9060     017D  2A32               	goto	l2756
  9061     017E                     u2350:
  9062     017E                     l2702:
  9063                           
  9064                           ;sdcard.c: 138:     {;sdcard.c: 140:         uint8_t r7[4];;sdcard.c: 141:         sd_re
      +                          cv(r7, 4);
  9065     017E  302E               	movlw	low SDcard_init@r7
  9066     017F  00F2               	movwf	sd_recv@buf
  9067     0180  3000               	movlw	high SDcard_init@r7
  9068     0181  00F3               	movwf	sd_recv@buf+1
  9069     0182  3004               	movlw	4
  9070     0183  00F4               	movwf	sd_recv@len
  9071     0184  3000               	movlw	0
  9072     0185  00F5               	movwf	sd_recv@len+1
  9073     0186  3189  2115  3180   	fcall	_sd_recv
  9074     0189                     l2704:
  9075                           
  9076                           ;sdcard.c: 144:         if (r7[3] == 0xAA)
  9077     0189  30AA               	movlw	170
  9078     018A  0020               	movlb	0	; select bank0
  9079     018B  0631               	xorwf	SDcard_init@r7+3,w
  9080     018C  1D03               	btfss	3,2
  9081     018D  298F               	goto	u2361
  9082     018E  2990               	goto	u2360
  9083     018F                     u2361:
  9084     018F  2A2A               	goto	l2754
  9085     0190                     u2360:
  9086     0190                     l2706:
  9087                           
  9088                           ;sdcard.c: 145:         {;sdcard.c: 146:             dbg("SD v2 detected.\n");
  9089     0190  3081               	movlw	low (STR_17| (0+32768))
  9090     0191  00F6               	movwf	dbg@sdcard$F275@s
  9091     0192  3092               	movlw	high (STR_17| (0+32768))
  9092     0193  00F7               	movwf	dbg@sdcard$F275@s+1
  9093     0194  3188  2079  3180   	fcall	_dbg@sdcard$F275
  9094                           
  9095                           ;sdcard.c: 149:             dbg("Initializing with ACMD41...");
  9096     0197  306D               	movlw	low (STR_18| (0+32768))
  9097     0198  00F6               	movwf	dbg@sdcard$F275@s
  9098     0199  3091               	movlw	high (STR_18| (0+32768))
  9099     019A  00F7               	movwf	dbg@sdcard$F275@s+1
  9100     019B  3188  2079  3180   	fcall	_dbg@sdcard$F275
  9101     019E                     l2708:
  9102                           
  9103                           ;sdcard.c: 150:             unsigned int t = 4096;
  9104     019E  3000               	movlw	0
  9105     019F  0020               	movlb	0	; select bank0
  9106     01A0  00B2               	movwf	SDcard_init@t
  9107     01A1  3010               	movlw	16
  9108     01A2  00B3               	movwf	SDcard_init@t+1
  9109     01A3                     l2710:
  9110                           
  9111                           ;sdcard.c: 152:             {;sdcard.c: 153:                 r1 = sd_send_acmd41(0x40000
      +                          000UL);
  9112     01A3  3040               	movlw	64
  9113     01A4  00A7               	movwf	sd_send_acmd41@arg+3
  9114     01A5  3000               	movlw	0
  9115     01A6  00A6               	movwf	sd_send_acmd41@arg+2
  9116     01A7  3000               	movlw	0
  9117     01A8  00A5               	movwf	sd_send_acmd41@arg+1
  9118     01A9  3000               	movlw	0
  9119     01AA  00A4               	movwf	sd_send_acmd41@arg
  9120     01AB  3180  2007  3180   	fcall	_sd_send_acmd41
  9121     01AE  0020               	movlb	0	; select bank0
  9122     01AF  00B7               	movwf	SDcard_init@r1
  9123     01B0                     l2712:
  9124                           
  9125                           ;sdcard.c: 154:                 if (r1 == 0x00) break;
  9126     01B0  0837               	movf	SDcard_init@r1,w
  9127     01B1  1D03               	btfss	3,2
  9128     01B2  29B4               	goto	u2371
  9129     01B3  29B5               	goto	u2370
  9130     01B4                     u2371:
  9131     01B4  29B6               	goto	l2716
  9132     01B5                     u2370:
  9133     01B5  29C0               	goto	l2718
  9134     01B6                     l2716:
  9135                           
  9136                           ;sdcard.c: 155:             }
  9137     01B6  3001               	movlw	1
  9138     01B7  02B2               	subwf	SDcard_init@t,f
  9139     01B8  3000               	movlw	0
  9140     01B9  3BB3               	subwfb	SDcard_init@t+1,f
  9141     01BA  0832               	movf	SDcard_init@t,w
  9142     01BB  0433               	iorwf	SDcard_init@t+1,w
  9143     01BC  1D03               	btfss	3,2
  9144     01BD  29BF               	goto	u2381
  9145     01BE  29C0               	goto	u2380
  9146     01BF                     u2381:
  9147     01BF  29A3               	goto	l2710
  9148     01C0                     u2380:
  9149     01C0                     l2718:
  9150                           
  9151                           ;sdcard.c: 158:             if (t == 0)
  9152     01C0  0832               	movf	SDcard_init@t,w
  9153     01C1  0433               	iorwf	SDcard_init@t+1,w
  9154     01C2  1D03               	btfss	3,2
  9155     01C3  29C5               	goto	u2391
  9156     01C4  29C6               	goto	u2390
  9157     01C5                     u2391:
  9158     01C5  29D5               	goto	l2728
  9159     01C6                     u2390:
  9160     01C6                     l2720:
  9161                           
  9162                           ;sdcard.c: 159:             {;sdcard.c: 160:                 dbg("ACMD41 timeout\n");
  9163     01C6  30D5               	movlw	low (STR_19| (0+32768))
  9164     01C7  00F6               	movwf	dbg@sdcard$F275@s
  9165     01C8  3092               	movlw	high (STR_19| (0+32768))
  9166     01C9  00F7               	movwf	dbg@sdcard$F275@s+1
  9167     01CA  3188  2079  3180   	fcall	_dbg@sdcard$F275
  9168     01CD                     l2722:
  9169                           
  9170                           ;sdcard.c: 161:                 SD_Deselect();
  9171     01CD  3188  2061  3180   	fcall	_SD_Deselect
  9172     01D0                     l2724:
  9173                           
  9174                           ;sdcard.c: 162:                 sd_xfer(0xFF);
  9175     01D0  30FF               	movlw	255
  9176     01D1  3188  206C  3180   	fcall	_sd_xfer
  9177     01D4  2A8C               	goto	l278
  9178     01D5                     l2728:
  9179                           
  9180                           ;sdcard.c: 165:             dbg("done!\n");
  9181     01D5  305C               	movlw	low (STR_4| (0+32768))
  9182     01D6  00F6               	movwf	dbg@sdcard$F275@s
  9183     01D7  3093               	movlw	high (STR_4| (0+32768))
  9184     01D8  00F7               	movwf	dbg@sdcard$F275@s+1
  9185     01D9  3188  2079  3180   	fcall	_dbg@sdcard$F275
  9186                           
  9187                           ;sdcard.c: 168:             dbg("Reading OCR (CMD58)...");
  9188     01DC  30EF               	movlw	low (STR_21| (0+32768))
  9189     01DD  00F6               	movwf	dbg@sdcard$F275@s
  9190     01DE  3091               	movlw	high (STR_21| (0+32768))
  9191     01DF  00F7               	movwf	dbg@sdcard$F275@s+1
  9192     01E0  3188  2079  3180   	fcall	_dbg@sdcard$F275
  9193     01E3                     l2730:
  9194                           
  9195                           ;sdcard.c: 169:             r1 = sd_send_cmd(58, 0, 0xFF);
  9196     01E3  3000               	movlw	0
  9197     01E4  00F9               	movwf	sd_send_cmd@arg+3
  9198     01E5  3000               	movlw	0
  9199     01E6  00F8               	movwf	sd_send_cmd@arg+2
  9200     01E7  3000               	movlw	0
  9201     01E8  00F7               	movwf	sd_send_cmd@arg+1
  9202     01E9  3000               	movlw	0
  9203     01EA  00F6               	movwf	sd_send_cmd@arg
  9204     01EB  30FF               	movlw	255
  9205     01EC  00FA               	movwf	sd_send_cmd@crc
  9206     01ED  303A               	movlw	58
  9207     01EE  318B  2313  3180   	fcall	_sd_send_cmd
  9208     01F1  0020               	movlb	0	; select bank0
  9209     01F2  00B7               	movwf	SDcard_init@r1
  9210     01F3                     l2732:
  9211                           
  9212                           ;sdcard.c: 170:             if (r1 != 0x00)
  9213     01F3  0837               	movf	SDcard_init@r1,w
  9214     01F4  1903               	btfsc	3,2
  9215     01F5  29F7               	goto	u2401
  9216     01F6  29F8               	goto	u2400
  9217     01F7                     u2401:
  9218     01F7  2A07               	goto	l2742
  9219     01F8                     u2400:
  9220     01F8                     l2734:
  9221                           
  9222                           ;sdcard.c: 171:             {;sdcard.c: 172:                 dbg("fail\n");
  9223     01F8  302A               	movlw	low ((STR_30+8)| (0+32768))
  9224     01F9  00F6               	movwf	dbg@sdcard$F275@s
  9225     01FA  3093               	movlw	high ((STR_30+8)| (0+32768))
  9226     01FB  00F7               	movwf	dbg@sdcard$F275@s+1
  9227     01FC  3188  2079  3180   	fcall	_dbg@sdcard$F275
  9228     01FF                     l2736:
  9229                           
  9230                           ;sdcard.c: 173:                 SD_Deselect();
  9231     01FF  3188  2061  3180   	fcall	_SD_Deselect
  9232     0202                     l2738:
  9233                           
  9234                           ;sdcard.c: 174:                 sd_xfer(0xFF);
  9235     0202  30FF               	movlw	255
  9236     0203  3188  206C  3180   	fcall	_sd_xfer
  9237     0206  2A8C               	goto	l278
  9238     0207                     l2742:
  9239                           
  9240                           ;sdcard.c: 178:             uint8_t ocr[4];;sdcard.c: 179:             sd_recv(ocr, 4);
  9241     0207  302A               	movlw	low SDcard_init@ocr
  9242     0208  00F2               	movwf	sd_recv@buf
  9243     0209  3000               	movlw	high SDcard_init@ocr
  9244     020A  00F3               	movwf	sd_recv@buf+1
  9245     020B  3004               	movlw	4
  9246     020C  00F4               	movwf	sd_recv@len
  9247     020D  3000               	movlw	0
  9248     020E  00F5               	movwf	sd_recv@len+1
  9249     020F  3189  2115  3180   	fcall	_sd_recv
  9250     0212                     l2744:
  9251                           
  9252                           ;sdcard.c: 182:             if (ocr[0] & 0x40)
  9253     0212  0020               	movlb	0	; select bank0
  9254     0213  1F2A               	btfss	SDcard_init@ocr,6
  9255     0214  2A16               	goto	u2411
  9256     0215  2A17               	goto	u2410
  9257     0216                     u2411:
  9258     0216  2A21               	goto	l2750
  9259     0217                     u2410:
  9260     0217                     l2746:
  9261                           
  9262                           ;sdcard.c: 183:             {;sdcard.c: 184:                 sd_is_sdhc = 1;
  9263     0217  01EB               	clrf	_sd_is_sdhc
  9264     0218  0AEB               	incf	_sd_is_sdhc,f
  9265     0219                     l2748:
  9266                           
  9267                           ;sdcard.c: 185:                 dbg("SDHC/SDXC detected.\n");
  9268     0219  3032               	movlw	low (STR_23| (0+32768))
  9269     021A  00F6               	movwf	dbg@sdcard$F275@s
  9270     021B  3092               	movlw	high (STR_23| (0+32768))
  9271     021C  00F7               	movwf	dbg@sdcard$F275@s+1
  9272     021D  3188  2079  3180   	fcall	_dbg@sdcard$F275
  9273                           
  9274                           ;sdcard.c: 186:             }
  9275     0220  2A7E               	goto	l2780
  9276     0221                     l2750:
  9277                           
  9278                           ;sdcard.c: 188:             {;sdcard.c: 189:                 sd_is_sdhc = 0;
  9279     0221  01EB               	clrf	_sd_is_sdhc
  9280     0222                     l2752:
  9281                           
  9282                           ;sdcard.c: 190:                 dbg("SDSC v2 detected.\n");
  9283     0222  305B               	movlw	low (STR_24| (0+32768))
  9284     0223  00F6               	movwf	dbg@sdcard$F275@s
  9285     0224  3092               	movlw	high (STR_24| (0+32768))
  9286     0225  00F7               	movwf	dbg@sdcard$F275@s+1
  9287     0226  3188  2079  3180   	fcall	_dbg@sdcard$F275
  9288     0229  2A7E               	goto	l2780
  9289     022A                     l2754:
  9290                           
  9291                           ;sdcard.c: 194:         {;sdcard.c: 195:             dbg("CMD8 pattern mismatch.\n");
  9292     022A  30D7               	movlw	low (STR_25| (0+32768))
  9293     022B  00F6               	movwf	dbg@sdcard$F275@s
  9294     022C  3091               	movlw	high (STR_25| (0+32768))
  9295     022D  00F7               	movwf	dbg@sdcard$F275@s+1
  9296     022E  3188  2079  3180   	fcall	_dbg@sdcard$F275
  9297     0231  2A7E               	goto	l2780
  9298     0232                     l2756:
  9299                           
  9300                           ;sdcard.c: 199:     {;sdcard.c: 202:         dbg("CMD8 not supported (likely SDSC v1). I
      +                          nit...\n");
  9301     0232  3041               	movlw	low (STR_26| (0+32768))
  9302     0233  00F6               	movwf	dbg@sdcard$F275@s
  9303     0234  3090               	movlw	high (STR_26| (0+32768))
  9304     0235  00F7               	movwf	dbg@sdcard$F275@s+1
  9305     0236  3188  2079  3180   	fcall	_dbg@sdcard$F275
  9306     0239                     l2758:
  9307                           
  9308                           ;sdcard.c: 204:         unsigned int t = 4096;
  9309     0239  3000               	movlw	0
  9310     023A  0020               	movlb	0	; select bank0
  9311     023B  00B4               	movwf	SDcard_init@t_338
  9312     023C  3010               	movlw	16
  9313     023D  00B5               	movwf	SDcard_init@t_338+1
  9314     023E                     l2760:
  9315                           
  9316                           ;sdcard.c: 206:         {;sdcard.c: 207:             r1 = sd_send_acmd41(0x00000000UL);
  9317     023E  3000               	movlw	0
  9318     023F  00A7               	movwf	sd_send_acmd41@arg+3
  9319     0240  3000               	movlw	0
  9320     0241  00A6               	movwf	sd_send_acmd41@arg+2
  9321     0242  3000               	movlw	0
  9322     0243  00A5               	movwf	sd_send_acmd41@arg+1
  9323     0244  3000               	movlw	0
  9324     0245  00A4               	movwf	sd_send_acmd41@arg
  9325     0246  3180  2007  3180   	fcall	_sd_send_acmd41
  9326     0249  0020               	movlb	0	; select bank0
  9327     024A  00B7               	movwf	SDcard_init@r1
  9328     024B                     l2762:
  9329                           
  9330                           ;sdcard.c: 208:             if (r1 == 0x00) break;
  9331     024B  0837               	movf	SDcard_init@r1,w
  9332     024C  1D03               	btfss	3,2
  9333     024D  2A4F               	goto	u2421
  9334     024E  2A50               	goto	u2420
  9335     024F                     u2421:
  9336     024F  2A51               	goto	l2766
  9337     0250                     u2420:
  9338     0250  2A5B               	goto	l2768
  9339     0251                     l2766:
  9340                           
  9341                           ;sdcard.c: 209:         }
  9342     0251  3001               	movlw	1
  9343     0252  02B4               	subwf	SDcard_init@t_338,f
  9344     0253  3000               	movlw	0
  9345     0254  3BB5               	subwfb	SDcard_init@t_338+1,f
  9346     0255  0834               	movf	SDcard_init@t_338,w
  9347     0256  0435               	iorwf	SDcard_init@t_338+1,w
  9348     0257  1D03               	btfss	3,2
  9349     0258  2A5A               	goto	u2431
  9350     0259  2A5B               	goto	u2430
  9351     025A                     u2431:
  9352     025A  2A3E               	goto	l2760
  9353     025B                     u2430:
  9354     025B                     l2768:
  9355                           
  9356                           ;sdcard.c: 212:         if (t == 0)
  9357     025B  0834               	movf	SDcard_init@t_338,w
  9358     025C  0435               	iorwf	SDcard_init@t_338+1,w
  9359     025D  1D03               	btfss	3,2
  9360     025E  2A60               	goto	u2441
  9361     025F  2A61               	goto	u2440
  9362     0260                     u2441:
  9363     0260  2A7D               	goto	l2778
  9364     0261                     u2440:
  9365     0261                     l2770:
  9366                           
  9367                           ;sdcard.c: 213:         {;sdcard.c: 215:             dbg("ACMD41 timeout, trying CMD1...
      +                          \n");
  9368     0261  304D               	movlw	low (STR_27| (0+32768))
  9369     0262  00F6               	movwf	dbg@sdcard$F275@s
  9370     0263  3091               	movlw	high (STR_27| (0+32768))
  9371     0264  00F7               	movwf	dbg@sdcard$F275@s+1
  9372     0265  3188  2079  3180   	fcall	_dbg@sdcard$F275
  9373     0268                     l2772:
  9374                           
  9375                           ;sdcard.c: 217:             {;sdcard.c: 218:                 r1 = sd_send_cmd(1, 0, 0xFF
      +                          );
  9376     0268  3000               	movlw	0
  9377     0269  00F9               	movwf	sd_send_cmd@arg+3
  9378     026A  3000               	movlw	0
  9379     026B  00F8               	movwf	sd_send_cmd@arg+2
  9380     026C  3000               	movlw	0
  9381     026D  00F7               	movwf	sd_send_cmd@arg+1
  9382     026E  3000               	movlw	0
  9383     026F  00F6               	movwf	sd_send_cmd@arg
  9384     0270  30FF               	movlw	255
  9385     0271  00FA               	movwf	sd_send_cmd@crc
  9386     0272  3001               	movlw	1
  9387     0273  318B  2313  3180   	fcall	_sd_send_cmd
  9388     0276  0020               	movlb	0	; select bank0
  9389     0277  00B7               	movwf	SDcard_init@r1
  9390     0278                     l2774:
  9391                           
  9392                           ;sdcard.c: 219:                 if (r1 == 0x00) break;
  9393     0278  0837               	movf	SDcard_init@r1,w
  9394     0279  1D03               	btfss	3,2
  9395     027A  2A7C               	goto	u2451
  9396     027B  2A7D               	goto	u2450
  9397     027C                     u2451:
  9398     027C  2A68               	goto	l2772
  9399     027D                     u2450:
  9400     027D                     l2778:
  9401                           
  9402                           ;sdcard.c: 223:         sd_is_sdhc = 0;
  9403     027D  01EB               	clrf	_sd_is_sdhc
  9404     027E                     l2780:
  9405                           
  9406                           ;sdcard.c: 226:     SD_Deselect();
  9407     027E  3188  2061  3180   	fcall	_SD_Deselect
  9408     0281                     l2782:
  9409                           
  9410                           ;sdcard.c: 227:     sd_xfer(0xFF);
  9411     0281  30FF               	movlw	255
  9412     0282  3188  206C  3180   	fcall	_sd_xfer
  9413     0285                     l2784:
  9414                           
  9415                           ;sdcard.c: 228:     dbg("SD card initialized successfully!\n");
  9416     0285  30E6               	movlw	low (STR_28| (0+32768))
  9417     0286  00F6               	movwf	dbg@sdcard$F275@s
  9418     0287  3090               	movlw	high (STR_28| (0+32768))
  9419     0288  00F7               	movwf	dbg@sdcard$F275@s+1
  9420     0289  3188  2079  3180   	fcall	_dbg@sdcard$F275
  9421     028C                     l278:
  9422     028C  0008               	return
  9423     028D                     __end_of_SDcard_init:
  9424                           
  9425                           	psect	text27
  9426     0007                     __ptext27:	
  9427 ;; *************** function _sd_send_acmd41 *****************
  9428 ;; Defined at:
  9429 ;;		line 95 in file "sdcard.c"
  9430 ;; Parameters:    Size  Location     Type
  9431 ;;  arg             4    4[BANK0 ] unsigned long 
  9432 ;; Auto vars:     Size  Location     Type
  9433 ;;  r1              1   12[COMMON] unsigned char 
  9434 ;; Return value:  Size  Location     Type
  9435 ;;                  1    wreg      unsigned char 
  9436 ;; Registers used:
  9437 ;;		wreg, fsr1l, fsr1h, status,2, status,0, pclath, cstack
  9438 ;; Tracked objects:
  9439 ;;		On entry : 0/0
  9440 ;;		On exit  : 0/0
  9441 ;;		Unchanged: 0/0
  9442 ;; Data sizes:     COMMON   BANK0   BANK1   BANK2   BANK3   BANK4   BANK5   BANK6   BANK7   BANK8   BANK9  BANK10  BANK1
      +1  BANK12  BANK13  BANK14  BANK15  BANK16  BANK17  BANK18  BANK19  BANK20  BANK21  BANK22  BANK23  BANK24  BANK25
  9443 ;;      Params:         0       4       0       0       0       0       0       0       0       0       0       0       
      +0       0       0       0       0       0       0       0       0       0       0       0       0       0       0
  9444 ;;      Locals:         1       0       0       0       0       0       0       0       0       0       0       0       
      +0       0       0       0       0       0       0       0       0       0       0       0       0       0       0
  9445 ;;      Temps:          0       0       0       0       0       0       0       0       0       0       0       0       
      +0       0       0       0       0       0       0       0       0       0       0       0       0       0       0
  9446 ;;      Totals:         1       4       0       0       0       0       0       0       0       0       0       0       
      +0       0       0       0       0       0       0       0       0       0       0       0       0       0       0
  9447 ;;Total ram usage:        5 bytes
  9448 ;; Hardware stack levels used: 1
  9449 ;; Hardware stack levels required when called: 4
  9450 ;; This function calls:
  9451 ;;		_sd_send_cmd
  9452 ;; This function is called by:
  9453 ;;		_SDcard_init
  9454 ;; This function uses a non-reentrant model
  9455 ;;
  9456                           
  9457     0007                     _sd_send_acmd41:	
  9458                           ;psect for function _sd_send_acmd41
  9459                           
  9460     0007                     l2422:	
  9461                           ;incstack = 0
  9462                           ; Regs used in _sd_send_acmd41: [wreg+fsr1l+fsr1h+status,2+status,0+pclath+cstack]
  9463                           
  9464                           
  9465                           ;sdcard.c: 95: static unsigned char sd_send_acmd41(uint32_t arg);sdcard.c: 96: {;sdcard.
      +                          c: 97:     unsigned char r1;;sdcard.c: 99:     r1 = sd_send_cmd(55, 0, 0xFF);
  9466     0007  3000               	movlw	0
  9467     0008  00F9               	movwf	sd_send_cmd@arg+3
  9468     0009  3000               	movlw	0
  9469     000A  00F8               	movwf	sd_send_cmd@arg+2
  9470     000B  3000               	movlw	0
  9471     000C  00F7               	movwf	sd_send_cmd@arg+1
  9472     000D  3000               	movlw	0
  9473     000E  00F6               	movwf	sd_send_cmd@arg
  9474     000F  30FF               	movlw	255
  9475     0010  00FA               	movwf	sd_send_cmd@crc
  9476     0011  3037               	movlw	55
  9477     0012  318B  2313  3180   	fcall	_sd_send_cmd
  9478     0015  00FC               	movwf	sd_send_acmd41@r1
  9479     0016                     l2424:
  9480                           
  9481                           ;sdcard.c: 100:     if (r1 > 0x01) return r1;
  9482     0016  3002               	movlw	2
  9483     0017  027C               	subwf	sd_send_acmd41@r1,w
  9484     0018  1C03               	skipc
  9485     0019  281B               	goto	u2071
  9486     001A  281C               	goto	u2070
  9487     001B                     u2071:
  9488     001B  281E               	goto	l2430
  9489     001C                     u2070:
  9490     001C                     l2426:
  9491     001C  087C               	movf	sd_send_acmd41@r1,w
  9492     001D  282F               	goto	l272
  9493     001E                     l2430:
  9494                           
  9495                           ;sdcard.c: 102:     r1 = sd_send_cmd(41, arg, 0xFF);
  9496     001E  0020               	movlb	0	; select bank0
  9497     001F  0827               	movf	sd_send_acmd41@arg+3,w
  9498     0020  00F9               	movwf	sd_send_cmd@arg+3
  9499     0021  0826               	movf	sd_send_acmd41@arg+2,w
  9500     0022  00F8               	movwf	sd_send_cmd@arg+2
  9501     0023  0825               	movf	sd_send_acmd41@arg+1,w
  9502     0024  00F7               	movwf	sd_send_cmd@arg+1
  9503     0025  0824               	movf	sd_send_acmd41@arg,w
  9504     0026  00F6               	movwf	sd_send_cmd@arg
  9505     0027  30FF               	movlw	255
  9506     0028  00FA               	movwf	sd_send_cmd@crc
  9507     0029  3029               	movlw	41
  9508     002A  318B  2313  3180   	fcall	_sd_send_cmd
  9509     002D  00FC               	movwf	sd_send_acmd41@r1
  9510     002E  281C               	goto	l2426
  9511     002F                     l272:
  9512     002F  0008               	return
  9513     0030                     __end_of_sd_send_acmd41:
  9514                           
  9515                           	psect	text28
  9516     0B13                     __ptext28:	
  9517 ;; *************** function _sd_send_cmd *****************
  9518 ;; Defined at:
  9519 ;;		line 81 in file "sdcard.c"
  9520 ;; Parameters:    Size  Location     Type
  9521 ;;  cmd             1    wreg     unsigned char 
  9522 ;;  arg             4    6[COMMON] unsigned long 
  9523 ;;  crc             1   10[COMMON] unsigned char 
  9524 ;; Auto vars:     Size  Location     Type
  9525 ;;  cmd             1   11[COMMON] unsigned char 
  9526 ;; Return value:  Size  Location     Type
  9527 ;;                  1    wreg      unsigned char 
  9528 ;; Registers used:
  9529 ;;		wreg, fsr1l, fsr1h, status,2, status,0, pclath, cstack
  9530 ;; Tracked objects:
  9531 ;;		On entry : 0/0
  9532 ;;		On exit  : 0/0
  9533 ;;		Unchanged: 0/0
  9534 ;; Data sizes:     COMMON   BANK0   BANK1   BANK2   BANK3   BANK4   BANK5   BANK6   BANK7   BANK8   BANK9  BANK10  BANK1
      +1  BANK12  BANK13  BANK14  BANK15  BANK16  BANK17  BANK18  BANK19  BANK20  BANK21  BANK22  BANK23  BANK24  BANK25
  9535 ;;      Params:         5       0       0       0       0       0       0       0       0       0       0       0       
      +0       0       0       0       0       0       0       0       0       0       0       0       0       0       0
  9536 ;;      Locals:         1       0       0       0       0       0       0       0       0       0       0       0       
      +0       0       0       0       0       0       0       0       0       0       0       0       0       0       0
  9537 ;;      Temps:          0       4       0       0       0       0       0       0       0       0       0       0       
      +0       0       0       0       0       0       0       0       0       0       0       0       0       0       0
  9538 ;;      Totals:         6       4       0       0       0       0       0       0       0       0       0       0       
      +0       0       0       0       0       0       0       0       0       0       0       0       0       0       0
  9539 ;;Total ram usage:       10 bytes
  9540 ;; Hardware stack levels used: 1
  9541 ;; Hardware stack levels required when called: 3
  9542 ;; This function calls:
  9543 ;;		_sd_get_r1
  9544 ;;		_sd_send
  9545 ;; This function is called by:
  9546 ;;		_sd_send_acmd41
  9547 ;;		_SDcard_init
  9548 ;; This function uses a non-reentrant model
  9549 ;;
  9550                           
  9551     0B13                     _sd_send_cmd:	
  9552                           ;psect for function _sd_send_cmd
  9553                           
  9554                           
  9555                           ;incstack = 0
  9556                           ; Regs used in _sd_send_cmd: [wreg+fsr1l+fsr1h+status,2+status,0+pclath+cstack]
  9557                           ;sd_send_cmd@cmd stored from wreg
  9558     0B13  00FB               	movwf	sd_send_cmd@cmd
  9559     0B14                     l2306:
  9560                           
  9561                           ;sdcard.c: 81: static unsigned char sd_send_cmd(uint8_t cmd, uint32_t arg, uint8_t crc);
      +                          sdcard.c: 82: {;sdcard.c: 83:     SDcommand[0] = 0x40 | (cmd & 0x3F);
  9562     0B14  087B               	movf	sd_send_cmd@cmd,w
  9563     0B15  393F               	andlw	63
  9564     0B16  3840               	iorlw	64
  9565     0B17  0021               	movlb	1	; select bank1
  9566     0B18  00BA               	movwf	_SDcommand^(0+128)
  9567     0B19                     l2308:
  9568                           
  9569                           ;sdcard.c: 84:     SDcommand[1] = (uint8_t)(arg >> 24);
  9570     0B19  0876               	movf	sd_send_cmd@arg,w
  9571     0B1A  0020               	movlb	0	; select bank0
  9572     0B1B  00A0               	movwf	??_sd_send_cmd
  9573     0B1C  0877               	movf	sd_send_cmd@arg+1,w
  9574     0B1D  00A1               	movwf	??_sd_send_cmd+1
  9575     0B1E  0878               	movf	sd_send_cmd@arg+2,w
  9576     0B1F  00A2               	movwf	??_sd_send_cmd+2
  9577     0B20  0879               	movf	sd_send_cmd@arg+3,w
  9578     0B21  00A3               	movwf	??_sd_send_cmd+3
  9579     0B22  3018               	movlw	24
  9580     0B23                     u1875:
  9581     0B23  36A3               	lsrf	??_sd_send_cmd+3,f
  9582     0B24  0CA2               	rrf	??_sd_send_cmd+2,f
  9583     0B25  0CA1               	rrf	??_sd_send_cmd+1,f
  9584     0B26  0CA0               	rrf	??_sd_send_cmd,f
  9585     0B27                     u1870:
  9586     0B27  0B89               	decfsz	9,f
  9587     0B28  2B23               	goto	u1875
  9588     0B29  0820               	movf	??_sd_send_cmd,w
  9589     0B2A  0021               	movlb	1	; select bank1
  9590     0B2B  00BB               	movwf	(_SDcommand^(0+128)+1)
  9591     0B2C                     l2310:
  9592                           
  9593                           ;sdcard.c: 85:     SDcommand[2] = (uint8_t)(arg >> 16);
  9594     0B2C  0876               	movf	sd_send_cmd@arg,w
  9595     0B2D  0020               	movlb	0	; select bank0
  9596     0B2E  00A0               	movwf	??_sd_send_cmd
  9597     0B2F  0877               	movf	sd_send_cmd@arg+1,w
  9598     0B30  00A1               	movwf	??_sd_send_cmd+1
  9599     0B31  0878               	movf	sd_send_cmd@arg+2,w
  9600     0B32  00A2               	movwf	??_sd_send_cmd+2
  9601     0B33  0879               	movf	sd_send_cmd@arg+3,w
  9602     0B34  00A3               	movwf	??_sd_send_cmd+3
  9603     0B35  3010               	movlw	16
  9604     0B36                     u1885:
  9605     0B36  36A3               	lsrf	??_sd_send_cmd+3,f
  9606     0B37  0CA2               	rrf	??_sd_send_cmd+2,f
  9607     0B38  0CA1               	rrf	??_sd_send_cmd+1,f
  9608     0B39  0CA0               	rrf	??_sd_send_cmd,f
  9609     0B3A                     u1880:
  9610     0B3A  0B89               	decfsz	9,f
  9611     0B3B  2B36               	goto	u1885
  9612     0B3C  0820               	movf	??_sd_send_cmd,w
  9613     0B3D  0021               	movlb	1	; select bank1
  9614     0B3E  00BC               	movwf	(_SDcommand^(0+128)+2)
  9615     0B3F                     l2312:
  9616                           
  9617                           ;sdcard.c: 86:     SDcommand[3] = (uint8_t)(arg >> 8);
  9618     0B3F  0876               	movf	sd_send_cmd@arg,w
  9619     0B40  0020               	movlb	0	; select bank0
  9620     0B41  00A0               	movwf	??_sd_send_cmd
  9621     0B42  0877               	movf	sd_send_cmd@arg+1,w
  9622     0B43  00A1               	movwf	??_sd_send_cmd+1
  9623     0B44  0878               	movf	sd_send_cmd@arg+2,w
  9624     0B45  00A2               	movwf	??_sd_send_cmd+2
  9625     0B46  0879               	movf	sd_send_cmd@arg+3,w
  9626     0B47  00A3               	movwf	??_sd_send_cmd+3
  9627     0B48  3008               	movlw	8
  9628     0B49                     u1895:
  9629     0B49  36A3               	lsrf	??_sd_send_cmd+3,f
  9630     0B4A  0CA2               	rrf	??_sd_send_cmd+2,f
  9631     0B4B  0CA1               	rrf	??_sd_send_cmd+1,f
  9632     0B4C  0CA0               	rrf	??_sd_send_cmd,f
  9633     0B4D                     u1890:
  9634     0B4D  0B89               	decfsz	9,f
  9635     0B4E  2B49               	goto	u1895
  9636     0B4F  0820               	movf	??_sd_send_cmd,w
  9637     0B50  0021               	movlb	1	; select bank1
  9638     0B51  00BD               	movwf	(_SDcommand^(0+128)+3)
  9639     0B52                     l2314:
  9640                           
  9641                           ;sdcard.c: 87:     SDcommand[4] = (uint8_t)(arg >> 0);
  9642     0B52  0876               	movf	sd_send_cmd@arg,w
  9643     0B53  00BE               	movwf	(_SDcommand^(0+128)+4)
  9644     0B54                     l2316:
  9645                           
  9646                           ;sdcard.c: 88:     SDcommand[5] = crc;
  9647     0B54  087A               	movf	sd_send_cmd@crc,w
  9648     0B55  00BF               	movwf	(_SDcommand^(0+128)+5)
  9649     0B56                     l2318:
  9650                           
  9651                           ;sdcard.c: 90:     sd_send(SDcommand, 6);
  9652     0B56  30BA               	movlw	low _SDcommand
  9653     0B57  00F2               	movwf	sd_send@buf
  9654     0B58  3000               	movlw	high _SDcommand
  9655     0B59  00F3               	movwf	sd_send@buf+1
  9656     0B5A  3006               	movlw	6
  9657     0B5B  00F4               	movwf	sd_send@len
  9658     0B5C  3000               	movlw	0
  9659     0B5D  00F5               	movwf	sd_send@len+1
  9660     0B5E  3188  20DE  318B   	fcall	_sd_send
  9661     0B61                     l2320:
  9662                           
  9663                           ;sdcard.c: 91:     return sd_get_r1();
  9664     0B61  3189  216F  318B   	fcall	_sd_get_r1
  9665     0B64                     l268:
  9666     0B64  0008               	return
  9667     0B65                     __end_of_sd_send_cmd:
  9668                           
  9669                           	psect	text29
  9670     08DE                     __ptext29:	
  9671 ;; *************** function _sd_send *****************
  9672 ;; Defined at:
  9673 ;;		line 38 in file "sdcard.c"
  9674 ;; Parameters:    Size  Location     Type
  9675 ;;  buf             2    2[COMMON] PTR const unsigned char 
  9676 ;;		 -> SDcommand(6), SDWdata(512), 
  9677 ;;  len             2    4[COMMON] unsigned short 
  9678 ;; Auto vars:     Size  Location     Type
  9679 ;;		None
  9680 ;; Return value:  Size  Location     Type
  9681 ;;                  1    wreg      void 
  9682 ;; Registers used:
  9683 ;;		wreg, fsr1l, fsr1h, status,2, status,0, pclath, cstack
  9684 ;; Tracked objects:
  9685 ;;		On entry : 0/0
  9686 ;;		On exit  : 0/0
  9687 ;;		Unchanged: 0/0
  9688 ;; Data sizes:     COMMON   BANK0   BANK1   BANK2   BANK3   BANK4   BANK5   BANK6   BANK7   BANK8   BANK9  BANK10  BANK1
      +1  BANK12  BANK13  BANK14  BANK15  BANK16  BANK17  BANK18  BANK19  BANK20  BANK21  BANK22  BANK23  BANK24  BANK25
  9689 ;;      Params:         4       0       0       0       0       0       0       0       0       0       0       0       
      +0       0       0       0       0       0       0       0       0       0       0       0       0       0       0
  9690 ;;      Locals:         0       0       0       0       0       0       0       0       0       0       0       0       
      +0       0       0       0       0       0       0       0       0       0       0       0       0       0       0
  9691 ;;      Temps:          0       0       0       0       0       0       0       0       0       0       0       0       
      +0       0       0       0       0       0       0       0       0       0       0       0       0       0       0
  9692 ;;      Totals:         4       0       0       0       0       0       0       0       0       0       0       0       
      +0       0       0       0       0       0       0       0       0       0       0       0       0       0       0
  9693 ;;Total ram usage:        4 bytes
  9694 ;; Hardware stack levels used: 1
  9695 ;; Hardware stack levels required when called: 2
  9696 ;; This function calls:
  9697 ;;		_sd_xfer
  9698 ;; This function is called by:
  9699 ;;		_sd_send_cmd
  9700 ;;		_SDcard_init
  9701 ;;		_SDcard_read_block
  9702 ;;		_SDcard_write_block
  9703 ;; This function uses a non-reentrant model
  9704 ;;
  9705                           
  9706     08DE                     _sd_send:	
  9707                           ;psect for function _sd_send
  9708                           
  9709     08DE                     l2088:	
  9710                           ;incstack = 0
  9711                           ; Regs used in _sd_send: [wreg+fsr1l+fsr1h+status,2+status,0+pclath+cstack]
  9712                           
  9713                           
  9714                           ;sdcard.c: 38: static void sd_send(const uint8_t *buf, uint16_t len);sdcard.c: 39: {;sdc
      +                          ard.c: 40:     while (len--)
  9715     08DE  28EB               	goto	l2094
  9716     08DF                     l2090:
  9717                           
  9718                           ;sdcard.c: 41:         (void)sd_xfer(*buf++);
  9719     08DF  0872               	movf	sd_send@buf,w
  9720     08E0  0086               	movwf	6
  9721     08E1  0873               	movf	sd_send@buf+1,w
  9722     08E2  0087               	movwf	7
  9723     08E3  0801               	movf	1,w
  9724     08E4  3188  206C  3188   	fcall	_sd_xfer
  9725     08E7                     l2092:
  9726     08E7  3001               	movlw	1
  9727     08E8  07F2               	addwf	sd_send@buf,f
  9728     08E9  3000               	movlw	0
  9729     08EA  3DF3               	addwfc	sd_send@buf+1,f
  9730     08EB                     l2094:
  9731                           
  9732                           ;sdcard.c: 40:     while (len--)
  9733     08EB  3001               	movlw	1
  9734     08EC  02F4               	subwf	sd_send@len,f
  9735     08ED  3000               	movlw	0
  9736     08EE  3BF5               	subwfb	sd_send@len+1,f
  9737     08EF  0A74               	incf	sd_send@len,w
  9738     08F0  1D03               	skipz
  9739     08F1  28F6               	goto	u1571
  9740     08F2  0A75               	incf	sd_send@len+1,w
  9741     08F3  1D03               	btfss	3,2
  9742     08F4  28F6               	goto	u1571
  9743     08F5  28F7               	goto	u1570
  9744     08F6                     u1571:
  9745     08F6  28DF               	goto	l2090
  9746     08F7                     u1570:
  9747     08F7                     l246:
  9748     08F7  0008               	return
  9749     08F8                     __end_of_sd_send:
  9750                           
  9751                           	psect	text30
  9752     096F                     __ptext30:	
  9753 ;; *************** function _sd_get_r1 *****************
  9754 ;; Defined at:
  9755 ;;		line 67 in file "sdcard.c"
  9756 ;; Parameters:    Size  Location     Type
  9757 ;;		None
  9758 ;; Auto vars:     Size  Location     Type
  9759 ;;  t               2    2[COMMON] unsigned int 
  9760 ;;  r1              1    4[COMMON] unsigned char 
  9761 ;; Return value:  Size  Location     Type
  9762 ;;                  1    wreg      unsigned char 
  9763 ;; Registers used:
  9764 ;;		wreg, status,2, status,0, pclath, cstack
  9765 ;; Tracked objects:
  9766 ;;		On entry : 0/0
  9767 ;;		On exit  : 0/0
  9768 ;;		Unchanged: 0/0
  9769 ;; Data sizes:     COMMON   BANK0   BANK1   BANK2   BANK3   BANK4   BANK5   BANK6   BANK7   BANK8   BANK9  BANK10  BANK1
      +1  BANK12  BANK13  BANK14  BANK15  BANK16  BANK17  BANK18  BANK19  BANK20  BANK21  BANK22  BANK23  BANK24  BANK25
  9770 ;;      Params:         0       0       0       0       0       0       0       0       0       0       0       0       
      +0       0       0       0       0       0       0       0       0       0       0       0       0       0       0
  9771 ;;      Locals:         3       0       0       0       0       0       0       0       0       0       0       0       
      +0       0       0       0       0       0       0       0       0       0       0       0       0       0       0
  9772 ;;      Temps:          0       0       0       0       0       0       0       0       0       0       0       0       
      +0       0       0       0       0       0       0       0       0       0       0       0       0       0       0
  9773 ;;      Totals:         3       0       0       0       0       0       0       0       0       0       0       0       
      +0       0       0       0       0       0       0       0       0       0       0       0       0       0       0
  9774 ;;Total ram usage:        3 bytes
  9775 ;; Hardware stack levels used: 1
  9776 ;; Hardware stack levels required when called: 2
  9777 ;; This function calls:
  9778 ;;		_sd_xfer
  9779 ;; This function is called by:
  9780 ;;		_sd_send_cmd
  9781 ;; This function uses a non-reentrant model
  9782 ;;
  9783                           
  9784     096F                     _sd_get_r1:	
  9785                           ;psect for function _sd_get_r1
  9786                           
  9787     096F                     l2120:	
  9788                           ;incstack = 0
  9789                           ; Regs used in _sd_get_r1: [wreg+status,2+status,0+pclath+cstack]
  9790                           
  9791                           
  9792                           ;sdcard.c: 69:     unsigned int t = 4096;
  9793     096F  3000               	movlw	0
  9794     0970  00F2               	movwf	sd_get_r1@t
  9795     0971  3010               	movlw	16
  9796     0972  00F3               	movwf	sd_get_r1@t+1
  9797                           
  9798                           ;sdcard.c: 70:     unsigned char r1 = 0xFF;
  9799     0973  30FF               	movlw	255
  9800     0974  00F4               	movwf	sd_get_r1@r1
  9801                           
  9802                           ;sdcard.c: 72:     while (t--)
  9803     0975  2981               	goto	l2128
  9804     0976                     l2122:
  9805                           
  9806                           ;sdcard.c: 73:     {;sdcard.c: 74:         r1 = sd_xfer(0xFF);
  9807     0976  30FF               	movlw	255
  9808     0977  3188  206C  3189   	fcall	_sd_xfer
  9809     097A  00F4               	movwf	sd_get_r1@r1
  9810     097B                     l2124:
  9811                           
  9812                           ;sdcard.c: 75:         if (r1 != 0xFF) break;
  9813     097B  0A74               	incf	sd_get_r1@r1,w
  9814     097C  1903               	btfsc	3,2
  9815     097D  297F               	goto	u1611
  9816     097E  2980               	goto	u1610
  9817     097F                     u1611:
  9818     097F  2981               	goto	l2128
  9819     0980                     u1610:
  9820     0980  298D               	goto	l2130
  9821     0981                     l2128:
  9822                           
  9823                           ;sdcard.c: 72:     while (t--)
  9824     0981  3001               	movlw	1
  9825     0982  02F2               	subwf	sd_get_r1@t,f
  9826     0983  3000               	movlw	0
  9827     0984  3BF3               	subwfb	sd_get_r1@t+1,f
  9828     0985  0A72               	incf	sd_get_r1@t,w
  9829     0986  1D03               	skipz
  9830     0987  298C               	goto	u1621
  9831     0988  0A73               	incf	sd_get_r1@t+1,w
  9832     0989  1D03               	btfss	3,2
  9833     098A  298C               	goto	u1621
  9834     098B  298D               	goto	u1620
  9835     098C                     u1621:
  9836     098C  2976               	goto	l2122
  9837     098D                     u1620:
  9838     098D                     l2130:
  9839                           
  9840                           ;sdcard.c: 77:     return r1;
  9841     098D  0874               	movf	sd_get_r1@r1,w
  9842     098E                     l265:
  9843     098E  0008               	return
  9844     098F                     __end_of_sd_get_r1:
  9845                           
  9846                           	psect	text31
  9847     0915                     __ptext31:	
  9848 ;; *************** function _sd_recv *****************
  9849 ;; Defined at:
  9850 ;;		line 44 in file "sdcard.c"
  9851 ;; Parameters:    Size  Location     Type
  9852 ;;  buf             2    2[COMMON] PTR unsigned char 
  9853 ;;		 -> SDcard_init@ocr(4), SDcard_init@r7(4), SDRdata(512), 
  9854 ;;  len             2    4[COMMON] unsigned short 
  9855 ;; Auto vars:     Size  Location     Type
  9856 ;;		None
  9857 ;; Return value:  Size  Location     Type
  9858 ;;                  1    wreg      void 
  9859 ;; Registers used:
  9860 ;;		wreg, fsr1l, fsr1h, status,2, status,0, pclath, cstack
  9861 ;; Tracked objects:
  9862 ;;		On entry : 0/0
  9863 ;;		On exit  : 0/0
  9864 ;;		Unchanged: 0/0
  9865 ;; Data sizes:     COMMON   BANK0   BANK1   BANK2   BANK3   BANK4   BANK5   BANK6   BANK7   BANK8   BANK9  BANK10  BANK1
      +1  BANK12  BANK13  BANK14  BANK15  BANK16  BANK17  BANK18  BANK19  BANK20  BANK21  BANK22  BANK23  BANK24  BANK25
  9866 ;;      Params:         4       0       0       0       0       0       0       0       0       0       0       0       
      +0       0       0       0       0       0       0       0       0       0       0       0       0       0       0
  9867 ;;      Locals:         0       0       0       0       0       0       0       0       0       0       0       0       
      +0       0       0       0       0       0       0       0       0       0       0       0       0       0       0
  9868 ;;      Temps:          1       0       0       0       0       0       0       0       0       0       0       0       
      +0       0       0       0       0       0       0       0       0       0       0       0       0       0       0
  9869 ;;      Totals:         5       0       0       0       0       0       0       0       0       0       0       0       
      +0       0       0       0       0       0       0       0       0       0       0       0       0       0       0
  9870 ;;Total ram usage:        5 bytes
  9871 ;; Hardware stack levels used: 1
  9872 ;; Hardware stack levels required when called: 2
  9873 ;; This function calls:
  9874 ;;		_sd_xfer
  9875 ;; This function is called by:
  9876 ;;		_SDcard_init
  9877 ;;		_SDcard_read_block
  9878 ;; This function uses a non-reentrant model
  9879 ;;
  9880                           
  9881     0915                     _sd_recv:	
  9882                           ;psect for function _sd_recv
  9883                           
  9884     0915                     l2096:	
  9885                           ;incstack = 0
  9886                           ; Regs used in _sd_recv: [wreg+fsr1l+fsr1h+status,2+status,0+pclath+cstack]
  9887                           
  9888                           
  9889                           ;sdcard.c: 44: static void sd_recv(uint8_t *buf, uint16_t len);sdcard.c: 45: {;sdcard.c:
      +                           46:     while (len--)
  9890     0915  2925               	goto	l2102
  9891     0916                     l2098:
  9892                           
  9893                           ;sdcard.c: 47:         *buf++ = sd_xfer(0xFF);
  9894     0916  30FF               	movlw	255
  9895     0917  3188  206C  3189   	fcall	_sd_xfer
  9896     091A  00F6               	movwf	??_sd_recv
  9897     091B  0872               	movf	sd_recv@buf,w
  9898     091C  0086               	movwf	6
  9899     091D  0873               	movf	sd_recv@buf+1,w
  9900     091E  0087               	movwf	7
  9901     091F  0876               	movf	??_sd_recv,w
  9902     0920  0081               	movwf	1
  9903     0921                     l2100:
  9904     0921  3001               	movlw	1
  9905     0922  07F2               	addwf	sd_recv@buf,f
  9906     0923  3000               	movlw	0
  9907     0924  3DF3               	addwfc	sd_recv@buf+1,f
  9908     0925                     l2102:
  9909                           
  9910                           ;sdcard.c: 46:     while (len--)
  9911     0925  3001               	movlw	1
  9912     0926  02F4               	subwf	sd_recv@len,f
  9913     0927  3000               	movlw	0
  9914     0928  3BF5               	subwfb	sd_recv@len+1,f
  9915     0929  0A74               	incf	sd_recv@len,w
  9916     092A  1D03               	skipz
  9917     092B  2930               	goto	u1581
  9918     092C  0A75               	incf	sd_recv@len+1,w
  9919     092D  1D03               	btfss	3,2
  9920     092E  2930               	goto	u1581
  9921     092F  2931               	goto	u1580
  9922     0930                     u1581:
  9923     0930  2916               	goto	l2098
  9924     0931                     u1580:
  9925     0931                     l252:
  9926     0931  0008               	return
  9927     0932                     __end_of_sd_recv:
  9928                           
  9929                           	psect	text32
  9930     086C                     __ptext32:	
  9931 ;; *************** function _sd_xfer *****************
  9932 ;; Defined at:
  9933 ;;		line 33 in file "sdcard.c"
  9934 ;; Parameters:    Size  Location     Type
  9935 ;;  b               1    wreg     unsigned char 
  9936 ;; Auto vars:     Size  Location     Type
  9937 ;;  b               1    1[COMMON] unsigned char 
  9938 ;; Return value:  Size  Location     Type
  9939 ;;                  1    wreg      unsigned char 
  9940 ;; Registers used:
  9941 ;;		wreg, pclath, cstack
  9942 ;; Tracked objects:
  9943 ;;		On entry : 0/0
  9944 ;;		On exit  : 0/0
  9945 ;;		Unchanged: 0/0
  9946 ;; Data sizes:     COMMON   BANK0   BANK1   BANK2   BANK3   BANK4   BANK5   BANK6   BANK7   BANK8   BANK9  BANK10  BANK1
      +1  BANK12  BANK13  BANK14  BANK15  BANK16  BANK17  BANK18  BANK19  BANK20  BANK21  BANK22  BANK23  BANK24  BANK25
  9947 ;;      Params:         0       0       0       0       0       0       0       0       0       0       0       0       
      +0       0       0       0       0       0       0       0       0       0       0       0       0       0       0
  9948 ;;      Locals:         1       0       0       0       0       0       0       0       0       0       0       0       
      +0       0       0       0       0       0       0       0       0       0       0       0       0       0       0
  9949 ;;      Temps:          0       0       0       0       0       0       0       0       0       0       0       0       
      +0       0       0       0       0       0       0       0       0       0       0       0       0       0       0
  9950 ;;      Totals:         1       0       0       0       0       0       0       0       0       0       0       0       
      +0       0       0       0       0       0       0       0       0       0       0       0       0       0       0
  9951 ;;Total ram usage:        1 bytes
  9952 ;; Hardware stack levels used: 1
  9953 ;; Hardware stack levels required when called: 1
  9954 ;; This function calls:
  9955 ;;		_SPI_Exchange8bit
  9956 ;; This function is called by:
  9957 ;;		_sd_send
  9958 ;;		_sd_recv
  9959 ;;		_SDcard_get_response
  9960 ;;		_sd_get_r1
  9961 ;;		_SDcard_init
  9962 ;;		_SDcard_read_block
  9963 ;;		_SDcard_write_block
  9964 ;; This function uses a non-reentrant model
  9965 ;;
  9966                           
  9967     086C                     _sd_xfer:	
  9968                           ;psect for function _sd_xfer
  9969                           
  9970                           
  9971                           ;incstack = 0
  9972                           ; Regs used in _sd_xfer: [wreg+pclath+cstack]
  9973                           ;sd_xfer@b stored from wreg
  9974     086C  00F1               	movwf	sd_xfer@b
  9975     086D                     l1962:
  9976                           
  9977                           ;sdcard.c: 33: static __attribute__((inline)) uint8_t sd_xfer(uint8_t b);sdcard.c: 34: {
      +                          ;sdcard.c: 35:     return SPI_Exchange8bit(b);
  9978     086D  0871               	movf	sd_xfer@b,w
  9979     086E  3188  20A5  3188   	fcall	_SPI_Exchange8bit
  9980     0871                     l240:
  9981     0871  0008               	return
  9982     0872                     __end_of_sd_xfer:
  9983                           
  9984                           	psect	text33
  9985     08A5                     __ptext33:	
  9986 ;; *************** function _SPI_Exchange8bit *****************
  9987 ;; Defined at:
  9988 ;;		line 86 in file "SPI.c"
  9989 ;; Parameters:    Size  Location     Type
  9990 ;;  data            1    wreg     unsigned char 
  9991 ;; Auto vars:     Size  Location     Type
  9992 ;;  data            1    0[COMMON] unsigned char 
  9993 ;; Return value:  Size  Location     Type
  9994 ;;                  1    wreg      unsigned char 
  9995 ;; Registers used:
  9996 ;;		wreg
  9997 ;; Tracked objects:
  9998 ;;		On entry : 0/0
  9999 ;;		On exit  : 0/0
 10000 ;;		Unchanged: 0/0
 10001 ;; Data sizes:     COMMON   BANK0   BANK1   BANK2   BANK3   BANK4   BANK5   BANK6   BANK7   BANK8   BANK9  BANK10  BANK1
      +1  BANK12  BANK13  BANK14  BANK15  BANK16  BANK17  BANK18  BANK19  BANK20  BANK21  BANK22  BANK23  BANK24  BANK25
 10002 ;;      Params:         0       0       0       0       0       0       0       0       0       0       0       0       
      +0       0       0       0       0       0       0       0       0       0       0       0       0       0       0
 10003 ;;      Locals:         1       0       0       0       0       0       0       0       0       0       0       0       
      +0       0       0       0       0       0       0       0       0       0       0       0       0       0       0
 10004 ;;      Temps:          0       0       0       0       0       0       0       0       0       0       0       0       
      +0       0       0       0       0       0       0       0       0       0       0       0       0       0       0
 10005 ;;      Totals:         1       0       0       0       0       0       0       0       0       0       0       0       
      +0       0       0       0       0       0       0       0       0       0       0       0       0       0       0
 10006 ;;Total ram usage:        1 bytes
 10007 ;; Hardware stack levels used: 1
 10008 ;; This function calls:
 10009 ;;		Nothing
 10010 ;; This function is called by:
 10011 ;;		_sd_xfer
 10012 ;;		_SPI_Exchange8bitBuffer
 10013 ;; This function uses a non-reentrant model
 10014 ;;
 10015                           
 10016     08A5                     _SPI_Exchange8bit:	
 10017                           ;psect for function _SPI_Exchange8bit
 10018                           
 10019                           
 10020                           ;incstack = 0
 10021                           ; Regs used in _SPI_Exchange8bit: [wreg]
 10022                           ;SPI_Exchange8bit@data stored from wreg
 10023     08A5  00F0               	movwf	SPI_Exchange8bit@data
 10024     08A6                     l1946:
 10025                           
 10026                           ;SPI.c: 86: uint8_t SPI_Exchange8bit(uint8_t data);SPI.c: 87: {;SPI.c: 89:     SSP1CON1b
      +                          its.WCOL = 0;
 10027     08A6  0024               	movlb	4	; select bank4
 10028     08A7  1395               	bcf	21,7	;volatile
 10029     08A8                     l1948:
 10030                           
 10031                           ;SPI.c: 92:     SSPBUF = data;
 10032     08A8  0870               	movf	SPI_Exchange8bit@data,w
 10033     08A9  0091               	movwf	17	;volatile
 10034     08AA                     l334:	
 10035                           ;SPI.c: 96:     {;SPI.c: 97:     }
 10036                           
 10037                           
 10038                           ;SPI.c: 95:     while (SSP1STATbits.BF == 0x0)
 10039     08AA  1C14               	btfss	20,0	;volatile
 10040     08AB  28AD               	goto	u1291
 10041     08AC  28AE               	goto	u1290
 10042     08AD                     u1291:
 10043     08AD  28AA               	goto	l334
 10044     08AE                     u1290:
 10045     08AE                     l1950:
 10046                           
 10047                           ;SPI.c: 100:     return (SSPBUF);
 10048     08AE  0811               	movf	17,w	;volatile
 10049     08AF                     l337:
 10050     08AF  0008               	return
 10051     08B0                     __end_of_SPI_Exchange8bit:
 10052                           
 10053                           	psect	text34
 10054     0879                     __ptext34:	
 10055 ;; *************** function _dbg@sdcard$F275 *****************
 10056 ;; Defined at:
 10057 ;;		line 27 in file "sdcard.c"
 10058 ;; Parameters:    Size  Location     Type
 10059 ;;  s               2    6[COMMON] PTR const unsigned char 
 10060 ;;		 -> STR_42(7), STR_41(9), STR_40(44), STR_39(10), 
 10061 ;;		 -> STR_38(20), STR_37(22), STR_36(22), STR_35(10), 
 10062 ;;		 -> STR_34(14), STR_33(17), STR_32(15), STR_31(10), 
 10063 ;;		 -> STR_30(14), STR_29(17), STR_28(35), STR_27(32), 
 10064 ;;		 -> STR_26(46), STR_25(24), STR_24(19), STR_23(21), 
 10065 ;;		 -> STR_22(6), STR_21(23), STR_20(7), STR_19(16), 
 10066 ;;		 -> STR_18(28), STR_17(17), STR_16(16), STR_15(10), 
 10067 ;;		 -> STR_14(6), STR_13(35), STR_12(36), 
 10068 ;; Auto vars:     Size  Location     Type
 10069 ;;		None
 10070 ;; Return value:  Size  Location     Type
 10071 ;;                  1    wreg      void 
 10072 ;; Registers used:
 10073 ;;		wreg, fsr0l, fsr0h, status,2, status,0, pclath, cstack
 10074 ;; Tracked objects:
 10075 ;;		On entry : 0/0
 10076 ;;		On exit  : 0/0
 10077 ;;		Unchanged: 0/0
 10078 ;; Data sizes:     COMMON   BANK0   BANK1   BANK2   BANK3   BANK4   BANK5   BANK6   BANK7   BANK8   BANK9  BANK10  BANK1
      +1  BANK12  BANK13  BANK14  BANK15  BANK16  BANK17  BANK18  BANK19  BANK20  BANK21  BANK22  BANK23  BANK24  BANK25
 10079 ;;      Params:         2       0       0       0       0       0       0       0       0       0       0       0       
      +0       0       0       0       0       0       0       0       0       0       0       0       0       0       0
 10080 ;;      Locals:         0       0       0       0       0       0       0       0       0       0       0       0       
      +0       0       0       0       0       0       0       0       0       0       0       0       0       0       0
 10081 ;;      Temps:          0       0       0       0       0       0       0       0       0       0       0       0       
      +0       0       0       0       0       0       0       0       0       0       0       0       0       0       0
 10082 ;;      Totals:         2       0       0       0       0       0       0       0       0       0       0       0       
      +0       0       0       0       0       0       0       0       0       0       0       0       0       0       0
 10083 ;;Total ram usage:        2 bytes
 10084 ;; Hardware stack levels used: 1
 10085 ;; Hardware stack levels required when called: 2
 10086 ;; This function calls:
 10087 ;;		_EUSART_Write_Text
 10088 ;; This function is called by:
 10089 ;;		_SDcard_init
 10090 ;;		_SDcard_read_block
 10091 ;;		_SDcard_write_block
 10092 ;; This function uses a non-reentrant model
 10093 ;;
 10094                           
 10095     0879                     _dbg@sdcard$F275:	
 10096                           ;psect for function _dbg@sdcard$F275
 10097                           
 10098     0879                     l2086:	
 10099                           ;incstack = 0
 10100                           ; Regs used in _dbg@sdcard$F275: [wreg-fsr0h+status,2+status,0+pclath+cstack]
 10101                           
 10102                           
 10103                           ;sdcard.c: 27: static __attribute__((inline)) void dbg(const char *s);sdcard.c: 28: {;sd
      +                          card.c: 29:     EUSART_Write_Text((char*)s);
 10104     0879  0877               	movf	dbg@sdcard$F275@s+1,w
 10105     087A  00F2               	movwf	EUSART_Write_Text@text+1
 10106     087B  0876               	movf	dbg@sdcard$F275@s,w
 10107     087C  00F1               	movwf	EUSART_Write_Text@text
 10108     087D  3188  20F8  3188   	fcall	_EUSART_Write_Text
 10109     0880                     l237:
 10110     0880  0008               	return
 10111     0881                     __end_of_dbg@sdcard$F275:
 10112                           
 10113                           	psect	text35
 10114     08F8                     __ptext35:	
 10115 ;; *************** function _EUSART_Write_Text *****************
 10116 ;; Defined at:
 10117 ;;		line 127 in file "EUSART.c"
 10118 ;; Parameters:    Size  Location     Type
 10119 ;;  text            2    1[COMMON] PTR unsigned char 
 10120 ;;		 -> STR_47(16), STR_43(24), STR_42(7), STR_41(9), 
 10121 ;;		 -> STR_40(44), STR_39(10), STR_38(20), STR_37(22), 
 10122 ;;		 -> STR_36(22), STR_35(10), STR_34(14), STR_33(17), 
 10123 ;;		 -> STR_32(15), STR_31(10), STR_30(14), STR_29(17), 
 10124 ;;		 -> STR_28(35), STR_27(32), STR_26(46), STR_25(24), 
 10125 ;;		 -> STR_24(19), STR_23(21), STR_22(6), STR_21(23), 
 10126 ;;		 -> STR_20(7), STR_19(16), STR_18(28), STR_17(17), 
 10127 ;;		 -> STR_16(16), STR_15(10), STR_14(6), STR_13(35), 
 10128 ;;		 -> STR_12(36), STR_11(12), STR_10(28), STR_9(15), 
 10129 ;;		 -> STR_8(7), STR_7(48), STR_6(19), STR_5(17), 
 10130 ;;		 -> STR_4(7), STR_3(39), STR_2(7), STR_1(15), 
 10131 ;;		 -> dbg_hex32@buf(11), 
 10132 ;; Auto vars:     Size  Location     Type
 10133 ;;  i               2    4[COMMON] int 
 10134 ;; Return value:  Size  Location     Type
 10135 ;;                  1    wreg      void 
 10136 ;; Registers used:
 10137 ;;		wreg, fsr0l, fsr0h, status,2, status,0, pclath, cstack
 10138 ;; Tracked objects:
 10139 ;;		On entry : 0/0
 10140 ;;		On exit  : 0/0
 10141 ;;		Unchanged: 0/0
 10142 ;; Data sizes:     COMMON   BANK0   BANK1   BANK2   BANK3   BANK4   BANK5   BANK6   BANK7   BANK8   BANK9  BANK10  BANK1
      +1  BANK12  BANK13  BANK14  BANK15  BANK16  BANK17  BANK18  BANK19  BANK20  BANK21  BANK22  BANK23  BANK24  BANK25
 10143 ;;      Params:         2       0       0       0       0       0       0       0       0       0       0       0       
      +0       0       0       0       0       0       0       0       0       0       0       0       0       0       0
 10144 ;;      Locals:         2       0       0       0       0       0       0       0       0       0       0       0       
      +0       0       0       0       0       0       0       0       0       0       0       0       0       0       0
 10145 ;;      Temps:          1       0       0       0       0       0       0       0       0       0       0       0       
      +0       0       0       0       0       0       0       0       0       0       0       0       0       0       0
 10146 ;;      Totals:         5       0       0       0       0       0       0       0       0       0       0       0       
      +0       0       0       0       0       0       0       0       0       0       0       0       0       0       0
 10147 ;;Total ram usage:        5 bytes
 10148 ;; Hardware stack levels used: 1
 10149 ;; Hardware stack levels required when called: 1
 10150 ;; This function calls:
 10151 ;;		_EUSART_Write
 10152 ;; This function is called by:
 10153 ;;		_dbg
 10154 ;;		_dbg@sdcard$F275
 10155 ;;		_main
 10156 ;; This function uses a non-reentrant model
 10157 ;;
 10158                           
 10159     08F8                     _EUSART_Write_Text:	
 10160                           ;psect for function _EUSART_Write_Text
 10161                           
 10162     08F8                     l1954:	
 10163                           ;incstack = 0
 10164                           ; Regs used in _EUSART_Write_Text: [wreg-fsr0h+status,2+status,0+pclath+cstack]
 10165                           
 10166                           
 10167                           ;EUSART.c: 127: void EUSART_Write_Text(char *text);EUSART.c: 128: {;EUSART.c: 129:   int
      +                           i;;EUSART.c: 130:   for(i=0;text[i]!='\0';i++)
 10168     08F8  01F4               	clrf	EUSART_Write_Text@i
 10169     08F9  01F5               	clrf	EUSART_Write_Text@i+1
 10170     08FA  2909               	goto	l1960
 10171     08FB                     l1956:
 10172                           
 10173                           ;EUSART.c: 131:    EUSART_Write(text[i]);
 10174     08FB  0871               	movf	EUSART_Write_Text@text,w
 10175     08FC  0774               	addwf	EUSART_Write_Text@i,w
 10176     08FD  0084               	movwf	4
 10177     08FE  0872               	movf	EUSART_Write_Text@text+1,w
 10178     08FF  3D75               	addwfc	EUSART_Write_Text@i+1,w
 10179     0900  0085               	movwf	5
 10180     0901  0800               	movf	0,w	;code access
 10181     0902  3188  209B  3188   	fcall	_EUSART_Write
 10182     0905                     l1958:
 10183     0905  3001               	movlw	1
 10184     0906  07F4               	addwf	EUSART_Write_Text@i,f
 10185     0907  3000               	movlw	0
 10186     0908  3DF5               	addwfc	EUSART_Write_Text@i+1,f
 10187     0909                     l1960:
 10188     0909  0871               	movf	EUSART_Write_Text@text,w
 10189     090A  0774               	addwf	EUSART_Write_Text@i,w
 10190     090B  0084               	movwf	4
 10191     090C  0872               	movf	EUSART_Write_Text@text+1,w
 10192     090D  3D75               	addwfc	EUSART_Write_Text@i+1,w
 10193     090E  0085               	movwf	5
 10194     090F  0012               	moviw fsr0++
 10195     0910  1D03               	btfss	3,2
 10196     0911  2913               	goto	u1301
 10197     0912  2914               	goto	u1300
 10198     0913                     u1301:
 10199     0913  28FB               	goto	l1956
 10200     0914                     u1300:
 10201     0914                     l50:
 10202     0914  0008               	return
 10203     0915                     __end_of_EUSART_Write_Text:
 10204                           
 10205                           	psect	text36
 10206     089B                     __ptext36:	
 10207 ;; *************** function _EUSART_Write *****************
 10208 ;; Defined at:
 10209 ;;		line 108 in file "EUSART.c"
 10210 ;; Parameters:    Size  Location     Type
 10211 ;;  txData          1    wreg     unsigned char 
 10212 ;; Auto vars:     Size  Location     Type
 10213 ;;  txData          1    0[COMMON] unsigned char 
 10214 ;; Return value:  Size  Location     Type
 10215 ;;                  1    wreg      void 
 10216 ;; Registers used:
 10217 ;;		wreg
 10218 ;; Tracked objects:
 10219 ;;		On entry : 0/0
 10220 ;;		On exit  : 0/0
 10221 ;;		Unchanged: 0/0
 10222 ;; Data sizes:     COMMON   BANK0   BANK1   BANK2   BANK3   BANK4   BANK5   BANK6   BANK7   BANK8   BANK9  BANK10  BANK1
      +1  BANK12  BANK13  BANK14  BANK15  BANK16  BANK17  BANK18  BANK19  BANK20  BANK21  BANK22  BANK23  BANK24  BANK25
 10223 ;;      Params:         0       0       0       0       0       0       0       0       0       0       0       0       
      +0       0       0       0       0       0       0       0       0       0       0       0       0       0       0
 10224 ;;      Locals:         1       0       0       0       0       0       0       0       0       0       0       0       
      +0       0       0       0       0       0       0       0       0       0       0       0       0       0       0
 10225 ;;      Temps:          0       0       0       0       0       0       0       0       0       0       0       0       
      +0       0       0       0       0       0       0       0       0       0       0       0       0       0       0
 10226 ;;      Totals:         1       0       0       0       0       0       0       0       0       0       0       0       
      +0       0       0       0       0       0       0       0       0       0       0       0       0       0       0
 10227 ;;Total ram usage:        1 bytes
 10228 ;; Hardware stack levels used: 1
 10229 ;; This function calls:
 10230 ;;		Nothing
 10231 ;; This function is called by:
 10232 ;;		_EUSART_Write_Text
 10233 ;;		_EUSART_Write_Integer
 10234 ;;		_dbg_nl
 10235 ;; This function uses a non-reentrant model
 10236 ;;
 10237                           
 10238     089B                     _EUSART_Write:	
 10239                           ;psect for function _EUSART_Write
 10240                           
 10241                           
 10242                           ;incstack = 0
 10243                           ; Regs used in _EUSART_Write: [wreg]
 10244                           ;EUSART_Write@txData stored from wreg
 10245     089B  00F0               	movwf	EUSART_Write@txData
 10246     089C                     l1942:
 10247     089C                     l41:	
 10248                           ;EUSART.c: 111:     {;EUSART.c: 112:     }
 10249                           
 10250                           
 10251                           ;EUSART.c: 110:     while(0 == PIR1bits.TXIF)
 10252     089C  0020               	movlb	0	; select bank0
 10253     089D  1E11               	btfss	17,4	;volatile
 10254     089E  28A0               	goto	u1281
 10255     089F  28A1               	goto	u1280
 10256     08A0                     u1281:
 10257     08A0  289C               	goto	l41
 10258     08A1                     u1280:
 10259     08A1                     l1944:
 10260                           
 10261                           ;EUSART.c: 114:     TX1REG = txData;
 10262     08A1  0870               	movf	EUSART_Write@txData,w
 10263     08A2  0023               	movlb	3	; select bank3
 10264     08A3  009A               	movwf	26	;volatile
 10265     08A4                     l44:
 10266     08A4  0008               	return
 10267     08A5                     __end_of_EUSART_Write:
 10268                           
 10269                           	psect	text37
 10270     0864                     __ptext37:	
 10271 ;; *************** function _SD_Select *****************
 10272 ;; Defined at:
 10273 ;;		line 23 in file "sdcard.c"
 10274 ;; Parameters:    Size  Location     Type
 10275 ;;		None
 10276 ;; Auto vars:     Size  Location     Type
 10277 ;;		None
 10278 ;; Return value:  Size  Location     Type
 10279 ;;                  1    wreg      void 
 10280 ;; Registers used:
 10281 ;;		None
 10282 ;; Tracked objects:
 10283 ;;		On entry : 0/0
 10284 ;;		On exit  : 0/0
 10285 ;;		Unchanged: 0/0
 10286 ;; Data sizes:     COMMON   BANK0   BANK1   BANK2   BANK3   BANK4   BANK5   BANK6   BANK7   BANK8   BANK9  BANK10  BANK1
      +1  BANK12  BANK13  BANK14  BANK15  BANK16  BANK17  BANK18  BANK19  BANK20  BANK21  BANK22  BANK23  BANK24  BANK25
 10287 ;;      Params:         0       0       0       0       0       0       0       0       0       0       0       0       
      +0       0       0       0       0       0       0       0       0       0       0       0       0       0       0
 10288 ;;      Locals:         0       0       0       0       0       0       0       0       0       0       0       0       
      +0       0       0       0       0       0       0       0       0       0       0       0       0       0       0
 10289 ;;      Temps:          0       0       0       0       0       0       0       0       0       0       0       0       
      +0       0       0       0       0       0       0       0       0       0       0       0       0       0       0
 10290 ;;      Totals:         0       0       0       0       0       0       0       0       0       0       0       0       
      +0       0       0       0       0       0       0       0       0       0       0       0       0       0       0
 10291 ;;Total ram usage:        0 bytes
 10292 ;; Hardware stack levels used: 1
 10293 ;; This function calls:
 10294 ;;		Nothing
 10295 ;; This function is called by:
 10296 ;;		_SDcard_init
 10297 ;;		_SDcard_read_block
 10298 ;;		_SDcard_write_block
 10299 ;; This function uses a non-reentrant model
 10300 ;;
 10301                           
 10302     0864                     _SD_Select:	
 10303                           ;psect for function _SD_Select
 10304                           
 10305     0864                     l2082:	
 10306                           ;incstack = 0
 10307                           ; Regs used in _SD_Select: []
 10308                           
 10309     0864  0022               	movlb	2	; select bank2
 10310     0865  110E               	bcf	14,2	;volatile
 10311     0866                     l231:
 10312     0866  0008               	return
 10313     0867                     __end_of_SD_Select:
 10314                           
 10315                           	psect	text38
 10316     0861                     __ptext38:	
 10317 ;; *************** function _SD_Deselect *****************
 10318 ;; Defined at:
 10319 ;;		line 24 in file "sdcard.c"
 10320 ;; Parameters:    Size  Location     Type
 10321 ;;		None
 10322 ;; Auto vars:     Size  Location     Type
 10323 ;;		None
 10324 ;; Return value:  Size  Location     Type
 10325 ;;                  1    wreg      void 
 10326 ;; Registers used:
 10327 ;;		None
 10328 ;; Tracked objects:
 10329 ;;		On entry : 0/0
 10330 ;;		On exit  : 0/0
 10331 ;;		Unchanged: 0/0
 10332 ;; Data sizes:     COMMON   BANK0   BANK1   BANK2   BANK3   BANK4   BANK5   BANK6   BANK7   BANK8   BANK9  BANK10  BANK1
      +1  BANK12  BANK13  BANK14  BANK15  BANK16  BANK17  BANK18  BANK19  BANK20  BANK21  BANK22  BANK23  BANK24  BANK25
 10333 ;;      Params:         0       0       0       0       0       0       0       0       0       0       0       0       
      +0       0       0       0       0       0       0       0       0       0       0       0       0       0       0
 10334 ;;      Locals:         0       0       0       0       0       0       0       0       0       0       0       0       
      +0       0       0       0       0       0       0       0       0       0       0       0       0       0       0
 10335 ;;      Temps:          0       0       0       0       0       0       0       0       0       0       0       0       
      +0       0       0       0       0       0       0       0       0       0       0       0       0       0       0
 10336 ;;      Totals:         0       0       0       0       0       0       0       0       0       0       0       0       
      +0       0       0       0       0       0       0       0       0       0       0       0       0       0       0
 10337 ;;Total ram usage:        0 bytes
 10338 ;; Hardware stack levels used: 1
 10339 ;; This function calls:
 10340 ;;		Nothing
 10341 ;; This function is called by:
 10342 ;;		_SDcard_init
 10343 ;;		_SDcard_read_block
 10344 ;;		_SDcard_write_block
 10345 ;; This function uses a non-reentrant model
 10346 ;;
 10347                           
 10348     0861                     _SD_Deselect:	
 10349                           ;psect for function _SD_Deselect
 10350                           
 10351     0861                     l2084:	
 10352                           ;incstack = 0
 10353                           ; Regs used in _SD_Deselect: []
 10354                           
 10355     0861  0022               	movlb	2	; select bank2
 10356     0862  150E               	bsf	14,2	;volatile
 10357     0863                     l234:
 10358     0863  0008               	return
 10359     0864                     __end_of_SD_Deselect:
 10360     007E                     btemp	set	126	;btemp
 10361     007E                     wtemp0	set	126
 10362     23F0                     
 10363                           	psect	config
 10364                           
 10365                           ;Config register CONFIG1 @ 0x8007
 10366                           ;	Oscillator Selection Bits
 10367                           ;	FOSC = INTOSC, INTOSC oscillator: I/O function on CLKIN pin
 10368                           ;	Watchdog Timer Enable
 10369                           ;	WDTE = OFF, WDT disabled
 10370                           ;	Power-up Timer Enable
 10371                           ;	PWRTE = OFF, PWRT disabled
 10372                           ;	MCLR Pin Function Select
 10373                           ;	MCLRE = OFF, MCLR/VPP pin function is digital input if LVP bit is also 0.
 10374                           ;	Flash Program Memory Code Protection
 10375                           ;	CP = OFF, Program memory code protection is disabled
 10376                           ;	Brown-out Reset Enable
 10377                           ;	BOREN = OFF, Brown-out Reset disabled
 10378                           ;	Clock Out Enable
 10379                           ;	CLKOUTEN = OFF, CLKOUT function is disabled. I/O or oscillator function on the CLKOUT 
      +                          pin
 10380                           ;	Internal/External Switchover Mode
 10381                           ;	IESO = ON, Internal/External Switchover Mode is enabled
 10382                           ;	Fail-Safe Clock Monitor Enable
 10383                           ;	FCMEN = OFF, Fail-Safe Clock Monitor is disabled
 10384     8007                     	org	32775
 10385     8007  19A4               	dw	6564
 10386                           
 10387                           ;Config register CONFIG2 @ 0x8008
 10388                           ;	Flash Memory Self-Write Protection
 10389                           ;	WRT = OFF, Write protection off
 10390                           ;	Peripheral Pin Select one-way control
 10391                           ;	PPS1WAY = ON, The PPSLOCK bit cannot be cleared once it is set by software
 10392                           ;	Zero-cross detect disable
 10393                           ;	ZCDDIS = ON, ZCD disabled. ZCD can be enabled by setting the ZCDSEN bit of ZCDCON
 10394                           ;	Phase Lock Loop enable
 10395                           ;	PLLEN = OFF, 4x PLL is disabled
 10396                           ;	Stack Overflow/Underflow Reset Enable
 10397                           ;	STVREN = ON, Stack Overflow or Underflow will cause a Reset
 10398                           ;	Brown-out Reset Voltage Selection
 10399                           ;	BORV = LO, Brown-out Reset Voltage (Vbor), low trip point selected.
 10400                           ;	Low-Power Brown Out Reset
 10401                           ;	LPBOR = OFF, Low-Power BOR is disabled
 10402                           ;	In-Circuit Debugger Mode
 10403                           ;	DEBUG = 0x1, unprogrammed default
 10404                           ;	Low-Voltage Programming Enable
 10405                           ;	LVP = OFF, High-voltage on MCLR/VPP must be used for programming
 10406     8008                     	org	32776
 10407     8008  1EFF               	dw	7935

Data Sizes:
    Strings     857
    Constant    17
    Data        0
    BSS         56
    Persistent  32
    Stack       0

Auto Spaces:
    Space          Size  Autos    Used
    COMMON           14     14      14
    BANK0            80     55      79
    BANK1            80      0      32
    BANK2            80      0       0
    BANK3            80      0       0
    BANK4            80      0       0
    BANK5            80      0       0
    BANK6            80      0       0
    BANK7            80      0       0
    BANK8            80      0       0
    BANK9            80      0       0
    BANK10           80      0       0
    BANK11           80      0       0
    BANK12           48      0       0
    BANK13            0      0       0
    BANK14            0      0       0
    BANK15            0      0       0
    BANK16            0      0       0
    BANK17            0      0       0
    BANK18            0      0       0
    BANK19            0      0       0
    BANK20            0      0       0
    BANK21            0      0       0
    BANK22            0      0       0
    BANK23            0      0       0
    BANK24            0      0       0
    BANK25            0      0       0

Pointer List with Targets:

    dbg@s	PTR const unsigned char  size(2) Largest target is 48
		 -> dbg_hex32@buf(BANK0[11]), STR_1(CODE[15]), STR_10(CODE[28]), STR_11(CODE[12]), 
		 -> STR_2(CODE[7]), STR_3(CODE[39]), STR_4(CODE[7]), STR_5(CODE[17]), 
		 -> STR_6(CODE[19]), STR_7(CODE[48]), STR_8(CODE[7]), STR_9(CODE[15]), 

    dbg@sdcard$F275@s	PTR const unsigned char  size(2) Largest target is 46
		 -> STR_12(CODE[36]), STR_13(CODE[35]), STR_14(CODE[6]), STR_15(CODE[10]), 
		 -> STR_16(CODE[16]), STR_17(CODE[17]), STR_18(CODE[28]), STR_19(CODE[16]), 
		 -> STR_20(CODE[7]), STR_21(CODE[23]), STR_22(CODE[6]), STR_23(CODE[21]), 
		 -> STR_24(CODE[19]), STR_25(CODE[24]), STR_26(CODE[46]), STR_27(CODE[32]), 
		 -> STR_28(CODE[35]), STR_29(CODE[17]), STR_30(CODE[14]), STR_31(CODE[10]), 
		 -> STR_32(CODE[15]), STR_33(CODE[17]), STR_34(CODE[14]), STR_35(CODE[10]), 
		 -> STR_36(CODE[22]), STR_37(CODE[22]), STR_38(CODE[20]), STR_39(CODE[10]), 
		 -> STR_40(CODE[44]), STR_41(CODE[9]), STR_42(CODE[7]), 

    EUSART_Write_Integer@ptr	PTR unsigned char  size(1) Largest target is 20
		 -> EUSART_Write_Integer@buffer(BANK0[20]), 

    EUSART_Write_Integer@temp_ptr	PTR unsigned char  size(1) Largest target is 20
		 -> EUSART_Write_Integer@buffer(BANK0[20]), 

    EUSART_Write_Text@text	PTR unsigned char  size(2) Largest target is 48
		 -> dbg_hex32@buf(BANK0[11]), STR_1(CODE[15]), STR_10(CODE[28]), STR_11(CODE[12]), 
		 -> STR_12(CODE[36]), STR_13(CODE[35]), STR_14(CODE[6]), STR_15(CODE[10]), 
		 -> STR_16(CODE[16]), STR_17(CODE[17]), STR_18(CODE[28]), STR_19(CODE[16]), 
		 -> STR_2(CODE[7]), STR_20(CODE[7]), STR_21(CODE[23]), STR_22(CODE[6]), 
		 -> STR_23(CODE[21]), STR_24(CODE[19]), STR_25(CODE[24]), STR_26(CODE[46]), 
		 -> STR_27(CODE[32]), STR_28(CODE[35]), STR_29(CODE[17]), STR_3(CODE[39]), 
		 -> STR_30(CODE[14]), STR_31(CODE[10]), STR_32(CODE[15]), STR_33(CODE[17]), 
		 -> STR_34(CODE[14]), STR_35(CODE[10]), STR_36(CODE[22]), STR_37(CODE[22]), 
		 -> STR_38(CODE[20]), STR_39(CODE[10]), STR_4(CODE[7]), STR_40(CODE[44]), 
		 -> STR_41(CODE[9]), STR_42(CODE[7]), STR_43(CODE[24]), STR_47(CODE[16]), 
		 -> STR_5(CODE[17]), STR_6(CODE[19]), STR_7(CODE[48]), STR_8(CODE[7]), 
		 -> STR_9(CODE[15]), 

    file_append@string	PTR const unsigned char  size(2) Largest target is 33
		 -> STR_45(CODE[33]), STR_46(CODE[26]), 

    file_create@filename	PTR const unsigned char  size(2) Largest target is 13
		 -> STR_44(CODE[13]), 

    itoa@buf	PTR PTR unsigned char  size(1) Largest target is 1
		 -> EUSART_Write_Integer@ptr(BANK0[1]), 

    sd_recv@buf	PTR unsigned char  size(2) Largest target is 512
		 -> SDcard_init@ocr(BANK0[4]), SDcard_init@r7(BANK0[4]), SDRdata(BIGRAM[512]), 

    sd_send@buf	PTR const unsigned char  size(2) Largest target is 512
		 -> SDcommand(BANK1[6]), SDWdata(BIGRAM[512]), 


Critical Paths under _main in COMMON

    _main->_file_update_size
    _main->_sector_open
    _mount_disk->_SDcard_read_block
    _mount_disk->___lmul
    _mount_disk->_dbg_hex32
    _initMain->_EUSART_Initialize
    _EUSART_Initialize->___aldiv
    _file_update_size->_SDcard_read_block
    _file_update_size->_SDcard_write_block
    _file_update_size->_dbg_hex32
    _dbg_u16_dec->_EUSART_Write_Integer
    _EUSART_Write_Integer->_itoa
    _itoa->___awdiv
    _file_append->_sector_open
    _sector_open->_SDcard_read_block
    _sector_open->___lmul
    _sector_open->_dbg_hex32
    _dbg_nl->_EUSART_Write
    _dbg_hex32->_dbg
    _dbg->_EUSART_Write_Text
    _SDcard_read_block->_dbg@sdcard$F275
    _sector_close->_SDcard_write_block
    _SDcard_write_block->_dbg@sdcard$F275
    _SDcard_get_response->_sd_xfer
    _SDcard_init->_sd_send_acmd41
    _sd_send_acmd41->_sd_send_cmd
    _sd_send_cmd->_sd_send
    _sd_send->_sd_xfer
    _sd_get_r1->_sd_xfer
    _sd_recv->_sd_xfer
    _sd_xfer->_SPI_Exchange8bit
    _dbg@sdcard$F275->_EUSART_Write_Text
    _EUSART_Write_Text->_EUSART_Write

Critical Paths under _main in BANK0

    _main->_file_create
    _mount_disk->_dbg_hex32
    _initMain->_EUSART_Initialize
    _EUSART_Initialize->___aldiv
    _file_update_size->_dbg_hex32
    _file_create->_dbg_u16_dec
    _dbg_u16_dec->_EUSART_Write_Integer
    _EUSART_Write_Integer->_itoa
    _file_append->_sector_open
    _sector_open->_dbg_hex32
    _sector_close->_SDcard_write_block
    _SDcard_init->_sd_send_acmd41
    _sd_send_acmd41->_sd_send_cmd

Critical Paths under _main in BANK1

    None.

Critical Paths under _main in BANK2

    None.

Critical Paths under _main in BANK3

    None.

Critical Paths under _main in BANK4

    None.

Critical Paths under _main in BANK5

    None.

Critical Paths under _main in BANK6

    None.

Critical Paths under _main in BANK7

    None.

Critical Paths under _main in BANK8

    None.

Critical Paths under _main in BANK9

    None.

Critical Paths under _main in BANK10

    None.

Critical Paths under _main in BANK11

    None.

Critical Paths under _main in BANK12

    None.

Critical Paths under _main in BANK13

    None.

Critical Paths under _main in BANK14

    None.

Critical Paths under _main in BANK15

    None.

Critical Paths under _main in BANK16

    None.

Critical Paths under _main in BANK17

    None.

Critical Paths under _main in BANK18

    None.

Critical Paths under _main in BANK19

    None.

Critical Paths under _main in BANK20

    None.

Critical Paths under _main in BANK21

    None.

Critical Paths under _main in BANK22

    None.

Critical Paths under _main in BANK23

    None.

Critical Paths under _main in BANK24

    None.

Critical Paths under _main in BANK25

    None.

Call Graph Tables:

 ---------------------------------------------------------------------------------
 (Depth) Function   	        Calls       Base Space   Used Autos Params    Refs
 ---------------------------------------------------------------------------------
 (0) _main                                                 2     2      0   76968
                                             53 BANK0      2     2      0
                  _EUSART_Write_Text
                        _SDcard_init
                        _file_append
                        _file_create
                   _file_update_size
                           _initMain
                         _mount_disk
                       _sector_close
                        _sector_open
 ---------------------------------------------------------------------------------
 (1) _mount_disk                                           8     8      0    9418
                                             18 BANK0      8     8      0
                  _SDcard_read_block
                             ___lmul
                                _dbg
                          _dbg_hex32
                             _dbg_nl
 ---------------------------------------------------------------------------------
 (1) _initMain                                             2     2      0     595
                                             11 COMMON     2     2      0
                  _EUSART_Initialize
                     _SPI_Initialize
                        _internal_32
 ---------------------------------------------------------------------------------
 (2) _internal_32                                          0     0      0       0
 ---------------------------------------------------------------------------------
 (2) _SPI_Initialize                                       0     0      0       0
 ---------------------------------------------------------------------------------
 (2) _EUSART_Initialize                                   18    14      4     595
                                              9 COMMON     2     2      0
                                              6 BANK0     16    12      4
                            ___aldiv
 ---------------------------------------------------------------------------------
 (3) ___aldiv                                             15     7      8     452
                                              0 COMMON     9     1      8
                                              0 BANK0      6     6      0
 ---------------------------------------------------------------------------------
 (1) _file_update_size                                    11    11      0   12907
                                             12 COMMON     2     2      0
                                             18 BANK0      9     9      0
                  _SDcard_read_block
                 _SDcard_write_block
                                _dbg
                          _dbg_hex32
                             _dbg_nl
 ---------------------------------------------------------------------------------
 (1) _file_create                                         22    20      2   16761
                                             31 BANK0     22    20      2
                  _SDcard_read_block
                 _SDcard_write_block
                             ___lmul
                                _dbg
                          _dbg_hex32
                             _dbg_nl
                        _dbg_u16_dec
 ---------------------------------------------------------------------------------
 (2) _dbg_u16_dec                                          2     0      2    2413
                                             29 BANK0      2     0      2
               _EUSART_Write_Integer
 ---------------------------------------------------------------------------------
 (3) _EUSART_Write_Integer                                25    23      2    2315
                                             11 COMMON     3     1      2
                                              7 BANK0     22    22      0
                       _EUSART_Write
                               _itoa
 ---------------------------------------------------------------------------------
 (4) _itoa                                                 9     7      2    2069
                                              9 COMMON     2     0      2
                                              0 BANK0      7     7      0
                            ___awdiv
                            ___awmod
                             ___wmul
 ---------------------------------------------------------------------------------
 (5) ___wmul                                               6     2      4     244
                                              0 COMMON     6     2      4
 ---------------------------------------------------------------------------------
 (5) ___awmod                                              7     3      4     448
                                              0 COMMON     7     3      4
 ---------------------------------------------------------------------------------
 (5) ___awdiv                                              9     5      4     908
                                              0 COMMON     9     5      4
 ---------------------------------------------------------------------------------
 (1) _file_append                                          7     5      2   14108
                                             26 BANK0      7     5      2
                       _sector_close
                        _sector_open
 ---------------------------------------------------------------------------------
 (1) _sector_open                                         10    10      0    9508
                                             12 COMMON     2     2      0
                                             18 BANK0      8     8      0
                  _SDcard_read_block
                             ___lmul
                                _dbg
                          _dbg_hex32
                             _dbg_nl
 ---------------------------------------------------------------------------------
 (2) _dbg_nl                                               0     0      0      22
                       _EUSART_Write
 ---------------------------------------------------------------------------------
 (2) _dbg_hex32                                           22    18      4    2130
                                              8 COMMON     4     0      4
                                              0 BANK0     18    18      0
                             ___bmul
                                _dbg
 ---------------------------------------------------------------------------------
 (3) _dbg                                                  2     0      2    1350
                                              6 COMMON     2     0      2
                  _EUSART_Write_Text
 ---------------------------------------------------------------------------------
 (3) ___bmul                                               4     3      1     168
                                              0 COMMON     4     3      1
 ---------------------------------------------------------------------------------
 (2) ___lmul                                              12     4      8    1004
                                              0 COMMON    12     4      8
 ---------------------------------------------------------------------------------
 (2) _SDcard_read_block                                   12     8      4    4912
                                              8 COMMON     4     0      4
                                              0 BANK0      8     8      0
                        _SD_Deselect
                          _SD_Select
                _SDcard_get_response
                    _dbg@sdcard$F275
                            _sd_recv
                            _sd_send
                            _sd_xfer
 ---------------------------------------------------------------------------------
 (1) _sector_close                                         0     0      0    4403
                 _SDcard_write_block
 ---------------------------------------------------------------------------------
 (2) _SDcard_write_block                                  15    11      4    4403
                                              8 COMMON     4     0      4
                                              0 BANK0     11    11      0
                        _SD_Deselect
                          _SD_Select
                _SDcard_get_response
                    _dbg@sdcard$F275
                            _sd_send
                            _sd_xfer
 ---------------------------------------------------------------------------------
 (3) _SDcard_get_response                                  4     4      0     112
                                              2 COMMON     4     4      0
                            _sd_xfer
 ---------------------------------------------------------------------------------
 (1) _SDcard_init                                         16    16      0    8852
                                              8 BANK0     16    16      0
                        _SD_Deselect
                          _SD_Select
                    _dbg@sdcard$F275
                            _sd_recv
                            _sd_send
                     _sd_send_acmd41
                        _sd_send_cmd
                            _sd_xfer
 ---------------------------------------------------------------------------------
 (2) _sd_send_acmd41                                       5     1      4    2248
                                             12 COMMON     1     1      0
                                              4 BANK0      4     0      4
                        _sd_send_cmd
 ---------------------------------------------------------------------------------
 (2) _sd_send_cmd                                         10     5      5    2006
                                              6 COMMON     6     1      5
                                              0 BANK0      4     4      0
                          _sd_get_r1
                            _sd_send
 ---------------------------------------------------------------------------------
 (3) _sd_send                                              4     0      4     849
                                              2 COMMON     4     0      4
                            _sd_xfer
 ---------------------------------------------------------------------------------
 (3) _sd_get_r1                                            3     3      0     113
                                              2 COMMON     3     3      0
                            _sd_xfer
 ---------------------------------------------------------------------------------
 (3) _sd_recv                                              5     1      4     545
                                              2 COMMON     5     1      4
                            _sd_xfer
 ---------------------------------------------------------------------------------
 (3) _sd_xfer                                              1     1      0      44
                                              1 COMMON     1     1      0
                   _SPI_Exchange8bit
 ---------------------------------------------------------------------------------
 (4) _SPI_Exchange8bit                                     1     1      0      22
                                              0 COMMON     1     1      0
 ---------------------------------------------------------------------------------
 (3) _dbg@sdcard$F275                                      2     0      2    2794
                                              6 COMMON     2     0      2
                  _EUSART_Write_Text
 ---------------------------------------------------------------------------------
 (4) _EUSART_Write_Text                                    5     3      2     416
                                              1 COMMON     5     3      2
                       _EUSART_Write
 ---------------------------------------------------------------------------------
 (3) _EUSART_Write                                         1     1      0      22
                                              0 COMMON     1     1      0
 ---------------------------------------------------------------------------------
 (3) _SD_Select                                            0     0      0       0
 ---------------------------------------------------------------------------------
 (3) _SD_Deselect                                          0     0      0       0
 ---------------------------------------------------------------------------------
 Estimated maximum stack depth 5
 ---------------------------------------------------------------------------------

 Call Graph Graphs:

 _main (ROOT)
   _EUSART_Write_Text
     _EUSART_Write
   _SDcard_init
     _SD_Deselect
     _SD_Select
     _dbg@sdcard$F275
       _EUSART_Write_Text
     _sd_recv
       _sd_xfer
         _SPI_Exchange8bit
     _sd_send
       _sd_xfer
     _sd_send_acmd41
       _sd_send_cmd
         _sd_get_r1
           _sd_xfer
         _sd_send
     _sd_send_cmd
     _sd_xfer
   _file_append
     _sector_close
       _SDcard_write_block
         _SD_Deselect
         _SD_Select
         _SDcard_get_response
           _sd_xfer
         _dbg@sdcard$F275
         _sd_send
         _sd_xfer
     _sector_open
       _SDcard_read_block
         _SD_Deselect
         _SD_Select
         _SDcard_get_response
         _dbg@sdcard$F275
         _sd_recv
         _sd_send
         _sd_xfer
       ___lmul
       _dbg
         _EUSART_Write_Text
       _dbg_hex32
         ___bmul
         _dbg
       _dbg_nl
         _EUSART_Write
   _file_create
     _SDcard_read_block
     _SDcard_write_block
     ___lmul
     _dbg
     _dbg_hex32
     _dbg_nl
     _dbg_u16_dec
       _EUSART_Write_Integer
         _EUSART_Write
         _itoa
           ___awdiv
           ___awmod
           ___wmul
   _file_update_size
     _SDcard_read_block
     _SDcard_write_block
     _dbg
     _dbg_hex32
     _dbg_nl
   _initMain
     _EUSART_Initialize
       ___aldiv
     _SPI_Initialize
     _internal_32
   _mount_disk
     _SDcard_read_block
     ___lmul
     _dbg
     _dbg_hex32
     _dbg_nl
   _sector_close
   _sector_open

 Address spaces:
Name               Size   Autos  Total    Cost      Usage
BIGRAM             7F0      0       0       0        0.0%
NULL                 0      0       0       0        0.0%
CODE                 0      0       0       0        0.0%
BITCOMMON            E      0       0       1        0.0%
BITSFR0              0      0       0       1        0.0%
SFR0                 0      0       0       1        0.0%
COMMON               E      E       E       2      100.0%
BITSFR1              0      0       0       2        0.0%
SFR1                 0      0       0       2        0.0%
BITSFR2              0      0       0       3        0.0%
SFR2                 0      0       0       3        0.0%
STACK                0      0       0       3        0.0%
BITBANK0            50      0       0       4        0.0%
BITSFR3              0      0       0       4        0.0%
SFR3                 0      0       0       4        0.0%
BANK0               50     37      4F       5       98.8%
BITSFR4              0      0       0       5        0.0%
SFR4                 0      0       0       5        0.0%
BITBANK1            50      0       0       6        0.0%
BITSFR5              0      0       0       6        0.0%
SFR5                 0      0       0       6        0.0%
BANK1               50      0      20       7       40.0%
BITSFR6              0      0       0       7        0.0%
SFR6                 0      0       0       7        0.0%
BITBANK2            50      0       0       8        0.0%
BITSFR7              0      0       0       8        0.0%
SFR7                 0      0       0       8        0.0%
BANK2               50      0       0       9        0.0%
BITSFR8              0      0       0       9        0.0%
SFR8                 0      0       0       9        0.0%
BITBANK3            50      0       0      10        0.0%
BITSFR9              0      0       0      10        0.0%
SFR9                 0      0       0      10        0.0%
BANK3               50      0       0      11        0.0%
BITSFR10             0      0       0      11        0.0%
SFR10                0      0       0      11        0.0%
BITBANK4            50      0       0      12        0.0%
BITSFR11             0      0       0      12        0.0%
SFR11                0      0       0      12        0.0%
BANK4               50      0       0      13        0.0%
BITSFR12             0      0       0      13        0.0%
SFR12                0      0       0      13        0.0%
BITSFR13             0      0       0      14        0.0%
SFR13                0      0       0      14        0.0%
ABS                  0      0      7D      14        0.0%
BITBANK5            50      0       0      15        0.0%
BITSFR14             0      0       0      15        0.0%
SFR14                0      0       0      15        0.0%
BANK5               50      0       0      16        0.0%
BITSFR15             0      0       0      16        0.0%
SFR15                0      0       0      16        0.0%
BITBANK6            50      0       0      17        0.0%
BITSFR16             0      0       0      17        0.0%
SFR16                0      0       0      17        0.0%
BANK6               50      0       0      18        0.0%
BITSFR17             0      0       0      18        0.0%
SFR17                0      0       0      18        0.0%
BITBANK7            50      0       0      19        0.0%
BITSFR18             0      0       0      19        0.0%
SFR18                0      0       0      19        0.0%
BANK7               50      0       0      20        0.0%
BITSFR19             0      0       0      20        0.0%
SFR19                0      0       0      20        0.0%
BITBANK8            50      0       0      21        0.0%
BITSFR20             0      0       0      21        0.0%
SFR20                0      0       0      21        0.0%
BANK8               50      0       0      22        0.0%
BITSFR21             0      0       0      22        0.0%
SFR21                0      0       0      22        0.0%
BITBANK9            50      0       0      23        0.0%
BITSFR22             0      0       0      23        0.0%
SFR22                0      0       0      23        0.0%
BANK9               50      0       0      24        0.0%
BITSFR23             0      0       0      24        0.0%
SFR23                0      0       0      24        0.0%
BITBANK10           50      0       0      25        0.0%
BITSFR24             0      0       0      25        0.0%
SFR24                0      0       0      25        0.0%
BANK10              50      0       0      26        0.0%
BITSFR25             0      0       0      26        0.0%
SFR25                0      0       0      26        0.0%
BITBANK11           50      0       0      27        0.0%
BITSFR26             0      0       0      27        0.0%
SFR26                0      0       0      27        0.0%
BITSFR27             0      0       0      28        0.0%
SFR27                0      0       0      28        0.0%
DATA                 0      0      7D      28        0.0%
BANK11              50      0       0      29        0.0%
BITSFR28             0      0       0      29        0.0%
SFR28                0      0       0      29        0.0%
BITBANK12           50      0       0      30        0.0%
BITSFR29             0      0       0      30        0.0%
SFR29                0      0       0      30        0.0%
BANK12              30      0       0      31        0.0%
BITSFR30             0      0       0      31        0.0%
SFR30                0      0       0      31        0.0%
BITBANK13           50      0       0      32        0.0%
BITSFR31             0      0       0      32        0.0%
SFR31                0      0       0      32        0.0%
BANK13               0      0       0      33        0.0%
BITBANK14           50      0       0      34        0.0%
BANK14               0      0       0      35        0.0%
BITBANK15           50      0       0      36        0.0%
BANK15               0      0       0      37        0.0%
BITBANK16           50      0       0      38        0.0%
BANK16               0      0       0      39        0.0%
BITBANK17           50      0       0      40        0.0%
BANK17               0      0       0      41        0.0%
BITBANK18           50      0       0      42        0.0%
BANK18               0      0       0      43        0.0%
BITBANK19           50      0       0      44        0.0%
BANK19               0      0       0      45        0.0%
BITBANK20           50      0       0      46        0.0%
BANK20               0      0       0      47        0.0%
BITBANK21           50      0       0      48        0.0%
BANK21               0      0       0      49        0.0%
BITBANK22           50      0       0      50        0.0%
BANK22               0      0       0      51        0.0%
BITBANK23           50      0       0      52        0.0%
BANK23               0      0       0      53        0.0%
BITBANK24           50      0       0      54        0.0%
BANK24               0      0       0      55        0.0%
BITBANK25           20      0       0      56        0.0%
BANK25               0      0       0      57        0.0%


Microchip Technology PIC Macro Assembler V2.46 build 20240104201356 
Symbol Table                                                                                   Fri Dec 26 16:15:35 2025

                   _SPI_Initialize 0872                     ___bmul@product 0072  
                               l41 089C                                 l25 0B12  
                               l50 0914                                 l44 08A4  
                               l60 0E1B                                 l54 0DC1  
                               l66 09B2                       ___awdiv@sign 0076  
              ___wmul@multiplicand 0072                                l120 086B  
                              l130 0891                                l117 0888  
                              l133 0484                                l302 0ED9  
                              l231 0866                                l127 0AC2  
                              l240 0871                                l161 0CF2  
                              l153 06A0                                l234 0863  
                              l331 0878                                l252 0931  
                              l316 0FF1                                l308 0FFF  
                              l164 08C8                                l172 0A76  
                              l156 07DB                                l412 0C0B  
                              l237 0880                                l334 08AA  
                              l246 08F7                                l502 09E5  
                              l272 002F                                l337 08AF  
                              l265 098E                                l257 094F  
                              l177 00FD                                l417 0A2B  
                              l514 08DD                                l194 089A  
                              l418 0A2B                                l268 0B64  
                              l278 028C                                l641 0C6A  
                              l553 0D06                                l490 096E  
                              l563 0D82                                l654 0BB7  
                              l488 095A                                _dbg 0881  
                     _root_entries 00B8                       ___awmod@sign 0076  
                              wreg 0009             __end_of_sd_send_acmd41 0030  
                             l2000 0C30                               l2010 0C50  
                             l2002 0C35                               ?_dbg 0076  
                             l2100 0921                               l2020 0C66  
                             l2012 0C51                               l2004 0C39  
                             l2102 0925                               l2110 0942  
                             l2014 0C56                               l2006 0C3D  
                             l2030 0B6F                               l2120 096F  
                             l2104 0933                               l2200 0E7D  
                             l2008 0C4C                               l2016 0C5C  
                             l2040 0B83                               l2032 0B71  
                             l2024 0B65                               l2130 098D  
                             l2122 0976                               l2114 0944  
                             l2106 0937                               l2202 0E88  
                             l2018 0C61                               l2050 0B9E  
                             l2042 0B88                               l2034 0B75  
                             l2026 0B66                               l2124 097B  
                             l2116 094E                               l2108 093C  
                             l2300 0FEA                               l2220 0EBA  
                             l2204 0E91                               l2212 0EA0  
                             l2140 08D3                               l2052 0BA3  
                             l2044 0B8C                               l2036 0B7A  
                             l2028 0B6A                               l2310 0B2C  
                             l2302 0FF8                               l2230 0ED2  
                             l2214 0EA7                               l2206 0E98  
                             l2142 08D5                               l2134 08CA  
                             l2046 0B90                               l2038 0B80  
                             l2054 0BA9                               l2070 0DA0  
                             l2062 0D85                               l2150 0992  
                             l2128 0981                               l2320 0B61  
                             l2312 0B3F                               l2304 0FFB  
                             l2240 0EED                               l2232 0ED5  
                             l2216 0EB0                               l2224 0EBF  
                             l2208 0E9B                               l2144 08DC  
                             l2136 08CB                               l2080 0881  
                             l2160 0867                               l2400 0CA5  
                             l2056 0BAE                               l2048 0B9A  
                             l2072 0DD3                               l2064 0D8D  
                             l2152 099A                               l2082 0864  
                             l2090 08DF                               l2314 0B52  
                             l2306 0B14                               l2250 0F22  
                             l2242 0EF2                               l2234 0EDA  
                             l2226 0ECA                               l2218 0EB7  
                             l2330 09C7                               l2138 08CF  
                             l2170 0A7E                               l2162 0A77  
                             l2402 0CB0                               l2058 0BB3  
                             l2074 0E03                               l2066 0D96  
                             l2154 099E                               l1442 0872  
                             l1426 0892                               l2084 0861  
                             l2092 08E7                               l2316 0B54  
                             l2308 0B19                               l2260 0F59  
                             l2252 0F3B                               l2244 0EF9  
                             l2236 0EE1                               l2420 08BC  
                             l2228 0ECE                               l2332 09CE  
                             l2324 09B3                               l2180 0ABB  
                             l2172 0A9A                               l2164 0A7C  
                             l2404 0CB7                               l2076 0E0D  
                             l2068 0D9B                               l2156 09A5  
                             l2148 098F                               l2340 0CF5  
                             l1444 0877                               l2086 0879  
                             l2094 08EB                               l2318 0B56  
                             l2430 001E                               l2422 0007  
                             l2270 0F74                               l2254 0F46  
                             l2246 0EFC                               l2238 0EE4  
                             l2190 0E34                               l2182 0E1C  
                             l2334 09DD                               l2326 09BB  
                             l2174 0AA8                               l2414 0CC8  
                             l2406 0CC3                               l2078 0E14  
                             l2158 09AA                               l2510 04D2  
                             l2502 04AF                               l2350 0D21  
                             l2342 0CF9                               l2096 0915  
                             l2088 08DE                               l2424 0016  
                             l2280 0F96                               l2272 0F7F  
                             l2256 0F4F                               l2264 0F5E  
                             l2248 0F0F                               l2192 0E3B  
                             l2184 0E23                               l2328 09BF  
                             l2176 0AAC                               l2416 0CE5  
                             l2408 0CC6                               l2520 04E4  
                             l2504 04BE                               l2512 04DA  
                             l2360 0D42                               l2352 0D29  
                             l2344 0D0A                               l2440 02B1  
                             l2098 0916                               l2426 001C  
                             l2290 0FC6                               l2282 0F9D  
                             l2274 0F83                               l2266 0F65  
                             l2258 0F56                               l2194 0E3E  
                             l2186 0E26                               l2178 0AB9  
                             l2418 0CE9                               l2610 0A2F  
                             l2602 06A7                               l2530 0520  
                             l2522 0500                               l2514 04E1  
                             l2362 0D54                               l2354 0D2C  
                             l2370 0D6A                               l2346 0D15  
                             l2338 0CF3                               l2450 0323  
                             l2442 02D1                               l2700 0179  
                             l2292 0FCC                               l2284 0FA7  
                             l2276 0F87                               l2268 0F69  
                             l2196 0E51                               l2188 0E2F  
                             l2612 0A38                               l2620 0A5F  
                             l2604 06B0                               l2540 05B1  
                             l2532 0540                               l2524 0504  
                             l2508 04CE                               l2372 0D6F  
                             l2364 0D5C                               l2356 0D37  
                             l2348 0D19                               l2380 0B09  
                             l2460 0361                               l2452 0330  
                             l2444 02F1                               l2436 028D  
                             l2710 01A3                               l2702 017E  
                             l2286 0FAE                               l2278 0F8D  
                             l2198 0E64                               l2622 0A62  
                             l2614 0A4E                               l2606 07D0  
                             l2550 05CC                               l2542 05B3  
                             l2534 054C                               l2526 050D  
                             l2630 0030                               l2374 0D7A  
                             l2366 0D5D                               l2358 0D3B  
                             l2390 0B10                               l2382 0B0C  
                             l2470 03A6                               l2462 0368  
                             l2454 033F                               l2446 0311  
                             l2438 0298                               l2720 01C6  
                             l2712 01B0                               l2704 0189  
                             l2296 0FD6                               l2288 0FB8  
                             l2624 0A65                               l2616 0A52  
                             l2608 0A2E                               l2560 05F1  
                             l2552 05D8                               l2544 05BA  
                             l2536 055B                               l2528 0511  
                             l2640 005B                               l2632 003C  
                             l2368 0D64                               l2392 0B11  
                             l2384 0B0D                               l2800 0BCF  
                             l2480 046E                               l2472 03D8  
                             l2464 0377                               l2456 0346  
                             l2448 0318                               l2730 01E3  
                             l2722 01CD                               l2706 0190  
                             l2298 0FE3                               l2626 0A69  
                             l2618 0A56                               l2570 0628  
                             l2554 05DB                               l2546 05C2  
                             l2538 057D                               l2490 0498  
                             l2650 007E                               l2642 005F  
                             l2386 0B0E                               l2378 0AC3  
                             l2810 0BD5                               l2802 0BD0  
                             l2482 0475                               l2474 040B  
                             l2466 038A                               l2458 0352  
                             l2732 01F3                               l2724 01D0  
                             l2716 01B6                               l2708 019E  
                             l2660 00FE                               l2628 0A6C  
                             l2396 0889                               l2572 0636  
                             l2564 05FB                               l2556 05E7  
                             l2548 05C5                               l2652 008F  
                             l2644 0068                               l2388 0B0F  
                             l2820 0BDE                               l2812 0BD6  
                             l2804 0BD1                               l2484 0481  
                             l2476 0437                               l2468 0397  
                             l1942 089C                               l1950 08AE  
                             l2750 0221                               l2734 01F8  
                             l2742 0207                               l2718 01C0  
                             l2662 0105                               l2398 0C6B  
                             l2590 0671                               l2582 0646  
                             l2574 0640                               l2566 060B  
                             l2558 05EE                               l2486 0485  
                             l2654 00B0                               l2646 006F  
                             l2638 003E                               l2830 0BF2  
                             l2822 0BDF                               l2814 0BD7  
                             l2806 0BD2                               l2478 0467  
                             l1944 08A1                               l1960 0909  
                             l2760 023E                               l2752 0222  
                             l2744 0212                               l2736 01FF  
                             l2728 01D5                               l2680 0124  
                             l2664 0107                               l2592 067B  
                             l2584 0662                               l2576 0643  
                             l2568 061B                               l2496 049B  
                             l2488 0491                               l2656 00D1  
                             l2648 007B                               l2840 0BFF  
                             l2832 0BF6                               l2824 0BE4  
                             l2816 0BD9                               l2808 0BD4  
                             l1954 08F8                               l1946 08A6  
                             l1962 086D                               l2770 0261  
                             l2762 024B                               l2746 0217  
                             l2738 0202                               l2754 022A  
                             l2690 0153                               l2682 012F  
                             l2674 010E                               l2666 0109  
                             l1970 0956                               l2594 0693  
                             l2586 0666                               l2498 049F  
                             l2658 00F2                               l2834 0BF9  
                             l2826 0BE9                               l2818 0BDC  
                             l1956 08FB                               l1948 08A8  
                             l2772 0268                               l2780 027E  
                             l2748 0219                               l2756 0232  
                             l2692 0156                               l2684 0132  
                             l2676 011A                               l2668 010C  
                             l1980 0C0C                               l1972 095F  
                             l2596 0697                               l2588 066F  
                             l2836 0BFB                               l2828 0BED  
                             l1958 0905                               l2782 0281  
                             l2774 0278                               l2766 0251  
                             l2758 0239                               l2686 0139  
                             l2678 011E                               l1990 0C1C  
                             l1982 0C0D                               l1974 0964  
                             l1966 0950                               l2598 069C  
                             l2838 0BFC                               l2790 0BC7  
                             l2870 09E6                               l2784 0285  
                             l2768 025B                               l2688 014C  
                             l2696 015B                               l1992 0C21  
                             l1984 0C11                               l1976 096A  
                             l1968 0952                               l2792 0BC9  
                             l2880 0A03                               l2872 09E9  
       EUSART_Write_Integer@buffer 0027                               l2778 027D  
                             l2698 0169                               l1994 0C25  
                             l1986 0C16                               l2794 0BCA  
                             l2786 0BB8                               l2890 0A21  
                             l2882 0A0B                               l2874 09F6  
                             l1996 0C27                               l1988 0C18  
                             l2796 0BCC                               l2788 0BBB  
                             l2892 0A24                               l2884 0A0E  
                             l2876 09FD                               l1998 0C2D  
                             l2798 0BCD                               l2886 0A16  
                             l2878 0A00                               l2888 0A1E  
                             STR_1 1304                               STR_2 1363  
                             STR_3 109B                               STR_4 135C  
                             STR_5 12B4                               STR_6 126E  
                             STR_7 1011                               STR_8 135C  
                             STR_9 1313                               _BRGH 0CF2  
                             _CREN 0CEC                               u2000 0D54  
                             u2001 0D53                               u1300 0914  
                             u2020 0D6A                               u2100 0300  
                             u1301 0913                               u2021 0D69  
                             u2005 0D50                               u1310 0956  
                             u2030 0D6F                               u1311 0955  
                             u2031 0D6E                               u2015 0D5E  
                             u2200 060B                               u2040 0AD1  
                             u2120 044E                               u2201 060A  
                             u2105 02FC                               u1410 0C4C  
                             u2210 061A                               u2130 04AE  
                             u2050 0AE8                               u1411 0C4B  
                             u2211 0619                               u2131 04AD  
                             u2115 0312                               u2060 0CF2  
                             u1500 0B9A                               u1340 096A  
                             u2220 0628                               u2140 04BE  
                             u2300 009C                               u2061 0CF1  
                             u1405 0C3E                               u1501 0B99  
                             u1341 0969                               u1325 095B  
                             u2221 0627                               u2141 04BD  
                             u2045 0ACD                               u2125 044A  
                             u2070 001C                               u1430 0C5C  
                             u1350 0C11                               u2230 066F  
                             u2150 04CD                               u2310 00BD  
                             u2071 001B                               u1431 0C5B  
                             u1415 0C48                               u1351 0C10  
                             u1335 0960                               u2231 066E  
                             u2151 04CC                               u2055 0AE4  
                             u1280 08A1                               u2400 01F8  
                             u1600 094E                               u1440 0C61  
                             u1360 0C1C                               u1520 0BA9  
                             u2240 067B                               u2160 04DA  
                             u2320 00DE                               u2080 02C0  
                             u1281 08A0                               u2401 01F7  
                             u1601 094D                               u1441 0C60  
                             u1425 0C52                               u1361 0C1B  
                             u1521 0BA8                               u1505 0B96  
                             u2241 067A                               u2161 04D9  
                             u2305 0098                               u1290 08AE  
                             u1610 0980                               u2410 0217  
                             u2330 0124                               u1370 0C2D  
                             u1530 0BAE                               u1450 0B6A  
                             u2250 06A6                               u2170 050D  
                             u2090 02E0                               u1291 08AD  
                             u1611 097F                               u2411 0216  
                             u2331 0123                               u1371 0C2C  
                             u1531 0BAD                               u1515 0B9F  
                             u1451 0B69                               u2251 06A5  
                             u2171 050C                               u2315 00B9  
                             u1620 098D                               u2420 0250  
                             u2340 014C                               u1700 0E4C  
                             u1460 0B75                               u1540 0D8D  
                             u2260 06B0                               u2180 0520  
                             u1621 098C                               u2421 024F  
                             u2341 014B                               u1461 0B74  
                             u1541 0D8C                               u2261 06AF  
                             u2181 051F                               u2325 00DA  
                             u2085 02BC                               u2430 025B  
                             u2350 017E                               u1710 0E5F  
                             u1630 08CF                               u2270 0A38  
                             u1390 0C3D                               u1470 0B80  
                             u1550 0DD2                               u2190 05FA  
                             u2431 025A                               u2351 017D  
                             u1631 08CE                               u2271 0A37  
                             u1391 0C3C                               u1471 0B7F  
                             u1551 0DD1                               u2191 05F9  
                             u2095 02DC                               u2440 0261  
                             u2360 0190                               u1800 0F4F  
                             u1720 0E72                               u1640 08DC  
                             u2280 0A76                               u1560 0E14  
                             u2441 0260                               u2361 018F  
                             u1801 0F4E                               u1705 0E48  
                             u1641 08DB                               u2281 0A75  
                             u1385 0C31                               u1561 0E13  
                             u1570 08F7                               u2450 027D  
                             u2370 01B5                               u1810 0F96  
                             u1730 0E91                               u1490 0B90  
                             u1650 09B2                               u2290 0068  
                             u1571 08F6                               u2451 027C  
                             u2371 01B4                               u1811 0F95  
                             u1731 0E90                               u1715 0E5B  
                             u1491 0B8F                               u1651 09B1  
                             u2291 0067                               u1580 0931  
                             u2380 01C0                               u1820 0FA7  
                             u1740 0EB0                               u1900 09BF  
                             u1660 0A95                               u1581 0930  
                             u2381 01BF                               u1821 0FA6  
                             u1741 0EAF                               u1725 0E6E  
                             u1901 09BE                               u1485 0B84  
                             u2390 01C6                               u1590 0942  
                             u1830 0FB8                               u1750 0EF2  
                             u1670 0AB9                               u2391 01C5  
                             u1591 0941                               u1831 0FB7  
                             u1751 0EF1                               u1671 0AB8  
                             u2527 09EF                               u1840 0FD5  
                             u1680 0E34                               u1841 0FD4  
                             u1681 0E33                               u1665 0A91  
                             u2537 0BC0                               u1850 0FE3  
                             u1770 0F0A                               u1930 09DD  
                             u1851 0FE2                               u1931 09DC  
                             u1915 09C8                               u1675 0AB5  
                             u1860 0FEA                               u1780 0F1D  
                             u1940 0CF9                               u1861 0FE9  
                             u1765 0EF3                               u1925 09CF  
                             u1941 0CF8                               u1870 0B27  
                             u1790 0F30                               u1950 0D0A  
                             u1775 0F06                               u1695 0E35  
                             u1951 0D09                               u1880 0B3A  
                             u1960 0D29                               u1785 0F19  
                             u1961 0D28                               u1890 0B4D  
                             u1875 0B23                               u1795 0F2C  
                             u1980 0D3B                               u1885 0B36  
                             u1981 0D3A                               u1895 0B49  
                             u1975 0D2D                               u1995 0D3C  
                             _SCS0 04C8                               _SCS1 04C9  
                             _SPEN 0CEF                               _TXEN 0CF5  
                             _SYNC 0CF4                        _SDcard_init 00FE  
                             dbg@s 0076                               _main 09E6  
                             _itoa 0D83                               fsr0h 0005  
                             fsr1h 0007                               indf0 0000  
                             fsr0l 0004                               indf1 0001  
                             fsr1l 0006                               btemp 007E  
                             start 0003                  _SDcard_read_block 0E1C  
           __end_of_SPI_Initialize 0879                  ___bmul@multiplier 0073  
              _SDcard_get_response 0932                 ?_SDcard_read_block 0078  
         SDcard_read_block@address 0078                              ??_dbg 0078  
                 _file_update_size 0030                      _rootdir_start 005B  
                    ?_EUSART_Write 0070                    __end_of___aldiv 0D83  
                            ?_main 0070                ??_SDcard_read_block 0020  
                            ?_itoa 0079                    __end_of___awdiv 0C6B  
                            STR_10 1189                              STR_11 133D  
                            STR_20 135C                              STR_12 10C2  
                            STR_21 11EF                              STR_13 1109  
                            STR_22 132A                              STR_14 132A  
                            STR_30 1322                              STR_31 1349  
                            STR_15 1349                              STR_23 1232  
                            STR_32 12F5                              STR_16 12E5  
                            STR_24 125B                              STR_40 106F  
                            _BRG16 0CFB                              STR_41 1353  
                            STR_33 1292                              STR_17 1281  
                            STR_25 11D7                              STR_42 135C  
                            STR_34 1322                              STR_18 116D  
                            STR_26 1041                              STR_35 1349  
                            STR_19 12D5                              STR_43 11BF  
                            STR_27 114D                              STR_44 1330  
                            STR_36 121C                              STR_28 10E6  
                  __end_of___awmod 0BB8                              STR_29 12A3  
                            STR_37 1206                              STR_45 112C  
                            STR_38 1247                              STR_46 11A5  
                            STR_39 1349                              STR_47 12C5  
                  ___awdiv@divisor 0070                              _IRCF0 04CB  
                            _IRCF1 04CC                              _IRCF2 04CD  
                            _IRCF3 04CE                    ___awdiv@counter 0075  
       __end_of_SDcard_write_block 1000                ___lmul@multiplicand 0074  
                  ?_sd_send_acmd41 0024               ?_SDcard_get_response 0070  
                  __end_of_sd_recv 0932                    __end_of_sd_send 08F8  
                  __end_of_sd_xfer 0872                              itoa@d 0079  
                            status 0003                              wtemp0 007E  
        __end_of_SDcard_read_block 0EDA                       ?_internal_32 0070  
                  ?_SPI_Initialize 0070                    __initialization 07DC  
                     __end_of_main 0A2E                       ?_sd_send_cmd 0076  
                     __end_of_itoa 0E1C                     ??_EUSART_Write 0070  
                           ??_main 0055                             ??_itoa 007B  
            ??_SDcard_get_response 0072           __end_of_SPI_Exchange8bit 08B0  
                 ___awdiv@dividend 0072                             _RC1REG 0199  
                     ?_sector_open 0070                             _SPBRGL 019B  
                           _TX1REG 019A                             _SPLLEN 04CF  
                           _SSPBUF 0211             _current_sector_address 00A8  
                 SDcard_init@t_338 0034                             ___bmul 08C9  
                           ___lmul 09B3                          ??___aldiv 0078  
                           ___wmul 0950                             _dbg_nl 0867  
                        ??___awdiv 0074                          ??___awmod 0074  
                 __end_of_initMain 0C0C                   ___awdiv@quotient 0077  
                  ___awmod@divisor 0070                    ___awmod@counter 0075  
                __end_of_SD_Select 0867                     _cluster_number 0063  
                        ??_sd_recv 0076                          ??_sd_send 0076  
                        ??_sd_xfer 0071                       ?_SD_Deselect 0070  
             __end_ofdbg_hex32@hex 1011            __end_of__initialization 07FD  
                      sd_get_r1@r1 0074                ___bmul@multiplicand 0070  
                   __pcstackCOMMON 0070        SDcard_get_response@response 0074  
                   SDcard_init@ocr 002A           __end_of_file_update_size 00FE  
                       __pbssBANK0 0057                         __pbssBANK1 00A0  
                     ?_SDcard_init 0070               __end_of_EUSART_Write 08A5  
                     SDcard_init@i 0036                       SDcard_init@t 0032  
                ??_dbg@sdcard$F275 0078                         __pmaintext 09E6  
                          ?___bmul 0070                            ?___lmul 0070  
                          ?___wmul 0070                            ?_dbg_nl 0070  
                   ___lmul@product 0078                   ??_sd_send_acmd41 007C  
                    ?_sector_close 0070                   _sectors_reserved 0067  
                    ??_dbg_u16_dec 007E                  __end_of_dbg_hex32 0AC3  
                          _SSP1ADD 0212                         dbg_hex32@i 0030  
                       dbg_hex32@v 0078                            _PPSLOCK 0E0F  
                          _SDRdata 25F0                            _SDWdata 23F0  
            SDcard_write_block@arg 0027                   ??_SPI_Initialize 0070  
                        ?_initMain 0070                 _SDcard_write_block 0EDA  
                     dbg_u16_dec@v 003D                            ___aldiv 0CF3  
              ?_SDcard_write_block 0078                            ___awdiv 0C0C  
                          ___awmod 0B65                         _part1_addr 00B4  
                       _entry_addr 0061                            __ptext1 028D  
                          __ptext2 0BB8                            __ptext3 0892  
                          __ptext4 0872                            __ptext5 0AC3  
                          __ptext6 0CF3                            __ptext7 0030  
                          __ptext8 0485                            __ptext9 0889  
                   ??_sector_close 007C                   ___awmod@dividend 0072  
                          _sd_recv 0915                            _sd_send 08DE  
                 ___aldiv@dividend 0074                            _sd_xfer 086C  
                       _sd_is_sdhc 006B                  __end_of_sd_get_r1 098F  
             ??_SDcard_write_block 0020                  ?_SPI_Exchange8bit 0070  
                          clrloop0 08B1               end_of_initialization 07FD  
               ??_SPI_Exchange8bit 0070               SPI_Exchange8bit@data 0070  
              __end_of_dbg_u16_dec 0892                         ??_initMain 007B  
                          itoa@div 0025                            itoa@buf 0024  
                          itoa@num 0020                   dbg@sdcard$F275@s 0076  
                file_append@string 003A                  _EUSART_Initialize 0AC3  
                file_create@offset 004C                 ?_EUSART_Initialize 0026  
                 ___aldiv@quotient 0022                 EUSART_Initialize@x 0079  
                       _mount_disk 028D                       dbg_hex32@buf 0024  
                     dbg_hex32@hex 1000                       dbg_hex32@nib 002F  
      __end_of_SDcard_get_response 0950                ??_EUSART_Initialize 002A  
                   sd_send_cmd@cmd 007B                     sd_send_cmd@arg 0076  
                   sd_send_cmd@crc 007A                          _SD_Select 0864  
                        _TRISBbits 008D                          _TRISCbits 008E  
                    ??_file_append 003C                      ??_file_create 0041  
                        _RXPPSbits 0E24          __end_of_EUSART_Initialize 0B13  
                        _SDcommand 00BA       __end_of_EUSART_Write_Integer 09B3  
                   __end_of___bmul 08DE                     __end_of___lmul 09E6  
                   __end_of___wmul 096F                     __end_of_dbg_nl 086C  
                     _EUSART_Write 089B                start_initialization 07DC  
                       ?_SD_Select 0070                        _dbg_u16_dec 0889  
             SDcard_read_block@arg 0024  EUSART_Write_Integer@value_to_send 007B  
                      __end_of_dbg 0889                    _dbg@sdcard$F275 0879  
                ?_file_update_size 0070          SDcard_write_block@address 0078  
                _EUSART_Write_Text 08F8               __end_of_sector_close 08C9  
               ??_file_update_size 0032                __end_of_file_append 0A77  
              __end_of_file_create 07DC                 ?_EUSART_Write_Text 0071  
                         ??___bmul 0071                           ??___lmul 0078  
                         ??___wmul 0074                           ??_dbg_nl 0071  
                      ?_mount_disk 0070                ??_EUSART_Write_Text 0073  
                    _datareg_start 00B0                        __pbssBIGRAM 23F0  
                   _current_sector 006C                         sd_get_r1@t 0072  
                        ___latbits 0003                  file_update_size@i 007C  
                    __pcstackBANK0 0020                          _dbg_hex32 0A77  
        __end_of_EUSART_Write_Text 0915                         sd_recv@buf 0072  
                       sd_recv@len 0074                      SDcard_init@r1 0037  
                    SDcard_init@r7 002E                         sd_send@buf 0072  
                       sd_send@len 0074                      ??_internal_32 0070  
                  _sectors_cluster 006E                      ??_sd_send_cmd 0020  
                         ?___aldiv 0070                           ?___awdiv 0070  
                         ?___awmod 0070          EUSART_Initialize@baudrate 0026  
          __end_of_dbg@sdcard$F275 0881                           ?_sd_recv 0072  
                         ?_sd_send 0072                           ?_sd_xfer 0070  
                      ??_SD_Select 0070               _EUSART_Write_Integer 098F  
                    ??_sector_open 0032                          _sd_get_r1 096F  
                      _file_append 0A2E                        _file_create 0485  
                       ?_dbg_hex32 0078                        _file_length 0057  
                  ___aldiv@divisor 0070                    ___aldiv@counter 0020  
                      _FAT_address 00A0                     ___wmul@product 0074  
                         _LATCbits 010E                   file_create@i_183 0053  
                        clear_ram0 08B0                           _PIR1bits 0011  
          EUSART_Write_Integer@ptr 003B                           _SSP1CON1 0215  
              __end_of_internal_32 089B                           _SSP1STAT 0214  
           SDcard_write_block@resp 0026                  ___wmul@multiplier 0070  
              __end_of_sd_send_cmd 0B65                      ??_SD_Deselect 0070  
            ?_EUSART_Write_Integer 007B                   _file_create$1146 0048  
                ___lmul@multiplier 0070                         ?_sd_get_r1 0070  
                     sector_open@i 007C       EUSART_Write_Integer@temp_ptr 003C  
              __end_of_sector_open 0CF3                        _byte_number 005F  
                       _ANSELBbits 018D                         _ANSELCbits 018E  
                     _sector_close 08BC                   ?_dbg@sdcard$F275 0076  
              file_create@filename 003F                       ?_dbg_u16_dec 003D  
                         __ptext10 098F                           __ptext11 0D83  
                         __ptext20 08C9                           __ptext12 0950  
                         __ptext21 09B3                           __ptext13 0B65  
                         __ptext30 096F                           __ptext22 0E1C  
                         __ptext14 0C0C                           __ptext31 0915  
                         __ptext23 08BC                           __ptext15 0A2E  
                         __ptext32 086C                           __ptext24 0EDA  
                         __ptext16 0C6B                           __ptext33 08A5  
                         __ptext25 0932                           __ptext17 0867  
                         __ptext34 0879                           __ptext26 00FE  
                         __ptext18 0A77                           __ptext35 08F8  
                         __ptext27 0007                           __ptext19 0881  
                         __ptext36 089B                           __ptext28 0B13  
                         __ptext37 0864                           __ptext29 08DE  
                         __ptext38 0861               SDcard_get_response@b 0075  
             SDcard_get_response@t 0072                       _SSP1CON1bits 0215  
              SDcard_write_block@t 0024                      ??_SDcard_init 0028  
                      ??_dbg_hex32 0020                __end_of_SD_Deselect 0864  
                         _initMain 0BB8                      _SSPDATPPSbits 0E21  
                      _internal_32 0892                         _RB2PPSbits 0E9A  
                       _FAT_copies 006D                         _RC1STAbits 019D  
                       _RC3PPSbits 0EA3                        _sd_send_cmd 0B13  
                       _RC5PPSbits 0EA5                  sd_send_acmd41@arg 0024  
                     ??_mount_disk 0032                       _SSP1STATbits 0214  
           ??_EUSART_Write_Integer 007D               _start_sector_address 00AC  
                   __pstringtext10 116D                     __pstringtext11 1189  
                   __pstringtext20 125B                     __pstringtext12 11A5  
                   __pstringtext21 126E                     __pstringtext13 11BF  
                   __pstringtext30 1304                     __pstringtext22 1281  
                   __pstringtext14 11D7                     __pstringtext31 1313  
                   __pstringtext23 1292                     __pstringtext15 11EF  
                   __pstringtext32 1322                     __pstringtext24 12A3  
                   __pstringtext16 1206                     __pstringtext33 1330  
                   __pstringtext25 12B4                     __pstringtext17 121C  
                   __pstringtext34 133D                     __pstringtext26 12C5  
                   __pstringtext18 1232                     __pstringtext35 1349  
                   __pstringtext27 12D5                     __pstringtext19 1247  
                   __pstringtext36 1353                     __pstringtext28 12E5  
                   __pstringtext37 135C                     __pstringtext29 12F5  
                   __pstringtext38 1363                     __pstringtext39 0000  
                         itoa@temp 0022                 file_create@idx_176 004F  
                      ??_sd_get_r1 0072                        _sectors_FAT 0065  
                      _sector_open 0C6B                        _sector_size 0069  
                         sd_xfer@b 0071                 __end_of_mount_disk 0485  
                      _PPSLOCKbits 0E0F                __end_of_SDcard_init 028D  
                   file_create@idx 004D                   _SPI_Exchange8bit 08A5  
                 sd_send_acmd41@r1 007C                      __pstringtext1 1000  
                    __pstringtext2 1041                      __pstringtext3 106F  
                    __pstringtext4 109B                      __pstringtext5 10C2  
                    __pstringtext6 10E6                      __pstringtext7 1109  
                    __pstringtext8 112C                      __pstringtext9 114D  
                      _SD_Deselect 0861              EUSART_Write_Text@text 0071  
                     ___aldiv@sign 0021                     _sd_send_acmd41 0007  
                     ?_file_append 003A                       ?_file_create 003F  
               EUSART_Write@txData 0070                       file_create@i 0051  
               EUSART_Write_Text@i 0074  
