

Microchip Technology PIC LITE Macro Assembler V1.41 build -162212810 
                                                                                               Mon Mar 27 21:35:37 2017

Microchip Technology Omniscient Code Generator v1.41 (Free mode) build 201701250102
     1                           	processor	16F1717
     2                           	opt	pw 120
     3                           	opt	lm
     4                           	psect	idataBANK0,global,class=CODE,delta=2
     5                           	psect	stringtext,global,class=STRCODE,delta=2
     6                           	psect	cinit,global,class=CODE,merge=1,delta=2
     7                           	psect	bssBANK0,global,class=BANK0,space=1,delta=1
     8                           	psect	dataBANK0,global,class=BANK0,space=1,delta=1
     9                           	psect	bssBANK1,global,class=BANK1,space=1,delta=1
    10                           	psect	clrtext,global,class=CODE,delta=2
    11                           	psect	cstackCOMMON,global,class=COMMON,space=1,delta=1
    12                           	psect	cstackBANK0,global,class=BANK0,space=1,delta=1
    13                           	psect	maintext,global,class=CODE,merge=1,split=1,delta=2
    14                           	psect	text1,local,class=CODE,merge=1,delta=2
    15                           	psect	text2,local,class=CODE,merge=1,delta=2
    16                           	psect	text3,local,class=CODE,merge=1,delta=2
    17                           	psect	text4,local,class=CODE,merge=1,delta=2,group=1
    18                           	psect	text5,local,class=CODE,merge=1,delta=2
    19                           	psect	text6,local,class=CODE,merge=1,delta=2,group=1
    20                           	psect	text7,local,class=CODE,merge=1,delta=2,group=1
    21                           	psect	text8,local,class=CODE,merge=1,delta=2,group=1
    22                           	psect	text9,local,class=CODE,merge=1,delta=2,group=1
    23                           	psect	text10,local,class=CODE,merge=1,delta=2,group=1
    24                           	psect	text11,local,class=CODE,merge=1,delta=2
    25                           	psect	text12,local,class=CODE,merge=1,delta=2
    26                           	psect	text13,local,class=CODE,merge=1,delta=2
    27                           	psect	text14,local,class=CODE,merge=1,delta=2
    28                           	psect	text15,local,class=CODE,merge=1,delta=2
    29                           	psect	text16,local,class=CODE,merge=1,delta=2
    30                           	psect	text17,local,class=CODE,merge=1,delta=2
    31                           	psect	text18,local,class=CODE,merge=1,delta=2,group=1
    32                           	psect	text19,local,class=CODE,merge=1,delta=2,group=1
    33                           	psect	text20,local,class=CODE,merge=1,delta=2,group=1
    34                           	psect	text21,local,class=CODE,merge=1,delta=2,group=1
    35                           	psect	text22,local,class=CODE,merge=1,delta=2
    36                           	psect	text23,local,class=CODE,merge=1,delta=2
    37                           	psect	text24,local,class=CODE,merge=1,delta=2
    38                           	psect	text25,local,class=CODE,merge=1,delta=2
    39                           	psect	text26,local,class=CODE,merge=1,delta=2
    40                           	psect	text27,local,class=CODE,merge=1,delta=2,group=1
    41                           	psect	text28,local,class=CODE,merge=1,delta=2
    42                           	psect	text29,local,class=CODE,merge=1,delta=2
    43                           	psect	text30,local,class=CODE,merge=1,delta=2
    44                           	dabs	1,0x7E,2
    45  0000                     
    46                           ; Version 1.41
    47                           ; Generated 25/01/2017 GMT
    48                           ; 
    49                           ; Copyright © 2017, Microchip Technology Inc. and its subsidiaries ("Microchip")
    50                           ; All rights reserved.
    51                           ; 
    52                           ; This software is developed by Microchip Technology Inc. and its subsidiaries ("Microch
      +                          ip").
    53                           ; 
    54                           ; Redistribution and use in source and binary forms, with or without modification, are
    55                           ; permitted provided that the following conditions are met:
    56                           ; 
    57                           ;     1. Redistributions of source code must retain the above copyright notice, this lis
      +                          t of
    58                           ;        conditions and the following disclaimer.
    59                           ; 
    60                           ;     2. Redistributions in binary form must reproduce the above copyright notice, this 
      +                          list
    61                           ;        of conditions and the following disclaimer in the documentation and/or other
    62                           ;        materials provided with the distribution.
    63                           ; 
    64                           ;     3. Microchip's name may not be used to endorse or promote products derived from th
      +                          is
    65                           ;        software without specific prior written permission.
    66                           ; 
    67                           ; THIS SOFTWARE IS PROVIDED BY MICROCHIP "AS IS" AND ANY EXPRESS OR IMPLIED WARRANTIES,
    68                           ; INCLUDING, BUT NOT LIMITED TO, THE IMPLIED WARRANTIES OF MERCHANTABILITY AND FITNESS F
      +                          OR
    69                           ; PURPOSE ARE DISCLAIMED.  IN NO EVENT SHALL MICROCHIP BE LIABLE FOR ANY DIRECT, INDIREC
      +                          T,
    70                           ; INCIDENTAL, SPECIAL, EXEMPLARY, OR CONSEQUENTIAL DAMAGES (INCLUDING BUT NOT LIMITED TO
    71                           ; PROCUREMENT OF SUBSTITUTE GOODS OR SERVICES; LOSS OF USE, DATA OR PROFITS; OR BUSINESS
    72                           ; INTERRUPTION) HOWSOEVER CAUSED AND ON ANY THEORY OF LIABILITY, WHETHER IN CONTRACT, ST
      +                          RICT
    73                           ; LIABILITY, OR TORT (INCLUDING NEGLIGENCE OR OTHERWISE) ARISING IN ANY WAY OUT OF THE U
      +                          SE OF
    74                           ; THIS SOFTWARE, EVEN IF ADVISED OF THE POSSIBILITY OF SUCH DAMAGE.
    75                           ; 
    76                           ; 
    77                           ; Code-generator required, PIC16F1717 Definitions
    78                           ; 
    79                           ; SFR Addresses
    80  0000                     	;# 
    81  0001                     	;# 
    82  0002                     	;# 
    83  0003                     	;# 
    84  0004                     	;# 
    85  0005                     	;# 
    86  0006                     	;# 
    87  0007                     	;# 
    88  0008                     	;# 
    89  0009                     	;# 
    90  000A                     	;# 
    91  000B                     	;# 
    92  000C                     	;# 
    93  000D                     	;# 
    94  000E                     	;# 
    95  000F                     	;# 
    96  0010                     	;# 
    97  0011                     	;# 
    98  0012                     	;# 
    99  0013                     	;# 
   100  0015                     	;# 
   101  0016                     	;# 
   102  0016                     	;# 
   103  0017                     	;# 
   104  0018                     	;# 
   105  0019                     	;# 
   106  001A                     	;# 
   107  001B                     	;# 
   108  001C                     	;# 
   109  008C                     	;# 
   110  008D                     	;# 
   111  008E                     	;# 
   112  008F                     	;# 
   113  0090                     	;# 
   114  0091                     	;# 
   115  0092                     	;# 
   116  0093                     	;# 
   117  0095                     	;# 
   118  0096                     	;# 
   119  0097                     	;# 
   120  0098                     	;# 
   121  0099                     	;# 
   122  009A                     	;# 
   123  009B                     	;# 
   124  009B                     	;# 
   125  009C                     	;# 
   126  009D                     	;# 
   127  009E                     	;# 
   128  009F                     	;# 
   129  010C                     	;# 
   130  010D                     	;# 
   131  010E                     	;# 
   132  010F                     	;# 
   133  0110                     	;# 
   134  0111                     	;# 
   135  0112                     	;# 
   136  0113                     	;# 
   137  0114                     	;# 
   138  0115                     	;# 
   139  0116                     	;# 
   140  0117                     	;# 
   141  0118                     	;# 
   142  0119                     	;# 
   143  011A                     	;# 
   144  011B                     	;# 
   145  011B                     	;# 
   146  011C                     	;# 
   147  018C                     	;# 
   148  018D                     	;# 
   149  018E                     	;# 
   150  018F                     	;# 
   151  0190                     	;# 
   152  0191                     	;# 
   153  0191                     	;# 
   154  0192                     	;# 
   155  0193                     	;# 
   156  0193                     	;# 
   157  0194                     	;# 
   158  0195                     	;# 
   159  0196                     	;# 
   160  0197                     	;# 
   161  0199                     	;# 
   162  0199                     	;# 
   163  0199                     	;# 
   164  019A                     	;# 
   165  019A                     	;# 
   166  019A                     	;# 
   167  019B                     	;# 
   168  019B                     	;# 
   169  019B                     	;# 
   170  019B                     	;# 
   171  019B                     	;# 
   172  019C                     	;# 
   173  019C                     	;# 
   174  019C                     	;# 
   175  019D                     	;# 
   176  019D                     	;# 
   177  019D                     	;# 
   178  019E                     	;# 
   179  019E                     	;# 
   180  019E                     	;# 
   181  019F                     	;# 
   182  019F                     	;# 
   183  019F                     	;# 
   184  019F                     	;# 
   185  019F                     	;# 
   186  020C                     	;# 
   187  020D                     	;# 
   188  020E                     	;# 
   189  020F                     	;# 
   190  0210                     	;# 
   191  0211                     	;# 
   192  0211                     	;# 
   193  0212                     	;# 
   194  0212                     	;# 
   195  0213                     	;# 
   196  0213                     	;# 
   197  0214                     	;# 
   198  0214                     	;# 
   199  0215                     	;# 
   200  0215                     	;# 
   201  0215                     	;# 
   202  0215                     	;# 
   203  0216                     	;# 
   204  0216                     	;# 
   205  0217                     	;# 
   206  0217                     	;# 
   207  028C                     	;# 
   208  028D                     	;# 
   209  028E                     	;# 
   210  028F                     	;# 
   211  0290                     	;# 
   212  0291                     	;# 
   213  0291                     	;# 
   214  0292                     	;# 
   215  0293                     	;# 
   216  0293                     	;# 
   217  0298                     	;# 
   218  0298                     	;# 
   219  0299                     	;# 
   220  029A                     	;# 
   221  029A                     	;# 
   222  029E                     	;# 
   223  030C                     	;# 
   224  030D                     	;# 
   225  030E                     	;# 
   226  030F                     	;# 
   227  0310                     	;# 
   228  038C                     	;# 
   229  038D                     	;# 
   230  038E                     	;# 
   231  038F                     	;# 
   232  0390                     	;# 
   233  0391                     	;# 
   234  0392                     	;# 
   235  0393                     	;# 
   236  0394                     	;# 
   237  0395                     	;# 
   238  0396                     	;# 
   239  0397                     	;# 
   240  0398                     	;# 
   241  0399                     	;# 
   242  039D                     	;# 
   243  039E                     	;# 
   244  039F                     	;# 
   245  0415                     	;# 
   246  0416                     	;# 
   247  0417                     	;# 
   248  041C                     	;# 
   249  041D                     	;# 
   250  041E                     	;# 
   251  0498                     	;# 
   252  0498                     	;# 
   253  0499                     	;# 
   254  049A                     	;# 
   255  049B                     	;# 
   256  049B                     	;# 
   257  049C                     	;# 
   258  049D                     	;# 
   259  049E                     	;# 
   260  049F                     	;# 
   261  0511                     	;# 
   262  0515                     	;# 
   263  0617                     	;# 
   264  0618                     	;# 
   265  0619                     	;# 
   266  0619                     	;# 
   267  061A                     	;# 
   268  061B                     	;# 
   269  061C                     	;# 
   270  061C                     	;# 
   271  0691                     	;# 
   272  0692                     	;# 
   273  0693                     	;# 
   274  0694                     	;# 
   275  0695                     	;# 
   276  0696                     	;# 
   277  0697                     	;# 
   278  0698                     	;# 
   279  0699                     	;# 
   280  069A                     	;# 
   281  069B                     	;# 
   282  069C                     	;# 
   283  069D                     	;# 
   284  069E                     	;# 
   285  069F                     	;# 
   286  0E0F                     	;# 
   287  0E10                     	;# 
   288  0E11                     	;# 
   289  0E12                     	;# 
   290  0E13                     	;# 
   291  0E14                     	;# 
   292  0E15                     	;# 
   293  0E17                     	;# 
   294  0E20                     	;# 
   295  0E21                     	;# 
   296  0E22                     	;# 
   297  0E24                     	;# 
   298  0E25                     	;# 
   299  0E28                     	;# 
   300  0E29                     	;# 
   301  0E2A                     	;# 
   302  0E2B                     	;# 
   303  0E90                     	;# 
   304  0E91                     	;# 
   305  0E92                     	;# 
   306  0E93                     	;# 
   307  0E94                     	;# 
   308  0E95                     	;# 
   309  0E96                     	;# 
   310  0E97                     	;# 
   311  0E98                     	;# 
   312  0E99                     	;# 
   313  0E9A                     	;# 
   314  0E9B                     	;# 
   315  0E9C                     	;# 
   316  0E9D                     	;# 
   317  0E9E                     	;# 
   318  0E9F                     	;# 
   319  0EA0                     	;# 
   320  0EA1                     	;# 
   321  0EA2                     	;# 
   322  0EA3                     	;# 
   323  0EA4                     	;# 
   324  0EA5                     	;# 
   325  0EA6                     	;# 
   326  0EA7                     	;# 
   327  0EA8                     	;# 
   328  0EA9                     	;# 
   329  0EAA                     	;# 
   330  0EAB                     	;# 
   331  0EAC                     	;# 
   332  0EAD                     	;# 
   333  0EAE                     	;# 
   334  0EAF                     	;# 
   335  0EB0                     	;# 
   336  0EB1                     	;# 
   337  0EB2                     	;# 
   338  0F0F                     	;# 
   339  0F10                     	;# 
   340  0F11                     	;# 
   341  0F12                     	;# 
   342  0F13                     	;# 
   343  0F14                     	;# 
   344  0F15                     	;# 
   345  0F16                     	;# 
   346  0F17                     	;# 
   347  0F18                     	;# 
   348  0F19                     	;# 
   349  0F1A                     	;# 
   350  0F1B                     	;# 
   351  0F1C                     	;# 
   352  0F1D                     	;# 
   353  0F1E                     	;# 
   354  0F1F                     	;# 
   355  0F20                     	;# 
   356  0F21                     	;# 
   357  0F22                     	;# 
   358  0F23                     	;# 
   359  0F24                     	;# 
   360  0F25                     	;# 
   361  0F26                     	;# 
   362  0F27                     	;# 
   363  0F28                     	;# 
   364  0F29                     	;# 
   365  0F2A                     	;# 
   366  0F2B                     	;# 
   367  0F2C                     	;# 
   368  0F2D                     	;# 
   369  0F2E                     	;# 
   370  0F2F                     	;# 
   371  0F30                     	;# 
   372  0F31                     	;# 
   373  0F32                     	;# 
   374  0F33                     	;# 
   375  0F34                     	;# 
   376  0F35                     	;# 
   377  0F36                     	;# 
   378  0F37                     	;# 
   379  0FE4                     	;# 
   380  0FE5                     	;# 
   381  0FE6                     	;# 
   382  0FE7                     	;# 
   383  0FE8                     	;# 
   384  0FE9                     	;# 
   385  0FEA                     	;# 
   386  0FEB                     	;# 
   387  0FED                     	;# 
   388  0FEE                     	;# 
   389  0FEF                     	;# 
   390  0000                     	;# 
   391  0001                     	;# 
   392  0002                     	;# 
   393  0003                     	;# 
   394  0004                     	;# 
   395  0005                     	;# 
   396  0006                     	;# 
   397  0007                     	;# 
   398  0008                     	;# 
   399  0009                     	;# 
   400  000A                     	;# 
   401  000B                     	;# 
   402  000C                     	;# 
   403  000D                     	;# 
   404  000E                     	;# 
   405  000F                     	;# 
   406  0010                     	;# 
   407  0011                     	;# 
   408  0012                     	;# 
   409  0013                     	;# 
   410  0015                     	;# 
   411  0016                     	;# 
   412  0016                     	;# 
   413  0017                     	;# 
   414  0018                     	;# 
   415  0019                     	;# 
   416  001A                     	;# 
   417  001B                     	;# 
   418  001C                     	;# 
   419  008C                     	;# 
   420  008D                     	;# 
   421  008E                     	;# 
   422  008F                     	;# 
   423  0090                     	;# 
   424  0091                     	;# 
   425  0092                     	;# 
   426  0093                     	;# 
   427  0095                     	;# 
   428  0096                     	;# 
   429  0097                     	;# 
   430  0098                     	;# 
   431  0099                     	;# 
   432  009A                     	;# 
   433  009B                     	;# 
   434  009B                     	;# 
   435  009C                     	;# 
   436  009D                     	;# 
   437  009E                     	;# 
   438  009F                     	;# 
   439  010C                     	;# 
   440  010D                     	;# 
   441  010E                     	;# 
   442  010F                     	;# 
   443  0110                     	;# 
   444  0111                     	;# 
   445  0112                     	;# 
   446  0113                     	;# 
   447  0114                     	;# 
   448  0115                     	;# 
   449  0116                     	;# 
   450  0117                     	;# 
   451  0118                     	;# 
   452  0119                     	;# 
   453  011A                     	;# 
   454  011B                     	;# 
   455  011B                     	;# 
   456  011C                     	;# 
   457  018C                     	;# 
   458  018D                     	;# 
   459  018E                     	;# 
   460  018F                     	;# 
   461  0190                     	;# 
   462  0191                     	;# 
   463  0191                     	;# 
   464  0192                     	;# 
   465  0193                     	;# 
   466  0193                     	;# 
   467  0194                     	;# 
   468  0195                     	;# 
   469  0196                     	;# 
   470  0197                     	;# 
   471  0199                     	;# 
   472  0199                     	;# 
   473  0199                     	;# 
   474  019A                     	;# 
   475  019A                     	;# 
   476  019A                     	;# 
   477  019B                     	;# 
   478  019B                     	;# 
   479  019B                     	;# 
   480  019B                     	;# 
   481  019B                     	;# 
   482  019C                     	;# 
   483  019C                     	;# 
   484  019C                     	;# 
   485  019D                     	;# 
   486  019D                     	;# 
   487  019D                     	;# 
   488  019E                     	;# 
   489  019E                     	;# 
   490  019E                     	;# 
   491  019F                     	;# 
   492  019F                     	;# 
   493  019F                     	;# 
   494  019F                     	;# 
   495  019F                     	;# 
   496  020C                     	;# 
   497  020D                     	;# 
   498  020E                     	;# 
   499  020F                     	;# 
   500  0210                     	;# 
   501  0211                     	;# 
   502  0211                     	;# 
   503  0212                     	;# 
   504  0212                     	;# 
   505  0213                     	;# 
   506  0213                     	;# 
   507  0214                     	;# 
   508  0214                     	;# 
   509  0215                     	;# 
   510  0215                     	;# 
   511  0215                     	;# 
   512  0215                     	;# 
   513  0216                     	;# 
   514  0216                     	;# 
   515  0217                     	;# 
   516  0217                     	;# 
   517  028C                     	;# 
   518  028D                     	;# 
   519  028E                     	;# 
   520  028F                     	;# 
   521  0290                     	;# 
   522  0291                     	;# 
   523  0291                     	;# 
   524  0292                     	;# 
   525  0293                     	;# 
   526  0293                     	;# 
   527  0298                     	;# 
   528  0298                     	;# 
   529  0299                     	;# 
   530  029A                     	;# 
   531  029A                     	;# 
   532  029E                     	;# 
   533  030C                     	;# 
   534  030D                     	;# 
   535  030E                     	;# 
   536  030F                     	;# 
   537  0310                     	;# 
   538  038C                     	;# 
   539  038D                     	;# 
   540  038E                     	;# 
   541  038F                     	;# 
   542  0390                     	;# 
   543  0391                     	;# 
   544  0392                     	;# 
   545  0393                     	;# 
   546  0394                     	;# 
   547  0395                     	;# 
   548  0396                     	;# 
   549  0397                     	;# 
   550  0398                     	;# 
   551  0399                     	;# 
   552  039D                     	;# 
   553  039E                     	;# 
   554  039F                     	;# 
   555  0415                     	;# 
   556  0416                     	;# 
   557  0417                     	;# 
   558  041C                     	;# 
   559  041D                     	;# 
   560  041E                     	;# 
   561  0498                     	;# 
   562  0498                     	;# 
   563  0499                     	;# 
   564  049A                     	;# 
   565  049B                     	;# 
   566  049B                     	;# 
   567  049C                     	;# 
   568  049D                     	;# 
   569  049E                     	;# 
   570  049F                     	;# 
   571  0511                     	;# 
   572  0515                     	;# 
   573  0617                     	;# 
   574  0618                     	;# 
   575  0619                     	;# 
   576  0619                     	;# 
   577  061A                     	;# 
   578  061B                     	;# 
   579  061C                     	;# 
   580  061C                     	;# 
   581  0691                     	;# 
   582  0692                     	;# 
   583  0693                     	;# 
   584  0694                     	;# 
   585  0695                     	;# 
   586  0696                     	;# 
   587  0697                     	;# 
   588  0698                     	;# 
   589  0699                     	;# 
   590  069A                     	;# 
   591  069B                     	;# 
   592  069C                     	;# 
   593  069D                     	;# 
   594  069E                     	;# 
   595  069F                     	;# 
   596  0E0F                     	;# 
   597  0E10                     	;# 
   598  0E11                     	;# 
   599  0E12                     	;# 
   600  0E13                     	;# 
   601  0E14                     	;# 
   602  0E15                     	;# 
   603  0E17                     	;# 
   604  0E20                     	;# 
   605  0E21                     	;# 
   606  0E22                     	;# 
   607  0E24                     	;# 
   608  0E25                     	;# 
   609  0E28                     	;# 
   610  0E29                     	;# 
   611  0E2A                     	;# 
   612  0E2B                     	;# 
   613  0E90                     	;# 
   614  0E91                     	;# 
   615  0E92                     	;# 
   616  0E93                     	;# 
   617  0E94                     	;# 
   618  0E95                     	;# 
   619  0E96                     	;# 
   620  0E97                     	;# 
   621  0E98                     	;# 
   622  0E99                     	;# 
   623  0E9A                     	;# 
   624  0E9B                     	;# 
   625  0E9C                     	;# 
   626  0E9D                     	;# 
   627  0E9E                     	;# 
   628  0E9F                     	;# 
   629  0EA0                     	;# 
   630  0EA1                     	;# 
   631  0EA2                     	;# 
   632  0EA3                     	;# 
   633  0EA4                     	;# 
   634  0EA5                     	;# 
   635  0EA6                     	;# 
   636  0EA7                     	;# 
   637  0EA8                     	;# 
   638  0EA9                     	;# 
   639  0EAA                     	;# 
   640  0EAB                     	;# 
   641  0EAC                     	;# 
   642  0EAD                     	;# 
   643  0EAE                     	;# 
   644  0EAF                     	;# 
   645  0EB0                     	;# 
   646  0EB1                     	;# 
   647  0EB2                     	;# 
   648  0F0F                     	;# 
   649  0F10                     	;# 
   650  0F11                     	;# 
   651  0F12                     	;# 
   652  0F13                     	;# 
   653  0F14                     	;# 
   654  0F15                     	;# 
   655  0F16                     	;# 
   656  0F17                     	;# 
   657  0F18                     	;# 
   658  0F19                     	;# 
   659  0F1A                     	;# 
   660  0F1B                     	;# 
   661  0F1C                     	;# 
   662  0F1D                     	;# 
   663  0F1E                     	;# 
   664  0F1F                     	;# 
   665  0F20                     	;# 
   666  0F21                     	;# 
   667  0F22                     	;# 
   668  0F23                     	;# 
   669  0F24                     	;# 
   670  0F25                     	;# 
   671  0F26                     	;# 
   672  0F27                     	;# 
   673  0F28                     	;# 
   674  0F29                     	;# 
   675  0F2A                     	;# 
   676  0F2B                     	;# 
   677  0F2C                     	;# 
   678  0F2D                     	;# 
   679  0F2E                     	;# 
   680  0F2F                     	;# 
   681  0F30                     	;# 
   682  0F31                     	;# 
   683  0F32                     	;# 
   684  0F33                     	;# 
   685  0F34                     	;# 
   686  0F35                     	;# 
   687  0F36                     	;# 
   688  0F37                     	;# 
   689  0FE4                     	;# 
   690  0FE5                     	;# 
   691  0FE6                     	;# 
   692  0FE7                     	;# 
   693  0FE8                     	;# 
   694  0FE9                     	;# 
   695  0FEA                     	;# 
   696  0FEB                     	;# 
   697  0FED                     	;# 
   698  0FEE                     	;# 
   699  0FEF                     	;# 
   700  0000                     	;# 
   701  0001                     	;# 
   702  0002                     	;# 
   703  0003                     	;# 
   704  0004                     	;# 
   705  0005                     	;# 
   706  0006                     	;# 
   707  0007                     	;# 
   708  0008                     	;# 
   709  0009                     	;# 
   710  000A                     	;# 
   711  000B                     	;# 
   712  000C                     	;# 
   713  000D                     	;# 
   714  000E                     	;# 
   715  000F                     	;# 
   716  0010                     	;# 
   717  0011                     	;# 
   718  0012                     	;# 
   719  0013                     	;# 
   720  0015                     	;# 
   721  0016                     	;# 
   722  0016                     	;# 
   723  0017                     	;# 
   724  0018                     	;# 
   725  0019                     	;# 
   726  001A                     	;# 
   727  001B                     	;# 
   728  001C                     	;# 
   729  008C                     	;# 
   730  008D                     	;# 
   731  008E                     	;# 
   732  008F                     	;# 
   733  0090                     	;# 
   734  0091                     	;# 
   735  0092                     	;# 
   736  0093                     	;# 
   737  0095                     	;# 
   738  0096                     	;# 
   739  0097                     	;# 
   740  0098                     	;# 
   741  0099                     	;# 
   742  009A                     	;# 
   743  009B                     	;# 
   744  009B                     	;# 
   745  009C                     	;# 
   746  009D                     	;# 
   747  009E                     	;# 
   748  009F                     	;# 
   749  010C                     	;# 
   750  010D                     	;# 
   751  010E                     	;# 
   752  010F                     	;# 
   753  0110                     	;# 
   754  0111                     	;# 
   755  0112                     	;# 
   756  0113                     	;# 
   757  0114                     	;# 
   758  0115                     	;# 
   759  0116                     	;# 
   760  0117                     	;# 
   761  0118                     	;# 
   762  0119                     	;# 
   763  011A                     	;# 
   764  011B                     	;# 
   765  011B                     	;# 
   766  011C                     	;# 
   767  018C                     	;# 
   768  018D                     	;# 
   769  018E                     	;# 
   770  018F                     	;# 
   771  0190                     	;# 
   772  0191                     	;# 
   773  0191                     	;# 
   774  0192                     	;# 
   775  0193                     	;# 
   776  0193                     	;# 
   777  0194                     	;# 
   778  0195                     	;# 
   779  0196                     	;# 
   780  0197                     	;# 
   781  0199                     	;# 
   782  0199                     	;# 
   783  0199                     	;# 
   784  019A                     	;# 
   785  019A                     	;# 
   786  019A                     	;# 
   787  019B                     	;# 
   788  019B                     	;# 
   789  019B                     	;# 
   790  019B                     	;# 
   791  019B                     	;# 
   792  019C                     	;# 
   793  019C                     	;# 
   794  019C                     	;# 
   795  019D                     	;# 
   796  019D                     	;# 
   797  019D                     	;# 
   798  019E                     	;# 
   799  019E                     	;# 
   800  019E                     	;# 
   801  019F                     	;# 
   802  019F                     	;# 
   803  019F                     	;# 
   804  019F                     	;# 
   805  019F                     	;# 
   806  020C                     	;# 
   807  020D                     	;# 
   808  020E                     	;# 
   809  020F                     	;# 
   810  0210                     	;# 
   811  0211                     	;# 
   812  0211                     	;# 
   813  0212                     	;# 
   814  0212                     	;# 
   815  0213                     	;# 
   816  0213                     	;# 
   817  0214                     	;# 
   818  0214                     	;# 
   819  0215                     	;# 
   820  0215                     	;# 
   821  0215                     	;# 
   822  0215                     	;# 
   823  0216                     	;# 
   824  0216                     	;# 
   825  0217                     	;# 
   826  0217                     	;# 
   827  028C                     	;# 
   828  028D                     	;# 
   829  028E                     	;# 
   830  028F                     	;# 
   831  0290                     	;# 
   832  0291                     	;# 
   833  0291                     	;# 
   834  0292                     	;# 
   835  0293                     	;# 
   836  0293                     	;# 
   837  0298                     	;# 
   838  0298                     	;# 
   839  0299                     	;# 
   840  029A                     	;# 
   841  029A                     	;# 
   842  029E                     	;# 
   843  030C                     	;# 
   844  030D                     	;# 
   845  030E                     	;# 
   846  030F                     	;# 
   847  0310                     	;# 
   848  038C                     	;# 
   849  038D                     	;# 
   850  038E                     	;# 
   851  038F                     	;# 
   852  0390                     	;# 
   853  0391                     	;# 
   854  0392                     	;# 
   855  0393                     	;# 
   856  0394                     	;# 
   857  0395                     	;# 
   858  0396                     	;# 
   859  0397                     	;# 
   860  0398                     	;# 
   861  0399                     	;# 
   862  039D                     	;# 
   863  039E                     	;# 
   864  039F                     	;# 
   865  0415                     	;# 
   866  0416                     	;# 
   867  0417                     	;# 
   868  041C                     	;# 
   869  041D                     	;# 
   870  041E                     	;# 
   871  0498                     	;# 
   872  0498                     	;# 
   873  0499                     	;# 
   874  049A                     	;# 
   875  049B                     	;# 
   876  049B                     	;# 
   877  049C                     	;# 
   878  049D                     	;# 
   879  049E                     	;# 
   880  049F                     	;# 
   881  0511                     	;# 
   882  0515                     	;# 
   883  0617                     	;# 
   884  0618                     	;# 
   885  0619                     	;# 
   886  0619                     	;# 
   887  061A                     	;# 
   888  061B                     	;# 
   889  061C                     	;# 
   890  061C                     	;# 
   891  0691                     	;# 
   892  0692                     	;# 
   893  0693                     	;# 
   894  0694                     	;# 
   895  0695                     	;# 
   896  0696                     	;# 
   897  0697                     	;# 
   898  0698                     	;# 
   899  0699                     	;# 
   900  069A                     	;# 
   901  069B                     	;# 
   902  069C                     	;# 
   903  069D                     	;# 
   904  069E                     	;# 
   905  069F                     	;# 
   906  0E0F                     	;# 
   907  0E10                     	;# 
   908  0E11                     	;# 
   909  0E12                     	;# 
   910  0E13                     	;# 
   911  0E14                     	;# 
   912  0E15                     	;# 
   913  0E17                     	;# 
   914  0E20                     	;# 
   915  0E21                     	;# 
   916  0E22                     	;# 
   917  0E24                     	;# 
   918  0E25                     	;# 
   919  0E28                     	;# 
   920  0E29                     	;# 
   921  0E2A                     	;# 
   922  0E2B                     	;# 
   923  0E90                     	;# 
   924  0E91                     	;# 
   925  0E92                     	;# 
   926  0E93                     	;# 
   927  0E94                     	;# 
   928  0E95                     	;# 
   929  0E96                     	;# 
   930  0E97                     	;# 
   931  0E98                     	;# 
   932  0E99                     	;# 
   933  0E9A                     	;# 
   934  0E9B                     	;# 
   935  0E9C                     	;# 
   936  0E9D                     	;# 
   937  0E9E                     	;# 
   938  0E9F                     	;# 
   939  0EA0                     	;# 
   940  0EA1                     	;# 
   941  0EA2                     	;# 
   942  0EA3                     	;# 
   943  0EA4                     	;# 
   944  0EA5                     	;# 
   945  0EA6                     	;# 
   946  0EA7                     	;# 
   947  0EA8                     	;# 
   948  0EA9                     	;# 
   949  0EAA                     	;# 
   950  0EAB                     	;# 
   951  0EAC                     	;# 
   952  0EAD                     	;# 
   953  0EAE                     	;# 
   954  0EAF                     	;# 
   955  0EB0                     	;# 
   956  0EB1                     	;# 
   957  0EB2                     	;# 
   958  0F0F                     	;# 
   959  0F10                     	;# 
   960  0F11                     	;# 
   961  0F12                     	;# 
   962  0F13                     	;# 
   963  0F14                     	;# 
   964  0F15                     	;# 
   965  0F16                     	;# 
   966  0F17                     	;# 
   967  0F18                     	;# 
   968  0F19                     	;# 
   969  0F1A                     	;# 
   970  0F1B                     	;# 
   971  0F1C                     	;# 
   972  0F1D                     	;# 
   973  0F1E                     	;# 
   974  0F1F                     	;# 
   975  0F20                     	;# 
   976  0F21                     	;# 
   977  0F22                     	;# 
   978  0F23                     	;# 
   979  0F24                     	;# 
   980  0F25                     	;# 
   981  0F26                     	;# 
   982  0F27                     	;# 
   983  0F28                     	;# 
   984  0F29                     	;# 
   985  0F2A                     	;# 
   986  0F2B                     	;# 
   987  0F2C                     	;# 
   988  0F2D                     	;# 
   989  0F2E                     	;# 
   990  0F2F                     	;# 
   991  0F30                     	;# 
   992  0F31                     	;# 
   993  0F32                     	;# 
   994  0F33                     	;# 
   995  0F34                     	;# 
   996  0F35                     	;# 
   997  0F36                     	;# 
   998  0F37                     	;# 
   999  0FE4                     	;# 
  1000  0FE5                     	;# 
  1001  0FE6                     	;# 
  1002  0FE7                     	;# 
  1003  0FE8                     	;# 
  1004  0FE9                     	;# 
  1005  0FEA                     	;# 
  1006  0FEB                     	;# 
  1007  0FED                     	;# 
  1008  0FEE                     	;# 
  1009  0FEF                     	;# 
  1010  0000                     	;# 
  1011  0001                     	;# 
  1012  0002                     	;# 
  1013  0003                     	;# 
  1014  0004                     	;# 
  1015  0005                     	;# 
  1016  0006                     	;# 
  1017  0007                     	;# 
  1018  0008                     	;# 
  1019  0009                     	;# 
  1020  000A                     	;# 
  1021  000B                     	;# 
  1022  000C                     	;# 
  1023  000D                     	;# 
  1024  000E                     	;# 
  1025  000F                     	;# 
  1026  0010                     	;# 
  1027  0011                     	;# 
  1028  0012                     	;# 
  1029  0013                     	;# 
  1030  0015                     	;# 
  1031  0016                     	;# 
  1032  0016                     	;# 
  1033  0017                     	;# 
  1034  0018                     	;# 
  1035  0019                     	;# 
  1036  001A                     	;# 
  1037  001B                     	;# 
  1038  001C                     	;# 
  1039  008C                     	;# 
  1040  008D                     	;# 
  1041  008E                     	;# 
  1042  008F                     	;# 
  1043  0090                     	;# 
  1044  0091                     	;# 
  1045  0092                     	;# 
  1046  0093                     	;# 
  1047  0095                     	;# 
  1048  0096                     	;# 
  1049  0097                     	;# 
  1050  0098                     	;# 
  1051  0099                     	;# 
  1052  009A                     	;# 
  1053  009B                     	;# 
  1054  009B                     	;# 
  1055  009C                     	;# 
  1056  009D                     	;# 
  1057  009E                     	;# 
  1058  009F                     	;# 
  1059  010C                     	;# 
  1060  010D                     	;# 
  1061  010E                     	;# 
  1062  010F                     	;# 
  1063  0110                     	;# 
  1064  0111                     	;# 
  1065  0112                     	;# 
  1066  0113                     	;# 
  1067  0114                     	;# 
  1068  0115                     	;# 
  1069  0116                     	;# 
  1070  0117                     	;# 
  1071  0118                     	;# 
  1072  0119                     	;# 
  1073  011A                     	;# 
  1074  011B                     	;# 
  1075  011B                     	;# 
  1076  011C                     	;# 
  1077  018C                     	;# 
  1078  018D                     	;# 
  1079  018E                     	;# 
  1080  018F                     	;# 
  1081  0190                     	;# 
  1082  0191                     	;# 
  1083  0191                     	;# 
  1084  0192                     	;# 
  1085  0193                     	;# 
  1086  0193                     	;# 
  1087  0194                     	;# 
  1088  0195                     	;# 
  1089  0196                     	;# 
  1090  0197                     	;# 
  1091  0199                     	;# 
  1092  0199                     	;# 
  1093  0199                     	;# 
  1094  019A                     	;# 
  1095  019A                     	;# 
  1096  019A                     	;# 
  1097  019B                     	;# 
  1098  019B                     	;# 
  1099  019B                     	;# 
  1100  019B                     	;# 
  1101  019B                     	;# 
  1102  019C                     	;# 
  1103  019C                     	;# 
  1104  019C                     	;# 
  1105  019D                     	;# 
  1106  019D                     	;# 
  1107  019D                     	;# 
  1108  019E                     	;# 
  1109  019E                     	;# 
  1110  019E                     	;# 
  1111  019F                     	;# 
  1112  019F                     	;# 
  1113  019F                     	;# 
  1114  019F                     	;# 
  1115  019F                     	;# 
  1116  020C                     	;# 
  1117  020D                     	;# 
  1118  020E                     	;# 
  1119  020F                     	;# 
  1120  0210                     	;# 
  1121  0211                     	;# 
  1122  0211                     	;# 
  1123  0212                     	;# 
  1124  0212                     	;# 
  1125  0213                     	;# 
  1126  0213                     	;# 
  1127  0214                     	;# 
  1128  0214                     	;# 
  1129  0215                     	;# 
  1130  0215                     	;# 
  1131  0215                     	;# 
  1132  0215                     	;# 
  1133  0216                     	;# 
  1134  0216                     	;# 
  1135  0217                     	;# 
  1136  0217                     	;# 
  1137  028C                     	;# 
  1138  028D                     	;# 
  1139  028E                     	;# 
  1140  028F                     	;# 
  1141  0290                     	;# 
  1142  0291                     	;# 
  1143  0291                     	;# 
  1144  0292                     	;# 
  1145  0293                     	;# 
  1146  0293                     	;# 
  1147  0298                     	;# 
  1148  0298                     	;# 
  1149  0299                     	;# 
  1150  029A                     	;# 
  1151  029A                     	;# 
  1152  029E                     	;# 
  1153  030C                     	;# 
  1154  030D                     	;# 
  1155  030E                     	;# 
  1156  030F                     	;# 
  1157  0310                     	;# 
  1158  038C                     	;# 
  1159  038D                     	;# 
  1160  038E                     	;# 
  1161  038F                     	;# 
  1162  0390                     	;# 
  1163  0391                     	;# 
  1164  0392                     	;# 
  1165  0393                     	;# 
  1166  0394                     	;# 
  1167  0395                     	;# 
  1168  0396                     	;# 
  1169  0397                     	;# 
  1170  0398                     	;# 
  1171  0399                     	;# 
  1172  039D                     	;# 
  1173  039E                     	;# 
  1174  039F                     	;# 
  1175  0415                     	;# 
  1176  0416                     	;# 
  1177  0417                     	;# 
  1178  041C                     	;# 
  1179  041D                     	;# 
  1180  041E                     	;# 
  1181  0498                     	;# 
  1182  0498                     	;# 
  1183  0499                     	;# 
  1184  049A                     	;# 
  1185  049B                     	;# 
  1186  049B                     	;# 
  1187  049C                     	;# 
  1188  049D                     	;# 
  1189  049E                     	;# 
  1190  049F                     	;# 
  1191  0511                     	;# 
  1192  0515                     	;# 
  1193  0617                     	;# 
  1194  0618                     	;# 
  1195  0619                     	;# 
  1196  0619                     	;# 
  1197  061A                     	;# 
  1198  061B                     	;# 
  1199  061C                     	;# 
  1200  061C                     	;# 
  1201  0691                     	;# 
  1202  0692                     	;# 
  1203  0693                     	;# 
  1204  0694                     	;# 
  1205  0695                     	;# 
  1206  0696                     	;# 
  1207  0697                     	;# 
  1208  0698                     	;# 
  1209  0699                     	;# 
  1210  069A                     	;# 
  1211  069B                     	;# 
  1212  069C                     	;# 
  1213  069D                     	;# 
  1214  069E                     	;# 
  1215  069F                     	;# 
  1216  0E0F                     	;# 
  1217  0E10                     	;# 
  1218  0E11                     	;# 
  1219  0E12                     	;# 
  1220  0E13                     	;# 
  1221  0E14                     	;# 
  1222  0E15                     	;# 
  1223  0E17                     	;# 
  1224  0E20                     	;# 
  1225  0E21                     	;# 
  1226  0E22                     	;# 
  1227  0E24                     	;# 
  1228  0E25                     	;# 
  1229  0E28                     	;# 
  1230  0E29                     	;# 
  1231  0E2A                     	;# 
  1232  0E2B                     	;# 
  1233  0E90                     	;# 
  1234  0E91                     	;# 
  1235  0E92                     	;# 
  1236  0E93                     	;# 
  1237  0E94                     	;# 
  1238  0E95                     	;# 
  1239  0E96                     	;# 
  1240  0E97                     	;# 
  1241  0E98                     	;# 
  1242  0E99                     	;# 
  1243  0E9A                     	;# 
  1244  0E9B                     	;# 
  1245  0E9C                     	;# 
  1246  0E9D                     	;# 
  1247  0E9E                     	;# 
  1248  0E9F                     	;# 
  1249  0EA0                     	;# 
  1250  0EA1                     	;# 
  1251  0EA2                     	;# 
  1252  0EA3                     	;# 
  1253  0EA4                     	;# 
  1254  0EA5                     	;# 
  1255  0EA6                     	;# 
  1256  0EA7                     	;# 
  1257  0EA8                     	;# 
  1258  0EA9                     	;# 
  1259  0EAA                     	;# 
  1260  0EAB                     	;# 
  1261  0EAC                     	;# 
  1262  0EAD                     	;# 
  1263  0EAE                     	;# 
  1264  0EAF                     	;# 
  1265  0EB0                     	;# 
  1266  0EB1                     	;# 
  1267  0EB2                     	;# 
  1268  0F0F                     	;# 
  1269  0F10                     	;# 
  1270  0F11                     	;# 
  1271  0F12                     	;# 
  1272  0F13                     	;# 
  1273  0F14                     	;# 
  1274  0F15                     	;# 
  1275  0F16                     	;# 
  1276  0F17                     	;# 
  1277  0F18                     	;# 
  1278  0F19                     	;# 
  1279  0F1A                     	;# 
  1280  0F1B                     	;# 
  1281  0F1C                     	;# 
  1282  0F1D                     	;# 
  1283  0F1E                     	;# 
  1284  0F1F                     	;# 
  1285  0F20                     	;# 
  1286  0F21                     	;# 
  1287  0F22                     	;# 
  1288  0F23                     	;# 
  1289  0F24                     	;# 
  1290  0F25                     	;# 
  1291  0F26                     	;# 
  1292  0F27                     	;# 
  1293  0F28                     	;# 
  1294  0F29                     	;# 
  1295  0F2A                     	;# 
  1296  0F2B                     	;# 
  1297  0F2C                     	;# 
  1298  0F2D                     	;# 
  1299  0F2E                     	;# 
  1300  0F2F                     	;# 
  1301  0F30                     	;# 
  1302  0F31                     	;# 
  1303  0F32                     	;# 
  1304  0F33                     	;# 
  1305  0F34                     	;# 
  1306  0F35                     	;# 
  1307  0F36                     	;# 
  1308  0F37                     	;# 
  1309  0FE4                     	;# 
  1310  0FE5                     	;# 
  1311  0FE6                     	;# 
  1312  0FE7                     	;# 
  1313  0FE8                     	;# 
  1314  0FE9                     	;# 
  1315  0FEA                     	;# 
  1316  0FEB                     	;# 
  1317  0FED                     	;# 
  1318  0FEE                     	;# 
  1319  0FEF                     	;# 
  1320                           
  1321                           	psect	idataBANK0
  1322  0F24                     __pidataBANK0:	
  1323                           
  1324                           ;initializer for _device_address
  1325  0F24  340A               	retlw	10
  1326  0F25  3400               	retlw	0
  1327                           
  1328                           ;initializer for _celsius
  1329  0F26  345F               	retlw	low (_cel| 0)
  1330                           
  1331                           	psect	stringtext
  1332  0800                     __pstringtext:	
  1333  0800                     _dpowers:	
  1334  0800  3401               	retlw	1
  1335  0801  3400               	retlw	0
  1336  0802  3400               	retlw	0
  1337  0803  3400               	retlw	0
  1338  0804  340A               	retlw	10
  1339  0805  3400               	retlw	0
  1340  0806  3400               	retlw	0
  1341  0807  3400               	retlw	0
  1342  0808  3464               	retlw	100
  1343  0809  3400               	retlw	0
  1344  080A  3400               	retlw	0
  1345  080B  3400               	retlw	0
  1346  080C  34E8               	retlw	232
  1347  080D  3403               	retlw	3
  1348  080E  3400               	retlw	0
  1349  080F  3400               	retlw	0
  1350  0810  3410               	retlw	16
  1351  0811  3427               	retlw	39
  1352  0812  3400               	retlw	0
  1353  0813  3400               	retlw	0
  1354  0814  34A0               	retlw	160
  1355  0815  3486               	retlw	134
  1356  0816  3401               	retlw	1
  1357  0817  3400               	retlw	0
  1358  0818  3440               	retlw	64
  1359  0819  3442               	retlw	66
  1360  081A  340F               	retlw	15
  1361  081B  3400               	retlw	0
  1362  081C  3480               	retlw	128
  1363  081D  3496               	retlw	150
  1364  081E  3498               	retlw	152
  1365  081F  3400               	retlw	0
  1366  0820  3400               	retlw	0
  1367  0821  34E1               	retlw	225
  1368  0822  34F5               	retlw	245
  1369  0823  3405               	retlw	5
  1370  0824  3400               	retlw	0
  1371  0825  34CA               	retlw	202
  1372  0826  349A               	retlw	154
  1373  0827  343B               	retlw	59
  1374  0828                     __end_of_dpowers:	
  1375  0828                     _OledFont:	
  1376  0828  3400               	retlw	0
  1377  0829  3400               	retlw	0
  1378  082A  3400               	retlw	0
  1379  082B  3400               	retlw	0
  1380  082C  3400               	retlw	0
  1381  082D  3400               	retlw	0
  1382  082E  3400               	retlw	0
  1383  082F  3400               	retlw	0
  1384  0830  3400               	retlw	0
  1385  0831  3400               	retlw	0
  1386  0832  345F               	retlw	95
  1387  0833  3400               	retlw	0
  1388  0834  3400               	retlw	0
  1389  0835  3400               	retlw	0
  1390  0836  3400               	retlw	0
  1391  0837  3400               	retlw	0
  1392  0838  3400               	retlw	0
  1393  0839  3400               	retlw	0
  1394  083A  3407               	retlw	7
  1395  083B  3400               	retlw	0
  1396  083C  3407               	retlw	7
  1397  083D  3400               	retlw	0
  1398  083E  3400               	retlw	0
  1399  083F  3400               	retlw	0
  1400  0840  3400               	retlw	0
  1401  0841  3414               	retlw	20
  1402  0842  347F               	retlw	127
  1403  0843  3414               	retlw	20
  1404  0844  347F               	retlw	127
  1405  0845  3414               	retlw	20
  1406  0846  3400               	retlw	0
  1407  0847  3400               	retlw	0
  1408  0848  3400               	retlw	0
  1409  0849  3424               	retlw	36
  1410  084A  342A               	retlw	42
  1411  084B  347F               	retlw	127
  1412  084C  342A               	retlw	42
  1413  084D  3412               	retlw	18
  1414  084E  3400               	retlw	0
  1415  084F  3400               	retlw	0
  1416  0850  3400               	retlw	0
  1417  0851  3423               	retlw	35
  1418  0852  3413               	retlw	19
  1419  0853  3408               	retlw	8
  1420  0854  3464               	retlw	100
  1421  0855  3462               	retlw	98
  1422  0856  3400               	retlw	0
  1423  0857  3400               	retlw	0
  1424  0858  3400               	retlw	0
  1425  0859  3436               	retlw	54
  1426  085A  3449               	retlw	73
  1427  085B  3455               	retlw	85
  1428  085C  3422               	retlw	34
  1429  085D  3450               	retlw	80
  1430  085E  3400               	retlw	0
  1431  085F  3400               	retlw	0
  1432  0860  3400               	retlw	0
  1433  0861  3400               	retlw	0
  1434  0862  3405               	retlw	5
  1435  0863  3403               	retlw	3
  1436  0864  3400               	retlw	0
  1437  0865  3400               	retlw	0
  1438  0866  3400               	retlw	0
  1439  0867  3400               	retlw	0
  1440  0868  3400               	retlw	0
  1441  0869  341C               	retlw	28
  1442  086A  3422               	retlw	34
  1443  086B  3441               	retlw	65
  1444  086C  3400               	retlw	0
  1445  086D  3400               	retlw	0
  1446  086E  3400               	retlw	0
  1447  086F  3400               	retlw	0
  1448  0870  3400               	retlw	0
  1449  0871  3441               	retlw	65
  1450  0872  3422               	retlw	34
  1451  0873  341C               	retlw	28
  1452  0874  3400               	retlw	0
  1453  0875  3400               	retlw	0
  1454  0876  3400               	retlw	0
  1455  0877  3400               	retlw	0
  1456  0878  3400               	retlw	0
  1457  0879  3408               	retlw	8
  1458  087A  342A               	retlw	42
  1459  087B  341C               	retlw	28
  1460  087C  342A               	retlw	42
  1461  087D  3408               	retlw	8
  1462  087E  3400               	retlw	0
  1463  087F  3400               	retlw	0
  1464  0880  3400               	retlw	0
  1465  0881  3408               	retlw	8
  1466  0882  3408               	retlw	8
  1467  0883  343E               	retlw	62
  1468  0884  3408               	retlw	8
  1469  0885  3408               	retlw	8
  1470  0886  3400               	retlw	0
  1471  0887  3400               	retlw	0
  1472  0888  3400               	retlw	0
  1473  0889  34A0               	retlw	160
  1474  088A  3460               	retlw	96
  1475  088B  3400               	retlw	0
  1476  088C  3400               	retlw	0
  1477  088D  3400               	retlw	0
  1478  088E  3400               	retlw	0
  1479  088F  3400               	retlw	0
  1480  0890  3400               	retlw	0
  1481  0891  3408               	retlw	8
  1482  0892  3408               	retlw	8
  1483  0893  3408               	retlw	8
  1484  0894  3408               	retlw	8
  1485  0895  3408               	retlw	8
  1486  0896  3400               	retlw	0
  1487  0897  3400               	retlw	0
  1488  0898  3400               	retlw	0
  1489  0899  3460               	retlw	96
  1490  089A  3460               	retlw	96
  1491  089B  3400               	retlw	0
  1492  089C  3400               	retlw	0
  1493  089D  3400               	retlw	0
  1494  089E  3400               	retlw	0
  1495  089F  3400               	retlw	0
  1496  08A0  3400               	retlw	0
  1497  08A1  3420               	retlw	32
  1498  08A2  3410               	retlw	16
  1499  08A3  3408               	retlw	8
  1500  08A4  3404               	retlw	4
  1501  08A5  3402               	retlw	2
  1502  08A6  3400               	retlw	0
  1503  08A7  3400               	retlw	0
  1504  08A8  3400               	retlw	0
  1505  08A9  343E               	retlw	62
  1506  08AA  3451               	retlw	81
  1507  08AB  3449               	retlw	73
  1508  08AC  3445               	retlw	69
  1509  08AD  343E               	retlw	62
  1510  08AE  3400               	retlw	0
  1511  08AF  3400               	retlw	0
  1512  08B0  3400               	retlw	0
  1513  08B1  3400               	retlw	0
  1514  08B2  3442               	retlw	66
  1515  08B3  347F               	retlw	127
  1516  08B4  3440               	retlw	64
  1517  08B5  3400               	retlw	0
  1518  08B6  3400               	retlw	0
  1519  08B7  3400               	retlw	0
  1520  08B8  3400               	retlw	0
  1521  08B9  3462               	retlw	98
  1522  08BA  3451               	retlw	81
  1523  08BB  3449               	retlw	73
  1524  08BC  3449               	retlw	73
  1525  08BD  3446               	retlw	70
  1526  08BE  3400               	retlw	0
  1527  08BF  3400               	retlw	0
  1528  08C0  3400               	retlw	0
  1529  08C1  3422               	retlw	34
  1530  08C2  3441               	retlw	65
  1531  08C3  3449               	retlw	73
  1532  08C4  3449               	retlw	73
  1533  08C5  3436               	retlw	54
  1534  08C6  3400               	retlw	0
  1535  08C7  3400               	retlw	0
  1536  08C8  3400               	retlw	0
  1537  08C9  3418               	retlw	24
  1538  08CA  3414               	retlw	20
  1539  08CB  3412               	retlw	18
  1540  08CC  347F               	retlw	127
  1541  08CD  3410               	retlw	16
  1542  08CE  3400               	retlw	0
  1543  08CF  3400               	retlw	0
  1544  08D0  3400               	retlw	0
  1545  08D1  3427               	retlw	39
  1546  08D2  3445               	retlw	69
  1547  08D3  3445               	retlw	69
  1548  08D4  3445               	retlw	69
  1549  08D5  3439               	retlw	57
  1550  08D6  3400               	retlw	0
  1551  08D7  3400               	retlw	0
  1552  08D8  3400               	retlw	0
  1553  08D9  343C               	retlw	60
  1554  08DA  344A               	retlw	74
  1555  08DB  3449               	retlw	73
  1556  08DC  3449               	retlw	73
  1557  08DD  3430               	retlw	48
  1558  08DE  3400               	retlw	0
  1559  08DF  3400               	retlw	0
  1560  08E0  3400               	retlw	0
  1561  08E1  3401               	retlw	1
  1562  08E2  3471               	retlw	113
  1563  08E3  3409               	retlw	9
  1564  08E4  3405               	retlw	5
  1565  08E5  3403               	retlw	3
  1566  08E6  3400               	retlw	0
  1567  08E7  3400               	retlw	0
  1568  08E8  3400               	retlw	0
  1569  08E9  3436               	retlw	54
  1570  08EA  3449               	retlw	73
  1571  08EB  3449               	retlw	73
  1572  08EC  3449               	retlw	73
  1573  08ED  3436               	retlw	54
  1574  08EE  3400               	retlw	0
  1575  08EF  3400               	retlw	0
  1576  08F0  3400               	retlw	0
  1577  08F1  3406               	retlw	6
  1578  08F2  3449               	retlw	73
  1579  08F3  3449               	retlw	73
  1580  08F4  3429               	retlw	41
  1581  08F5  341E               	retlw	30
  1582  08F6  3400               	retlw	0
  1583  08F7  3400               	retlw	0
  1584  08F8  3400               	retlw	0
  1585  08F9  3400               	retlw	0
  1586  08FA  3436               	retlw	54
  1587  08FB  3436               	retlw	54
  1588  08FC  3400               	retlw	0
  1589  08FD  3400               	retlw	0
  1590  08FE  3400               	retlw	0
  1591  08FF  3400               	retlw	0
  1592  0900  3400               	retlw	0
  1593  0901  3400               	retlw	0
  1594  0902  34AC               	retlw	172
  1595  0903  346C               	retlw	108
  1596  0904  3400               	retlw	0
  1597  0905  3400               	retlw	0
  1598  0906  3400               	retlw	0
  1599  0907  3400               	retlw	0
  1600  0908  3400               	retlw	0
  1601  0909  3408               	retlw	8
  1602  090A  3414               	retlw	20
  1603  090B  3422               	retlw	34
  1604  090C  3441               	retlw	65
  1605  090D  3400               	retlw	0
  1606  090E  3400               	retlw	0
  1607  090F  3400               	retlw	0
  1608  0910  3400               	retlw	0
  1609  0911  3414               	retlw	20
  1610  0912  3414               	retlw	20
  1611  0913  3414               	retlw	20
  1612  0914  3414               	retlw	20
  1613  0915  3414               	retlw	20
  1614  0916  3400               	retlw	0
  1615  0917  3400               	retlw	0
  1616  0918  3400               	retlw	0
  1617  0919  3441               	retlw	65
  1618  091A  3422               	retlw	34
  1619  091B  3414               	retlw	20
  1620  091C  3408               	retlw	8
  1621  091D  3400               	retlw	0
  1622  091E  3400               	retlw	0
  1623  091F  3400               	retlw	0
  1624  0920  3400               	retlw	0
  1625  0921  3402               	retlw	2
  1626  0922  3401               	retlw	1
  1627  0923  3451               	retlw	81
  1628  0924  3409               	retlw	9
  1629  0925  3406               	retlw	6
  1630  0926  3400               	retlw	0
  1631  0927  3400               	retlw	0
  1632  0928  3400               	retlw	0
  1633  0929  3432               	retlw	50
  1634  092A  3449               	retlw	73
  1635  092B  3479               	retlw	121
  1636  092C  3441               	retlw	65
  1637  092D  343E               	retlw	62
  1638  092E  3400               	retlw	0
  1639  092F  3400               	retlw	0
  1640  0930  3400               	retlw	0
  1641  0931  347E               	retlw	126
  1642  0932  3409               	retlw	9
  1643  0933  3409               	retlw	9
  1644  0934  3409               	retlw	9
  1645  0935  347E               	retlw	126
  1646  0936  3400               	retlw	0
  1647  0937  3400               	retlw	0
  1648  0938  3400               	retlw	0
  1649  0939  347F               	retlw	127
  1650  093A  3449               	retlw	73
  1651  093B  3449               	retlw	73
  1652  093C  3449               	retlw	73
  1653  093D  3436               	retlw	54
  1654  093E  3400               	retlw	0
  1655  093F  3400               	retlw	0
  1656  0940  3400               	retlw	0
  1657  0941  343E               	retlw	62
  1658  0942  3441               	retlw	65
  1659  0943  3441               	retlw	65
  1660  0944  3441               	retlw	65
  1661  0945  3422               	retlw	34
  1662  0946  3400               	retlw	0
  1663  0947  3400               	retlw	0
  1664  0948  3400               	retlw	0
  1665  0949  347F               	retlw	127
  1666  094A  3441               	retlw	65
  1667  094B  3441               	retlw	65
  1668  094C  3422               	retlw	34
  1669  094D  341C               	retlw	28
  1670  094E  3400               	retlw	0
  1671  094F  3400               	retlw	0
  1672  0950  3400               	retlw	0
  1673  0951  347F               	retlw	127
  1674  0952  3449               	retlw	73
  1675  0953  3449               	retlw	73
  1676  0954  3449               	retlw	73
  1677  0955  3441               	retlw	65
  1678  0956  3400               	retlw	0
  1679  0957  3400               	retlw	0
  1680  0958  3400               	retlw	0
  1681  0959  347F               	retlw	127
  1682  095A  3409               	retlw	9
  1683  095B  3409               	retlw	9
  1684  095C  3409               	retlw	9
  1685  095D  3401               	retlw	1
  1686  095E  3400               	retlw	0
  1687  095F  3400               	retlw	0
  1688  0960  3400               	retlw	0
  1689  0961  343E               	retlw	62
  1690  0962  3441               	retlw	65
  1691  0963  3441               	retlw	65
  1692  0964  3451               	retlw	81
  1693  0965  3472               	retlw	114
  1694  0966  3400               	retlw	0
  1695  0967  3400               	retlw	0
  1696  0968  3400               	retlw	0
  1697  0969  347F               	retlw	127
  1698  096A  3408               	retlw	8
  1699  096B  3408               	retlw	8
  1700  096C  3408               	retlw	8
  1701  096D  347F               	retlw	127
  1702  096E  3400               	retlw	0
  1703  096F  3400               	retlw	0
  1704  0970  3400               	retlw	0
  1705  0971  3441               	retlw	65
  1706  0972  347F               	retlw	127
  1707  0973  3441               	retlw	65
  1708  0974  3400               	retlw	0
  1709  0975  3400               	retlw	0
  1710  0976  3400               	retlw	0
  1711  0977  3400               	retlw	0
  1712  0978  3400               	retlw	0
  1713  0979  3420               	retlw	32
  1714  097A  3440               	retlw	64
  1715  097B  3441               	retlw	65
  1716  097C  343F               	retlw	63
  1717  097D  3401               	retlw	1
  1718  097E  3400               	retlw	0
  1719  097F  3400               	retlw	0
  1720  0980  3400               	retlw	0
  1721  0981  347F               	retlw	127
  1722  0982  3408               	retlw	8
  1723  0983  3414               	retlw	20
  1724  0984  3422               	retlw	34
  1725  0985  3441               	retlw	65
  1726  0986  3400               	retlw	0
  1727  0987  3400               	retlw	0
  1728  0988  3400               	retlw	0
  1729  0989  347F               	retlw	127
  1730  098A  3440               	retlw	64
  1731  098B  3440               	retlw	64
  1732  098C  3440               	retlw	64
  1733  098D  3440               	retlw	64
  1734  098E  3400               	retlw	0
  1735  098F  3400               	retlw	0
  1736  0990  3400               	retlw	0
  1737  0991  347F               	retlw	127
  1738  0992  3402               	retlw	2
  1739  0993  340C               	retlw	12
  1740  0994  3402               	retlw	2
  1741  0995  347F               	retlw	127
  1742  0996  3400               	retlw	0
  1743  0997  3400               	retlw	0
  1744  0998  3400               	retlw	0
  1745  0999  347F               	retlw	127
  1746  099A  3404               	retlw	4
  1747  099B  3408               	retlw	8
  1748  099C  3410               	retlw	16
  1749  099D  347F               	retlw	127
  1750  099E  3400               	retlw	0
  1751  099F  3400               	retlw	0
  1752  09A0  3400               	retlw	0
  1753  09A1  343E               	retlw	62
  1754  09A2  3441               	retlw	65
  1755  09A3  3441               	retlw	65
  1756  09A4  3441               	retlw	65
  1757  09A5  343E               	retlw	62
  1758  09A6  3400               	retlw	0
  1759  09A7  3400               	retlw	0
  1760  09A8  3400               	retlw	0
  1761  09A9  347F               	retlw	127
  1762  09AA  3409               	retlw	9
  1763  09AB  3409               	retlw	9
  1764  09AC  3409               	retlw	9
  1765  09AD  3406               	retlw	6
  1766  09AE  3400               	retlw	0
  1767  09AF  3400               	retlw	0
  1768  09B0  3400               	retlw	0
  1769  09B1  343E               	retlw	62
  1770  09B2  3441               	retlw	65
  1771  09B3  3451               	retlw	81
  1772  09B4  3421               	retlw	33
  1773  09B5  345E               	retlw	94
  1774  09B6  3400               	retlw	0
  1775  09B7  3400               	retlw	0
  1776  09B8  3400               	retlw	0
  1777  09B9  347F               	retlw	127
  1778  09BA  3409               	retlw	9
  1779  09BB  3419               	retlw	25
  1780  09BC  3429               	retlw	41
  1781  09BD  3446               	retlw	70
  1782  09BE  3400               	retlw	0
  1783  09BF  3400               	retlw	0
  1784  09C0  3400               	retlw	0
  1785  09C1  3426               	retlw	38
  1786  09C2  3449               	retlw	73
  1787  09C3  3449               	retlw	73
  1788  09C4  3449               	retlw	73
  1789  09C5  3432               	retlw	50
  1790  09C6  3400               	retlw	0
  1791  09C7  3400               	retlw	0
  1792  09C8  3400               	retlw	0
  1793  09C9  3401               	retlw	1
  1794  09CA  3401               	retlw	1
  1795  09CB  347F               	retlw	127
  1796  09CC  3401               	retlw	1
  1797  09CD  3401               	retlw	1
  1798  09CE  3400               	retlw	0
  1799  09CF  3400               	retlw	0
  1800  09D0  3400               	retlw	0
  1801  09D1  343F               	retlw	63
  1802  09D2  3440               	retlw	64
  1803  09D3  3440               	retlw	64
  1804  09D4  3440               	retlw	64
  1805  09D5  343F               	retlw	63
  1806  09D6  3400               	retlw	0
  1807  09D7  3400               	retlw	0
  1808  09D8  3400               	retlw	0
  1809  09D9  341F               	retlw	31
  1810  09DA  3420               	retlw	32
  1811  09DB  3440               	retlw	64
  1812  09DC  3420               	retlw	32
  1813  09DD  341F               	retlw	31
  1814  09DE  3400               	retlw	0
  1815  09DF  3400               	retlw	0
  1816  09E0  3400               	retlw	0
  1817  09E1  343F               	retlw	63
  1818  09E2  3440               	retlw	64
  1819  09E3  3438               	retlw	56
  1820  09E4  3440               	retlw	64
  1821  09E5  343F               	retlw	63
  1822  09E6  3400               	retlw	0
  1823  09E7  3400               	retlw	0
  1824  09E8  3400               	retlw	0
  1825  09E9  3463               	retlw	99
  1826  09EA  3414               	retlw	20
  1827  09EB  3408               	retlw	8
  1828  09EC  3414               	retlw	20
  1829  09ED  3463               	retlw	99
  1830  09EE  3400               	retlw	0
  1831  09EF  3400               	retlw	0
  1832  09F0  3400               	retlw	0
  1833  09F1  3403               	retlw	3
  1834  09F2  3404               	retlw	4
  1835  09F3  3478               	retlw	120
  1836  09F4  3404               	retlw	4
  1837  09F5  3403               	retlw	3
  1838  09F6  3400               	retlw	0
  1839  09F7  3400               	retlw	0
  1840  09F8  3400               	retlw	0
  1841  09F9  3461               	retlw	97
  1842  09FA  3451               	retlw	81
  1843  09FB  3449               	retlw	73
  1844  09FC  3445               	retlw	69
  1845  09FD  3443               	retlw	67
  1846  09FE  3400               	retlw	0
  1847  09FF  3400               	retlw	0
  1848  0A00  3400               	retlw	0
  1849  0A01  347F               	retlw	127
  1850  0A02  3441               	retlw	65
  1851  0A03  3441               	retlw	65
  1852  0A04  3400               	retlw	0
  1853  0A05  3400               	retlw	0
  1854  0A06  3400               	retlw	0
  1855  0A07  3400               	retlw	0
  1856  0A08  3400               	retlw	0
  1857  0A09  3402               	retlw	2
  1858  0A0A  3404               	retlw	4
  1859  0A0B  3408               	retlw	8
  1860  0A0C  3410               	retlw	16
  1861  0A0D  3420               	retlw	32
  1862  0A0E  3400               	retlw	0
  1863  0A0F  3400               	retlw	0
  1864  0A10  3400               	retlw	0
  1865  0A11  3441               	retlw	65
  1866  0A12  3441               	retlw	65
  1867  0A13  347F               	retlw	127
  1868  0A14  3400               	retlw	0
  1869  0A15  3400               	retlw	0
  1870  0A16  3400               	retlw	0
  1871  0A17  3400               	retlw	0
  1872  0A18  3400               	retlw	0
  1873  0A19  3404               	retlw	4
  1874  0A1A  3402               	retlw	2
  1875  0A1B  3401               	retlw	1
  1876  0A1C  3402               	retlw	2
  1877  0A1D  3404               	retlw	4
  1878  0A1E  3400               	retlw	0
  1879  0A1F  3400               	retlw	0
  1880  0A20  3400               	retlw	0
  1881  0A21  3480               	retlw	128
  1882  0A22  3480               	retlw	128
  1883  0A23  3480               	retlw	128
  1884  0A24  3480               	retlw	128
  1885  0A25  3480               	retlw	128
  1886  0A26  3400               	retlw	0
  1887  0A27  3400               	retlw	0
  1888  0A28  3400               	retlw	0
  1889  0A29  3401               	retlw	1
  1890  0A2A  3402               	retlw	2
  1891  0A2B  3404               	retlw	4
  1892  0A2C  3400               	retlw	0
  1893  0A2D  3400               	retlw	0
  1894  0A2E  3400               	retlw	0
  1895  0A2F  3400               	retlw	0
  1896  0A30  3400               	retlw	0
  1897  0A31  3420               	retlw	32
  1898  0A32  3454               	retlw	84
  1899  0A33  3454               	retlw	84
  1900  0A34  3454               	retlw	84
  1901  0A35  3478               	retlw	120
  1902  0A36  3400               	retlw	0
  1903  0A37  3400               	retlw	0
  1904  0A38  3400               	retlw	0
  1905  0A39  347F               	retlw	127
  1906  0A3A  3448               	retlw	72
  1907  0A3B  3444               	retlw	68
  1908  0A3C  3444               	retlw	68
  1909  0A3D  3438               	retlw	56
  1910  0A3E  3400               	retlw	0
  1911  0A3F  3400               	retlw	0
  1912  0A40  3400               	retlw	0
  1913  0A41  3438               	retlw	56
  1914  0A42  3444               	retlw	68
  1915  0A43  3444               	retlw	68
  1916  0A44  3428               	retlw	40
  1917  0A45  3400               	retlw	0
  1918  0A46  3400               	retlw	0
  1919  0A47  3400               	retlw	0
  1920  0A48  3400               	retlw	0
  1921  0A49  3438               	retlw	56
  1922  0A4A  3444               	retlw	68
  1923  0A4B  3444               	retlw	68
  1924  0A4C  3448               	retlw	72
  1925  0A4D  347F               	retlw	127
  1926  0A4E  3400               	retlw	0
  1927  0A4F  3400               	retlw	0
  1928  0A50  3400               	retlw	0
  1929  0A51  3438               	retlw	56
  1930  0A52  3454               	retlw	84
  1931  0A53  3454               	retlw	84
  1932  0A54  3454               	retlw	84
  1933  0A55  3418               	retlw	24
  1934  0A56  3400               	retlw	0
  1935  0A57  3400               	retlw	0
  1936  0A58  3400               	retlw	0
  1937  0A59  3408               	retlw	8
  1938  0A5A  347E               	retlw	126
  1939  0A5B  3409               	retlw	9
  1940  0A5C  3402               	retlw	2
  1941  0A5D  3400               	retlw	0
  1942  0A5E  3400               	retlw	0
  1943  0A5F  3400               	retlw	0
  1944  0A60  3400               	retlw	0
  1945  0A61  3418               	retlw	24
  1946  0A62  34A4               	retlw	164
  1947  0A63  34A4               	retlw	164
  1948  0A64  34A4               	retlw	164
  1949  0A65  347C               	retlw	124
  1950  0A66  3400               	retlw	0
  1951  0A67  3400               	retlw	0
  1952  0A68  3400               	retlw	0
  1953  0A69  347F               	retlw	127
  1954  0A6A  3408               	retlw	8
  1955  0A6B  3404               	retlw	4
  1956  0A6C  3404               	retlw	4
  1957  0A6D  3478               	retlw	120
  1958  0A6E  3400               	retlw	0
  1959  0A6F  3400               	retlw	0
  1960  0A70  3400               	retlw	0
  1961  0A71  3400               	retlw	0
  1962  0A72  347D               	retlw	125
  1963  0A73  3400               	retlw	0
  1964  0A74  3400               	retlw	0
  1965  0A75  3400               	retlw	0
  1966  0A76  3400               	retlw	0
  1967  0A77  3400               	retlw	0
  1968  0A78  3400               	retlw	0
  1969  0A79  3480               	retlw	128
  1970  0A7A  3484               	retlw	132
  1971  0A7B  347D               	retlw	125
  1972  0A7C  3400               	retlw	0
  1973  0A7D  3400               	retlw	0
  1974  0A7E  3400               	retlw	0
  1975  0A7F  3400               	retlw	0
  1976  0A80  3400               	retlw	0
  1977  0A81  347F               	retlw	127
  1978  0A82  3410               	retlw	16
  1979  0A83  3428               	retlw	40
  1980  0A84  3444               	retlw	68
  1981  0A85  3400               	retlw	0
  1982  0A86  3400               	retlw	0
  1983  0A87  3400               	retlw	0
  1984  0A88  3400               	retlw	0
  1985  0A89  3441               	retlw	65
  1986  0A8A  347F               	retlw	127
  1987  0A8B  3440               	retlw	64
  1988  0A8C  3400               	retlw	0
  1989  0A8D  3400               	retlw	0
  1990  0A8E  3400               	retlw	0
  1991  0A8F  3400               	retlw	0
  1992  0A90  3400               	retlw	0
  1993  0A91  347C               	retlw	124
  1994  0A92  3404               	retlw	4
  1995  0A93  3418               	retlw	24
  1996  0A94  3404               	retlw	4
  1997  0A95  3478               	retlw	120
  1998  0A96  3400               	retlw	0
  1999  0A97  3400               	retlw	0
  2000  0A98  3400               	retlw	0
  2001  0A99  347C               	retlw	124
  2002  0A9A  3408               	retlw	8
  2003  0A9B  3404               	retlw	4
  2004  0A9C  347C               	retlw	124
  2005  0A9D  3400               	retlw	0
  2006  0A9E  3400               	retlw	0
  2007  0A9F  3400               	retlw	0
  2008  0AA0  3400               	retlw	0
  2009  0AA1  3438               	retlw	56
  2010  0AA2  3444               	retlw	68
  2011  0AA3  3444               	retlw	68
  2012  0AA4  3438               	retlw	56
  2013  0AA5  3400               	retlw	0
  2014  0AA6  3400               	retlw	0
  2015  0AA7  3400               	retlw	0
  2016  0AA8  3400               	retlw	0
  2017  0AA9  34FC               	retlw	252
  2018  0AAA  3424               	retlw	36
  2019  0AAB  3424               	retlw	36
  2020  0AAC  3418               	retlw	24
  2021  0AAD  3400               	retlw	0
  2022  0AAE  3400               	retlw	0
  2023  0AAF  3400               	retlw	0
  2024  0AB0  3400               	retlw	0
  2025  0AB1  3418               	retlw	24
  2026  0AB2  3424               	retlw	36
  2027  0AB3  3424               	retlw	36
  2028  0AB4  34FC               	retlw	252
  2029  0AB5  3400               	retlw	0
  2030  0AB6  3400               	retlw	0
  2031  0AB7  3400               	retlw	0
  2032  0AB8  3400               	retlw	0
  2033  0AB9  3400               	retlw	0
  2034  0ABA  347C               	retlw	124
  2035  0ABB  3408               	retlw	8
  2036  0ABC  3404               	retlw	4
  2037  0ABD  3400               	retlw	0
  2038  0ABE  3400               	retlw	0
  2039  0ABF  3400               	retlw	0
  2040  0AC0  3400               	retlw	0
  2041  0AC1  3448               	retlw	72
  2042  0AC2  3454               	retlw	84
  2043  0AC3  3454               	retlw	84
  2044  0AC4  3424               	retlw	36
  2045  0AC5  3400               	retlw	0
  2046  0AC6  3400               	retlw	0
  2047  0AC7  3400               	retlw	0
  2048  0AC8  3400               	retlw	0
  2049  0AC9  3404               	retlw	4
  2050  0ACA  347F               	retlw	127
  2051  0ACB  3444               	retlw	68
  2052  0ACC  3400               	retlw	0
  2053  0ACD  3400               	retlw	0
  2054  0ACE  3400               	retlw	0
  2055  0ACF  3400               	retlw	0
  2056  0AD0  3400               	retlw	0
  2057  0AD1  343C               	retlw	60
  2058  0AD2  3440               	retlw	64
  2059  0AD3  3440               	retlw	64
  2060  0AD4  347C               	retlw	124
  2061  0AD5  3400               	retlw	0
  2062  0AD6  3400               	retlw	0
  2063  0AD7  3400               	retlw	0
  2064  0AD8  3400               	retlw	0
  2065  0AD9  341C               	retlw	28
  2066  0ADA  3420               	retlw	32
  2067  0ADB  3440               	retlw	64
  2068  0ADC  3420               	retlw	32
  2069  0ADD  341C               	retlw	28
  2070  0ADE  3400               	retlw	0
  2071  0ADF  3400               	retlw	0
  2072  0AE0  3400               	retlw	0
  2073  0AE1  343C               	retlw	60
  2074  0AE2  3440               	retlw	64
  2075  0AE3  3430               	retlw	48
  2076  0AE4  3440               	retlw	64
  2077  0AE5  343C               	retlw	60
  2078  0AE6  3400               	retlw	0
  2079  0AE7  3400               	retlw	0
  2080  0AE8  3400               	retlw	0
  2081  0AE9  3444               	retlw	68
  2082  0AEA  3428               	retlw	40
  2083  0AEB  3410               	retlw	16
  2084  0AEC  3428               	retlw	40
  2085  0AED  3444               	retlw	68
  2086  0AEE  3400               	retlw	0
  2087  0AEF  3400               	retlw	0
  2088  0AF0  3400               	retlw	0
  2089  0AF1  341C               	retlw	28
  2090  0AF2  34A0               	retlw	160
  2091  0AF3  34A0               	retlw	160
  2092  0AF4  347C               	retlw	124
  2093  0AF5  3400               	retlw	0
  2094  0AF6  3400               	retlw	0
  2095  0AF7  3400               	retlw	0
  2096  0AF8  3400               	retlw	0
  2097  0AF9  3444               	retlw	68
  2098  0AFA  3464               	retlw	100
  2099  0AFB  3454               	retlw	84
  2100  0AFC  344C               	retlw	76
  2101  0AFD  3444               	retlw	68
  2102  0AFE  3400               	retlw	0
  2103  0AFF  3400               	retlw	0
  2104  0B00  3400               	retlw	0
  2105  0B01  3408               	retlw	8
  2106  0B02  3436               	retlw	54
  2107  0B03  3441               	retlw	65
  2108  0B04  3400               	retlw	0
  2109  0B05  3400               	retlw	0
  2110  0B06  3400               	retlw	0
  2111  0B07  3400               	retlw	0
  2112  0B08  3400               	retlw	0
  2113  0B09  3400               	retlw	0
  2114  0B0A  347F               	retlw	127
  2115  0B0B  3400               	retlw	0
  2116  0B0C  3400               	retlw	0
  2117  0B0D  3400               	retlw	0
  2118  0B0E  3400               	retlw	0
  2119  0B0F  3400               	retlw	0
  2120  0B10  3400               	retlw	0
  2121  0B11  3441               	retlw	65
  2122  0B12  3436               	retlw	54
  2123  0B13  3408               	retlw	8
  2124  0B14  3400               	retlw	0
  2125  0B15  3400               	retlw	0
  2126  0B16  3400               	retlw	0
  2127  0B17  3400               	retlw	0
  2128  0B18  3400               	retlw	0
  2129  0B19  3402               	retlw	2
  2130  0B1A  3401               	retlw	1
  2131  0B1B  3401               	retlw	1
  2132  0B1C  3402               	retlw	2
  2133  0B1D  3401               	retlw	1
  2134  0B1E  3400               	retlw	0
  2135  0B1F  3400               	retlw	0
  2136  0B20  3400               	retlw	0
  2137  0B21  3402               	retlw	2
  2138  0B22  3405               	retlw	5
  2139  0B23  3405               	retlw	5
  2140  0B24  3402               	retlw	2
  2141  0B25  3400               	retlw	0
  2142  0B26  3400               	retlw	0
  2143  0B27  3400               	retlw	0
  2144  0B28                     __end_of_OledFont:	
  2145  0011                     _PIR1bits	set	17
  2146  009C                     _ADRESH	set	156
  2147  009B                     _ADRESL	set	155
  2148  009D                     _ADCON0bits	set	157
  2149  009E                     _ADCON1bits	set	158
  2150  008E                     _TRISCbits	set	142
  2151  04CF                     _SPLLEN	set	1231
  2152  04CE                     _IRCF3	set	1230
  2153  04CD                     _IRCF2	set	1229
  2154  04CC                     _IRCF1	set	1228
  2155  04CB                     _IRCF0	set	1227
  2156  04C9                     _SCS1	set	1225
  2157  04C8                     _SCS0	set	1224
  2158  0190                     _ANSELEbits	set	400
  2159  018E                     _ANSELCbits	set	398
  2160  0216                     _SSPCON2bits	set	534
  2161  0211                     _SSPBUF	set	529
  2162  0212                     _SSPADD	set	530
  2163  0215                     _SSPCONbits	set	533
  2164  0E20                     _SSPCLKPPSbits	set	3616
  2165  0E21                     _SSPDATPPSbits	set	3617
  2166  0E0F                     _PPSLOCKbits	set	3599
  2167  0E0F                     _PPSLOCK	set	3599
  2168  0EA5                     _RC5PPSbits	set	3749
  2169  0EA4                     _RC4PPSbits	set	3748
  2170  0B28                     STR_5:	
  2171  0B28  3425               	retlw	37	;'%'
  2172  0B29  346C               	retlw	108	;'l'
  2173  0B2A  3475               	retlw	117	;'u'
  2174  0B2B  342E               	retlw	46	;'.'
  2175  0B2C  3425               	retlw	37	;'%'
  2176  0B2D  3436               	retlw	54	;'6'
  2177  0B2E  342E               	retlw	46	;'.'
  2178  0B2F  3436               	retlw	54	;'6'
  2179  0B30  346C               	retlw	108	;'l'
  2180  0B31  3475               	retlw	117	;'u'
  2181  0B32  3400               	retlw	0
  2182  0B33                     STR_3:	
  2183  0B33  3457               	retlw	87	;'W'
  2184  0B34  3472               	retlw	114	;'r'
  2185  0B35  3469               	retlw	105	;'i'
  2186  0B36  3474               	retlw	116	;'t'
  2187  0B37  3465               	retlw	101	;'e'
  2188  0B38  3400               	retlw	0
  2189  0B39                     STR_1:	
  2190  0B39  3420               	retlw	32	;' '
  2191  0B3A  3420               	retlw	32	;' '
  2192  0B3B  3420               	retlw	32	;' '
  2193  0B3C  3420               	retlw	32	;' '
  2194  0B3D  3420               	retlw	32	;' '
  2195  0B3E  3400               	retlw	0
  2196  0B3F                     STR_4:	
  2197  0B3F  3447               	retlw	71	;'G'
  2198  0B40  3465               	retlw	101	;'e'
  2199  0B41  3474               	retlw	116	;'t'
  2200  0B42  3400               	retlw	0
  2201  0B39                     
  2202                           ; #config settings
  2203  0000                     
  2204                           	psect	cinit
  2205  07E2                     start_initialization:	
  2206  07E2                     __initialization:	
  2207                           
  2208                           ; Initialize objects allocated to BANK0
  2209  07E2  318F  2724  3187   	fcall	__pidataBANK0	;fetch initializer
  2210  07E5  00E2               	movwf	__pdataBANK0& (0+127)
  2211  07E6  318F  2725  3187   	fcall	__pidataBANK0+1	;fetch initializer
  2212  07E9  00E3               	movwf	(__pdataBANK0+1)& (0+127)
  2213  07EA  318F  2726  3187   	fcall	__pidataBANK0+2	;fetch initializer
  2214  07ED  00E4               	movwf	(__pdataBANK0+2)& (0+127)
  2215                           
  2216                           ; Clear objects allocated to BANK0
  2217  07EE  3058               	movlw	low __pbssBANK0
  2218  07EF  0084               	movwf	4
  2219  07F0  3000               	movlw	high __pbssBANK0
  2220  07F1  0085               	movwf	5
  2221  07F2  300A               	movlw	10
  2222  07F3  318F  2727  3187   	fcall	clear_ram0
  2223                           
  2224                           ; Clear objects allocated to BANK1
  2225  07F6  30A0               	movlw	low __pbssBANK1
  2226  07F7  0084               	movwf	4
  2227  07F8  3000               	movlw	high __pbssBANK1
  2228  07F9  0085               	movwf	5
  2229  07FA  3011               	movlw	17
  2230  07FB  318F  2727         	fcall	clear_ram0
  2231  07FD                     end_of_initialization:	
  2232                           ;End of C runtime variable initialization code
  2233                           
  2234  07FD                     __end_of__initialization:	
  2235  07FD  0020               	movlb	0
  2236  07FE  3183  2B13         	ljmp	_main	;jump to C main() function
  2237                           
  2238                           	psect	bssBANK0
  2239  0058                     __pbssBANK0:	
  2240  0058                     _result:	
  2241  0058                     	ds	3
  2242  005B                     _incoming_data:	
  2243  005B                     	ds	2
  2244  005D                     _block_address:	
  2245  005D                     	ds	2
  2246  005F                     _cel:	
  2247  005F                     	ds	3
  2248                           
  2249                           	psect	dataBANK0
  2250  0062                     __pdataBANK0:	
  2251  0062                     _device_address:	
  2252  0062                     	ds	2
  2253  0064                     _celsius:	
  2254  0064                     	ds	1
  2255                           
  2256                           	psect	bssBANK1
  2257  00A0                     __pbssBANK1:	
  2258  00A0                     ftoa@buf:	
  2259  00A0                     	ds	17
  2260                           
  2261                           	psect	clrtext
  2262  0F27                     clear_ram0:	
  2263                           ;	Called with FSR0 containing the base address, and
  2264                           ;	WREG with the size to clear
  2265                           
  2266  0F27  0064               	clrwdt	;clear the watchdog before getting into this loop
  2267  0F28                     clrloop0:	
  2268  0F28  0180               	clrf	0	;clear RAM location pointed to by FSR
  2269  0F29  3101               	addfsr 0,1
  2270  0F2A  0B89               	decfsz	9,f	;Have we reached the end of clearing yet?
  2271  0F2B  2F28               	goto	clrloop0	;have we reached the end yet?
  2272  0F2C  3400               	retlw	0	;all done for this memory range, return
  2273                           
  2274                           	psect	cstackCOMMON
  2275  0070                     __pcstackCOMMON:	
  2276  0070                     ?_Send_I2C_StartBit:	
  2277  0070                     ??_Send_I2C_StartBit:	
  2278                           ; 1 bytes @ 0x0
  2279                           
  2280  0070                     ?_Send_I2C_StopBit:	
  2281                           ; 1 bytes @ 0x0
  2282                           
  2283  0070                     ??_Send_I2C_StopBit:	
  2284                           ; 1 bytes @ 0x0
  2285                           
  2286  0070                     ?_memmove:	
  2287                           ; 1 bytes @ 0x0
  2288                           
  2289  0070                     ?_I2C_Init:	
  2290                           ; 1 bytes @ 0x0
  2291                           
  2292  0070                     ??_I2C_Init:	
  2293                           ; 1 bytes @ 0x0
  2294                           
  2295  0070                     ?_Read_Temperature:	
  2296                           ; 1 bytes @ 0x0
  2297                           
  2298  0070                     ?_Send_I2C_ControlByte:	
  2299                           ; 1 bytes @ 0x0
  2300                           
  2301  0070                     ?_Send_I2C_NAK:	
  2302                           ; 1 bytes @ 0x0
  2303                           
  2304  0070                     ??_Send_I2C_NAK:	
  2305                           ; 1 bytes @ 0x0
  2306                           
  2307  0070                     ?_internal_16:	
  2308                           ; 1 bytes @ 0x0
  2309                           
  2310  0070                     ??_internal_16:	
  2311                           ; 1 bytes @ 0x0
  2312                           
  2313  0070                     ?_OLED_Command:	
  2314                           ; 1 bytes @ 0x0
  2315                           
  2316  0070                     ?_OLED_Init:	
  2317                           ; 1 bytes @ 0x0
  2318                           
  2319  0070                     ?_OLED_PutChar:	
  2320                           ; 1 bytes @ 0x0
  2321                           
  2322  0070                     ?_OLED_Clear:	
  2323                           ; 1 bytes @ 0x0
  2324                           
  2325  0070                     ?_OLED_Write_Integer:	
  2326                           ; 1 bytes @ 0x0
  2327                           
  2328  0070                     ?_initMain:	
  2329                           ; 1 bytes @ 0x0
  2330                           
  2331  0070                     ??_initMain:	
  2332                           ; 1 bytes @ 0x0
  2333                           
  2334  0070                     ?_main:	
  2335                           ; 1 bytes @ 0x0
  2336                           
  2337  0070                     ?_Read_I2C_Data:	
  2338                           ; 1 bytes @ 0x0
  2339                           
  2340  0070                     ?___lwdiv:	
  2341                           ; 2 bytes @ 0x0
  2342                           
  2343  0070                     ?___lwmod:	
  2344                           ; 2 bytes @ 0x0
  2345                           
  2346  0070                     ?___ftpack:	
  2347                           ; 2 bytes @ 0x0
  2348                           
  2349  0070                     ?___fttol:	
  2350                           ; 3 bytes @ 0x0
  2351                           
  2352  0070                     Send_I2C_ControlByte@BlockAddress:	
  2353                           ; 4 bytes @ 0x0
  2354                           
  2355  0070                     ___lwdiv@divisor:	
  2356                           ; 2 bytes @ 0x0
  2357                           
  2358  0070                     ___lwmod@divisor:	
  2359                           ; 2 bytes @ 0x0
  2360                           
  2361  0070                     memmove@s1:	
  2362                           ; 2 bytes @ 0x0
  2363                           
  2364  0070                     ___ftpack@arg:	
  2365                           ; 2 bytes @ 0x0
  2366                           
  2367  0070                     ___fttol@f1:	
  2368                           ; 3 bytes @ 0x0
  2369                           
  2370                           
  2371                           ; 3 bytes @ 0x0
  2372  0070                     	ds	2
  2373  0072                     ??_Read_I2C_Data:	
  2374  0072                     Send_I2C_ControlByte@RW_bit:	
  2375                           ; 1 bytes @ 0x2
  2376                           
  2377  0072                     ___lwdiv@dividend:	
  2378                           ; 2 bytes @ 0x2
  2379                           
  2380  0072                     ___lwmod@dividend:	
  2381                           ; 2 bytes @ 0x2
  2382                           
  2383  0072                     memmove@n:	
  2384                           ; 2 bytes @ 0x2
  2385                           
  2386                           
  2387                           ; 2 bytes @ 0x2
  2388  0072                     	ds	1
  2389  0073                     ___ftpack@exp:	
  2390                           
  2391                           ; 1 bytes @ 0x3
  2392  0073                     	ds	1
  2393  0074                     ??_memmove:	
  2394  0074                     ??_Send_I2C_ControlByte:	
  2395                           ; 1 bytes @ 0x4
  2396                           
  2397  0074                     ??___fttol:	
  2398                           ; 1 bytes @ 0x4
  2399                           
  2400  0074                     ??___lwdiv:	
  2401                           ; 1 bytes @ 0x4
  2402                           
  2403  0074                     ??___lwmod:	
  2404                           ; 1 bytes @ 0x4
  2405                           
  2406  0074                     ___ftpack@sign:	
  2407                           ; 1 bytes @ 0x4
  2408                           
  2409                           
  2410                           ; 1 bytes @ 0x4
  2411  0074                     	ds	1
  2412  0075                     ??___ftpack:	
  2413  0075                     ___lwmod@counter:	
  2414                           ; 1 bytes @ 0x5
  2415                           
  2416  0075                     ___lwdiv@quotient:	
  2417                           ; 1 bytes @ 0x5
  2418                           
  2419                           
  2420                           ; 2 bytes @ 0x5
  2421  0075                     	ds	2
  2422  0077                     ___lwdiv@counter:	
  2423                           
  2424                           ; 1 bytes @ 0x7
  2425  0077                     	ds	1
  2426  0078                     ?_utoa:	
  2427  0078                     ?___awtoft:	
  2428                           ; 1 bytes @ 0x8
  2429                           
  2430  0078                     ?___ftadd:	
  2431                           ; 3 bytes @ 0x8
  2432                           
  2433  0078                     ___fttol@sign1:	
  2434                           ; 3 bytes @ 0x8
  2435                           
  2436  0078                     memmove@d1:	
  2437                           ; 1 bytes @ 0x8
  2438                           
  2439  0078                     ___awtoft@c:	
  2440                           ; 1 bytes @ 0x8
  2441                           
  2442  0078                     utoa@val:	
  2443                           ; 2 bytes @ 0x8
  2444                           
  2445  0078                     ___ftadd@f1:	
  2446                           ; 2 bytes @ 0x8
  2447                           
  2448                           
  2449                           ; 3 bytes @ 0x8
  2450  0078                     	ds	1
  2451  0079                     memmove@s:	
  2452  0079                     ___fttol@lval:	
  2453                           ; 2 bytes @ 0x9
  2454                           
  2455                           
  2456                           ; 4 bytes @ 0x9
  2457  0079                     	ds	1
  2458  007A                     utoa@base:	
  2459                           
  2460                           ; 2 bytes @ 0xA
  2461  007A                     	ds	1
  2462  007B                     ??___awtoft:	
  2463  007B                     memmove@d:	
  2464                           ; 1 bytes @ 0xB
  2465                           
  2466  007B                     ___ftadd@f2:	
  2467                           ; 1 bytes @ 0xB
  2468                           
  2469                           
  2470                           ; 3 bytes @ 0xB
  2471  007B                     	ds	1
  2472  007C                     ??_utoa:	
  2473                           
  2474                           ; 1 bytes @ 0xC
  2475  007C                     	ds	1
  2476  007D                     ??_itoa:	
  2477  007D                     ___awtoft@sign:	
  2478                           ; 1 bytes @ 0xD
  2479                           
  2480  007D                     ___fttol@exp1:	
  2481                           ; 1 bytes @ 0xD
  2482                           
  2483                           
  2484                           ; 1 bytes @ 0xD
  2485  007D                     	ds	1
  2486  007E                     ??_Send_I2C_Data:	
  2487  007E                     ??_OLED_Init:	
  2488                           ; 1 bytes @ 0xE
  2489                           
  2490                           
  2491                           	psect	cstackBANK0
  2492  0020                     __pcstackBANK0:	
  2493                           ; 1 bytes @ 0xE
  2494                           
  2495  0020                     ?_Send_I2C_Data:	
  2496  0020                     ??___ftadd:	
  2497                           ; 1 bytes @ 0x0
  2498                           
  2499  0020                     Send_I2C_Data@databyte:	
  2500                           ; 1 bytes @ 0x0
  2501                           
  2502  0020                     utoa@v:	
  2503                           ; 2 bytes @ 0x0
  2504                           
  2505                           
  2506                           ; 2 bytes @ 0x0
  2507  0020                     	ds	2
  2508  0022                     ??_OLED_Command:	
  2509  0022                     ??_OLED_PutChar:	
  2510                           ; 1 bytes @ 0x2
  2511                           
  2512  0022                     utoa@c:	
  2513                           ; 1 bytes @ 0x2
  2514                           
  2515                           
  2516                           ; 1 bytes @ 0x2
  2517  0022                     	ds	1
  2518  0023                     utoa@buf:	
  2519                           
  2520                           ; 1 bytes @ 0x3
  2521  0023                     	ds	1
  2522  0024                     ?_itoa:	
  2523  0024                     OLED_Command@temp:	
  2524                           ; 1 bytes @ 0x4
  2525                           
  2526  0024                     ___ftadd@sign:	
  2527                           ; 1 bytes @ 0x4
  2528                           
  2529  0024                     itoa@val:	
  2530                           ; 1 bytes @ 0x4
  2531                           
  2532                           
  2533                           ; 2 bytes @ 0x4
  2534  0024                     	ds	1
  2535  0025                     ?_OLED_YX:	
  2536  0025                     OLED_YX@Column:	
  2537                           ; 1 bytes @ 0x5
  2538                           
  2539  0025                     ___ftadd@exp2:	
  2540                           ; 1 bytes @ 0x5
  2541                           
  2542                           
  2543                           ; 1 bytes @ 0x5
  2544  0025                     	ds	1
  2545  0026                     ??_OLED_YX:	
  2546  0026                     ___ftadd@exp1:	
  2547                           ; 1 bytes @ 0x6
  2548                           
  2549  0026                     itoa@base:	
  2550                           ; 1 bytes @ 0x6
  2551                           
  2552                           
  2553                           ; 2 bytes @ 0x6
  2554  0026                     	ds	1
  2555  0027                     ?___ftmul:	
  2556  0027                     ___ftmul@f1:	
  2557                           ; 3 bytes @ 0x7
  2558                           
  2559                           
  2560                           ; 3 bytes @ 0x7
  2561  0027                     	ds	1
  2562  0028                     itoa@cp:	
  2563  0028                     OLED_PutChar@bytes:	
  2564                           ; 1 bytes @ 0x8
  2565                           
  2566                           
  2567                           ; 9 bytes @ 0x8
  2568  0028                     	ds	1
  2569  0029                     OLED_YX@Row:	
  2570  0029                     itoa@buf:	
  2571                           ; 1 bytes @ 0x9
  2572                           
  2573                           
  2574                           ; 1 bytes @ 0x9
  2575  0029                     	ds	1
  2576  002A                     ___ftmul@f2:	
  2577                           
  2578                           ; 3 bytes @ 0xA
  2579  002A                     	ds	3
  2580  002D                     ??___ftmul:	
  2581                           
  2582                           ; 1 bytes @ 0xD
  2583  002D                     	ds	4
  2584  0031                     ___ftmul@exp:	
  2585  0031                     OLED_PutChar@base:	
  2586                           ; 1 bytes @ 0x11
  2587                           
  2588                           
  2589                           ; 2 bytes @ 0x11
  2590  0031                     	ds	1
  2591  0032                     ___ftmul@f3_as_product:	
  2592                           
  2593                           ; 3 bytes @ 0x12
  2594  0032                     	ds	1
  2595  0033                     OLED_PutChar@i:	
  2596                           
  2597                           ; 2 bytes @ 0x13
  2598  0033                     	ds	2
  2599  0035                     OLED_PutChar@ch:	
  2600  0035                     ___ftmul@cntr:	
  2601                           ; 1 bytes @ 0x15
  2602                           
  2603                           
  2604                           ; 1 bytes @ 0x15
  2605  0035                     	ds	1
  2606  0036                     ??_OLED_Clear:	
  2607  0036                     ?_OLED_Write_String:	
  2608                           ; 1 bytes @ 0x16
  2609                           
  2610  0036                     ___ftmul@sign:	
  2611                           ; 1 bytes @ 0x16
  2612                           
  2613  0036                     OLED_Write_String@s:	
  2614                           ; 1 bytes @ 0x16
  2615                           
  2616                           
  2617                           ; 2 bytes @ 0x16
  2618  0036                     	ds	1
  2619  0037                     ?___ftdiv:	
  2620  0037                     OLED_Clear@row:	
  2621                           ; 3 bytes @ 0x17
  2622                           
  2623  0037                     ___ftdiv@f2:	
  2624                           ; 2 bytes @ 0x17
  2625                           
  2626                           
  2627                           ; 3 bytes @ 0x17
  2628  0037                     	ds	1
  2629  0038                     ??_OLED_Write_String:	
  2630                           
  2631                           ; 1 bytes @ 0x18
  2632  0038                     	ds	1
  2633  0039                     ??_OLED_Write_Integer:	
  2634  0039                     OLED_Clear@col:	
  2635                           ; 1 bytes @ 0x19
  2636                           
  2637                           
  2638                           ; 2 bytes @ 0x19
  2639  0039                     	ds	1
  2640  003A                     ___ftdiv@f1:	
  2641                           
  2642                           ; 3 bytes @ 0x1A
  2643  003A                     	ds	2
  2644  003C                     OLED_Write_Integer@i:	
  2645                           
  2646                           ; 1 bytes @ 0x1C
  2647  003C                     	ds	1
  2648  003D                     ??___ftdiv:	
  2649  003D                     OLED_Write_Integer@buff11:	
  2650                           ; 1 bytes @ 0x1D
  2651                           
  2652                           
  2653                           ; 1 bytes @ 0x1D
  2654  003D                     	ds	1
  2655  003E                     OLED_Write_Integer@status:	
  2656                           
  2657                           ; 2 bytes @ 0x1E
  2658  003E                     	ds	2
  2659  0040                     ?_Write_Temperature:	
  2660  0040                     ?_Display_Temperature:	
  2661                           ; 1 bytes @ 0x20
  2662                           
  2663  0040                     Write_Temperature@word_address:	
  2664                           ; 1 bytes @ 0x20
  2665                           
  2666  0040                     Display_Temperature@word_address:	
  2667                           ; 2 bytes @ 0x20
  2668                           
  2669                           
  2670                           ; 2 bytes @ 0x20
  2671  0040                     	ds	1
  2672  0041                     ___ftdiv@cntr:	
  2673                           
  2674                           ; 1 bytes @ 0x21
  2675  0041                     	ds	1
  2676  0042                     ??_Write_Temperature:	
  2677  0042                     ??_Display_Temperature:	
  2678                           ; 1 bytes @ 0x22
  2679                           
  2680  0042                     ___ftdiv@f3:	
  2681                           ; 1 bytes @ 0x22
  2682                           
  2683                           
  2684                           ; 3 bytes @ 0x22
  2685  0042                     	ds	3
  2686  0045                     ___ftdiv@exp:	
  2687                           
  2688                           ; 1 bytes @ 0x25
  2689  0045                     	ds	1
  2690  0046                     ___ftdiv@sign:	
  2691                           
  2692                           ; 1 bytes @ 0x26
  2693  0046                     	ds	1
  2694  0047                     ??_Read_Temperature:	
  2695                           
  2696                           ; 1 bytes @ 0x27
  2697  0047                     	ds	5
  2698  004C                     Read_Temperature@conversion10:	
  2699                           
  2700                           ; 3 bytes @ 0x2C
  2701  004C                     	ds	3
  2702  004F                     Read_Temperature@farenheit:	
  2703                           
  2704                           ; 3 bytes @ 0x2F
  2705  004F                     	ds	3
  2706  0052                     ??_main:	
  2707                           
  2708                           ; 1 bytes @ 0x32
  2709  0052                     	ds	2
  2710  0054                     main@i:	
  2711                           
  2712                           ; 2 bytes @ 0x34
  2713  0054                     	ds	2
  2714  0056                     main@i_337:	
  2715                           
  2716                           ; 2 bytes @ 0x36
  2717  0056                     	ds	2
  2718                           
  2719                           	psect	maintext
  2720  0313                     __pmaintext:	
  2721 ;;
  2722 ;;Main: autosize = 0, tempsize = 2, incstack = 0, save=0
  2723 ;;
  2724 ;; *************** function _main *****************
  2725 ;; Defined at:
  2726 ;;		line 127 in file "Main.c"
  2727 ;; Parameters:    Size  Location     Type
  2728 ;;		None
  2729 ;; Auto vars:     Size  Location     Type
  2730 ;;  i               2   54[BANK0 ] int 
  2731 ;;  i               2   52[BANK0 ] int 
  2732 ;; Return value:  Size  Location     Type
  2733 ;;                  1    wreg      void 
  2734 ;; Registers used:
  2735 ;;		wreg, fsr0l, fsr0h, fsr1l, fsr1h, status,2, status,0, pclath, cstack
  2736 ;; Tracked objects:
  2737 ;;		On entry : B1F/0
  2738 ;;		On exit  : 0/0
  2739 ;;		Unchanged: 0/0
  2740 ;; Data sizes:     COMMON   BANK0   BANK1   BANK2   BANK3   BANK4   BANK5   BANK6   BANK7   BANK8   BANK9  BANK10  BANK1
      +1  BANK12
  2741 ;;      Params:         0       0       0       0       0       0       0       0       0       0       0       0       
      +0       0
  2742 ;;      Locals:         0       4       0       0       0       0       0       0       0       0       0       0       
      +0       0
  2743 ;;      Temps:          0       2       0       0       0       0       0       0       0       0       0       0       
      +0       0
  2744 ;;      Totals:         0       6       0       0       0       0       0       0       0       0       0       0       
      +0       0
  2745 ;;Total ram usage:        6 bytes
  2746 ;; Hardware stack levels required when called:    5
  2747 ;; This function calls:
  2748 ;;		_Display_Temperature
  2749 ;;		_I2C_Init
  2750 ;;		_OLED_Clear
  2751 ;;		_OLED_Init
  2752 ;;		_Read_Temperature
  2753 ;;		_Write_Temperature
  2754 ;;		_initMain
  2755 ;; This function is called by:
  2756 ;;		Startup code after reset
  2757 ;; This function uses a non-reentrant model
  2758 ;;
  2759                           
  2760                           
  2761                           ;psect for function _main
  2762  0313                     _main:	
  2763                           
  2764                           ;Main.c: 128: initMain();
  2765                           
  2766                           ;incstack = 0
  2767                           ; Regs used in _main: [wreg-fsr1h+status,2+status,0+pclath+cstack]
  2768  0313  3180  20E7  3183   	fcall	_initMain
  2769                           
  2770                           ;Main.c: 131: I2C_Init();
  2771  0316  318F  2773  3183   	fcall	_I2C_Init
  2772                           
  2773                           ;Main.c: 134: OLED_Init();
  2774  0319  3181  21E6  3183   	fcall	_OLED_Init
  2775                           
  2776                           ;Main.c: 137: OLED_Clear();
  2777  031C  3180  2083  3183   	fcall	_OLED_Clear
  2778  031F                     l1953:	
  2779                           ;Main.c: 139: while(1){
  2780                           
  2781                           
  2782                           ;Main.c: 141: for (int i = 0; i <= 3; i++){
  2783  031F  0020               	movlb	0	; select bank0
  2784  0320  01D4               	clrf	main@i
  2785  0321  01D5               	clrf	main@i+1
  2786  0322  0855               	movf	main@i+1,w
  2787  0323  3A80               	xorlw	128
  2788  0324  00D2               	movwf	??_main
  2789  0325  3080               	movlw	128
  2790  0326  0252               	subwf	??_main,w
  2791  0327  1D03               	skipz
  2792  0328  2B2B               	goto	u2185
  2793  0329  3004               	movlw	4
  2794  032A  0254               	subwf	main@i,w
  2795  032B                     u2185:	
  2796  032B  1803               	btfsc	3,0
  2797  032C  2B48               	goto	l1967
  2798  032D                     l1959:	
  2799                           
  2800                           ;Main.c: 142: Read_Temperature();
  2801  032D  3184  24F5  3183   	fcall	_Read_Temperature
  2802                           
  2803                           ;Main.c: 143: Write_Temperature(i);
  2804  0330  0020               	movlb	0	; select bank0
  2805  0331  0855               	movf	main@i+1,w
  2806  0332  00C1               	movwf	Write_Temperature@word_address+1
  2807  0333  0854               	movf	main@i,w
  2808  0334  00C0               	movwf	Write_Temperature@word_address
  2809  0335  3181  2183  3183   	fcall	_Write_Temperature
  2810  0338  3001               	movlw	1
  2811  0339  0020               	movlb	0	; select bank0
  2812  033A  07D4               	addwf	main@i,f
  2813  033B  3000               	movlw	0
  2814  033C  3DD5               	addwfc	main@i+1,f
  2815  033D  0855               	movf	main@i+1,w
  2816  033E  3A80               	xorlw	128
  2817  033F  00D2               	movwf	??_main
  2818  0340  3080               	movlw	128
  2819  0341  0252               	subwf	??_main,w
  2820  0342  1D03               	skipz
  2821  0343  2B46               	goto	u2195
  2822  0344  3004               	movlw	4
  2823  0345  0254               	subwf	main@i,w
  2824  0346                     u2195:	
  2825  0346  1C03               	skipc
  2826  0347  2B2D               	goto	l1959
  2827  0348                     l1967:	
  2828                           
  2829                           ;Main.c: 144: }
  2830                           ;Main.c: 146: for (int i = 0; i <= 3; i++){
  2831  0348  0020               	movlb	0	; select bank0
  2832  0349  01D6               	clrf	main@i_337
  2833  034A  01D7               	clrf	main@i_337+1
  2834  034B  0857               	movf	main@i_337+1,w
  2835  034C  3A80               	xorlw	128
  2836  034D  00D2               	movwf	??_main
  2837  034E  3080               	movlw	128
  2838  034F  0252               	subwf	??_main,w
  2839  0350  1D03               	skipz
  2840  0351  2B54               	goto	u2205
  2841  0352  3004               	movlw	4
  2842  0353  0256               	subwf	main@i_337,w
  2843  0354                     u2205:	
  2844  0354  1803               	btfsc	3,0
  2845  0355  2B6E               	goto	l1979
  2846  0356                     l1973:	
  2847                           
  2848                           ;Main.c: 147: Display_Temperature(i);
  2849  0356  0020               	movlb	0	; select bank0
  2850  0357  0857               	movf	main@i_337+1,w
  2851  0358  00C1               	movwf	Display_Temperature@word_address+1
  2852  0359  0856               	movf	main@i_337,w
  2853  035A  00C0               	movwf	Display_Temperature@word_address
  2854  035B  3183  237C  3183   	fcall	_Display_Temperature
  2855  035E  3001               	movlw	1
  2856  035F  0020               	movlb	0	; select bank0
  2857  0360  07D6               	addwf	main@i_337,f
  2858  0361  3000               	movlw	0
  2859  0362  3DD7               	addwfc	main@i_337+1,f
  2860  0363  0857               	movf	main@i_337+1,w
  2861  0364  3A80               	xorlw	128
  2862  0365  00D2               	movwf	??_main
  2863  0366  3080               	movlw	128
  2864  0367  0252               	subwf	??_main,w
  2865  0368  1D03               	skipz
  2866  0369  2B6C               	goto	u2215
  2867  036A  3004               	movlw	4
  2868  036B  0256               	subwf	main@i_337,w
  2869  036C                     u2215:	
  2870  036C  1C03               	skipc
  2871  036D  2B56               	goto	l1973
  2872  036E                     l1979:	
  2873                           
  2874                           ;Main.c: 148: }
  2875                           ;Main.c: 151: _delay((unsigned long)((1000)*(16000000/4000.0)));
  2876  036E  3015               	movlw	21
  2877  036F  0020               	movlb	0	; select bank0
  2878  0370  00D3               	movwf	??_main+1
  2879  0371  304B               	movlw	75
  2880  0372  00D2               	movwf	??_main
  2881  0373  30BE               	movlw	190
  2882  0374                     u2227:	
  2883  0374  0B89               	decfsz	9,f
  2884  0375  2B74               	goto	u2227
  2885  0376  0BD2               	decfsz	??_main,f
  2886  0377  2B74               	goto	u2227
  2887  0378  0BD3               	decfsz	??_main+1,f
  2888  0379  2B74               	goto	u2227
  2889  037A  0000               	nop
  2890  037B  2B1F               	goto	l1953
  2891  037C                     __end_of_main:	
  2892                           ;Main.c: 152: }
  2893                           ;Main.c: 154: return;
  2894                           
  2895                           
  2896                           	psect	text1
  2897  00E7                     __ptext1:	
  2898 ;; *************** function _initMain *****************
  2899 ;; Defined at:
  2900 ;;		line 62 in file "Main.c"
  2901 ;; Parameters:    Size  Location     Type
  2902 ;;		None
  2903 ;; Auto vars:     Size  Location     Type
  2904 ;;		None
  2905 ;; Return value:  Size  Location     Type
  2906 ;;                  1    wreg      void 
  2907 ;; Registers used:
  2908 ;;		wreg, status,2, status,0, pclath, cstack
  2909 ;; Tracked objects:
  2910 ;;		On entry : 0/0
  2911 ;;		On exit  : 0/0
  2912 ;;		Unchanged: 0/0
  2913 ;; Data sizes:     COMMON   BANK0   BANK1   BANK2   BANK3   BANK4   BANK5   BANK6   BANK7   BANK8   BANK9  BANK10  BANK1
      +1  BANK12
  2914 ;;      Params:         0       0       0       0       0       0       0       0       0       0       0       0       
      +0       0
  2915 ;;      Locals:         0       0       0       0       0       0       0       0       0       0       0       0       
      +0       0
  2916 ;;      Temps:          0       0       0       0       0       0       0       0       0       0       0       0       
      +0       0
  2917 ;;      Totals:         0       0       0       0       0       0       0       0       0       0       0       0       
      +0       0
  2918 ;;Total ram usage:        0 bytes
  2919 ;; Hardware stack levels used:    1
  2920 ;; Hardware stack levels required when called:    1
  2921 ;; This function calls:
  2922 ;;		_internal_16
  2923 ;; This function is called by:
  2924 ;;		_main
  2925 ;; This function uses a non-reentrant model
  2926 ;;
  2927                           
  2928                           
  2929                           ;psect for function _initMain
  2930  00E7                     _initMain:	
  2931                           
  2932                           ;Main.c: 64: internal_16();
  2933                           
  2934                           ;incstack = 0
  2935                           ; Regs used in _initMain: [wreg+status,2+status,0+pclath+cstack]
  2936  00E7  318F  274F  3180   	fcall	_internal_16
  2937                           
  2938                           ;Main.c: 72: ANSELCbits.ANSC4 = 0;
  2939  00EA  0023               	movlb	3	; select bank3
  2940  00EB  120E               	bcf	14,4	;volatile
  2941                           
  2942                           ;Main.c: 73: ANSELCbits.ANSC5 = 0;
  2943  00EC  128E               	bcf	14,5	;volatile
  2944                           
  2945                           ;Main.c: 75: TRISCbits.TRISC4 = 1;
  2946  00ED  0021               	movlb	1	; select bank1
  2947  00EE  160E               	bsf	14,4	;volatile
  2948                           
  2949                           ;Main.c: 76: TRISCbits.TRISC5 = 1;
  2950  00EF  168E               	bsf	14,5	;volatile
  2951                           
  2952                           ;Main.c: 78: PPSLOCK = 0x55;
  2953  00F0  3055               	movlw	85
  2954  00F1  003C               	movlb	28	; select bank28
  2955  00F2  008F               	movwf	15	;volatile
  2956                           
  2957                           ;Main.c: 79: PPSLOCK = 0xAA;
  2958  00F3  30AA               	movlw	170
  2959  00F4  008F               	movwf	15	;volatile
  2960                           
  2961                           ;Main.c: 80: PPSLOCKbits.PPSLOCKED = 0x00;
  2962  00F5  100F               	bcf	15,0	;volatile
  2963                           
  2964                           ;Main.c: 82: RC4PPSbits.RC4PPS = 0x0011;
  2965  00F6  003D               	movlb	29	; select bank29
  2966  00F7  0824               	movf	36,w	;volatile
  2967  00F8  39E0               	andlw	-32
  2968  00F9  3811               	iorlw	17
  2969  00FA  00A4               	movwf	36	;volatile
  2970                           
  2971                           ;Main.c: 83: SSPDATPPSbits.SSPDATPPS = 0x0014;
  2972  00FB  003C               	movlb	28	; select bank28
  2973  00FC  0821               	movf	33,w	;volatile
  2974  00FD  39E0               	andlw	-32
  2975  00FE  3814               	iorlw	20
  2976  00FF  00A1               	movwf	33	;volatile
  2977                           
  2978                           ;Main.c: 84: SSPCLKPPSbits.SSPCLKPPS = 0x0015;
  2979  0100  0820               	movf	32,w	;volatile
  2980  0101  39E0               	andlw	-32
  2981  0102  3815               	iorlw	21
  2982  0103  00A0               	movwf	32	;volatile
  2983                           
  2984                           ;Main.c: 85: RC5PPSbits.RC5PPS = 0x0010;
  2985  0104  003D               	movlb	29	; select bank29
  2986  0105  0825               	movf	37,w	;volatile
  2987  0106  39E0               	andlw	-32
  2988  0107  3810               	iorlw	16
  2989  0108  00A5               	movwf	37	;volatile
  2990                           
  2991                           ;Main.c: 87: PPSLOCK = 0x55;
  2992  0109  3055               	movlw	85
  2993  010A  003C               	movlb	28	; select bank28
  2994  010B  008F               	movwf	15	;volatile
  2995                           
  2996                           ;Main.c: 88: PPSLOCK = 0xAA;
  2997  010C  30AA               	movlw	170
  2998  010D  008F               	movwf	15	;volatile
  2999                           
  3000                           ;Main.c: 89: PPSLOCKbits.PPSLOCKED = 0x01;
  3001  010E  140F               	bsf	15,0	;volatile
  3002                           
  3003                           ;Main.c: 96: ADCON1bits.ADCS = 0b010;
  3004  010F  0021               	movlb	1	; select bank1
  3005  0110  081E               	movf	30,w	;volatile
  3006  0111  398F               	andlw	-113
  3007  0112  3820               	iorlw	32
  3008  0113  009E               	movwf	30	;volatile
  3009                           
  3010                           ;Main.c: 99: ADCON1bits.ADFM = 1;
  3011  0114  179E               	bsf	30,7	;volatile
  3012                           
  3013                           ;Main.c: 102: ADCON1bits.ADNREF = 0;
  3014  0115  111E               	bcf	30,2	;volatile
  3015                           
  3016                           ;Main.c: 105: ADCON1bits.ADPREF = 0b00;
  3017  0116  30FC               	movlw	-4
  3018  0117  059E               	andwf	30,f	;volatile
  3019                           
  3020                           ;Main.c: 108: ADCON0bits.CHS = 0x05;
  3021  0118  081D               	movf	29,w	;volatile
  3022  0119  3983               	andlw	-125
  3023  011A  3814               	iorlw	20
  3024  011B  009D               	movwf	29	;volatile
  3025                           
  3026                           ;Main.c: 111: ADRESL = 0;
  3027  011C  019B               	clrf	27	;volatile
  3028                           
  3029                           ;Main.c: 112: ADRESH = 0;
  3030  011D  019C               	clrf	28	;volatile
  3031                           
  3032                           ;Main.c: 114: ANSELEbits.ANSE0 = 1;
  3033  011E  0023               	movlb	3	; select bank3
  3034  011F  1410               	bsf	16,0	;volatile
  3035  0120  0008               	return
  3036  0121                     __end_of_initMain:	
  3037                           
  3038                           	psect	text2
  3039  0F4F                     __ptext2:	
  3040 ;; *************** function _internal_16 *****************
  3041 ;; Defined at:
  3042 ;;		line 56 in file "16F1717_Internal.c"
  3043 ;; Parameters:    Size  Location     Type
  3044 ;;		None
  3045 ;; Auto vars:     Size  Location     Type
  3046 ;;		None
  3047 ;; Return value:  Size  Location     Type
  3048 ;;                  1    wreg      void 
  3049 ;; Registers used:
  3050 ;;		None
  3051 ;; Tracked objects:
  3052 ;;		On entry : 0/0
  3053 ;;		On exit  : 0/0
  3054 ;;		Unchanged: 0/0
  3055 ;; Data sizes:     COMMON   BANK0   BANK1   BANK2   BANK3   BANK4   BANK5   BANK6   BANK7   BANK8   BANK9  BANK10  BANK1
      +1  BANK12
  3056 ;;      Params:         0       0       0       0       0       0       0       0       0       0       0       0       
      +0       0
  3057 ;;      Locals:         0       0       0       0       0       0       0       0       0       0       0       0       
      +0       0
  3058 ;;      Temps:          0       0       0       0       0       0       0       0       0       0       0       0       
      +0       0
  3059 ;;      Totals:         0       0       0       0       0       0       0       0       0       0       0       0       
      +0       0
  3060 ;;Total ram usage:        0 bytes
  3061 ;; Hardware stack levels used:    1
  3062 ;; This function calls:
  3063 ;;		Nothing
  3064 ;; This function is called by:
  3065 ;;		_initMain
  3066 ;; This function uses a non-reentrant model
  3067 ;;
  3068                           
  3069                           
  3070                           ;psect for function _internal_16
  3071  0F4F                     _internal_16:	
  3072                           
  3073                           ;16F1717_Internal.c: 58: SCS0 = 0;
  3074                           
  3075                           ;incstack = 0
  3076                           ; Regs used in _internal_16: []
  3077  0F4F  0021               	movlb	1	; select bank1
  3078  0F50  1019               	bcf	25,0	;volatile
  3079                           
  3080                           ;16F1717_Internal.c: 59: SCS1 = 0;
  3081  0F51  1099               	bcf	25,1	;volatile
  3082                           
  3083                           ;16F1717_Internal.c: 62: IRCF0 = 1;
  3084  0F52  1599               	bsf	25,3	;volatile
  3085                           
  3086                           ;16F1717_Internal.c: 63: IRCF1 = 1;
  3087  0F53  1619               	bsf	25,4	;volatile
  3088                           
  3089                           ;16F1717_Internal.c: 64: IRCF2 = 1;
  3090  0F54  1699               	bsf	25,5	;volatile
  3091                           
  3092                           ;16F1717_Internal.c: 65: IRCF3 = 1;
  3093  0F55  1719               	bsf	25,6	;volatile
  3094                           
  3095                           ;16F1717_Internal.c: 68: SPLLEN = 0;
  3096  0F56  1399               	bcf	25,7	;volatile
  3097  0F57  0008               	return
  3098  0F58                     __end_of_internal_16:	
  3099                           
  3100                           	psect	text3
  3101  0183                     __ptext3:	
  3102 ;; *************** function _Write_Temperature *****************
  3103 ;; Defined at:
  3104 ;;		line 185 in file "Main.c"
  3105 ;; Parameters:    Size  Location     Type
  3106 ;;  word_address    2   32[BANK0 ] int 
  3107 ;; Auto vars:     Size  Location     Type
  3108 ;;		None
  3109 ;; Return value:  Size  Location     Type
  3110 ;;                  1    wreg      void 
  3111 ;; Registers used:
  3112 ;;		wreg, fsr0l, fsr0h, fsr1l, fsr1h, status,2, status,0, pclath, cstack
  3113 ;; Tracked objects:
  3114 ;;		On entry : 0/0
  3115 ;;		On exit  : 0/0
  3116 ;;		Unchanged: 0/0
  3117 ;; Data sizes:     COMMON   BANK0   BANK1   BANK2   BANK3   BANK4   BANK5   BANK6   BANK7   BANK8   BANK9  BANK10  BANK1
      +1  BANK12
  3118 ;;      Params:         0       2       0       0       0       0       0       0       0       0       0       0       
      +0       0
  3119 ;;      Locals:         0       0       0       0       0       0       0       0       0       0       0       0       
      +0       0
  3120 ;;      Temps:          0       2       0       0       0       0       0       0       0       0       0       0       
      +0       0
  3121 ;;      Totals:         0       4       0       0       0       0       0       0       0       0       0       0       
      +0       0
  3122 ;;Total ram usage:        4 bytes
  3123 ;; Hardware stack levels used:    1
  3124 ;; Hardware stack levels required when called:    4
  3125 ;; This function calls:
  3126 ;;		_OLED_Clear
  3127 ;;		_OLED_Write_Integer
  3128 ;;		_OLED_Write_String
  3129 ;;		_OLED_YX
  3130 ;;		_Send_I2C_ControlByte
  3131 ;;		_Send_I2C_Data
  3132 ;;		_Send_I2C_StartBit
  3133 ;;		_Send_I2C_StopBit
  3134 ;;		___fttol
  3135 ;; This function is called by:
  3136 ;;		_main
  3137 ;; This function uses a non-reentrant model
  3138 ;;
  3139                           
  3140                           
  3141                           ;psect for function _Write_Temperature
  3142  0183                     _Write_Temperature:	
  3143                           
  3144                           ;Main.c: 187: OLED_YX(0, 0);
  3145                           
  3146                           ;incstack = 0
  3147                           ; Regs used in _Write_Temperature: [wreg-fsr1h+status,2+status,0+pclath+cstack]
  3148  0183  0020               	movlb	0	; select bank0
  3149  0184  01A5               	clrf	OLED_YX@Column
  3150  0185  3000               	movlw	0
  3151  0186  3180  202C  3181   	fcall	_OLED_YX
  3152                           
  3153                           ;Main.c: 188: OLED_Write_String("Write");
  3154  0189  3033               	movlw	low (STR_3| (0+32768))
  3155  018A  0020               	movlb	0	; select bank0
  3156  018B  00B6               	movwf	OLED_Write_String@s
  3157  018C  308B               	movlw	high (STR_3| (0+32768))
  3158  018D  00B7               	movwf	OLED_Write_String@s+1
  3159  018E  318F  2783  3181   	fcall	_OLED_Write_String
  3160                           
  3161                           ;Main.c: 189: OLED_YX(1, 0);
  3162  0191  0020               	movlb	0	; select bank0
  3163  0192  01A5               	clrf	OLED_YX@Column
  3164  0193  3001               	movlw	1
  3165  0194  3180  202C  3181   	fcall	_OLED_YX
  3166                           
  3167                           ;Main.c: 190: OLED_Write_Integer((int)*celsius);
  3168  0197  0020               	movlb	0	; select bank0
  3169  0198  0864               	movf	_celsius,w
  3170  0199  0086               	movwf	6
  3171  019A  0187               	clrf	7
  3172  019B  3F40               	moviw [0]fsr1
  3173  019C  00F0               	movwf	___fttol@f1
  3174  019D  3F41               	moviw [1]fsr1
  3175  019E  00F1               	movwf	___fttol@f1+1
  3176  019F  3F42               	moviw [2]fsr1
  3177  01A0  00F2               	movwf	___fttol@f1+2
  3178  01A1  3184  246F  3181   	fcall	___fttol
  3179  01A4  0870               	movf	?___fttol,w
  3180  01A5  318F  27DC  3181   	fcall	_OLED_Write_Integer
  3181                           
  3182                           ;Main.c: 192: _delay((unsigned long)((1000)*(16000000/4000.0)));
  3183  01A8  3015               	movlw	21
  3184  01A9  0020               	movlb	0	; select bank0
  3185  01AA  00C3               	movwf	??_Write_Temperature+1
  3186  01AB  304B               	movlw	75
  3187  01AC  00C2               	movwf	??_Write_Temperature
  3188  01AD  30BE               	movlw	190
  3189  01AE                     u2237:	
  3190  01AE  0B89               	decfsz	9,f
  3191  01AF  29AE               	goto	u2237
  3192  01B0  0BC2               	decfsz	??_Write_Temperature,f
  3193  01B1  29AE               	goto	u2237
  3194  01B2  0BC3               	decfsz	??_Write_Temperature+1,f
  3195  01B3  29AE               	goto	u2237
  3196  01B4  0000               	nop
  3197                           
  3198                           ;Main.c: 193: OLED_Clear();
  3199  01B5  3180  2083  3181   	fcall	_OLED_Clear
  3200                           
  3201                           ;Main.c: 195: Send_I2C_StartBit();
  3202  01B8  318F  272D  3181   	fcall	_Send_I2C_StartBit
  3203                           
  3204                           ;Main.c: 196: Send_I2C_ControlByte(block_address,0);
  3205  01BB  0020               	movlb	0	; select bank0
  3206  01BC  085E               	movf	_block_address+1,w
  3207  01BD  00F1               	movwf	Send_I2C_ControlByte@BlockAddress+1
  3208  01BE  085D               	movf	_block_address,w
  3209  01BF  00F0               	movwf	Send_I2C_ControlByte@BlockAddress
  3210  01C0  3000               	movlw	0
  3211  01C1  00F2               	movwf	Send_I2C_ControlByte@RW_bit
  3212  01C2  00F3               	movwf	Send_I2C_ControlByte@RW_bit+1
  3213  01C3  318F  2758  3181   	fcall	_Send_I2C_ControlByte
  3214                           
  3215                           ;Main.c: 197: Send_I2C_Data(word_address);
  3216  01C6  0020               	movlb	0	; select bank0
  3217  01C7  0841               	movf	Write_Temperature@word_address+1,w
  3218  01C8  00A1               	movwf	Send_I2C_Data@databyte+1
  3219  01C9  0840               	movf	Write_Temperature@word_address,w
  3220  01CA  00A0               	movwf	Send_I2C_Data@databyte
  3221  01CB  318F  273D  3181   	fcall	_Send_I2C_Data
  3222                           
  3223                           ;Main.c: 198: Send_I2C_Data((int)*celsius);
  3224  01CE  0020               	movlb	0	; select bank0
  3225  01CF  0864               	movf	_celsius,w
  3226  01D0  0086               	movwf	6
  3227  01D1  0187               	clrf	7
  3228  01D2  3F40               	moviw [0]fsr1
  3229  01D3  00F0               	movwf	___fttol@f1
  3230  01D4  3F41               	moviw [1]fsr1
  3231  01D5  00F1               	movwf	___fttol@f1+1
  3232  01D6  3F42               	moviw [2]fsr1
  3233  01D7  00F2               	movwf	___fttol@f1+2
  3234  01D8  3184  246F  3181   	fcall	___fttol
  3235  01DB  0871               	movf	?___fttol+1,w
  3236  01DC  0020               	movlb	0	; select bank0
  3237  01DD  00A1               	movwf	Send_I2C_Data@databyte+1
  3238  01DE  0870               	movf	?___fttol,w
  3239  01DF  00A0               	movwf	Send_I2C_Data@databyte
  3240  01E0  318F  273D  3181   	fcall	_Send_I2C_Data
  3241                           
  3242                           ;Main.c: 199: Send_I2C_StopBit();
  3243  01E3  318F  2735         	fcall	_Send_I2C_StopBit
  3244  01E5  0008               	return
  3245  01E6                     __end_of_Write_Temperature:	
  3246                           
  3247                           	psect	text4
  3248  046F                     __ptext4:	
  3249 ;; *************** function ___fttol *****************
  3250 ;; Defined at:
  3251 ;;		line 44 in file "C:\Program Files (x86)\Microchip\xc8\v1.41\sources\common\fttol.c"
  3252 ;; Parameters:    Size  Location     Type
  3253 ;;  f1              3    0[COMMON] float 
  3254 ;; Auto vars:     Size  Location     Type
  3255 ;;  lval            4    9[COMMON] unsigned long 
  3256 ;;  exp1            1   13[COMMON] unsigned char 
  3257 ;;  sign1           1    8[COMMON] unsigned char 
  3258 ;; Return value:  Size  Location     Type
  3259 ;;                  4    0[COMMON] long 
  3260 ;; Registers used:
  3261 ;;		wreg, status,2, status,0
  3262 ;; Tracked objects:
  3263 ;;		On entry : 0/0
  3264 ;;		On exit  : 0/0
  3265 ;;		Unchanged: 0/0
  3266 ;; Data sizes:     COMMON   BANK0   BANK1   BANK2   BANK3   BANK4   BANK5   BANK6   BANK7   BANK8   BANK9  BANK10  BANK1
      +1  BANK12
  3267 ;;      Params:         4       0       0       0       0       0       0       0       0       0       0       0       
      +0       0
  3268 ;;      Locals:         6       0       0       0       0       0       0       0       0       0       0       0       
      +0       0
  3269 ;;      Temps:          4       0       0       0       0       0       0       0       0       0       0       0       
      +0       0
  3270 ;;      Totals:        14       0       0       0       0       0       0       0       0       0       0       0       
      +0       0
  3271 ;;Total ram usage:       14 bytes
  3272 ;; Hardware stack levels used:    1
  3273 ;; This function calls:
  3274 ;;		Nothing
  3275 ;; This function is called by:
  3276 ;;		_Write_Temperature
  3277 ;; This function uses a non-reentrant model
  3278 ;;
  3279                           
  3280                           
  3281                           ;psect for function ___fttol
  3282  046F                     ___fttol:	
  3283                           
  3284                           ;incstack = 0
  3285                           ; Regs used in ___fttol: [wreg+status,2+status,0]
  3286  046F  0870               	movf	___fttol@f1,w
  3287  0470  00F4               	movwf	??___fttol
  3288  0471  0871               	movf	___fttol@f1+1,w
  3289  0472  00F5               	movwf	??___fttol+1
  3290  0473  0872               	movf	___fttol@f1+2,w
  3291  0474  00F6               	movwf	??___fttol+2
  3292  0475  1003               	clrc
  3293  0476  0D75               	rlf	??___fttol+1,w
  3294  0477  0D76               	rlf	??___fttol+2,w
  3295  0478  00F7               	movwf	??___fttol+3
  3296  0479  0877               	movf	??___fttol+3,w
  3297  047A  00FD               	movwf	___fttol@exp1
  3298  047B  087D               	movf	___fttol@exp1,w
  3299  047C  1D03               	btfss	3,2
  3300  047D  2C87               	goto	l1781
  3301  047E  3000               	movlw	0
  3302  047F  00F3               	movwf	?___fttol+3
  3303  0480  3000               	movlw	0
  3304  0481  00F2               	movwf	?___fttol+2
  3305  0482  3000               	movlw	0
  3306  0483  00F1               	movwf	?___fttol+1
  3307  0484  3000               	movlw	0
  3308  0485  00F0               	movwf	?___fttol
  3309  0486  0008               	return
  3310  0487                     l1781:	
  3311  0487  0870               	movf	___fttol@f1,w
  3312  0488  00F4               	movwf	??___fttol
  3313  0489  0871               	movf	___fttol@f1+1,w
  3314  048A  00F5               	movwf	??___fttol+1
  3315  048B  0872               	movf	___fttol@f1+2,w
  3316  048C  00F6               	movwf	??___fttol+2
  3317  048D  3017               	movlw	23
  3318  048E                     u2085:	
  3319  048E  36F6               	lsrf	??___fttol+2,f
  3320  048F  0CF5               	rrf	??___fttol+1,f
  3321  0490  0CF4               	rrf	??___fttol,f
  3322  0491  0B89               	decfsz	9,f
  3323  0492  2C8E               	goto	u2085
  3324  0493  0874               	movf	??___fttol,w
  3325  0494  00F7               	movwf	??___fttol+3
  3326  0495  0877               	movf	??___fttol+3,w
  3327  0496  00F8               	movwf	___fttol@sign1
  3328  0497  17F1               	bsf	___fttol@f1+1,7
  3329  0498  30FF               	movlw	255
  3330  0499  05F0               	andwf	___fttol@f1,f
  3331  049A  30FF               	movlw	255
  3332  049B  05F1               	andwf	___fttol@f1+1,f
  3333  049C  3000               	movlw	0
  3334  049D  05F2               	andwf	___fttol@f1+2,f
  3335  049E  0870               	movf	___fttol@f1,w
  3336  049F  00F9               	movwf	___fttol@lval
  3337  04A0  0871               	movf	___fttol@f1+1,w
  3338  04A1  00FA               	movwf	___fttol@lval+1
  3339  04A2  0872               	movf	___fttol@f1+2,w
  3340  04A3  00FB               	movwf	___fttol@lval+2
  3341  04A4  01FC               	clrf	___fttol@lval+3
  3342  04A5  308E               	movlw	142
  3343  04A6  02FD               	subwf	___fttol@exp1,f
  3344  04A7  1FFD               	btfss	___fttol@exp1,7
  3345  04A8  2CC5               	goto	l1801
  3346  04A9  087D               	movf	___fttol@exp1,w
  3347  04AA  3A80               	xorlw	128
  3348  04AB  3E8F               	addlw	143
  3349  04AC  1803               	skipnc
  3350  04AD  2CB7               	goto	l1799
  3351  04AE  3000               	movlw	0
  3352  04AF  00F3               	movwf	?___fttol+3
  3353  04B0  3000               	movlw	0
  3354  04B1  00F2               	movwf	?___fttol+2
  3355  04B2  3000               	movlw	0
  3356  04B3  00F1               	movwf	?___fttol+1
  3357  04B4  3000               	movlw	0
  3358  04B5  00F0               	movwf	?___fttol
  3359  04B6  0008               	return
  3360  04B7                     l1799:	
  3361  04B7  3001               	movlw	1
  3362  04B8                     u2115:	
  3363  04B8  36FC               	lsrf	___fttol@lval+3,f
  3364  04B9  0CFB               	rrf	___fttol@lval+2,f
  3365  04BA  0CFA               	rrf	___fttol@lval+1,f
  3366  04BB  0CF9               	rrf	___fttol@lval,f
  3367  04BC  0B89               	decfsz	9,f
  3368  04BD  2CB8               	goto	u2115
  3369  04BE  3001               	movlw	1
  3370  04BF  00F4               	movwf	??___fttol
  3371  04C0  0874               	movf	??___fttol,w
  3372  04C1  07FD               	addwf	___fttol@exp1,f
  3373  04C2  1903               	btfsc	3,2
  3374  04C3  2CDE               	goto	l1809
  3375  04C4  2CB7               	goto	l1799
  3376  04C5                     l1801:	
  3377  04C5  3018               	movlw	24
  3378  04C6  027D               	subwf	___fttol@exp1,w
  3379  04C7  1C03               	skipc
  3380  04C8  2CDB               	goto	l554
  3381  04C9  3000               	movlw	0
  3382  04CA  00F3               	movwf	?___fttol+3
  3383  04CB  3000               	movlw	0
  3384  04CC  00F2               	movwf	?___fttol+2
  3385  04CD  3000               	movlw	0
  3386  04CE  00F1               	movwf	?___fttol+1
  3387  04CF  3000               	movlw	0
  3388  04D0  00F0               	movwf	?___fttol
  3389  04D1  0008               	return
  3390  04D2                     l1807:	
  3391  04D2  3001               	movlw	1
  3392  04D3                     u2145:	
  3393  04D3  35F9               	lslf	___fttol@lval,f
  3394  04D4  0DFA               	rlf	___fttol@lval+1,f
  3395  04D5  0DFB               	rlf	___fttol@lval+2,f
  3396  04D6  0DFC               	rlf	___fttol@lval+3,f
  3397  04D7  0B89               	decfsz	9,f
  3398  04D8  2CD3               	goto	u2145
  3399  04D9  3001               	movlw	1
  3400  04DA  02FD               	subwf	___fttol@exp1,f
  3401  04DB                     l554:	
  3402  04DB  087D               	movf	___fttol@exp1,w
  3403  04DC  1D03               	btfss	3,2
  3404  04DD  2CD2               	goto	l1807
  3405  04DE                     l1809:	
  3406  04DE  0878               	movf	___fttol@sign1,w
  3407  04DF  1903               	btfsc	3,2
  3408  04E0  2CEC               	goto	l1813
  3409  04E1  09F9               	comf	___fttol@lval,f
  3410  04E2  09FA               	comf	___fttol@lval+1,f
  3411  04E3  09FB               	comf	___fttol@lval+2,f
  3412  04E4  09FC               	comf	___fttol@lval+3,f
  3413  04E5  0AF9               	incf	___fttol@lval,f
  3414  04E6  1903               	skipnz
  3415  04E7  0AFA               	incf	___fttol@lval+1,f
  3416  04E8  1903               	skipnz
  3417  04E9  0AFB               	incf	___fttol@lval+2,f
  3418  04EA  1903               	skipnz
  3419  04EB  0AFC               	incf	___fttol@lval+3,f
  3420  04EC                     l1813:	
  3421  04EC  087C               	movf	___fttol@lval+3,w
  3422  04ED  00F3               	movwf	?___fttol+3
  3423  04EE  087B               	movf	___fttol@lval+2,w
  3424  04EF  00F2               	movwf	?___fttol+2
  3425  04F0  087A               	movf	___fttol@lval+1,w
  3426  04F1  00F1               	movwf	?___fttol+1
  3427  04F2  0879               	movf	___fttol@lval,w
  3428  04F3  00F0               	movwf	?___fttol
  3429  04F4  0008               	return
  3430  04F5                     __end_of___fttol:	
  3431                           
  3432                           	psect	text5
  3433  04F5                     __ptext5:	
  3434 ;; *************** function _Read_Temperature *****************
  3435 ;; Defined at:
  3436 ;;		line 159 in file "Main.c"
  3437 ;; Parameters:    Size  Location     Type
  3438 ;;		None
  3439 ;; Auto vars:     Size  Location     Type
  3440 ;;  farenheit       3   47[BANK0 ] float 
  3441 ;;  conversion10    3   44[BANK0 ] float 
  3442 ;; Return value:  Size  Location     Type
  3443 ;;                  1    wreg      void 
  3444 ;; Registers used:
  3445 ;;		wreg, fsr1l, fsr1h, status,2, status,0, pclath, cstack
  3446 ;; Tracked objects:
  3447 ;;		On entry : 0/0
  3448 ;;		On exit  : 0/0
  3449 ;;		Unchanged: 0/0
  3450 ;; Data sizes:     COMMON   BANK0   BANK1   BANK2   BANK3   BANK4   BANK5   BANK6   BANK7   BANK8   BANK9  BANK10  BANK1
      +1  BANK12
  3451 ;;      Params:         0       0       0       0       0       0       0       0       0       0       0       0       
      +0       0
  3452 ;;      Locals:         0       6       0       0       0       0       0       0       0       0       0       0       
      +0       0
  3453 ;;      Temps:          0       5       0       0       0       0       0       0       0       0       0       0       
      +0       0
  3454 ;;      Totals:         0      11       0       0       0       0       0       0       0       0       0       0       
      +0       0
  3455 ;;Total ram usage:       11 bytes
  3456 ;; Hardware stack levels used:    1
  3457 ;; Hardware stack levels required when called:    2
  3458 ;; This function calls:
  3459 ;;		___awtoft
  3460 ;;		___ftadd
  3461 ;;		___ftdiv
  3462 ;;		___ftmul
  3463 ;; This function is called by:
  3464 ;;		_main
  3465 ;; This function uses a non-reentrant model
  3466 ;;
  3467                           
  3468                           
  3469                           ;psect for function _Read_Temperature
  3470  04F5                     _Read_Temperature:	
  3471                           
  3472                           ;Main.c: 161: float conversion10;
  3473                           ;Main.c: 162: float farenheit;
  3474                           ;Main.c: 165: ADCON0bits.ADON = 1;
  3475                           
  3476                           ;incstack = 0
  3477                           ; Regs used in _Read_Temperature: [wreg+fsr1l+fsr1h+status,2+status,0+pclath+cstack]
  3478  04F5  0021               	movlb	1	; select bank1
  3479  04F6  141D               	bsf	29,0	;volatile
  3480                           
  3481                           ;Main.c: 168: _delay((unsigned long)((10)*(16000000/4000000.0)));
  3482  04F7  300D               	movlw	13
  3483  04F8                     u2247:	
  3484  04F8  0B89               	decfsz	9,f
  3485  04F9  2CF8               	goto	u2247
  3486  04FA  0000               	nop
  3487                           
  3488                           ;Main.c: 169: ADCON0bits.GO = 1;
  3489  04FB  0021               	movlb	1	; select bank1
  3490  04FC  149D               	bsf	29,1	;volatile
  3491  04FD                     l176:	
  3492                           ;Main.c: 170: while (ADCON0bits.GO_nDONE);
  3493                           
  3494  04FD  189D               	btfsc	29,1	;volatile
  3495  04FE  2CFD               	goto	l176
  3496                           
  3497                           ;Main.c: 173: result = ((ADRESH<<8)+ADRESL);
  3498  04FF  081B               	movf	27,w	;volatile
  3499  0500  0020               	movlb	0	; select bank0
  3500  0501  00C7               	movwf	??_Read_Temperature
  3501  0502  01C8               	clrf	??_Read_Temperature+1
  3502  0503  0021               	movlb	1	; select bank1
  3503  0504  081C               	movf	28,w	;volatile
  3504  0505  0020               	movlb	0	; select bank0
  3505  0506  00C9               	movwf	??_Read_Temperature+2
  3506  0507  01CA               	clrf	??_Read_Temperature+3
  3507  0508  0849               	movf	??_Read_Temperature+2,w
  3508  0509  00CA               	movwf	??_Read_Temperature+3
  3509  050A  01C9               	clrf	??_Read_Temperature+2
  3510  050B  0847               	movf	??_Read_Temperature,w
  3511  050C  0749               	addwf	??_Read_Temperature+2,w
  3512  050D  00F8               	movwf	___awtoft@c
  3513  050E  0848               	movf	??_Read_Temperature+1,w
  3514  050F  3D4A               	addwfc	??_Read_Temperature+3,w
  3515  0510  00F9               	movwf	___awtoft@c+1
  3516  0511  318F  279A  3184   	fcall	___awtoft
  3517  0514  0878               	movf	?___awtoft,w
  3518  0515  0020               	movlb	0	; select bank0
  3519  0516  00D8               	movwf	_result
  3520  0517  0879               	movf	?___awtoft+1,w
  3521  0518  00D9               	movwf	_result+1
  3522  0519  087A               	movf	?___awtoft+2,w
  3523  051A  00DA               	movwf	_result+2
  3524                           
  3525                           ;Main.c: 176: conversion10 = (result * 5000)/1024 ;
  3526  051B  3000               	movlw	0
  3527  051C  00B7               	movwf	___ftdiv@f2
  3528  051D  3080               	movlw	128
  3529  051E  00B8               	movwf	___ftdiv@f2+1
  3530  051F  3044               	movlw	68
  3531  0520  00B9               	movwf	___ftdiv@f2+2
  3532  0521  3040               	movlw	64
  3533  0522  00A7               	movwf	___ftmul@f1
  3534  0523  309C               	movlw	156
  3535  0524  00A8               	movwf	___ftmul@f1+1
  3536  0525  3045               	movlw	69
  3537  0526  00A9               	movwf	___ftmul@f1+2
  3538  0527  0858               	movf	_result,w
  3539  0528  00AA               	movwf	___ftmul@f2
  3540  0529  0859               	movf	_result+1,w
  3541  052A  00AB               	movwf	___ftmul@f2+1
  3542  052B  085A               	movf	_result+2,w
  3543  052C  00AC               	movwf	___ftmul@f2+2
  3544  052D  3186  2639  3184   	fcall	___ftmul
  3545  0530  0020               	movlb	0	; select bank0
  3546  0531  0827               	movf	?___ftmul,w
  3547  0532  00BA               	movwf	___ftdiv@f1
  3548  0533  0828               	movf	?___ftmul+1,w
  3549  0534  00BB               	movwf	___ftdiv@f1+1
  3550  0535  0829               	movf	?___ftmul+2,w
  3551  0536  00BC               	movwf	___ftdiv@f1+2
  3552  0537  3185  2590  3184   	fcall	___ftdiv
  3553  053A  0020               	movlb	0	; select bank0
  3554  053B  0837               	movf	?___ftdiv,w
  3555  053C  00CC               	movwf	Read_Temperature@conversion10
  3556  053D  0838               	movf	?___ftdiv+1,w
  3557  053E  00CD               	movwf	Read_Temperature@conversion10+1
  3558  053F  0839               	movf	?___ftdiv+2,w
  3559  0540  00CE               	movwf	Read_Temperature@conversion10+2
  3560                           
  3561                           ;Main.c: 179: farenheit = conversion10 / 10;
  3562  0541  3000               	movlw	0
  3563  0542  00B7               	movwf	___ftdiv@f2
  3564  0543  3020               	movlw	32
  3565  0544  00B8               	movwf	___ftdiv@f2+1
  3566  0545  3041               	movlw	65
  3567  0546  00B9               	movwf	___ftdiv@f2+2
  3568  0547  084C               	movf	Read_Temperature@conversion10,w
  3569  0548  00BA               	movwf	___ftdiv@f1
  3570  0549  084D               	movf	Read_Temperature@conversion10+1,w
  3571  054A  00BB               	movwf	___ftdiv@f1+1
  3572  054B  084E               	movf	Read_Temperature@conversion10+2,w
  3573  054C  00BC               	movwf	___ftdiv@f1+2
  3574  054D  3185  2590  3184   	fcall	___ftdiv
  3575  0550  0020               	movlb	0	; select bank0
  3576  0551  0837               	movf	?___ftdiv,w
  3577  0552  00CF               	movwf	Read_Temperature@farenheit
  3578  0553  0838               	movf	?___ftdiv+1,w
  3579  0554  00D0               	movwf	Read_Temperature@farenheit+1
  3580  0555  0839               	movf	?___ftdiv+2,w
  3581  0556  00D1               	movwf	Read_Temperature@farenheit+2
  3582                           
  3583                           ;Main.c: 182: *celsius = (farenheit - 32) * 5/9;
  3584  0557  3000               	movlw	0
  3585  0558  00B7               	movwf	___ftdiv@f2
  3586  0559  3010               	movlw	16
  3587  055A  00B8               	movwf	___ftdiv@f2+1
  3588  055B  3041               	movlw	65
  3589  055C  00B9               	movwf	___ftdiv@f2+2
  3590  055D  3000               	movlw	0
  3591  055E  00A7               	movwf	___ftmul@f1
  3592  055F  30A0               	movlw	160
  3593  0560  00A8               	movwf	___ftmul@f1+1
  3594  0561  3040               	movlw	64
  3595  0562  00A9               	movwf	___ftmul@f1+2
  3596  0563  3000               	movlw	0
  3597  0564  00F8               	movwf	___ftadd@f1
  3598  0565  3000               	movlw	0
  3599  0566  00F9               	movwf	___ftadd@f1+1
  3600  0567  30C2               	movlw	194
  3601  0568  00FA               	movwf	___ftadd@f1+2
  3602  0569  084F               	movf	Read_Temperature@farenheit,w
  3603  056A  00FB               	movwf	___ftadd@f2
  3604  056B  0850               	movf	Read_Temperature@farenheit+1,w
  3605  056C  00FC               	movwf	___ftadd@f2+1
  3606  056D  0851               	movf	Read_Temperature@farenheit+2,w
  3607  056E  00FD               	movwf	___ftadd@f2+2
  3608  056F  3186  26ED  3184   	fcall	___ftadd
  3609  0572  0878               	movf	?___ftadd,w
  3610  0573  0020               	movlb	0	; select bank0
  3611  0574  00AA               	movwf	___ftmul@f2
  3612  0575  0879               	movf	?___ftadd+1,w
  3613  0576  00AB               	movwf	___ftmul@f2+1
  3614  0577  087A               	movf	?___ftadd+2,w
  3615  0578  00AC               	movwf	___ftmul@f2+2
  3616  0579  3186  2639  3184   	fcall	___ftmul
  3617  057C  0020               	movlb	0	; select bank0
  3618  057D  0827               	movf	?___ftmul,w
  3619  057E  00BA               	movwf	___ftdiv@f1
  3620  057F  0828               	movf	?___ftmul+1,w
  3621  0580  00BB               	movwf	___ftdiv@f1+1
  3622  0581  0829               	movf	?___ftmul+2,w
  3623  0582  00BC               	movwf	___ftdiv@f1+2
  3624  0583  3185  2590         	fcall	___ftdiv
  3625  0585  0020               	movlb	0	; select bank0
  3626  0586  0864               	movf	_celsius,w
  3627  0587  0086               	movwf	6
  3628  0588  0187               	clrf	7
  3629  0589  0837               	movf	?___ftdiv,w
  3630  058A  3FC0               	movwi [0]fsr1
  3631  058B  0838               	movf	?___ftdiv+1,w
  3632  058C  3FC1               	movwi [1]fsr1
  3633  058D  0839               	movf	?___ftdiv+2,w
  3634  058E  3FC2               	movwi [2]fsr1
  3635  058F  0008               	return
  3636  0590                     __end_of_Read_Temperature:	
  3637                           
  3638                           	psect	text6
  3639  0639                     __ptext6:	
  3640 ;; *************** function ___ftmul *****************
  3641 ;; Defined at:
  3642 ;;		line 62 in file "C:\Program Files (x86)\Microchip\xc8\v1.41\sources\common\ftmul.c"
  3643 ;; Parameters:    Size  Location     Type
  3644 ;;  f1              3    7[BANK0 ] float 
  3645 ;;  f2              3   10[BANK0 ] float 
  3646 ;; Auto vars:     Size  Location     Type
  3647 ;;  f3_as_produc    3   18[BANK0 ] unsigned um
  3648 ;;  sign            1   22[BANK0 ] unsigned char 
  3649 ;;  cntr            1   21[BANK0 ] unsigned char 
  3650 ;;  exp             1   17[BANK0 ] unsigned char 
  3651 ;; Return value:  Size  Location     Type
  3652 ;;                  3    7[BANK0 ] float 
  3653 ;; Registers used:
  3654 ;;		wreg, status,2, status,0, pclath, cstack
  3655 ;; Tracked objects:
  3656 ;;		On entry : 0/0
  3657 ;;		On exit  : 0/0
  3658 ;;		Unchanged: 0/0
  3659 ;; Data sizes:     COMMON   BANK0   BANK1   BANK2   BANK3   BANK4   BANK5   BANK6   BANK7   BANK8   BANK9  BANK10  BANK1
      +1  BANK12
  3660 ;;      Params:         0       6       0       0       0       0       0       0       0       0       0       0       
      +0       0
  3661 ;;      Locals:         0       6       0       0       0       0       0       0       0       0       0       0       
      +0       0
  3662 ;;      Temps:          0       4       0       0       0       0       0       0       0       0       0       0       
      +0       0
  3663 ;;      Totals:         0      16       0       0       0       0       0       0       0       0       0       0       
      +0       0
  3664 ;;Total ram usage:       16 bytes
  3665 ;; Hardware stack levels used:    1
  3666 ;; Hardware stack levels required when called:    1
  3667 ;; This function calls:
  3668 ;;		___ftpack
  3669 ;; This function is called by:
  3670 ;;		_Read_Temperature
  3671 ;; This function uses a non-reentrant model
  3672 ;;
  3673                           
  3674                           
  3675                           ;psect for function ___ftmul
  3676  0639                     ___ftmul:	
  3677                           
  3678                           ;incstack = 0
  3679                           ; Regs used in ___ftmul: [wreg+status,2+status,0+pclath+cstack]
  3680  0639  0020               	movlb	0	; select bank0
  3681  063A  0827               	movf	___ftmul@f1,w
  3682  063B  00AD               	movwf	??___ftmul
  3683  063C  0828               	movf	___ftmul@f1+1,w
  3684  063D  00AE               	movwf	??___ftmul+1
  3685  063E  0829               	movf	___ftmul@f1+2,w
  3686  063F  00AF               	movwf	??___ftmul+2
  3687  0640  1003               	clrc
  3688  0641  0D2E               	rlf	??___ftmul+1,w
  3689  0642  0D2F               	rlf	??___ftmul+2,w
  3690  0643  00B0               	movwf	??___ftmul+3
  3691  0644  0830               	movf	??___ftmul+3,w
  3692  0645  00B1               	movwf	___ftmul@exp
  3693  0646  0831               	movf	___ftmul@exp,w
  3694  0647  1D03               	btfss	3,2
  3695  0648  2E50               	goto	l1731
  3696  0649  3000               	movlw	0
  3697  064A  00A7               	movwf	?___ftmul
  3698  064B  3000               	movlw	0
  3699  064C  00A8               	movwf	?___ftmul+1
  3700  064D  3000               	movlw	0
  3701  064E  00A9               	movwf	?___ftmul+2
  3702  064F  0008               	return
  3703  0650                     l1731:	
  3704  0650  082A               	movf	___ftmul@f2,w
  3705  0651  00AD               	movwf	??___ftmul
  3706  0652  082B               	movf	___ftmul@f2+1,w
  3707  0653  00AE               	movwf	??___ftmul+1
  3708  0654  082C               	movf	___ftmul@f2+2,w
  3709  0655  00AF               	movwf	??___ftmul+2
  3710  0656  1003               	clrc
  3711  0657  0D2E               	rlf	??___ftmul+1,w
  3712  0658  0D2F               	rlf	??___ftmul+2,w
  3713  0659  00B0               	movwf	??___ftmul+3
  3714  065A  0830               	movf	??___ftmul+3,w
  3715  065B  00B6               	movwf	___ftmul@sign
  3716  065C  0836               	movf	___ftmul@sign,w
  3717  065D  1D03               	btfss	3,2
  3718  065E  2E66               	goto	l1737
  3719  065F  3000               	movlw	0
  3720  0660  00A7               	movwf	?___ftmul
  3721  0661  3000               	movlw	0
  3722  0662  00A8               	movwf	?___ftmul+1
  3723  0663  3000               	movlw	0
  3724  0664  00A9               	movwf	?___ftmul+2
  3725  0665  0008               	return
  3726  0666                     l1737:	
  3727  0666  0836               	movf	___ftmul@sign,w
  3728  0667  3E7B               	addlw	123
  3729  0668  00AD               	movwf	??___ftmul
  3730  0669  082D               	movf	??___ftmul,w
  3731  066A  07B1               	addwf	___ftmul@exp,f
  3732  066B  0827               	movf	___ftmul@f1,w
  3733  066C  00AD               	movwf	??___ftmul
  3734  066D  0828               	movf	___ftmul@f1+1,w
  3735  066E  00AE               	movwf	??___ftmul+1
  3736  066F  0829               	movf	___ftmul@f1+2,w
  3737  0670  00AF               	movwf	??___ftmul+2
  3738  0671  3010               	movlw	16
  3739  0672                     u1975:	
  3740  0672  36AF               	lsrf	??___ftmul+2,f
  3741  0673  0CAE               	rrf	??___ftmul+1,f
  3742  0674  0CAD               	rrf	??___ftmul,f
  3743  0675  0B89               	decfsz	9,f
  3744  0676  2E72               	goto	u1975
  3745  0677  082D               	movf	??___ftmul,w
  3746  0678  00B0               	movwf	??___ftmul+3
  3747  0679  0830               	movf	??___ftmul+3,w
  3748  067A  00B6               	movwf	___ftmul@sign
  3749  067B  082A               	movf	___ftmul@f2,w
  3750  067C  00AD               	movwf	??___ftmul
  3751  067D  082B               	movf	___ftmul@f2+1,w
  3752  067E  00AE               	movwf	??___ftmul+1
  3753  067F  082C               	movf	___ftmul@f2+2,w
  3754  0680  00AF               	movwf	??___ftmul+2
  3755  0681  3010               	movlw	16
  3756  0682                     u1985:	
  3757  0682  36AF               	lsrf	??___ftmul+2,f
  3758  0683  0CAE               	rrf	??___ftmul+1,f
  3759  0684  0CAD               	rrf	??___ftmul,f
  3760  0685  0B89               	decfsz	9,f
  3761  0686  2E82               	goto	u1985
  3762  0687  082D               	movf	??___ftmul,w
  3763  0688  00B0               	movwf	??___ftmul+3
  3764  0689  0830               	movf	??___ftmul+3,w
  3765  068A  06B6               	xorwf	___ftmul@sign,f
  3766  068B  3080               	movlw	128
  3767  068C  00AD               	movwf	??___ftmul
  3768  068D  082D               	movf	??___ftmul,w
  3769  068E  05B6               	andwf	___ftmul@sign,f
  3770  068F  17A8               	bsf	___ftmul@f1+1,7
  3771  0690  17AB               	bsf	___ftmul@f2+1,7
  3772  0691  30FF               	movlw	255
  3773  0692  05AA               	andwf	___ftmul@f2,f
  3774  0693  30FF               	movlw	255
  3775  0694  05AB               	andwf	___ftmul@f2+1,f
  3776  0695  3000               	movlw	0
  3777  0696  05AC               	andwf	___ftmul@f2+2,f
  3778  0697  3000               	movlw	0
  3779  0698  00B2               	movwf	___ftmul@f3_as_product
  3780  0699  3000               	movlw	0
  3781  069A  00B3               	movwf	___ftmul@f3_as_product+1
  3782  069B  3000               	movlw	0
  3783  069C  00B4               	movwf	___ftmul@f3_as_product+2
  3784  069D  3007               	movlw	7
  3785  069E  00AD               	movwf	??___ftmul
  3786  069F  082D               	movf	??___ftmul,w
  3787  06A0  00B5               	movwf	___ftmul@cntr
  3788  06A1                     l1749:	
  3789  06A1  1C27               	btfss	___ftmul@f1,0
  3790  06A2  2EA9               	goto	l1753
  3791  06A3  082A               	movf	___ftmul@f2,w
  3792  06A4  07B2               	addwf	___ftmul@f3_as_product,f
  3793  06A5  082B               	movf	___ftmul@f2+1,w
  3794  06A6  3DB3               	addwfc	___ftmul@f3_as_product+1,f
  3795  06A7  082C               	movf	___ftmul@f2+2,w
  3796  06A8  3DB4               	addwfc	___ftmul@f3_as_product+2,f
  3797  06A9                     l1753:	
  3798  06A9  3001               	movlw	1
  3799  06AA                     u2005:	
  3800  06AA  36A9               	lsrf	___ftmul@f1+2,f
  3801  06AB  0CA8               	rrf	___ftmul@f1+1,f
  3802  06AC  0CA7               	rrf	___ftmul@f1,f
  3803  06AD  0B89               	decfsz	9,f
  3804  06AE  2EAA               	goto	u2005
  3805  06AF  3001               	movlw	1
  3806  06B0                     u2015:	
  3807  06B0  35AA               	lslf	___ftmul@f2,f
  3808  06B1  0DAB               	rlf	___ftmul@f2+1,f
  3809  06B2  0DAC               	rlf	___ftmul@f2+2,f
  3810  06B3  0B89               	decfsz	9,f
  3811  06B4  2EB0               	goto	u2015
  3812  06B5  3001               	movlw	1
  3813  06B6  02B5               	subwf	___ftmul@cntr,f
  3814  06B7  1D03               	btfss	3,2
  3815  06B8  2EA1               	goto	l1749
  3816  06B9  3009               	movlw	9
  3817  06BA  00AD               	movwf	??___ftmul
  3818  06BB  082D               	movf	??___ftmul,w
  3819  06BC  00B5               	movwf	___ftmul@cntr
  3820  06BD                     l1761:	
  3821  06BD  1C27               	btfss	___ftmul@f1,0
  3822  06BE  2EC5               	goto	l1765
  3823  06BF  082A               	movf	___ftmul@f2,w
  3824  06C0  07B2               	addwf	___ftmul@f3_as_product,f
  3825  06C1  082B               	movf	___ftmul@f2+1,w
  3826  06C2  3DB3               	addwfc	___ftmul@f3_as_product+1,f
  3827  06C3  082C               	movf	___ftmul@f2+2,w
  3828  06C4  3DB4               	addwfc	___ftmul@f3_as_product+2,f
  3829  06C5                     l1765:	
  3830  06C5  3001               	movlw	1
  3831  06C6                     u2045:	
  3832  06C6  36A9               	lsrf	___ftmul@f1+2,f
  3833  06C7  0CA8               	rrf	___ftmul@f1+1,f
  3834  06C8  0CA7               	rrf	___ftmul@f1,f
  3835  06C9  0B89               	decfsz	9,f
  3836  06CA  2EC6               	goto	u2045
  3837  06CB  3001               	movlw	1
  3838  06CC                     u2055:	
  3839  06CC  36B4               	lsrf	___ftmul@f3_as_product+2,f
  3840  06CD  0CB3               	rrf	___ftmul@f3_as_product+1,f
  3841  06CE  0CB2               	rrf	___ftmul@f3_as_product,f
  3842  06CF  0B89               	decfsz	9,f
  3843  06D0  2ECC               	goto	u2055
  3844  06D1  3001               	movlw	1
  3845  06D2  02B5               	subwf	___ftmul@cntr,f
  3846  06D3  1D03               	btfss	3,2
  3847  06D4  2EBD               	goto	l1761
  3848  06D5  0832               	movf	___ftmul@f3_as_product,w
  3849  06D6  00F0               	movwf	___ftpack@arg
  3850  06D7  0833               	movf	___ftmul@f3_as_product+1,w
  3851  06D8  00F1               	movwf	___ftpack@arg+1
  3852  06D9  0834               	movf	___ftmul@f3_as_product+2,w
  3853  06DA  00F2               	movwf	___ftpack@arg+2
  3854  06DB  0831               	movf	___ftmul@exp,w
  3855  06DC  00AD               	movwf	??___ftmul
  3856  06DD  082D               	movf	??___ftmul,w
  3857  06DE  00F3               	movwf	___ftpack@exp
  3858  06DF  0836               	movf	___ftmul@sign,w
  3859  06E0  00AE               	movwf	??___ftmul+1
  3860  06E1  082E               	movf	??___ftmul+1,w
  3861  06E2  00F4               	movwf	___ftpack@sign
  3862  06E3  3182  224A         	fcall	___ftpack
  3863  06E5  0870               	movf	?___ftpack,w
  3864  06E6  0020               	movlb	0	; select bank0
  3865  06E7  00A7               	movwf	?___ftmul
  3866  06E8  0871               	movf	?___ftpack+1,w
  3867  06E9  00A8               	movwf	?___ftmul+1
  3868  06EA  0872               	movf	?___ftpack+2,w
  3869  06EB  00A9               	movwf	?___ftmul+2
  3870  06EC  0008               	return
  3871  06ED                     __end_of___ftmul:	
  3872                           
  3873                           	psect	text7
  3874  0590                     __ptext7:	
  3875 ;; *************** function ___ftdiv *****************
  3876 ;; Defined at:
  3877 ;;		line 56 in file "C:\Program Files (x86)\Microchip\xc8\v1.41\sources\common\ftdiv.c"
  3878 ;; Parameters:    Size  Location     Type
  3879 ;;  f2              3   23[BANK0 ] float 
  3880 ;;  f1              3   26[BANK0 ] float 
  3881 ;; Auto vars:     Size  Location     Type
  3882 ;;  f3              3   34[BANK0 ] float 
  3883 ;;  sign            1   38[BANK0 ] unsigned char 
  3884 ;;  exp             1   37[BANK0 ] unsigned char 
  3885 ;;  cntr            1   33[BANK0 ] unsigned char 
  3886 ;; Return value:  Size  Location     Type
  3887 ;;                  3   23[BANK0 ] float 
  3888 ;; Registers used:
  3889 ;;		wreg, status,2, status,0, pclath, cstack
  3890 ;; Tracked objects:
  3891 ;;		On entry : 0/0
  3892 ;;		On exit  : 0/0
  3893 ;;		Unchanged: 0/0
  3894 ;; Data sizes:     COMMON   BANK0   BANK1   BANK2   BANK3   BANK4   BANK5   BANK6   BANK7   BANK8   BANK9  BANK10  BANK1
      +1  BANK12
  3895 ;;      Params:         0       6       0       0       0       0       0       0       0       0       0       0       
      +0       0
  3896 ;;      Locals:         0       6       0       0       0       0       0       0       0       0       0       0       
      +0       0
  3897 ;;      Temps:          0       4       0       0       0       0       0       0       0       0       0       0       
      +0       0
  3898 ;;      Totals:         0      16       0       0       0       0       0       0       0       0       0       0       
      +0       0
  3899 ;;Total ram usage:       16 bytes
  3900 ;; Hardware stack levels used:    1
  3901 ;; Hardware stack levels required when called:    1
  3902 ;; This function calls:
  3903 ;;		___ftpack
  3904 ;; This function is called by:
  3905 ;;		_Read_Temperature
  3906 ;; This function uses a non-reentrant model
  3907 ;;
  3908                           
  3909                           
  3910                           ;psect for function ___ftdiv
  3911  0590                     ___ftdiv:	
  3912                           
  3913                           ;incstack = 0
  3914                           ; Regs used in ___ftdiv: [wreg+status,2+status,0+pclath+cstack]
  3915  0590  0020               	movlb	0	; select bank0
  3916  0591  083A               	movf	___ftdiv@f1,w
  3917  0592  00BD               	movwf	??___ftdiv
  3918  0593  083B               	movf	___ftdiv@f1+1,w
  3919  0594  00BE               	movwf	??___ftdiv+1
  3920  0595  083C               	movf	___ftdiv@f1+2,w
  3921  0596  00BF               	movwf	??___ftdiv+2
  3922  0597  1003               	clrc
  3923  0598  0D3E               	rlf	??___ftdiv+1,w
  3924  0599  0D3F               	rlf	??___ftdiv+2,w
  3925  059A  00C0               	movwf	??___ftdiv+3
  3926  059B  0840               	movf	??___ftdiv+3,w
  3927  059C  00C5               	movwf	___ftdiv@exp
  3928  059D  0845               	movf	___ftdiv@exp,w
  3929  059E  1D03               	btfss	3,2
  3930  059F  2DA7               	goto	l1689
  3931  05A0  3000               	movlw	0
  3932  05A1  00B7               	movwf	?___ftdiv
  3933  05A2  3000               	movlw	0
  3934  05A3  00B8               	movwf	?___ftdiv+1
  3935  05A4  3000               	movlw	0
  3936  05A5  00B9               	movwf	?___ftdiv+2
  3937  05A6  0008               	return
  3938  05A7                     l1689:	
  3939  05A7  0837               	movf	___ftdiv@f2,w
  3940  05A8  00BD               	movwf	??___ftdiv
  3941  05A9  0838               	movf	___ftdiv@f2+1,w
  3942  05AA  00BE               	movwf	??___ftdiv+1
  3943  05AB  0839               	movf	___ftdiv@f2+2,w
  3944  05AC  00BF               	movwf	??___ftdiv+2
  3945  05AD  1003               	clrc
  3946  05AE  0D3E               	rlf	??___ftdiv+1,w
  3947  05AF  0D3F               	rlf	??___ftdiv+2,w
  3948  05B0  00C0               	movwf	??___ftdiv+3
  3949  05B1  0840               	movf	??___ftdiv+3,w
  3950  05B2  00C6               	movwf	___ftdiv@sign
  3951  05B3  0846               	movf	___ftdiv@sign,w
  3952  05B4  1D03               	btfss	3,2
  3953  05B5  2DBD               	goto	l1695
  3954  05B6  3000               	movlw	0
  3955  05B7  00B7               	movwf	?___ftdiv
  3956  05B8  3000               	movlw	0
  3957  05B9  00B8               	movwf	?___ftdiv+1
  3958  05BA  3000               	movlw	0
  3959  05BB  00B9               	movwf	?___ftdiv+2
  3960  05BC  0008               	return
  3961  05BD                     l1695:	
  3962  05BD  3000               	movlw	0
  3963  05BE  00C2               	movwf	___ftdiv@f3
  3964  05BF  3000               	movlw	0
  3965  05C0  00C3               	movwf	___ftdiv@f3+1
  3966  05C1  3000               	movlw	0
  3967  05C2  00C4               	movwf	___ftdiv@f3+2
  3968  05C3  3089               	movlw	137
  3969  05C4  0746               	addwf	___ftdiv@sign,w
  3970  05C5  00BD               	movwf	??___ftdiv
  3971  05C6  083D               	movf	??___ftdiv,w
  3972  05C7  02C5               	subwf	___ftdiv@exp,f
  3973  05C8  083A               	movf	___ftdiv@f1,w
  3974  05C9  00BD               	movwf	??___ftdiv
  3975  05CA  083B               	movf	___ftdiv@f1+1,w
  3976  05CB  00BE               	movwf	??___ftdiv+1
  3977  05CC  083C               	movf	___ftdiv@f1+2,w
  3978  05CD  00BF               	movwf	??___ftdiv+2
  3979  05CE  3010               	movlw	16
  3980  05CF                     u1895:	
  3981  05CF  36BF               	lsrf	??___ftdiv+2,f
  3982  05D0  0CBE               	rrf	??___ftdiv+1,f
  3983  05D1  0CBD               	rrf	??___ftdiv,f
  3984  05D2  0B89               	decfsz	9,f
  3985  05D3  2DCF               	goto	u1895
  3986  05D4  083D               	movf	??___ftdiv,w
  3987  05D5  00C0               	movwf	??___ftdiv+3
  3988  05D6  0840               	movf	??___ftdiv+3,w
  3989  05D7  00C6               	movwf	___ftdiv@sign
  3990  05D8  0837               	movf	___ftdiv@f2,w
  3991  05D9  00BD               	movwf	??___ftdiv
  3992  05DA  0838               	movf	___ftdiv@f2+1,w
  3993  05DB  00BE               	movwf	??___ftdiv+1
  3994  05DC  0839               	movf	___ftdiv@f2+2,w
  3995  05DD  00BF               	movwf	??___ftdiv+2
  3996  05DE  3010               	movlw	16
  3997  05DF                     u1905:	
  3998  05DF  36BF               	lsrf	??___ftdiv+2,f
  3999  05E0  0CBE               	rrf	??___ftdiv+1,f
  4000  05E1  0CBD               	rrf	??___ftdiv,f
  4001  05E2  0B89               	decfsz	9,f
  4002  05E3  2DDF               	goto	u1905
  4003  05E4  083D               	movf	??___ftdiv,w
  4004  05E5  00C0               	movwf	??___ftdiv+3
  4005  05E6  0840               	movf	??___ftdiv+3,w
  4006  05E7  06C6               	xorwf	___ftdiv@sign,f
  4007  05E8  3080               	movlw	128
  4008  05E9  00BD               	movwf	??___ftdiv
  4009  05EA  083D               	movf	??___ftdiv,w
  4010  05EB  05C6               	andwf	___ftdiv@sign,f
  4011  05EC  17BB               	bsf	___ftdiv@f1+1,7
  4012  05ED  30FF               	movlw	255
  4013  05EE  05BA               	andwf	___ftdiv@f1,f
  4014  05EF  30FF               	movlw	255
  4015  05F0  05BB               	andwf	___ftdiv@f1+1,f
  4016  05F1  3000               	movlw	0
  4017  05F2  05BC               	andwf	___ftdiv@f1+2,f
  4018  05F3  17B8               	bsf	___ftdiv@f2+1,7
  4019  05F4  30FF               	movlw	255
  4020  05F5  05B7               	andwf	___ftdiv@f2,f
  4021  05F6  30FF               	movlw	255
  4022  05F7  05B8               	andwf	___ftdiv@f2+1,f
  4023  05F8  3000               	movlw	0
  4024  05F9  05B9               	andwf	___ftdiv@f2+2,f
  4025  05FA  3018               	movlw	24
  4026  05FB  00BD               	movwf	??___ftdiv
  4027  05FC  083D               	movf	??___ftdiv,w
  4028  05FD  00C1               	movwf	___ftdiv@cntr
  4029  05FE                     l1709:	
  4030  05FE  3001               	movlw	1
  4031  05FF                     u1915:	
  4032  05FF  35C2               	lslf	___ftdiv@f3,f
  4033  0600  0DC3               	rlf	___ftdiv@f3+1,f
  4034  0601  0DC4               	rlf	___ftdiv@f3+2,f
  4035  0602  0B89               	decfsz	9,f
  4036  0603  2DFF               	goto	u1915
  4037  0604  0839               	movf	___ftdiv@f2+2,w
  4038  0605  023C               	subwf	___ftdiv@f1+2,w
  4039  0606  1D03               	skipz
  4040  0607  2E0E               	goto	u1925
  4041  0608  0838               	movf	___ftdiv@f2+1,w
  4042  0609  023B               	subwf	___ftdiv@f1+1,w
  4043  060A  1D03               	skipz
  4044  060B  2E0E               	goto	u1925
  4045  060C  0837               	movf	___ftdiv@f2,w
  4046  060D  023A               	subwf	___ftdiv@f1,w
  4047  060E                     u1925:	
  4048  060E  1C03               	skipc
  4049  060F  2E17               	goto	l1717
  4050  0610  0837               	movf	___ftdiv@f2,w
  4051  0611  02BA               	subwf	___ftdiv@f1,f
  4052  0612  0838               	movf	___ftdiv@f2+1,w
  4053  0613  3BBB               	subwfb	___ftdiv@f1+1,f
  4054  0614  0839               	movf	___ftdiv@f2+2,w
  4055  0615  3BBC               	subwfb	___ftdiv@f1+2,f
  4056  0616  1442               	bsf	___ftdiv@f3,0
  4057  0617                     l1717:	
  4058  0617  3001               	movlw	1
  4059  0618                     u1935:	
  4060  0618  35BA               	lslf	___ftdiv@f1,f
  4061  0619  0DBB               	rlf	___ftdiv@f1+1,f
  4062  061A  0DBC               	rlf	___ftdiv@f1+2,f
  4063  061B  0B89               	decfsz	9,f
  4064  061C  2E18               	goto	u1935
  4065  061D  3001               	movlw	1
  4066  061E  02C1               	subwf	___ftdiv@cntr,f
  4067  061F  1D03               	btfss	3,2
  4068  0620  2DFE               	goto	l1709
  4069  0621  0842               	movf	___ftdiv@f3,w
  4070  0622  00F0               	movwf	___ftpack@arg
  4071  0623  0843               	movf	___ftdiv@f3+1,w
  4072  0624  00F1               	movwf	___ftpack@arg+1
  4073  0625  0844               	movf	___ftdiv@f3+2,w
  4074  0626  00F2               	movwf	___ftpack@arg+2
  4075  0627  0845               	movf	___ftdiv@exp,w
  4076  0628  00BD               	movwf	??___ftdiv
  4077  0629  083D               	movf	??___ftdiv,w
  4078  062A  00F3               	movwf	___ftpack@exp
  4079  062B  0846               	movf	___ftdiv@sign,w
  4080  062C  00BE               	movwf	??___ftdiv+1
  4081  062D  083E               	movf	??___ftdiv+1,w
  4082  062E  00F4               	movwf	___ftpack@sign
  4083  062F  3182  224A         	fcall	___ftpack
  4084  0631  0870               	movf	?___ftpack,w
  4085  0632  0020               	movlb	0	; select bank0
  4086  0633  00B7               	movwf	?___ftdiv
  4087  0634  0871               	movf	?___ftpack+1,w
  4088  0635  00B8               	movwf	?___ftdiv+1
  4089  0636  0872               	movf	?___ftpack+2,w
  4090  0637  00B9               	movwf	?___ftdiv+2
  4091  0638  0008               	return
  4092  0639                     __end_of___ftdiv:	
  4093                           
  4094                           	psect	text8
  4095  06ED                     __ptext8:	
  4096 ;; *************** function ___ftadd *****************
  4097 ;; Defined at:
  4098 ;;		line 86 in file "C:\Program Files (x86)\Microchip\xc8\v1.41\sources\common\ftadd.c"
  4099 ;; Parameters:    Size  Location     Type
  4100 ;;  f1              3    8[COMMON] float 
  4101 ;;  f2              3   11[COMMON] float 
  4102 ;; Auto vars:     Size  Location     Type
  4103 ;;  exp1            1    6[BANK0 ] unsigned char 
  4104 ;;  exp2            1    5[BANK0 ] unsigned char 
  4105 ;;  sign            1    4[BANK0 ] unsigned char 
  4106 ;; Return value:  Size  Location     Type
  4107 ;;                  3    8[COMMON] float 
  4108 ;; Registers used:
  4109 ;;		wreg, status,2, status,0, pclath, cstack
  4110 ;; Tracked objects:
  4111 ;;		On entry : 0/0
  4112 ;;		On exit  : 0/0
  4113 ;;		Unchanged: 0/0
  4114 ;; Data sizes:     COMMON   BANK0   BANK1   BANK2   BANK3   BANK4   BANK5   BANK6   BANK7   BANK8   BANK9  BANK10  BANK1
      +1  BANK12
  4115 ;;      Params:         6       0       0       0       0       0       0       0       0       0       0       0       
      +0       0
  4116 ;;      Locals:         0       3       0       0       0       0       0       0       0       0       0       0       
      +0       0
  4117 ;;      Temps:          0       4       0       0       0       0       0       0       0       0       0       0       
      +0       0
  4118 ;;      Totals:         6       7       0       0       0       0       0       0       0       0       0       0       
      +0       0
  4119 ;;Total ram usage:       13 bytes
  4120 ;; Hardware stack levels used:    1
  4121 ;; Hardware stack levels required when called:    1
  4122 ;; This function calls:
  4123 ;;		___ftpack
  4124 ;; This function is called by:
  4125 ;;		_Read_Temperature
  4126 ;; This function uses a non-reentrant model
  4127 ;;
  4128                           
  4129                           
  4130                           ;psect for function ___ftadd
  4131  06ED                     ___ftadd:	
  4132                           
  4133                           ;incstack = 0
  4134                           ; Regs used in ___ftadd: [wreg+status,2+status,0+pclath+cstack]
  4135  06ED  0878               	movf	___ftadd@f1,w
  4136  06EE  0020               	movlb	0	; select bank0
  4137  06EF  00A0               	movwf	??___ftadd
  4138  06F0  0879               	movf	___ftadd@f1+1,w
  4139  06F1  00A1               	movwf	??___ftadd+1
  4140  06F2  087A               	movf	___ftadd@f1+2,w
  4141  06F3  00A2               	movwf	??___ftadd+2
  4142  06F4  1003               	clrc
  4143  06F5  0D21               	rlf	??___ftadd+1,w
  4144  06F6  0D22               	rlf	??___ftadd+2,w
  4145  06F7  00A3               	movwf	??___ftadd+3
  4146  06F8  0823               	movf	??___ftadd+3,w
  4147  06F9  00A6               	movwf	___ftadd@exp1
  4148  06FA  087B               	movf	___ftadd@f2,w
  4149  06FB  00A0               	movwf	??___ftadd
  4150  06FC  087C               	movf	___ftadd@f2+1,w
  4151  06FD  00A1               	movwf	??___ftadd+1
  4152  06FE  087D               	movf	___ftadd@f2+2,w
  4153  06FF  00A2               	movwf	??___ftadd+2
  4154  0700  1003               	clrc
  4155  0701  0D21               	rlf	??___ftadd+1,w
  4156  0702  0D22               	rlf	??___ftadd+2,w
  4157  0703  00A3               	movwf	??___ftadd+3
  4158  0704  0823               	movf	??___ftadd+3,w
  4159  0705  00A5               	movwf	___ftadd@exp2
  4160  0706  0826               	movf	___ftadd@exp1,w
  4161  0707  1903               	btfsc	3,2
  4162  0708  2F15               	goto	l1619
  4163  0709  0825               	movf	___ftadd@exp2,w
  4164  070A  0226               	subwf	___ftadd@exp1,w
  4165  070B  1803               	skipnc
  4166  070C  2F1C               	goto	l1623
  4167  070D  0326               	decf	___ftadd@exp1,w
  4168  070E  3AFF               	xorlw	255
  4169  070F  0725               	addwf	___ftadd@exp2,w
  4170  0710  00A0               	movwf	??___ftadd
  4171  0711  3019               	movlw	25
  4172  0712  0220               	subwf	??___ftadd,w
  4173  0713  1C03               	skipc
  4174  0714  2F1C               	goto	l1623
  4175  0715                     l1619:	
  4176  0715  087B               	movf	___ftadd@f2,w
  4177  0716  00F8               	movwf	?___ftadd
  4178  0717  087C               	movf	___ftadd@f2+1,w
  4179  0718  00F9               	movwf	?___ftadd+1
  4180  0719  087D               	movf	___ftadd@f2+2,w
  4181  071A  00FA               	movwf	?___ftadd+2
  4182  071B  0008               	return
  4183  071C                     l1623:	
  4184  071C  0825               	movf	___ftadd@exp2,w
  4185  071D  1903               	btfsc	3,2
  4186  071E  0008               	return
  4187  071F  0826               	movf	___ftadd@exp1,w
  4188  0720  0225               	subwf	___ftadd@exp2,w
  4189  0721  1803               	skipnc
  4190  0722  2F2B               	goto	l1629
  4191  0723  0325               	decf	___ftadd@exp2,w
  4192  0724  3AFF               	xorlw	255
  4193  0725  0726               	addwf	___ftadd@exp1,w
  4194  0726  00A0               	movwf	??___ftadd
  4195  0727  3019               	movlw	25
  4196  0728  0220               	subwf	??___ftadd,w
  4197  0729  1803               	btfsc	3,0
  4198  072A  0008               	return
  4199  072B                     l1629:	
  4200  072B  3006               	movlw	6
  4201  072C  00A0               	movwf	??___ftadd
  4202  072D  0820               	movf	??___ftadd,w
  4203  072E  00A4               	movwf	___ftadd@sign
  4204  072F  1BFA               	btfsc	___ftadd@f1+2,7
  4205  0730  17A4               	bsf	___ftadd@sign,7
  4206  0731  1BFD               	btfsc	___ftadd@f2+2,7
  4207  0732  1724               	bsf	___ftadd@sign,6
  4208  0733  17F9               	bsf	___ftadd@f1+1,7
  4209  0734  30FF               	movlw	255
  4210  0735  05F8               	andwf	___ftadd@f1,f
  4211  0736  30FF               	movlw	255
  4212  0737  05F9               	andwf	___ftadd@f1+1,f
  4213  0738  3000               	movlw	0
  4214  0739  05FA               	andwf	___ftadd@f1+2,f
  4215  073A  17FC               	bsf	___ftadd@f2+1,7
  4216  073B  30FF               	movlw	255
  4217  073C  05FB               	andwf	___ftadd@f2,f
  4218  073D  30FF               	movlw	255
  4219  073E  05FC               	andwf	___ftadd@f2+1,f
  4220  073F  3000               	movlw	0
  4221  0740  05FD               	andwf	___ftadd@f2+2,f
  4222  0741  0825               	movf	___ftadd@exp2,w
  4223  0742  0226               	subwf	___ftadd@exp1,w
  4224  0743  1803               	skipnc
  4225  0744  2F67               	goto	l1651
  4226  0745                     l1641:	
  4227  0745  3001               	movlw	1
  4228  0746                     u1735:	
  4229  0746  35FB               	lslf	___ftadd@f2,f
  4230  0747  0DFC               	rlf	___ftadd@f2+1,f
  4231  0748  0DFD               	rlf	___ftadd@f2+2,f
  4232  0749  0B89               	decfsz	9,f
  4233  074A  2F46               	goto	u1735
  4234  074B  3001               	movlw	1
  4235  074C  02A5               	subwf	___ftadd@exp2,f
  4236  074D  0825               	movf	___ftadd@exp2,w
  4237  074E  0626               	xorwf	___ftadd@exp1,w
  4238  074F  1903               	skipnz
  4239  0750  2F62               	goto	l1649
  4240  0751  3001               	movlw	1
  4241  0752  02A4               	subwf	___ftadd@sign,f
  4242  0753  0824               	movf	___ftadd@sign,w
  4243  0754  3907               	andlw	7
  4244  0755  1903               	btfsc	3,2
  4245  0756  2F62               	goto	l1649
  4246  0757  2F45               	goto	l1641
  4247  0758                     l1647:	
  4248  0758  3001               	movlw	1
  4249  0759                     u1765:	
  4250  0759  36FA               	lsrf	___ftadd@f1+2,f
  4251  075A  0CF9               	rrf	___ftadd@f1+1,f
  4252  075B  0CF8               	rrf	___ftadd@f1,f
  4253  075C  0B89               	decfsz	9,f
  4254  075D  2F59               	goto	u1765
  4255  075E  3001               	movlw	1
  4256  075F  00A0               	movwf	??___ftadd
  4257  0760  0820               	movf	??___ftadd,w
  4258  0761  07A6               	addwf	___ftadd@exp1,f
  4259  0762                     l1649:	
  4260  0762  0826               	movf	___ftadd@exp1,w
  4261  0763  0625               	xorwf	___ftadd@exp2,w
  4262  0764  1903               	btfsc	3,2
  4263  0765  2F8C               	goto	l486
  4264  0766  2F58               	goto	l1647
  4265  0767                     l1651:	
  4266  0767  0826               	movf	___ftadd@exp1,w
  4267  0768  0225               	subwf	___ftadd@exp2,w
  4268  0769  1803               	skipnc
  4269  076A  2F8C               	goto	l486
  4270  076B                     l1653:	
  4271  076B  3001               	movlw	1
  4272  076C                     u1795:	
  4273  076C  35F8               	lslf	___ftadd@f1,f
  4274  076D  0DF9               	rlf	___ftadd@f1+1,f
  4275  076E  0DFA               	rlf	___ftadd@f1+2,f
  4276  076F  0B89               	decfsz	9,f
  4277  0770  2F6C               	goto	u1795
  4278  0771  3001               	movlw	1
  4279  0772  02A6               	subwf	___ftadd@exp1,f
  4280  0773  0825               	movf	___ftadd@exp2,w
  4281  0774  0626               	xorwf	___ftadd@exp1,w
  4282  0775  1903               	skipnz
  4283  0776  2F88               	goto	l1661
  4284  0777  3001               	movlw	1
  4285  0778  02A4               	subwf	___ftadd@sign,f
  4286  0779  0824               	movf	___ftadd@sign,w
  4287  077A  3907               	andlw	7
  4288  077B  1903               	btfsc	3,2
  4289  077C  2F88               	goto	l1661
  4290  077D  2F6B               	goto	l1653
  4291  077E                     l1659:	
  4292  077E  3001               	movlw	1
  4293  077F                     u1825:	
  4294  077F  36FD               	lsrf	___ftadd@f2+2,f
  4295  0780  0CFC               	rrf	___ftadd@f2+1,f
  4296  0781  0CFB               	rrf	___ftadd@f2,f
  4297  0782  0B89               	decfsz	9,f
  4298  0783  2F7F               	goto	u1825
  4299  0784  3001               	movlw	1
  4300  0785  00A0               	movwf	??___ftadd
  4301  0786  0820               	movf	??___ftadd,w
  4302  0787  07A5               	addwf	___ftadd@exp2,f
  4303  0788                     l1661:	
  4304  0788  0826               	movf	___ftadd@exp1,w
  4305  0789  0625               	xorwf	___ftadd@exp2,w
  4306  078A  1D03               	skipz
  4307  078B  2F7E               	goto	l1659
  4308  078C                     l486:	
  4309  078C  1FA4               	btfss	___ftadd@sign,7
  4310  078D  2F9E               	goto	l1665
  4311  078E  30FF               	movlw	255
  4312  078F  06F8               	xorwf	___ftadd@f1,f
  4313  0790  30FF               	movlw	255
  4314  0791  06F9               	xorwf	___ftadd@f1+1,f
  4315  0792  30FF               	movlw	255
  4316  0793  06FA               	xorwf	___ftadd@f1+2,f
  4317  0794  3001               	movlw	1
  4318  0795  07F8               	addwf	___ftadd@f1,f
  4319  0796  3000               	movlw	0
  4320  0797  1803               	skipnc
  4321  0798  3001               	movlw	1
  4322  0799  07F9               	addwf	___ftadd@f1+1,f
  4323  079A  3000               	movlw	0
  4324  079B  1803               	skipnc
  4325  079C  3001               	movlw	1
  4326  079D  07FA               	addwf	___ftadd@f1+2,f
  4327  079E                     l1665:	
  4328  079E  1F24               	btfss	___ftadd@sign,6
  4329  079F  2FB0               	goto	l1669
  4330  07A0  30FF               	movlw	255
  4331  07A1  06FB               	xorwf	___ftadd@f2,f
  4332  07A2  30FF               	movlw	255
  4333  07A3  06FC               	xorwf	___ftadd@f2+1,f
  4334  07A4  30FF               	movlw	255
  4335  07A5  06FD               	xorwf	___ftadd@f2+2,f
  4336  07A6  3001               	movlw	1
  4337  07A7  07FB               	addwf	___ftadd@f2,f
  4338  07A8  3000               	movlw	0
  4339  07A9  1803               	skipnc
  4340  07AA  3001               	movlw	1
  4341  07AB  07FC               	addwf	___ftadd@f2+1,f
  4342  07AC  3000               	movlw	0
  4343  07AD  1803               	skipnc
  4344  07AE  3001               	movlw	1
  4345  07AF  07FD               	addwf	___ftadd@f2+2,f
  4346  07B0                     l1669:	
  4347  07B0  01A4               	clrf	___ftadd@sign
  4348  07B1  0878               	movf	___ftadd@f1,w
  4349  07B2  07FB               	addwf	___ftadd@f2,f
  4350  07B3  0879               	movf	___ftadd@f1+1,w
  4351  07B4  3DFC               	addwfc	___ftadd@f2+1,f
  4352  07B5  087A               	movf	___ftadd@f1+2,w
  4353  07B6  3DFD               	addwfc	___ftadd@f2+2,f
  4354  07B7  1FFD               	btfss	___ftadd@f2+2,7
  4355  07B8  2FCB               	goto	l1679
  4356  07B9  30FF               	movlw	255
  4357  07BA  06FB               	xorwf	___ftadd@f2,f
  4358  07BB  30FF               	movlw	255
  4359  07BC  06FC               	xorwf	___ftadd@f2+1,f
  4360  07BD  30FF               	movlw	255
  4361  07BE  06FD               	xorwf	___ftadd@f2+2,f
  4362  07BF  3001               	movlw	1
  4363  07C0  07FB               	addwf	___ftadd@f2,f
  4364  07C1  3000               	movlw	0
  4365  07C2  1803               	skipnc
  4366  07C3  3001               	movlw	1
  4367  07C4  07FC               	addwf	___ftadd@f2+1,f
  4368  07C5  3000               	movlw	0
  4369  07C6  1803               	skipnc
  4370  07C7  3001               	movlw	1
  4371  07C8  07FD               	addwf	___ftadd@f2+2,f
  4372  07C9  01A4               	clrf	___ftadd@sign
  4373  07CA  0AA4               	incf	___ftadd@sign,f
  4374  07CB                     l1679:	
  4375  07CB  087B               	movf	___ftadd@f2,w
  4376  07CC  00F0               	movwf	___ftpack@arg
  4377  07CD  087C               	movf	___ftadd@f2+1,w
  4378  07CE  00F1               	movwf	___ftpack@arg+1
  4379  07CF  087D               	movf	___ftadd@f2+2,w
  4380  07D0  00F2               	movwf	___ftpack@arg+2
  4381  07D1  0826               	movf	___ftadd@exp1,w
  4382  07D2  00A0               	movwf	??___ftadd
  4383  07D3  0820               	movf	??___ftadd,w
  4384  07D4  00F3               	movwf	___ftpack@exp
  4385  07D5  0824               	movf	___ftadd@sign,w
  4386  07D6  00A1               	movwf	??___ftadd+1
  4387  07D7  0821               	movf	??___ftadd+1,w
  4388  07D8  00F4               	movwf	___ftpack@sign
  4389  07D9  3182  224A         	fcall	___ftpack
  4390  07DB  0870               	movf	?___ftpack,w
  4391  07DC  00F8               	movwf	?___ftadd
  4392  07DD  0871               	movf	?___ftpack+1,w
  4393  07DE  00F9               	movwf	?___ftadd+1
  4394  07DF  0872               	movf	?___ftpack+2,w
  4395  07E0  00FA               	movwf	?___ftadd+2
  4396  07E1  0008               	return
  4397  07E2                     __end_of___ftadd:	
  4398                           
  4399                           	psect	text9
  4400  0F9A                     __ptext9:	
  4401 ;; *************** function ___awtoft *****************
  4402 ;; Defined at:
  4403 ;;		line 32 in file "C:\Program Files (x86)\Microchip\xc8\v1.41\sources\common\awtoft.c"
  4404 ;; Parameters:    Size  Location     Type
  4405 ;;  c               2    8[COMMON] int 
  4406 ;; Auto vars:     Size  Location     Type
  4407 ;;  sign            1   13[COMMON] unsigned char 
  4408 ;; Return value:  Size  Location     Type
  4409 ;;                  3    8[COMMON] float 
  4410 ;; Registers used:
  4411 ;;		wreg, status,2, status,0, pclath, cstack
  4412 ;; Tracked objects:
  4413 ;;		On entry : 0/0
  4414 ;;		On exit  : 0/0
  4415 ;;		Unchanged: 0/0
  4416 ;; Data sizes:     COMMON   BANK0   BANK1   BANK2   BANK3   BANK4   BANK5   BANK6   BANK7   BANK8   BANK9  BANK10  BANK1
      +1  BANK12
  4417 ;;      Params:         3       0       0       0       0       0       0       0       0       0       0       0       
      +0       0
  4418 ;;      Locals:         1       0       0       0       0       0       0       0       0       0       0       0       
      +0       0
  4419 ;;      Temps:          2       0       0       0       0       0       0       0       0       0       0       0       
      +0       0
  4420 ;;      Totals:         6       0       0       0       0       0       0       0       0       0       0       0       
      +0       0
  4421 ;;Total ram usage:        6 bytes
  4422 ;; Hardware stack levels used:    1
  4423 ;; Hardware stack levels required when called:    1
  4424 ;; This function calls:
  4425 ;;		___ftpack
  4426 ;; This function is called by:
  4427 ;;		_Read_Temperature
  4428 ;; This function uses a non-reentrant model
  4429 ;;
  4430                           
  4431                           
  4432                           ;psect for function ___awtoft
  4433  0F9A                     ___awtoft:	
  4434                           
  4435                           ;incstack = 0
  4436                           ; Regs used in ___awtoft: [wreg+status,2+status,0+pclath+cstack]
  4437  0F9A  01FD               	clrf	___awtoft@sign
  4438  0F9B  1FF9               	btfss	___awtoft@c+1,7
  4439  0F9C  2FA4               	goto	l1609
  4440  0F9D  09F8               	comf	___awtoft@c,f
  4441  0F9E  09F9               	comf	___awtoft@c+1,f
  4442  0F9F  0AF8               	incf	___awtoft@c,f
  4443  0FA0  1903               	skipnz
  4444  0FA1  0AF9               	incf	___awtoft@c+1,f
  4445  0FA2  01FD               	clrf	___awtoft@sign
  4446  0FA3  0AFD               	incf	___awtoft@sign,f
  4447  0FA4                     l1609:	
  4448  0FA4  0878               	movf	___awtoft@c,w
  4449  0FA5  00F0               	movwf	___ftpack@arg
  4450  0FA6  0879               	movf	___awtoft@c+1,w
  4451  0FA7  00F1               	movwf	___ftpack@arg+1
  4452  0FA8  01F2               	clrf	___ftpack@arg+2
  4453  0FA9  308E               	movlw	142
  4454  0FAA  00FB               	movwf	??___awtoft
  4455  0FAB  087B               	movf	??___awtoft,w
  4456  0FAC  00F3               	movwf	___ftpack@exp
  4457  0FAD  087D               	movf	___awtoft@sign,w
  4458  0FAE  00FC               	movwf	??___awtoft+1
  4459  0FAF  087C               	movf	??___awtoft+1,w
  4460  0FB0  00F4               	movwf	___ftpack@sign
  4461  0FB1  3182  224A         	fcall	___ftpack
  4462  0FB3  0870               	movf	?___ftpack,w
  4463  0FB4  00F8               	movwf	?___awtoft
  4464  0FB5  0871               	movf	?___ftpack+1,w
  4465  0FB6  00F9               	movwf	?___awtoft+1
  4466  0FB7  0872               	movf	?___ftpack+2,w
  4467  0FB8  00FA               	movwf	?___awtoft+2
  4468  0FB9  0008               	return
  4469  0FBA                     __end_of___awtoft:	
  4470                           
  4471                           	psect	text10
  4472  024A                     __ptext10:	
  4473 ;; *************** function ___ftpack *****************
  4474 ;; Defined at:
  4475 ;;		line 62 in file "C:\Program Files (x86)\Microchip\xc8\v1.41\sources\common\float.c"
  4476 ;; Parameters:    Size  Location     Type
  4477 ;;  arg             3    0[COMMON] unsigned um
  4478 ;;  exp             1    3[COMMON] unsigned char 
  4479 ;;  sign            1    4[COMMON] unsigned char 
  4480 ;; Auto vars:     Size  Location     Type
  4481 ;;		None
  4482 ;; Return value:  Size  Location     Type
  4483 ;;                  3    0[COMMON] float 
  4484 ;; Registers used:
  4485 ;;		wreg, status,2, status,0
  4486 ;; Tracked objects:
  4487 ;;		On entry : 0/0
  4488 ;;		On exit  : 0/0
  4489 ;;		Unchanged: 0/0
  4490 ;; Data sizes:     COMMON   BANK0   BANK1   BANK2   BANK3   BANK4   BANK5   BANK6   BANK7   BANK8   BANK9  BANK10  BANK1
      +1  BANK12
  4491 ;;      Params:         5       0       0       0       0       0       0       0       0       0       0       0       
      +0       0
  4492 ;;      Locals:         0       0       0       0       0       0       0       0       0       0       0       0       
      +0       0
  4493 ;;      Temps:          3       0       0       0       0       0       0       0       0       0       0       0       
      +0       0
  4494 ;;      Totals:         8       0       0       0       0       0       0       0       0       0       0       0       
      +0       0
  4495 ;;Total ram usage:        8 bytes
  4496 ;; Hardware stack levels used:    1
  4497 ;; This function calls:
  4498 ;;		Nothing
  4499 ;; This function is called by:
  4500 ;;		___awtoft
  4501 ;;		___ftadd
  4502 ;;		___ftdiv
  4503 ;;		___ftmul
  4504 ;; This function uses a non-reentrant model
  4505 ;;
  4506                           
  4507                           
  4508                           ;psect for function ___ftpack
  4509  024A                     ___ftpack:	
  4510                           
  4511                           ;incstack = 0
  4512                           ; Regs used in ___ftpack: [wreg+status,2+status,0]
  4513  024A  0873               	movf	___ftpack@exp,w
  4514  024B  1903               	btfsc	3,2
  4515  024C  2A52               	goto	l1531
  4516  024D  0872               	movf	___ftpack@arg+2,w
  4517  024E  0471               	iorwf	___ftpack@arg+1,w
  4518  024F  0470               	iorwf	___ftpack@arg,w
  4519  0250  1D03               	skipz
  4520  0251  2A63               	goto	l1537
  4521  0252                     l1531:	
  4522  0252  3000               	movlw	0
  4523  0253  00F0               	movwf	?___ftpack
  4524  0254  3000               	movlw	0
  4525  0255  00F1               	movwf	?___ftpack+1
  4526  0256  3000               	movlw	0
  4527  0257  00F2               	movwf	?___ftpack+2
  4528  0258  0008               	return
  4529  0259                     l1535:	
  4530  0259  3001               	movlw	1
  4531  025A  00F5               	movwf	??___ftpack
  4532  025B  0875               	movf	??___ftpack,w
  4533  025C  07F3               	addwf	___ftpack@exp,f
  4534  025D  3001               	movlw	1
  4535  025E                     u1465:	
  4536  025E  36F2               	lsrf	___ftpack@arg+2,f
  4537  025F  0CF1               	rrf	___ftpack@arg+1,f
  4538  0260  0CF0               	rrf	___ftpack@arg,f
  4539  0261  0B89               	decfsz	9,f
  4540  0262  2A5E               	goto	u1465
  4541  0263                     l1537:	
  4542  0263  30FE               	movlw	254
  4543  0264  0572               	andwf	___ftpack@arg+2,w
  4544  0265  1903               	btfsc	3,2
  4545  0266  2A7C               	goto	l455
  4546  0267  2A59               	goto	l1535
  4547  0268                     l1539:	
  4548  0268  3001               	movlw	1
  4549  0269  00F5               	movwf	??___ftpack
  4550  026A  0875               	movf	??___ftpack,w
  4551  026B  07F3               	addwf	___ftpack@exp,f
  4552  026C  3001               	movlw	1
  4553  026D  07F0               	addwf	___ftpack@arg,f
  4554  026E  3000               	movlw	0
  4555  026F  1803               	skipnc
  4556  0270  3001               	movlw	1
  4557  0271  07F1               	addwf	___ftpack@arg+1,f
  4558  0272  3000               	movlw	0
  4559  0273  1803               	skipnc
  4560  0274  3001               	movlw	1
  4561  0275  07F2               	addwf	___ftpack@arg+2,f
  4562  0276  3001               	movlw	1
  4563  0277                     u1485:	
  4564  0277  36F2               	lsrf	___ftpack@arg+2,f
  4565  0278  0CF1               	rrf	___ftpack@arg+1,f
  4566  0279  0CF0               	rrf	___ftpack@arg,f
  4567  027A  0B89               	decfsz	9,f
  4568  027B  2A77               	goto	u1485
  4569  027C                     l455:	
  4570  027C  30FF               	movlw	255
  4571  027D  0572               	andwf	___ftpack@arg+2,w
  4572  027E  1903               	btfsc	3,2
  4573  027F  2A89               	goto	l1547
  4574  0280  2A68               	goto	l1539
  4575  0281                     l1545:	
  4576  0281  3001               	movlw	1
  4577  0282  02F3               	subwf	___ftpack@exp,f
  4578  0283  3001               	movlw	1
  4579  0284                     u1505:	
  4580  0284  35F0               	lslf	___ftpack@arg,f
  4581  0285  0DF1               	rlf	___ftpack@arg+1,f
  4582  0286  0DF2               	rlf	___ftpack@arg+2,f
  4583  0287  0B89               	decfsz	9,f
  4584  0288  2A84               	goto	u1505
  4585  0289                     l1547:	
  4586  0289  1BF1               	btfsc	___ftpack@arg+1,7
  4587  028A  2A8F               	goto	l462
  4588  028B  3002               	movlw	2
  4589  028C  0273               	subwf	___ftpack@exp,w
  4590  028D  1803               	skipnc
  4591  028E  2A81               	goto	l1545
  4592  028F                     l462:	
  4593  028F  1873               	btfsc	___ftpack@exp,0
  4594  0290  2A97               	goto	l463
  4595  0291  30FF               	movlw	255
  4596  0292  05F0               	andwf	___ftpack@arg,f
  4597  0293  307F               	movlw	127
  4598  0294  05F1               	andwf	___ftpack@arg+1,f
  4599  0295  30FF               	movlw	255
  4600  0296  05F2               	andwf	___ftpack@arg+2,f
  4601  0297                     l463:	
  4602  0297  1003               	clrc
  4603  0298  0CF3               	rrf	___ftpack@exp,f
  4604  0299  0873               	movf	___ftpack@exp,w
  4605  029A  00F5               	movwf	??___ftpack
  4606  029B  01F6               	clrf	??___ftpack+1
  4607  029C  01F7               	clrf	??___ftpack+2
  4608  029D  3010               	movlw	16
  4609  029E                     u1545:	
  4610  029E  35F5               	lslf	??___ftpack,f
  4611  029F  0DF6               	rlf	??___ftpack+1,f
  4612  02A0  0DF7               	rlf	??___ftpack+2,f
  4613  02A1  0B89               	decfsz	9,f
  4614  02A2  2A9E               	goto	u1545
  4615  02A3  0875               	movf	??___ftpack,w
  4616  02A4  04F0               	iorwf	___ftpack@arg,f
  4617  02A5  0876               	movf	??___ftpack+1,w
  4618  02A6  04F1               	iorwf	___ftpack@arg+1,f
  4619  02A7  0877               	movf	??___ftpack+2,w
  4620  02A8  04F2               	iorwf	___ftpack@arg+2,f
  4621  02A9  0874               	movf	___ftpack@sign,w
  4622  02AA  1903               	btfsc	3,2
  4623  02AB  0008               	return
  4624  02AC  17F2               	bsf	___ftpack@arg+2,7
  4625  02AD  0008               	return
  4626  02AE                     __end_of___ftpack:	
  4627                           
  4628                           	psect	text11
  4629  01E6                     __ptext11:	
  4630 ;; *************** function _OLED_Init *****************
  4631 ;; Defined at:
  4632 ;;		line 174 in file "oled.c"
  4633 ;; Parameters:    Size  Location     Type
  4634 ;;		None
  4635 ;; Auto vars:     Size  Location     Type
  4636 ;;		None
  4637 ;; Return value:  Size  Location     Type
  4638 ;;                  1    wreg      void 
  4639 ;; Registers used:
  4640 ;;		wreg, status,2, status,0, pclath, cstack
  4641 ;; Tracked objects:
  4642 ;;		On entry : 0/0
  4643 ;;		On exit  : 0/0
  4644 ;;		Unchanged: 0/0
  4645 ;; Data sizes:     COMMON   BANK0   BANK1   BANK2   BANK3   BANK4   BANK5   BANK6   BANK7   BANK8   BANK9  BANK10  BANK1
      +1  BANK12
  4646 ;;      Params:         0       0       0       0       0       0       0       0       0       0       0       0       
      +0       0
  4647 ;;      Locals:         0       0       0       0       0       0       0       0       0       0       0       0       
      +0       0
  4648 ;;      Temps:          0       0       0       0       0       0       0       0       0       0       0       0       
      +0       0
  4649 ;;      Totals:         0       0       0       0       0       0       0       0       0       0       0       0       
      +0       0
  4650 ;;Total ram usage:        0 bytes
  4651 ;; Hardware stack levels used:    1
  4652 ;; Hardware stack levels required when called:    2
  4653 ;; This function calls:
  4654 ;;		_OLED_Command
  4655 ;; This function is called by:
  4656 ;;		_main
  4657 ;; This function uses a non-reentrant model
  4658 ;;
  4659                           
  4660                           
  4661                           ;psect for function _OLED_Init
  4662  01E6                     _OLED_Init:	
  4663                           
  4664                           ;oled.c: 176: OLED_Command(0xAE);
  4665                           
  4666                           ;incstack = 0
  4667                           ; Regs used in _OLED_Init: [wreg+status,2+status,0+pclath+cstack]
  4668  01E6  30AE               	movlw	174
  4669  01E7  318F  27BA  3181   	fcall	_OLED_Command
  4670                           
  4671                           ;oled.c: 177: OLED_Command(0xD5);
  4672  01EA  30D5               	movlw	213
  4673  01EB  318F  27BA  3181   	fcall	_OLED_Command
  4674                           
  4675                           ;oled.c: 178: OLED_Command(0x80);
  4676  01EE  3080               	movlw	128
  4677  01EF  318F  27BA  3181   	fcall	_OLED_Command
  4678                           
  4679                           ;oled.c: 179: OLED_Command(0xA8);
  4680  01F2  30A8               	movlw	168
  4681  01F3  318F  27BA  3181   	fcall	_OLED_Command
  4682                           
  4683                           ;oled.c: 180: OLED_Command(0x1F);
  4684  01F6  301F               	movlw	31
  4685  01F7  318F  27BA  3181   	fcall	_OLED_Command
  4686                           
  4687                           ;oled.c: 181: OLED_Command(0xD3);
  4688  01FA  30D3               	movlw	211
  4689  01FB  318F  27BA  3181   	fcall	_OLED_Command
  4690                           
  4691                           ;oled.c: 182: OLED_Command(0x0);
  4692  01FE  3000               	movlw	0
  4693  01FF  318F  27BA  3181   	fcall	_OLED_Command
  4694                           
  4695                           ;oled.c: 183: OLED_Command(0x40 | 0x0);
  4696  0202  3040               	movlw	64
  4697  0203  318F  27BA  3181   	fcall	_OLED_Command
  4698                           
  4699                           ;oled.c: 184: OLED_Command(0x8D);
  4700  0206  308D               	movlw	141
  4701  0207  318F  27BA  3181   	fcall	_OLED_Command
  4702                           
  4703                           ;oled.c: 185: OLED_Command(0xAF);
  4704  020A  30AF               	movlw	175
  4705  020B  318F  27BA  3181   	fcall	_OLED_Command
  4706                           
  4707                           ;oled.c: 186: OLED_Command(0x20);
  4708  020E  3020               	movlw	32
  4709  020F  318F  27BA  3181   	fcall	_OLED_Command
  4710                           
  4711                           ;oled.c: 187: OLED_Command(0x00);
  4712  0212  3000               	movlw	0
  4713  0213  318F  27BA  3181   	fcall	_OLED_Command
  4714                           
  4715                           ;oled.c: 188: OLED_Command(0xA0 | 0x1);
  4716  0216  30A1               	movlw	161
  4717  0217  318F  27BA  3181   	fcall	_OLED_Command
  4718                           
  4719                           ;oled.c: 189: OLED_Command(0xC8);
  4720  021A  30C8               	movlw	200
  4721  021B  318F  27BA  3181   	fcall	_OLED_Command
  4722                           
  4723                           ;oled.c: 190: OLED_Command(0xDA);
  4724  021E  30DA               	movlw	218
  4725  021F  318F  27BA  3181   	fcall	_OLED_Command
  4726                           
  4727                           ;oled.c: 191: OLED_Command(0x02);
  4728  0222  3002               	movlw	2
  4729  0223  318F  27BA  3181   	fcall	_OLED_Command
  4730                           
  4731                           ;oled.c: 192: OLED_Command(0x81);
  4732  0226  3081               	movlw	129
  4733  0227  318F  27BA  3181   	fcall	_OLED_Command
  4734                           
  4735                           ;oled.c: 193: OLED_Command(0x8F);
  4736  022A  308F               	movlw	143
  4737  022B  318F  27BA  3181   	fcall	_OLED_Command
  4738                           
  4739                           ;oled.c: 194: OLED_Command(0xD9);
  4740  022E  30D9               	movlw	217
  4741  022F  318F  27BA  3181   	fcall	_OLED_Command
  4742                           
  4743                           ;oled.c: 195: OLED_Command(0xF1);
  4744  0232  30F1               	movlw	241
  4745  0233  318F  27BA  3181   	fcall	_OLED_Command
  4746                           
  4747                           ;oled.c: 196: OLED_Command(0xDB);
  4748  0236  30DB               	movlw	219
  4749  0237  318F  27BA  3181   	fcall	_OLED_Command
  4750                           
  4751                           ;oled.c: 197: OLED_Command(0x40);
  4752  023A  3040               	movlw	64
  4753  023B  318F  27BA  3181   	fcall	_OLED_Command
  4754                           
  4755                           ;oled.c: 198: OLED_Command(0xA4);
  4756  023E  30A4               	movlw	164
  4757  023F  318F  27BA  3181   	fcall	_OLED_Command
  4758                           
  4759                           ;oled.c: 199: OLED_Command(0xA6);
  4760  0242  30A6               	movlw	166
  4761  0243  318F  27BA  3181   	fcall	_OLED_Command
  4762                           
  4763                           ;oled.c: 200: OLED_Command(0xAF);
  4764  0246  30AF               	movlw	175
  4765  0247  318F  27BA         	fcall	_OLED_Command
  4766  0249  0008               	return
  4767  024A                     __end_of_OLED_Init:	
  4768                           
  4769                           	psect	text12
  4770  0F73                     __ptext12:	
  4771 ;; *************** function _I2C_Init *****************
  4772 ;; Defined at:
  4773 ;;		line 19 in file "I2C.c"
  4774 ;; Parameters:    Size  Location     Type
  4775 ;;		None
  4776 ;; Auto vars:     Size  Location     Type
  4777 ;;		None
  4778 ;; Return value:  Size  Location     Type
  4779 ;;                  1    wreg      void 
  4780 ;; Registers used:
  4781 ;;		wreg, status,2, status,0
  4782 ;; Tracked objects:
  4783 ;;		On entry : 0/0
  4784 ;;		On exit  : 0/0
  4785 ;;		Unchanged: 0/0
  4786 ;; Data sizes:     COMMON   BANK0   BANK1   BANK2   BANK3   BANK4   BANK5   BANK6   BANK7   BANK8   BANK9  BANK10  BANK1
      +1  BANK12
  4787 ;;      Params:         0       0       0       0       0       0       0       0       0       0       0       0       
      +0       0
  4788 ;;      Locals:         0       0       0       0       0       0       0       0       0       0       0       0       
      +0       0
  4789 ;;      Temps:          1       0       0       0       0       0       0       0       0       0       0       0       
      +0       0
  4790 ;;      Totals:         1       0       0       0       0       0       0       0       0       0       0       0       
      +0       0
  4791 ;;Total ram usage:        1 bytes
  4792 ;; Hardware stack levels used:    1
  4793 ;; This function calls:
  4794 ;;		Nothing
  4795 ;; This function is called by:
  4796 ;;		_main
  4797 ;; This function uses a non-reentrant model
  4798 ;;
  4799                           
  4800                           
  4801                           ;psect for function _I2C_Init
  4802  0F73                     _I2C_Init:	
  4803                           
  4804                           ;I2C.c: 25: SSPCONbits.SSPM=0x08;
  4805                           
  4806                           ;incstack = 0
  4807                           ; Regs used in _I2C_Init: [wreg+status,2+status,0]
  4808  0F73  0024               	movlb	4	; select bank4
  4809  0F74  0815               	movf	21,w	;volatile
  4810  0F75  39F0               	andlw	-16
  4811  0F76  3808               	iorlw	8
  4812  0F77  0095               	movwf	21	;volatile
  4813                           
  4814                           ;I2C.c: 26: SSPCONbits.SSPEN=1;
  4815  0F78  1695               	bsf	21,5	;volatile
  4816                           
  4817                           ;I2C.c: 38: SSPADD = 39;
  4818  0F79  3027               	movlw	39
  4819  0F7A  0092               	movwf	18	;volatile
  4820                           
  4821                           ;I2C.c: 42: _delay((unsigned long)((10)*(16000000/4000.0)));
  4822  0F7B  3034               	movlw	52
  4823  0F7C  00F0               	movwf	??_I2C_Init
  4824  0F7D  30F2               	movlw	242
  4825  0F7E                     u2257:	
  4826  0F7E  0B89               	decfsz	9,f
  4827  0F7F  2F7E               	goto	u2257
  4828  0F80  0BF0               	decfsz	??_I2C_Init,f
  4829  0F81  2F7E               	goto	u2257
  4830  0F82  0008               	return
  4831  0F83                     __end_of_I2C_Init:	
  4832                           
  4833                           	psect	text13
  4834  037C                     __ptext13:	
  4835 ;; *************** function _Display_Temperature *****************
  4836 ;; Defined at:
  4837 ;;		line 202 in file "Main.c"
  4838 ;; Parameters:    Size  Location     Type
  4839 ;;  word_address    2   32[BANK0 ] int 
  4840 ;; Auto vars:     Size  Location     Type
  4841 ;;		None
  4842 ;; Return value:  Size  Location     Type
  4843 ;;                  1    wreg      void 
  4844 ;; Registers used:
  4845 ;;		wreg, fsr0l, fsr0h, fsr1l, fsr1h, status,2, status,0, pclath, cstack
  4846 ;; Tracked objects:
  4847 ;;		On entry : 0/0
  4848 ;;		On exit  : 0/0
  4849 ;;		Unchanged: 0/0
  4850 ;; Data sizes:     COMMON   BANK0   BANK1   BANK2   BANK3   BANK4   BANK5   BANK6   BANK7   BANK8   BANK9  BANK10  BANK1
      +1  BANK12
  4851 ;;      Params:         0       2       0       0       0       0       0       0       0       0       0       0       
      +0       0
  4852 ;;      Locals:         0       0       0       0       0       0       0       0       0       0       0       0       
      +0       0
  4853 ;;      Temps:          0       2       0       0       0       0       0       0       0       0       0       0       
      +0       0
  4854 ;;      Totals:         0       4       0       0       0       0       0       0       0       0       0       0       
      +0       0
  4855 ;;Total ram usage:        4 bytes
  4856 ;; Hardware stack levels used:    1
  4857 ;; Hardware stack levels required when called:    4
  4858 ;; This function calls:
  4859 ;;		_OLED_Clear
  4860 ;;		_OLED_Write_Integer
  4861 ;;		_OLED_Write_String
  4862 ;;		_OLED_YX
  4863 ;;		_Read_I2C_Data
  4864 ;;		_Send_I2C_ControlByte
  4865 ;;		_Send_I2C_Data
  4866 ;;		_Send_I2C_NAK
  4867 ;;		_Send_I2C_StartBit
  4868 ;;		_Send_I2C_StopBit
  4869 ;; This function is called by:
  4870 ;;		_main
  4871 ;; This function uses a non-reentrant model
  4872 ;;
  4873                           
  4874                           
  4875                           ;psect for function _Display_Temperature
  4876  037C                     _Display_Temperature:	
  4877                           
  4878                           ;Main.c: 205: OLED_YX(0, 0);
  4879                           
  4880                           ;incstack = 0
  4881                           ; Regs used in _Display_Temperature: [wreg-fsr1h+status,2+status,0+pclath+cstack]
  4882  037C  0020               	movlb	0	; select bank0
  4883  037D  01A5               	clrf	OLED_YX@Column
  4884  037E  3000               	movlw	0
  4885  037F  3180  202C  3183   	fcall	_OLED_YX
  4886                           
  4887                           ;Main.c: 206: OLED_Write_String("Get");
  4888  0382  303F               	movlw	low (STR_4| (0+32768))
  4889  0383  0020               	movlb	0	; select bank0
  4890  0384  00B6               	movwf	OLED_Write_String@s
  4891  0385  308B               	movlw	high (STR_4| (0+32768))
  4892  0386  00B7               	movwf	OLED_Write_String@s+1
  4893  0387  318F  2783  3183   	fcall	_OLED_Write_String
  4894                           
  4895                           ;Main.c: 207: _delay((unsigned long)((1000)*(16000000/4000.0)));
  4896  038A  3015               	movlw	21
  4897  038B  0020               	movlb	0	; select bank0
  4898  038C  00C3               	movwf	??_Display_Temperature+1
  4899  038D  304B               	movlw	75
  4900  038E  00C2               	movwf	??_Display_Temperature
  4901  038F  30BE               	movlw	190
  4902  0390                     u2267:	
  4903  0390  0B89               	decfsz	9,f
  4904  0391  2B90               	goto	u2267
  4905  0392  0BC2               	decfsz	??_Display_Temperature,f
  4906  0393  2B90               	goto	u2267
  4907  0394  0BC3               	decfsz	??_Display_Temperature+1,f
  4908  0395  2B90               	goto	u2267
  4909  0396  0000               	nop
  4910                           
  4911                           ;Main.c: 209: Send_I2C_StartBit();
  4912  0397  318F  272D  3183   	fcall	_Send_I2C_StartBit
  4913                           
  4914                           ;Main.c: 210: Send_I2C_ControlByte(block_address,0);
  4915  039A  0020               	movlb	0	; select bank0
  4916  039B  085E               	movf	_block_address+1,w
  4917  039C  00F1               	movwf	Send_I2C_ControlByte@BlockAddress+1
  4918  039D  085D               	movf	_block_address,w
  4919  039E  00F0               	movwf	Send_I2C_ControlByte@BlockAddress
  4920  039F  3000               	movlw	0
  4921  03A0  00F2               	movwf	Send_I2C_ControlByte@RW_bit
  4922  03A1  00F3               	movwf	Send_I2C_ControlByte@RW_bit+1
  4923  03A2  318F  2758  3183   	fcall	_Send_I2C_ControlByte
  4924                           
  4925                           ;Main.c: 211: Send_I2C_Data(word_address);
  4926  03A5  0020               	movlb	0	; select bank0
  4927  03A6  0841               	movf	Display_Temperature@word_address+1,w
  4928  03A7  00A1               	movwf	Send_I2C_Data@databyte+1
  4929  03A8  0840               	movf	Display_Temperature@word_address,w
  4930  03A9  00A0               	movwf	Send_I2C_Data@databyte
  4931  03AA  318F  273D  3183   	fcall	_Send_I2C_Data
  4932                           
  4933                           ;Main.c: 213: Send_I2C_StartBit();
  4934  03AD  318F  272D  3183   	fcall	_Send_I2C_StartBit
  4935                           
  4936                           ;Main.c: 214: Send_I2C_ControlByte(block_address,1);
  4937  03B0  0020               	movlb	0	; select bank0
  4938  03B1  085E               	movf	_block_address+1,w
  4939  03B2  00F1               	movwf	Send_I2C_ControlByte@BlockAddress+1
  4940  03B3  085D               	movf	_block_address,w
  4941  03B4  00F0               	movwf	Send_I2C_ControlByte@BlockAddress
  4942  03B5  3001               	movlw	1
  4943  03B6  00F2               	movwf	Send_I2C_ControlByte@RW_bit
  4944  03B7  3000               	movlw	0
  4945  03B8  00F3               	movwf	Send_I2C_ControlByte@RW_bit+1
  4946  03B9  318F  2758  3183   	fcall	_Send_I2C_ControlByte
  4947                           
  4948                           ;Main.c: 215: incoming_data = Read_I2C_Data();
  4949  03BC  318F  2763  3183   	fcall	_Read_I2C_Data
  4950  03BF  0871               	movf	?_Read_I2C_Data+1,w
  4951  03C0  0020               	movlb	0	; select bank0
  4952  03C1  00DC               	movwf	_incoming_data+1
  4953  03C2  0870               	movf	?_Read_I2C_Data,w
  4954  03C3  00DB               	movwf	_incoming_data
  4955                           
  4956                           ;Main.c: 216: Send_I2C_NAK();
  4957  03C4  318F  2746  3183   	fcall	_Send_I2C_NAK
  4958                           
  4959                           ;Main.c: 217: Send_I2C_StopBit();
  4960  03C7  318F  2735  3183   	fcall	_Send_I2C_StopBit
  4961                           
  4962                           ;Main.c: 219: OLED_YX(1, 6);
  4963  03CA  3006               	movlw	6
  4964  03CB  0020               	movlb	0	; select bank0
  4965  03CC  00C2               	movwf	??_Display_Temperature
  4966  03CD  0842               	movf	??_Display_Temperature,w
  4967  03CE  00A5               	movwf	OLED_YX@Column
  4968  03CF  3001               	movlw	1
  4969  03D0  3180  202C  3183   	fcall	_OLED_YX
  4970                           
  4971                           ;Main.c: 220: OLED_Write_Integer(word_address);
  4972  03D3  0020               	movlb	0	; select bank0
  4973  03D4  0840               	movf	Display_Temperature@word_address,w
  4974  03D5  318F  27DC  3183   	fcall	_OLED_Write_Integer
  4975                           
  4976                           ;Main.c: 222: OLED_YX(1, 0);
  4977  03D8  0020               	movlb	0	; select bank0
  4978  03D9  01A5               	clrf	OLED_YX@Column
  4979  03DA  3001               	movlw	1
  4980  03DB  3180  202C  3183   	fcall	_OLED_YX
  4981                           
  4982                           ;Main.c: 223: OLED_Write_Integer(incoming_data);
  4983  03DE  0020               	movlb	0	; select bank0
  4984  03DF  085B               	movf	_incoming_data,w
  4985  03E0  318F  27DC  3183   	fcall	_OLED_Write_Integer
  4986                           
  4987                           ;Main.c: 225: _delay((unsigned long)((1000)*(16000000/4000.0)));
  4988  03E3  3015               	movlw	21
  4989  03E4  0020               	movlb	0	; select bank0
  4990  03E5  00C3               	movwf	??_Display_Temperature+1
  4991  03E6  304B               	movlw	75
  4992  03E7  00C2               	movwf	??_Display_Temperature
  4993  03E8  30BE               	movlw	190
  4994  03E9                     u2277:	
  4995  03E9  0B89               	decfsz	9,f
  4996  03EA  2BE9               	goto	u2277
  4997  03EB  0BC2               	decfsz	??_Display_Temperature,f
  4998  03EC  2BE9               	goto	u2277
  4999  03ED  0BC3               	decfsz	??_Display_Temperature+1,f
  5000  03EE  2BE9               	goto	u2277
  5001  03EF  0000               	nop
  5002                           
  5003                           ;Main.c: 227: OLED_Clear();
  5004  03F0  3180  2083         	fcall	_OLED_Clear
  5005  03F2  0008               	return
  5006  03F3                     __end_of_Display_Temperature:	
  5007                           
  5008                           	psect	text14
  5009  0F46                     __ptext14:	
  5010 ;; *************** function _Send_I2C_NAK *****************
  5011 ;; Defined at:
  5012 ;;		line 128 in file "I2C.c"
  5013 ;; Parameters:    Size  Location     Type
  5014 ;;		None
  5015 ;; Auto vars:     Size  Location     Type
  5016 ;;		None
  5017 ;; Return value:  Size  Location     Type
  5018 ;;                  1    wreg      void 
  5019 ;; Registers used:
  5020 ;;		None
  5021 ;; Tracked objects:
  5022 ;;		On entry : 0/0
  5023 ;;		On exit  : 0/0
  5024 ;;		Unchanged: 0/0
  5025 ;; Data sizes:     COMMON   BANK0   BANK1   BANK2   BANK3   BANK4   BANK5   BANK6   BANK7   BANK8   BANK9  BANK10  BANK1
      +1  BANK12
  5026 ;;      Params:         0       0       0       0       0       0       0       0       0       0       0       0       
      +0       0
  5027 ;;      Locals:         0       0       0       0       0       0       0       0       0       0       0       0       
      +0       0
  5028 ;;      Temps:          0       0       0       0       0       0       0       0       0       0       0       0       
      +0       0
  5029 ;;      Totals:         0       0       0       0       0       0       0       0       0       0       0       0       
      +0       0
  5030 ;;Total ram usage:        0 bytes
  5031 ;; Hardware stack levels used:    1
  5032 ;; This function calls:
  5033 ;;		Nothing
  5034 ;; This function is called by:
  5035 ;;		_Display_Temperature
  5036 ;; This function uses a non-reentrant model
  5037 ;;
  5038                           
  5039                           
  5040                           ;psect for function _Send_I2C_NAK
  5041  0F46                     _Send_I2C_NAK:	
  5042                           
  5043                           ;I2C.c: 130: PIR1bits.SSP1IF=0;
  5044                           
  5045                           ;incstack = 0
  5046                           ; Regs used in _Send_I2C_NAK: []
  5047  0F46  0020               	movlb	0	; select bank0
  5048  0F47  1191               	bcf	17,3	;volatile
  5049                           
  5050                           ;I2C.c: 131: SSPCON2bits.ACKDT=1;
  5051  0F48  0024               	movlb	4	; select bank4
  5052  0F49  1696               	bsf	22,5	;volatile
  5053                           
  5054                           ;I2C.c: 132: SSPCON2bits.ACKEN=1;
  5055  0F4A  1616               	bsf	22,4	;volatile
  5056  0F4B                     l239:	
  5057                           ;I2C.c: 133: while(!PIR1bits.SSP1IF);
  5058                           
  5059  0F4B  0020               	movlb	0	; select bank0
  5060  0F4C  1991               	btfsc	17,3	;volatile
  5061  0F4D  0008               	return
  5062  0F4E  2F4B               	goto	l239
  5063  0F4F                     __end_of_Send_I2C_NAK:	
  5064                           
  5065                           	psect	text15
  5066  0F58                     __ptext15:	
  5067 ;; *************** function _Send_I2C_ControlByte *****************
  5068 ;; Defined at:
  5069 ;;		line 78 in file "I2C.c"
  5070 ;; Parameters:    Size  Location     Type
  5071 ;;  BlockAddress    2    0[COMMON] unsigned int 
  5072 ;;  RW_bit          2    2[COMMON] unsigned int 
  5073 ;; Auto vars:     Size  Location     Type
  5074 ;;		None
  5075 ;; Return value:  Size  Location     Type
  5076 ;;                  1    wreg      void 
  5077 ;; Registers used:
  5078 ;;		wreg, status,2, status,0
  5079 ;; Tracked objects:
  5080 ;;		On entry : 0/0
  5081 ;;		On exit  : 0/0
  5082 ;;		Unchanged: 0/0
  5083 ;; Data sizes:     COMMON   BANK0   BANK1   BANK2   BANK3   BANK4   BANK5   BANK6   BANK7   BANK8   BANK9  BANK10  BANK1
      +1  BANK12
  5084 ;;      Params:         4       0       0       0       0       0       0       0       0       0       0       0       
      +0       0
  5085 ;;      Locals:         0       0       0       0       0       0       0       0       0       0       0       0       
      +0       0
  5086 ;;      Temps:          0       0       0       0       0       0       0       0       0       0       0       0       
      +0       0
  5087 ;;      Totals:         4       0       0       0       0       0       0       0       0       0       0       0       
      +0       0
  5088 ;;Total ram usage:        4 bytes
  5089 ;; Hardware stack levels used:    1
  5090 ;; This function calls:
  5091 ;;		Nothing
  5092 ;; This function is called by:
  5093 ;;		_Write_Temperature
  5094 ;;		_Display_Temperature
  5095 ;; This function uses a non-reentrant model
  5096 ;;
  5097                           
  5098                           
  5099                           ;psect for function _Send_I2C_ControlByte
  5100  0F58                     _Send_I2C_ControlByte:	
  5101                           
  5102                           ;I2C.c: 80: PIR1bits.SSP1IF=0;
  5103                           
  5104                           ;incstack = 0
  5105                           ; Regs used in _Send_I2C_ControlByte: [wreg+status,2+status,0]
  5106  0F58  0020               	movlb	0	; select bank0
  5107  0F59  1191               	bcf	17,3	;volatile
  5108                           
  5109                           ;I2C.c: 88: SSPBUF = (((0b1010 << 4) | (BlockAddress <<1)) + RW_bit);
  5110  0F5A  3570               	lslf	Send_I2C_ControlByte@BlockAddress,w
  5111  0F5B  38A0               	iorlw	160
  5112  0F5C  0772               	addwf	Send_I2C_ControlByte@RW_bit,w
  5113  0F5D  0024               	movlb	4	; select bank4
  5114  0F5E  0091               	movwf	17	;volatile
  5115  0F5F                     l215:	
  5116                           ;I2C.c: 90: while(!PIR1bits.SSP1IF);
  5117                           
  5118  0F5F  0020               	movlb	0	; select bank0
  5119  0F60  1991               	btfsc	17,3	;volatile
  5120  0F61  0008               	return
  5121  0F62  2F5F               	goto	l215
  5122  0F63                     __end_of_Send_I2C_ControlByte:	
  5123                           
  5124                           	psect	text16
  5125  0F63                     __ptext16:	
  5126 ;; *************** function _Read_I2C_Data *****************
  5127 ;; Defined at:
  5128 ;;		line 59 in file "I2C.c"
  5129 ;; Parameters:    Size  Location     Type
  5130 ;;		None
  5131 ;; Auto vars:     Size  Location     Type
  5132 ;;		None
  5133 ;; Return value:  Size  Location     Type
  5134 ;;                  2    0[COMMON] unsigned int 
  5135 ;; Registers used:
  5136 ;;		wreg
  5137 ;; Tracked objects:
  5138 ;;		On entry : 0/0
  5139 ;;		On exit  : 0/0
  5140 ;;		Unchanged: 0/0
  5141 ;; Data sizes:     COMMON   BANK0   BANK1   BANK2   BANK3   BANK4   BANK5   BANK6   BANK7   BANK8   BANK9  BANK10  BANK1
      +1  BANK12
  5142 ;;      Params:         2       0       0       0       0       0       0       0       0       0       0       0       
      +0       0
  5143 ;;      Locals:         0       0       0       0       0       0       0       0       0       0       0       0       
      +0       0
  5144 ;;      Temps:          2       0       0       0       0       0       0       0       0       0       0       0       
      +0       0
  5145 ;;      Totals:         4       0       0       0       0       0       0       0       0       0       0       0       
      +0       0
  5146 ;;Total ram usage:        4 bytes
  5147 ;; Hardware stack levels used:    1
  5148 ;; This function calls:
  5149 ;;		Nothing
  5150 ;; This function is called by:
  5151 ;;		_Display_Temperature
  5152 ;; This function uses a non-reentrant model
  5153 ;;
  5154                           
  5155                           
  5156                           ;psect for function _Read_I2C_Data
  5157  0F63                     _Read_I2C_Data:	
  5158                           
  5159                           ;I2C.c: 61: PIR1bits.SSP1IF=0;
  5160                           
  5161                           ;incstack = 0
  5162                           ; Regs used in _Read_I2C_Data: [wreg]
  5163  0F63  0020               	movlb	0	; select bank0
  5164  0F64  1191               	bcf	17,3	;volatile
  5165                           
  5166                           ;I2C.c: 62: SSPCON2bits.RCEN=1;
  5167  0F65  0024               	movlb	4	; select bank4
  5168  0F66  1596               	bsf	22,3	;volatile
  5169  0F67                     l209:	
  5170                           ;I2C.c: 63: while(!PIR1bits.SSP1IF);
  5171                           
  5172  0F67  0020               	movlb	0	; select bank0
  5173  0F68  1D91               	btfss	17,3	;volatile
  5174  0F69  2F67               	goto	l209
  5175                           
  5176                           ;I2C.c: 64: return (SSPBUF);
  5177  0F6A  0024               	movlb	4	; select bank4
  5178  0F6B  0811               	movf	17,w	;volatile
  5179  0F6C  00F2               	movwf	??_Read_I2C_Data
  5180  0F6D  01F3               	clrf	??_Read_I2C_Data+1
  5181  0F6E  0872               	movf	??_Read_I2C_Data,w
  5182  0F6F  00F0               	movwf	?_Read_I2C_Data
  5183  0F70  0873               	movf	??_Read_I2C_Data+1,w
  5184  0F71  00F1               	movwf	?_Read_I2C_Data+1
  5185  0F72  0008               	return
  5186  0F73                     __end_of_Read_I2C_Data:	
  5187                           
  5188                           	psect	text17
  5189  0FDC                     __ptext17:	
  5190 ;; *************** function _OLED_Write_Integer *****************
  5191 ;; Defined at:
  5192 ;;		line 299 in file "oled.c"
  5193 ;; Parameters:    Size  Location     Type
  5194 ;;  i               1    wreg     unsigned char 
  5195 ;; Auto vars:     Size  Location     Type
  5196 ;;  i               1   28[BANK0 ] unsigned char 
  5197 ;;  status          2   30[BANK0 ] int 
  5198 ;;  buff11          1   29[BANK0 ] PTR unsigned char 
  5199 ;;		 -> OLED_Write_Integer@status(2), 
  5200 ;; Return value:  Size  Location     Type
  5201 ;;                  1    wreg      void 
  5202 ;; Registers used:
  5203 ;;		wreg, fsr0l, fsr0h, fsr1l, fsr1h, status,2, status,0, pclath, cstack
  5204 ;; Tracked objects:
  5205 ;;		On entry : 0/0
  5206 ;;		On exit  : 0/0
  5207 ;;		Unchanged: 0/0
  5208 ;; Data sizes:     COMMON   BANK0   BANK1   BANK2   BANK3   BANK4   BANK5   BANK6   BANK7   BANK8   BANK9  BANK10  BANK1
      +1  BANK12
  5209 ;;      Params:         0       0       0       0       0       0       0       0       0       0       0       0       
      +0       0
  5210 ;;      Locals:         0       4       0       0       0       0       0       0       0       0       0       0       
      +0       0
  5211 ;;      Temps:          0       3       0       0       0       0       0       0       0       0       0       0       
      +0       0
  5212 ;;      Totals:         0       7       0       0       0       0       0       0       0       0       0       0       
      +0       0
  5213 ;;Total ram usage:        7 bytes
  5214 ;; Hardware stack levels used:    1
  5215 ;; Hardware stack levels required when called:    3
  5216 ;; This function calls:
  5217 ;;		_OLED_Write_String
  5218 ;;		_itoa
  5219 ;; This function is called by:
  5220 ;;		_Write_Temperature
  5221 ;;		_Display_Temperature
  5222 ;; This function uses a non-reentrant model
  5223 ;;
  5224                           
  5225                           
  5226                           ;psect for function _OLED_Write_Integer
  5227  0FDC                     _OLED_Write_Integer:	
  5228                           
  5229                           ;incstack = 0
  5230                           ; Regs used in _OLED_Write_Integer: [wreg-fsr1h+status,2+status,0+pclath+cstack]
  5231                           ;OLED_Write_Integer@i stored from wreg
  5232  0FDC  0020               	movlb	0	; select bank0
  5233  0FDD  00BC               	movwf	OLED_Write_Integer@i
  5234                           
  5235                           ;oled.c: 301: char* buff11;
  5236                           ;oled.c: 302: int status;
  5237                           ;oled.c: 304: buff11 = itoa(&status, i, 10);
  5238  0FDE  083C               	movf	OLED_Write_Integer@i,w
  5239  0FDF  00B9               	movwf	??_OLED_Write_Integer
  5240  0FE0  01BA               	clrf	??_OLED_Write_Integer+1
  5241  0FE1  0839               	movf	??_OLED_Write_Integer,w
  5242  0FE2  00A4               	movwf	itoa@val
  5243  0FE3  083A               	movf	??_OLED_Write_Integer+1,w
  5244  0FE4  00A5               	movwf	itoa@val+1
  5245  0FE5  300A               	movlw	10
  5246  0FE6  00A6               	movwf	itoa@base
  5247  0FE7  3000               	movlw	0
  5248  0FE8  00A7               	movwf	itoa@base+1
  5249  0FE9  303E               	movlw	(low (OLED_Write_Integer@status| 0))& (0+255)
  5250  0FEA  3180  2006  318F   	fcall	_itoa
  5251  0FED  0020               	movlb	0	; select bank0
  5252  0FEE  00BB               	movwf	??_OLED_Write_Integer+2
  5253  0FEF  083B               	movf	??_OLED_Write_Integer+2,w
  5254  0FF0  00BD               	movwf	OLED_Write_Integer@buff11
  5255                           
  5256                           ;oled.c: 307: OLED_Write_String(buff11);
  5257  0FF1  083D               	movf	OLED_Write_Integer@buff11,w
  5258  0FF2  00B6               	movwf	OLED_Write_String@s
  5259  0FF3  3000               	movlw	0
  5260  0FF4  00B7               	movwf	OLED_Write_String@s+1
  5261  0FF5  318F  2783  318F   	fcall	_OLED_Write_String
  5262                           
  5263                           ;oled.c: 308: OLED_Write_String( "     " );
  5264  0FF8  3039               	movlw	low (STR_1| (0+32768))
  5265  0FF9  0020               	movlb	0	; select bank0
  5266  0FFA  00B6               	movwf	OLED_Write_String@s
  5267  0FFB  308B               	movlw	high (STR_1| (0+32768))
  5268  0FFC  00B7               	movwf	OLED_Write_String@s+1
  5269  0FFD  318F  2783         	fcall	_OLED_Write_String
  5270  0FFF  0008               	return
  5271  1000                     __end_of_OLED_Write_Integer:	
  5272                           
  5273                           	psect	text18
  5274  0006                     __ptext18:	
  5275 ;; *************** function _itoa *****************
  5276 ;; Defined at:
  5277 ;;		line 4 in file "C:\Program Files (x86)\Microchip\xc8\v1.41\sources\common\itoa.c"
  5278 ;; Parameters:    Size  Location     Type
  5279 ;;  buf             1    wreg     PTR unsigned char 
  5280 ;;		 -> OLED_Write_Integer@status(2), 
  5281 ;;  val             2    4[BANK0 ] int 
  5282 ;;  base            2    6[BANK0 ] int 
  5283 ;; Auto vars:     Size  Location     Type
  5284 ;;  buf             1    9[BANK0 ] PTR unsigned char 
  5285 ;;		 -> OLED_Write_Integer@status(2), 
  5286 ;;  cp              1    8[BANK0 ] PTR unsigned char 
  5287 ;;		 -> OLED_Write_Integer@status(2), 
  5288 ;; Return value:  Size  Location     Type
  5289 ;;                  1    wreg      PTR unsigned char 
  5290 ;; Registers used:
  5291 ;;		wreg, fsr1l, fsr1h, status,2, status,0, pclath, cstack
  5292 ;; Tracked objects:
  5293 ;;		On entry : 0/0
  5294 ;;		On exit  : 0/0
  5295 ;;		Unchanged: 0/0
  5296 ;; Data sizes:     COMMON   BANK0   BANK1   BANK2   BANK3   BANK4   BANK5   BANK6   BANK7   BANK8   BANK9  BANK10  BANK1
      +1  BANK12
  5297 ;;      Params:         0       4       0       0       0       0       0       0       0       0       0       0       
      +0       0
  5298 ;;      Locals:         0       2       0       0       0       0       0       0       0       0       0       0       
      +0       0
  5299 ;;      Temps:          1       0       0       0       0       0       0       0       0       0       0       0       
      +0       0
  5300 ;;      Totals:         1       6       0       0       0       0       0       0       0       0       0       0       
      +0       0
  5301 ;;Total ram usage:        7 bytes
  5302 ;; Hardware stack levels used:    1
  5303 ;; Hardware stack levels required when called:    2
  5304 ;; This function calls:
  5305 ;;		_utoa
  5306 ;; This function is called by:
  5307 ;;		_OLED_Write_Integer
  5308 ;; This function uses a non-reentrant model
  5309 ;;
  5310                           
  5311                           
  5312                           ;psect for function _itoa
  5313  0006                     _itoa:	
  5314                           
  5315                           ;incstack = 0
  5316                           ; Regs used in _itoa: [wreg+fsr1l+fsr1h+status,2+status,0+pclath+cstack]
  5317                           ;itoa@buf stored from wreg
  5318  0006  0020               	movlb	0	; select bank0
  5319  0007  00A9               	movwf	itoa@buf
  5320  0008  0829               	movf	itoa@buf,w
  5321  0009  00FD               	movwf	??_itoa
  5322  000A  087D               	movf	??_itoa,w
  5323  000B  00A8               	movwf	itoa@cp
  5324  000C  1FA5               	btfss	itoa@val+1,7
  5325  000D  281E               	goto	l1521
  5326  000E  302D               	movlw	45
  5327  000F  00FD               	movwf	??_itoa
  5328  0010  0829               	movf	itoa@buf,w
  5329  0011  0086               	movwf	6
  5330  0012  0187               	clrf	7
  5331  0013  087D               	movf	??_itoa,w
  5332  0014  0081               	movwf	1
  5333  0015  3001               	movlw	1
  5334  0016  00FD               	movwf	??_itoa
  5335  0017  087D               	movf	??_itoa,w
  5336  0018  07A9               	addwf	itoa@buf,f
  5337  0019  09A4               	comf	itoa@val,f
  5338  001A  09A5               	comf	itoa@val+1,f
  5339  001B  0AA4               	incf	itoa@val,f
  5340  001C  1903               	skipnz
  5341  001D  0AA5               	incf	itoa@val+1,f
  5342  001E                     l1521:	
  5343  001E  0825               	movf	itoa@val+1,w
  5344  001F  00F9               	movwf	utoa@val+1
  5345  0020  0824               	movf	itoa@val,w
  5346  0021  00F8               	movwf	utoa@val
  5347  0022  0827               	movf	itoa@base+1,w
  5348  0023  00FB               	movwf	utoa@base+1
  5349  0024  0826               	movf	itoa@base,w
  5350  0025  00FA               	movwf	utoa@base
  5351  0026  0829               	movf	itoa@buf,w
  5352  0027  3181  2121         	fcall	_utoa
  5353  0029  0020               	movlb	0	; select bank0
  5354  002A  0828               	movf	itoa@cp,w
  5355  002B  0008               	return
  5356  002C                     __end_of_itoa:	
  5357                           
  5358                           	psect	text19
  5359  0121                     __ptext19:	
  5360 ;; *************** function _utoa *****************
  5361 ;; Defined at:
  5362 ;;		line 17 in file "C:\Program Files (x86)\Microchip\xc8\v1.41\sources\common\itoa.c"
  5363 ;; Parameters:    Size  Location     Type
  5364 ;;  buf             1    wreg     PTR unsigned char 
  5365 ;;		 -> OLED_Write_Integer@status(2), 
  5366 ;;  val             2    8[COMMON] unsigned int 
  5367 ;;  base            2   10[COMMON] int 
  5368 ;; Auto vars:     Size  Location     Type
  5369 ;;  buf             1    3[BANK0 ] PTR unsigned char 
  5370 ;;		 -> OLED_Write_Integer@status(2), 
  5371 ;;  v               2    0[BANK0 ] unsigned int 
  5372 ;;  c               1    2[BANK0 ] unsigned char 
  5373 ;; Return value:  Size  Location     Type
  5374 ;;                  1    wreg      PTR unsigned char 
  5375 ;; Registers used:
  5376 ;;		wreg, fsr1l, fsr1h, status,2, status,0, pclath, cstack
  5377 ;; Tracked objects:
  5378 ;;		On entry : 0/0
  5379 ;;		On exit  : 0/0
  5380 ;;		Unchanged: 0/0
  5381 ;; Data sizes:     COMMON   BANK0   BANK1   BANK2   BANK3   BANK4   BANK5   BANK6   BANK7   BANK8   BANK9  BANK10  BANK1
      +1  BANK12
  5382 ;;      Params:         4       0       0       0       0       0       0       0       0       0       0       0       
      +0       0
  5383 ;;      Locals:         0       4       0       0       0       0       0       0       0       0       0       0       
      +0       0
  5384 ;;      Temps:          1       0       0       0       0       0       0       0       0       0       0       0       
      +0       0
  5385 ;;      Totals:         5       4       0       0       0       0       0       0       0       0       0       0       
      +0       0
  5386 ;;Total ram usage:        9 bytes
  5387 ;; Hardware stack levels used:    1
  5388 ;; Hardware stack levels required when called:    1
  5389 ;; This function calls:
  5390 ;;		___lwdiv
  5391 ;;		___lwmod
  5392 ;; This function is called by:
  5393 ;;		_itoa
  5394 ;; This function uses a non-reentrant model
  5395 ;;
  5396                           
  5397                           
  5398                           ;psect for function _utoa
  5399  0121                     _utoa:	
  5400                           
  5401                           ;incstack = 0
  5402                           ; Regs used in _utoa: [wreg+fsr1l+fsr1h+status,2+status,0+pclath+cstack]
  5403                           ;utoa@buf stored from wreg
  5404  0121  0020               	movlb	0	; select bank0
  5405  0122  00A3               	movwf	utoa@buf
  5406  0123  0879               	movf	utoa@val+1,w
  5407  0124  00A1               	movwf	utoa@v+1
  5408  0125  0878               	movf	utoa@val,w
  5409  0126  00A0               	movwf	utoa@v
  5410  0127                     l1473:	
  5411  0127  087B               	movf	utoa@base+1,w
  5412  0128  00F1               	movwf	___lwdiv@divisor+1
  5413  0129  087A               	movf	utoa@base,w
  5414  012A  00F0               	movwf	___lwdiv@divisor
  5415  012B  0821               	movf	utoa@v+1,w
  5416  012C  00F3               	movwf	___lwdiv@dividend+1
  5417  012D  0820               	movf	utoa@v,w
  5418  012E  00F2               	movwf	___lwdiv@dividend
  5419  012F  3180  20B3  3181   	fcall	___lwdiv
  5420  0132  0871               	movf	?___lwdiv+1,w
  5421  0133  0020               	movlb	0	; select bank0
  5422  0134  00A1               	movwf	utoa@v+1
  5423  0135  0870               	movf	?___lwdiv,w
  5424  0136  00A0               	movwf	utoa@v
  5425  0137  3001               	movlw	1
  5426  0138  00FC               	movwf	??_utoa
  5427  0139  087C               	movf	??_utoa,w
  5428  013A  07A3               	addwf	utoa@buf,f
  5429  013B  0820               	movf	utoa@v,w
  5430  013C  0421               	iorwf	utoa@v+1,w
  5431  013D  1D03               	btfss	3,2
  5432  013E  2927               	goto	l1473
  5433  013F  0823               	movf	utoa@buf,w
  5434  0140  0086               	movwf	6
  5435  0141  0187               	clrf	7
  5436  0142  0181               	clrf	1
  5437  0143  3001               	movlw	1
  5438  0144  02A3               	subwf	utoa@buf,f
  5439  0145                     l1483:	
  5440  0145  087B               	movf	utoa@base+1,w
  5441  0146  00F1               	movwf	___lwmod@divisor+1
  5442  0147  087A               	movf	utoa@base,w
  5443  0148  00F0               	movwf	___lwmod@divisor
  5444  0149  0879               	movf	utoa@val+1,w
  5445  014A  00F3               	movwf	___lwmod@dividend+1
  5446  014B  0878               	movf	utoa@val,w
  5447  014C  00F2               	movwf	___lwmod@dividend
  5448  014D  3180  2057  3181   	fcall	___lwmod
  5449  0150  0870               	movf	?___lwmod,w
  5450  0151  00FC               	movwf	??_utoa
  5451  0152  087C               	movf	??_utoa,w
  5452  0153  0020               	movlb	0	; select bank0
  5453  0154  00A2               	movwf	utoa@c
  5454  0155  087B               	movf	utoa@base+1,w
  5455  0156  00F1               	movwf	___lwdiv@divisor+1
  5456  0157  087A               	movf	utoa@base,w
  5457  0158  00F0               	movwf	___lwdiv@divisor
  5458  0159  0879               	movf	utoa@val+1,w
  5459  015A  00F3               	movwf	___lwdiv@dividend+1
  5460  015B  0878               	movf	utoa@val,w
  5461  015C  00F2               	movwf	___lwdiv@dividend
  5462  015D  3180  20B3  3181   	fcall	___lwdiv
  5463  0160  0871               	movf	?___lwdiv+1,w
  5464  0161  00F9               	movwf	utoa@val+1
  5465  0162  0870               	movf	?___lwdiv,w
  5466  0163  00F8               	movwf	utoa@val
  5467  0164  300A               	movlw	10
  5468  0165  0020               	movlb	0	; select bank0
  5469  0166  0222               	subwf	utoa@c,w
  5470  0167  1C03               	skipc
  5471  0168  296D               	goto	l574
  5472  0169  3007               	movlw	7
  5473  016A  00FC               	movwf	??_utoa
  5474  016B  087C               	movf	??_utoa,w
  5475  016C  07A2               	addwf	utoa@c,f
  5476  016D                     l574:	
  5477  016D  3030               	movlw	48
  5478  016E  00FC               	movwf	??_utoa
  5479  016F  087C               	movf	??_utoa,w
  5480  0170  07A2               	addwf	utoa@c,f
  5481  0171  0822               	movf	utoa@c,w
  5482  0172  00FC               	movwf	??_utoa
  5483  0173  0823               	movf	utoa@buf,w
  5484  0174  0086               	movwf	6
  5485  0175  0187               	clrf	7
  5486  0176  087C               	movf	??_utoa,w
  5487  0177  0081               	movwf	1
  5488  0178  3001               	movlw	1
  5489  0179  02A3               	subwf	utoa@buf,f
  5490  017A  0878               	movf	utoa@val,w
  5491  017B  0479               	iorwf	utoa@val+1,w
  5492  017C  1D03               	btfss	3,2
  5493  017D  2945               	goto	l1483
  5494                           
  5495                           ;	Return value of _utoa is never used
  5496  017E  3001               	movlw	1
  5497  017F  00FC               	movwf	??_utoa
  5498  0180  087C               	movf	??_utoa,w
  5499  0181  07A3               	addwf	utoa@buf,f
  5500  0182  0008               	return
  5501  0183                     __end_of_utoa:	
  5502                           
  5503                           	psect	text20
  5504  0057                     __ptext20:	
  5505 ;; *************** function ___lwmod *****************
  5506 ;; Defined at:
  5507 ;;		line 6 in file "C:\Program Files (x86)\Microchip\xc8\v1.41\sources\common\lwmod.c"
  5508 ;; Parameters:    Size  Location     Type
  5509 ;;  divisor         2    0[COMMON] unsigned int 
  5510 ;;  dividend        2    2[COMMON] unsigned int 
  5511 ;; Auto vars:     Size  Location     Type
  5512 ;;  counter         1    5[COMMON] unsigned char 
  5513 ;; Return value:  Size  Location     Type
  5514 ;;                  2    0[COMMON] unsigned int 
  5515 ;; Registers used:
  5516 ;;		wreg, status,2, status,0
  5517 ;; Tracked objects:
  5518 ;;		On entry : 0/0
  5519 ;;		On exit  : 0/0
  5520 ;;		Unchanged: 0/0
  5521 ;; Data sizes:     COMMON   BANK0   BANK1   BANK2   BANK3   BANK4   BANK5   BANK6   BANK7   BANK8   BANK9  BANK10  BANK1
      +1  BANK12
  5522 ;;      Params:         4       0       0       0       0       0       0       0       0       0       0       0       
      +0       0
  5523 ;;      Locals:         1       0       0       0       0       0       0       0       0       0       0       0       
      +0       0
  5524 ;;      Temps:          1       0       0       0       0       0       0       0       0       0       0       0       
      +0       0
  5525 ;;      Totals:         6       0       0       0       0       0       0       0       0       0       0       0       
      +0       0
  5526 ;;Total ram usage:        6 bytes
  5527 ;; Hardware stack levels used:    1
  5528 ;; This function calls:
  5529 ;;		Nothing
  5530 ;; This function is called by:
  5531 ;;		_utoa
  5532 ;; This function uses a non-reentrant model
  5533 ;;
  5534                           
  5535                           
  5536                           ;psect for function ___lwmod
  5537  0057                     ___lwmod:	
  5538                           
  5539                           ;incstack = 0
  5540                           ; Regs used in ___lwmod: [wreg+status,2+status,0]
  5541  0057  0870               	movf	___lwmod@divisor,w
  5542  0058  0471               	iorwf	___lwmod@divisor+1,w
  5543  0059  1903               	btfsc	3,2
  5544  005A  287E               	goto	l1425
  5545  005B  01F5               	clrf	___lwmod@counter
  5546  005C  0AF5               	incf	___lwmod@counter,f
  5547  005D                     l1415:	
  5548  005D  1BF1               	btfsc	___lwmod@divisor+1,7
  5549  005E  2869               	goto	l1417
  5550  005F  3001               	movlw	1
  5551  0060                     u1285:	
  5552  0060  35F0               	lslf	___lwmod@divisor,f
  5553  0061  0DF1               	rlf	___lwmod@divisor+1,f
  5554  0062  0B89               	decfsz	9,f
  5555  0063  2860               	goto	u1285
  5556  0064  3001               	movlw	1
  5557  0065  00F4               	movwf	??___lwmod
  5558  0066  0874               	movf	??___lwmod,w
  5559  0067  07F5               	addwf	___lwmod@counter,f
  5560  0068  285D               	goto	l1415
  5561  0069                     l1417:	
  5562  0069  0871               	movf	___lwmod@divisor+1,w
  5563  006A  0273               	subwf	___lwmod@dividend+1,w
  5564  006B  1D03               	skipz
  5565  006C  286F               	goto	u1305
  5566  006D  0870               	movf	___lwmod@divisor,w
  5567  006E  0272               	subwf	___lwmod@dividend,w
  5568  006F                     u1305:	
  5569  006F  1C03               	skipc
  5570  0070  2875               	goto	l1421
  5571  0071  0870               	movf	___lwmod@divisor,w
  5572  0072  02F2               	subwf	___lwmod@dividend,f
  5573  0073  0871               	movf	___lwmod@divisor+1,w
  5574  0074  3BF3               	subwfb	___lwmod@dividend+1,f
  5575  0075                     l1421:	
  5576  0075  3001               	movlw	1
  5577  0076                     u1315:	
  5578  0076  36F1               	lsrf	___lwmod@divisor+1,f
  5579  0077  0CF0               	rrf	___lwmod@divisor,f
  5580  0078  0B89               	decfsz	9,f
  5581  0079  2876               	goto	u1315
  5582  007A  3001               	movlw	1
  5583  007B  02F5               	subwf	___lwmod@counter,f
  5584  007C  1D03               	btfss	3,2
  5585  007D  2869               	goto	l1417
  5586  007E                     l1425:	
  5587  007E  0873               	movf	___lwmod@dividend+1,w
  5588  007F  00F1               	movwf	?___lwmod+1
  5589  0080  0872               	movf	___lwmod@dividend,w
  5590  0081  00F0               	movwf	?___lwmod
  5591  0082  0008               	return
  5592  0083                     __end_of___lwmod:	
  5593                           
  5594                           	psect	text21
  5595  00B3                     __ptext21:	
  5596 ;; *************** function ___lwdiv *****************
  5597 ;; Defined at:
  5598 ;;		line 6 in file "C:\Program Files (x86)\Microchip\xc8\v1.41\sources\common\lwdiv.c"
  5599 ;; Parameters:    Size  Location     Type
  5600 ;;  divisor         2    0[COMMON] unsigned int 
  5601 ;;  dividend        2    2[COMMON] unsigned int 
  5602 ;; Auto vars:     Size  Location     Type
  5603 ;;  quotient        2    5[COMMON] unsigned int 
  5604 ;;  counter         1    7[COMMON] unsigned char 
  5605 ;; Return value:  Size  Location     Type
  5606 ;;                  2    0[COMMON] unsigned int 
  5607 ;; Registers used:
  5608 ;;		wreg, status,2, status,0
  5609 ;; Tracked objects:
  5610 ;;		On entry : 0/0
  5611 ;;		On exit  : 0/0
  5612 ;;		Unchanged: 0/0
  5613 ;; Data sizes:     COMMON   BANK0   BANK1   BANK2   BANK3   BANK4   BANK5   BANK6   BANK7   BANK8   BANK9  BANK10  BANK1
      +1  BANK12
  5614 ;;      Params:         4       0       0       0       0       0       0       0       0       0       0       0       
      +0       0
  5615 ;;      Locals:         3       0       0       0       0       0       0       0       0       0       0       0       
      +0       0
  5616 ;;      Temps:          1       0       0       0       0       0       0       0       0       0       0       0       
      +0       0
  5617 ;;      Totals:         8       0       0       0       0       0       0       0       0       0       0       0       
      +0       0
  5618 ;;Total ram usage:        8 bytes
  5619 ;; Hardware stack levels used:    1
  5620 ;; This function calls:
  5621 ;;		Nothing
  5622 ;; This function is called by:
  5623 ;;		_utoa
  5624 ;; This function uses a non-reentrant model
  5625 ;;
  5626                           
  5627                           
  5628                           ;psect for function ___lwdiv
  5629  00B3                     ___lwdiv:	
  5630                           
  5631                           ;incstack = 0
  5632                           ; Regs used in ___lwdiv: [wreg+status,2+status,0]
  5633  00B3  01F5               	clrf	___lwdiv@quotient
  5634  00B4  01F6               	clrf	___lwdiv@quotient+1
  5635  00B5  0870               	movf	___lwdiv@divisor,w
  5636  00B6  0471               	iorwf	___lwdiv@divisor+1,w
  5637  00B7  1903               	btfsc	3,2
  5638  00B8  28E2               	goto	l1403
  5639  00B9  01F7               	clrf	___lwdiv@counter
  5640  00BA  0AF7               	incf	___lwdiv@counter,f
  5641  00BB                     l1391:	
  5642  00BB  1BF1               	btfsc	___lwdiv@divisor+1,7
  5643  00BC  28C7               	goto	l1393
  5644  00BD  3001               	movlw	1
  5645  00BE                     u1215:	
  5646  00BE  35F0               	lslf	___lwdiv@divisor,f
  5647  00BF  0DF1               	rlf	___lwdiv@divisor+1,f
  5648  00C0  0B89               	decfsz	9,f
  5649  00C1  28BE               	goto	u1215
  5650  00C2  3001               	movlw	1
  5651  00C3  00F4               	movwf	??___lwdiv
  5652  00C4  0874               	movf	??___lwdiv,w
  5653  00C5  07F7               	addwf	___lwdiv@counter,f
  5654  00C6  28BB               	goto	l1391
  5655  00C7                     l1393:	
  5656  00C7  3001               	movlw	1
  5657  00C8                     u1235:	
  5658  00C8  35F5               	lslf	___lwdiv@quotient,f
  5659  00C9  0DF6               	rlf	___lwdiv@quotient+1,f
  5660  00CA  0B89               	decfsz	9,f
  5661  00CB  28C8               	goto	u1235
  5662  00CC  0871               	movf	___lwdiv@divisor+1,w
  5663  00CD  0273               	subwf	___lwdiv@dividend+1,w
  5664  00CE  1D03               	skipz
  5665  00CF  28D2               	goto	u1245
  5666  00D0  0870               	movf	___lwdiv@divisor,w
  5667  00D1  0272               	subwf	___lwdiv@dividend,w
  5668  00D2                     u1245:	
  5669  00D2  1C03               	skipc
  5670  00D3  28D9               	goto	l1399
  5671  00D4  0870               	movf	___lwdiv@divisor,w
  5672  00D5  02F2               	subwf	___lwdiv@dividend,f
  5673  00D6  0871               	movf	___lwdiv@divisor+1,w
  5674  00D7  3BF3               	subwfb	___lwdiv@dividend+1,f
  5675  00D8  1475               	bsf	___lwdiv@quotient,0
  5676  00D9                     l1399:	
  5677  00D9  3001               	movlw	1
  5678  00DA                     u1255:	
  5679  00DA  36F1               	lsrf	___lwdiv@divisor+1,f
  5680  00DB  0CF0               	rrf	___lwdiv@divisor,f
  5681  00DC  0B89               	decfsz	9,f
  5682  00DD  28DA               	goto	u1255
  5683  00DE  3001               	movlw	1
  5684  00DF  02F7               	subwf	___lwdiv@counter,f
  5685  00E0  1D03               	btfss	3,2
  5686  00E1  28C7               	goto	l1393
  5687  00E2                     l1403:	
  5688  00E2  0876               	movf	___lwdiv@quotient+1,w
  5689  00E3  00F1               	movwf	?___lwdiv+1
  5690  00E4  0875               	movf	___lwdiv@quotient,w
  5691  00E5  00F0               	movwf	?___lwdiv
  5692  00E6  0008               	return
  5693  00E7                     __end_of___lwdiv:	
  5694                           
  5695                           	psect	text22
  5696  0F83                     __ptext22:	
  5697 ;; *************** function _OLED_Write_String *****************
  5698 ;; Defined at:
  5699 ;;		line 284 in file "oled.c"
  5700 ;; Parameters:    Size  Location     Type
  5701 ;;  s               2   22[BANK0 ] PTR unsigned char 
  5702 ;;		 -> ftoa@buf(17), STR_4(4), STR_3(6), STR_2(6), 
  5703 ;;		 -> STR_1(6), OLED_Write_Integer@status(2), 
  5704 ;; Auto vars:     Size  Location     Type
  5705 ;;		None
  5706 ;; Return value:  Size  Location     Type
  5707 ;;                  1    wreg      void 
  5708 ;; Registers used:
  5709 ;;		wreg, fsr0l, fsr0h, fsr1l, fsr1h, status,2, status,0, pclath, cstack
  5710 ;; Tracked objects:
  5711 ;;		On entry : 0/0
  5712 ;;		On exit  : 0/0
  5713 ;;		Unchanged: 0/0
  5714 ;; Data sizes:     COMMON   BANK0   BANK1   BANK2   BANK3   BANK4   BANK5   BANK6   BANK7   BANK8   BANK9  BANK10  BANK1
      +1  BANK12
  5715 ;;      Params:         0       2       0       0       0       0       0       0       0       0       0       0       
      +0       0
  5716 ;;      Locals:         0       0       0       0       0       0       0       0       0       0       0       0       
      +0       0
  5717 ;;      Temps:          0       1       0       0       0       0       0       0       0       0       0       0       
      +0       0
  5718 ;;      Totals:         0       3       0       0       0       0       0       0       0       0       0       0       
      +0       0
  5719 ;;Total ram usage:        3 bytes
  5720 ;; Hardware stack levels used:    1
  5721 ;; Hardware stack levels required when called:    2
  5722 ;; This function calls:
  5723 ;;		_OLED_PutChar
  5724 ;; This function is called by:
  5725 ;;		_OLED_Write_Integer
  5726 ;;		_Write_Temperature
  5727 ;;		_Display_Temperature
  5728 ;;		_OLED_Write_Float
  5729 ;; This function uses a non-reentrant model
  5730 ;;
  5731                           
  5732                           
  5733                           ;psect for function _OLED_Write_String
  5734  0F83                     _OLED_Write_String:	
  5735  0F83                     l1509:	
  5736                           ;oled.c: 286: while (*s) OLED_PutChar( *s++);
  5737                           
  5738                           ;incstack = 0
  5739                           ; Regs used in _OLED_Write_String: [wreg-fsr1h+status,2+status,0+pclath+cstack]
  5740                           
  5741  0F83  0020               	movlb	0	; select bank0
  5742  0F84  0836               	movf	OLED_Write_String@s,w
  5743  0F85  0084               	movwf	4
  5744  0F86  0837               	movf	OLED_Write_String@s+1,w
  5745  0F87  0085               	movwf	5
  5746  0F88  0012               	moviw fsr0++
  5747  0F89  1903               	btfsc	3,2
  5748  0F8A  0008               	return
  5749  0F8B  0020               	movlb	0	; select bank0
  5750  0F8C  0836               	movf	OLED_Write_String@s,w
  5751  0F8D  0084               	movwf	4
  5752  0F8E  0837               	movf	OLED_Write_String@s+1,w
  5753  0F8F  0085               	movwf	5
  5754  0F90  0800               	movf	0,w	;code access
  5755  0F91  3183  23F3  318F   	fcall	_OLED_PutChar
  5756  0F94  3001               	movlw	1
  5757  0F95  0020               	movlb	0	; select bank0
  5758  0F96  07B6               	addwf	OLED_Write_String@s,f
  5759  0F97  3000               	movlw	0
  5760  0F98  3DB7               	addwfc	OLED_Write_String@s+1,f
  5761  0F99  2F83               	goto	l1509
  5762  0F9A                     __end_of_OLED_Write_String:	
  5763                           
  5764                           	psect	text23
  5765  0083                     __ptext23:	
  5766 ;; *************** function _OLED_Clear *****************
  5767 ;; Defined at:
  5768 ;;		line 264 in file "oled.c"
  5769 ;; Parameters:    Size  Location     Type
  5770 ;;		None
  5771 ;; Auto vars:     Size  Location     Type
  5772 ;;  col             2   25[BANK0 ] unsigned int 
  5773 ;;  row             2   23[BANK0 ] unsigned int 
  5774 ;; Return value:  Size  Location     Type
  5775 ;;                  1    wreg      void 
  5776 ;; Registers used:
  5777 ;;		wreg, fsr0l, fsr0h, fsr1l, fsr1h, status,2, status,0, pclath, cstack
  5778 ;; Tracked objects:
  5779 ;;		On entry : 0/0
  5780 ;;		On exit  : 0/0
  5781 ;;		Unchanged: 0/0
  5782 ;; Data sizes:     COMMON   BANK0   BANK1   BANK2   BANK3   BANK4   BANK5   BANK6   BANK7   BANK8   BANK9  BANK10  BANK1
      +1  BANK12
  5783 ;;      Params:         0       0       0       0       0       0       0       0       0       0       0       0       
      +0       0
  5784 ;;      Locals:         0       4       0       0       0       0       0       0       0       0       0       0       
      +0       0
  5785 ;;      Temps:          0       1       0       0       0       0       0       0       0       0       0       0       
      +0       0
  5786 ;;      Totals:         0       5       0       0       0       0       0       0       0       0       0       0       
      +0       0
  5787 ;;Total ram usage:        5 bytes
  5788 ;; Hardware stack levels used:    1
  5789 ;; Hardware stack levels required when called:    3
  5790 ;; This function calls:
  5791 ;;		_OLED_PutChar
  5792 ;;		_OLED_YX
  5793 ;; This function is called by:
  5794 ;;		_main
  5795 ;;		_Write_Temperature
  5796 ;;		_Display_Temperature
  5797 ;; This function uses a non-reentrant model
  5798 ;;
  5799                           
  5800                           
  5801                           ;psect for function _OLED_Clear
  5802  0083                     _OLED_Clear:	
  5803                           
  5804                           ;oled.c: 266: for ( uint16_t row = 0; row < 8; row++ ) {
  5805                           
  5806                           ;incstack = 0
  5807                           ; Regs used in _OLED_Clear: [wreg-fsr1h+status,2+status,0+pclath+cstack]
  5808  0083  0020               	movlb	0	; select bank0
  5809  0084  01B7               	clrf	OLED_Clear@row
  5810  0085  01B8               	clrf	OLED_Clear@row+1
  5811  0086                     L1:	
  5812  0086  3000               	movlw	0
  5813  0087  0238               	subwf	OLED_Clear@row+1,w
  5814  0088  3008               	movlw	8
  5815  0089  1903               	skipnz
  5816  008A  0237               	subwf	OLED_Clear@row,w
  5817  008B  1803               	btfsc	3,0
  5818  008C  0008               	return
  5819                           
  5820                           ;oled.c: 267: for ( uint16_t col = 0; col < 16; col++ ) {
  5821  008D  01B9               	clrf	OLED_Clear@col
  5822  008E  01BA               	clrf	OLED_Clear@col+1
  5823  008F  3000               	movlw	0
  5824  0090  023A               	subwf	OLED_Clear@col+1,w
  5825  0091  3010               	movlw	16
  5826  0092  1903               	skipnz
  5827  0093  0239               	subwf	OLED_Clear@col,w
  5828  0094  1803               	btfsc	3,0
  5829  0095  28AE               	goto	l1581
  5830  0096                     l1573:	
  5831                           
  5832                           ;oled.c: 268: OLED_YX( row, col );
  5833  0096  0839               	movf	OLED_Clear@col,w
  5834  0097  00B6               	movwf	??_OLED_Clear
  5835  0098  0836               	movf	??_OLED_Clear,w
  5836  0099  00A5               	movwf	OLED_YX@Column
  5837  009A  0837               	movf	OLED_Clear@row,w
  5838  009B  3180  202C  3180   	fcall	_OLED_YX
  5839                           
  5840                           ;oled.c: 269: OLED_PutChar(' ');
  5841  009E  3020               	movlw	32
  5842  009F  3183  23F3  3180   	fcall	_OLED_PutChar
  5843  00A2  3001               	movlw	1
  5844  00A3  0020               	movlb	0	; select bank0
  5845  00A4  07B9               	addwf	OLED_Clear@col,f
  5846  00A5  3000               	movlw	0
  5847  00A6  3DBA               	addwfc	OLED_Clear@col+1,f
  5848  00A7  3000               	movlw	0
  5849  00A8  023A               	subwf	OLED_Clear@col+1,w
  5850  00A9  3010               	movlw	16
  5851  00AA  1903               	skipnz
  5852  00AB  0239               	subwf	OLED_Clear@col,w
  5853  00AC  1C03               	skipc
  5854  00AD  2896               	goto	l1573
  5855  00AE                     l1581:	
  5856  00AE  3001               	movlw	1
  5857  00AF  07B7               	addwf	OLED_Clear@row,f
  5858  00B0  3000               	movlw	0
  5859  00B1  3DB8               	addwfc	OLED_Clear@row+1,f
  5860  00B2  2886               	goto	L1
  5861  00B3                     __end_of_OLED_Clear:	
  5862                           
  5863                           	psect	text24
  5864  002C                     __ptext24:	
  5865 ;; *************** function _OLED_YX *****************
  5866 ;; Defined at:
  5867 ;;		line 213 in file "oled.c"
  5868 ;; Parameters:    Size  Location     Type
  5869 ;;  Row             1    wreg     unsigned char 
  5870 ;;  Column          1    5[BANK0 ] unsigned char 
  5871 ;; Auto vars:     Size  Location     Type
  5872 ;;  Row             1    9[BANK0 ] unsigned char 
  5873 ;; Return value:  Size  Location     Type
  5874 ;;                  1    wreg      void 
  5875 ;; Registers used:
  5876 ;;		wreg, status,2, status,0, pclath, cstack
  5877 ;; Tracked objects:
  5878 ;;		On entry : 0/0
  5879 ;;		On exit  : 0/0
  5880 ;;		Unchanged: 0/0
  5881 ;; Data sizes:     COMMON   BANK0   BANK1   BANK2   BANK3   BANK4   BANK5   BANK6   BANK7   BANK8   BANK9  BANK10  BANK1
      +1  BANK12
  5882 ;;      Params:         0       1       0       0       0       0       0       0       0       0       0       0       
      +0       0
  5883 ;;      Locals:         0       1       0       0       0       0       0       0       0       0       0       0       
      +0       0
  5884 ;;      Temps:          0       3       0       0       0       0       0       0       0       0       0       0       
      +0       0
  5885 ;;      Totals:         0       5       0       0       0       0       0       0       0       0       0       0       
      +0       0
  5886 ;;Total ram usage:        5 bytes
  5887 ;; Hardware stack levels used:    1
  5888 ;; Hardware stack levels required when called:    2
  5889 ;; This function calls:
  5890 ;;		_OLED_Command
  5891 ;; This function is called by:
  5892 ;;		_OLED_Clear
  5893 ;;		_Write_Temperature
  5894 ;;		_Display_Temperature
  5895 ;; This function uses a non-reentrant model
  5896 ;;
  5897                           
  5898                           
  5899                           ;psect for function _OLED_YX
  5900  002C                     _OLED_YX:	
  5901                           
  5902                           ;incstack = 0
  5903                           ; Regs used in _OLED_YX: [wreg+status,2+status,0+pclath+cstack]
  5904                           ;OLED_YX@Row stored from wreg
  5905  002C  0020               	movlb	0	; select bank0
  5906  002D  00A9               	movwf	OLED_YX@Row
  5907                           
  5908                           ;oled.c: 215: OLED_Command( 0xB0 + Row);
  5909  002E  0829               	movf	OLED_YX@Row,w
  5910  002F  3EB0               	addlw	176
  5911  0030  318F  27BA  3180   	fcall	_OLED_Command
  5912                           
  5913                           ;oled.c: 216: OLED_Command( 0x00 + (8*Column & 0x0F) );
  5914  0033  0020               	movlb	0	; select bank0
  5915  0034  0825               	movf	OLED_YX@Column,w
  5916  0035  00A6               	movwf	??_OLED_YX
  5917  0036  3002               	movlw	2
  5918  0037                     u1405:	
  5919  0037  35A6               	lslf	??_OLED_YX,f
  5920  0038  3EFF               	addlw	-1
  5921  0039  1D03               	skipz
  5922  003A  2837               	goto	u1405
  5923  003B  3526               	lslf	??_OLED_YX,w
  5924  003C  390F               	andlw	15
  5925  003D  318F  27BA  3180   	fcall	_OLED_Command
  5926                           
  5927                           ;oled.c: 217: OLED_Command( 0x10 + ((8*Column>>4)&0x0F) );
  5928  0040  0020               	movlb	0	; select bank0
  5929  0041  0825               	movf	OLED_YX@Column,w
  5930  0042  00A6               	movwf	??_OLED_YX
  5931  0043  01A7               	clrf	??_OLED_YX+1
  5932  0044  35A6               	lslf	??_OLED_YX,f
  5933  0045  0DA7               	rlf	??_OLED_YX+1,f
  5934  0046  35A6               	lslf	??_OLED_YX,f
  5935  0047  0DA7               	rlf	??_OLED_YX+1,f
  5936  0048  35A6               	lslf	??_OLED_YX,f
  5937  0049  0DA7               	rlf	??_OLED_YX+1,f
  5938  004A  3004               	movlw	4
  5939  004B  00A8               	movwf	??_OLED_YX+2
  5940  004C                     u1415:	
  5941  004C  0D27               	rlf	??_OLED_YX+1,w
  5942  004D  0CA7               	rrf	??_OLED_YX+1,f
  5943  004E  0CA6               	rrf	??_OLED_YX,f
  5944  004F  0BA8               	decfsz	??_OLED_YX+2,f
  5945  0050  284C               	goto	u1415
  5946  0051  0826               	movf	??_OLED_YX,w
  5947  0052  390F               	andlw	15
  5948  0053  3E10               	addlw	16
  5949  0054  318F  27BA         	fcall	_OLED_Command
  5950  0056  0008               	return
  5951  0057                     __end_of_OLED_YX:	
  5952                           
  5953                           	psect	text25
  5954  0FBA                     __ptext25:	
  5955 ;; *************** function _OLED_Command *****************
  5956 ;; Defined at:
  5957 ;;		line 138 in file "oled.c"
  5958 ;; Parameters:    Size  Location     Type
  5959 ;;  temp            1    wreg     unsigned char 
  5960 ;; Auto vars:     Size  Location     Type
  5961 ;;  temp            1    4[BANK0 ] unsigned char 
  5962 ;; Return value:  Size  Location     Type
  5963 ;;                  1    wreg      void 
  5964 ;; Registers used:
  5965 ;;		wreg, status,2, status,0, pclath, cstack
  5966 ;; Tracked objects:
  5967 ;;		On entry : 0/0
  5968 ;;		On exit  : 0/0
  5969 ;;		Unchanged: 0/0
  5970 ;; Data sizes:     COMMON   BANK0   BANK1   BANK2   BANK3   BANK4   BANK5   BANK6   BANK7   BANK8   BANK9  BANK10  BANK1
      +1  BANK12
  5971 ;;      Params:         0       0       0       0       0       0       0       0       0       0       0       0       
      +0       0
  5972 ;;      Locals:         0       1       0       0       0       0       0       0       0       0       0       0       
      +0       0
  5973 ;;      Temps:          0       2       0       0       0       0       0       0       0       0       0       0       
      +0       0
  5974 ;;      Totals:         0       3       0       0       0       0       0       0       0       0       0       0       
      +0       0
  5975 ;;Total ram usage:        3 bytes
  5976 ;; Hardware stack levels used:    1
  5977 ;; Hardware stack levels required when called:    1
  5978 ;; This function calls:
  5979 ;;		_Send_I2C_Data
  5980 ;;		_Send_I2C_StartBit
  5981 ;;		_Send_I2C_StopBit
  5982 ;; This function is called by:
  5983 ;;		_OLED_Init
  5984 ;;		_OLED_YX
  5985 ;; This function uses a non-reentrant model
  5986 ;;
  5987                           
  5988                           
  5989                           ;psect for function _OLED_Command
  5990  0FBA                     _OLED_Command:	
  5991                           
  5992                           ;incstack = 0
  5993                           ; Regs used in _OLED_Command: [wreg+status,2+status,0+pclath+cstack]
  5994                           ;OLED_Command@temp stored from wreg
  5995  0FBA  0020               	movlb	0	; select bank0
  5996  0FBB  00A4               	movwf	OLED_Command@temp
  5997                           
  5998                           ;oled.c: 140: Send_I2C_StartBit();
  5999  0FBC  318F  272D  318F   	fcall	_Send_I2C_StartBit
  6000                           
  6001                           ;oled.c: 141: Send_I2C_Data(0x3C << 1);
  6002  0FBF  3078               	movlw	120
  6003  0FC0  0020               	movlb	0	; select bank0
  6004  0FC1  00A0               	movwf	Send_I2C_Data@databyte
  6005  0FC2  3000               	movlw	0
  6006  0FC3  00A1               	movwf	Send_I2C_Data@databyte+1
  6007  0FC4  318F  273D  318F   	fcall	_Send_I2C_Data
  6008                           
  6009                           ;oled.c: 142: Send_I2C_Data(0x00);
  6010  0FC7  3000               	movlw	0
  6011  0FC8  0020               	movlb	0	; select bank0
  6012  0FC9  00A0               	movwf	Send_I2C_Data@databyte
  6013  0FCA  00A1               	movwf	Send_I2C_Data@databyte+1
  6014  0FCB  318F  273D  318F   	fcall	_Send_I2C_Data
  6015                           
  6016                           ;oled.c: 143: Send_I2C_Data(temp);
  6017  0FCE  0020               	movlb	0	; select bank0
  6018  0FCF  0824               	movf	OLED_Command@temp,w
  6019  0FD0  00A2               	movwf	??_OLED_Command
  6020  0FD1  01A3               	clrf	??_OLED_Command+1
  6021  0FD2  0822               	movf	??_OLED_Command,w
  6022  0FD3  00A0               	movwf	Send_I2C_Data@databyte
  6023  0FD4  0823               	movf	??_OLED_Command+1,w
  6024  0FD5  00A1               	movwf	Send_I2C_Data@databyte+1
  6025  0FD6  318F  273D  318F   	fcall	_Send_I2C_Data
  6026                           
  6027                           ;oled.c: 144: Send_I2C_StopBit();
  6028  0FD9  318F  2735         	fcall	_Send_I2C_StopBit
  6029  0FDB  0008               	return
  6030  0FDC                     __end_of_OLED_Command:	
  6031                           
  6032                           	psect	text26
  6033  03F3                     __ptext26:	
  6034 ;; *************** function _OLED_PutChar *****************
  6035 ;; Defined at:
  6036 ;;		line 229 in file "oled.c"
  6037 ;; Parameters:    Size  Location     Type
  6038 ;;  ch              1    wreg     unsigned char 
  6039 ;; Auto vars:     Size  Location     Type
  6040 ;;  ch              1   21[BANK0 ] unsigned char 
  6041 ;;  bytes           9    8[BANK0 ] unsigned char [9]
  6042 ;;  i               2   19[BANK0 ] int 
  6043 ;;  base            2   17[BANK0 ] PTR const unsigned char 
  6044 ;;		 -> OledFont(768), 
  6045 ;; Return value:  Size  Location     Type
  6046 ;;                  1    wreg      void 
  6047 ;; Registers used:
  6048 ;;		wreg, fsr0l, fsr0h, fsr1l, fsr1h, status,2, status,0, pclath, cstack
  6049 ;; Tracked objects:
  6050 ;;		On entry : 0/0
  6051 ;;		On exit  : 0/0
  6052 ;;		Unchanged: 0/0
  6053 ;; Data sizes:     COMMON   BANK0   BANK1   BANK2   BANK3   BANK4   BANK5   BANK6   BANK7   BANK8   BANK9  BANK10  BANK1
      +1  BANK12
  6054 ;;      Params:         0       0       0       0       0       0       0       0       0       0       0       0       
      +0       0
  6055 ;;      Locals:         0      14       0       0       0       0       0       0       0       0       0       0       
      +0       0
  6056 ;;      Temps:          0       6       0       0       0       0       0       0       0       0       0       0       
      +0       0
  6057 ;;      Totals:         0      20       0       0       0       0       0       0       0       0       0       0       
      +0       0
  6058 ;;Total ram usage:       20 bytes
  6059 ;; Hardware stack levels used:    1
  6060 ;; Hardware stack levels required when called:    1
  6061 ;; This function calls:
  6062 ;;		_Send_I2C_Data
  6063 ;;		_Send_I2C_StartBit
  6064 ;;		_Send_I2C_StopBit
  6065 ;;		_memmove
  6066 ;; This function is called by:
  6067 ;;		_OLED_Clear
  6068 ;;		_OLED_Write_String
  6069 ;; This function uses a non-reentrant model
  6070 ;;
  6071                           
  6072                           
  6073                           ;psect for function _OLED_PutChar
  6074  03F3                     _OLED_PutChar:	
  6075                           
  6076                           ;incstack = 0
  6077                           ; Regs used in _OLED_PutChar: [wreg-fsr1h+status,2+status,0+pclath+cstack]
  6078                           ;OLED_PutChar@ch stored from wreg
  6079  03F3  0020               	movlb	0	; select bank0
  6080  03F4  00B5               	movwf	OLED_PutChar@ch
  6081                           
  6082                           ;oled.c: 231: if ( ( ch < 32 ) || ( ch > 127 ) ){
  6083  03F5  3020               	movlw	32
  6084  03F6  0235               	subwf	OLED_PutChar@ch,w
  6085  03F7  1C03               	skipc
  6086  03F8  2BFD               	goto	l1443
  6087  03F9  3080               	movlw	128
  6088  03FA  0235               	subwf	OLED_PutChar@ch,w
  6089  03FB  1C03               	skipc
  6090  03FC  2C01               	goto	l1445
  6091  03FD                     l1443:	
  6092                           
  6093                           ;oled.c: 232: ch = ' ';
  6094  03FD  3020               	movlw	32
  6095  03FE  00A2               	movwf	??_OLED_PutChar
  6096  03FF  0822               	movf	??_OLED_PutChar,w
  6097  0400  00B5               	movwf	OLED_PutChar@ch
  6098  0401                     l1445:	
  6099                           
  6100                           ;oled.c: 233: }
  6101                           ;oled.c: 235: const uint8_t *base = &OledFont[ch - 32][0];
  6102  0401  0835               	movf	OLED_PutChar@ch,w
  6103  0402  00A2               	movwf	??_OLED_PutChar
  6104  0403  01A3               	clrf	??_OLED_PutChar+1
  6105  0404  35A2               	lslf	??_OLED_PutChar,f
  6106  0405  0DA3               	rlf	??_OLED_PutChar+1,f
  6107  0406  35A2               	lslf	??_OLED_PutChar,f
  6108  0407  0DA3               	rlf	??_OLED_PutChar+1,f
  6109  0408  35A2               	lslf	??_OLED_PutChar,f
  6110  0409  0DA3               	rlf	??_OLED_PutChar+1,f
  6111  040A  0822               	movf	??_OLED_PutChar,w
  6112  040B  3E00               	addlw	0
  6113  040C  00A4               	movwf	??_OLED_PutChar+2
  6114  040D  30FF               	movlw	255
  6115  040E  3D23               	addwfc	??_OLED_PutChar+1,w
  6116  040F  00A5               	movwf	??_OLED_PutChar+3
  6117  0410  3028               	movlw	low (_OledFont| (0+32768))
  6118  0411  00A6               	movwf	??_OLED_PutChar+4
  6119  0412  3088               	movlw	high (_OledFont| (0+32768))
  6120  0413  00A7               	movwf	??_OLED_PutChar+5
  6121  0414  0824               	movf	??_OLED_PutChar+2,w
  6122  0415  0726               	addwf	??_OLED_PutChar+4,w
  6123  0416  00B1               	movwf	OLED_PutChar@base
  6124  0417  0825               	movf	??_OLED_PutChar+3,w
  6125  0418  3D27               	addwfc	??_OLED_PutChar+5,w
  6126  0419  00B2               	movwf	OLED_PutChar@base+1
  6127                           
  6128                           ;oled.c: 237: uint8_t bytes[9];
  6129                           ;oled.c: 238: bytes[0] = 0x40;
  6130  041A  3040               	movlw	64
  6131  041B  00A2               	movwf	??_OLED_PutChar
  6132  041C  0822               	movf	??_OLED_PutChar,w
  6133  041D  00A8               	movwf	OLED_PutChar@bytes
  6134                           
  6135                           ;oled.c: 239: memmove( bytes + 1, base, 8 );
  6136  041E  0832               	movf	OLED_PutChar@base+1,w
  6137  041F  00F1               	movwf	memmove@s1+1
  6138  0420  0831               	movf	OLED_PutChar@base,w
  6139  0421  00F0               	movwf	memmove@s1
  6140  0422  3008               	movlw	8
  6141  0423  00F2               	movwf	memmove@n
  6142  0424  3000               	movlw	0
  6143  0425  00F3               	movwf	memmove@n+1
  6144  0426  3029               	movlw	(low ((OLED_PutChar@bytes| 0+1)))& (0+255)
  6145  0427  3182  22AE  3183   	fcall	_memmove
  6146                           
  6147                           ;oled.c: 241: Send_I2C_StartBit();
  6148  042A  318F  272D  3183   	fcall	_Send_I2C_StartBit
  6149                           
  6150                           ;oled.c: 242: Send_I2C_Data(0x3C << 1);
  6151  042D  3078               	movlw	120
  6152  042E  0020               	movlb	0	; select bank0
  6153  042F  00A0               	movwf	Send_I2C_Data@databyte
  6154  0430  3000               	movlw	0
  6155  0431  00A1               	movwf	Send_I2C_Data@databyte+1
  6156  0432  318F  273D  3183   	fcall	_Send_I2C_Data
  6157                           
  6158                           ;oled.c: 243: Send_I2C_Data(0x40);
  6159  0435  3040               	movlw	64
  6160  0436  0020               	movlb	0	; select bank0
  6161  0437  00A0               	movwf	Send_I2C_Data@databyte
  6162  0438  3000               	movlw	0
  6163  0439  00A1               	movwf	Send_I2C_Data@databyte+1
  6164  043A  318F  273D  3183   	fcall	_Send_I2C_Data
  6165                           
  6166                           ;oled.c: 245: int i;
  6167                           ;oled.c: 247: for (i = 1; i <= 8; i++){
  6168  043D  3001               	movlw	1
  6169  043E  0020               	movlb	0	; select bank0
  6170  043F  00B3               	movwf	OLED_PutChar@i
  6171  0440  3000               	movlw	0
  6172  0441  00B4               	movwf	OLED_PutChar@i+1
  6173  0442  0834               	movf	OLED_PutChar@i+1,w
  6174  0443  3A80               	xorlw	128
  6175  0444  00A2               	movwf	??_OLED_PutChar
  6176  0445  3080               	movlw	128
  6177  0446  0222               	subwf	??_OLED_PutChar,w
  6178  0447  1D03               	skipz
  6179  0448  2C4B               	goto	u1355
  6180  0449  3009               	movlw	9
  6181  044A  0233               	subwf	OLED_PutChar@i,w
  6182  044B                     u1355:	
  6183  044B  1803               	btfsc	3,0
  6184  044C  2C6C               	goto	l1469
  6185  044D                     l1463:	
  6186                           
  6187                           ;oled.c: 248: Send_I2C_Data(bytes[i]);
  6188  044D  0020               	movlb	0	; select bank0
  6189  044E  0833               	movf	OLED_PutChar@i,w
  6190  044F  3E28               	addlw	(low (OLED_PutChar@bytes| 0))& (0+255)
  6191  0450  0086               	movwf	6
  6192  0451  0187               	clrf	7
  6193  0452  0801               	movf	1,w
  6194  0453  00A2               	movwf	??_OLED_PutChar
  6195  0454  01A3               	clrf	??_OLED_PutChar+1
  6196  0455  0822               	movf	??_OLED_PutChar,w
  6197  0456  00A0               	movwf	Send_I2C_Data@databyte
  6198  0457  0823               	movf	??_OLED_PutChar+1,w
  6199  0458  00A1               	movwf	Send_I2C_Data@databyte+1
  6200  0459  318F  273D  3183   	fcall	_Send_I2C_Data
  6201  045C  3001               	movlw	1
  6202  045D  0020               	movlb	0	; select bank0
  6203  045E  07B3               	addwf	OLED_PutChar@i,f
  6204  045F  3000               	movlw	0
  6205  0460  3DB4               	addwfc	OLED_PutChar@i+1,f
  6206  0461  0834               	movf	OLED_PutChar@i+1,w
  6207  0462  3A80               	xorlw	128
  6208  0463  00A2               	movwf	??_OLED_PutChar
  6209  0464  3080               	movlw	128
  6210  0465  0222               	subwf	??_OLED_PutChar,w
  6211  0466  1D03               	skipz
  6212  0467  2C6A               	goto	u1365
  6213  0468  3009               	movlw	9
  6214  0469  0233               	subwf	OLED_PutChar@i,w
  6215  046A                     u1365:	
  6216  046A  1C03               	skipc
  6217  046B  2C4D               	goto	l1463
  6218  046C                     l1469:	
  6219                           
  6220                           ;oled.c: 249: }
  6221                           ;oled.c: 251: Send_I2C_StopBit();
  6222  046C  318F  2735         	fcall	_Send_I2C_StopBit
  6223  046E  0008               	return
  6224  046F                     __end_of_OLED_PutChar:	
  6225                           
  6226                           	psect	text27
  6227  02AE                     __ptext27:	
  6228 ;; *************** function _memmove *****************
  6229 ;; Defined at:
  6230 ;;		line 8 in file "C:\Program Files (x86)\Microchip\xc8\v1.41\sources\common\memmove.c"
  6231 ;; Parameters:    Size  Location     Type
  6232 ;;  d1              1    wreg     PTR void 
  6233 ;;		 -> OLED_PutChar@bytes(9), 
  6234 ;;  s1              2    0[COMMON] PTR const void 
  6235 ;;		 -> OledFont(768), 
  6236 ;;  n               2    2[COMMON] unsigned int 
  6237 ;; Auto vars:     Size  Location     Type
  6238 ;;  d1              1    8[COMMON] PTR void 
  6239 ;;		 -> OLED_PutChar@bytes(9), 
  6240 ;;  s               2    9[COMMON] PTR const unsigned char 
  6241 ;;		 -> OledFont(768), 
  6242 ;;  d               1   11[COMMON] PTR unsigned char 
  6243 ;;		 -> OLED_PutChar@bytes(9), 
  6244 ;; Return value:  Size  Location     Type
  6245 ;;                  1    wreg      PTR void 
  6246 ;; Registers used:
  6247 ;;		wreg, fsr0l, fsr0h, fsr1l, fsr1h, status,2, status,0, pclath
  6248 ;; Tracked objects:
  6249 ;;		On entry : 0/0
  6250 ;;		On exit  : 0/0
  6251 ;;		Unchanged: 0/0
  6252 ;; Data sizes:     COMMON   BANK0   BANK1   BANK2   BANK3   BANK4   BANK5   BANK6   BANK7   BANK8   BANK9  BANK10  BANK1
      +1  BANK12
  6253 ;;      Params:         4       0       0       0       0       0       0       0       0       0       0       0       
      +0       0
  6254 ;;      Locals:         4       0       0       0       0       0       0       0       0       0       0       0       
      +0       0
  6255 ;;      Temps:          4       0       0       0       0       0       0       0       0       0       0       0       
      +0       0
  6256 ;;      Totals:        12       0       0       0       0       0       0       0       0       0       0       0       
      +0       0
  6257 ;;Total ram usage:       12 bytes
  6258 ;; Hardware stack levels used:    1
  6259 ;; This function calls:
  6260 ;;		Nothing
  6261 ;; This function is called by:
  6262 ;;		_OLED_PutChar
  6263 ;; This function uses a non-reentrant model
  6264 ;;
  6265                           
  6266                           
  6267                           ;psect for function _memmove
  6268  02AE                     _memmove:	
  6269                           
  6270                           ;incstack = 0
  6271                           ; Regs used in _memmove: [wreg-fsr1h+status,2+status,0+pclath]
  6272                           ;memmove@d1 stored from wreg
  6273  02AE  00F8               	movwf	memmove@d1
  6274  02AF  0871               	movf	memmove@s1+1,w
  6275  02B0  00FA               	movwf	memmove@s+1
  6276  02B1  0870               	movf	memmove@s1,w
  6277  02B2  00F9               	movwf	memmove@s
  6278  02B3  0878               	movf	memmove@d1,w
  6279  02B4  00F4               	movwf	??_memmove
  6280  02B5  0874               	movf	??_memmove,w
  6281  02B6  00FB               	movwf	memmove@d
  6282  02B7  087B               	movf	memmove@d,w
  6283  02B8  00F4               	movwf	??_memmove
  6284  02B9  3000               	movlw	0
  6285  02BA  00F5               	movwf	??_memmove+1
  6286  02BB  0875               	movf	??_memmove+1,w
  6287  02BC  027A               	subwf	memmove@s+1,w
  6288  02BD  1D03               	skipz
  6289  02BE  2AC1               	goto	u1155
  6290  02BF  0874               	movf	??_memmove,w
  6291  02C0  0279               	subwf	memmove@s,w
  6292  02C1                     u1155:	
  6293  02C1  1803               	skipnc
  6294  02C2  2AF7               	goto	l1371
  6295  02C3  0872               	movf	memmove@n,w
  6296  02C4  0779               	addwf	memmove@s,w
  6297  02C5  00F4               	movwf	??_memmove
  6298  02C6  0873               	movf	memmove@n+1,w
  6299  02C7  3D7A               	addwfc	memmove@s+1,w
  6300  02C8  00F5               	movwf	??_memmove+1
  6301  02C9  087B               	movf	memmove@d,w
  6302  02CA  00F6               	movwf	??_memmove+2
  6303  02CB  3000               	movlw	0
  6304  02CC  00F7               	movwf	??_memmove+3
  6305  02CD  0875               	movf	??_memmove+1,w
  6306  02CE  0277               	subwf	??_memmove+3,w
  6307  02CF  1D03               	skipz
  6308  02D0  2AD3               	goto	u1165
  6309  02D1  0874               	movf	??_memmove,w
  6310  02D2  0276               	subwf	??_memmove+2,w
  6311  02D3                     u1165:	
  6312  02D3  1803               	skipnc
  6313  02D4  2AF7               	goto	l1371
  6314  02D5  0872               	movf	memmove@n,w
  6315  02D6  07F9               	addwf	memmove@s,f
  6316  02D7  0873               	movf	memmove@n+1,w
  6317  02D8  3DFA               	addwfc	memmove@s+1,f
  6318  02D9  0872               	movf	memmove@n,w
  6319  02DA  00F4               	movwf	??_memmove
  6320  02DB  0874               	movf	??_memmove,w
  6321  02DC  07FB               	addwf	memmove@d,f
  6322  02DD                     l1367:	
  6323  02DD  3001               	movlw	1
  6324  02DE  02F9               	subwf	memmove@s,f
  6325  02DF  3000               	movlw	0
  6326  02E0  3BFA               	subwfb	memmove@s+1,f
  6327  02E1  0879               	movf	memmove@s,w
  6328  02E2  0084               	movwf	4
  6329  02E3  087A               	movf	memmove@s+1,w
  6330  02E4  0085               	movwf	5
  6331  02E5  0800               	movf	0,w	;code access
  6332  02E6  00F4               	movwf	??_memmove
  6333  02E7  3001               	movlw	1
  6334  02E8  02FB               	subwf	memmove@d,f
  6335  02E9  087B               	movf	memmove@d,w
  6336  02EA  0086               	movwf	6
  6337  02EB  0187               	clrf	7
  6338  02EC  0874               	movf	??_memmove,w
  6339  02ED  0081               	movwf	1
  6340  02EE  3001               	movlw	1
  6341  02EF  02F2               	subwf	memmove@n,f
  6342  02F0  3000               	movlw	0
  6343  02F1  3BF3               	subwfb	memmove@n+1,f
  6344  02F2  0872               	movf	memmove@n,w
  6345  02F3  0473               	iorwf	memmove@n+1,w
  6346  02F4  1903               	btfsc	3,2
  6347  02F5  0008               	return
  6348  02F6  2ADD               	goto	l1367
  6349  02F7                     l1371:	
  6350  02F7  0872               	movf	memmove@n,w
  6351  02F8  0473               	iorwf	memmove@n+1,w
  6352  02F9  1903               	btfsc	3,2
  6353  02FA  0008               	return
  6354  02FB  0879               	movf	memmove@s,w
  6355  02FC  0084               	movwf	4
  6356  02FD  087A               	movf	memmove@s+1,w
  6357  02FE  0085               	movwf	5
  6358  02FF  0800               	movf	0,w	;code access
  6359  0300  00F4               	movwf	??_memmove
  6360  0301  087B               	movf	memmove@d,w
  6361  0302  0086               	movwf	6
  6362  0303  0187               	clrf	7
  6363  0304  0874               	movf	??_memmove,w
  6364  0305  0081               	movwf	1
  6365  0306  3001               	movlw	1
  6366  0307  07F9               	addwf	memmove@s,f
  6367  0308  3000               	movlw	0
  6368  0309  3DFA               	addwfc	memmove@s+1,f
  6369  030A  3001               	movlw	1
  6370  030B  00F4               	movwf	??_memmove
  6371  030C  0874               	movf	??_memmove,w
  6372  030D  07FB               	addwf	memmove@d,f
  6373  030E  3001               	movlw	1
  6374  030F  02F2               	subwf	memmove@n,f
  6375  0310  3000               	movlw	0
  6376  0311  3BF3               	subwfb	memmove@n+1,f
  6377  0312  2AF7               	goto	l1371
  6378  0313                     __end_of_memmove:	
  6379                           ;	Return value of _memmove is never used
  6380                           
  6381                           
  6382                           	psect	text28
  6383  0F35                     __ptext28:	
  6384 ;; *************** function _Send_I2C_StopBit *****************
  6385 ;; Defined at:
  6386 ;;		line 106 in file "I2C.c"
  6387 ;; Parameters:    Size  Location     Type
  6388 ;;		None
  6389 ;; Auto vars:     Size  Location     Type
  6390 ;;		None
  6391 ;; Return value:  Size  Location     Type
  6392 ;;                  1    wreg      void 
  6393 ;; Registers used:
  6394 ;;		None
  6395 ;; Tracked objects:
  6396 ;;		On entry : 0/0
  6397 ;;		On exit  : 0/0
  6398 ;;		Unchanged: 0/0
  6399 ;; Data sizes:     COMMON   BANK0   BANK1   BANK2   BANK3   BANK4   BANK5   BANK6   BANK7   BANK8   BANK9  BANK10  BANK1
      +1  BANK12
  6400 ;;      Params:         0       0       0       0       0       0       0       0       0       0       0       0       
      +0       0
  6401 ;;      Locals:         0       0       0       0       0       0       0       0       0       0       0       0       
      +0       0
  6402 ;;      Temps:          0       0       0       0       0       0       0       0       0       0       0       0       
      +0       0
  6403 ;;      Totals:         0       0       0       0       0       0       0       0       0       0       0       0       
      +0       0
  6404 ;;Total ram usage:        0 bytes
  6405 ;; Hardware stack levels used:    1
  6406 ;; This function calls:
  6407 ;;		Nothing
  6408 ;; This function is called by:
  6409 ;;		_OLED_Command
  6410 ;;		_OLED_PutChar
  6411 ;;		_Write_Temperature
  6412 ;;		_Display_Temperature
  6413 ;;		_OLED_Data
  6414 ;; This function uses a non-reentrant model
  6415 ;;
  6416                           
  6417                           
  6418                           ;psect for function _Send_I2C_StopBit
  6419  0F35                     _Send_I2C_StopBit:	
  6420                           
  6421                           ;I2C.c: 108: PIR1bits.SSP1IF=0;
  6422                           
  6423                           ;incstack = 0
  6424                           ; Regs used in _Send_I2C_StopBit: []
  6425  0F35  0020               	movlb	0	; select bank0
  6426  0F36  1191               	bcf	17,3	;volatile
  6427                           
  6428                           ;I2C.c: 109: SSPCON2bits.PEN=1;
  6429  0F37  0024               	movlb	4	; select bank4
  6430  0F38  1516               	bsf	22,2	;volatile
  6431  0F39                     l227:	
  6432                           ;I2C.c: 110: while(!PIR1bits.SSP1IF);
  6433                           
  6434  0F39  0020               	movlb	0	; select bank0
  6435  0F3A  1991               	btfsc	17,3	;volatile
  6436  0F3B  0008               	return
  6437  0F3C  2F39               	goto	l227
  6438  0F3D                     __end_of_Send_I2C_StopBit:	
  6439                           
  6440                           	psect	text29
  6441  0F2D                     __ptext29:	
  6442 ;; *************** function _Send_I2C_StartBit *****************
  6443 ;; Defined at:
  6444 ;;		line 96 in file "I2C.c"
  6445 ;; Parameters:    Size  Location     Type
  6446 ;;		None
  6447 ;; Auto vars:     Size  Location     Type
  6448 ;;		None
  6449 ;; Return value:  Size  Location     Type
  6450 ;;                  1    wreg      void 
  6451 ;; Registers used:
  6452 ;;		None
  6453 ;; Tracked objects:
  6454 ;;		On entry : 0/0
  6455 ;;		On exit  : 0/0
  6456 ;;		Unchanged: 0/0
  6457 ;; Data sizes:     COMMON   BANK0   BANK1   BANK2   BANK3   BANK4   BANK5   BANK6   BANK7   BANK8   BANK9  BANK10  BANK1
      +1  BANK12
  6458 ;;      Params:         0       0       0       0       0       0       0       0       0       0       0       0       
      +0       0
  6459 ;;      Locals:         0       0       0       0       0       0       0       0       0       0       0       0       
      +0       0
  6460 ;;      Temps:          0       0       0       0       0       0       0       0       0       0       0       0       
      +0       0
  6461 ;;      Totals:         0       0       0       0       0       0       0       0       0       0       0       0       
      +0       0
  6462 ;;Total ram usage:        0 bytes
  6463 ;; Hardware stack levels used:    1
  6464 ;; This function calls:
  6465 ;;		Nothing
  6466 ;; This function is called by:
  6467 ;;		_OLED_Command
  6468 ;;		_OLED_PutChar
  6469 ;;		_Write_Temperature
  6470 ;;		_Display_Temperature
  6471 ;;		_OLED_Data
  6472 ;; This function uses a non-reentrant model
  6473 ;;
  6474                           
  6475                           
  6476                           ;psect for function _Send_I2C_StartBit
  6477  0F2D                     _Send_I2C_StartBit:	
  6478                           
  6479                           ;I2C.c: 98: PIR1bits.SSP1IF=0;
  6480                           
  6481                           ;incstack = 0
  6482                           ; Regs used in _Send_I2C_StartBit: []
  6483  0F2D  0020               	movlb	0	; select bank0
  6484  0F2E  1191               	bcf	17,3	;volatile
  6485                           
  6486                           ;I2C.c: 99: SSPCON2bits.SEN=1;
  6487  0F2F  0024               	movlb	4	; select bank4
  6488  0F30  1416               	bsf	22,0	;volatile
  6489  0F31                     l221:	
  6490                           ;I2C.c: 100: while(!PIR1bits.SSP1IF);
  6491                           
  6492  0F31  0020               	movlb	0	; select bank0
  6493  0F32  1991               	btfsc	17,3	;volatile
  6494  0F33  0008               	return
  6495  0F34  2F31               	goto	l221
  6496  0F35                     __end_of_Send_I2C_StartBit:	
  6497                           
  6498                           	psect	text30
  6499  0F3D                     __ptext30:	
  6500 ;; *************** function _Send_I2C_Data *****************
  6501 ;; Defined at:
  6502 ;;		line 48 in file "I2C.c"
  6503 ;; Parameters:    Size  Location     Type
  6504 ;;  databyte        2    0[BANK0 ] unsigned int 
  6505 ;; Auto vars:     Size  Location     Type
  6506 ;;		None
  6507 ;; Return value:  Size  Location     Type
  6508 ;;                  1    wreg      void 
  6509 ;; Registers used:
  6510 ;;		wreg
  6511 ;; Tracked objects:
  6512 ;;		On entry : 0/0
  6513 ;;		On exit  : 0/0
  6514 ;;		Unchanged: 0/0
  6515 ;; Data sizes:     COMMON   BANK0   BANK1   BANK2   BANK3   BANK4   BANK5   BANK6   BANK7   BANK8   BANK9  BANK10  BANK1
      +1  BANK12
  6516 ;;      Params:         0       2       0       0       0       0       0       0       0       0       0       0       
      +0       0
  6517 ;;      Locals:         0       0       0       0       0       0       0       0       0       0       0       0       
      +0       0
  6518 ;;      Temps:          0       0       0       0       0       0       0       0       0       0       0       0       
      +0       0
  6519 ;;      Totals:         0       2       0       0       0       0       0       0       0       0       0       0       
      +0       0
  6520 ;;Total ram usage:        2 bytes
  6521 ;; Hardware stack levels used:    1
  6522 ;; This function calls:
  6523 ;;		Nothing
  6524 ;; This function is called by:
  6525 ;;		_OLED_Command
  6526 ;;		_OLED_PutChar
  6527 ;;		_Write_Temperature
  6528 ;;		_Display_Temperature
  6529 ;;		_OLED_Data
  6530 ;; This function uses a non-reentrant model
  6531 ;;
  6532                           
  6533                           
  6534                           ;psect for function _Send_I2C_Data
  6535  0F3D                     _Send_I2C_Data:	
  6536                           
  6537                           ;I2C.c: 50: PIR1bits.SSP1IF=0;
  6538                           
  6539                           ;incstack = 0
  6540                           ; Regs used in _Send_I2C_Data: [wreg]
  6541  0F3D  0020               	movlb	0	; select bank0
  6542  0F3E  1191               	bcf	17,3	;volatile
  6543                           
  6544                           ;I2C.c: 51: SSPBUF = databyte;
  6545  0F3F  0820               	movf	Send_I2C_Data@databyte,w
  6546  0F40  0024               	movlb	4	; select bank4
  6547  0F41  0091               	movwf	17	;volatile
  6548  0F42                     l203:	
  6549                           ;I2C.c: 52: while(!PIR1bits.SSP1IF);
  6550                           
  6551  0F42  0020               	movlb	0	; select bank0
  6552  0F43  1991               	btfsc	17,3	;volatile
  6553  0F44  0008               	return
  6554  0F45  2F42               	goto	l203
  6555  0F46                     __end_of_Send_I2C_Data:	
  6556  007E                     btemp	set	126	;btemp
  6557  007E                     wtemp0	set	126


Data Sizes:
    Strings     27
    Constant    808
    Data        3
    BSS         27
    Persistent  0
    Stack       0

Auto Spaces:
    Space          Size  Autos    Used
    COMMON           14     14      14
    BANK0            80     56      69
    BANK1            80      0      17
    BANK2            80      0       0
    BANK3            80      0       0
    BANK4            80      0       0
    BANK5            80      0       0
    BANK6            80      0       0
    BANK7            80      0       0
    BANK8            80      0       0
    BANK9            80      0       0
    BANK10           80      0       0
    BANK11           80      0       0
    BANK12           48      0       0

Pointer List with Targets:

    memmove@d1	PTR void  size(1) Largest target is 9
		 -> OLED_PutChar@bytes(BANK0[9]), 

    memmove@d	PTR unsigned char  size(1) Largest target is 9
		 -> OLED_PutChar@bytes(BANK0[9]), 

    memmove@s1	PTR const void  size(2) Largest target is 768
		 -> OledFont(CODE[768]), 

    memmove@s	PTR const unsigned char  size(2) Largest target is 768
		 -> OledFont(CODE[768]), 

    utoa@buf	PTR unsigned char  size(1) Largest target is 2
		 -> OLED_Write_Integer@status(BANK0[2]), 

    sp__utoa	PTR unsigned char  size(1) Largest target is 2
		 -> OLED_Write_Integer@status(BANK0[2]), 

    itoa@buf	PTR unsigned char  size(1) Largest target is 2
		 -> OLED_Write_Integer@status(BANK0[2]), 

    itoa@cp	PTR unsigned char  size(1) Largest target is 2
		 -> OLED_Write_Integer@status(BANK0[2]), 

    celsius	PTR float  size(1) Largest target is 3
		 -> cel(BANK0[3]), 

    sp__ftoa	PTR unsigned char  size(1) Largest target is 17
		 -> ftoa@buf(BANK1[17]), 

    sp__itoa	PTR unsigned char  size(1) Largest target is 2
		 -> OLED_Write_Integer@status(BANK0[2]), 

    OLED_Write_Integer@buff11	PTR unsigned char  size(1) Largest target is 2
		 -> OLED_Write_Integer@status(BANK0[2]), 

    OLED_Write_String@s	PTR unsigned char  size(2) Largest target is 17
		 -> ftoa@buf(BANK1[17]), STR_4(CODE[4]), STR_3(CODE[6]), STR_2(CODE[6]), 
		 -> STR_1(CODE[6]), OLED_Write_Integer@status(BANK0[2]), 

    sp__memmove	PTR void  size(1) Largest target is 9
		 -> OLED_PutChar@bytes(BANK0[9]), 

    OLED_PutChar@base	PTR const unsigned char  size(2) Largest target is 768
		 -> OledFont(CODE[768]), 


Critical Paths under _main in COMMON

    _Write_Temperature->___fttol
    _Read_Temperature->___awtoft
    _Read_Temperature->___ftadd
    ___ftmul->___ftadd
    ___ftdiv->___ftadd
    ___ftadd->___ftpack
    ___awtoft->___ftpack
    _OLED_Write_Integer->_itoa
    _itoa->_utoa
    _utoa->___lwdiv
    _Send_I2C_Data->___fttol

Critical Paths under _main in BANK0

    _main->_Read_Temperature
    _Write_Temperature->_OLED_Write_Integer
    _Read_Temperature->___ftdiv
    ___ftmul->___ftadd
    ___ftdiv->___ftmul
    _OLED_Init->_OLED_Command
    _Display_Temperature->_OLED_Write_Integer
    _OLED_Write_Integer->_OLED_Write_String
    _itoa->_utoa
    _OLED_Write_String->_OLED_PutChar
    _OLED_Clear->_OLED_PutChar
    _OLED_YX->_OLED_Command
    _OLED_Command->_Send_I2C_Data
    _OLED_PutChar->_Send_I2C_Data

Critical Paths under _main in BANK1

    None.

Critical Paths under _main in BANK2

    None.

Critical Paths under _main in BANK3

    None.

Critical Paths under _main in BANK4

    None.

Critical Paths under _main in BANK5

    None.

Critical Paths under _main in BANK6

    None.

Critical Paths under _main in BANK7

    None.

Critical Paths under _main in BANK8

    None.

Critical Paths under _main in BANK9

    None.

Critical Paths under _main in BANK10

    None.

Critical Paths under _main in BANK11

    None.

Critical Paths under _main in BANK12

    None.

Call Graph Tables:

 ---------------------------------------------------------------------------------
 (Depth) Function   	        Calls       Base Space   Used Autos Params    Refs
 ---------------------------------------------------------------------------------
 (0) _main                                                 6     6      0   32369
                                             50 BANK0      6     6      0
                _Display_Temperature
                           _I2C_Init
                         _OLED_Clear
                          _OLED_Init
                   _Read_Temperature
                  _Write_Temperature
                           _initMain
 ---------------------------------------------------------------------------------
 (1) _initMain                                             0     0      0       0
                        _internal_16
 ---------------------------------------------------------------------------------
 (2) _internal_16                                          0     0      0       0
 ---------------------------------------------------------------------------------
 (1) _Write_Temperature                                    4     2      2   10073
                                             32 BANK0      4     2      2
                         _OLED_Clear
                 _OLED_Write_Integer
                  _OLED_Write_String
                            _OLED_YX
               _Send_I2C_ControlByte
                      _Send_I2C_Data
                  _Send_I2C_StartBit
                   _Send_I2C_StopBit
                            ___fttol
 ---------------------------------------------------------------------------------
 (2) ___fttol                                             14    10      4     438
                                              0 COMMON    14    10      4
 ---------------------------------------------------------------------------------
 (1) _Read_Temperature                                    11    11      0    9260
                                             39 BANK0     11    11      0
                           ___awtoft
                            ___ftadd
                            ___ftdiv
                            ___ftmul
 ---------------------------------------------------------------------------------
 (2) ___ftmul                                             16    10      6    2325
                                              7 BANK0     16    10      6
                            ___ftadd (ARG)
                           ___ftpack
 ---------------------------------------------------------------------------------
 (2) ___ftdiv                                             16    10      6    2305
                                             23 BANK0     16    10      6
                            ___ftadd (ARG)
                            ___ftmul (ARG)
                           ___ftpack
 ---------------------------------------------------------------------------------
 (2) ___ftadd                                             13     7      6    2733
                                              8 COMMON     6     0      6
                                              0 BANK0      7     7      0
                           ___ftpack
 ---------------------------------------------------------------------------------
 (2) ___awtoft                                             6     3      3    1851
                                              8 COMMON     6     3      3
                           ___ftpack
 ---------------------------------------------------------------------------------
 (3) ___ftpack                                             8     3      5    1707
                                              0 COMMON     8     3      5
 ---------------------------------------------------------------------------------
 (1) _OLED_Init                                            0     0      0     680
                       _OLED_Command
 ---------------------------------------------------------------------------------
 (1) _I2C_Init                                             1     1      0       0
                                              0 COMMON     1     1      0
 ---------------------------------------------------------------------------------
 (1) _Display_Temperature                                  4     2      2    9657
                                             32 BANK0      4     2      2
                         _OLED_Clear
                 _OLED_Write_Integer
                  _OLED_Write_String
                            _OLED_YX
                      _Read_I2C_Data
               _Send_I2C_ControlByte
                      _Send_I2C_Data
                       _Send_I2C_NAK
                  _Send_I2C_StartBit
                   _Send_I2C_StopBit
 ---------------------------------------------------------------------------------
 (2) _Send_I2C_NAK                                         0     0      0       0
 ---------------------------------------------------------------------------------
 (2) _Send_I2C_ControlByte                                 4     0      4     362
                                              0 COMMON     4     0      4
 ---------------------------------------------------------------------------------
 (2) _Read_I2C_Data                                        4     2      2       0
                                              0 COMMON     4     2      2
 ---------------------------------------------------------------------------------
 (2) _OLED_Write_Integer                                   7     7      0    3187
                                             25 BANK0      7     7      0
                  _OLED_Write_String
                               _itoa
 ---------------------------------------------------------------------------------
 (3) _itoa                                                 7     3      4    1386
                                             13 COMMON     1     1      0
                                              4 BANK0      6     2      4
                               _utoa
 ---------------------------------------------------------------------------------
 (4) _utoa                                                 9     5      4    1074
                                              8 COMMON     5     1      4
                                              0 BANK0      4     4      0
                            ___lwdiv
                            ___lwmod
 ---------------------------------------------------------------------------------
 (5) ___lwmod                                              6     2      4     265
                                              0 COMMON     6     2      4
 ---------------------------------------------------------------------------------
 (5) ___lwdiv                                              8     4      4     374
                                              0 COMMON     8     4      4
 ---------------------------------------------------------------------------------
 (2) _OLED_Write_String                                    3     1      2    1726
                                             22 BANK0      3     1      2
                       _OLED_PutChar
 ---------------------------------------------------------------------------------
 (2) _OLED_Clear                                           5     5      0    2563
                                             22 BANK0      5     5      0
                       _OLED_PutChar
                            _OLED_YX
 ---------------------------------------------------------------------------------
 (2) _OLED_YX                                              5     4      1    1064
                                              5 BANK0      5     4      1
                       _OLED_Command
 ---------------------------------------------------------------------------------
 (3) _OLED_Command                                         3     3      0     680
                                              2 BANK0      3     3      0
                      _Send_I2C_Data
                  _Send_I2C_StartBit
                   _Send_I2C_StopBit
 ---------------------------------------------------------------------------------
 (3) _OLED_PutChar                                        20    20      0    1363
                                              2 BANK0     20    20      0
                      _Send_I2C_Data
                  _Send_I2C_StartBit
                   _Send_I2C_StopBit
                            _memmove
 ---------------------------------------------------------------------------------
 (4) _memmove                                             12     8      4     497
                                              0 COMMON    12     8      4
 ---------------------------------------------------------------------------------
 (2) _Send_I2C_StopBit                                     0     0      0       0
 ---------------------------------------------------------------------------------
 (2) _Send_I2C_StartBit                                    0     0      0       0
 ---------------------------------------------------------------------------------
 (2) _Send_I2C_Data                                        2     0      2     658
                                              0 BANK0      2     0      2
                            ___fttol (ARG)
 ---------------------------------------------------------------------------------
 Estimated maximum stack depth 5
 ---------------------------------------------------------------------------------

 Call Graph Graphs:

 _main (ROOT)
   _Display_Temperature
     _OLED_Clear
       _OLED_PutChar
         _Send_I2C_Data
           ___fttol (ARG)
         _Send_I2C_StartBit
         _Send_I2C_StopBit
         _memmove
       _OLED_YX
         _OLED_Command
           _Send_I2C_Data
             ___fttol (ARG)
           _Send_I2C_StartBit
           _Send_I2C_StopBit
     _OLED_Write_Integer
       _OLED_Write_String
         _OLED_PutChar
           _Send_I2C_Data
             ___fttol (ARG)
           _Send_I2C_StartBit
           _Send_I2C_StopBit
           _memmove
       _itoa
         _utoa
           ___lwdiv
           ___lwmod
     _OLED_Write_String
       _OLED_PutChar
         _Send_I2C_Data
           ___fttol (ARG)
         _Send_I2C_StartBit
         _Send_I2C_StopBit
         _memmove
     _OLED_YX
       _OLED_Command
         _Send_I2C_Data
           ___fttol (ARG)
         _Send_I2C_StartBit
         _Send_I2C_StopBit
     _Read_I2C_Data
     _Send_I2C_ControlByte
     _Send_I2C_Data
       ___fttol (ARG)
     _Send_I2C_NAK
     _Send_I2C_StartBit
     _Send_I2C_StopBit
   _I2C_Init
   _OLED_Clear
     _OLED_PutChar
       _Send_I2C_Data
         ___fttol (ARG)
       _Send_I2C_StartBit
       _Send_I2C_StopBit
       _memmove
     _OLED_YX
       _OLED_Command
         _Send_I2C_Data
           ___fttol (ARG)
         _Send_I2C_StartBit
         _Send_I2C_StopBit
   _OLED_Init
     _OLED_Command
       _Send_I2C_Data
         ___fttol (ARG)
       _Send_I2C_StartBit
       _Send_I2C_StopBit
   _Read_Temperature
     ___awtoft
       ___ftpack
     ___ftadd
       ___ftpack
     ___ftdiv
       ___ftadd (ARG)
         ___ftpack
       ___ftmul (ARG)
         ___ftadd (ARG)
           ___ftpack
         ___ftpack (ARG)
       ___ftpack (ARG)
     ___ftmul
       ___ftadd (ARG)
         ___ftpack
       ___ftpack (ARG)
   _Write_Temperature
     _OLED_Clear
       _OLED_PutChar
         _Send_I2C_Data
           ___fttol (ARG)
         _Send_I2C_StartBit
         _Send_I2C_StopBit
         _memmove
       _OLED_YX
         _OLED_Command
           _Send_I2C_Data
             ___fttol (ARG)
           _Send_I2C_StartBit
           _Send_I2C_StopBit
     _OLED_Write_Integer
       _OLED_Write_String
         _OLED_PutChar
           _Send_I2C_Data
             ___fttol (ARG)
           _Send_I2C_StartBit
           _Send_I2C_StopBit
           _memmove
       _itoa
         _utoa
           ___lwdiv
           ___lwmod
     _OLED_Write_String
       _OLED_PutChar
         _Send_I2C_Data
           ___fttol (ARG)
         _Send_I2C_StartBit
         _Send_I2C_StopBit
         _memmove
     _OLED_YX
       _OLED_Command
         _Send_I2C_Data
           ___fttol (ARG)
         _Send_I2C_StartBit
         _Send_I2C_StopBit
     _Send_I2C_ControlByte
     _Send_I2C_Data
       ___fttol (ARG)
     _Send_I2C_StartBit
     _Send_I2C_StopBit
     ___fttol
   _initMain
     _internal_16

 Address spaces:
Name               Size   Autos  Total    Cost      Usage
BIGRAM             3F0      0       0       0        0.0%
NULL                 0      0       0       0        0.0%
CODE                 0      0       0       0        0.0%
BITCOMMON            E      0       0       1        0.0%
BITSFR0              0      0       0       1        0.0%
SFR0                 0      0       0       1        0.0%
COMMON               E      E       E       2      100.0%
BITSFR1              0      0       0       2        0.0%
SFR1                 0      0       0       2        0.0%
BITSFR2              0      0       0       3        0.0%
SFR2                 0      0       0       3        0.0%
STACK                0      0       0       3        0.0%
BITBANK0            50      0       0       4        0.0%
BITSFR3              0      0       0       4        0.0%
SFR3                 0      0       0       4        0.0%
BANK0               50     38      45       5       86.3%
BITSFR4              0      0       0       5        0.0%
SFR4                 0      0       0       5        0.0%
BITBANK1            50      0       0       6        0.0%
BITSFR5              0      0       0       6        0.0%
SFR5                 0      0       0       6        0.0%
BANK1               50      0      11       7       21.3%
BITSFR6              0      0       0       7        0.0%
SFR6                 0      0       0       7        0.0%
BITBANK2            50      0       0       8        0.0%
BITSFR7              0      0       0       8        0.0%
SFR7                 0      0       0       8        0.0%
BANK2               50      0       0       9        0.0%
BITSFR8              0      0       0       9        0.0%
SFR8                 0      0       0       9        0.0%
BITBANK3            50      0       0      10        0.0%
BITSFR9              0      0       0      10        0.0%
SFR9                 0      0       0      10        0.0%
BANK3               50      0       0      11        0.0%
BITSFR10             0      0       0      11        0.0%
SFR10                0      0       0      11        0.0%
BITBANK4            50      0       0      12        0.0%
BITSFR11             0      0       0      12        0.0%
SFR11                0      0       0      12        0.0%
BANK4               50      0       0      13        0.0%
BITSFR12             0      0       0      13        0.0%
SFR12                0      0       0      13        0.0%
BITBANK5            50      0       0      14        0.0%
BITSFR13             0      0       0      14        0.0%
SFR13                0      0       0      14        0.0%
BANK5               50      0       0      15        0.0%
BITSFR14             0      0       0      15        0.0%
SFR14                0      0       0      15        0.0%
BITBANK6            50      0       0      16        0.0%
BITSFR15             0      0       0      16        0.0%
SFR15                0      0       0      16        0.0%
BANK6               50      0       0      17        0.0%
BITSFR16             0      0       0      17        0.0%
SFR16                0      0       0      17        0.0%
BITBANK7            50      0       0      18        0.0%
BITSFR17             0      0       0      18        0.0%
SFR17                0      0       0      18        0.0%
BANK7               50      0       0      19        0.0%
BITSFR18             0      0       0      19        0.0%
SFR18                0      0       0      19        0.0%
BITSFR19             0      0       0      20        0.0%
SFR19                0      0       0      20        0.0%
ABS                  0      0      64      20        0.0%
BITBANK8            50      0       0      21        0.0%
BITSFR20             0      0       0      21        0.0%
SFR20                0      0       0      21        0.0%
BANK8               50      0       0      22        0.0%
BITSFR21             0      0       0      22        0.0%
SFR21                0      0       0      22        0.0%
BITBANK9            50      0       0      23        0.0%
BITSFR22             0      0       0      23        0.0%
SFR22                0      0       0      23        0.0%
BANK9               50      0       0      24        0.0%
BITSFR23             0      0       0      24        0.0%
SFR23                0      0       0      24        0.0%
BITBANK10           50      0       0      25        0.0%
BITSFR24             0      0       0      25        0.0%
SFR24                0      0       0      25        0.0%
BANK10              50      0       0      26        0.0%
BITSFR25             0      0       0      26        0.0%
SFR25                0      0       0      26        0.0%
BITBANK11           50      0       0      27        0.0%
BITSFR26             0      0       0      27        0.0%
SFR26                0      0       0      27        0.0%
BANK11              50      0       0      28        0.0%
BITSFR27             0      0       0      28        0.0%
SFR27                0      0       0      28        0.0%
BITBANK12           30      0       0      29        0.0%
BITSFR28             0      0       0      29        0.0%
SFR28                0      0       0      29        0.0%
BANK12              30      0       0      30        0.0%
BITSFR29             0      0       0      30        0.0%
SFR29                0      0       0      30        0.0%
BITSFR30             0      0       0      31        0.0%
SFR30                0      0       0      31        0.0%
DATA                 0      0      64      31        0.0%
BITSFR31             0      0       0      32        0.0%
SFR31                0      0       0      32        0.0%


Microchip Technology PIC Macro Assembler V1.41 build -162212810 
Symbol Table                                                                                   Mon Mar 27 21:35:37 2017

                     __CFG_CP$OFF 0000                  _Read_Temperature 04F5                     _Read_I2C_Data 0F63  
                    ___ftadd@exp1 0026                      ___ftadd@exp2 0025                OLED_Write_String@s 0036  
                    ___ftadd@sign 0024                               l203 0F42                               l221 0F31  
                             l215 0F5F                               l209 0F67                               l227 0F39  
                             l239 0F4B                               l176 04FD                               l462 028F  
                             l463 0297                               l455 027C                               l554 04DB  
                             l574 016D                               l486 078C      __end_of_Send_I2C_ControlByte 0F63  
                             _cel 005F                      __CFG_BORV$LO 0000                               wreg 0009  
                    __CFG_IESO$ON 0000                  OLED_Command@temp 0024                      __CFG_LVP$OFF 0000  
                    ___ftdiv@cntr 0041                      ___ftdiv@sign 0046                              l1403 00E2  
                            l1421 0075                              l1415 005D                              l1417 0069  
                            l1425 007E                              l1521 001E                              l1371 02F7  
                            l1443 03FD                              l1531 0252                              l1445 0401  
                            l1509 0F83                              l1367 02DD                              l1463 044D  
                            l1391 00BB                              l1535 0259                              l1623 071C  
                            l1393 00C7                              l1473 0127                              l1545 0281  
                            l1537 0263                              l1609 0FA4                              l1641 0745  
                            l1801 04C5                              l1483 0145                              l1547 0289  
                            l1539 0268                              l1651 0767                              l1619 0715  
                            l1731 0650                              l1469 046C                              l1581 00AE  
                            l1573 0096                              l1661 0788                              l1653 076B  
                            l1629 072B                              l1717 0617                              l1709 05FE  
                            l1813 04EC                              l1399 00D9                              l1647 0758  
                            l1807 04D2                              l1665 079E                              l1649 0762  
                            l1761 06BD                              l1753 06A9                              l1737 0666  
                            l1809 04DE                              l1659 077E                              l1669 07B0  
                            l1765 06C5                              l1749 06A1                              l1781 0487  
                            l1679 07CB                              l1695 05BD                              l1689 05A7  
                            l1953 031F                              l1973 0356                              l1799 04B7  
                            l1967 0348                              l1959 032D                              l1979 036E  
                            STR_1 0B39                              STR_3 0B33                              STR_4 0B3F  
                            STR_5 0B28                   __end_of_OLED_YX 0057                              u2005 06AA  
                            u1215 00BE                              u2015 06B0                       ?_OLED_Clear 0070  
                            u1305 006F                              u1155 02C1                              u1235 00C8  
                            u1315 0076                              u2115 04B8                              u1165 02D3  
                            u1405 0037                              u1245 00D2                              u2045 06C6  
                            u2205 0354                              u1415 004C                              u1255 00DA  
                            u2055 06CC                              u2215 036C                              u1505 0284  
                            u2145 04D3                              u1355 044B                              u2227 0374  
                            u1365 046A                              u1285 0060                              u2085 048E  
                            u2237 01AE                              u2247 04F8                              u2257 0F7E  
                            u1545 029E                              u1465 025E                              u2185 032B  
                            u2267 0390                              u2195 0346                              u2277 03E9  
                            u1485 0277                              u1735 0746                              u1825 077F  
                            u1905 05DF                              u1915 05FF                              u1765 0759  
                            u1925 060E                              u1935 0618                              u1795 076C  
                            u1895 05CF                              u1975 0672                              u1985 0682  
                            _SCS0 04C8                              _SCS1 04C9                      __CFG_WRT$OFF 0000  
                            _main 0313                      ___ftpack@arg 0070                              _itoa 0006  
                    ___ftpack@exp 0073                  __end_of_I2C_Init 0F83                              fsr0h 0005  
                            fsr1h 0007                              indf0 0000                              fsr0l 0004  
                            indf1 0001                              fsr1l 0006                              btemp 007E  
                            _utoa 0121                              start 0002                      ___ftmul@cntr 0035  
                    ___ftmul@sign 0036                      ___fttol@exp1 007D                __size_of_OLED_Init 0064  
                    ___fttol@lval 0079                    ?_Read_I2C_Data 0070                             ?_main 0070  
                           ?_itoa 0024                   __end_of___ftadd 07E2                     __CFG_WDTE$OFF 0000  
                 __end_of___ftdiv 0639                             ?_utoa 0078                   __end_of___ftmul 06ED  
                 __end_of___fttol 04F5                             _IRCF0 04CB                             _IRCF1 04CC  
                           _IRCF2 04CD                             _IRCF3 04CE                   __end_of___lwdiv 00E7  
                 __end_of___lwmod 0083                    __CFG_FCMEN$OFF 0000                     ___awtoft@sign 007D  
                 __end_of_dpowers 0828                   __end_of_memmove 0313                     ___ftpack@sign 0074  
                           main@i 0054                    __CFG_BOREN$OFF 0000                             utoa@c 0022  
                           utoa@v 0020                             status 0003                             wtemp0 007E  
      __size_of_Send_I2C_StartBit 0008                      ?_internal_16 0070                    __CFG_MCLRE$OFF 0000  
                 __initialization 07E2                      __end_of_main 037C                      __end_of_itoa 002C  
                    __end_of_utoa 0183                    __CFG_LPBOR$OFF 0000                  __end_of_OledFont 0B28  
             __size_of_OLED_Clear 0030                            ??_main 0052                     ___fttol@sign1 0078  
                          ??_itoa 007D                            ??_utoa 007C                    __CFG_PLLEN$OFF 0000  
                       ??_OLED_YX 0026  Send_I2C_ControlByte@BlockAddress 0070                            _ADRESH 009C  
                          _ADRESL 009B                _OLED_Write_Integer 0FDC                    __CFG_ZCDDIS$ON 0000  
                __end_of___awtoft 0FBA                  __end_of___ftpack 02AE                 __end_of_OLED_Init 024A  
                   ?_Send_I2C_NAK 0070                     ?_OLED_Command 0070                            _SPLLEN 04CF  
                          _SSPADD 0212                            _SSPBUF 0211               ?_OLED_Write_Integer 0070  
                  __CFG_PWRTE$OFF 0000              _Send_I2C_ControlByte 0F58                     ?_OLED_PutChar 0070  
     __end_of_Display_Temperature 03F3                   ??_Read_I2C_Data 0072            __size_of_Send_I2C_Data 0009  
                       ??___ftadd 0020                    __CFG_STVREN$ON 0000                         ??___ftdiv 003D  
                       ??___ftmul 002D                         ??___fttol 0074                         ??___lwdiv 0074  
                       ??___lwmod 0074                  __end_of_initMain 0121                            _result 0058  
                   _incoming_data 005B             ___ftmul@f3_as_product 0032              ??_OLED_Write_Integer 0039  
                          itoa@cp 0028                         ?_I2C_Init 0070                         ??_memmove 0074  
           Send_I2C_Data@databyte 0020                 _Write_Temperature 0183                    ??_Send_I2C_NAK 0070  
                  ??_OLED_Command 0022          __end_of_Read_Temperature 0590           __end_of__initialization 07FD  
              ?_Write_Temperature 0040                        ___ftadd@f1 0078                        ___ftadd@f2 007B  
                      ___ftdiv@f1 003A                        ___ftdiv@f2 0037                        ___ftdiv@f3 0042  
                  ??_OLED_PutChar 0022             ?_Send_I2C_ControlByte 0070                        ___awtoft@c 0078  
                      ___ftmul@f1 0027                        ___ftmul@f2 002A         __size_of_Send_I2C_StopBit 0008  
                      ___fttol@f1 0070               ??_Write_Temperature 0042                    __pcstackCOMMON 0070  
                    __pidataBANK0 0F24                        ??_I2C_Init 0070         __end_of_Write_Temperature 01E6  
                   _Send_I2C_Data 0F3D                      ??_OLED_Clear 0036                        __pbssBANK0 0058  
                      __pbssBANK1 00A0                        __pmaintext 0313              __size_of_internal_16 0009  
                 __CFG_PPS1WAY$ON 0000                         ?___awtoft 0078                         ?___ftpack 0070  
              __end_of_OLED_Clear 00B3                           _OLED_YX 002C                    ?_Send_I2C_Data 0020  
                         _PPSLOCK 0E0F                         ?_initMain 0070            ??_Send_I2C_ControlByte 0074  
                         ___ftadd 06ED                           ___ftdiv 0590                           ___ftmul 0639  
                         ___fttol 046F                           ___lwdiv 00B3                           ___lwmod 0057  
                      ??___awtoft 007B                        ??___ftpack 0075              __end_of_Send_I2C_NAK 0F4F  
            __end_of_OLED_Command 0FDC                           _celsius 0064                           __ptext1 00E7  
                         __ptext2 0F4F                           __ptext3 0183                           __ptext4 046F  
                         __ptext5 04F5                           __ptext6 0639                           __ptext7 0590  
                         __ptext8 06ED                           __ptext9 0F9A                           _dpowers 0800  
                         _memmove 02AE              __end_of_OLED_PutChar 046F        __size_of_Write_Temperature 0063  
                         clrloop0 0F28              end_of_initialization 07FD                           ftoa@buf 00A0  
                      ??_initMain 0070                           itoa@buf 0029                           itoa@val 0024  
                       _OLED_Init 01E6                  OLED_PutChar@base 0031                  _Send_I2C_StopBit 0F35  
                    __pstringtext 0800                           utoa@buf 0023                           utoa@val 0078  
                 ??_Send_I2C_Data 007E                  __CFG_FOSC$INTOSC 0000                         _TRISCbits 008E  
               __size_of_I2C_Init 0010                 ?_Read_Temperature 0070                       ___ftdiv@exp 0045  
                      ?_OLED_Init 0070                ??_Read_Temperature 0047      Read_Temperature@conversion10 004C  
                     ___ftmul@exp 0031          OLED_Write_Integer@buff11 003D             __end_of_Read_I2C_Data 0F73  
    __size_of_Display_Temperature 0077          OLED_Write_Integer@status 003E       __size_of_OLED_Write_Integer 0024  
                  _device_address 0062               start_initialization 07E2         Read_Temperature@farenheit 004F  
               _OLED_Write_String 0F83             __size_of_Send_I2C_NAK 0009                ?_OLED_Write_String 0036  
           __size_of_OLED_Command 0022                        OLED_YX@Row 0029                       __pdataBANK0 0062  
           __size_of_OLED_PutChar 007C               ??_OLED_Write_String 0038                 __size_of___awtoft 0020  
               __size_of___ftpack 0064                         ___latbits 0002                          ?_OLED_YX 0025  
                   __pcstackBANK0 0020                      _Send_I2C_NAK 0F46                      _OLED_Command 0FBA  
       __end_of_OLED_Write_String 0F9A                     ??_internal_16 0070                       ??_OLED_Init 007E  
               __size_of_initMain 003A                  ___lwdiv@dividend 0072                      _OLED_PutChar 03F3  
                        ?___ftadd 0078                          ?___ftdiv 0037                          ?___ftmul 0027  
                        ?___fttol 0070                          ?___lwdiv 0070                          ?___lwmod 0070  
                        _I2C_Init 0F73                          ?_memmove 0070          __end_of_Send_I2C_StopBit 0F3D  
                ___lwdiv@quotient 0075                         clear_ram0 0F27     __size_of_Send_I2C_ControlByte 000B  
                        _PIR1bits 0011                     _block_address 005D               __end_of_internal_16 0F58  
                      _ADCON0bits 009D                        _ADCON1bits 009E                         main@i_337 0056  
   Write_Temperature@word_address 0040                  __size_of_OLED_YX 002B        __size_of_OLED_Write_String 0017  
                        _OledFont 0828               _Display_Temperature 037C                         memmove@d1 0078  
                       memmove@s1 0070                  __size_of___ftadd 00F5                  __size_of___ftdiv 00A9  
                __size_of___ftmul 00B4                  __size_of___fttol 0086         __size_of_Read_Temperature 009B  
                __size_of___lwdiv 0034                  __size_of___lwmod 002C                          ___awtoft 0F9A  
                        ___ftpack 024A              ?_Display_Temperature 0040                        _ANSELCbits 018E  
                      _ANSELEbits 0190                  __size_of_memmove 0065                   ___lwdiv@divisor 0070  
           __end_of_Send_I2C_Data 0F46                   ___lwdiv@counter 0077                          __ptext10 024A  
                        __ptext11 01E6                          __ptext20 0057                          __ptext12 0F73  
                        __ptext21 00B3                          __ptext13 037C                          __ptext30 0F3D  
                        __ptext22 0F83                          __ptext14 0F46                          __ptext23 0083  
                        __ptext15 0F58                          __ptext24 002C                          __ptext16 0F63  
                        __ptext25 0FBA                          __ptext17 0FDC                          __ptext26 03F3  
                        __ptext18 0006                          __ptext27 02AE                          __ptext19 0121  
                        __ptext28 0F35                          __ptext29 0F2D        Send_I2C_ControlByte@RW_bit 0072  
                        _initMain 00E7                     __size_of_main 0069                     _SSPDATPPSbits 0E21  
                   __size_of_itoa 0026                     __size_of_utoa 0062                     OLED_Clear@col 0039  
                     _internal_16 0F4F                     OLED_Clear@row 0037                     OLED_YX@Column 0025  
                  OLED_PutChar@ch 0035                        _RC4PPSbits 0EA4                     _SSPCLKPPSbits 0E20  
                      _RC5PPSbits 0EA5        __end_of_OLED_Write_Integer 1000             ??_Display_Temperature 0042  
 Display_Temperature@word_address 0040                          itoa@base 0026                          memmove@d 007B  
                        memmove@n 0072                          memmove@s 0079                        _OLED_Clear 0083  
                ___lwmod@dividend 0072            __size_of_Read_I2C_Data 0010                 __CFG_CLKOUTEN$OFF 0000  
                     _PPSLOCKbits 0E0F                 _Send_I2C_StartBit 0F2D                 OLED_PutChar@bytes 0028  
                   OLED_PutChar@i 0033                ?_Send_I2C_StartBit 0070                          utoa@base 007A  
             ??_Send_I2C_StartBit 0070                   ___lwmod@divisor 0070                   ___lwmod@counter 0075  
                     _SSPCON2bits 0216                 ?_Send_I2C_StopBit 0070                ??_Send_I2C_StopBit 0070  
             OLED_Write_Integer@i 003C         __end_of_Send_I2C_StartBit 0F35                        _SSPCONbits 0215  
