

Microchip Technology PIC LITE Macro Assembler V1.38 build -256452561 
                                                                                               Mon Nov 07 13:41:08 2016

Microchip Technology Omniscient Code Generator v1.38 (Free mode) build 201607010351
     1                           	processor	16F1717
     2                           	opt	pw 120
     3                           	opt	lm
     4                           	psect	stringtext,global,class=STRCODE,delta=2
     5                           	psect	cinit,global,class=CODE,merge=1,delta=2
     6                           	psect	bssBANK0,global,class=BANK0,space=1,delta=1
     7                           	psect	clrtext,global,class=CODE,delta=2
     8                           	psect	cstackCOMMON,global,class=COMMON,space=1,delta=1
     9                           	psect	maintext,global,class=CODE,merge=1,split=1,delta=2
    10                           	psect	text1,local,class=CODE,merge=1,delta=2
    11                           	psect	text2,local,class=CODE,merge=1,delta=2
    12                           	psect	text3,local,class=CODE,merge=1,delta=2
    13                           	psect	text4,local,class=CODE,merge=1,delta=2
    14                           	psect	text5,local,class=CODE,merge=1,delta=2
    15                           	psect	text6,local,class=CODE,merge=1,delta=2
    16                           	dabs	1,0x7E,2
    17  0000                     	;# 
    18  0001                     	;# 
    19  0002                     	;# 
    20  0003                     	;# 
    21  0004                     	;# 
    22  0005                     	;# 
    23  0006                     	;# 
    24  0007                     	;# 
    25  0008                     	;# 
    26  0009                     	;# 
    27  000A                     	;# 
    28  000B                     	;# 
    29  000C                     	;# 
    30  000D                     	;# 
    31  000E                     	;# 
    32  000F                     	;# 
    33  0010                     	;# 
    34  0011                     	;# 
    35  0012                     	;# 
    36  0013                     	;# 
    37  0015                     	;# 
    38  0016                     	;# 
    39  0016                     	;# 
    40  0017                     	;# 
    41  0018                     	;# 
    42  0019                     	;# 
    43  001A                     	;# 
    44  001B                     	;# 
    45  001C                     	;# 
    46  008C                     	;# 
    47  008D                     	;# 
    48  008E                     	;# 
    49  008F                     	;# 
    50  0090                     	;# 
    51  0091                     	;# 
    52  0092                     	;# 
    53  0093                     	;# 
    54  0095                     	;# 
    55  0096                     	;# 
    56  0097                     	;# 
    57  0098                     	;# 
    58  0099                     	;# 
    59  009A                     	;# 
    60  009B                     	;# 
    61  009B                     	;# 
    62  009C                     	;# 
    63  009D                     	;# 
    64  009E                     	;# 
    65  009F                     	;# 
    66  010C                     	;# 
    67  010D                     	;# 
    68  010E                     	;# 
    69  010F                     	;# 
    70  0110                     	;# 
    71  0111                     	;# 
    72  0112                     	;# 
    73  0113                     	;# 
    74  0114                     	;# 
    75  0115                     	;# 
    76  0116                     	;# 
    77  0117                     	;# 
    78  0118                     	;# 
    79  0119                     	;# 
    80  011A                     	;# 
    81  011B                     	;# 
    82  011B                     	;# 
    83  011C                     	;# 
    84  018C                     	;# 
    85  018D                     	;# 
    86  018E                     	;# 
    87  018F                     	;# 
    88  0190                     	;# 
    89  0191                     	;# 
    90  0191                     	;# 
    91  0192                     	;# 
    92  0193                     	;# 
    93  0193                     	;# 
    94  0194                     	;# 
    95  0195                     	;# 
    96  0196                     	;# 
    97  0197                     	;# 
    98  0199                     	;# 
    99  0199                     	;# 
   100  0199                     	;# 
   101  019A                     	;# 
   102  019A                     	;# 
   103  019A                     	;# 
   104  019B                     	;# 
   105  019B                     	;# 
   106  019B                     	;# 
   107  019B                     	;# 
   108  019B                     	;# 
   109  019C                     	;# 
   110  019C                     	;# 
   111  019C                     	;# 
   112  019D                     	;# 
   113  019D                     	;# 
   114  019D                     	;# 
   115  019E                     	;# 
   116  019E                     	;# 
   117  019E                     	;# 
   118  019F                     	;# 
   119  019F                     	;# 
   120  019F                     	;# 
   121  019F                     	;# 
   122  019F                     	;# 
   123  020C                     	;# 
   124  020D                     	;# 
   125  020E                     	;# 
   126  020F                     	;# 
   127  0210                     	;# 
   128  0211                     	;# 
   129  0211                     	;# 
   130  0212                     	;# 
   131  0212                     	;# 
   132  0213                     	;# 
   133  0213                     	;# 
   134  0214                     	;# 
   135  0214                     	;# 
   136  0215                     	;# 
   137  0215                     	;# 
   138  0215                     	;# 
   139  0215                     	;# 
   140  0216                     	;# 
   141  0216                     	;# 
   142  0217                     	;# 
   143  0217                     	;# 
   144  028C                     	;# 
   145  028D                     	;# 
   146  028E                     	;# 
   147  028F                     	;# 
   148  0290                     	;# 
   149  0291                     	;# 
   150  0291                     	;# 
   151  0292                     	;# 
   152  0293                     	;# 
   153  0293                     	;# 
   154  0298                     	;# 
   155  0298                     	;# 
   156  0299                     	;# 
   157  029A                     	;# 
   158  029A                     	;# 
   159  029E                     	;# 
   160  030C                     	;# 
   161  030D                     	;# 
   162  030E                     	;# 
   163  030F                     	;# 
   164  0310                     	;# 
   165  038C                     	;# 
   166  038D                     	;# 
   167  038E                     	;# 
   168  038F                     	;# 
   169  0390                     	;# 
   170  0391                     	;# 
   171  0392                     	;# 
   172  0393                     	;# 
   173  0394                     	;# 
   174  0395                     	;# 
   175  0396                     	;# 
   176  0397                     	;# 
   177  0398                     	;# 
   178  0399                     	;# 
   179  039D                     	;# 
   180  039E                     	;# 
   181  039F                     	;# 
   182  0415                     	;# 
   183  0416                     	;# 
   184  0417                     	;# 
   185  041C                     	;# 
   186  041D                     	;# 
   187  041E                     	;# 
   188  0498                     	;# 
   189  0498                     	;# 
   190  0499                     	;# 
   191  049A                     	;# 
   192  049B                     	;# 
   193  049B                     	;# 
   194  049C                     	;# 
   195  049D                     	;# 
   196  049E                     	;# 
   197  049F                     	;# 
   198  0511                     	;# 
   199  0515                     	;# 
   200  0617                     	;# 
   201  0618                     	;# 
   202  0619                     	;# 
   203  0619                     	;# 
   204  061A                     	;# 
   205  061B                     	;# 
   206  061C                     	;# 
   207  061C                     	;# 
   208  0691                     	;# 
   209  0692                     	;# 
   210  0693                     	;# 
   211  0694                     	;# 
   212  0695                     	;# 
   213  0696                     	;# 
   214  0697                     	;# 
   215  0698                     	;# 
   216  0699                     	;# 
   217  069A                     	;# 
   218  069B                     	;# 
   219  069C                     	;# 
   220  069D                     	;# 
   221  069E                     	;# 
   222  069F                     	;# 
   223  0E0F                     	;# 
   224  0E10                     	;# 
   225  0E11                     	;# 
   226  0E12                     	;# 
   227  0E13                     	;# 
   228  0E14                     	;# 
   229  0E15                     	;# 
   230  0E17                     	;# 
   231  0E20                     	;# 
   232  0E21                     	;# 
   233  0E22                     	;# 
   234  0E24                     	;# 
   235  0E25                     	;# 
   236  0E28                     	;# 
   237  0E29                     	;# 
   238  0E2A                     	;# 
   239  0E2B                     	;# 
   240  0E90                     	;# 
   241  0E91                     	;# 
   242  0E92                     	;# 
   243  0E93                     	;# 
   244  0E94                     	;# 
   245  0E95                     	;# 
   246  0E96                     	;# 
   247  0E97                     	;# 
   248  0E98                     	;# 
   249  0E99                     	;# 
   250  0E9A                     	;# 
   251  0E9B                     	;# 
   252  0E9C                     	;# 
   253  0E9D                     	;# 
   254  0E9E                     	;# 
   255  0E9F                     	;# 
   256  0EA0                     	;# 
   257  0EA1                     	;# 
   258  0EA2                     	;# 
   259  0EA3                     	;# 
   260  0EA4                     	;# 
   261  0EA5                     	;# 
   262  0EA6                     	;# 
   263  0EA7                     	;# 
   264  0EA8                     	;# 
   265  0EA9                     	;# 
   266  0EAA                     	;# 
   267  0EAB                     	;# 
   268  0EAC                     	;# 
   269  0EAD                     	;# 
   270  0EAE                     	;# 
   271  0EAF                     	;# 
   272  0EB0                     	;# 
   273  0EB1                     	;# 
   274  0EB2                     	;# 
   275  0F0F                     	;# 
   276  0F10                     	;# 
   277  0F11                     	;# 
   278  0F12                     	;# 
   279  0F13                     	;# 
   280  0F14                     	;# 
   281  0F15                     	;# 
   282  0F16                     	;# 
   283  0F17                     	;# 
   284  0F18                     	;# 
   285  0F19                     	;# 
   286  0F1A                     	;# 
   287  0F1B                     	;# 
   288  0F1C                     	;# 
   289  0F1D                     	;# 
   290  0F1E                     	;# 
   291  0F1F                     	;# 
   292  0F20                     	;# 
   293  0F21                     	;# 
   294  0F22                     	;# 
   295  0F23                     	;# 
   296  0F24                     	;# 
   297  0F25                     	;# 
   298  0F26                     	;# 
   299  0F27                     	;# 
   300  0F28                     	;# 
   301  0F29                     	;# 
   302  0F2A                     	;# 
   303  0F2B                     	;# 
   304  0F2C                     	;# 
   305  0F2D                     	;# 
   306  0F2E                     	;# 
   307  0F2F                     	;# 
   308  0F30                     	;# 
   309  0F31                     	;# 
   310  0F32                     	;# 
   311  0F33                     	;# 
   312  0F34                     	;# 
   313  0F35                     	;# 
   314  0F36                     	;# 
   315  0F37                     	;# 
   316  0FE4                     	;# 
   317  0FE5                     	;# 
   318  0FE6                     	;# 
   319  0FE7                     	;# 
   320  0FE8                     	;# 
   321  0FE9                     	;# 
   322  0FEA                     	;# 
   323  0FEB                     	;# 
   324  0FED                     	;# 
   325  0FEE                     	;# 
   326  0FEF                     	;# 
   327  0000                     	;# 
   328  0001                     	;# 
   329  0002                     	;# 
   330  0003                     	;# 
   331  0004                     	;# 
   332  0005                     	;# 
   333  0006                     	;# 
   334  0007                     	;# 
   335  0008                     	;# 
   336  0009                     	;# 
   337  000A                     	;# 
   338  000B                     	;# 
   339  000C                     	;# 
   340  000D                     	;# 
   341  000E                     	;# 
   342  000F                     	;# 
   343  0010                     	;# 
   344  0011                     	;# 
   345  0012                     	;# 
   346  0013                     	;# 
   347  0015                     	;# 
   348  0016                     	;# 
   349  0016                     	;# 
   350  0017                     	;# 
   351  0018                     	;# 
   352  0019                     	;# 
   353  001A                     	;# 
   354  001B                     	;# 
   355  001C                     	;# 
   356  008C                     	;# 
   357  008D                     	;# 
   358  008E                     	;# 
   359  008F                     	;# 
   360  0090                     	;# 
   361  0091                     	;# 
   362  0092                     	;# 
   363  0093                     	;# 
   364  0095                     	;# 
   365  0096                     	;# 
   366  0097                     	;# 
   367  0098                     	;# 
   368  0099                     	;# 
   369  009A                     	;# 
   370  009B                     	;# 
   371  009B                     	;# 
   372  009C                     	;# 
   373  009D                     	;# 
   374  009E                     	;# 
   375  009F                     	;# 
   376  010C                     	;# 
   377  010D                     	;# 
   378  010E                     	;# 
   379  010F                     	;# 
   380  0110                     	;# 
   381  0111                     	;# 
   382  0112                     	;# 
   383  0113                     	;# 
   384  0114                     	;# 
   385  0115                     	;# 
   386  0116                     	;# 
   387  0117                     	;# 
   388  0118                     	;# 
   389  0119                     	;# 
   390  011A                     	;# 
   391  011B                     	;# 
   392  011B                     	;# 
   393  011C                     	;# 
   394  018C                     	;# 
   395  018D                     	;# 
   396  018E                     	;# 
   397  018F                     	;# 
   398  0190                     	;# 
   399  0191                     	;# 
   400  0191                     	;# 
   401  0192                     	;# 
   402  0193                     	;# 
   403  0193                     	;# 
   404  0194                     	;# 
   405  0195                     	;# 
   406  0196                     	;# 
   407  0197                     	;# 
   408  0199                     	;# 
   409  0199                     	;# 
   410  0199                     	;# 
   411  019A                     	;# 
   412  019A                     	;# 
   413  019A                     	;# 
   414  019B                     	;# 
   415  019B                     	;# 
   416  019B                     	;# 
   417  019B                     	;# 
   418  019B                     	;# 
   419  019C                     	;# 
   420  019C                     	;# 
   421  019C                     	;# 
   422  019D                     	;# 
   423  019D                     	;# 
   424  019D                     	;# 
   425  019E                     	;# 
   426  019E                     	;# 
   427  019E                     	;# 
   428  019F                     	;# 
   429  019F                     	;# 
   430  019F                     	;# 
   431  019F                     	;# 
   432  019F                     	;# 
   433  020C                     	;# 
   434  020D                     	;# 
   435  020E                     	;# 
   436  020F                     	;# 
   437  0210                     	;# 
   438  0211                     	;# 
   439  0211                     	;# 
   440  0212                     	;# 
   441  0212                     	;# 
   442  0213                     	;# 
   443  0213                     	;# 
   444  0214                     	;# 
   445  0214                     	;# 
   446  0215                     	;# 
   447  0215                     	;# 
   448  0215                     	;# 
   449  0215                     	;# 
   450  0216                     	;# 
   451  0216                     	;# 
   452  0217                     	;# 
   453  0217                     	;# 
   454  028C                     	;# 
   455  028D                     	;# 
   456  028E                     	;# 
   457  028F                     	;# 
   458  0290                     	;# 
   459  0291                     	;# 
   460  0291                     	;# 
   461  0292                     	;# 
   462  0293                     	;# 
   463  0293                     	;# 
   464  0298                     	;# 
   465  0298                     	;# 
   466  0299                     	;# 
   467  029A                     	;# 
   468  029A                     	;# 
   469  029E                     	;# 
   470  030C                     	;# 
   471  030D                     	;# 
   472  030E                     	;# 
   473  030F                     	;# 
   474  0310                     	;# 
   475  038C                     	;# 
   476  038D                     	;# 
   477  038E                     	;# 
   478  038F                     	;# 
   479  0390                     	;# 
   480  0391                     	;# 
   481  0392                     	;# 
   482  0393                     	;# 
   483  0394                     	;# 
   484  0395                     	;# 
   485  0396                     	;# 
   486  0397                     	;# 
   487  0398                     	;# 
   488  0399                     	;# 
   489  039D                     	;# 
   490  039E                     	;# 
   491  039F                     	;# 
   492  0415                     	;# 
   493  0416                     	;# 
   494  0417                     	;# 
   495  041C                     	;# 
   496  041D                     	;# 
   497  041E                     	;# 
   498  0498                     	;# 
   499  0498                     	;# 
   500  0499                     	;# 
   501  049A                     	;# 
   502  049B                     	;# 
   503  049B                     	;# 
   504  049C                     	;# 
   505  049D                     	;# 
   506  049E                     	;# 
   507  049F                     	;# 
   508  0511                     	;# 
   509  0515                     	;# 
   510  0617                     	;# 
   511  0618                     	;# 
   512  0619                     	;# 
   513  0619                     	;# 
   514  061A                     	;# 
   515  061B                     	;# 
   516  061C                     	;# 
   517  061C                     	;# 
   518  0691                     	;# 
   519  0692                     	;# 
   520  0693                     	;# 
   521  0694                     	;# 
   522  0695                     	;# 
   523  0696                     	;# 
   524  0697                     	;# 
   525  0698                     	;# 
   526  0699                     	;# 
   527  069A                     	;# 
   528  069B                     	;# 
   529  069C                     	;# 
   530  069D                     	;# 
   531  069E                     	;# 
   532  069F                     	;# 
   533  0E0F                     	;# 
   534  0E10                     	;# 
   535  0E11                     	;# 
   536  0E12                     	;# 
   537  0E13                     	;# 
   538  0E14                     	;# 
   539  0E15                     	;# 
   540  0E17                     	;# 
   541  0E20                     	;# 
   542  0E21                     	;# 
   543  0E22                     	;# 
   544  0E24                     	;# 
   545  0E25                     	;# 
   546  0E28                     	;# 
   547  0E29                     	;# 
   548  0E2A                     	;# 
   549  0E2B                     	;# 
   550  0E90                     	;# 
   551  0E91                     	;# 
   552  0E92                     	;# 
   553  0E93                     	;# 
   554  0E94                     	;# 
   555  0E95                     	;# 
   556  0E96                     	;# 
   557  0E97                     	;# 
   558  0E98                     	;# 
   559  0E99                     	;# 
   560  0E9A                     	;# 
   561  0E9B                     	;# 
   562  0E9C                     	;# 
   563  0E9D                     	;# 
   564  0E9E                     	;# 
   565  0E9F                     	;# 
   566  0EA0                     	;# 
   567  0EA1                     	;# 
   568  0EA2                     	;# 
   569  0EA3                     	;# 
   570  0EA4                     	;# 
   571  0EA5                     	;# 
   572  0EA6                     	;# 
   573  0EA7                     	;# 
   574  0EA8                     	;# 
   575  0EA9                     	;# 
   576  0EAA                     	;# 
   577  0EAB                     	;# 
   578  0EAC                     	;# 
   579  0EAD                     	;# 
   580  0EAE                     	;# 
   581  0EAF                     	;# 
   582  0EB0                     	;# 
   583  0EB1                     	;# 
   584  0EB2                     	;# 
   585  0F0F                     	;# 
   586  0F10                     	;# 
   587  0F11                     	;# 
   588  0F12                     	;# 
   589  0F13                     	;# 
   590  0F14                     	;# 
   591  0F15                     	;# 
   592  0F16                     	;# 
   593  0F17                     	;# 
   594  0F18                     	;# 
   595  0F19                     	;# 
   596  0F1A                     	;# 
   597  0F1B                     	;# 
   598  0F1C                     	;# 
   599  0F1D                     	;# 
   600  0F1E                     	;# 
   601  0F1F                     	;# 
   602  0F20                     	;# 
   603  0F21                     	;# 
   604  0F22                     	;# 
   605  0F23                     	;# 
   606  0F24                     	;# 
   607  0F25                     	;# 
   608  0F26                     	;# 
   609  0F27                     	;# 
   610  0F28                     	;# 
   611  0F29                     	;# 
   612  0F2A                     	;# 
   613  0F2B                     	;# 
   614  0F2C                     	;# 
   615  0F2D                     	;# 
   616  0F2E                     	;# 
   617  0F2F                     	;# 
   618  0F30                     	;# 
   619  0F31                     	;# 
   620  0F32                     	;# 
   621  0F33                     	;# 
   622  0F34                     	;# 
   623  0F35                     	;# 
   624  0F36                     	;# 
   625  0F37                     	;# 
   626  0FE4                     	;# 
   627  0FE5                     	;# 
   628  0FE6                     	;# 
   629  0FE7                     	;# 
   630  0FE8                     	;# 
   631  0FE9                     	;# 
   632  0FEA                     	;# 
   633  0FEB                     	;# 
   634  0FED                     	;# 
   635  0FEE                     	;# 
   636  0FEF                     	;# 
   637  0000                     	;# 
   638  0001                     	;# 
   639  0002                     	;# 
   640  0003                     	;# 
   641  0004                     	;# 
   642  0005                     	;# 
   643  0006                     	;# 
   644  0007                     	;# 
   645  0008                     	;# 
   646  0009                     	;# 
   647  000A                     	;# 
   648  000B                     	;# 
   649  000C                     	;# 
   650  000D                     	;# 
   651  000E                     	;# 
   652  000F                     	;# 
   653  0010                     	;# 
   654  0011                     	;# 
   655  0012                     	;# 
   656  0013                     	;# 
   657  0015                     	;# 
   658  0016                     	;# 
   659  0016                     	;# 
   660  0017                     	;# 
   661  0018                     	;# 
   662  0019                     	;# 
   663  001A                     	;# 
   664  001B                     	;# 
   665  001C                     	;# 
   666  008C                     	;# 
   667  008D                     	;# 
   668  008E                     	;# 
   669  008F                     	;# 
   670  0090                     	;# 
   671  0091                     	;# 
   672  0092                     	;# 
   673  0093                     	;# 
   674  0095                     	;# 
   675  0096                     	;# 
   676  0097                     	;# 
   677  0098                     	;# 
   678  0099                     	;# 
   679  009A                     	;# 
   680  009B                     	;# 
   681  009B                     	;# 
   682  009C                     	;# 
   683  009D                     	;# 
   684  009E                     	;# 
   685  009F                     	;# 
   686  010C                     	;# 
   687  010D                     	;# 
   688  010E                     	;# 
   689  010F                     	;# 
   690  0110                     	;# 
   691  0111                     	;# 
   692  0112                     	;# 
   693  0113                     	;# 
   694  0114                     	;# 
   695  0115                     	;# 
   696  0116                     	;# 
   697  0117                     	;# 
   698  0118                     	;# 
   699  0119                     	;# 
   700  011A                     	;# 
   701  011B                     	;# 
   702  011B                     	;# 
   703  011C                     	;# 
   704  018C                     	;# 
   705  018D                     	;# 
   706  018E                     	;# 
   707  018F                     	;# 
   708  0190                     	;# 
   709  0191                     	;# 
   710  0191                     	;# 
   711  0192                     	;# 
   712  0193                     	;# 
   713  0193                     	;# 
   714  0194                     	;# 
   715  0195                     	;# 
   716  0196                     	;# 
   717  0197                     	;# 
   718  0199                     	;# 
   719  0199                     	;# 
   720  0199                     	;# 
   721  019A                     	;# 
   722  019A                     	;# 
   723  019A                     	;# 
   724  019B                     	;# 
   725  019B                     	;# 
   726  019B                     	;# 
   727  019B                     	;# 
   728  019B                     	;# 
   729  019C                     	;# 
   730  019C                     	;# 
   731  019C                     	;# 
   732  019D                     	;# 
   733  019D                     	;# 
   734  019D                     	;# 
   735  019E                     	;# 
   736  019E                     	;# 
   737  019E                     	;# 
   738  019F                     	;# 
   739  019F                     	;# 
   740  019F                     	;# 
   741  019F                     	;# 
   742  019F                     	;# 
   743  020C                     	;# 
   744  020D                     	;# 
   745  020E                     	;# 
   746  020F                     	;# 
   747  0210                     	;# 
   748  0211                     	;# 
   749  0211                     	;# 
   750  0212                     	;# 
   751  0212                     	;# 
   752  0213                     	;# 
   753  0213                     	;# 
   754  0214                     	;# 
   755  0214                     	;# 
   756  0215                     	;# 
   757  0215                     	;# 
   758  0215                     	;# 
   759  0215                     	;# 
   760  0216                     	;# 
   761  0216                     	;# 
   762  0217                     	;# 
   763  0217                     	;# 
   764  028C                     	;# 
   765  028D                     	;# 
   766  028E                     	;# 
   767  028F                     	;# 
   768  0290                     	;# 
   769  0291                     	;# 
   770  0291                     	;# 
   771  0292                     	;# 
   772  0293                     	;# 
   773  0293                     	;# 
   774  0298                     	;# 
   775  0298                     	;# 
   776  0299                     	;# 
   777  029A                     	;# 
   778  029A                     	;# 
   779  029E                     	;# 
   780  030C                     	;# 
   781  030D                     	;# 
   782  030E                     	;# 
   783  030F                     	;# 
   784  0310                     	;# 
   785  038C                     	;# 
   786  038D                     	;# 
   787  038E                     	;# 
   788  038F                     	;# 
   789  0390                     	;# 
   790  0391                     	;# 
   791  0392                     	;# 
   792  0393                     	;# 
   793  0394                     	;# 
   794  0395                     	;# 
   795  0396                     	;# 
   796  0397                     	;# 
   797  0398                     	;# 
   798  0399                     	;# 
   799  039D                     	;# 
   800  039E                     	;# 
   801  039F                     	;# 
   802  0415                     	;# 
   803  0416                     	;# 
   804  0417                     	;# 
   805  041C                     	;# 
   806  041D                     	;# 
   807  041E                     	;# 
   808  0498                     	;# 
   809  0498                     	;# 
   810  0499                     	;# 
   811  049A                     	;# 
   812  049B                     	;# 
   813  049B                     	;# 
   814  049C                     	;# 
   815  049D                     	;# 
   816  049E                     	;# 
   817  049F                     	;# 
   818  0511                     	;# 
   819  0515                     	;# 
   820  0617                     	;# 
   821  0618                     	;# 
   822  0619                     	;# 
   823  0619                     	;# 
   824  061A                     	;# 
   825  061B                     	;# 
   826  061C                     	;# 
   827  061C                     	;# 
   828  0691                     	;# 
   829  0692                     	;# 
   830  0693                     	;# 
   831  0694                     	;# 
   832  0695                     	;# 
   833  0696                     	;# 
   834  0697                     	;# 
   835  0698                     	;# 
   836  0699                     	;# 
   837  069A                     	;# 
   838  069B                     	;# 
   839  069C                     	;# 
   840  069D                     	;# 
   841  069E                     	;# 
   842  069F                     	;# 
   843  0E0F                     	;# 
   844  0E10                     	;# 
   845  0E11                     	;# 
   846  0E12                     	;# 
   847  0E13                     	;# 
   848  0E14                     	;# 
   849  0E15                     	;# 
   850  0E17                     	;# 
   851  0E20                     	;# 
   852  0E21                     	;# 
   853  0E22                     	;# 
   854  0E24                     	;# 
   855  0E25                     	;# 
   856  0E28                     	;# 
   857  0E29                     	;# 
   858  0E2A                     	;# 
   859  0E2B                     	;# 
   860  0E90                     	;# 
   861  0E91                     	;# 
   862  0E92                     	;# 
   863  0E93                     	;# 
   864  0E94                     	;# 
   865  0E95                     	;# 
   866  0E96                     	;# 
   867  0E97                     	;# 
   868  0E98                     	;# 
   869  0E99                     	;# 
   870  0E9A                     	;# 
   871  0E9B                     	;# 
   872  0E9C                     	;# 
   873  0E9D                     	;# 
   874  0E9E                     	;# 
   875  0E9F                     	;# 
   876  0EA0                     	;# 
   877  0EA1                     	;# 
   878  0EA2                     	;# 
   879  0EA3                     	;# 
   880  0EA4                     	;# 
   881  0EA5                     	;# 
   882  0EA6                     	;# 
   883  0EA7                     	;# 
   884  0EA8                     	;# 
   885  0EA9                     	;# 
   886  0EAA                     	;# 
   887  0EAB                     	;# 
   888  0EAC                     	;# 
   889  0EAD                     	;# 
   890  0EAE                     	;# 
   891  0EAF                     	;# 
   892  0EB0                     	;# 
   893  0EB1                     	;# 
   894  0EB2                     	;# 
   895  0F0F                     	;# 
   896  0F10                     	;# 
   897  0F11                     	;# 
   898  0F12                     	;# 
   899  0F13                     	;# 
   900  0F14                     	;# 
   901  0F15                     	;# 
   902  0F16                     	;# 
   903  0F17                     	;# 
   904  0F18                     	;# 
   905  0F19                     	;# 
   906  0F1A                     	;# 
   907  0F1B                     	;# 
   908  0F1C                     	;# 
   909  0F1D                     	;# 
   910  0F1E                     	;# 
   911  0F1F                     	;# 
   912  0F20                     	;# 
   913  0F21                     	;# 
   914  0F22                     	;# 
   915  0F23                     	;# 
   916  0F24                     	;# 
   917  0F25                     	;# 
   918  0F26                     	;# 
   919  0F27                     	;# 
   920  0F28                     	;# 
   921  0F29                     	;# 
   922  0F2A                     	;# 
   923  0F2B                     	;# 
   924  0F2C                     	;# 
   925  0F2D                     	;# 
   926  0F2E                     	;# 
   927  0F2F                     	;# 
   928  0F30                     	;# 
   929  0F31                     	;# 
   930  0F32                     	;# 
   931  0F33                     	;# 
   932  0F34                     	;# 
   933  0F35                     	;# 
   934  0F36                     	;# 
   935  0F37                     	;# 
   936  0FE4                     	;# 
   937  0FE5                     	;# 
   938  0FE6                     	;# 
   939  0FE7                     	;# 
   940  0FE8                     	;# 
   941  0FE9                     	;# 
   942  0FEA                     	;# 
   943  0FEB                     	;# 
   944  0FED                     	;# 
   945  0FEE                     	;# 
   946  0FEF                     	;# 
   947                           
   948                           	psect	stringtext
   949  0800                     __pstringtext:	
   950  0800                     _dpowers:	
   951  0800  3401               	retlw	1
   952  0801  3400               	retlw	0
   953  0802  3400               	retlw	0
   954  0803  3400               	retlw	0
   955  0804  340A               	retlw	10
   956  0805  3400               	retlw	0
   957  0806  3400               	retlw	0
   958  0807  3400               	retlw	0
   959  0808  3464               	retlw	100
   960  0809  3400               	retlw	0
   961  080A  3400               	retlw	0
   962  080B  3400               	retlw	0
   963  080C  34E8               	retlw	232
   964  080D  3403               	retlw	3
   965  080E  3400               	retlw	0
   966  080F  3400               	retlw	0
   967  0810  3410               	retlw	16
   968  0811  3427               	retlw	39
   969  0812  3400               	retlw	0
   970  0813  3400               	retlw	0
   971  0814  34A0               	retlw	160
   972  0815  3486               	retlw	134
   973  0816  3401               	retlw	1
   974  0817  3400               	retlw	0
   975  0818  3440               	retlw	64
   976  0819  3442               	retlw	66
   977  081A  340F               	retlw	15
   978  081B  3400               	retlw	0
   979  081C  3480               	retlw	128
   980  081D  3496               	retlw	150
   981  081E  3498               	retlw	152
   982  081F  3400               	retlw	0
   983  0820  3400               	retlw	0
   984  0821  34E1               	retlw	225
   985  0822  34F5               	retlw	245
   986  0823  3405               	retlw	5
   987  0824  3400               	retlw	0
   988  0825  34CA               	retlw	202
   989  0826  349A               	retlw	154
   990  0827  343B               	retlw	59
   991  0828                     __end_of_dpowers:	
   992  007A                     _RD2	set	122
   993  007B                     _RD3	set	123
   994  007C                     _RD4	set	124
   995  007D                     _RD5	set	125
   996  007E                     _RD6	set	126
   997  007F                     _RD7	set	127
   998  008D                     _TRISBbits	set	141
   999  008F                     _TRISD	set	143
  1000  008F                     _TRISDbits	set	143
  1001  04CB                     _IRCF0	set	1227
  1002  04CC                     _IRCF1	set	1228
  1003  04CD                     _IRCF2	set	1229
  1004  04CE                     _IRCF3	set	1230
  1005  04C8                     _SCS0	set	1224
  1006  04C9                     _SCS1	set	1225
  1007  04CF                     _SPLLEN	set	1231
  1008  010F                     _LATDbits	set	271
  1009  018F                     _ANSELD	set	399
  1010  0293                     _CCP1CONbits	set	659
  1011  0291                     _CCPR1L	set	657
  1012  029E                     _CCPTMRSbits	set	670
  1013  041D                     _PR6	set	1053
  1014  041E                     _T6CONbits	set	1054
  1015  0E0F                     _PPSLOCK	set	3599
  1016  0E0F                     _PPSLOCKbits	set	3599
  1017  0E98                     _RB0PPSbits	set	3736
  1018  0828                     STR_1:	
  1019  0828  3425               	retlw	37	;'%'
  1020  0829  346C               	retlw	108	;'l'
  1021  082A  3475               	retlw	117	;'u'
  1022  082B  342E               	retlw	46	;'.'
  1023  082C  3425               	retlw	37	;'%'
  1024  082D  3436               	retlw	54	;'6'
  1025  082E  342E               	retlw	46	;'.'
  1026  082F  3436               	retlw	54	;'6'
  1027  0830  346C               	retlw	108	;'l'
  1028  0831  3475               	retlw	117	;'u'
  1029  0832  3400               	retlw	0
  1030                           
  1031                           ; #config settings
  1032  0000                     
  1033                           	psect	cinit
  1034  07F6                     start_initialization:	
  1035  07F6                     __initialization:	
  1036                           
  1037                           ; Clear objects allocated to BANK0
  1038  07F6  3020               	movlw	low __pbssBANK0
  1039  07F7  0084               	movwf	4
  1040  07F8  3000               	movlw	high __pbssBANK0
  1041  07F9  0085               	movwf	5
  1042  07FA  3011               	movlw	17
  1043  07FB  3187  2723         	fcall	clear_ram0
  1044  07FD                     end_of_initialization:	
  1045                           ;End of C runtime variable initialization code
  1046                           
  1047  07FD                     __end_of__initialization:	
  1048  07FD  0020               	movlb	0
  1049  07FE  3187  2F29         	ljmp	_main	;jump to C main() function
  1050                           
  1051                           	psect	bssBANK0
  1052  0020                     __pbssBANK0:	
  1053  0020                     ftoa@buf:	
  1054  0020                     	ds	17
  1055                           
  1056                           	psect	clrtext
  1057  0723                     clear_ram0:	
  1058                           ;	Called with FSR0 containing the base address, and
  1059                           ;	WREG with the size to clear
  1060                           
  1061  0723  0064               	clrwdt	;clear the watchdog before getting into this loop
  1062  0724                     clrloop0:	
  1063  0724  0180               	clrf	0	;clear RAM location pointed to by FSR
  1064  0725  3101               	addfsr 0,1
  1065  0726  0B89               	decfsz	9,f	;Have we reached the end of clearing yet?
  1066  0727  2F24               	goto	clrloop0	;have we reached the end yet?
  1067  0728  3400               	retlw	0	;all done for this memory range, return
  1068                           
  1069                           	psect	cstackCOMMON
  1070  0070                     __pcstackCOMMON:	
  1071  0070                     ?_internal_16:	
  1072  0070                     ??_internal_16:	
  1073                           ; 1 bytes @ 0x0
  1074                           
  1075  0070                     ?_Lcd_Port:	
  1076                           ; 1 bytes @ 0x0
  1077                           
  1078  0070                     ??_Lcd_Port:	
  1079                           ; 1 bytes @ 0x0
  1080                           
  1081  0070                     ?_Lcd_Cmd:	
  1082                           ; 1 bytes @ 0x0
  1083                           
  1084  0070                     ?_Lcd_Clear:	
  1085                           ; 1 bytes @ 0x0
  1086                           
  1087  0070                     ?_Lcd_Init:	
  1088                           ; 1 bytes @ 0x0
  1089                           
  1090  0070                     ?_initMain:	
  1091                           ; 1 bytes @ 0x0
  1092                           
  1093  0070                     ?_main:	
  1094                           ; 1 bytes @ 0x0
  1095                           
  1096  0070                     Lcd_Port@a:	
  1097                           ; 1 bytes @ 0x0
  1098                           
  1099                           
  1100                           ; 1 bytes @ 0x0
  1101  0070                     	ds	1
  1102  0071                     ??_Lcd_Cmd:	
  1103                           
  1104                           ; 1 bytes @ 0x1
  1105  0071                     	ds	2
  1106  0073                     Lcd_Cmd@a:	
  1107                           
  1108                           ; 1 bytes @ 0x3
  1109  0073                     	ds	1
  1110  0074                     ??_Lcd_Clear:	
  1111  0074                     ??_Lcd_Init:	
  1112                           ; 1 bytes @ 0x4
  1113                           
  1114                           
  1115                           ; 1 bytes @ 0x4
  1116  0074                     	ds	2
  1117  0076                     ??_initMain:	
  1118                           
  1119                           ; 1 bytes @ 0x6
  1120  0076                     	ds	3
  1121  0079                     ??_main:	
  1122                           
  1123                           	psect	maintext
  1124  0729                     __pmaintext:	
  1125                           ; 1 bytes @ 0x9
  1126 ;;
  1127 ;;Main: autosize = 0, tempsize = 0, incstack = 0, save=0
  1128 ;;
  1129 ;; *************** function _main *****************
  1130 ;; Defined at:
  1131 ;;		line 125 in file "Main.c"
  1132 ;; Parameters:    Size  Location     Type
  1133 ;;		None
  1134 ;; Auto vars:     Size  Location     Type
  1135 ;;		None
  1136 ;; Return value:  Size  Location     Type
  1137 ;;                  1    wreg      void 
  1138 ;; Registers used:
  1139 ;;		wreg, status,2, status,0, pclath, cstack
  1140 ;; Tracked objects:
  1141 ;;		On entry : B1F/0
  1142 ;;		On exit  : 0/0
  1143 ;;		Unchanged: 0/0
  1144 ;; Data sizes:     COMMON   BANK0   BANK1   BANK2   BANK3   BANK4   BANK5   BANK6   BANK7   BANK8   BANK9  BANK10  BANK1
      +1  BANK12
  1145 ;;      Params:         0       0       0       0       0       0       0       0       0       0       0       0       
      +0       0
  1146 ;;      Locals:         0       0       0       0       0       0       0       0       0       0       0       0       
      +0       0
  1147 ;;      Temps:          0       0       0       0       0       0       0       0       0       0       0       0       
      +0       0
  1148 ;;      Totals:         0       0       0       0       0       0       0       0       0       0       0       0       
      +0       0
  1149 ;;Total ram usage:        0 bytes
  1150 ;; Hardware stack levels required when called:    4
  1151 ;; This function calls:
  1152 ;;		_initMain
  1153 ;; This function is called by:
  1154 ;;		Startup code after reset
  1155 ;; This function uses a non-reentrant model
  1156 ;;
  1157                           
  1158                           
  1159                           ;psect for function _main
  1160  0729                     _main:	
  1161                           
  1162                           ;Main.c: 126: initMain();
  1163                           
  1164                           ;incstack = 0
  1165                           ; Regs used in _main: [wreg+status,2+status,0+pclath+cstack]
  1166  0729  3187  276E  3187   	fcall	_initMain
  1167  072C                     l754:	
  1168                           ;Main.c: 128: while(1){
  1169                           
  1170                           
  1171                           ;Main.c: 130: CCPR1L = 127;
  1172  072C  307F               	movlw	127
  1173  072D  0025               	movlb	5	; select bank5
  1174  072E  0091               	movwf	17	;volatile
  1175  072F  2F2C               	goto	l754
  1176  0730                     __end_of_main:	
  1177                           ;Main.c: 131: }
  1178                           ;Main.c: 133: return;
  1179                           
  1180                           
  1181                           	psect	text1
  1182  076E                     __ptext1:	
  1183 ;; *************** function _initMain *****************
  1184 ;; Defined at:
  1185 ;;		line 48 in file "Main.c"
  1186 ;; Parameters:    Size  Location     Type
  1187 ;;		None
  1188 ;; Auto vars:     Size  Location     Type
  1189 ;;		None
  1190 ;; Return value:  Size  Location     Type
  1191 ;;                  1    wreg      void 
  1192 ;; Registers used:
  1193 ;;		wreg, status,2, status,0, pclath, cstack
  1194 ;; Tracked objects:
  1195 ;;		On entry : 0/0
  1196 ;;		On exit  : 0/0
  1197 ;;		Unchanged: 0/0
  1198 ;; Data sizes:     COMMON   BANK0   BANK1   BANK2   BANK3   BANK4   BANK5   BANK6   BANK7   BANK8   BANK9  BANK10  BANK1
      +1  BANK12
  1199 ;;      Params:         0       0       0       0       0       0       0       0       0       0       0       0       
      +0       0
  1200 ;;      Locals:         0       0       0       0       0       0       0       0       0       0       0       0       
      +0       0
  1201 ;;      Temps:          3       0       0       0       0       0       0       0       0       0       0       0       
      +0       0
  1202 ;;      Totals:         3       0       0       0       0       0       0       0       0       0       0       0       
      +0       0
  1203 ;;Total ram usage:        3 bytes
  1204 ;; Hardware stack levels used:    1
  1205 ;; Hardware stack levels required when called:    3
  1206 ;; This function calls:
  1207 ;;		_Lcd_Clear
  1208 ;;		_Lcd_Init
  1209 ;;		_internal_16
  1210 ;; This function is called by:
  1211 ;;		_main
  1212 ;; This function uses a non-reentrant model
  1213 ;;
  1214                           
  1215                           
  1216                           ;psect for function _initMain
  1217  076E                     _initMain:	
  1218                           
  1219                           ;Main.c: 50: internal_16();
  1220                           
  1221                           ;incstack = 0
  1222                           ; Regs used in _initMain: [wreg+status,2+status,0+pclath+cstack]
  1223  076E  3187  2738  3187   	fcall	_internal_16
  1224                           
  1225                           ;Main.c: 53: TRISDbits.TRISD1 = 0;
  1226  0771  0021               	movlb	1	; select bank1
  1227  0772  108F               	bcf	15,1	;volatile
  1228                           
  1229                           ;Main.c: 56: LATDbits.LATD1 = 0;
  1230  0773  0022               	movlb	2	; select bank2
  1231  0774  108F               	bcf	15,1	;volatile
  1232                           
  1233                           ;Main.c: 59: TRISD = 0;
  1234  0775  0021               	movlb	1	; select bank1
  1235  0776  018F               	clrf	15	;volatile
  1236                           
  1237                           ;Main.c: 60: ANSELD = 0;
  1238  0777  0023               	movlb	3	; select bank3
  1239  0778  018F               	clrf	15	;volatile
  1240                           
  1241                           ;Main.c: 63: TRISBbits.TRISB0 = 0;
  1242  0779  0021               	movlb	1	; select bank1
  1243  077A  100D               	bcf	13,0	;volatile
  1244                           
  1245                           ;Main.c: 70: CCPTMRSbits.C1TSEL = 0b10;
  1246  077B  0025               	movlb	5	; select bank5
  1247  077C  081E               	movf	30,w	;volatile
  1248  077D  39FC               	andlw	-4
  1249  077E  3802               	iorlw	2
  1250  077F  009E               	movwf	30	;volatile
  1251                           
  1252                           ;Main.c: 84: T6CONbits.T6CKPS = 0b00;
  1253  0780  30FC               	movlw	-4
  1254  0781  0028               	movlb	8	; select bank8
  1255  0782  059E               	andwf	30,f	;volatile
  1256                           
  1257                           ;Main.c: 87: T6CONbits.TMR6ON = 1;
  1258  0783  151E               	bsf	30,2	;volatile
  1259                           
  1260                           ;Main.c: 90: PR6 = 255;
  1261  0784  30FF               	movlw	255
  1262  0785  009D               	movwf	29	;volatile
  1263                           
  1264                           ;Main.c: 95: CCP1CONbits.DC1B = 00;
  1265  0786  30CF               	movlw	-49
  1266  0787  0025               	movlb	5	; select bank5
  1267  0788  0593               	andwf	19,f	;volatile
  1268                           
  1269                           ;Main.c: 98: CCP1CONbits.CCP1M = 0b1100;
  1270  0789  0813               	movf	19,w	;volatile
  1271  078A  39F0               	andlw	-16
  1272  078B  380C               	iorlw	12
  1273  078C  0093               	movwf	19	;volatile
  1274                           
  1275                           ;Main.c: 100: PPSLOCK = 0x55;
  1276  078D  3055               	movlw	85
  1277  078E  003C               	movlb	28	; select bank28
  1278  078F  008F               	movwf	15	;volatile
  1279                           
  1280                           ;Main.c: 101: PPSLOCK = 0xAA;
  1281  0790  30AA               	movlw	170
  1282  0791  008F               	movwf	15	;volatile
  1283                           
  1284                           ;Main.c: 102: PPSLOCKbits.PPSLOCKED = 0x00;
  1285  0792  100F               	bcf	15,0	;volatile
  1286                           
  1287                           ;Main.c: 105: RB0PPSbits.RB0PPS = 0b01100;
  1288  0793  003D               	movlb	29	; select bank29
  1289  0794  0818               	movf	24,w	;volatile
  1290  0795  39E0               	andlw	-32
  1291  0796  380C               	iorlw	12
  1292  0797  0098               	movwf	24	;volatile
  1293                           
  1294                           ;Main.c: 107: PPSLOCK = 0x55;
  1295  0798  3055               	movlw	85
  1296  0799  003C               	movlb	28	; select bank28
  1297  079A  008F               	movwf	15	;volatile
  1298                           
  1299                           ;Main.c: 108: PPSLOCK = 0xAA;
  1300  079B  30AA               	movlw	170
  1301  079C  008F               	movwf	15	;volatile
  1302                           
  1303                           ;Main.c: 109: PPSLOCKbits.PPSLOCKED = 0x01;
  1304  079D  140F               	bsf	15,0	;volatile
  1305                           
  1306                           ;Main.c: 112: Lcd_Init();
  1307  079E  3187  27B0  3187   	fcall	_Lcd_Init
  1308                           
  1309                           ;Main.c: 113: _delay((unsigned long)((100)*(16000000/4000.0)));
  1310  07A1  3003               	movlw	3
  1311  07A2  00F8               	movwf	??_initMain+2
  1312  07A3  3008               	movlw	8
  1313  07A4  00F7               	movwf	??_initMain+1
  1314  07A5  3078               	movlw	120
  1315  07A6  00F6               	movwf	??_initMain
  1316  07A7                     u117:	
  1317  07A7  0BF6               	decfsz	??_initMain,f
  1318  07A8  2FA7               	goto	u117
  1319  07A9  0BF7               	decfsz	??_initMain+1,f
  1320  07AA  2FA7               	goto	u117
  1321  07AB  0BF8               	decfsz	??_initMain+2,f
  1322  07AC  2FA7               	goto	u117
  1323                           
  1324                           ;Main.c: 114: Lcd_Clear();
  1325  07AD  3187  2730         	fcall	_Lcd_Clear
  1326  07AF  0008               	return
  1327  07B0                     __end_of_initMain:	
  1328                           
  1329                           	psect	text2
  1330  0738                     __ptext2:	
  1331 ;; *************** function _internal_16 *****************
  1332 ;; Defined at:
  1333 ;;		line 56 in file "16F1717_Internal.c"
  1334 ;; Parameters:    Size  Location     Type
  1335 ;;		None
  1336 ;; Auto vars:     Size  Location     Type
  1337 ;;		None
  1338 ;; Return value:  Size  Location     Type
  1339 ;;                  1    wreg      void 
  1340 ;; Registers used:
  1341 ;;		None
  1342 ;; Tracked objects:
  1343 ;;		On entry : 0/0
  1344 ;;		On exit  : 0/0
  1345 ;;		Unchanged: 0/0
  1346 ;; Data sizes:     COMMON   BANK0   BANK1   BANK2   BANK3   BANK4   BANK5   BANK6   BANK7   BANK8   BANK9  BANK10  BANK1
      +1  BANK12
  1347 ;;      Params:         0       0       0       0       0       0       0       0       0       0       0       0       
      +0       0
  1348 ;;      Locals:         0       0       0       0       0       0       0       0       0       0       0       0       
      +0       0
  1349 ;;      Temps:          0       0       0       0       0       0       0       0       0       0       0       0       
      +0       0
  1350 ;;      Totals:         0       0       0       0       0       0       0       0       0       0       0       0       
      +0       0
  1351 ;;Total ram usage:        0 bytes
  1352 ;; Hardware stack levels used:    1
  1353 ;; This function calls:
  1354 ;;		Nothing
  1355 ;; This function is called by:
  1356 ;;		_initMain
  1357 ;; This function uses a non-reentrant model
  1358 ;;
  1359                           
  1360                           
  1361                           ;psect for function _internal_16
  1362  0738                     _internal_16:	
  1363                           
  1364                           ;16F1717_Internal.c: 58: SCS0 = 0;
  1365                           
  1366                           ;incstack = 0
  1367                           ; Regs used in _internal_16: []
  1368  0738  0021               	movlb	1	; select bank1
  1369  0739  1019               	bcf	25,0	;volatile
  1370                           
  1371                           ;16F1717_Internal.c: 59: SCS1 = 0;
  1372  073A  1099               	bcf	25,1	;volatile
  1373                           
  1374                           ;16F1717_Internal.c: 62: IRCF0 = 1;
  1375  073B  1599               	bsf	25,3	;volatile
  1376                           
  1377                           ;16F1717_Internal.c: 63: IRCF1 = 1;
  1378  073C  1619               	bsf	25,4	;volatile
  1379                           
  1380                           ;16F1717_Internal.c: 64: IRCF2 = 1;
  1381  073D  1699               	bsf	25,5	;volatile
  1382                           
  1383                           ;16F1717_Internal.c: 65: IRCF3 = 1;
  1384  073E  1719               	bsf	25,6	;volatile
  1385                           
  1386                           ;16F1717_Internal.c: 68: SPLLEN = 0;
  1387  073F  1399               	bcf	25,7	;volatile
  1388  0740  0008               	return
  1389  0741                     __end_of_internal_16:	
  1390                           
  1391                           	psect	text3
  1392  07B0                     __ptext3:	
  1393 ;; *************** function _Lcd_Init *****************
  1394 ;; Defined at:
  1395 ;;		line 119 in file "LCD.c"
  1396 ;; Parameters:    Size  Location     Type
  1397 ;;		None
  1398 ;; Auto vars:     Size  Location     Type
  1399 ;;		None
  1400 ;; Return value:  Size  Location     Type
  1401 ;;                  1    wreg      void 
  1402 ;; Registers used:
  1403 ;;		wreg, status,2, status,0, pclath, cstack
  1404 ;; Tracked objects:
  1405 ;;		On entry : 0/0
  1406 ;;		On exit  : 0/0
  1407 ;;		Unchanged: 0/0
  1408 ;; Data sizes:     COMMON   BANK0   BANK1   BANK2   BANK3   BANK4   BANK5   BANK6   BANK7   BANK8   BANK9  BANK10  BANK1
      +1  BANK12
  1409 ;;      Params:         0       0       0       0       0       0       0       0       0       0       0       0       
      +0       0
  1410 ;;      Locals:         0       0       0       0       0       0       0       0       0       0       0       0       
      +0       0
  1411 ;;      Temps:          2       0       0       0       0       0       0       0       0       0       0       0       
      +0       0
  1412 ;;      Totals:         2       0       0       0       0       0       0       0       0       0       0       0       
      +0       0
  1413 ;;Total ram usage:        2 bytes
  1414 ;; Hardware stack levels used:    1
  1415 ;; Hardware stack levels required when called:    2
  1416 ;; This function calls:
  1417 ;;		_Lcd_Cmd
  1418 ;;		_Lcd_Port
  1419 ;; This function is called by:
  1420 ;;		_initMain
  1421 ;; This function uses a non-reentrant model
  1422 ;;
  1423                           
  1424                           
  1425                           ;psect for function _Lcd_Init
  1426  07B0                     _Lcd_Init:	
  1427                           
  1428                           ;LCD.c: 121: Lcd_Port(0x00);
  1429                           
  1430                           ;incstack = 0
  1431                           ; Regs used in _Lcd_Init: [wreg+status,2+status,0+pclath+cstack]
  1432  07B0  3000               	movlw	0
  1433  07B1  3187  2756  3187   	fcall	_Lcd_Port
  1434                           
  1435                           ;LCD.c: 122: _delay((unsigned long)((20)*(16000000/4000.0)));
  1436  07B4  3068               	movlw	104
  1437  07B5  00F5               	movwf	??_Lcd_Init+1
  1438  07B6  30E4               	movlw	228
  1439  07B7  00F4               	movwf	??_Lcd_Init
  1440  07B8                     u127:	
  1441  07B8  0BF4               	decfsz	??_Lcd_Init,f
  1442  07B9  2FB8               	goto	u127
  1443  07BA  0BF5               	decfsz	??_Lcd_Init+1,f
  1444  07BB  2FB8               	goto	u127
  1445  07BC  0000               	nop
  1446                           
  1447                           ;LCD.c: 123: Lcd_Cmd(0x03);
  1448  07BD  3003               	movlw	3
  1449  07BE  3187  2741  3187   	fcall	_Lcd_Cmd
  1450                           
  1451                           ;LCD.c: 124: _delay((unsigned long)((5)*(16000000/4000.0)));
  1452  07C1  301A               	movlw	26
  1453  07C2  00F5               	movwf	??_Lcd_Init+1
  1454  07C3  30F8               	movlw	248
  1455  07C4  00F4               	movwf	??_Lcd_Init
  1456  07C5                     u137:	
  1457  07C5  0BF4               	decfsz	??_Lcd_Init,f
  1458  07C6  2FC5               	goto	u137
  1459  07C7  0BF5               	decfsz	??_Lcd_Init+1,f
  1460  07C8  2FC5               	goto	u137
  1461  07C9  0000               	nop
  1462                           
  1463                           ;LCD.c: 125: Lcd_Cmd(0x03);
  1464  07CA  3003               	movlw	3
  1465  07CB  3187  2741  3187   	fcall	_Lcd_Cmd
  1466                           
  1467                           ;LCD.c: 126: _delay((unsigned long)((11)*(16000000/4000.0)));
  1468  07CE  303A               	movlw	58
  1469  07CF  00F5               	movwf	??_Lcd_Init+1
  1470  07D0  3023               	movlw	35
  1471  07D1  00F4               	movwf	??_Lcd_Init
  1472  07D2                     u147:	
  1473  07D2  0BF4               	decfsz	??_Lcd_Init,f
  1474  07D3  2FD2               	goto	u147
  1475  07D4  0BF5               	decfsz	??_Lcd_Init+1,f
  1476  07D5  2FD2               	goto	u147
  1477                           
  1478                           ;LCD.c: 127: Lcd_Cmd(0x03);
  1479  07D6  3003               	movlw	3
  1480  07D7  3187  2741  3187   	fcall	_Lcd_Cmd
  1481                           
  1482                           ;LCD.c: 129: Lcd_Cmd(0x02);
  1483  07DA  3002               	movlw	2
  1484  07DB  3187  2741  3187   	fcall	_Lcd_Cmd
  1485                           
  1486                           ;LCD.c: 130: Lcd_Cmd(0x02);
  1487  07DE  3002               	movlw	2
  1488  07DF  3187  2741  3187   	fcall	_Lcd_Cmd
  1489                           
  1490                           ;LCD.c: 131: Lcd_Cmd(0x08);
  1491  07E2  3008               	movlw	8
  1492  07E3  3187  2741  3187   	fcall	_Lcd_Cmd
  1493                           
  1494                           ;LCD.c: 132: Lcd_Cmd(0x00);
  1495  07E6  3000               	movlw	0
  1496  07E7  3187  2741  3187   	fcall	_Lcd_Cmd
  1497                           
  1498                           ;LCD.c: 133: Lcd_Cmd(0x0C);
  1499  07EA  300C               	movlw	12
  1500  07EB  3187  2741  3187   	fcall	_Lcd_Cmd
  1501                           
  1502                           ;LCD.c: 134: Lcd_Cmd(0x00);
  1503  07EE  3000               	movlw	0
  1504  07EF  3187  2741  3187   	fcall	_Lcd_Cmd
  1505                           
  1506                           ;LCD.c: 135: Lcd_Cmd(0x06);
  1507  07F2  3006               	movlw	6
  1508  07F3  3187  2741         	fcall	_Lcd_Cmd
  1509  07F5  0008               	return
  1510  07F6                     __end_of_Lcd_Init:	
  1511                           
  1512                           	psect	text4
  1513  0730                     __ptext4:	
  1514 ;; *************** function _Lcd_Clear *****************
  1515 ;; Defined at:
  1516 ;;		line 76 in file "LCD.c"
  1517 ;; Parameters:    Size  Location     Type
  1518 ;;		None
  1519 ;; Auto vars:     Size  Location     Type
  1520 ;;		None
  1521 ;; Return value:  Size  Location     Type
  1522 ;;                  1    wreg      void 
  1523 ;; Registers used:
  1524 ;;		wreg, status,2, status,0, pclath, cstack
  1525 ;; Tracked objects:
  1526 ;;		On entry : 0/0
  1527 ;;		On exit  : 0/0
  1528 ;;		Unchanged: 0/0
  1529 ;; Data sizes:     COMMON   BANK0   BANK1   BANK2   BANK3   BANK4   BANK5   BANK6   BANK7   BANK8   BANK9  BANK10  BANK1
      +1  BANK12
  1530 ;;      Params:         0       0       0       0       0       0       0       0       0       0       0       0       
      +0       0
  1531 ;;      Locals:         0       0       0       0       0       0       0       0       0       0       0       0       
      +0       0
  1532 ;;      Temps:          0       0       0       0       0       0       0       0       0       0       0       0       
      +0       0
  1533 ;;      Totals:         0       0       0       0       0       0       0       0       0       0       0       0       
      +0       0
  1534 ;;Total ram usage:        0 bytes
  1535 ;; Hardware stack levels used:    1
  1536 ;; Hardware stack levels required when called:    2
  1537 ;; This function calls:
  1538 ;;		_Lcd_Cmd
  1539 ;; This function is called by:
  1540 ;;		_initMain
  1541 ;; This function uses a non-reentrant model
  1542 ;;
  1543                           
  1544                           
  1545                           ;psect for function _Lcd_Clear
  1546  0730                     _Lcd_Clear:	
  1547                           
  1548                           ;LCD.c: 78: Lcd_Cmd(0);
  1549                           
  1550                           ;incstack = 0
  1551                           ; Regs used in _Lcd_Clear: [wreg+status,2+status,0+pclath+cstack]
  1552  0730  3000               	movlw	0
  1553  0731  3187  2741  3187   	fcall	_Lcd_Cmd
  1554                           
  1555                           ;LCD.c: 79: Lcd_Cmd(1);
  1556  0734  3001               	movlw	1
  1557  0735  3187  2741         	fcall	_Lcd_Cmd
  1558  0737  0008               	return
  1559  0738                     __end_of_Lcd_Clear:	
  1560                           
  1561                           	psect	text5
  1562  0741                     __ptext5:	
  1563 ;; *************** function _Lcd_Cmd *****************
  1564 ;; Defined at:
  1565 ;;		line 59 in file "LCD.c"
  1566 ;; Parameters:    Size  Location     Type
  1567 ;;  a               1    wreg     unsigned char 
  1568 ;; Auto vars:     Size  Location     Type
  1569 ;;  a               1    3[COMMON] unsigned char 
  1570 ;; Return value:  Size  Location     Type
  1571 ;;                  1    wreg      void 
  1572 ;; Registers used:
  1573 ;;		wreg, status,2, status,0, pclath, cstack
  1574 ;; Tracked objects:
  1575 ;;		On entry : 0/0
  1576 ;;		On exit  : 0/0
  1577 ;;		Unchanged: 0/0
  1578 ;; Data sizes:     COMMON   BANK0   BANK1   BANK2   BANK3   BANK4   BANK5   BANK6   BANK7   BANK8   BANK9  BANK10  BANK1
      +1  BANK12
  1579 ;;      Params:         0       0       0       0       0       0       0       0       0       0       0       0       
      +0       0
  1580 ;;      Locals:         1       0       0       0       0       0       0       0       0       0       0       0       
      +0       0
  1581 ;;      Temps:          2       0       0       0       0       0       0       0       0       0       0       0       
      +0       0
  1582 ;;      Totals:         3       0       0       0       0       0       0       0       0       0       0       0       
      +0       0
  1583 ;;Total ram usage:        3 bytes
  1584 ;; Hardware stack levels used:    1
  1585 ;; Hardware stack levels required when called:    1
  1586 ;; This function calls:
  1587 ;;		_Lcd_Port
  1588 ;; This function is called by:
  1589 ;;		_Lcd_Clear
  1590 ;;		_Lcd_Init
  1591 ;;		_Lcd_Set_Cursor
  1592 ;;		_Lcd_Shift_Right
  1593 ;;		_Lcd_Shift_Left
  1594 ;; This function uses a non-reentrant model
  1595 ;;
  1596                           
  1597                           
  1598                           ;psect for function _Lcd_Cmd
  1599  0741                     _Lcd_Cmd:	
  1600                           
  1601                           ;incstack = 0
  1602                           ; Regs used in _Lcd_Cmd: [wreg+status,2+status,0+pclath+cstack]
  1603                           ;Lcd_Cmd@a stored from wreg
  1604  0741  00F3               	movwf	Lcd_Cmd@a
  1605                           
  1606                           ;LCD.c: 61: RD2 = 0;
  1607  0742  0020               	movlb	0	; select bank0
  1608  0743  110F               	bcf	15,2	;volatile
  1609                           
  1610                           ;LCD.c: 62: Lcd_Port(a);
  1611  0744  0873               	movf	Lcd_Cmd@a,w
  1612  0745  3187  2756  3187   	fcall	_Lcd_Port
  1613                           
  1614                           ;LCD.c: 63: RD3 = 1;
  1615  0748  0020               	movlb	0	; select bank0
  1616  0749  158F               	bsf	15,3	;volatile
  1617                           
  1618                           ;LCD.c: 64: _delay((unsigned long)((4)*(16000000/4000.0)));
  1619  074A  3015               	movlw	21
  1620  074B  00F2               	movwf	??_Lcd_Cmd+1
  1621  074C  30C6               	movlw	198
  1622  074D  00F1               	movwf	??_Lcd_Cmd
  1623  074E                     u157:	
  1624  074E  0BF1               	decfsz	??_Lcd_Cmd,f
  1625  074F  2F4E               	goto	u157
  1626  0750  0BF2               	decfsz	??_Lcd_Cmd+1,f
  1627  0751  2F4E               	goto	u157
  1628  0752  0000               	nop
  1629                           
  1630                           ;LCD.c: 65: RD3 = 0;
  1631  0753  0020               	movlb	0	; select bank0
  1632  0754  118F               	bcf	15,3	;volatile
  1633  0755  0008               	return
  1634  0756                     __end_of_Lcd_Cmd:	
  1635                           
  1636                           	psect	text6
  1637  0756                     __ptext6:	
  1638 ;; *************** function _Lcd_Port *****************
  1639 ;; Defined at:
  1640 ;;		line 28 in file "LCD.c"
  1641 ;; Parameters:    Size  Location     Type
  1642 ;;  a               1    wreg     unsigned char 
  1643 ;; Auto vars:     Size  Location     Type
  1644 ;;  a               1    0[COMMON] unsigned char 
  1645 ;; Return value:  Size  Location     Type
  1646 ;;                  1    wreg      void 
  1647 ;; Registers used:
  1648 ;;		wreg
  1649 ;; Tracked objects:
  1650 ;;		On entry : 0/0
  1651 ;;		On exit  : 0/0
  1652 ;;		Unchanged: 0/0
  1653 ;; Data sizes:     COMMON   BANK0   BANK1   BANK2   BANK3   BANK4   BANK5   BANK6   BANK7   BANK8   BANK9  BANK10  BANK1
      +1  BANK12
  1654 ;;      Params:         0       0       0       0       0       0       0       0       0       0       0       0       
      +0       0
  1655 ;;      Locals:         1       0       0       0       0       0       0       0       0       0       0       0       
      +0       0
  1656 ;;      Temps:          0       0       0       0       0       0       0       0       0       0       0       0       
      +0       0
  1657 ;;      Totals:         1       0       0       0       0       0       0       0       0       0       0       0       
      +0       0
  1658 ;;Total ram usage:        1 bytes
  1659 ;; Hardware stack levels used:    1
  1660 ;; This function calls:
  1661 ;;		Nothing
  1662 ;; This function is called by:
  1663 ;;		_Lcd_Cmd
  1664 ;;		_Lcd_Init
  1665 ;;		_Lcd_Write_Char
  1666 ;; This function uses a non-reentrant model
  1667 ;;
  1668                           
  1669                           
  1670                           ;psect for function _Lcd_Port
  1671  0756                     _Lcd_Port:	
  1672                           
  1673                           ;incstack = 0
  1674                           ; Regs used in _Lcd_Port: [wreg]
  1675                           ;Lcd_Port@a stored from wreg
  1676  0756  00F0               	movwf	Lcd_Port@a
  1677                           
  1678                           ;LCD.c: 30: if(a & 1)
  1679  0757  1C70               	btfss	Lcd_Port@a,0
  1680  0758  2F5C               	goto	l56
  1681                           
  1682                           ;LCD.c: 31: RD4 = 1;
  1683  0759  0020               	movlb	0	; select bank0
  1684  075A  160F               	bsf	15,4	;volatile
  1685  075B  2F5E               	goto	l602
  1686  075C                     l56:	
  1687                           
  1688                           ;LCD.c: 32: else
  1689                           ;LCD.c: 33: RD4 = 0;
  1690  075C  0020               	movlb	0	; select bank0
  1691  075D  120F               	bcf	15,4	;volatile
  1692  075E                     l602:	
  1693                           
  1694                           ;LCD.c: 35: if(a & 2)
  1695  075E  1CF0               	btfss	Lcd_Port@a,1
  1696  075F  2F62               	goto	l58
  1697                           
  1698                           ;LCD.c: 36: RD5 = 1;
  1699  0760  168F               	bsf	15,5	;volatile
  1700  0761  2F63               	goto	l606
  1701  0762                     l58:	
  1702                           
  1703                           ;LCD.c: 37: else
  1704                           ;LCD.c: 38: RD5 = 0;
  1705  0762  128F               	bcf	15,5	;volatile
  1706  0763                     l606:	
  1707                           
  1708                           ;LCD.c: 40: if(a & 4)
  1709  0763  1D70               	btfss	Lcd_Port@a,2
  1710  0764  2F67               	goto	l60
  1711                           
  1712                           ;LCD.c: 41: RD6 = 1;
  1713  0765  170F               	bsf	15,6	;volatile
  1714  0766  2F68               	goto	l610
  1715  0767                     l60:	
  1716                           
  1717                           ;LCD.c: 42: else
  1718                           ;LCD.c: 43: RD6 = 0;
  1719  0767  130F               	bcf	15,6	;volatile
  1720  0768                     l610:	
  1721                           
  1722                           ;LCD.c: 45: if(a & 8)
  1723  0768  1DF0               	btfss	Lcd_Port@a,3
  1724  0769  2F6C               	goto	l62
  1725                           
  1726                           ;LCD.c: 46: RD7 = 1;
  1727  076A  178F               	bsf	15,7	;volatile
  1728  076B  0008               	return
  1729  076C                     l62:	
  1730                           
  1731                           ;LCD.c: 47: else
  1732                           ;LCD.c: 48: RD7 = 0;
  1733  076C  138F               	bcf	15,7	;volatile
  1734  076D  0008               	return
  1735  076E                     __end_of_Lcd_Port:	
  1736  007E                     btemp	set	126	;btemp
  1737  007E                     wtemp	set	126
  1738  007E                     wtemp0	set	126
  1739  0080                     wtemp1	set	128
  1740  0082                     wtemp2	set	130
  1741  0084                     wtemp3	set	132
  1742  0086                     wtemp4	set	134
  1743  0088                     wtemp5	set	136
  1744  007F                     wtemp6	set	127
  1745  007E                     ttemp	set	126
  1746  007E                     ttemp0	set	126
  1747  0081                     ttemp1	set	129
  1748  0084                     ttemp2	set	132
  1749  0087                     ttemp3	set	135
  1750  007F                     ttemp4	set	127
  1751  007E                     ltemp	set	126
  1752  007E                     ltemp0	set	126
  1753  0082                     ltemp1	set	130
  1754  0086                     ltemp2	set	134
  1755  0080                     ltemp3	set	128


Data Sizes:
    Strings     11
    Constant    40
    Data        0
    BSS         17
    Persistent  0
    Stack       0

Auto Spaces:
    Space          Size  Autos    Used
    COMMON           14      9       9
    BANK0            80      0      17
    BANK1            80      0       0
    BANK2            80      0       0
    BANK3            80      0       0
    BANK4            80      0       0
    BANK5            80      0       0
    BANK6            80      0       0
    BANK7            80      0       0
    BANK8            80      0       0
    BANK9            80      0       0
    BANK10           80      0       0
    BANK11           80      0       0
    BANK12           48      0       0

Pointer List with Targets:

    sp__utoa	PTR unsigned char  size(1) Largest target is 8
		 -> Lcd_Write_Integer@buf(COMMON[8]), 

    sp__ftoa	PTR unsigned char  size(1) Largest target is 17
		 -> ftoa@buf(BANK0[17]), 

    sp__itoa	PTR unsigned char  size(1) Largest target is 8
		 -> Lcd_Write_Integer@buf(COMMON[8]), 


Critical Paths under _main in COMMON

    _main->_initMain
    _initMain->_Lcd_Init
    _Lcd_Init->_Lcd_Cmd
    _Lcd_Clear->_Lcd_Cmd
    _Lcd_Cmd->_Lcd_Port

Critical Paths under _main in BANK0

    None.

Critical Paths under _main in BANK1

    None.

Critical Paths under _main in BANK2

    None.

Critical Paths under _main in BANK3

    None.

Critical Paths under _main in BANK4

    None.

Critical Paths under _main in BANK5

    None.

Critical Paths under _main in BANK6

    None.

Critical Paths under _main in BANK7

    None.

Critical Paths under _main in BANK8

    None.

Critical Paths under _main in BANK9

    None.

Critical Paths under _main in BANK10

    None.

Critical Paths under _main in BANK11

    None.

Critical Paths under _main in BANK12

    None.

Call Graph Tables:

 ---------------------------------------------------------------------------------
 (Depth) Function   	        Calls       Base Space   Used Autos Params    Refs
 ---------------------------------------------------------------------------------
 (0) _main                                                 0     0      0     210
                           _initMain
 ---------------------------------------------------------------------------------
 (1) _initMain                                             3     3      0     210
                                              6 COMMON     3     3      0
                          _Lcd_Clear
                           _Lcd_Init
                        _internal_16
 ---------------------------------------------------------------------------------
 (2) _internal_16                                          0     0      0       0
 ---------------------------------------------------------------------------------
 (2) _Lcd_Init                                             2     2      0     135
                                              4 COMMON     2     2      0
                            _Lcd_Cmd
                           _Lcd_Port
 ---------------------------------------------------------------------------------
 (2) _Lcd_Clear                                            0     0      0      75
                            _Lcd_Cmd
 ---------------------------------------------------------------------------------
 (3) _Lcd_Cmd                                              3     3      0      75
                                              1 COMMON     3     3      0
                           _Lcd_Port
 ---------------------------------------------------------------------------------
 (3) _Lcd_Port                                             1     1      0      60
                                              0 COMMON     1     1      0
 ---------------------------------------------------------------------------------
 Estimated maximum stack depth 3
 ---------------------------------------------------------------------------------

 Call Graph Graphs:

 _main (ROOT)
   _initMain
     _Lcd_Clear
       _Lcd_Cmd
         _Lcd_Port
     _Lcd_Init
       _Lcd_Cmd
         _Lcd_Port
       _Lcd_Port
     _internal_16

 Address spaces:
Name               Size   Autos  Total    Cost      Usage
BIGRAM             3F0      0       0       0        0.0%
NULL                 0      0       0       0        0.0%
CODE                 0      0       0       0        0.0%
BITCOMMON            E      0       0       1        0.0%
BITSFR0              0      0       0       1        0.0%
SFR0                 0      0       0       1        0.0%
COMMON               E      9       9       2       64.3%
BITSFR1              0      0       0       2        0.0%
SFR1                 0      0       0       2        0.0%
BITSFR2              0      0       0       3        0.0%
SFR2                 0      0       0       3        0.0%
STACK                0      0       0       3        0.0%
BITBANK0            50      0       0       4        0.0%
BITSFR3              0      0       0       4        0.0%
SFR3                 0      0       0       4        0.0%
BANK0               50      0      11       5       21.3%
BITSFR4              0      0       0       5        0.0%
SFR4                 0      0       0       5        0.0%
BITBANK1            50      0       0       6        0.0%
BITSFR5              0      0       0       6        0.0%
SFR5                 0      0       0       6        0.0%
BANK1               50      0       0       7        0.0%
BITSFR6              0      0       0       7        0.0%
SFR6                 0      0       0       7        0.0%
BITBANK2            50      0       0       8        0.0%
BITSFR7              0      0       0       8        0.0%
SFR7                 0      0       0       8        0.0%
BANK2               50      0       0       9        0.0%
BITSFR8              0      0       0       9        0.0%
SFR8                 0      0       0       9        0.0%
BITBANK3            50      0       0      10        0.0%
BITSFR9              0      0       0      10        0.0%
SFR9                 0      0       0      10        0.0%
BANK3               50      0       0      11        0.0%
BITSFR10             0      0       0      11        0.0%
SFR10                0      0       0      11        0.0%
BITBANK4            50      0       0      12        0.0%
BITSFR11             0      0       0      12        0.0%
SFR11                0      0       0      12        0.0%
BANK4               50      0       0      13        0.0%
BITSFR12             0      0       0      13        0.0%
SFR12                0      0       0      13        0.0%
BITBANK5            50      0       0      14        0.0%
BITSFR13             0      0       0      14        0.0%
SFR13                0      0       0      14        0.0%
BANK5               50      0       0      15        0.0%
BITSFR14             0      0       0      15        0.0%
SFR14                0      0       0      15        0.0%
BITBANK6            50      0       0      16        0.0%
BITSFR15             0      0       0      16        0.0%
SFR15                0      0       0      16        0.0%
BANK6               50      0       0      17        0.0%
BITSFR16             0      0       0      17        0.0%
SFR16                0      0       0      17        0.0%
BITBANK7            50      0       0      18        0.0%
BITSFR17             0      0       0      18        0.0%
SFR17                0      0       0      18        0.0%
BANK7               50      0       0      19        0.0%
BITSFR18             0      0       0      19        0.0%
SFR18                0      0       0      19        0.0%
BITSFR19             0      0       0      20        0.0%
SFR19                0      0       0      20        0.0%
ABS                  0      0      1A      20        0.0%
BITBANK8            50      0       0      21        0.0%
BITSFR20             0      0       0      21        0.0%
SFR20                0      0       0      21        0.0%
BANK8               50      0       0      22        0.0%
BITSFR21             0      0       0      22        0.0%
SFR21                0      0       0      22        0.0%
BITBANK9            50      0       0      23        0.0%
BITSFR22             0      0       0      23        0.0%
SFR22                0      0       0      23        0.0%
BANK9               50      0       0      24        0.0%
BITSFR23             0      0       0      24        0.0%
SFR23                0      0       0      24        0.0%
BITBANK10           50      0       0      25        0.0%
BITSFR24             0      0       0      25        0.0%
SFR24                0      0       0      25        0.0%
BANK10              50      0       0      26        0.0%
BITSFR25             0      0       0      26        0.0%
SFR25                0      0       0      26        0.0%
BITBANK11           50      0       0      27        0.0%
BITSFR26             0      0       0      27        0.0%
SFR26                0      0       0      27        0.0%
BANK11              50      0       0      28        0.0%
BITSFR27             0      0       0      28        0.0%
SFR27                0      0       0      28        0.0%
BITBANK12           30      0       0      29        0.0%
BITSFR28             0      0       0      29        0.0%
SFR28                0      0       0      29        0.0%
BANK12              30      0       0      30        0.0%
BITSFR29             0      0       0      30        0.0%
SFR29                0      0       0      30        0.0%
BITSFR30             0      0       0      31        0.0%
SFR30                0      0       0      31        0.0%
DATA                 0      0      1A      31        0.0%
BITSFR31             0      0       0      32        0.0%
SFR31                0      0       0      32        0.0%


Microchip Technology PIC Macro Assembler V1.38 build -256452561 
Symbol Table                                                                                   Mon Nov 07 13:41:08 2016

            __CFG_CP$OFF 0000                       l60 0767                       l62 076C  
                     l56 075C                       l58 0762                      l610 0768  
                    l602 075E                      l606 0763                      l754 072C  
                    _RD2 007A                      _RD3 007B                      _RD4 007C  
                    _RD5 007D                      _RD6 007E                      _RD7 007F  
                    u117 07A7                      u127 07B8                      u137 07C5  
                    u147 07D2                      u157 074E                      _PR6 041D  
           __CFG_BORV$LO 0000                      wreg 0009             __CFG_IESO$ON 0000  
           __CFG_LVP$OFF 0000                     STR_1 0828                     _SCS0 04C8  
                   _SCS1 04C9             __CFG_WRT$OFF 0000                     _main 0729  
                   fsr0h 0005                     fsr0l 0004                     indf0 0000  
                   btemp 007E                     ltemp 007E                     start 0002  
                   ttemp 007E                     wtemp 007E          __end_of_Lcd_Cmd 0756  
                  ?_main 0070            __CFG_WDTE$OFF 0000                    _IRCF0 04CB  
                  _IRCF1 04CC                    _IRCF2 04CD                    _IRCF3 04CE  
                  _TRISD 008F           __CFG_FCMEN$OFF 0000          __end_of_dpowers 0828  
         __CFG_BOREN$OFF 0000                    ltemp0 007E                    ltemp1 0082  
                  ltemp2 0086                    ltemp3 0080                    ttemp0 007E  
                  ttemp1 0081                    ttemp2 0084                    ttemp3 0087  
                  ttemp4 007F                    wtemp0 007E                    wtemp1 0080  
                  wtemp2 0082                    wtemp3 0084                    wtemp4 0086  
                  wtemp5 0088                    wtemp6 007F             ?_internal_16 0070  
       __end_of_Lcd_Init 07F6         __end_of_Lcd_Port 076E           __CFG_MCLRE$OFF 0000  
        __initialization 07F6             __end_of_main 0730           __CFG_LPBOR$OFF 0000  
                 ??_main 0079       __size_of_Lcd_Clear 0008           __CFG_PLLEN$OFF 0000  
                 _CCPR1L 0291           __CFG_ZCDDIS$ON 0000                   _ANSELD 018F  
              ??_Lcd_Cmd 0071                   _SPLLEN 04CF           __CFG_PWRTE$OFF 0000  
         __CFG_STVREN$ON 0000         __end_of_initMain 07B0  __end_of__initialization 07FD  
      __end_of_Lcd_Clear 0738           __pcstackCOMMON 0070                ?_Lcd_Init 0070  
              ?_Lcd_Port 0070               __pbssBANK0 0020               __pmaintext 0729  
   __size_of_internal_16 0009          __CFG_PPS1WAY$ON 0000               ??_Lcd_Init 0074  
                _PPSLOCK 0E0F               ??_Lcd_Port 0070                ?_initMain 0070  
                _Lcd_Cmd 0741                  __ptext1 076E                  __ptext2 0738  
                __ptext3 07B0                  __ptext4 0730                  __ptext5 0741  
                __ptext6 0756                  _dpowers 0800                _T6CONbits 041E  
                clrloop0 0724     end_of_initialization 07FD                  ftoa@buf 0020  
             ??_initMain 0076                Lcd_Port@a 0070             __pstringtext 0800  
       __CFG_FOSC$INTOSC 0000                _TRISBbits 008D                _TRISDbits 008F  
            _CCP1CONbits 0293                _Lcd_Clear 0730      start_initialization 07F6  
      __size_of_Lcd_Init 0046        __size_of_Lcd_Port 0018               ?_Lcd_Clear 0070  
            _CCPTMRSbits 029E                ___latbits 0002                 ?_Lcd_Cmd 0070  
          ??_internal_16 0070        __size_of_initMain 0042                 _LATDbits 010F  
              clear_ram0 0723                 Lcd_Cmd@a 0073              ??_Lcd_Clear 0074  
    __end_of_internal_16 0741                 _Lcd_Init 07B0                 _Lcd_Port 0756  
       __size_of_Lcd_Cmd 0015                 _initMain 076E            __size_of_main 0007  
            _internal_16 0738               _RB0PPSbits 0E98        __CFG_CLKOUTEN$OFF 0000  
            _PPSLOCKbits 0E0F  
