

Microchip MPLAB XC8 Assembler V2.46 build 20240104201356 
                                                                                               Sat Feb 07 19:34:23 2026

Microchip MPLAB XC8 C Compiler v2.46 (Free license) build 20240104201356 Og1 
     1                           	processor	16F1718
     2                           	pagewidth 120
     3                           	opt	flic
     4                           	psect	idataBANK0,global,class=CODE,delta=2,noexec
     5                           	psect	stringtext1,global,class=STRCODE,delta=2,noexec
     6                           	psect	stringtext2,global,class=STRCODE,delta=2,noexec
     7                           	psect	stringtext3,global,class=STRCODE,delta=2,noexec
     8                           	psect	stringtext4,global,class=STRCODE,delta=2,noexec
     9                           	psect	stringtext5,global,class=STRCODE,delta=2,noexec
    10                           	psect	stringtext6,global,class=STRCODE,delta=2,noexec
    11                           	psect	stringtext7,global,class=STRCODE,delta=2,noexec
    12                           	psect	stringtext8,global,class=STRCODE,delta=2,noexec
    13                           	psect	stringtext9,global,class=STRCODE,delta=2,noexec
    14                           	psect	stringtext10,global,class=STRCODE,delta=2,noexec
    15                           	psect	stringtext11,global,class=STRCODE,delta=2,noexec
    16                           	psect	stringtext12,global,class=STRCODE,delta=2,noexec
    17                           	psect	stringtext13,global,class=STRCODE,delta=2,noexec
    18                           	psect	stringtext14,global,class=STRCODE,delta=2,noexec
    19                           	psect	stringtext15,global,class=STRCODE,delta=2,noexec
    20                           	psect	stringtext16,global,class=STRCODE,delta=2,noexec
    21                           	psect	stringtext17,global,class=STRCODE,delta=2,noexec
    22                           	psect	cinit,global,class=CODE,merge=1,delta=2
    23                           	psect	bssBANK0,global,class=BANK0,space=1,delta=1,noexec
    24                           	psect	dataBANK0,global,class=BANK0,space=1,delta=1,noexec
    25                           	psect	bssBANK2,global,class=BANK2,space=1,delta=1,noexec
    26                           	psect	bssBANK3,global,class=BANK3,space=1,delta=1,noexec
    27                           	psect	bssBANK4,global,class=BANK4,space=1,delta=1,noexec
    28                           	psect	clrtext,global,class=CODE,delta=2
    29                           	psect	cstackBANK2,global,class=BANK2,space=1,delta=1,noexec
    30                           	psect	cstackBANK1,global,class=BANK1,space=1,delta=1,noexec
    31                           	psect	cstackCOMMON,global,class=COMMON,space=1,delta=1,noexec
    32                           	psect	cstackBANK0,global,class=BANK0,space=1,delta=1,noexec
    33                           	psect	maintext,global,class=CODE,merge=1,split=1,delta=2
    34                           	psect	text1,local,class=CODE,merge=1,delta=2
    35                           	psect	text2,local,class=CODE,merge=1,delta=2
    36                           	psect	text3,local,class=CODE,merge=1,delta=2
    37                           	psect	text4,local,class=CODE,merge=1,delta=2
    38                           	psect	text5,local,class=CODE,merge=1,delta=2
    39                           	psect	text6,local,class=CODE,merge=1,delta=2
    40                           	psect	text7,local,class=CODE,merge=1,delta=2
    41                           	psect	text8,local,class=CODE,merge=1,delta=2
    42                           	psect	text9,local,class=CODE,merge=1,delta=2
    43                           	psect	text10,local,class=CODE,merge=1,delta=2
    44                           	psect	text11,local,class=CODE,merge=1,delta=2
    45                           	psect	text12,local,class=CODE,merge=1,delta=2,group=1
    46                           	psect	text13,local,class=CODE,merge=1,delta=2
    47                           	psect	text14,local,class=CODE,merge=1,delta=2
    48                           	psect	text15,local,class=CODE,merge=1,delta=2
    49                           	psect	text16,local,class=CODE,merge=1,delta=2
    50                           	psect	text17,local,class=CODE,merge=1,delta=2,group=1
    51                           	psect	text18,local,class=CODE,merge=1,delta=2,group=1
    52                           	psect	text19,local,class=CODE,merge=1,delta=2
    53                           	psect	text20,local,class=CODE,merge=1,delta=2
    54                           	psect	text21,local,class=CODE,merge=1,delta=2
    55                           	psect	text22,local,class=CODE,merge=1,delta=2
    56                           	psect	text23,local,class=CODE,merge=1,delta=2
    57                           	psect	text24,local,class=CODE,merge=1,delta=2
    58                           	psect	text25,local,class=CODE,merge=1,delta=2
    59                           	psect	text26,local,class=CODE,merge=1,delta=2
    60                           	psect	text27,local,class=CODE,merge=1,delta=2
    61                           	psect	text28,local,class=CODE,merge=1,delta=2
    62                           	psect	text29,local,class=CODE,merge=1,delta=2
    63                           	psect	text30,local,class=CODE,merge=1,delta=2
    64                           	psect	text31,local,class=CODE,merge=1,delta=2
    65                           	psect	text32,local,class=CODE,merge=1,delta=2
    66                           	psect	text33,local,class=CODE,merge=1,delta=2
    67                           	psect	text34,local,class=CODE,merge=1,delta=2
    68                           	psect	text35,local,class=CODE,merge=1,delta=2
    69                           	psect	text36,local,class=CODE,merge=1,delta=2
    70                           	psect	text37,local,class=CODE,merge=1,delta=2
    71                           	psect	text38,local,class=CODE,merge=1,delta=2
    72                           	psect	text39,local,class=CODE,merge=1,delta=2
    73                           	psect	text40,local,class=CODE,merge=1,delta=2
    74                           	psect	text41,local,class=CODE,merge=1,delta=2
    75                           	psect	text42,local,class=CODE,merge=1,delta=2,group=1
    76                           	psect	intentry,global,class=CODE,delta=2
    77                           	psect	config,global,abs,ovrld,class=CONFIG,space=4,delta=2,noexec
    78                           	dabs	1,0x7E,2
    79     0000                     
    80                           ; Generated 07/09/2023 GMT
    81                           ; 
    82                           ; Copyright © 2023, Microchip Technology Inc. and its subsidiaries ("Microchip")
    83                           ; All rights reserved.
    84                           ; 
    85                           ; This software is developed by Microchip Technology Inc. and its subsidiaries ("Microch
      +                          ip").
    86                           ; 
    87                           ; Redistribution and use in source and binary forms, with or without modification, are
    88                           ; permitted provided that the following conditions are met:
    89                           ; 
    90                           ;     1. Redistributions of source code must retain the above copyright notice, this lis
      +                          t of
    91                           ;        conditions and the following disclaimer.
    92                           ; 
    93                           ;     2. Redistributions in binary form must reproduce the above copyright notice, this 
      +                          list
    94                           ;        of conditions and the following disclaimer in the documentation and/or other
    95                           ;        materials provided with the distribution. Publication is not required when
    96                           ;        this file is used in an embedded application.
    97                           ; 
    98                           ;     3. Microchip's name may not be used to endorse or promote products derived from th
      +                          is
    99                           ;        software without specific prior written permission.
   100                           ; 
   101                           ; THIS SOFTWARE IS PROVIDED BY MICROCHIP "AS IS" AND ANY EXPRESS OR IMPLIED WARRANTIES,
   102                           ; INCLUDING, BUT NOT LIMITED TO, THE IMPLIED WARRANTIES OF MERCHANTABILITY AND FITNESS F
      +                          OR
   103                           ; PURPOSE ARE DISCLAIMED.  IN NO EVENT SHALL MICROCHIP BE LIABLE FOR ANY DIRECT, INDIREC
      +                          T,
   104                           ; INCIDENTAL, SPECIAL, EXEMPLARY, OR CONSEQUENTIAL DAMAGES (INCLUDING BUT NOT LIMITED TO
   105                           ; PROCUREMENT OF SUBSTITUTE GOODS OR SERVICES; LOSS OF USE, DATA OR PROFITS; OR BUSINESS
   106                           ; INTERRUPTION) HOWSOEVER CAUSED AND ON ANY THEORY OF LIABILITY, WHETHER IN CONTRACT, ST
      +                          RICT
   107                           ; LIABILITY, OR TORT (INCLUDING NEGLIGENCE OR OTHERWISE) ARISING IN ANY WAY OUT OF THE U
      +                          SE OF
   108                           ; THIS SOFTWARE, EVEN IF ADVISED OF THE POSSIBILITY OF SUCH DAMAGE.
   109                           ; 
   110                           ; 
   111                           ; Code-generator required, PIC16F1718 Definitions
   112                           ; 
   113                           ; SFR Addresses
   114     0000                     	;# 
   115     0001                     	;# 
   116     0002                     	;# 
   117     0003                     	;# 
   118     0004                     	;# 
   119     0005                     	;# 
   120     0006                     	;# 
   121     0007                     	;# 
   122     0008                     	;# 
   123     0009                     	;# 
   124     000A                     	;# 
   125     000B                     	;# 
   126     000C                     	;# 
   127     000D                     	;# 
   128     000E                     	;# 
   129     0010                     	;# 
   130     0011                     	;# 
   131     0012                     	;# 
   132     0013                     	;# 
   133     0015                     	;# 
   134     0016                     	;# 
   135     0016                     	;# 
   136     0017                     	;# 
   137     0018                     	;# 
   138     0019                     	;# 
   139     001A                     	;# 
   140     001B                     	;# 
   141     001C                     	;# 
   142     008C                     	;# 
   143     008D                     	;# 
   144     008E                     	;# 
   145     0090                     	;# 
   146     0091                     	;# 
   147     0092                     	;# 
   148     0093                     	;# 
   149     0095                     	;# 
   150     0096                     	;# 
   151     0097                     	;# 
   152     0098                     	;# 
   153     0099                     	;# 
   154     009A                     	;# 
   155     009B                     	;# 
   156     009B                     	;# 
   157     009C                     	;# 
   158     009D                     	;# 
   159     009E                     	;# 
   160     009F                     	;# 
   161     010C                     	;# 
   162     010D                     	;# 
   163     010E                     	;# 
   164     0111                     	;# 
   165     0112                     	;# 
   166     0113                     	;# 
   167     0114                     	;# 
   168     0115                     	;# 
   169     0116                     	;# 
   170     0117                     	;# 
   171     0118                     	;# 
   172     0119                     	;# 
   173     011A                     	;# 
   174     011B                     	;# 
   175     011B                     	;# 
   176     011C                     	;# 
   177     018C                     	;# 
   178     018D                     	;# 
   179     018E                     	;# 
   180     0191                     	;# 
   181     0191                     	;# 
   182     0192                     	;# 
   183     0193                     	;# 
   184     0193                     	;# 
   185     0194                     	;# 
   186     0195                     	;# 
   187     0196                     	;# 
   188     0197                     	;# 
   189     0199                     	;# 
   190     0199                     	;# 
   191     0199                     	;# 
   192     019A                     	;# 
   193     019A                     	;# 
   194     019A                     	;# 
   195     019B                     	;# 
   196     019B                     	;# 
   197     019B                     	;# 
   198     019B                     	;# 
   199     019B                     	;# 
   200     019C                     	;# 
   201     019C                     	;# 
   202     019C                     	;# 
   203     019D                     	;# 
   204     019D                     	;# 
   205     019D                     	;# 
   206     019E                     	;# 
   207     019E                     	;# 
   208     019E                     	;# 
   209     019F                     	;# 
   210     019F                     	;# 
   211     019F                     	;# 
   212     019F                     	;# 
   213     019F                     	;# 
   214     020C                     	;# 
   215     020D                     	;# 
   216     020E                     	;# 
   217     0210                     	;# 
   218     0211                     	;# 
   219     0211                     	;# 
   220     0212                     	;# 
   221     0212                     	;# 
   222     0213                     	;# 
   223     0213                     	;# 
   224     0214                     	;# 
   225     0214                     	;# 
   226     0215                     	;# 
   227     0215                     	;# 
   228     0215                     	;# 
   229     0215                     	;# 
   230     0216                     	;# 
   231     0216                     	;# 
   232     0217                     	;# 
   233     0217                     	;# 
   234     028C                     	;# 
   235     028D                     	;# 
   236     028E                     	;# 
   237     0291                     	;# 
   238     0291                     	;# 
   239     0292                     	;# 
   240     0293                     	;# 
   241     0293                     	;# 
   242     0298                     	;# 
   243     0298                     	;# 
   244     0299                     	;# 
   245     029A                     	;# 
   246     029A                     	;# 
   247     029E                     	;# 
   248     030C                     	;# 
   249     030D                     	;# 
   250     030E                     	;# 
   251     038C                     	;# 
   252     038D                     	;# 
   253     038E                     	;# 
   254     0390                     	;# 
   255     0391                     	;# 
   256     0392                     	;# 
   257     0393                     	;# 
   258     0394                     	;# 
   259     0395                     	;# 
   260     0396                     	;# 
   261     0397                     	;# 
   262     0398                     	;# 
   263     0399                     	;# 
   264     039D                     	;# 
   265     039E                     	;# 
   266     039F                     	;# 
   267     0415                     	;# 
   268     0416                     	;# 
   269     0417                     	;# 
   270     041C                     	;# 
   271     041D                     	;# 
   272     041E                     	;# 
   273     0498                     	;# 
   274     0498                     	;# 
   275     0499                     	;# 
   276     049A                     	;# 
   277     049B                     	;# 
   278     049B                     	;# 
   279     049C                     	;# 
   280     049D                     	;# 
   281     049E                     	;# 
   282     049F                     	;# 
   283     0511                     	;# 
   284     0515                     	;# 
   285     0617                     	;# 
   286     0618                     	;# 
   287     0619                     	;# 
   288     0619                     	;# 
   289     061A                     	;# 
   290     061B                     	;# 
   291     061C                     	;# 
   292     061C                     	;# 
   293     0691                     	;# 
   294     0692                     	;# 
   295     0693                     	;# 
   296     0694                     	;# 
   297     0695                     	;# 
   298     0696                     	;# 
   299     0697                     	;# 
   300     0698                     	;# 
   301     0699                     	;# 
   302     069A                     	;# 
   303     069B                     	;# 
   304     069C                     	;# 
   305     069D                     	;# 
   306     069E                     	;# 
   307     069F                     	;# 
   308     0E0F                     	;# 
   309     0E10                     	;# 
   310     0E11                     	;# 
   311     0E12                     	;# 
   312     0E13                     	;# 
   313     0E14                     	;# 
   314     0E15                     	;# 
   315     0E17                     	;# 
   316     0E20                     	;# 
   317     0E21                     	;# 
   318     0E22                     	;# 
   319     0E24                     	;# 
   320     0E25                     	;# 
   321     0E28                     	;# 
   322     0E29                     	;# 
   323     0E2A                     	;# 
   324     0E2B                     	;# 
   325     0E90                     	;# 
   326     0E91                     	;# 
   327     0E92                     	;# 
   328     0E93                     	;# 
   329     0E94                     	;# 
   330     0E95                     	;# 
   331     0E96                     	;# 
   332     0E97                     	;# 
   333     0E98                     	;# 
   334     0E99                     	;# 
   335     0E9A                     	;# 
   336     0E9B                     	;# 
   337     0E9C                     	;# 
   338     0E9D                     	;# 
   339     0E9E                     	;# 
   340     0E9F                     	;# 
   341     0EA0                     	;# 
   342     0EA1                     	;# 
   343     0EA2                     	;# 
   344     0EA3                     	;# 
   345     0EA4                     	;# 
   346     0EA5                     	;# 
   347     0EA6                     	;# 
   348     0EA7                     	;# 
   349     0F0F                     	;# 
   350     0F10                     	;# 
   351     0F11                     	;# 
   352     0F12                     	;# 
   353     0F13                     	;# 
   354     0F14                     	;# 
   355     0F15                     	;# 
   356     0F16                     	;# 
   357     0F17                     	;# 
   358     0F18                     	;# 
   359     0F19                     	;# 
   360     0F1A                     	;# 
   361     0F1B                     	;# 
   362     0F1C                     	;# 
   363     0F1D                     	;# 
   364     0F1E                     	;# 
   365     0F1F                     	;# 
   366     0F20                     	;# 
   367     0F21                     	;# 
   368     0F22                     	;# 
   369     0F23                     	;# 
   370     0F24                     	;# 
   371     0F25                     	;# 
   372     0F26                     	;# 
   373     0F27                     	;# 
   374     0F28                     	;# 
   375     0F29                     	;# 
   376     0F2A                     	;# 
   377     0F2B                     	;# 
   378     0F2C                     	;# 
   379     0F2D                     	;# 
   380     0F2E                     	;# 
   381     0F2F                     	;# 
   382     0F30                     	;# 
   383     0F31                     	;# 
   384     0F32                     	;# 
   385     0F33                     	;# 
   386     0F34                     	;# 
   387     0F35                     	;# 
   388     0F36                     	;# 
   389     0F37                     	;# 
   390     0FE4                     	;# 
   391     0FE5                     	;# 
   392     0FE6                     	;# 
   393     0FE7                     	;# 
   394     0FE8                     	;# 
   395     0FE9                     	;# 
   396     0FEA                     	;# 
   397     0FEB                     	;# 
   398     0FED                     	;# 
   399     0FEE                     	;# 
   400     0FEF                     	;# 
   401     0000                     	;# 
   402     0001                     	;# 
   403     0002                     	;# 
   404     0003                     	;# 
   405     0004                     	;# 
   406     0005                     	;# 
   407     0006                     	;# 
   408     0007                     	;# 
   409     0008                     	;# 
   410     0009                     	;# 
   411     000A                     	;# 
   412     000B                     	;# 
   413     000C                     	;# 
   414     000D                     	;# 
   415     000E                     	;# 
   416     0010                     	;# 
   417     0011                     	;# 
   418     0012                     	;# 
   419     0013                     	;# 
   420     0015                     	;# 
   421     0016                     	;# 
   422     0016                     	;# 
   423     0017                     	;# 
   424     0018                     	;# 
   425     0019                     	;# 
   426     001A                     	;# 
   427     001B                     	;# 
   428     001C                     	;# 
   429     008C                     	;# 
   430     008D                     	;# 
   431     008E                     	;# 
   432     0090                     	;# 
   433     0091                     	;# 
   434     0092                     	;# 
   435     0093                     	;# 
   436     0095                     	;# 
   437     0096                     	;# 
   438     0097                     	;# 
   439     0098                     	;# 
   440     0099                     	;# 
   441     009A                     	;# 
   442     009B                     	;# 
   443     009B                     	;# 
   444     009C                     	;# 
   445     009D                     	;# 
   446     009E                     	;# 
   447     009F                     	;# 
   448     010C                     	;# 
   449     010D                     	;# 
   450     010E                     	;# 
   451     0111                     	;# 
   452     0112                     	;# 
   453     0113                     	;# 
   454     0114                     	;# 
   455     0115                     	;# 
   456     0116                     	;# 
   457     0117                     	;# 
   458     0118                     	;# 
   459     0119                     	;# 
   460     011A                     	;# 
   461     011B                     	;# 
   462     011B                     	;# 
   463     011C                     	;# 
   464     018C                     	;# 
   465     018D                     	;# 
   466     018E                     	;# 
   467     0191                     	;# 
   468     0191                     	;# 
   469     0192                     	;# 
   470     0193                     	;# 
   471     0193                     	;# 
   472     0194                     	;# 
   473     0195                     	;# 
   474     0196                     	;# 
   475     0197                     	;# 
   476     0199                     	;# 
   477     0199                     	;# 
   478     0199                     	;# 
   479     019A                     	;# 
   480     019A                     	;# 
   481     019A                     	;# 
   482     019B                     	;# 
   483     019B                     	;# 
   484     019B                     	;# 
   485     019B                     	;# 
   486     019B                     	;# 
   487     019C                     	;# 
   488     019C                     	;# 
   489     019C                     	;# 
   490     019D                     	;# 
   491     019D                     	;# 
   492     019D                     	;# 
   493     019E                     	;# 
   494     019E                     	;# 
   495     019E                     	;# 
   496     019F                     	;# 
   497     019F                     	;# 
   498     019F                     	;# 
   499     019F                     	;# 
   500     019F                     	;# 
   501     020C                     	;# 
   502     020D                     	;# 
   503     020E                     	;# 
   504     0210                     	;# 
   505     0211                     	;# 
   506     0211                     	;# 
   507     0212                     	;# 
   508     0212                     	;# 
   509     0213                     	;# 
   510     0213                     	;# 
   511     0214                     	;# 
   512     0214                     	;# 
   513     0215                     	;# 
   514     0215                     	;# 
   515     0215                     	;# 
   516     0215                     	;# 
   517     0216                     	;# 
   518     0216                     	;# 
   519     0217                     	;# 
   520     0217                     	;# 
   521     028C                     	;# 
   522     028D                     	;# 
   523     028E                     	;# 
   524     0291                     	;# 
   525     0291                     	;# 
   526     0292                     	;# 
   527     0293                     	;# 
   528     0293                     	;# 
   529     0298                     	;# 
   530     0298                     	;# 
   531     0299                     	;# 
   532     029A                     	;# 
   533     029A                     	;# 
   534     029E                     	;# 
   535     030C                     	;# 
   536     030D                     	;# 
   537     030E                     	;# 
   538     038C                     	;# 
   539     038D                     	;# 
   540     038E                     	;# 
   541     0390                     	;# 
   542     0391                     	;# 
   543     0392                     	;# 
   544     0393                     	;# 
   545     0394                     	;# 
   546     0395                     	;# 
   547     0396                     	;# 
   548     0397                     	;# 
   549     0398                     	;# 
   550     0399                     	;# 
   551     039D                     	;# 
   552     039E                     	;# 
   553     039F                     	;# 
   554     0415                     	;# 
   555     0416                     	;# 
   556     0417                     	;# 
   557     041C                     	;# 
   558     041D                     	;# 
   559     041E                     	;# 
   560     0498                     	;# 
   561     0498                     	;# 
   562     0499                     	;# 
   563     049A                     	;# 
   564     049B                     	;# 
   565     049B                     	;# 
   566     049C                     	;# 
   567     049D                     	;# 
   568     049E                     	;# 
   569     049F                     	;# 
   570     0511                     	;# 
   571     0515                     	;# 
   572     0617                     	;# 
   573     0618                     	;# 
   574     0619                     	;# 
   575     0619                     	;# 
   576     061A                     	;# 
   577     061B                     	;# 
   578     061C                     	;# 
   579     061C                     	;# 
   580     0691                     	;# 
   581     0692                     	;# 
   582     0693                     	;# 
   583     0694                     	;# 
   584     0695                     	;# 
   585     0696                     	;# 
   586     0697                     	;# 
   587     0698                     	;# 
   588     0699                     	;# 
   589     069A                     	;# 
   590     069B                     	;# 
   591     069C                     	;# 
   592     069D                     	;# 
   593     069E                     	;# 
   594     069F                     	;# 
   595     0E0F                     	;# 
   596     0E10                     	;# 
   597     0E11                     	;# 
   598     0E12                     	;# 
   599     0E13                     	;# 
   600     0E14                     	;# 
   601     0E15                     	;# 
   602     0E17                     	;# 
   603     0E20                     	;# 
   604     0E21                     	;# 
   605     0E22                     	;# 
   606     0E24                     	;# 
   607     0E25                     	;# 
   608     0E28                     	;# 
   609     0E29                     	;# 
   610     0E2A                     	;# 
   611     0E2B                     	;# 
   612     0E90                     	;# 
   613     0E91                     	;# 
   614     0E92                     	;# 
   615     0E93                     	;# 
   616     0E94                     	;# 
   617     0E95                     	;# 
   618     0E96                     	;# 
   619     0E97                     	;# 
   620     0E98                     	;# 
   621     0E99                     	;# 
   622     0E9A                     	;# 
   623     0E9B                     	;# 
   624     0E9C                     	;# 
   625     0E9D                     	;# 
   626     0E9E                     	;# 
   627     0E9F                     	;# 
   628     0EA0                     	;# 
   629     0EA1                     	;# 
   630     0EA2                     	;# 
   631     0EA3                     	;# 
   632     0EA4                     	;# 
   633     0EA5                     	;# 
   634     0EA6                     	;# 
   635     0EA7                     	;# 
   636     0F0F                     	;# 
   637     0F10                     	;# 
   638     0F11                     	;# 
   639     0F12                     	;# 
   640     0F13                     	;# 
   641     0F14                     	;# 
   642     0F15                     	;# 
   643     0F16                     	;# 
   644     0F17                     	;# 
   645     0F18                     	;# 
   646     0F19                     	;# 
   647     0F1A                     	;# 
   648     0F1B                     	;# 
   649     0F1C                     	;# 
   650     0F1D                     	;# 
   651     0F1E                     	;# 
   652     0F1F                     	;# 
   653     0F20                     	;# 
   654     0F21                     	;# 
   655     0F22                     	;# 
   656     0F23                     	;# 
   657     0F24                     	;# 
   658     0F25                     	;# 
   659     0F26                     	;# 
   660     0F27                     	;# 
   661     0F28                     	;# 
   662     0F29                     	;# 
   663     0F2A                     	;# 
   664     0F2B                     	;# 
   665     0F2C                     	;# 
   666     0F2D                     	;# 
   667     0F2E                     	;# 
   668     0F2F                     	;# 
   669     0F30                     	;# 
   670     0F31                     	;# 
   671     0F32                     	;# 
   672     0F33                     	;# 
   673     0F34                     	;# 
   674     0F35                     	;# 
   675     0F36                     	;# 
   676     0F37                     	;# 
   677     0FE4                     	;# 
   678     0FE5                     	;# 
   679     0FE6                     	;# 
   680     0FE7                     	;# 
   681     0FE8                     	;# 
   682     0FE9                     	;# 
   683     0FEA                     	;# 
   684     0FEB                     	;# 
   685     0FED                     	;# 
   686     0FEE                     	;# 
   687     0FEF                     	;# 
   688     0000                     	;# 
   689     0001                     	;# 
   690     0002                     	;# 
   691     0003                     	;# 
   692     0004                     	;# 
   693     0005                     	;# 
   694     0006                     	;# 
   695     0007                     	;# 
   696     0008                     	;# 
   697     0009                     	;# 
   698     000A                     	;# 
   699     000B                     	;# 
   700     000C                     	;# 
   701     000D                     	;# 
   702     000E                     	;# 
   703     0010                     	;# 
   704     0011                     	;# 
   705     0012                     	;# 
   706     0013                     	;# 
   707     0015                     	;# 
   708     0016                     	;# 
   709     0016                     	;# 
   710     0017                     	;# 
   711     0018                     	;# 
   712     0019                     	;# 
   713     001A                     	;# 
   714     001B                     	;# 
   715     001C                     	;# 
   716     008C                     	;# 
   717     008D                     	;# 
   718     008E                     	;# 
   719     0090                     	;# 
   720     0091                     	;# 
   721     0092                     	;# 
   722     0093                     	;# 
   723     0095                     	;# 
   724     0096                     	;# 
   725     0097                     	;# 
   726     0098                     	;# 
   727     0099                     	;# 
   728     009A                     	;# 
   729     009B                     	;# 
   730     009B                     	;# 
   731     009C                     	;# 
   732     009D                     	;# 
   733     009E                     	;# 
   734     009F                     	;# 
   735     010C                     	;# 
   736     010D                     	;# 
   737     010E                     	;# 
   738     0111                     	;# 
   739     0112                     	;# 
   740     0113                     	;# 
   741     0114                     	;# 
   742     0115                     	;# 
   743     0116                     	;# 
   744     0117                     	;# 
   745     0118                     	;# 
   746     0119                     	;# 
   747     011A                     	;# 
   748     011B                     	;# 
   749     011B                     	;# 
   750     011C                     	;# 
   751     018C                     	;# 
   752     018D                     	;# 
   753     018E                     	;# 
   754     0191                     	;# 
   755     0191                     	;# 
   756     0192                     	;# 
   757     0193                     	;# 
   758     0193                     	;# 
   759     0194                     	;# 
   760     0195                     	;# 
   761     0196                     	;# 
   762     0197                     	;# 
   763     0199                     	;# 
   764     0199                     	;# 
   765     0199                     	;# 
   766     019A                     	;# 
   767     019A                     	;# 
   768     019A                     	;# 
   769     019B                     	;# 
   770     019B                     	;# 
   771     019B                     	;# 
   772     019B                     	;# 
   773     019B                     	;# 
   774     019C                     	;# 
   775     019C                     	;# 
   776     019C                     	;# 
   777     019D                     	;# 
   778     019D                     	;# 
   779     019D                     	;# 
   780     019E                     	;# 
   781     019E                     	;# 
   782     019E                     	;# 
   783     019F                     	;# 
   784     019F                     	;# 
   785     019F                     	;# 
   786     019F                     	;# 
   787     019F                     	;# 
   788     020C                     	;# 
   789     020D                     	;# 
   790     020E                     	;# 
   791     0210                     	;# 
   792     0211                     	;# 
   793     0211                     	;# 
   794     0212                     	;# 
   795     0212                     	;# 
   796     0213                     	;# 
   797     0213                     	;# 
   798     0214                     	;# 
   799     0214                     	;# 
   800     0215                     	;# 
   801     0215                     	;# 
   802     0215                     	;# 
   803     0215                     	;# 
   804     0216                     	;# 
   805     0216                     	;# 
   806     0217                     	;# 
   807     0217                     	;# 
   808     028C                     	;# 
   809     028D                     	;# 
   810     028E                     	;# 
   811     0291                     	;# 
   812     0291                     	;# 
   813     0292                     	;# 
   814     0293                     	;# 
   815     0293                     	;# 
   816     0298                     	;# 
   817     0298                     	;# 
   818     0299                     	;# 
   819     029A                     	;# 
   820     029A                     	;# 
   821     029E                     	;# 
   822     030C                     	;# 
   823     030D                     	;# 
   824     030E                     	;# 
   825     038C                     	;# 
   826     038D                     	;# 
   827     038E                     	;# 
   828     0390                     	;# 
   829     0391                     	;# 
   830     0392                     	;# 
   831     0393                     	;# 
   832     0394                     	;# 
   833     0395                     	;# 
   834     0396                     	;# 
   835     0397                     	;# 
   836     0398                     	;# 
   837     0399                     	;# 
   838     039D                     	;# 
   839     039E                     	;# 
   840     039F                     	;# 
   841     0415                     	;# 
   842     0416                     	;# 
   843     0417                     	;# 
   844     041C                     	;# 
   845     041D                     	;# 
   846     041E                     	;# 
   847     0498                     	;# 
   848     0498                     	;# 
   849     0499                     	;# 
   850     049A                     	;# 
   851     049B                     	;# 
   852     049B                     	;# 
   853     049C                     	;# 
   854     049D                     	;# 
   855     049E                     	;# 
   856     049F                     	;# 
   857     0511                     	;# 
   858     0515                     	;# 
   859     0617                     	;# 
   860     0618                     	;# 
   861     0619                     	;# 
   862     0619                     	;# 
   863     061A                     	;# 
   864     061B                     	;# 
   865     061C                     	;# 
   866     061C                     	;# 
   867     0691                     	;# 
   868     0692                     	;# 
   869     0693                     	;# 
   870     0694                     	;# 
   871     0695                     	;# 
   872     0696                     	;# 
   873     0697                     	;# 
   874     0698                     	;# 
   875     0699                     	;# 
   876     069A                     	;# 
   877     069B                     	;# 
   878     069C                     	;# 
   879     069D                     	;# 
   880     069E                     	;# 
   881     069F                     	;# 
   882     0E0F                     	;# 
   883     0E10                     	;# 
   884     0E11                     	;# 
   885     0E12                     	;# 
   886     0E13                     	;# 
   887     0E14                     	;# 
   888     0E15                     	;# 
   889     0E17                     	;# 
   890     0E20                     	;# 
   891     0E21                     	;# 
   892     0E22                     	;# 
   893     0E24                     	;# 
   894     0E25                     	;# 
   895     0E28                     	;# 
   896     0E29                     	;# 
   897     0E2A                     	;# 
   898     0E2B                     	;# 
   899     0E90                     	;# 
   900     0E91                     	;# 
   901     0E92                     	;# 
   902     0E93                     	;# 
   903     0E94                     	;# 
   904     0E95                     	;# 
   905     0E96                     	;# 
   906     0E97                     	;# 
   907     0E98                     	;# 
   908     0E99                     	;# 
   909     0E9A                     	;# 
   910     0E9B                     	;# 
   911     0E9C                     	;# 
   912     0E9D                     	;# 
   913     0E9E                     	;# 
   914     0E9F                     	;# 
   915     0EA0                     	;# 
   916     0EA1                     	;# 
   917     0EA2                     	;# 
   918     0EA3                     	;# 
   919     0EA4                     	;# 
   920     0EA5                     	;# 
   921     0EA6                     	;# 
   922     0EA7                     	;# 
   923     0F0F                     	;# 
   924     0F10                     	;# 
   925     0F11                     	;# 
   926     0F12                     	;# 
   927     0F13                     	;# 
   928     0F14                     	;# 
   929     0F15                     	;# 
   930     0F16                     	;# 
   931     0F17                     	;# 
   932     0F18                     	;# 
   933     0F19                     	;# 
   934     0F1A                     	;# 
   935     0F1B                     	;# 
   936     0F1C                     	;# 
   937     0F1D                     	;# 
   938     0F1E                     	;# 
   939     0F1F                     	;# 
   940     0F20                     	;# 
   941     0F21                     	;# 
   942     0F22                     	;# 
   943     0F23                     	;# 
   944     0F24                     	;# 
   945     0F25                     	;# 
   946     0F26                     	;# 
   947     0F27                     	;# 
   948     0F28                     	;# 
   949     0F29                     	;# 
   950     0F2A                     	;# 
   951     0F2B                     	;# 
   952     0F2C                     	;# 
   953     0F2D                     	;# 
   954     0F2E                     	;# 
   955     0F2F                     	;# 
   956     0F30                     	;# 
   957     0F31                     	;# 
   958     0F32                     	;# 
   959     0F33                     	;# 
   960     0F34                     	;# 
   961     0F35                     	;# 
   962     0F36                     	;# 
   963     0F37                     	;# 
   964     0FE4                     	;# 
   965     0FE5                     	;# 
   966     0FE6                     	;# 
   967     0FE7                     	;# 
   968     0FE8                     	;# 
   969     0FE9                     	;# 
   970     0FEA                     	;# 
   971     0FEB                     	;# 
   972     0FED                     	;# 
   973     0FEE                     	;# 
   974     0FEF                     	;# 
   975     0000                     	;# 
   976     0001                     	;# 
   977     0002                     	;# 
   978     0003                     	;# 
   979     0004                     	;# 
   980     0005                     	;# 
   981     0006                     	;# 
   982     0007                     	;# 
   983     0008                     	;# 
   984     0009                     	;# 
   985     000A                     	;# 
   986     000B                     	;# 
   987     000C                     	;# 
   988     000D                     	;# 
   989     000E                     	;# 
   990     0010                     	;# 
   991     0011                     	;# 
   992     0012                     	;# 
   993     0013                     	;# 
   994     0015                     	;# 
   995     0016                     	;# 
   996     0016                     	;# 
   997     0017                     	;# 
   998     0018                     	;# 
   999     0019                     	;# 
  1000     001A                     	;# 
  1001     001B                     	;# 
  1002     001C                     	;# 
  1003     008C                     	;# 
  1004     008D                     	;# 
  1005     008E                     	;# 
  1006     0090                     	;# 
  1007     0091                     	;# 
  1008     0092                     	;# 
  1009     0093                     	;# 
  1010     0095                     	;# 
  1011     0096                     	;# 
  1012     0097                     	;# 
  1013     0098                     	;# 
  1014     0099                     	;# 
  1015     009A                     	;# 
  1016     009B                     	;# 
  1017     009B                     	;# 
  1018     009C                     	;# 
  1019     009D                     	;# 
  1020     009E                     	;# 
  1021     009F                     	;# 
  1022     010C                     	;# 
  1023     010D                     	;# 
  1024     010E                     	;# 
  1025     0111                     	;# 
  1026     0112                     	;# 
  1027     0113                     	;# 
  1028     0114                     	;# 
  1029     0115                     	;# 
  1030     0116                     	;# 
  1031     0117                     	;# 
  1032     0118                     	;# 
  1033     0119                     	;# 
  1034     011A                     	;# 
  1035     011B                     	;# 
  1036     011B                     	;# 
  1037     011C                     	;# 
  1038     018C                     	;# 
  1039     018D                     	;# 
  1040     018E                     	;# 
  1041     0191                     	;# 
  1042     0191                     	;# 
  1043     0192                     	;# 
  1044     0193                     	;# 
  1045     0193                     	;# 
  1046     0194                     	;# 
  1047     0195                     	;# 
  1048     0196                     	;# 
  1049     0197                     	;# 
  1050     0199                     	;# 
  1051     0199                     	;# 
  1052     0199                     	;# 
  1053     019A                     	;# 
  1054     019A                     	;# 
  1055     019A                     	;# 
  1056     019B                     	;# 
  1057     019B                     	;# 
  1058     019B                     	;# 
  1059     019B                     	;# 
  1060     019B                     	;# 
  1061     019C                     	;# 
  1062     019C                     	;# 
  1063     019C                     	;# 
  1064     019D                     	;# 
  1065     019D                     	;# 
  1066     019D                     	;# 
  1067     019E                     	;# 
  1068     019E                     	;# 
  1069     019E                     	;# 
  1070     019F                     	;# 
  1071     019F                     	;# 
  1072     019F                     	;# 
  1073     019F                     	;# 
  1074     019F                     	;# 
  1075     020C                     	;# 
  1076     020D                     	;# 
  1077     020E                     	;# 
  1078     0210                     	;# 
  1079     0211                     	;# 
  1080     0211                     	;# 
  1081     0212                     	;# 
  1082     0212                     	;# 
  1083     0213                     	;# 
  1084     0213                     	;# 
  1085     0214                     	;# 
  1086     0214                     	;# 
  1087     0215                     	;# 
  1088     0215                     	;# 
  1089     0215                     	;# 
  1090     0215                     	;# 
  1091     0216                     	;# 
  1092     0216                     	;# 
  1093     0217                     	;# 
  1094     0217                     	;# 
  1095     028C                     	;# 
  1096     028D                     	;# 
  1097     028E                     	;# 
  1098     0291                     	;# 
  1099     0291                     	;# 
  1100     0292                     	;# 
  1101     0293                     	;# 
  1102     0293                     	;# 
  1103     0298                     	;# 
  1104     0298                     	;# 
  1105     0299                     	;# 
  1106     029A                     	;# 
  1107     029A                     	;# 
  1108     029E                     	;# 
  1109     030C                     	;# 
  1110     030D                     	;# 
  1111     030E                     	;# 
  1112     038C                     	;# 
  1113     038D                     	;# 
  1114     038E                     	;# 
  1115     0390                     	;# 
  1116     0391                     	;# 
  1117     0392                     	;# 
  1118     0393                     	;# 
  1119     0394                     	;# 
  1120     0395                     	;# 
  1121     0396                     	;# 
  1122     0397                     	;# 
  1123     0398                     	;# 
  1124     0399                     	;# 
  1125     039D                     	;# 
  1126     039E                     	;# 
  1127     039F                     	;# 
  1128     0415                     	;# 
  1129     0416                     	;# 
  1130     0417                     	;# 
  1131     041C                     	;# 
  1132     041D                     	;# 
  1133     041E                     	;# 
  1134     0498                     	;# 
  1135     0498                     	;# 
  1136     0499                     	;# 
  1137     049A                     	;# 
  1138     049B                     	;# 
  1139     049B                     	;# 
  1140     049C                     	;# 
  1141     049D                     	;# 
  1142     049E                     	;# 
  1143     049F                     	;# 
  1144     0511                     	;# 
  1145     0515                     	;# 
  1146     0617                     	;# 
  1147     0618                     	;# 
  1148     0619                     	;# 
  1149     0619                     	;# 
  1150     061A                     	;# 
  1151     061B                     	;# 
  1152     061C                     	;# 
  1153     061C                     	;# 
  1154     0691                     	;# 
  1155     0692                     	;# 
  1156     0693                     	;# 
  1157     0694                     	;# 
  1158     0695                     	;# 
  1159     0696                     	;# 
  1160     0697                     	;# 
  1161     0698                     	;# 
  1162     0699                     	;# 
  1163     069A                     	;# 
  1164     069B                     	;# 
  1165     069C                     	;# 
  1166     069D                     	;# 
  1167     069E                     	;# 
  1168     069F                     	;# 
  1169     0E0F                     	;# 
  1170     0E10                     	;# 
  1171     0E11                     	;# 
  1172     0E12                     	;# 
  1173     0E13                     	;# 
  1174     0E14                     	;# 
  1175     0E15                     	;# 
  1176     0E17                     	;# 
  1177     0E20                     	;# 
  1178     0E21                     	;# 
  1179     0E22                     	;# 
  1180     0E24                     	;# 
  1181     0E25                     	;# 
  1182     0E28                     	;# 
  1183     0E29                     	;# 
  1184     0E2A                     	;# 
  1185     0E2B                     	;# 
  1186     0E90                     	;# 
  1187     0E91                     	;# 
  1188     0E92                     	;# 
  1189     0E93                     	;# 
  1190     0E94                     	;# 
  1191     0E95                     	;# 
  1192     0E96                     	;# 
  1193     0E97                     	;# 
  1194     0E98                     	;# 
  1195     0E99                     	;# 
  1196     0E9A                     	;# 
  1197     0E9B                     	;# 
  1198     0E9C                     	;# 
  1199     0E9D                     	;# 
  1200     0E9E                     	;# 
  1201     0E9F                     	;# 
  1202     0EA0                     	;# 
  1203     0EA1                     	;# 
  1204     0EA2                     	;# 
  1205     0EA3                     	;# 
  1206     0EA4                     	;# 
  1207     0EA5                     	;# 
  1208     0EA6                     	;# 
  1209     0EA7                     	;# 
  1210     0F0F                     	;# 
  1211     0F10                     	;# 
  1212     0F11                     	;# 
  1213     0F12                     	;# 
  1214     0F13                     	;# 
  1215     0F14                     	;# 
  1216     0F15                     	;# 
  1217     0F16                     	;# 
  1218     0F17                     	;# 
  1219     0F18                     	;# 
  1220     0F19                     	;# 
  1221     0F1A                     	;# 
  1222     0F1B                     	;# 
  1223     0F1C                     	;# 
  1224     0F1D                     	;# 
  1225     0F1E                     	;# 
  1226     0F1F                     	;# 
  1227     0F20                     	;# 
  1228     0F21                     	;# 
  1229     0F22                     	;# 
  1230     0F23                     	;# 
  1231     0F24                     	;# 
  1232     0F25                     	;# 
  1233     0F26                     	;# 
  1234     0F27                     	;# 
  1235     0F28                     	;# 
  1236     0F29                     	;# 
  1237     0F2A                     	;# 
  1238     0F2B                     	;# 
  1239     0F2C                     	;# 
  1240     0F2D                     	;# 
  1241     0F2E                     	;# 
  1242     0F2F                     	;# 
  1243     0F30                     	;# 
  1244     0F31                     	;# 
  1245     0F32                     	;# 
  1246     0F33                     	;# 
  1247     0F34                     	;# 
  1248     0F35                     	;# 
  1249     0F36                     	;# 
  1250     0F37                     	;# 
  1251     0FE4                     	;# 
  1252     0FE5                     	;# 
  1253     0FE6                     	;# 
  1254     0FE7                     	;# 
  1255     0FE8                     	;# 
  1256     0FE9                     	;# 
  1257     0FEA                     	;# 
  1258     0FEB                     	;# 
  1259     0FED                     	;# 
  1260     0FEE                     	;# 
  1261     0FEF                     	;# 
  1262                           
  1263                           	psect	idataBANK0
  1264     17BF                     __pidataBANK0:
  1265                           
  1266                           ;initializer for _pba_IR_AC_Min
  1267     17BF  34EC               	retlw	236
  1268     17C0  34FF               	retlw	255
  1269                           
  1270                           ;initializer for _pba_IR_AC_Max
  1271     17C1  3414               	retlw	20
  1272     17C2  3400               	retlw	0
  1273                           
  1274                           	psect	stringtext1
  1275     074C                     __pstringtext1:
  1276     074C                     _uch_spo2_table:
  1277     074C  345F               	retlw	95
  1278     074D  345F               	retlw	95
  1279     074E  345F               	retlw	95
  1280     074F  3460               	retlw	96
  1281     0750  3460               	retlw	96
  1282     0751  3460               	retlw	96
  1283     0752  3461               	retlw	97
  1284     0753  3461               	retlw	97
  1285     0754  3461               	retlw	97
  1286     0755  3461               	retlw	97
  1287     0756  3461               	retlw	97
  1288     0757  3462               	retlw	98
  1289     0758  3462               	retlw	98
  1290     0759  3462               	retlw	98
  1291     075A  3462               	retlw	98
  1292     075B  3462               	retlw	98
  1293     075C  3463               	retlw	99
  1294     075D  3463               	retlw	99
  1295     075E  3463               	retlw	99
  1296     075F  3463               	retlw	99
  1297     0760  3463               	retlw	99
  1298     0761  3463               	retlw	99
  1299     0762  3463               	retlw	99
  1300     0763  3463               	retlw	99
  1301     0764  3464               	retlw	100
  1302     0765  3464               	retlw	100
  1303     0766  3464               	retlw	100
  1304     0767  3464               	retlw	100
  1305     0768  3464               	retlw	100
  1306     0769  3464               	retlw	100
  1307     076A  3464               	retlw	100
  1308     076B  3464               	retlw	100
  1309     076C  3464               	retlw	100
  1310     076D  3464               	retlw	100
  1311     076E  3464               	retlw	100
  1312     076F  3464               	retlw	100
  1313     0770  3464               	retlw	100
  1314     0771  3464               	retlw	100
  1315     0772  3464               	retlw	100
  1316     0773  3464               	retlw	100
  1317     0774  3464               	retlw	100
  1318     0775  3464               	retlw	100
  1319     0776  3464               	retlw	100
  1320     0777  3464               	retlw	100
  1321     0778  3463               	retlw	99
  1322     0779  3463               	retlw	99
  1323     077A  3463               	retlw	99
  1324     077B  3463               	retlw	99
  1325     077C  3463               	retlw	99
  1326     077D  3463               	retlw	99
  1327     077E  3463               	retlw	99
  1328     077F  3463               	retlw	99
  1329     0780  3462               	retlw	98
  1330     0781  3462               	retlw	98
  1331     0782  3462               	retlw	98
  1332     0783  3462               	retlw	98
  1333     0784  3462               	retlw	98
  1334     0785  3462               	retlw	98
  1335     0786  3461               	retlw	97
  1336     0787  3461               	retlw	97
  1337     0788  3461               	retlw	97
  1338     0789  3461               	retlw	97
  1339     078A  3460               	retlw	96
  1340     078B  3460               	retlw	96
  1341     078C  3460               	retlw	96
  1342     078D  3460               	retlw	96
  1343     078E  345F               	retlw	95
  1344     078F  345F               	retlw	95
  1345     0790  345F               	retlw	95
  1346     0791  345E               	retlw	94
  1347     0792  345E               	retlw	94
  1348     0793  345E               	retlw	94
  1349     0794  345D               	retlw	93
  1350     0795  345D               	retlw	93
  1351     0796  345D               	retlw	93
  1352     0797  345C               	retlw	92
  1353     0798  345C               	retlw	92
  1354     0799  345C               	retlw	92
  1355     079A  345B               	retlw	91
  1356     079B  345B               	retlw	91
  1357     079C  345A               	retlw	90
  1358     079D  345A               	retlw	90
  1359     079E  3459               	retlw	89
  1360     079F  3459               	retlw	89
  1361     07A0  3459               	retlw	89
  1362     07A1  3458               	retlw	88
  1363     07A2  3458               	retlw	88
  1364     07A3  3457               	retlw	87
  1365     07A4  3457               	retlw	87
  1366     07A5  3456               	retlw	86
  1367     07A6  3456               	retlw	86
  1368     07A7  3455               	retlw	85
  1369     07A8  3455               	retlw	85
  1370     07A9  3454               	retlw	84
  1371     07AA  3454               	retlw	84
  1372     07AB  3453               	retlw	83
  1373     07AC  3452               	retlw	82
  1374     07AD  3452               	retlw	82
  1375     07AE  3451               	retlw	81
  1376     07AF  3451               	retlw	81
  1377     07B0  3450               	retlw	80
  1378     07B1  3450               	retlw	80
  1379     07B2  344F               	retlw	79
  1380     07B3  344E               	retlw	78
  1381     07B4  344E               	retlw	78
  1382     07B5  344D               	retlw	77
  1383     07B6  344C               	retlw	76
  1384     07B7  344C               	retlw	76
  1385     07B8  344B               	retlw	75
  1386     07B9  344A               	retlw	74
  1387     07BA  344A               	retlw	74
  1388     07BB  3449               	retlw	73
  1389     07BC  3448               	retlw	72
  1390     07BD  3448               	retlw	72
  1391     07BE  3447               	retlw	71
  1392     07BF  3446               	retlw	70
  1393     07C0  3445               	retlw	69
  1394     07C1  3445               	retlw	69
  1395     07C2  3444               	retlw	68
  1396     07C3  3443               	retlw	67
  1397     07C4  3442               	retlw	66
  1398     07C5  3442               	retlw	66
  1399     07C6  3441               	retlw	65
  1400     07C7  3440               	retlw	64
  1401     07C8  343F               	retlw	63
  1402     07C9  343E               	retlw	62
  1403     07CA  343E               	retlw	62
  1404     07CB  343D               	retlw	61
  1405     07CC  343C               	retlw	60
  1406     07CD  343B               	retlw	59
  1407     07CE  343A               	retlw	58
  1408     07CF  3439               	retlw	57
  1409     07D0  3438               	retlw	56
  1410     07D1  3438               	retlw	56
  1411     07D2  3437               	retlw	55
  1412     07D3  3436               	retlw	54
  1413     07D4  3435               	retlw	53
  1414     07D5  3434               	retlw	52
  1415     07D6  3433               	retlw	51
  1416     07D7  3432               	retlw	50
  1417     07D8  3431               	retlw	49
  1418     07D9  3430               	retlw	48
  1419     07DA  342F               	retlw	47
  1420     07DB  342E               	retlw	46
  1421     07DC  342D               	retlw	45
  1422     07DD  342C               	retlw	44
  1423     07DE  342B               	retlw	43
  1424     07DF  342A               	retlw	42
  1425     07E0  3429               	retlw	41
  1426     07E1  3428               	retlw	40
  1427     07E2  3427               	retlw	39
  1428     07E3  3426               	retlw	38
  1429     07E4  3425               	retlw	37
  1430     07E5  3424               	retlw	36
  1431     07E6  3423               	retlw	35
  1432     07E7  3422               	retlw	34
  1433     07E8  3421               	retlw	33
  1434     07E9  341F               	retlw	31
  1435     07EA  341E               	retlw	30
  1436     07EB  341D               	retlw	29
  1437     07EC  341C               	retlw	28
  1438     07ED  341B               	retlw	27
  1439     07EE  341A               	retlw	26
  1440     07EF  3419               	retlw	25
  1441     07F0  3417               	retlw	23
  1442     07F1  3416               	retlw	22
  1443     07F2  3415               	retlw	21
  1444     07F3  3414               	retlw	20
  1445     07F4  3413               	retlw	19
  1446     07F5  3411               	retlw	17
  1447     07F6  3410               	retlw	16
  1448     07F7  340F               	retlw	15
  1449     07F8  340E               	retlw	14
  1450     07F9  340C               	retlw	12
  1451     07FA  340B               	retlw	11
  1452     07FB  340A               	retlw	10
  1453     07FC  3409               	retlw	9
  1454     07FD  3407               	retlw	7
  1455     07FE  3406               	retlw	6
  1456     07FF  3405               	retlw	5
  1457     0800  3403               	retlw	3
  1458     0801  3402               	retlw	2
  1459     0802  3401               	retlw	1
  1460     0803  3400               	retlw	0
  1461     0804                     __end_of_uch_spo2_table:
  1462                           
  1463                           	psect	stringtext2
  1464     1000                     __pstringtext2:
  1465     1000                     _FIRCoeffs:
  1466     1000  34AC               	retlw	172
  1467     1001  3400               	retlw	0
  1468     1002  3441               	retlw	65
  1469     1003  3401               	retlw	1
  1470     1004  3443               	retlw	67
  1471     1005  3402               	retlw	2
  1472     1006  349F               	retlw	159
  1473     1007  3403               	retlw	3
  1474     1008  3450               	retlw	80
  1475     1009  3405               	retlw	5
  1476     100A  3442               	retlw	66
  1477     100B  3407               	retlw	7
  1478     100C  3456               	retlw	86
  1479     100D  3409               	retlw	9
  1480     100E  3464               	retlw	100
  1481     100F  340B               	retlw	11
  1482     1010  343F               	retlw	63
  1483     1011  340D               	retlw	13
  1484     1012  34B8               	retlw	184
  1485     1013  340E               	retlw	14
  1486     1014  34AC               	retlw	172
  1487     1015  340F               	retlw	15
  1488     1016  3400               	retlw	0
  1489     1017  3410               	retlw	16
  1490     1018                     __end_of_FIRCoeffs:
  1491     000B                     _INTCONbits	set	11
  1492     0015                     _TMR0	set	21
  1493     0012                     _PIR2bits	set	18
  1494     0011                     _PIR1bits	set	17
  1495     008E                     _TRISCbits	set	142
  1496     008D                     _TRISBbits	set	141
  1497     0095                     _OPTION_REGbits	set	149
  1498     04CF                     _SPLLEN	set	1231
  1499     04CE                     _IRCF3	set	1230
  1500     04CD                     _IRCF2	set	1229
  1501     04CC                     _IRCF1	set	1228
  1502     04CB                     _IRCF0	set	1227
  1503     04C9                     _SCS1	set	1225
  1504     04C8                     _SCS0	set	1224
  1505     018E                     _ANSELCbits	set	398
  1506     018D                     _ANSELBbits	set	397
  1507     019A                     _TX1REG	set	410
  1508     0199                     _RC1REG	set	409
  1509     019D                     _RC1STAbits	set	413
  1510     019B                     _SPBRGL	set	411
  1511     0CF5                     _TXEN	set	3317
  1512     0CEC                     _CREN	set	3308
  1513     0CEF                     _SPEN	set	3311
  1514     0CF4                     _SYNC	set	3316
  1515     0CFB                     _BRG16	set	3323
  1516     0CF2                     _BRGH	set	3314
  1517     0211                     _SSPBUF	set	529
  1518     0216                     _SSPCON2bits	set	534
  1519     0214                     _SSPSTATbits	set	532
  1520     0216                     _SSPCON2	set	534
  1521     0215                     _SSPCON1bits	set	533
  1522     0212                     _SSPADD	set	530
  1523     0215                     _SSPCONbits	set	533
  1524     0E20                     _SSPCLKPPSbits	set	3616
  1525     0E21                     _SSPDATPPSbits	set	3617
  1526     0E24                     _RXPPSbits	set	3620
  1527     0E0F                     _PPSLOCKbits	set	3599
  1528     0E0F                     _PPSLOCK	set	3599
  1529     0EA5                     _RC5PPSbits	set	3749
  1530     0EA4                     _RC4PPSbits	set	3748
  1531     0E9A                     _RB2PPSbits	set	3738
  1532     1018                     STR_3:
  1533     1018  3428               	retlw	40	;'('
  1534     1019  3453               	retlw	83	;'S'
  1535     101A  3470               	retlw	112	;'p'
  1536     101B  3461               	retlw	97	;'a'
  1537     101C  3472               	retlw	114	;'r'
  1538     101D  346B               	retlw	107	;'k'
  1539     101E  3446               	retlw	70	;'F'
  1540     101F  3475               	retlw	117	;'u'
  1541     1020  346E               	retlw	110	;'n'
  1542     1021  3420               	retlw	32	;' '
  1543     1022  3450               	retlw	80	;'P'
  1544     1023  3442               	retlw	66	;'B'
  1545     1024  3441               	retlw	65	;'A'
  1546     1025  3420               	retlw	32	;' '
  1547     1026  3441               	retlw	65	;'A'
  1548     1027  346C               	retlw	108	;'l'
  1549     1028  3467               	retlw	103	;'g'
  1550     1029  346F               	retlw	111	;'o'
  1551     102A  3472               	retlw	114	;'r'
  1552     102B  3469               	retlw	105	;'i'
  1553     102C  3474               	retlw	116	;'t'
  1554     102D  3468               	retlw	104	;'h'
  1555     102E  346D               	retlw	109	;'m'
  1556     102F  3420               	retlw	32	;' '
  1557     1030  3450               	retlw	80	;'P'
  1558     1031  346F               	retlw	111	;'o'
  1559     1032  3472               	retlw	114	;'r'
  1560     1033  3474               	retlw	116	;'t'
  1561     1034  3429               	retlw	41	;')'
  1562     1035  340D               	retlw	13
  1563     1036  340A               	retlw	10
  1564     1037  3400               	retlw	0
  1565                           
  1566                           	psect	stringtext3
  1567     1038                     __pstringtext3:
  1568     1038                     STR_4:
  1569     1038  342D               	retlw	45	;'-'
  1570     1039  342D               	retlw	45	;'-'
  1571     103A  342D               	retlw	45	;'-'
  1572     103B  342D               	retlw	45	;'-'
  1573     103C  342D               	retlw	45	;'-'
  1574     103D  342D               	retlw	45	;'-'
  1575     103E  342D               	retlw	45	;'-'
  1576     103F  342D               	retlw	45	;'-'
  1577     1040  342D               	retlw	45	;'-'
  1578     1041  342D               	retlw	45	;'-'
  1579     1042  342D               	retlw	45	;'-'
  1580     1043  342D               	retlw	45	;'-'
  1581     1044  342D               	retlw	45	;'-'
  1582     1045  342D               	retlw	45	;'-'
  1583     1046  342D               	retlw	45	;'-'
  1584     1047  342D               	retlw	45	;'-'
  1585     1048  342D               	retlw	45	;'-'
  1586     1049  342D               	retlw	45	;'-'
  1587     104A  342D               	retlw	45	;'-'
  1588     104B  342D               	retlw	45	;'-'
  1589     104C  342D               	retlw	45	;'-'
  1590     104D  342D               	retlw	45	;'-'
  1591     104E  342D               	retlw	45	;'-'
  1592     104F  342D               	retlw	45	;'-'
  1593     1050  342D               	retlw	45	;'-'
  1594     1051  342D               	retlw	45	;'-'
  1595     1052  342D               	retlw	45	;'-'
  1596     1053  342D               	retlw	45	;'-'
  1597     1054  340D               	retlw	13
  1598     1055  340A               	retlw	10
  1599     1056  3400               	retlw	0
  1600                           
  1601                           	psect	stringtext4
  1602     1057                     __pstringtext4:
  1603     1057                     STR_2:
  1604     1057  340D               	retlw	13
  1605     1058  340A               	retlw	10
  1606     1059  344D               	retlw	77	;'M'
  1607     105A  3441               	retlw	65	;'A'
  1608     105B  3458               	retlw	88	;'X'
  1609     105C  3433               	retlw	51	;'3'
  1610     105D  3430               	retlw	48	;'0'
  1611     105E  3431               	retlw	49	;'1'
  1612     105F  3430               	retlw	48	;'0'
  1613     1060  3432               	retlw	50	;'2'
  1614     1061  3420               	retlw	32	;' '
  1615     1062  3450               	retlw	80	;'P'
  1616     1063  3475               	retlw	117	;'u'
  1617     1064  346C               	retlw	108	;'l'
  1618     1065  3473               	retlw	115	;'s'
  1619     1066  3465               	retlw	101	;'e'
  1620     1067  3420               	retlw	32	;' '
  1621     1068  344F               	retlw	79	;'O'
  1622     1069  3478               	retlw	120	;'x'
  1623     106A  3469               	retlw	105	;'i'
  1624     106B  346D               	retlw	109	;'m'
  1625     106C  3465               	retlw	101	;'e'
  1626     106D  3474               	retlw	116	;'t'
  1627     106E  3465               	retlw	101	;'e'
  1628     106F  3472               	retlw	114	;'r'
  1629     1070  3420               	retlw	32	;' '
  1630     1071  3476               	retlw	118	;'v'
  1631     1072  3432               	retlw	50	;'2'
  1632     1073  340D               	retlw	13
  1633     1074  340A               	retlw	10
  1634     1075  3400               	retlw	0
  1635                           
  1636                           	psect	stringtext5
  1637     1076                     __pstringtext5:
  1638     1076                     STR_7:
  1639     1076  3450               	retlw	80	;'P'
  1640     1077  346C               	retlw	108	;'l'
  1641     1078  3461               	retlw	97	;'a'
  1642     1079  3463               	retlw	99	;'c'
  1643     107A  3465               	retlw	101	;'e'
  1644     107B  3420               	retlw	32	;' '
  1645     107C  3466               	retlw	102	;'f'
  1646     107D  3469               	retlw	105	;'i'
  1647     107E  346E               	retlw	110	;'n'
  1648     107F  3467               	retlw	103	;'g'
  1649     1080  3465               	retlw	101	;'e'
  1650     1081  3472               	retlw	114	;'r'
  1651     1082  3420               	retlw	32	;' '
  1652     1083  346F               	retlw	111	;'o'
  1653     1084  346E               	retlw	110	;'n'
  1654     1085  3420               	retlw	32	;' '
  1655     1086  3473               	retlw	115	;'s'
  1656     1087  3465               	retlw	101	;'e'
  1657     1088  346E               	retlw	110	;'n'
  1658     1089  3473               	retlw	115	;'s'
  1659     108A  346F               	retlw	111	;'o'
  1660     108B  3472               	retlw	114	;'r'
  1661     108C  342E               	retlw	46	;'.'
  1662     108D  342E               	retlw	46	;'.'
  1663     108E  342E               	retlw	46	;'.'
  1664     108F  340D               	retlw	13
  1665     1090  340A               	retlw	10
  1666     1091  340D               	retlw	13
  1667     1092  340A               	retlw	10
  1668     1093  3400               	retlw	0
  1669                           
  1670                           	psect	stringtext6
  1671     1094                     __pstringtext6:
  1672     1094                     STR_6:
  1673     1094  3449               	retlw	73	;'I'
  1674     1095  346E               	retlw	110	;'n'
  1675     1096  3469               	retlw	105	;'i'
  1676     1097  3474               	retlw	116	;'t'
  1677     1098  3420               	retlw	32	;' '
  1678     1099  3446               	retlw	70	;'F'
  1679     109A  3441               	retlw	65	;'A'
  1680     109B  3449               	retlw	73	;'I'
  1681     109C  344C               	retlw	76	;'L'
  1682     109D  3445               	retlw	69	;'E'
  1683     109E  3444               	retlw	68	;'D'
  1684     109F  3421               	retlw	33	;'!'
  1685     10A0  3420               	retlw	32	;' '
  1686     10A1  3443               	retlw	67	;'C'
  1687     10A2  3468               	retlw	104	;'h'
  1688     10A3  3465               	retlw	101	;'e'
  1689     10A4  3463               	retlw	99	;'c'
  1690     10A5  346B               	retlw	107	;'k'
  1691     10A6  3420               	retlw	32	;' '
  1692     10A7  3477               	retlw	119	;'w'
  1693     10A8  3469               	retlw	105	;'i'
  1694     10A9  3472               	retlw	114	;'r'
  1695     10AA  3469               	retlw	105	;'i'
  1696     10AB  346E               	retlw	110	;'n'
  1697     10AC  3467               	retlw	103	;'g'
  1698     10AD  342E               	retlw	46	;'.'
  1699     10AE  340D               	retlw	13
  1700     10AF  340A               	retlw	10
  1701     10B0  3400               	retlw	0
  1702                           
  1703                           	psect	stringtext7
  1704     10B1                     __pstringtext7:
  1705     10B1                     STR_9:
  1706     10B1  342D               	retlw	45	;'-'
  1707     10B2  342D               	retlw	45	;'-'
  1708     10B3  3420               	retlw	32	;' '
  1709     10B4  3446               	retlw	70	;'F'
  1710     10B5  3469               	retlw	105	;'i'
  1711     10B6  346E               	retlw	110	;'n'
  1712     10B7  3467               	retlw	103	;'g'
  1713     10B8  3465               	retlw	101	;'e'
  1714     10B9  3472               	retlw	114	;'r'
  1715     10BA  3420               	retlw	32	;' '
  1716     10BB  3464               	retlw	100	;'d'
  1717     10BC  3465               	retlw	101	;'e'
  1718     10BD  3474               	retlw	116	;'t'
  1719     10BE  3465               	retlw	101	;'e'
  1720     10BF  3463               	retlw	99	;'c'
  1721     10C0  3474               	retlw	116	;'t'
  1722     10C1  3465               	retlw	101	;'e'
  1723     10C2  3464               	retlw	100	;'d'
  1724     10C3  3420               	retlw	32	;' '
  1725     10C4  342D               	retlw	45	;'-'
  1726     10C5  342D               	retlw	45	;'-'
  1727     10C6  340D               	retlw	13
  1728     10C7  340A               	retlw	10
  1729     10C8  3400               	retlw	0
  1730                           
  1731                           	psect	stringtext8
  1732     10C9                     __pstringtext8:
  1733     10C9                     STR_8:
  1734     10C9  342D               	retlw	45	;'-'
  1735     10CA  342D               	retlw	45	;'-'
  1736     10CB  3420               	retlw	32	;' '
  1737     10CC  3446               	retlw	70	;'F'
  1738     10CD  3469               	retlw	105	;'i'
  1739     10CE  346E               	retlw	110	;'n'
  1740     10CF  3467               	retlw	103	;'g'
  1741     10D0  3465               	retlw	101	;'e'
  1742     10D1  3472               	retlw	114	;'r'
  1743     10D2  3420               	retlw	32	;' '
  1744     10D3  3472               	retlw	114	;'r'
  1745     10D4  3465               	retlw	101	;'e'
  1746     10D5  346D               	retlw	109	;'m'
  1747     10D6  346F               	retlw	111	;'o'
  1748     10D7  3476               	retlw	118	;'v'
  1749     10D8  3465               	retlw	101	;'e'
  1750     10D9  3464               	retlw	100	;'d'
  1751     10DA  3420               	retlw	32	;' '
  1752     10DB  342D               	retlw	45	;'-'
  1753     10DC  342D               	retlw	45	;'-'
  1754     10DD  340D               	retlw	13
  1755     10DE  340A               	retlw	10
  1756     10DF  3400               	retlw	0
  1757                           
  1758                           	psect	stringtext9
  1759     1800                     __pstringtext9:
  1760     1800                     STR_16:
  1761     1800  3420               	retlw	32	;' '
  1762     1801  3420               	retlw	32	;' '
  1763     1802  3453               	retlw	83	;'S'
  1764     1803  3470               	retlw	112	;'p'
  1765     1804  344F               	retlw	79	;'O'
  1766     1805  3432               	retlw	50	;'2'
  1767     1806  343D               	retlw	61	;'='
  1768     1807  342D               	retlw	45	;'-'
  1769     1808  342D               	retlw	45	;'-'
  1770     1809  342D               	retlw	45	;'-'
  1771     180A  3425               	retlw	37	;'%'
  1772     180B  3400               	retlw	0
  1773                           
  1774                           	psect	stringtext10
  1775     180C                     __pstringtext10:
  1776     180C                     STR_5:
  1777     180C  3449               	retlw	73	;'I'
  1778     180D  346E               	retlw	110	;'n'
  1779     180E  3469               	retlw	105	;'i'
  1780     180F  3474               	retlw	116	;'t'
  1781     1810  3420               	retlw	32	;' '
  1782     1811  344F               	retlw	79	;'O'
  1783     1812  344B               	retlw	75	;'K'
  1784     1813  340D               	retlw	13
  1785     1814  340A               	retlw	10
  1786     1815  3400               	retlw	0
  1787                           
  1788                           	psect	stringtext11
  1789     1816                     __pstringtext11:
  1790     1816                     STR_13:
  1791     1816  3420               	retlw	32	;' '
  1792     1817  3420               	retlw	32	;' '
  1793     1818  3442               	retlw	66	;'B'
  1794     1819  3450               	retlw	80	;'P'
  1795     181A  344D               	retlw	77	;'M'
  1796     181B  343D               	retlw	61	;'='
  1797     181C  342D               	retlw	45	;'-'
  1798     181D  342D               	retlw	45	;'-'
  1799     181E  342D               	retlw	45	;'-'
  1800     181F  3400               	retlw	0
  1801                           
  1802                           	psect	stringtext12
  1803     1820                     __pstringtext12:
  1804     1820                     STR_14:
  1805     1820  3420               	retlw	32	;' '
  1806     1821  3420               	retlw	32	;' '
  1807     1822  3453               	retlw	83	;'S'
  1808     1823  3470               	retlw	112	;'p'
  1809     1824  344F               	retlw	79	;'O'
  1810     1825  3432               	retlw	50	;'2'
  1811     1826  343D               	retlw	61	;'='
  1812     1827  3400               	retlw	0
  1813                           
  1814                           	psect	stringtext13
  1815     1828                     __pstringtext13:
  1816     1828                     STR_12:
  1817     1828  3420               	retlw	32	;' '
  1818     1829  3420               	retlw	32	;' '
  1819     182A  3442               	retlw	66	;'B'
  1820     182B  3450               	retlw	80	;'P'
  1821     182C  344D               	retlw	77	;'M'
  1822     182D  343D               	retlw	61	;'='
  1823     182E  3400               	retlw	0
  1824                           
  1825                           	psect	stringtext14
  1826     182F                     __pstringtext14:
  1827     182F                     STR_11:
  1828     182F  3420               	retlw	32	;' '
  1829     1830  3420               	retlw	32	;' '
  1830     1831  3452               	retlw	82	;'R'
  1831     1832  3465               	retlw	101	;'e'
  1832     1833  3464               	retlw	100	;'d'
  1833     1834  343D               	retlw	61	;'='
  1834     1835  3400               	retlw	0
  1835                           
  1836                           	psect	stringtext15
  1837     1836                     __pstringtext15:
  1838     1836                     STR_10:
  1839     1836  3449               	retlw	73	;'I'
  1840     1837  3452               	retlw	82	;'R'
  1841     1838  343D               	retlw	61	;'='
  1842     1839  3400               	retlw	0
  1843                           
  1844                           	psect	stringtext16
  1845     183A                     __pstringtext16:
  1846     183A                     STR_1:
  1847     183A  3430               	retlw	48	;'0'
  1848     183B  3400               	retlw	0
  1849                           
  1850                           	psect	stringtext17
  1851     0000                     __pstringtext17:
  1852     1091                     
  1853                           	psect	cinit
  1854     001B                     start_initialization:	
  1855                           ; #config settings
  1856                           
  1857     001B                     __initialization:
  1858                           
  1859                           ; Initialize objects allocated to BANK0
  1860     001B  3197  27BF  3180   	fcall	__pidataBANK0	;fetch initializer
  1861     001E  00EC               	movwf	__pdataBANK0& (0+127)
  1862     001F  3197  27C0  3180   	fcall	__pidataBANK0+1	;fetch initializer
  1863     0022  00ED               	movwf	(__pdataBANK0+1)& (0+127)
  1864     0023  3197  27C1  3180   	fcall	__pidataBANK0+2	;fetch initializer
  1865     0026  00EE               	movwf	(__pdataBANK0+2)& (0+127)
  1866     0027  3197  27C2  3180   	fcall	__pidataBANK0+3	;fetch initializer
  1867     002A  00EF               	movwf	(__pdataBANK0+3)& (0+127)
  1868                           
  1869                           ; Clear objects allocated to BANK0
  1870     002B  305B               	movlw	low __pbssBANK0
  1871     002C  0084               	movwf	4
  1872     002D  3000               	movlw	high __pbssBANK0
  1873     002E  0085               	movwf	5
  1874     002F  3011               	movlw	17
  1875     0030  3197  27C3  3180   	fcall	clear_ram0
  1876                           
  1877                           ; Clear objects allocated to BANK2
  1878     0033  3020               	movlw	low __pbssBANK2
  1879     0034  0084               	movwf	4
  1880     0035  3001               	movlw	high __pbssBANK2
  1881     0036  0085               	movwf	5
  1882     0037  3034               	movlw	52
  1883     0038  3197  27C3  3180   	fcall	clear_ram0
  1884                           
  1885                           ; Clear objects allocated to BANK3
  1886     003B  30A0               	movlw	low __pbssBANK3
  1887     003C  0084               	movwf	4
  1888     003D  3001               	movlw	high __pbssBANK3
  1889     003E  0085               	movwf	5
  1890     003F  3020               	movlw	32
  1891     0040  3197  27C3  3180   	fcall	clear_ram0
  1892                           
  1893                           ; Clear objects allocated to BANK4
  1894     0043  3020               	movlw	low __pbssBANK4
  1895     0044  0084               	movwf	4
  1896     0045  3002               	movlw	high __pbssBANK4
  1897     0046  0085               	movwf	5
  1898     0047  3040               	movlw	64
  1899     0048  3197  27C3  3180   	fcall	clear_ram0
  1900     004B                     end_of_initialization:	
  1901                           ;End of C runtime variable initialization code
  1902                           
  1903     004B                     __end_of__initialization:
  1904     004B  107E               	bcf	int$flags,0	;clear compiler interrupt flag (level 1)
  1905     004C  0020               	movlb	0
  1906     004D  3180  284F         	ljmp	_main	;jump to C main() function
  1907                           
  1908                           	psect	bssBANK0
  1909     005B                     __pbssBANK0:
  1910     005B                     _pba_negativeEdge:
  1911     005B                     	ds	2
  1912     005D                     _pba_positiveEdge:
  1913     005D                     	ds	2
  1914     005F                     _pba_IR_AC_Signal_max:
  1915     005F                     	ds	2
  1916     0061                     _pba_IR_AC_Signal_min:
  1917     0061                     	ds	2
  1918     0063                     _pba_IR_AC_Signal_Previous:
  1919     0063                     	ds	2
  1920     0065                     _pba_IR_AC_Signal_Current:
  1921     0065                     	ds	2
  1922     0067                     _beat_count:
  1923     0067                     	ds	1
  1924     0068                     _beat_idx:
  1925     0068                     	ds	1
  1926     0069                     _pba_offset:
  1927     0069                     	ds	1
  1928     006A                     _beat_avg_interval:
  1929     006A                     	ds	2
  1930                           
  1931                           	psect	dataBANK0
  1932     006C                     __pdataBANK0:
  1933     006C                     _pba_IR_AC_Min:
  1934     006C                     	ds	2
  1935     006E                     _pba_IR_AC_Max:
  1936     006E                     	ds	2
  1937                           
  1938                           	psect	bssBANK2
  1939     0120                     __pbssBANK2:
  1940     0120                     _spo2_acc:
  1941     0120                     	ds	26
  1942     013A                     _beat_intervals:
  1943     013A                     	ds	16
  1944     014A                     _millis_counter:
  1945     014A                     	ds	4
  1946     014E                     UART_PrintUint32@F6192:
  1947     014E                     	ds	2
  1948     0150                     _pba_ir_avg_reg:
  1949     0150                     	ds	4
  1950                           
  1951                           	psect	bssBANK3
  1952     01A0                     __pbssBANK3:
  1953     01A0                     _beat_times:
  1954     01A0                     	ds	32
  1955                           
  1956                           	psect	bssBANK4
  1957     0220                     __pbssBANK4:
  1958     0220                     _pba_cbuf:
  1959     0220                     	ds	64
  1960                           
  1961                           	psect	clrtext
  1962     17C3                     clear_ram0:	
  1963                           ;	Called with FSR0 containing the base address, and
  1964                           ;	WREG with the size to clear
  1965                           
  1966     17C3  0064               	clrwdt	;clear the watchdog before getting into this loop
  1967     17C4                     clrloop0:
  1968     17C4  0180               	clrf	0	;clear RAM location pointed to by FSR
  1969     17C5  3101               	addfsr 0,1
  1970     17C6  0B89               	decfsz	9,f	;Have we reached the end of clearing yet?
  1971     17C7  2FC4               	goto	clrloop0	;have we reached the end yet?
  1972     17C8  3400               	retlw	0	;all done for this memory range, return
  1973                           
  1974                           	psect	cstackBANK2
  1975     0154                     __pcstackBANK2:
  1976     0154                     main@ir:
  1977                           
  1978                           ; 4 bytes @ 0x0
  1979     0154                     	ds	4
  1980     0158                     main@beat_now:
  1981                           
  1982                           ; 4 bytes @ 0x4
  1983     0158                     	ds	4
  1984     015C                     main@i:
  1985                           
  1986                           ; 1 bytes @ 0x8
  1987     015C                     	ds	1
  1988     015D                     main@finger_present:
  1989                           
  1990                           ; 1 bytes @ 0x9
  1991     015D                     	ds	1
  1992     015E                     main@n:
  1993                           
  1994                           ; 1 bytes @ 0xA
  1995     015E                     	ds	1
  1996                           
  1997                           	psect	cstackBANK1
  1998     00A0                     __pcstackBANK1:
  1999     00A0                     main@red_buf:
  2000                           
  2001                           ; 32 bytes @ 0x0
  2002     00A0                     	ds	32
  2003     00C0                     main@ir_buf:
  2004                           
  2005                           ; 32 bytes @ 0x20
  2006     00C0                     	ds	32
  2007     00E0                     main@red:
  2008                           
  2009                           ; 4 bytes @ 0x40
  2010     00E0                     	ds	4
  2011     00E4                     main@last_beat_ms:
  2012                           
  2013                           ; 4 bytes @ 0x44
  2014     00E4                     	ds	4
  2015     00E8                     main@now:
  2016                           
  2017                           ; 4 bytes @ 0x48
  2018     00E8                     	ds	4
  2019     00EC                     main@s:
  2020                           
  2021                           ; 1 bytes @ 0x4C
  2022     00EC                     	ds	1
  2023     00ED                     main@current_bpm:
  2024                           
  2025                           ; 2 bytes @ 0x4D
  2026     00ED                     	ds	2
  2027     00EF                     main@current_spo2:
  2028                           
  2029                           ; 1 bytes @ 0x4F
  2030     00EF                     	ds	1
  2031                           
  2032                           	psect	cstackCOMMON
  2033     0070                     __pcstackCOMMON:
  2034     0070                     ?_I2C_ClearErrors:
  2035     0070                     ??_I2C_ClearErrors:	
  2036                           ; 1 bytes @ 0x0
  2037                           
  2038     0070                     ?_EUSART_Write:	
  2039                           ; 1 bytes @ 0x0
  2040                           
  2041     0070                     ??_EUSART_Write:	
  2042                           ; 1 bytes @ 0x0
  2043                           
  2044     0070                     ?_I2C_WaitIF:	
  2045                           ; 1 bytes @ 0x0
  2046                           
  2047     0070                     ?_I2C_Init:	
  2048                           ; 1 bytes @ 0x0
  2049                           
  2050     0070                     ??_I2C_Init:	
  2051                           ; 1 bytes @ 0x0
  2052                           
  2053     0070                     ?_I2C_WaitIdle:	
  2054                           ; 1 bytes @ 0x0
  2055                           
  2056     0070                     ?_I2C_Start:	
  2057                           ; 1 bytes @ 0x0
  2058                           
  2059     0070                     ?_I2C_RepeatedStart:	
  2060                           ; 1 bytes @ 0x0
  2061                           
  2062     0070                     ?_I2C_Stop:	
  2063                           ; 1 bytes @ 0x0
  2064                           
  2065     0070                     ?_I2C_WriteByte:	
  2066                           ; 1 bytes @ 0x0
  2067                           
  2068     0070                     ?_internal_32:	
  2069                           ; 1 bytes @ 0x0
  2070                           
  2071     0070                     ??_internal_32:	
  2072                           ; 1 bytes @ 0x0
  2073                           
  2074     0070                     ?_TMR0_Init:	
  2075                           ; 1 bytes @ 0x0
  2076                           
  2077     0070                     ??_TMR0_Init:	
  2078                           ; 1 bytes @ 0x0
  2079                           
  2080     0070                     ?_ISR:	
  2081                           ; 1 bytes @ 0x0
  2082                           
  2083     0070                     ??_ISR:	
  2084                           ; 1 bytes @ 0x0
  2085                           
  2086     0070                     ?_readRegister8:	
  2087                           ; 1 bytes @ 0x0
  2088                           
  2089     0070                     ?_MAX30102_softReset:	
  2090                           ; 1 bytes @ 0x0
  2091                           
  2092     0070                     ?_MAX30102_clearFIFO:	
  2093                           ; 1 bytes @ 0x0
  2094                           
  2095     0070                     ?_MAX30102_Init:	
  2096                           ; 1 bytes @ 0x0
  2097                           
  2098     0070                     ?_pba_init:	
  2099                           ; 1 bytes @ 0x0
  2100                           
  2101     0070                     ??_pba_init:	
  2102                           ; 1 bytes @ 0x0
  2103                           
  2104     0070                     ?_spo2_reset:	
  2105                           ; 1 bytes @ 0x0
  2106                           
  2107     0070                     ??_spo2_reset:	
  2108                           ; 1 bytes @ 0x0
  2109                           
  2110     0070                     ?_spo2_accumulate:	
  2111                           ; 1 bytes @ 0x0
  2112                           
  2113     0070                     ?_spo2_compute:	
  2114                           ; 1 bytes @ 0x0
  2115                           
  2116     0070                     ?_bpm_init:	
  2117                           ; 1 bytes @ 0x0
  2118                           
  2119     0070                     ??_bpm_init:	
  2120                           ; 1 bytes @ 0x0
  2121                           
  2122     0070                     ?_initMain:	
  2123                           ; 1 bytes @ 0x0
  2124                           
  2125     0070                     ??_initMain:	
  2126                           ; 1 bytes @ 0x0
  2127                           
  2128     0070                     ?_main:	
  2129                           ; 1 bytes @ 0x0
  2130                           
  2131     0070                     ?_averageDCEstimator:	
  2132                           ; 1 bytes @ 0x0
  2133                           
  2134     0070                     ?_millis:	
  2135                           ; 2 bytes @ 0x0
  2136                           
  2137     0070                     ?___lmul:	
  2138                           ; 4 bytes @ 0x0
  2139                           
  2140     0070                     ?___aldiv:	
  2141                           ; 4 bytes @ 0x0
  2142                           
  2143     0070                     ?___llmod:	
  2144                           ; 4 bytes @ 0x0
  2145                           
  2146     0070                     EUSART_Write@txData:	
  2147                           ; 4 bytes @ 0x0
  2148                           
  2149     0070                     I2C_WaitIF@timeout_ms:	
  2150                           ; 1 bytes @ 0x0
  2151                           
  2152     0070                     I2C_WaitIdle@timeout_ms:	
  2153                           ; 2 bytes @ 0x0
  2154                           
  2155     0070                     averageDCEstimator@x:	
  2156                           ; 2 bytes @ 0x0
  2157                           
  2158     0070                     spo2_accumulate@ir:	
  2159                           ; 2 bytes @ 0x0
  2160                           
  2161     0070                     ___lmul@multiplier:	
  2162                           ; 4 bytes @ 0x0
  2163                           
  2164     0070                     ___aldiv@divisor:	
  2165                           ; 4 bytes @ 0x0
  2166                           
  2167     0070                     ___llmod@divisor:	
  2168                           ; 4 bytes @ 0x0
  2169                           
  2170                           
  2171                           ; 4 bytes @ 0x0
  2172     0070                     	ds	1
  2173     0071                     ?_EUSART_Write_Text:
  2174     0071                     pba_init@i:	
  2175                           ; 1 bytes @ 0x1
  2176                           
  2177     0071                     bpm_init@i:	
  2178                           ; 1 bytes @ 0x1
  2179                           
  2180     0071                     EUSART_Write_Text@text:	
  2181                           ; 1 bytes @ 0x1
  2182                           
  2183                           
  2184                           ; 2 bytes @ 0x1
  2185     0071                     	ds	1
  2186     0072                     ??_I2C_WaitIF:
  2187     0072                     ??_I2C_WaitIdle:	
  2188                           ; 1 bytes @ 0x2
  2189                           
  2190     0072                     ??_averageDCEstimator:	
  2191                           ; 1 bytes @ 0x2
  2192                           
  2193                           
  2194                           ; 1 bytes @ 0x2
  2195     0072                     	ds	1
  2196     0073                     ??_EUSART_Write_Text:
  2197     0073                     ??_I2C_Start:	
  2198                           ; 1 bytes @ 0x3
  2199                           
  2200     0073                     ??_I2C_RepeatedStart:	
  2201                           ; 1 bytes @ 0x3
  2202                           
  2203     0073                     ??_I2C_Stop:	
  2204                           ; 1 bytes @ 0x3
  2205                           
  2206     0073                     ??_I2C_WriteByte:	
  2207                           ; 1 bytes @ 0x3
  2208                           
  2209     0073                     ?_I2C_ReadByte:	
  2210                           ; 1 bytes @ 0x3
  2211                           
  2212     0073                     I2C_Start@st:	
  2213                           ; 1 bytes @ 0x3
  2214                           
  2215     0073                     I2C_RepeatedStart@st:	
  2216                           ; 1 bytes @ 0x3
  2217                           
  2218     0073                     I2C_Stop@st:	
  2219                           ; 1 bytes @ 0x3
  2220                           
  2221     0073                     I2C_WriteByte@data:	
  2222                           ; 1 bytes @ 0x3
  2223                           
  2224     0073                     I2C_ReadByte@ack:	
  2225                           ; 1 bytes @ 0x3
  2226                           
  2227                           
  2228                           ; 1 bytes @ 0x3
  2229     0073                     	ds	1
  2230     0074                     ??_I2C_ReadByte:
  2231     0074                     ??_millis:	
  2232                           ; 1 bytes @ 0x4
  2233                           
  2234     0074                     I2C_WriteByte@st:	
  2235                           ; 1 bytes @ 0x4
  2236                           
  2237     0074                     I2C_ReadByte@data:	
  2238                           ; 1 bytes @ 0x4
  2239                           
  2240     0074                     EUSART_Write_Text@i:	
  2241                           ; 1 bytes @ 0x4
  2242                           
  2243     0074                     millis@val:	
  2244                           ; 2 bytes @ 0x4
  2245                           
  2246     0074                     spo2_accumulate@red:	
  2247                           ; 4 bytes @ 0x4
  2248                           
  2249     0074                     ___lmul@multiplicand:	
  2250                           ; 4 bytes @ 0x4
  2251                           
  2252     0074                     ___aldiv@dividend:	
  2253                           ; 4 bytes @ 0x4
  2254                           
  2255     0074                     ___llmod@dividend:	
  2256                           ; 4 bytes @ 0x4
  2257                           
  2258                           
  2259                           ; 4 bytes @ 0x4
  2260     0074                     	ds	1
  2261     0075                     ?_i2c_write_bytes:
  2262     0075                     I2C_ReadByte@st:	
  2263                           ; 1 bytes @ 0x5
  2264                           
  2265     0075                     i2c_write_bytes@reg:	
  2266                           ; 1 bytes @ 0x5
  2267                           
  2268                           
  2269                           ; 1 bytes @ 0x5
  2270     0075                     	ds	1
  2271     0076                     ?_i2c_read_bytes:
  2272     0076                     i2c_write_bytes@src:	
  2273                           ; 1 bytes @ 0x6
  2274                           
  2275     0076                     i2c_read_bytes@reg:	
  2276                           ; 1 bytes @ 0x6
  2277                           
  2278                           
  2279                           ; 1 bytes @ 0x6
  2280     0076                     	ds	1
  2281     0077                     i2c_write_bytes@len:
  2282     0077                     i2c_read_bytes@dst:	
  2283                           ; 1 bytes @ 0x7
  2284                           
  2285                           
  2286                           ; 1 bytes @ 0x7
  2287     0077                     	ds	1
  2288     0078                     ??_i2c_write_bytes:
  2289     0078                     ??_spo2_accumulate:	
  2290                           ; 1 bytes @ 0x8
  2291                           
  2292     0078                     ??___lmul:	
  2293                           ; 1 bytes @ 0x8
  2294                           
  2295     0078                     ??___aldiv:	
  2296                           ; 1 bytes @ 0x8
  2297                           
  2298     0078                     ??___llmod:	
  2299                           ; 1 bytes @ 0x8
  2300                           
  2301     0078                     i2c_read_bytes@len:	
  2302                           ; 1 bytes @ 0x8
  2303                           
  2304     0078                     ___lmul@product:	
  2305                           ; 1 bytes @ 0x8
  2306                           
  2307                           
  2308                           ; 4 bytes @ 0x8
  2309     0078                     	ds	1
  2310     0079                     ??_i2c_read_bytes:
  2311     0079                     i2c_write_bytes@addr7:	
  2312                           ; 1 bytes @ 0x9
  2313                           
  2314     0079                     ___llmod@counter:	
  2315                           ; 1 bytes @ 0x9
  2316                           
  2317     0079                     EUSART_Initialize@x:	
  2318                           ; 1 bytes @ 0x9
  2319                           
  2320                           
  2321                           ; 2 bytes @ 0x9
  2322     0079                     	ds	1
  2323     007A                     i2c_write_bytes@i:
  2324                           
  2325                           ; 1 bytes @ 0xA
  2326     007A                     	ds	1
  2327     007B                     ?_writeRegister8:
  2328     007B                     i2c_read_bytes@ack:	
  2329                           ; 1 bytes @ 0xB
  2330                           
  2331     007B                     writeRegister8@value:	
  2332                           ; 1 bytes @ 0xB
  2333                           
  2334     007B                     averageDCEstimator@p:	
  2335                           ; 1 bytes @ 0xB
  2336                           
  2337                           
  2338                           ; 1 bytes @ 0xB
  2339     007B                     	ds	1
  2340     007C                     ??_writeRegister8:
  2341     007C                     ??_mul16:	
  2342                           ; 1 bytes @ 0xC
  2343                           
  2344     007C                     ??___lldiv:	
  2345                           ; 1 bytes @ 0xC
  2346                           
  2347     007C                     ?_lowPassFIRFilter:	
  2348                           ; 1 bytes @ 0xC
  2349                           
  2350     007C                     i2c_read_bytes@addr7:	
  2351                           ; 2 bytes @ 0xC
  2352                           
  2353     007C                     writeRegister8@reg:	
  2354                           ; 1 bytes @ 0xC
  2355                           
  2356     007C                     lowPassFIRFilter@din:	
  2357                           ; 1 bytes @ 0xC
  2358                           
  2359                           
  2360                           ; 2 bytes @ 0xC
  2361     007C                     	ds	1
  2362     007D                     ??_MAX30102_clearFIFO:
  2363     007D                     ??_bpm_calculate:	
  2364                           ; 1 bytes @ 0xD
  2365                           
  2366     007D                     ??_UART_PrintUint32:	
  2367                           ; 1 bytes @ 0xD
  2368                           
  2369     007D                     i2c_read_bytes@i:	
  2370                           ; 1 bytes @ 0xD
  2371                           
  2372                           
  2373                           ; 1 bytes @ 0xD
  2374     007D                     	ds	1
  2375     007E                     ??_readRegister8:
  2376     007E                     ??_bitMask:	
  2377                           ; 1 bytes @ 0xE
  2378                           
  2379     007E                     ??_MAX30102_Init:	
  2380                           ; 1 bytes @ 0xE
  2381                           
  2382     007E                     ??_UART_PrintUint16:	
  2383                           ; 1 bytes @ 0xE
  2384                           
  2385                           
  2386                           	psect	cstackBANK0
  2387     0020                     __pcstackBANK0:	
  2388                           ; 1 bytes @ 0xE
  2389                           
  2390     0020                     ?_mul16:
  2391     0020                     ?___lldiv:	
  2392                           ; 4 bytes @ 0x0
  2393                           
  2394     0020                     readRegister8@reg:	
  2395                           ; 4 bytes @ 0x0
  2396                           
  2397     0020                     ___aldiv@counter:	
  2398                           ; 1 bytes @ 0x0
  2399                           
  2400     0020                     mul16@x:	
  2401                           ; 1 bytes @ 0x0
  2402                           
  2403     0020                     ___lldiv@divisor:	
  2404                           ; 2 bytes @ 0x0
  2405                           
  2406                           
  2407                           ; 4 bytes @ 0x0
  2408     0020                     	ds	1
  2409     0021                     readRegister8@val:
  2410     0021                     ___aldiv@sign:	
  2411                           ; 1 bytes @ 0x1
  2412                           
  2413                           
  2414                           ; 1 bytes @ 0x1
  2415     0021                     	ds	1
  2416     0022                     ?_bitMask:
  2417     0022                     ?_MAX30102_check:	
  2418                           ; 1 bytes @ 0x2
  2419                           
  2420     0022                     bitMask@mask:	
  2421                           ; 1 bytes @ 0x2
  2422                           
  2423     0022                     MAX30102_check@ir_buf:	
  2424                           ; 1 bytes @ 0x2
  2425                           
  2426     0022                     mul16@y:	
  2427                           ; 1 bytes @ 0x2
  2428                           
  2429     0022                     ___aldiv@quotient:	
  2430                           ; 2 bytes @ 0x2
  2431                           
  2432                           
  2433                           ; 4 bytes @ 0x2
  2434     0022                     	ds	1
  2435     0023                     bitMask@thing:
  2436     0023                     MAX30102_check@max_samples:	
  2437                           ; 1 bytes @ 0x3
  2438                           
  2439                           
  2440                           ; 1 bytes @ 0x3
  2441     0023                     	ds	1
  2442     0024                     ??_MAX30102_check:
  2443     0024                     ??_lowPassFIRFilter:	
  2444                           ; 1 bytes @ 0x4
  2445                           
  2446     0024                     bitMask@reg:	
  2447                           ; 1 bytes @ 0x4
  2448                           
  2449     0024                     ___lldiv@dividend:	
  2450                           ; 1 bytes @ 0x4
  2451                           
  2452                           
  2453                           ; 4 bytes @ 0x4
  2454     0024                     	ds	1
  2455     0025                     bitMask@original:
  2456                           
  2457                           ; 1 bytes @ 0x5
  2458     0025                     	ds	1
  2459     0026                     ?_EUSART_Initialize:
  2460     0026                     ??_MAX30102_softReset:	
  2461                           ; 1 bytes @ 0x6
  2462                           
  2463     0026                     EUSART_Initialize@baudrate:	
  2464                           ; 1 bytes @ 0x6
  2465                           
  2466                           
  2467                           ; 4 bytes @ 0x6
  2468     0026                     	ds	2
  2469     0028                     ___lldiv@quotient:
  2470                           
  2471                           ; 4 bytes @ 0x8
  2472     0028                     	ds	1
  2473     0029                     lowPassFIRFilter@z:
  2474                           
  2475                           ; 4 bytes @ 0x9
  2476     0029                     	ds	1
  2477     002A                     ??_EUSART_Initialize:
  2478     002A                     MAX30102_softReset@start:	
  2479                           ; 1 bytes @ 0xA
  2480                           
  2481                           
  2482                           ; 4 bytes @ 0xA
  2483     002A                     	ds	2
  2484     002C                     ___lldiv@counter:
  2485                           
  2486                           ; 1 bytes @ 0xC
  2487     002C                     	ds	1
  2488     002D                     ??_spo2_compute:
  2489     002D                     ?_bpm_record_beat:	
  2490                           ; 1 bytes @ 0xD
  2491                           
  2492     002D                     ?_UART_PrintUint32:	
  2493                           ; 1 bytes @ 0xD
  2494                           
  2495     002D                     ?_bpm_calculate:	
  2496                           ; 1 bytes @ 0xD
  2497                           
  2498     002D                     lowPassFIRFilter@i:	
  2499                           ; 2 bytes @ 0xD
  2500                           
  2501     002D                     bpm_record_beat@now_ms:	
  2502                           ; 1 bytes @ 0xD
  2503                           
  2504     002D                     UART_PrintUint32@val:	
  2505                           ; 4 bytes @ 0xD
  2506                           
  2507                           
  2508                           ; 4 bytes @ 0xD
  2509     002D                     	ds	1
  2510     002E                     ?_checkForBeat:
  2511     002E                     MAX30102_softReset@resp:	
  2512                           ; 1 bytes @ 0xE
  2513                           
  2514     002E                     checkForBeat@sample:	
  2515                           ; 1 bytes @ 0xE
  2516                           
  2517                           
  2518                           ; 4 bytes @ 0xE
  2519     002E                     	ds	1
  2520     002F                     bpm_calculate@bpm:
  2521                           
  2522                           ; 4 bytes @ 0xF
  2523     002F                     	ds	2
  2524     0031                     ??_bpm_record_beat:
  2525     0031                     spo2_compute@ac_red:	
  2526                           ; 1 bytes @ 0x11
  2527                           
  2528     0031                     UART_PrintUint32@buf:	
  2529                           ; 4 bytes @ 0x11
  2530                           
  2531                           
  2532                           ; 11 bytes @ 0x11
  2533     0031                     	ds	1
  2534     0032                     ??_checkForBeat:
  2535     0032                     MAX30102_check@buf:	
  2536                           ; 1 bytes @ 0x12
  2537                           
  2538                           
  2539                           ; 6 bytes @ 0x12
  2540     0032                     	ds	3
  2541     0035                     checkForBeat@dc_est:
  2542     0035                     spo2_compute@num:	
  2543                           ; 2 bytes @ 0x15
  2544                           
  2545                           
  2546                           ; 4 bytes @ 0x15
  2547     0035                     	ds	2
  2548     0037                     checkForBeat@beatDetected:
  2549                           
  2550                           ; 1 bytes @ 0x17
  2551     0037                     	ds	1
  2552     0038                     MAX30102_check@rd_ptr:
  2553                           
  2554                           ; 1 bytes @ 0x18
  2555     0038                     	ds	1
  2556     0039                     MAX30102_check@wr_ptr:
  2557     0039                     spo2_compute@ac_ir:	
  2558                           ; 1 bytes @ 0x19
  2559                           
  2560                           
  2561                           ; 4 bytes @ 0x19
  2562     0039                     	ds	1
  2563     003A                     MAX30102_check@red_buf:
  2564     003A                     bpm_record_beat@lo:	
  2565                           ; 1 bytes @ 0x1A
  2566                           
  2567                           
  2568                           ; 4 bytes @ 0x1A
  2569     003A                     	ds	1
  2570     003B                     MAX30102_check@s:
  2571                           
  2572                           ; 1 bytes @ 0x1B
  2573     003B                     	ds	1
  2574     003C                     MAX30102_check@to_read:
  2575     003C                     UART_PrintUint32@c:	
  2576                           ; 1 bytes @ 0x1C
  2577                           
  2578                           
  2579                           ; 2 bytes @ 0x1C
  2580     003C                     	ds	1
  2581     003D                     MAX30102_check@num_available:
  2582     003D                     spo2_compute@dc_ir:	
  2583                           ; 1 bytes @ 0x1D
  2584                           
  2585                           
  2586                           ; 4 bytes @ 0x1D
  2587     003D                     	ds	1
  2588     003E                     MAX30102_check@count:
  2589     003E                     UART_PrintUint32@i:	
  2590                           ; 1 bytes @ 0x1E
  2591                           
  2592     003E                     bpm_record_beat@hi:	
  2593                           ; 1 bytes @ 0x1E
  2594                           
  2595                           
  2596                           ; 4 bytes @ 0x1E
  2597     003E                     	ds	1
  2598     003F                     ?_UART_PrintUint16:
  2599     003F                     UART_PrintUint16@val:	
  2600                           ; 1 bytes @ 0x1F
  2601                           
  2602                           
  2603                           ; 2 bytes @ 0x1F
  2604     003F                     	ds	2
  2605     0041                     spo2_compute@dc_red:
  2606                           
  2607                           ; 4 bytes @ 0x21
  2608     0041                     	ds	1
  2609     0042                     bpm_record_beat@sum:
  2610                           
  2611                           ; 4 bytes @ 0x22
  2612     0042                     	ds	3
  2613     0045                     spo2_compute@den:
  2614                           
  2615                           ; 4 bytes @ 0x25
  2616     0045                     	ds	1
  2617     0046                     _bpm_record_beat$692:
  2618                           
  2619                           ; 2 bytes @ 0x26
  2620     0046                     	ds	2
  2621     0048                     bpm_record_beat@prev:
  2622                           
  2623                           ; 1 bytes @ 0x28
  2624     0048                     	ds	1
  2625     0049                     bpm_record_beat@idx:
  2626     0049                     spo2_compute@ratio_x100:	
  2627                           ; 1 bytes @ 0x29
  2628                           
  2629                           
  2630                           ; 4 bytes @ 0x29
  2631     0049                     	ds	1
  2632     004A                     bpm_record_beat@i:
  2633                           
  2634                           ; 1 bytes @ 0x2A
  2635     004A                     	ds	1
  2636     004B                     bpm_record_beat@valid:
  2637                           
  2638                           ; 1 bytes @ 0x2B
  2639     004B                     	ds	1
  2640     004C                     bpm_record_beat@interval:
  2641                           
  2642                           ; 4 bytes @ 0x2C
  2643     004C                     	ds	4
  2644     0050                     ??_main:
  2645                           
  2646                           ; 1 bytes @ 0x30
  2647     0050                     	ds	4
  2648     0054                     main@last_print_ms:
  2649                           
  2650                           ; 4 bytes @ 0x34
  2651     0054                     	ds	4
  2652     0058                     main@no_finger_cnt:
  2653                           
  2654                           ; 2 bytes @ 0x38
  2655     0058                     	ds	2
  2656     005A                     main@accepted:
  2657                           
  2658                           ; 1 bytes @ 0x3A
  2659     005A                     	ds	1
  2660                           
  2661                           	psect	maintext
  2662     004F                     __pmaintext:	
  2663 ;;
  2664 ;;Main: autosize = 0, tempsize = 4, incstack = 0, save=0
  2665 ;;
  2666 ;; *************** function _main *****************
  2667 ;; Defined at:
  2668 ;;		line 668 in file "main.c"
  2669 ;; Parameters:    Size  Location     Type
  2670 ;;		None
  2671 ;; Auto vars:     Size  Location     Type
  2672 ;;  s               1   76[BANK1 ] unsigned char 
  2673 ;;  beat_now        4    4[BANK2 ] unsigned long 
  2674 ;;  accepted        1   58[BANK0 ] _Bool 
  2675 ;;  ir              4    0[BANK2 ] unsigned long 
  2676 ;;  red             4   64[BANK1 ] unsigned long 
  2677 ;;  i               1    8[BANK2 ] unsigned char 
  2678 ;;  now             4   72[BANK1 ] unsigned long 
  2679 ;;  n               1   10[BANK2 ] unsigned char 
  2680 ;;  ir_buf         32   32[BANK1 ] unsigned long [8]
  2681 ;;  red_buf        32    0[BANK1 ] unsigned long [8]
  2682 ;;  last_beat_ms    4   68[BANK1 ] unsigned long 
  2683 ;;  last_print_m    4   52[BANK0 ] unsigned long 
  2684 ;;  current_bpm     2   77[BANK1 ] unsigned short 
  2685 ;;  no_finger_cn    2   56[BANK0 ] unsigned short 
  2686 ;;  finger_prese    1    9[BANK2 ] _Bool 
  2687 ;;  current_spo2    1   79[BANK1 ] unsigned char 
  2688 ;; Return value:  Size  Location     Type
  2689 ;;                  1    wreg      void 
  2690 ;; Registers used:
  2691 ;;		wreg, fsr0l, fsr0h, fsr1l, fsr1h, status,2, status,0, pclath, cstack
  2692 ;; Tracked objects:
  2693 ;;		On entry : B1F/0
  2694 ;;		On exit  : 0/0
  2695 ;;		Unchanged: 0/0
  2696 ;; Data sizes:     COMMON   BANK0   BANK1   BANK2   BANK3   BANK4   BANK5   BANK6   BANK7   BANK8   BANK9  BANK10  BANK1
      +1  BANK12  BANK13  BANK14  BANK15  BANK16  BANK17  BANK18  BANK19  BANK20  BANK21  BANK22  BANK23  BANK24  BANK25
  2697 ;;      Params:         0       0       0       0       0       0       0       0       0       0       0       0       
      +0       0       0       0       0       0       0       0       0       0       0       0       0       0       0
  2698 ;;      Locals:         0       7      80      11       0       0       0       0       0       0       0       0       
      +0       0       0       0       0       0       0       0       0       0       0       0       0       0       0
  2699 ;;      Temps:          0       4       0       0       0       0       0       0       0       0       0       0       
      +0       0       0       0       0       0       0       0       0       0       0       0       0       0       0
  2700 ;;      Totals:         0      11      80      11       0       0       0       0       0       0       0       0       
      +0       0       0       0       0       0       0       0       0       0       0       0       0       0       0
  2701 ;;Total ram usage:      102 bytes
  2702 ;; Hardware stack levels required when called: 8
  2703 ;; This function calls:
  2704 ;;		_EUSART_Initialize
  2705 ;;		_EUSART_Write_Text
  2706 ;;		_I2C_Init
  2707 ;;		_MAX30102_Init
  2708 ;;		_MAX30102_check
  2709 ;;		_TMR0_Init
  2710 ;;		_UART_PrintUint16
  2711 ;;		_UART_PrintUint32
  2712 ;;		_bpm_calculate
  2713 ;;		_bpm_init
  2714 ;;		_bpm_record_beat
  2715 ;;		_checkForBeat
  2716 ;;		_initMain
  2717 ;;		_millis
  2718 ;;		_pba_init
  2719 ;;		_spo2_accumulate
  2720 ;;		_spo2_compute
  2721 ;;		_spo2_reset
  2722 ;; This function is called by:
  2723 ;;		Startup code after reset
  2724 ;; This function uses a non-reentrant model
  2725 ;;
  2726                           
  2727     004F                     _main:	
  2728                           ;psect for function _main
  2729                           
  2730     004F                     l2854:	
  2731                           ;incstack = 0
  2732                           ; Regs used in _main: [wreg-fsr1h+status,2+status,0+pclath+cstack]
  2733                           
  2734                           
  2735                           ;main.c: 670:     initMain();
  2736     004F  318A  228B  3180   	fcall	_initMain
  2737                           
  2738                           ;main.c: 671:     TMR0_Init();
  2739     0052  3197  27F1  3180   	fcall	_TMR0_Init
  2740                           
  2741                           ;main.c: 672:     EUSART_Initialize(19200);
  2742     0055  3000               	movlw	0
  2743     0056  0020               	movlb	0	; select bank0
  2744     0057  00A9               	movwf	EUSART_Initialize@baudrate+3
  2745     0058  3000               	movlw	0
  2746     0059  00A8               	movwf	EUSART_Initialize@baudrate+2
  2747     005A  304B               	movlw	75
  2748     005B  00A7               	movwf	EUSART_Initialize@baudrate+1
  2749     005C  3000               	movlw	0
  2750     005D  00A6               	movwf	EUSART_Initialize@baudrate
  2751     005E  318B  23AE  3180   	fcall	_EUSART_Initialize
  2752                           
  2753                           ;main.c: 673:     I2C_Init();
  2754     0061  3188  2040  3180   	fcall	_I2C_Init
  2755     0064                     l2856:
  2756                           
  2757                           ;main.c: 675:     EUSART_Write_Text("\r\nMAX30102 Pulse Oximeter v2\r\n");
  2758     0064  3057               	movlw	low (STR_2| (0+32768))
  2759     0065  00F1               	movwf	EUSART_Write_Text@text
  2760     0066  3090               	movlw	high (STR_2| (0+32768))
  2761     0067  00F2               	movwf	EUSART_Write_Text@text+1
  2762     0068  3188  2068  3180   	fcall	_EUSART_Write_Text
  2763     006B                     l2858:
  2764                           
  2765                           ;main.c: 676:     EUSART_Write_Text("(SparkFun PBA Algorithm Port)\r\n");
  2766     006B  3018               	movlw	low (STR_3| (0+32768))
  2767     006C  00F1               	movwf	EUSART_Write_Text@text
  2768     006D  3090               	movlw	high (STR_3| (0+32768))
  2769     006E  00F2               	movwf	EUSART_Write_Text@text+1
  2770     006F  3188  2068  3180   	fcall	_EUSART_Write_Text
  2771     0072                     l2860:
  2772                           
  2773                           ;main.c: 677:     EUSART_Write_Text("----------------------------\r\n");
  2774     0072  3038               	movlw	low (STR_4| (0+32768))
  2775     0073  00F1               	movwf	EUSART_Write_Text@text
  2776     0074  3090               	movlw	high (STR_4| (0+32768))
  2777     0075  00F2               	movwf	EUSART_Write_Text@text+1
  2778     0076  3188  2068  3180   	fcall	_EUSART_Write_Text
  2779     0079                     l2862:
  2780                           
  2781                           ;main.c: 679:     if (MAX30102_Init())
  2782     0079  318C  24FC  3180   	fcall	_MAX30102_Init
  2783     007C  3A00               	xorlw	0
  2784     007D  1903               	skipnz
  2785     007E  2880               	goto	u2961
  2786     007F  2881               	goto	u2960
  2787     0080                     u2961:
  2788     0080  2889               	goto	l2866
  2789     0081                     u2960:
  2790     0081                     l2864:
  2791                           
  2792                           ;main.c: 680:     {;main.c: 681:         EUSART_Write_Text("Init OK\r\n");
  2793     0081  300C               	movlw	low (STR_5| (0+32768))
  2794     0082  00F1               	movwf	EUSART_Write_Text@text
  2795     0083  3098               	movlw	high (STR_5| (0+32768))
  2796     0084  00F2               	movwf	EUSART_Write_Text@text+1
  2797     0085  3188  2068  3180   	fcall	_EUSART_Write_Text
  2798                           
  2799                           ;main.c: 682:     }
  2800     0088  2891               	goto	l2868
  2801     0089                     l2866:
  2802                           
  2803                           ;main.c: 684:     {;main.c: 685:         EUSART_Write_Text("Init FAILED! Check wiring.\r
      +                          \n");
  2804     0089  3094               	movlw	low (STR_6| (0+32768))
  2805     008A  00F1               	movwf	EUSART_Write_Text@text
  2806     008B  3090               	movlw	high (STR_6| (0+32768))
  2807     008C  00F2               	movwf	EUSART_Write_Text@text+1
  2808     008D  3188  2068  3180   	fcall	_EUSART_Write_Text
  2809     0090                     l430:	
  2810                           ;main.c: 686:         while (1);
  2811                           
  2812     0090                     l431:
  2813     0090  2890               	goto	l430
  2814     0091                     l2868:
  2815                           
  2816                           ;main.c: 689:     pba_init();
  2817     0091  3189  21E4  3180   	fcall	_pba_init
  2818     0094                     l2870:
  2819                           
  2820                           ;main.c: 690:     spo2_reset();
  2821     0094  318A  2218  3180   	fcall	_spo2_reset
  2822     0097                     l2872:
  2823                           
  2824                           ;main.c: 691:     bpm_init();
  2825     0097  3189  2154  3180   	fcall	_bpm_init
  2826     009A                     l2874:
  2827                           
  2828                           ;main.c: 694:     uint32_t red_buf[8];;main.c: 695:     uint32_t ir_buf[8];;main.c: 697:
      +                               uint32_t last_print_ms = 0;
  2829     009A  3000               	movlw	0
  2830     009B  0020               	movlb	0	; select bank0
  2831     009C  00D7               	movwf	main@last_print_ms+3
  2832     009D  3000               	movlw	0
  2833     009E  00D6               	movwf	main@last_print_ms+2
  2834     009F  3000               	movlw	0
  2835     00A0  00D5               	movwf	main@last_print_ms+1
  2836     00A1  3000               	movlw	0
  2837     00A2  00D4               	movwf	main@last_print_ms
  2838     00A3                     l2876:
  2839                           
  2840                           ;main.c: 698:     uint32_t last_beat_ms = 0;
  2841     00A3  3000               	movlw	0
  2842     00A4  0021               	movlb	1	; select bank1
  2843     00A5  00E7               	movwf	(main@last_beat_ms+3)^(0+128)
  2844     00A6  3000               	movlw	0
  2845     00A7  00E6               	movwf	(main@last_beat_ms+2)^(0+128)
  2846     00A8  3000               	movlw	0
  2847     00A9  00E5               	movwf	(main@last_beat_ms+1)^(0+128)
  2848     00AA  3000               	movlw	0
  2849     00AB  00E4               	movwf	main@last_beat_ms^(0+128)
  2850     00AC                     l2878:
  2851                           
  2852                           ;main.c: 699:     uint16_t current_bpm = 0;
  2853     00AC  01ED               	clrf	main@current_bpm^(0+128)
  2854     00AD  01EE               	clrf	(main@current_bpm+1)^(0+128)
  2855     00AE                     l2880:
  2856                           
  2857                           ;main.c: 700:     uint8_t current_spo2 = 0;
  2858     00AE  01EF               	clrf	main@current_spo2^(0+128)
  2859     00AF                     l2882:
  2860                           
  2861                           ;main.c: 701:     _Bool finger_present = 0;
  2862     00AF  0022               	movlb	2	; select bank2
  2863     00B0  01DD               	clrf	main@finger_present^(0+256)
  2864     00B1                     l2884:
  2865                           
  2866                           ;main.c: 702:     uint16_t no_finger_cnt = 0;
  2867     00B1  0020               	movlb	0	; select bank0
  2868     00B2  01D8               	clrf	main@no_finger_cnt
  2869     00B3  01D9               	clrf	main@no_finger_cnt+1
  2870     00B4                     l2886:
  2871                           
  2872                           ;main.c: 704:     EUSART_Write_Text("Place finger on sensor...\r\n\r\n");
  2873     00B4  3076               	movlw	low (STR_7| (0+32768))
  2874     00B5  00F1               	movwf	EUSART_Write_Text@text
  2875     00B6  3090               	movlw	high (STR_7| (0+32768))
  2876     00B7  00F2               	movwf	EUSART_Write_Text@text+1
  2877     00B8  3188  2068  3180   	fcall	_EUSART_Write_Text
  2878     00BB                     l2888:
  2879                           
  2880                           ;main.c: 707:     {;main.c: 708:         uint8_t n = MAX30102_check(red_buf, ir_buf, 8);
  2881     00BB  30C0               	movlw	(low (main@ir_buf| 0))& (0+255)
  2882     00BC  0020               	movlb	0	; select bank0
  2883     00BD  00A2               	movwf	MAX30102_check@ir_buf
  2884     00BE  3008               	movlw	8
  2885     00BF  00A3               	movwf	MAX30102_check@max_samples
  2886     00C0  30A0               	movlw	(low (main@red_buf| 0))& (0+255)
  2887     00C1  3185  25B0  3180   	fcall	_MAX30102_check
  2888     00C4  0022               	movlb	2	; select bank2
  2889     00C5  00DE               	movwf	main@n^(0+256)
  2890     00C6                     l2890:
  2891                           
  2892                           ;main.c: 709:         if (n == 0)
  2893     00C6  085E               	movf	main@n^(0+256),w
  2894     00C7  1D03               	btfss	3,2
  2895     00C8  28CA               	goto	u2971
  2896     00C9  28CB               	goto	u2970
  2897     00CA                     u2971:
  2898     00CA  28D5               	goto	l2894
  2899     00CB                     u2970:
  2900     00CB                     l2892:
  2901                           
  2902                           ;main.c: 710:         {;main.c: 711:             _delay((unsigned long)((1)*(32000000/40
      +                          00.0)));
  2903     00CB  300B               	movlw	11
  2904     00CC  0020               	movlb	0	; select bank0
  2905     00CD  00D0               	movwf	??_main
  2906     00CE  3062               	movlw	98
  2907     00CF                     u3157:
  2908     00CF  0B89               	decfsz	9,f
  2909     00D0  28CF               	goto	u3157
  2910     00D1  0BD0               	decfsz	??_main,f
  2911     00D2  28CF               	goto	u3157
  2912     00D3  0000               	nop
  2913                           
  2914                           ;main.c: 712:             continue;
  2915     00D4  28BB               	goto	l2888
  2916     00D5                     l2894:
  2917                           
  2918                           ;main.c: 715:         uint32_t now = millis();
  2919     00D5  3188  2054  3180   	fcall	_millis
  2920     00D8  0873               	movf	?_millis+3,w
  2921     00D9  0021               	movlb	1	; select bank1
  2922     00DA  00EB               	movwf	(main@now+3)^(0+128)
  2923     00DB  0872               	movf	?_millis+2,w
  2924     00DC  00EA               	movwf	(main@now+2)^(0+128)
  2925     00DD  0871               	movf	?_millis+1,w
  2926     00DE  00E9               	movwf	(main@now+1)^(0+128)
  2927     00DF  0870               	movf	?_millis,w
  2928     00E0  00E8               	movwf	main@now^(0+128)
  2929     00E1                     l2896:
  2930                           
  2931                           ;main.c: 717:         for (uint8_t i = 0; i < n; i++)
  2932     00E1  0022               	movlb	2	; select bank2
  2933     00E2  01DC               	clrf	main@i^(0+256)
  2934     00E3  2A0D               	goto	l2960
  2935     00E4                     l2898:
  2936                           
  2937                           ;main.c: 718:         {;main.c: 719:             uint32_t ir = ir_buf[i];
  2938     00E4  085C               	movf	main@i^(0+256),w
  2939     00E5  0020               	movlb	0	; select bank0
  2940     00E6  00D0               	movwf	??_main
  2941     00E7  3001               	movlw	1
  2942     00E8                     u2985:
  2943     00E8  35D0               	lslf	??_main,f
  2944     00E9  3EFF               	addlw	-1
  2945     00EA  1D03               	skipz
  2946     00EB  28E8               	goto	u2985
  2947     00EC  3550               	lslf	??_main,w
  2948     00ED  3EC0               	addlw	(low (main@ir_buf| 0))& (0+255)
  2949     00EE  0086               	movwf	6
  2950     00EF  0187               	clrf	7
  2951     00F0  3F40               	moviw [0]fsr1
  2952     00F1  0022               	movlb	2	; select bank2
  2953     00F2  00D4               	movwf	main@ir^(0+256)
  2954     00F3  3F41               	moviw [1]fsr1
  2955     00F4  00D5               	movwf	(main@ir+1)^(0+256)
  2956     00F5  3F42               	moviw [2]fsr1
  2957     00F6  00D6               	movwf	(main@ir+2)^(0+256)
  2958     00F7  3F43               	moviw [3]fsr1
  2959     00F8  00D7               	movwf	(main@ir+3)^(0+256)
  2960                           
  2961                           ;main.c: 720:             uint32_t red = red_buf[i];
  2962     00F9  085C               	movf	main@i^(0+256),w
  2963     00FA  0020               	movlb	0	; select bank0
  2964     00FB  00D0               	movwf	??_main
  2965     00FC  3001               	movlw	1
  2966     00FD                     u2995:
  2967     00FD  35D0               	lslf	??_main,f
  2968     00FE  3EFF               	addlw	-1
  2969     00FF  1D03               	skipz
  2970     0100  28FD               	goto	u2995
  2971     0101  3550               	lslf	??_main,w
  2972     0102  3EA0               	addlw	(low (main@red_buf| 0))& (0+255)
  2973     0103  0086               	movwf	6
  2974     0104  0187               	clrf	7
  2975     0105  3F40               	moviw [0]fsr1
  2976     0106  0021               	movlb	1	; select bank1
  2977     0107  00E0               	movwf	main@red^(0+128)
  2978     0108  3F41               	moviw [1]fsr1
  2979     0109  00E1               	movwf	(main@red+1)^(0+128)
  2980     010A  3F42               	moviw [2]fsr1
  2981     010B  00E2               	movwf	(main@red+2)^(0+128)
  2982     010C  3F43               	moviw [3]fsr1
  2983     010D  00E3               	movwf	(main@red+3)^(0+128)
  2984     010E                     l2900:
  2985                           
  2986                           ;main.c: 723:             if (ir < 5000)
  2987     010E  0022               	movlb	2	; select bank2
  2988     010F  0857               	movf	(main@ir+3)^(0+256),w
  2989     0110  1D03               	btfss	3,2
  2990     0111  291C               	goto	u3001
  2991     0112  0856               	movf	(main@ir+2)^(0+256),w
  2992     0113  1D03               	btfss	3,2
  2993     0114  291C               	goto	u3001
  2994     0115  3088               	movlw	136
  2995     0116  0254               	subwf	main@ir^(0+256),w
  2996     0117  3013               	movlw	19
  2997     0118  3B55               	subwfb	(main@ir+1)^(0+256),w
  2998     0119  1803               	btfsc	3,0
  2999     011A  291C               	goto	u3001
  3000     011B  291D               	goto	u3000
  3001     011C                     u3001:
  3002     011C  2947               	goto	l2916
  3003     011D                     u3000:
  3004     011D                     l2902:
  3005                           
  3006                           ;main.c: 724:             {;main.c: 725:                 no_finger_cnt++;
  3007     011D  3001               	movlw	1
  3008     011E  0020               	movlb	0	; select bank0
  3009     011F  07D8               	addwf	main@no_finger_cnt,f
  3010     0120  3000               	movlw	0
  3011     0121  3DD9               	addwfc	main@no_finger_cnt+1,f
  3012                           
  3013                           ;main.c: 726:                 if (no_finger_cnt > 50 && finger_present)
  3014     0122  3000               	movlw	0
  3015     0123  0259               	subwf	main@no_finger_cnt+1,w
  3016     0124  3033               	movlw	51
  3017     0125  1903               	skipnz
  3018     0126  0258               	subwf	main@no_finger_cnt,w
  3019     0127  1C03               	skipc
  3020     0128  292A               	goto	u3011
  3021     0129  292B               	goto	u3010
  3022     012A                     u3011:
  3023     012A  2A07               	goto	l2958
  3024     012B                     u3010:
  3025     012B                     l2904:
  3026     012B  0022               	movlb	2	; select bank2
  3027     012C  085D               	movf	main@finger_present^(0+256),w
  3028     012D  1903               	btfsc	3,2
  3029     012E  2930               	goto	u3021
  3030     012F  2931               	goto	u3020
  3031     0130                     u3021:
  3032     0130  2A07               	goto	l2958
  3033     0131                     u3020:
  3034     0131                     l2906:
  3035                           
  3036                           ;main.c: 727:                 {;main.c: 728:                     finger_present = 0;
  3037     0131  01DD               	clrf	main@finger_present^(0+256)
  3038                           
  3039                           ;main.c: 729:                     current_bpm = 0;
  3040     0132  0021               	movlb	1	; select bank1
  3041     0133  01ED               	clrf	main@current_bpm^(0+128)
  3042     0134  01EE               	clrf	(main@current_bpm+1)^(0+128)
  3043                           
  3044                           ;main.c: 730:                     current_spo2 = 0;
  3045     0135  01EF               	clrf	main@current_spo2^(0+128)
  3046     0136                     l2908:
  3047                           
  3048                           ;main.c: 731:                     EUSART_Write_Text("-- Finger removed --\r\n");
  3049     0136  30C9               	movlw	low (STR_8| (0+32768))
  3050     0137  00F1               	movwf	EUSART_Write_Text@text
  3051     0138  3090               	movlw	high (STR_8| (0+32768))
  3052     0139  00F2               	movwf	EUSART_Write_Text@text+1
  3053     013A  3188  2068  3180   	fcall	_EUSART_Write_Text
  3054     013D                     l2910:
  3055                           
  3056                           ;main.c: 732:                     pba_init();
  3057     013D  3189  21E4  3180   	fcall	_pba_init
  3058     0140                     l2912:
  3059                           
  3060                           ;main.c: 733:                     spo2_reset();
  3061     0140  318A  2218  3180   	fcall	_spo2_reset
  3062     0143                     l2914:
  3063                           
  3064                           ;main.c: 734:                     bpm_init();
  3065     0143  3189  2154  3180   	fcall	_bpm_init
  3066     0146  2A07               	goto	l2958
  3067     0147                     l2916:
  3068                           
  3069                           ;main.c: 739:             no_finger_cnt = 0;
  3070     0147  0020               	movlb	0	; select bank0
  3071     0148  01D8               	clrf	main@no_finger_cnt
  3072     0149  01D9               	clrf	main@no_finger_cnt+1
  3073     014A                     l2918:
  3074                           
  3075                           ;main.c: 740:             if (!finger_present)
  3076     014A  0022               	movlb	2	; select bank2
  3077     014B  085D               	movf	main@finger_present^(0+256),w
  3078     014C  1D03               	btfss	3,2
  3079     014D  294F               	goto	u3031
  3080     014E  2950               	goto	u3030
  3081     014F                     u3031:
  3082     014F  296B               	goto	l2932
  3083     0150                     u3030:
  3084     0150                     l2920:
  3085                           
  3086                           ;main.c: 741:             {;main.c: 742:                 finger_present = 1;
  3087     0150  01DD               	clrf	main@finger_present^(0+256)
  3088     0151  0ADD               	incf	main@finger_present^(0+256),f
  3089     0152                     l2922:
  3090                           
  3091                           ;main.c: 743:                 EUSART_Write_Text("-- Finger detected --\r\n");
  3092     0152  30B1               	movlw	low (STR_9| (0+32768))
  3093     0153  00F1               	movwf	EUSART_Write_Text@text
  3094     0154  3090               	movlw	high (STR_9| (0+32768))
  3095     0155  00F2               	movwf	EUSART_Write_Text@text+1
  3096     0156  3188  2068  3180   	fcall	_EUSART_Write_Text
  3097     0159                     l2924:
  3098                           
  3099                           ;main.c: 744:                 pba_init();
  3100     0159  3189  21E4  3180   	fcall	_pba_init
  3101     015C                     l2926:
  3102                           
  3103                           ;main.c: 745:                 spo2_reset();
  3104     015C  318A  2218  3180   	fcall	_spo2_reset
  3105     015F                     l2928:
  3106                           
  3107                           ;main.c: 746:                 bpm_init();
  3108     015F  3189  2154  3180   	fcall	_bpm_init
  3109     0162                     l2930:
  3110                           
  3111                           ;main.c: 747:                 last_beat_ms = 0;
  3112     0162  3000               	movlw	0
  3113     0163  0021               	movlb	1	; select bank1
  3114     0164  00E7               	movwf	(main@last_beat_ms+3)^(0+128)
  3115     0165  3000               	movlw	0
  3116     0166  00E6               	movwf	(main@last_beat_ms+2)^(0+128)
  3117     0167  3000               	movlw	0
  3118     0168  00E5               	movwf	(main@last_beat_ms+1)^(0+128)
  3119     0169  3000               	movlw	0
  3120     016A  00E4               	movwf	main@last_beat_ms^(0+128)
  3121     016B                     l2932:
  3122                           
  3123                           ;main.c: 751:             spo2_accumulate(ir, red);
  3124     016B  0022               	movlb	2	; select bank2
  3125     016C  0857               	movf	(main@ir+3)^(0+256),w
  3126     016D  00F3               	movwf	spo2_accumulate@ir+3
  3127     016E  0856               	movf	(main@ir+2)^(0+256),w
  3128     016F  00F2               	movwf	spo2_accumulate@ir+2
  3129     0170  0855               	movf	(main@ir+1)^(0+256),w
  3130     0171  00F1               	movwf	spo2_accumulate@ir+1
  3131     0172  0854               	movf	main@ir^(0+256),w
  3132     0173  00F0               	movwf	spo2_accumulate@ir
  3133     0174  0021               	movlb	1	; select bank1
  3134     0175  0863               	movf	(main@red+3)^(0+128),w
  3135     0176  00F7               	movwf	spo2_accumulate@red+3
  3136     0177  0862               	movf	(main@red+2)^(0+128),w
  3137     0178  00F6               	movwf	spo2_accumulate@red+2
  3138     0179  0861               	movf	(main@red+1)^(0+128),w
  3139     017A  00F5               	movwf	spo2_accumulate@red+1
  3140     017B  0860               	movf	main@red^(0+128),w
  3141     017C  00F4               	movwf	spo2_accumulate@red
  3142     017D  318F  2764  3180   	fcall	_spo2_accumulate
  3143     0180                     l2934:
  3144                           
  3145                           ;main.c: 754:             if (checkForBeat((int32_t)ir))
  3146     0180  0022               	movlb	2	; select bank2
  3147     0181  0857               	movf	(main@ir+3)^(0+256),w
  3148     0182  0020               	movlb	0	; select bank0
  3149     0183  00B1               	movwf	checkForBeat@sample+3
  3150     0184  0022               	movlb	2	; select bank2
  3151     0185  0856               	movf	(main@ir+2)^(0+256),w
  3152     0186  0020               	movlb	0	; select bank0
  3153     0187  00B0               	movwf	checkForBeat@sample+2
  3154     0188  0022               	movlb	2	; select bank2
  3155     0189  0855               	movf	(main@ir+1)^(0+256),w
  3156     018A  0020               	movlb	0	; select bank0
  3157     018B  00AF               	movwf	checkForBeat@sample+1
  3158     018C  0022               	movlb	2	; select bank2
  3159     018D  0854               	movf	main@ir^(0+256),w
  3160     018E  0020               	movlb	0	; select bank0
  3161     018F  00AE               	movwf	checkForBeat@sample
  3162     0190  3186  268D  3180   	fcall	_checkForBeat
  3163     0193  3A00               	xorlw	0
  3164     0194  1903               	skipnz
  3165     0195  2997               	goto	u3041
  3166     0196  2998               	goto	u3040
  3167     0197                     u3041:
  3168     0197  2A07               	goto	l2958
  3169     0198                     u3040:
  3170     0198                     l2936:
  3171                           
  3172                           ;main.c: 755:             {;main.c: 756:                 uint32_t beat_now = millis();
  3173     0198  3188  2054  3180   	fcall	_millis
  3174     019B  0873               	movf	?_millis+3,w
  3175     019C  0022               	movlb	2	; select bank2
  3176     019D  00DB               	movwf	(main@beat_now+3)^(0+256)
  3177     019E  0872               	movf	?_millis+2,w
  3178     019F  00DA               	movwf	(main@beat_now+2)^(0+256)
  3179     01A0  0871               	movf	?_millis+1,w
  3180     01A1  00D9               	movwf	(main@beat_now+1)^(0+256)
  3181     01A2  0870               	movf	?_millis,w
  3182     01A3  00D8               	movwf	main@beat_now^(0+256)
  3183     01A4                     l2938:
  3184                           
  3185                           ;main.c: 757:                 _Bool accepted;;main.c: 759:                 if (last_beat
      +                          _ms > 0)
  3186     01A4  0021               	movlb	1	; select bank1
  3187     01A5  0867               	movf	(main@last_beat_ms+3)^(0+128),w
  3188     01A6  0466               	iorwf	(main@last_beat_ms+2)^(0+128),w
  3189     01A7  0465               	iorwf	(main@last_beat_ms+1)^(0+128),w
  3190     01A8  0464               	iorwf	main@last_beat_ms^(0+128),w
  3191     01A9  1903               	skipnz
  3192     01AA  29AC               	goto	u3051
  3193     01AB  29AD               	goto	u3050
  3194     01AC                     u3051:
  3195     01AC  29DF               	goto	l2952
  3196     01AD                     u3050:
  3197     01AD                     l2940:
  3198                           
  3199                           ;main.c: 760:                 {;main.c: 761:                     accepted = bpm_record_b
      +                          eat(beat_now);
  3200     01AD  0022               	movlb	2	; select bank2
  3201     01AE  085B               	movf	(main@beat_now+3)^(0+256),w
  3202     01AF  0020               	movlb	0	; select bank0
  3203     01B0  00B0               	movwf	bpm_record_beat@now_ms+3
  3204     01B1  0022               	movlb	2	; select bank2
  3205     01B2  085A               	movf	(main@beat_now+2)^(0+256),w
  3206     01B3  0020               	movlb	0	; select bank0
  3207     01B4  00AF               	movwf	bpm_record_beat@now_ms+2
  3208     01B5  0022               	movlb	2	; select bank2
  3209     01B6  0859               	movf	(main@beat_now+1)^(0+256),w
  3210     01B7  0020               	movlb	0	; select bank0
  3211     01B8  00AE               	movwf	bpm_record_beat@now_ms+1
  3212     01B9  0022               	movlb	2	; select bank2
  3213     01BA  0858               	movf	main@beat_now^(0+256),w
  3214     01BB  0020               	movlb	0	; select bank0
  3215     01BC  00AD               	movwf	bpm_record_beat@now_ms
  3216     01BD  3182  22DE  3180   	fcall	_bpm_record_beat
  3217     01C0  0020               	movlb	0	; select bank0
  3218     01C1  00DA               	movwf	main@accepted
  3219     01C2                     l2942:
  3220                           
  3221                           ;main.c: 762:                     if (accepted)
  3222     01C2  085A               	movf	main@accepted,w
  3223     01C3  1903               	btfsc	3,2
  3224     01C4  29C6               	goto	u3061
  3225     01C5  29C7               	goto	u3060
  3226     01C6                     u3061:
  3227     01C6  29F4               	goto	l2954
  3228     01C7                     u3060:
  3229     01C7                     l2944:
  3230                           
  3231                           ;main.c: 763:                     {;main.c: 764:                         current_bpm = b
      +                          pm_calculate();
  3232     01C7  318B  23FE  3180   	fcall	_bpm_calculate
  3233     01CA  0020               	movlb	0	; select bank0
  3234     01CB  082E               	movf	?_bpm_calculate+1,w
  3235     01CC  0021               	movlb	1	; select bank1
  3236     01CD  00EE               	movwf	(main@current_bpm+1)^(0+128)
  3237     01CE  0020               	movlb	0	; select bank0
  3238     01CF  082D               	movf	?_bpm_calculate,w
  3239     01D0  0021               	movlb	1	; select bank1
  3240     01D1  00ED               	movwf	main@current_bpm^(0+128)
  3241     01D2                     l2946:
  3242                           
  3243                           ;main.c: 767:                         uint8_t s = spo2_compute();
  3244     01D2  3184  2456  3180   	fcall	_spo2_compute
  3245     01D5  0021               	movlb	1	; select bank1
  3246     01D6  00EC               	movwf	main@s^(0+128)
  3247     01D7                     l2948:
  3248                           
  3249                           ;main.c: 768:                         if (s > 0) current_spo2 = s;
  3250     01D7  086C               	movf	main@s^(0+128),w
  3251     01D8  1903               	btfsc	3,2
  3252     01D9  29DB               	goto	u3071
  3253     01DA  29DC               	goto	u3070
  3254     01DB                     u3071:
  3255     01DB  29F4               	goto	l2954
  3256     01DC                     u3070:
  3257     01DC                     l2950:
  3258     01DC  086C               	movf	main@s^(0+128),w
  3259     01DD  00EF               	movwf	main@current_spo2^(0+128)
  3260     01DE  29F4               	goto	l2954
  3261     01DF                     l2952:
  3262                           
  3263                           ;main.c: 772:                 {;main.c: 774:                     accepted = bpm_record_b
      +                          eat(beat_now);
  3264     01DF  0022               	movlb	2	; select bank2
  3265     01E0  085B               	movf	(main@beat_now+3)^(0+256),w
  3266     01E1  0020               	movlb	0	; select bank0
  3267     01E2  00B0               	movwf	bpm_record_beat@now_ms+3
  3268     01E3  0022               	movlb	2	; select bank2
  3269     01E4  085A               	movf	(main@beat_now+2)^(0+256),w
  3270     01E5  0020               	movlb	0	; select bank0
  3271     01E6  00AF               	movwf	bpm_record_beat@now_ms+2
  3272     01E7  0022               	movlb	2	; select bank2
  3273     01E8  0859               	movf	(main@beat_now+1)^(0+256),w
  3274     01E9  0020               	movlb	0	; select bank0
  3275     01EA  00AE               	movwf	bpm_record_beat@now_ms+1
  3276     01EB  0022               	movlb	2	; select bank2
  3277     01EC  0858               	movf	main@beat_now^(0+256),w
  3278     01ED  0020               	movlb	0	; select bank0
  3279     01EE  00AD               	movwf	bpm_record_beat@now_ms
  3280     01EF  3182  22DE  3180   	fcall	_bpm_record_beat
  3281     01F2  0020               	movlb	0	; select bank0
  3282     01F3  00DA               	movwf	main@accepted
  3283     01F4                     l2954:
  3284                           
  3285                           ;main.c: 776:                 last_beat_ms = beat_now;
  3286     01F4  0022               	movlb	2	; select bank2
  3287     01F5  085B               	movf	(main@beat_now+3)^(0+256),w
  3288     01F6  0021               	movlb	1	; select bank1
  3289     01F7  00E7               	movwf	(main@last_beat_ms+3)^(0+128)
  3290     01F8  0022               	movlb	2	; select bank2
  3291     01F9  085A               	movf	(main@beat_now+2)^(0+256),w
  3292     01FA  0021               	movlb	1	; select bank1
  3293     01FB  00E6               	movwf	(main@last_beat_ms+2)^(0+128)
  3294     01FC  0022               	movlb	2	; select bank2
  3295     01FD  0859               	movf	(main@beat_now+1)^(0+256),w
  3296     01FE  0021               	movlb	1	; select bank1
  3297     01FF  00E5               	movwf	(main@last_beat_ms+1)^(0+128)
  3298     0200  0022               	movlb	2	; select bank2
  3299     0201  0858               	movf	main@beat_now^(0+256),w
  3300     0202  0021               	movlb	1	; select bank1
  3301     0203  00E4               	movwf	main@last_beat_ms^(0+128)
  3302     0204                     l2956:
  3303                           
  3304                           ;main.c: 779:                 spo2_reset();
  3305     0204  318A  2218  3180   	fcall	_spo2_reset
  3306     0207                     l2958:
  3307     0207  3001               	movlw	1
  3308     0208  0020               	movlb	0	; select bank0
  3309     0209  00D0               	movwf	??_main
  3310     020A  0850               	movf	??_main,w
  3311     020B  0022               	movlb	2	; select bank2
  3312     020C  07DC               	addwf	main@i^(0+256),f
  3313     020D                     l2960:
  3314     020D  085E               	movf	main@n^(0+256),w
  3315     020E  025C               	subwf	main@i^(0+256),w
  3316     020F  1C03               	skipc
  3317     0210  2A12               	goto	u3081
  3318     0211  2A13               	goto	u3080
  3319     0212                     u3081:
  3320     0212  28E4               	goto	l2898
  3321     0213                     u3080:
  3322     0213                     l2962:
  3323                           
  3324                           ;main.c: 784:         if (finger_present && (now - last_print_ms) >= 1000)
  3325     0213  085D               	movf	main@finger_present^(0+256),w
  3326     0214  1903               	btfsc	3,2
  3327     0215  2A17               	goto	u3091
  3328     0216  2A18               	goto	u3090
  3329     0217                     u3091:
  3330     0217  28BB               	goto	l2888
  3331     0218                     u3090:
  3332     0218                     l2964:
  3333     0218  0020               	movlb	0	; select bank0
  3334     0219  0854               	movf	main@last_print_ms,w
  3335     021A  0021               	movlb	1	; select bank1
  3336     021B  0268               	subwf	main@now^(0+128),w
  3337     021C  0020               	movlb	0	; select bank0
  3338     021D  00D0               	movwf	??_main
  3339     021E  0855               	movf	main@last_print_ms+1,w
  3340     021F  0021               	movlb	1	; select bank1
  3341     0220  3B69               	subwfb	(main@now+1)^(0+128),w
  3342     0221  0020               	movlb	0	; select bank0
  3343     0222  00D1               	movwf	??_main+1
  3344     0223  0856               	movf	main@last_print_ms+2,w
  3345     0224  0021               	movlb	1	; select bank1
  3346     0225  3B6A               	subwfb	(main@now+2)^(0+128),w
  3347     0226  0020               	movlb	0	; select bank0
  3348     0227  00D2               	movwf	??_main+2
  3349     0228  0857               	movf	main@last_print_ms+3,w
  3350     0229  0021               	movlb	1	; select bank1
  3351     022A  3B6B               	subwfb	(main@now+3)^(0+128),w
  3352     022B  0020               	movlb	0	; select bank0
  3353     022C  00D3               	movwf	??_main+3
  3354     022D  0853               	movf	??_main+3,w
  3355     022E  1D03               	btfss	3,2
  3356     022F  2A3B               	goto	u3100
  3357     0230  0852               	movf	??_main+2,w
  3358     0231  1D03               	btfss	3,2
  3359     0232  2A3B               	goto	u3100
  3360     0233  30E8               	movlw	232
  3361     0234  0250               	subwf	??_main,w
  3362     0235  3003               	movlw	3
  3363     0236  3B51               	subwfb	??_main+1,w
  3364     0237  1C03               	btfss	3,0
  3365     0238  2A3A               	goto	u3101
  3366     0239  2A3B               	goto	u3100
  3367     023A                     u3101:
  3368     023A  28BB               	goto	l2888
  3369     023B                     u3100:
  3370     023B                     l2966:
  3371                           
  3372                           ;main.c: 785:         {;main.c: 786:             last_print_ms = now;
  3373     023B  0021               	movlb	1	; select bank1
  3374     023C  086B               	movf	(main@now+3)^(0+128),w
  3375     023D  0020               	movlb	0	; select bank0
  3376     023E  00D7               	movwf	main@last_print_ms+3
  3377     023F  0021               	movlb	1	; select bank1
  3378     0240  086A               	movf	(main@now+2)^(0+128),w
  3379     0241  0020               	movlb	0	; select bank0
  3380     0242  00D6               	movwf	main@last_print_ms+2
  3381     0243  0021               	movlb	1	; select bank1
  3382     0244  0869               	movf	(main@now+1)^(0+128),w
  3383     0245  0020               	movlb	0	; select bank0
  3384     0246  00D5               	movwf	main@last_print_ms+1
  3385     0247  0021               	movlb	1	; select bank1
  3386     0248  0868               	movf	main@now^(0+128),w
  3387     0249  0020               	movlb	0	; select bank0
  3388     024A  00D4               	movwf	main@last_print_ms
  3389     024B                     l2968:
  3390                           
  3391                           ;main.c: 788:             EUSART_Write_Text("IR=");
  3392     024B  3036               	movlw	low (STR_10| (0+32768))
  3393     024C  00F1               	movwf	EUSART_Write_Text@text
  3394     024D  3098               	movlw	high (STR_10| (0+32768))
  3395     024E  00F2               	movwf	EUSART_Write_Text@text+1
  3396     024F  3188  2068  3180   	fcall	_EUSART_Write_Text
  3397     0252                     l2970:
  3398                           
  3399                           ;main.c: 789:             UART_PrintUint32(ir_buf[n - 1]);
  3400     0252  0022               	movlb	2	; select bank2
  3401     0253  085E               	movf	main@n^(0+256),w
  3402     0254  0020               	movlb	0	; select bank0
  3403     0255  00D0               	movwf	??_main
  3404     0256  3001               	movlw	1
  3405     0257                     u3115:
  3406     0257  35D0               	lslf	??_main,f
  3407     0258  3EFF               	addlw	-1
  3408     0259  1D03               	skipz
  3409     025A  2A57               	goto	u3115
  3410     025B  3550               	lslf	??_main,w
  3411     025C  3EFC               	addlw	252
  3412     025D  3EC0               	addlw	(low (main@ir_buf| 0))& (0+255)
  3413     025E  0086               	movwf	6
  3414     025F  0187               	clrf	7
  3415     0260  3F40               	moviw [0]fsr1
  3416     0261  00AD               	movwf	UART_PrintUint32@val
  3417     0262  3F41               	moviw [1]fsr1
  3418     0263  00AE               	movwf	UART_PrintUint32@val+1
  3419     0264  3F42               	moviw [2]fsr1
  3420     0265  00AF               	movwf	UART_PrintUint32@val+2
  3421     0266  3F43               	moviw [3]fsr1
  3422     0267  00B0               	movwf	UART_PrintUint32@val+3
  3423     0268  318D  2563  3180   	fcall	_UART_PrintUint32
  3424     026B                     l2972:
  3425                           
  3426                           ;main.c: 790:             EUSART_Write_Text("  Red=");
  3427     026B  302F               	movlw	low (STR_11| (0+32768))
  3428     026C  00F1               	movwf	EUSART_Write_Text@text
  3429     026D  3098               	movlw	high (STR_11| (0+32768))
  3430     026E  00F2               	movwf	EUSART_Write_Text@text+1
  3431     026F  3188  2068  3180   	fcall	_EUSART_Write_Text
  3432     0272                     l2974:
  3433                           
  3434                           ;main.c: 791:             UART_PrintUint32(red_buf[n - 1]);
  3435     0272  0022               	movlb	2	; select bank2
  3436     0273  085E               	movf	main@n^(0+256),w
  3437     0274  0020               	movlb	0	; select bank0
  3438     0275  00D0               	movwf	??_main
  3439     0276  3001               	movlw	1
  3440     0277                     u3125:
  3441     0277  35D0               	lslf	??_main,f
  3442     0278  3EFF               	addlw	-1
  3443     0279  1D03               	skipz
  3444     027A  2A77               	goto	u3125
  3445     027B  3550               	lslf	??_main,w
  3446     027C  3EFC               	addlw	252
  3447     027D  3EA0               	addlw	(low (main@red_buf| 0))& (0+255)
  3448     027E  0086               	movwf	6
  3449     027F  0187               	clrf	7
  3450     0280  3F40               	moviw [0]fsr1
  3451     0281  00AD               	movwf	UART_PrintUint32@val
  3452     0282  3F41               	moviw [1]fsr1
  3453     0283  00AE               	movwf	UART_PrintUint32@val+1
  3454     0284  3F42               	moviw [2]fsr1
  3455     0285  00AF               	movwf	UART_PrintUint32@val+2
  3456     0286  3F43               	moviw [3]fsr1
  3457     0287  00B0               	movwf	UART_PrintUint32@val+3
  3458     0288  318D  2563  3180   	fcall	_UART_PrintUint32
  3459     028B                     l2976:
  3460                           
  3461                           ;main.c: 793:             if (current_bpm > 0)
  3462     028B  0021               	movlb	1	; select bank1
  3463     028C  086D               	movf	main@current_bpm^(0+128),w
  3464     028D  046E               	iorwf	(main@current_bpm+1)^(0+128),w
  3465     028E  1903               	btfsc	3,2
  3466     028F  2A91               	goto	u3131
  3467     0290  2A92               	goto	u3130
  3468     0291                     u3131:
  3469     0291  2AA5               	goto	l2982
  3470     0292                     u3130:
  3471     0292                     l2978:
  3472                           
  3473                           ;main.c: 794:             {;main.c: 795:                 EUSART_Write_Text("  BPM=");
  3474     0292  3028               	movlw	low (STR_12| (0+32768))
  3475     0293  00F1               	movwf	EUSART_Write_Text@text
  3476     0294  3098               	movlw	high (STR_12| (0+32768))
  3477     0295  00F2               	movwf	EUSART_Write_Text@text+1
  3478     0296  3188  2068  3180   	fcall	_EUSART_Write_Text
  3479     0299                     l2980:
  3480                           
  3481                           ;main.c: 796:                 UART_PrintUint16(current_bpm);
  3482     0299  0021               	movlb	1	; select bank1
  3483     029A  086E               	movf	(main@current_bpm+1)^(0+128),w
  3484     029B  0020               	movlb	0	; select bank0
  3485     029C  00C0               	movwf	UART_PrintUint16@val+1
  3486     029D  0021               	movlb	1	; select bank1
  3487     029E  086D               	movf	main@current_bpm^(0+128),w
  3488     029F  0020               	movlb	0	; select bank0
  3489     02A0  00BF               	movwf	UART_PrintUint16@val
  3490     02A1  3197  27DA  3180   	fcall	_UART_PrintUint16
  3491                           
  3492                           ;main.c: 797:             }
  3493     02A4  2AAC               	goto	l2984
  3494     02A5                     l2982:
  3495                           
  3496                           ;main.c: 799:             {;main.c: 800:                 EUSART_Write_Text("  BPM=---");
  3497     02A5  3016               	movlw	low (STR_13| (0+32768))
  3498     02A6  00F1               	movwf	EUSART_Write_Text@text
  3499     02A7  3098               	movlw	high (STR_13| (0+32768))
  3500     02A8  00F2               	movwf	EUSART_Write_Text@text+1
  3501     02A9  3188  2068  3180   	fcall	_EUSART_Write_Text
  3502     02AC                     l2984:
  3503                           
  3504                           ;main.c: 803:             if (current_spo2 > 0)
  3505     02AC  0021               	movlb	1	; select bank1
  3506     02AD  086F               	movf	main@current_spo2^(0+128),w
  3507     02AE  1903               	btfsc	3,2
  3508     02AF  2AB1               	goto	u3141
  3509     02B0  2AB2               	goto	u3140
  3510     02B1                     u3141:
  3511     02B1  2ACD               	goto	l2992
  3512     02B2                     u3140:
  3513     02B2                     l2986:
  3514                           
  3515                           ;main.c: 804:             {;main.c: 805:                 EUSART_Write_Text("  SpO2=");
  3516     02B2  3020               	movlw	low (STR_14| (0+32768))
  3517     02B3  00F1               	movwf	EUSART_Write_Text@text
  3518     02B4  3098               	movlw	high (STR_14| (0+32768))
  3519     02B5  00F2               	movwf	EUSART_Write_Text@text+1
  3520     02B6  3188  2068  3180   	fcall	_EUSART_Write_Text
  3521     02B9                     l2988:
  3522                           
  3523                           ;main.c: 806:                 UART_PrintUint16((uint16_t)current_spo2);
  3524     02B9  0021               	movlb	1	; select bank1
  3525     02BA  086F               	movf	main@current_spo2^(0+128),w
  3526     02BB  0020               	movlb	0	; select bank0
  3527     02BC  00D0               	movwf	??_main
  3528     02BD  01D1               	clrf	??_main+1
  3529     02BE  0850               	movf	??_main,w
  3530     02BF  00BF               	movwf	UART_PrintUint16@val
  3531     02C0  0851               	movf	??_main+1,w
  3532     02C1  00C0               	movwf	UART_PrintUint16@val+1
  3533     02C2  3197  27DA  3180   	fcall	_UART_PrintUint16
  3534     02C5                     l2990:
  3535                           
  3536                           ;main.c: 807:                 EUSART_Write_Text("%");
  3537     02C5  300A               	movlw	low ((STR_16+10)| (0+32768))
  3538     02C6  00F1               	movwf	EUSART_Write_Text@text
  3539     02C7  3098               	movlw	high ((STR_16+10)| (0+32768))
  3540     02C8  00F2               	movwf	EUSART_Write_Text@text+1
  3541     02C9  3188  2068  3180   	fcall	_EUSART_Write_Text
  3542                           
  3543                           ;main.c: 808:             }
  3544     02CC  2AD4               	goto	l452
  3545     02CD                     l2992:
  3546                           
  3547                           ;main.c: 810:             {;main.c: 811:                 EUSART_Write_Text("  SpO2=---%"
      +                          );
  3548     02CD  3000               	movlw	low (STR_16| (0+32768))
  3549     02CE  00F1               	movwf	EUSART_Write_Text@text
  3550     02CF  3098               	movlw	high (STR_16| (0+32768))
  3551     02D0  00F2               	movwf	EUSART_Write_Text@text+1
  3552     02D1  3188  2068  3180   	fcall	_EUSART_Write_Text
  3553     02D4                     l452:	
  3554                           ;main.c: 812:             }
  3555                           
  3556                           
  3557                           ;main.c: 814:             EUSART_Write_Text("\r\n");
  3558     02D4  3091               	movlw	low ((STR_7+27)| (0+32768))
  3559     02D5  00F1               	movwf	EUSART_Write_Text@text
  3560     02D6  3090               	movlw	high ((STR_7+27)| (0+32768))
  3561     02D7  00F2               	movwf	EUSART_Write_Text@text+1
  3562     02D8  3188  2068  3180   	fcall	_EUSART_Write_Text
  3563     02DB  28BB               	goto	l2888
  3564     02DC  3180  2819         	ljmp	start
  3565     02DE                     __end_of_main:
  3566                           
  3567                           	psect	text1
  3568     0A18                     __ptext1:	
  3569 ;; *************** function _spo2_reset *****************
  3570 ;; Defined at:
  3571 ;;		line 477 in file "main.c"
  3572 ;; Parameters:    Size  Location     Type
  3573 ;;		None
  3574 ;; Auto vars:     Size  Location     Type
  3575 ;;		None
  3576 ;; Return value:  Size  Location     Type
  3577 ;;                  1    wreg      void 
  3578 ;; Registers used:
  3579 ;;		wreg, status,2
  3580 ;; Tracked objects:
  3581 ;;		On entry : 0/0
  3582 ;;		On exit  : 0/0
  3583 ;;		Unchanged: 0/0
  3584 ;; Data sizes:     COMMON   BANK0   BANK1   BANK2   BANK3   BANK4   BANK5   BANK6   BANK7   BANK8   BANK9  BANK10  BANK1
      +1  BANK12  BANK13  BANK14  BANK15  BANK16  BANK17  BANK18  BANK19  BANK20  BANK21  BANK22  BANK23  BANK24  BANK25
  3585 ;;      Params:         0       0       0       0       0       0       0       0       0       0       0       0       
      +0       0       0       0       0       0       0       0       0       0       0       0       0       0       0
  3586 ;;      Locals:         0       0       0       0       0       0       0       0       0       0       0       0       
      +0       0       0       0       0       0       0       0       0       0       0       0       0       0       0
  3587 ;;      Temps:          0       0       0       0       0       0       0       0       0       0       0       0       
      +0       0       0       0       0       0       0       0       0       0       0       0       0       0       0
  3588 ;;      Totals:         0       0       0       0       0       0       0       0       0       0       0       0       
      +0       0       0       0       0       0       0       0       0       0       0       0       0       0       0
  3589 ;;Total ram usage:        0 bytes
  3590 ;; Hardware stack levels used: 1
  3591 ;; Hardware stack levels required when called: 1
  3592 ;; This function calls:
  3593 ;;		Nothing
  3594 ;; This function is called by:
  3595 ;;		_main
  3596 ;; This function uses a non-reentrant model
  3597 ;;
  3598                           
  3599     0A18                     _spo2_reset:	
  3600                           ;psect for function _spo2_reset
  3601                           
  3602     0A18                     l2636:	
  3603                           ;incstack = 0
  3604                           ; Regs used in _spo2_reset: [wreg+status,2]
  3605                           
  3606                           
  3607                           ;main.c: 479:     spo2_acc.ir_sum = 0;
  3608     0A18  3000               	movlw	0
  3609     0A19  0022               	movlb	2	; select bank2
  3610     0A1A  00A3               	movwf	(_spo2_acc+3)^(0+256)
  3611     0A1B  3000               	movlw	0
  3612     0A1C  00A2               	movwf	(_spo2_acc+2)^(0+256)
  3613     0A1D  3000               	movlw	0
  3614     0A1E  00A1               	movwf	(_spo2_acc+1)^(0+256)
  3615     0A1F  3000               	movlw	0
  3616     0A20  00A0               	movwf	_spo2_acc^(0+256)
  3617                           
  3618                           ;main.c: 480:     spo2_acc.red_sum = 0;
  3619     0A21  3000               	movlw	0
  3620     0A22  00A7               	movwf	((_spo2_acc+3)^(0+256)+4)
  3621     0A23  3000               	movlw	0
  3622     0A24  00A6               	movwf	((_spo2_acc+2)^(0+256)+4)
  3623     0A25  3000               	movlw	0
  3624     0A26  00A5               	movwf	((_spo2_acc+1)^(0+256)+4)
  3625     0A27  3000               	movlw	0
  3626     0A28  00A4               	movwf	(_spo2_acc^(0+256)+4)
  3627                           
  3628                           ;main.c: 481:     spo2_acc.ir_max = 0;
  3629     0A29  3000               	movlw	0
  3630     0A2A  00AB               	movwf	((_spo2_acc+3)^(0+256)+8)
  3631     0A2B  3000               	movlw	0
  3632     0A2C  00AA               	movwf	((_spo2_acc+2)^(0+256)+8)
  3633     0A2D  3000               	movlw	0
  3634     0A2E  00A9               	movwf	((_spo2_acc+1)^(0+256)+8)
  3635     0A2F  3000               	movlw	0
  3636     0A30  00A8               	movwf	(_spo2_acc^(0+256)+8)
  3637                           
  3638                           ;main.c: 482:     spo2_acc.ir_min = 0x3FFFF;
  3639     0A31  3000               	movlw	0
  3640     0A32  00AF               	movwf	((_spo2_acc+3)^(0+256)+12)
  3641     0A33  3003               	movlw	3
  3642     0A34  00AE               	movwf	((_spo2_acc+2)^(0+256)+12)
  3643     0A35  30FF               	movlw	255
  3644     0A36  00AD               	movwf	((_spo2_acc+1)^(0+256)+12)
  3645     0A37  30FF               	movlw	255
  3646     0A38  00AC               	movwf	(_spo2_acc^(0+256)+12)
  3647                           
  3648                           ;main.c: 483:     spo2_acc.red_max = 0;
  3649     0A39  3000               	movlw	0
  3650     0A3A  00B3               	movwf	((_spo2_acc+3)^(0+256)+16)
  3651     0A3B  3000               	movlw	0
  3652     0A3C  00B2               	movwf	((_spo2_acc+2)^(0+256)+16)
  3653     0A3D  3000               	movlw	0
  3654     0A3E  00B1               	movwf	((_spo2_acc+1)^(0+256)+16)
  3655     0A3F  3000               	movlw	0
  3656     0A40  00B0               	movwf	(_spo2_acc^(0+256)+16)
  3657                           
  3658                           ;main.c: 484:     spo2_acc.red_min = 0x3FFFF;
  3659     0A41  3000               	movlw	0
  3660     0A42  00B7               	movwf	((_spo2_acc+3)^(0+256)+20)
  3661     0A43  3003               	movlw	3
  3662     0A44  00B6               	movwf	((_spo2_acc+2)^(0+256)+20)
  3663     0A45  30FF               	movlw	255
  3664     0A46  00B5               	movwf	((_spo2_acc+1)^(0+256)+20)
  3665     0A47  30FF               	movlw	255
  3666     0A48  00B4               	movwf	(_spo2_acc^(0+256)+20)
  3667     0A49                     l2638:
  3668                           
  3669                           ;main.c: 485:     spo2_acc.count = 0;
  3670     0A49  01B8               	clrf	(_spo2_acc^(0+256)+24)
  3671     0A4A  01B9               	clrf	((_spo2_acc+1)^(0+256)+24)
  3672     0A4B                     l345:
  3673     0A4B  0008               	return
  3674     0A4C                     __end_of_spo2_reset:
  3675                           
  3676                           	psect	text2
  3677     0456                     __ptext2:	
  3678 ;; *************** function _spo2_compute *****************
  3679 ;; Defined at:
  3680 ;;		line 499 in file "main.c"
  3681 ;; Parameters:    Size  Location     Type
  3682 ;;		None
  3683 ;; Auto vars:     Size  Location     Type
  3684 ;;  ratio_x100      4   41[BANK0 ] unsigned long 
  3685 ;;  den             4   37[BANK0 ] unsigned long 
  3686 ;;  dc_red          4   33[BANK0 ] unsigned long 
  3687 ;;  dc_ir           4   29[BANK0 ] unsigned long 
  3688 ;;  ac_ir           4   25[BANK0 ] unsigned long 
  3689 ;;  num             4   21[BANK0 ] unsigned long 
  3690 ;;  ac_red          4   17[BANK0 ] unsigned long 
  3691 ;; Return value:  Size  Location     Type
  3692 ;;                  1    wreg      unsigned char 
  3693 ;; Registers used:
  3694 ;;		wreg, fsr0l, fsr0h, fsr1l, fsr1h, status,2, status,0, pclath, cstack
  3695 ;; Tracked objects:
  3696 ;;		On entry : 0/0
  3697 ;;		On exit  : 0/0
  3698 ;;		Unchanged: 0/0
  3699 ;; Data sizes:     COMMON   BANK0   BANK1   BANK2   BANK3   BANK4   BANK5   BANK6   BANK7   BANK8   BANK9  BANK10  BANK1
      +1  BANK12  BANK13  BANK14  BANK15  BANK16  BANK17  BANK18  BANK19  BANK20  BANK21  BANK22  BANK23  BANK24  BANK25
  3700 ;;      Params:         0       0       0       0       0       0       0       0       0       0       0       0       
      +0       0       0       0       0       0       0       0       0       0       0       0       0       0       0
  3701 ;;      Locals:         0      28       0       0       0       0       0       0       0       0       0       0       
      +0       0       0       0       0       0       0       0       0       0       0       0       0       0       0
  3702 ;;      Temps:          0       4       0       0       0       0       0       0       0       0       0       0       
      +0       0       0       0       0       0       0       0       0       0       0       0       0       0       0
  3703 ;;      Totals:         0      32       0       0       0       0       0       0       0       0       0       0       
      +0       0       0       0       0       0       0       0       0       0       0       0       0       0       0
  3704 ;;Total ram usage:       32 bytes
  3705 ;; Hardware stack levels used: 1
  3706 ;; Hardware stack levels required when called: 2
  3707 ;; This function calls:
  3708 ;;		___lldiv
  3709 ;;		___lmul
  3710 ;; This function is called by:
  3711 ;;		_main
  3712 ;; This function uses a non-reentrant model
  3713 ;;
  3714                           
  3715     0456                     _spo2_compute:	
  3716                           ;psect for function _spo2_compute
  3717                           
  3718     0456                     l2654:	
  3719                           ;incstack = 0
  3720                           ; Regs used in _spo2_compute: [wreg-fsr1h+status,2+status,0+pclath+cstack]
  3721                           
  3722                           
  3723                           ;main.c: 501:     if (spo2_acc.count == 0) return 0;
  3724     0456  0022               	movlb	2	; select bank2
  3725     0457  0838               	movf	(_spo2_acc^(0+256)+24),w
  3726     0458  0439               	iorwf	((_spo2_acc+1)^(0+256)+24),w
  3727     0459  1D03               	btfss	3,2
  3728     045A  2C5C               	goto	u2651
  3729     045B  2C5D               	goto	u2650
  3730     045C                     u2651:
  3731     045C  2C5F               	goto	l2660
  3732     045D                     u2650:
  3733     045D                     l2656:
  3734     045D  3000               	movlw	0
  3735     045E  2DAF               	goto	l356
  3736     045F                     l2660:
  3737                           
  3738                           ;main.c: 503:     uint32_t ac_ir = spo2_acc.ir_max - spo2_acc.ir_min;
  3739     045F  082C               	movf	(_spo2_acc^(0+256)+12),w
  3740     0460  0228               	subwf	(_spo2_acc^(0+256)+8),w
  3741     0461  0020               	movlb	0	; select bank0
  3742     0462  00AD               	movwf	??_spo2_compute
  3743     0463  0022               	movlb	2	; select bank2
  3744     0464  082D               	movf	((_spo2_acc+1)^(0+256)+12),w
  3745     0465  3B29               	subwfb	((_spo2_acc+1)^(0+256)+8),w
  3746     0466  0020               	movlb	0	; select bank0
  3747     0467  00AE               	movwf	??_spo2_compute+1
  3748     0468  0022               	movlb	2	; select bank2
  3749     0469  082E               	movf	((_spo2_acc+2)^(0+256)+12),w
  3750     046A  3B2A               	subwfb	((_spo2_acc+2)^(0+256)+8),w
  3751     046B  0020               	movlb	0	; select bank0
  3752     046C  00AF               	movwf	??_spo2_compute+2
  3753     046D  0022               	movlb	2	; select bank2
  3754     046E  082F               	movf	((_spo2_acc+3)^(0+256)+12),w
  3755     046F  3B2B               	subwfb	((_spo2_acc+3)^(0+256)+8),w
  3756     0470  0020               	movlb	0	; select bank0
  3757     0471  00B0               	movwf	??_spo2_compute+3
  3758     0472  0830               	movf	??_spo2_compute+3,w
  3759     0473  00BC               	movwf	spo2_compute@ac_ir+3
  3760     0474  082F               	movf	??_spo2_compute+2,w
  3761     0475  00BB               	movwf	spo2_compute@ac_ir+2
  3762     0476  082E               	movf	??_spo2_compute+1,w
  3763     0477  00BA               	movwf	spo2_compute@ac_ir+1
  3764     0478  082D               	movf	??_spo2_compute,w
  3765     0479  00B9               	movwf	spo2_compute@ac_ir
  3766                           
  3767                           ;main.c: 504:     uint32_t ac_red = spo2_acc.red_max - spo2_acc.red_min;
  3768     047A  0022               	movlb	2	; select bank2
  3769     047B  0834               	movf	(_spo2_acc^(0+256)+20),w
  3770     047C  0230               	subwf	(_spo2_acc^(0+256)+16),w
  3771     047D  0020               	movlb	0	; select bank0
  3772     047E  00AD               	movwf	??_spo2_compute
  3773     047F  0022               	movlb	2	; select bank2
  3774     0480  0835               	movf	((_spo2_acc+1)^(0+256)+20),w
  3775     0481  3B31               	subwfb	((_spo2_acc+1)^(0+256)+16),w
  3776     0482  0020               	movlb	0	; select bank0
  3777     0483  00AE               	movwf	??_spo2_compute+1
  3778     0484  0022               	movlb	2	; select bank2
  3779     0485  0836               	movf	((_spo2_acc+2)^(0+256)+20),w
  3780     0486  3B32               	subwfb	((_spo2_acc+2)^(0+256)+16),w
  3781     0487  0020               	movlb	0	; select bank0
  3782     0488  00AF               	movwf	??_spo2_compute+2
  3783     0489  0022               	movlb	2	; select bank2
  3784     048A  0837               	movf	((_spo2_acc+3)^(0+256)+20),w
  3785     048B  3B33               	subwfb	((_spo2_acc+3)^(0+256)+16),w
  3786     048C  0020               	movlb	0	; select bank0
  3787     048D  00B0               	movwf	??_spo2_compute+3
  3788     048E  0830               	movf	??_spo2_compute+3,w
  3789     048F  00B4               	movwf	spo2_compute@ac_red+3
  3790     0490  082F               	movf	??_spo2_compute+2,w
  3791     0491  00B3               	movwf	spo2_compute@ac_red+2
  3792     0492  082E               	movf	??_spo2_compute+1,w
  3793     0493  00B2               	movwf	spo2_compute@ac_red+1
  3794     0494  082D               	movf	??_spo2_compute,w
  3795     0495  00B1               	movwf	spo2_compute@ac_red
  3796     0496                     l2662:
  3797                           
  3798                           ;main.c: 505:     uint32_t dc_ir = spo2_acc.ir_sum / spo2_acc.count;
  3799     0496  0022               	movlb	2	; select bank2
  3800     0497  0838               	movf	(_spo2_acc^(0+256)+24),w
  3801     0498  0020               	movlb	0	; select bank0
  3802     0499  00A0               	movwf	___lldiv@divisor
  3803     049A  0022               	movlb	2	; select bank2
  3804     049B  0839               	movf	((_spo2_acc+1)^(0+256)+24),w
  3805     049C  0020               	movlb	0	; select bank0
  3806     049D  00A1               	movwf	___lldiv@divisor+1
  3807     049E  01A2               	clrf	___lldiv@divisor+2
  3808     049F  01A3               	clrf	___lldiv@divisor+3
  3809     04A0  0022               	movlb	2	; select bank2
  3810     04A1  0823               	movf	(_spo2_acc+3)^(0+256),w
  3811     04A2  0020               	movlb	0	; select bank0
  3812     04A3  00A7               	movwf	___lldiv@dividend+3
  3813     04A4  0022               	movlb	2	; select bank2
  3814     04A5  0822               	movf	(_spo2_acc+2)^(0+256),w
  3815     04A6  0020               	movlb	0	; select bank0
  3816     04A7  00A6               	movwf	___lldiv@dividend+2
  3817     04A8  0022               	movlb	2	; select bank2
  3818     04A9  0821               	movf	(_spo2_acc+1)^(0+256),w
  3819     04AA  0020               	movlb	0	; select bank0
  3820     04AB  00A5               	movwf	___lldiv@dividend+1
  3821     04AC  0022               	movlb	2	; select bank2
  3822     04AD  0820               	movf	_spo2_acc^(0+256),w
  3823     04AE  0020               	movlb	0	; select bank0
  3824     04AF  00A4               	movwf	___lldiv@dividend
  3825     04B0  318C  24A1  3184   	fcall	___lldiv
  3826     04B3  0020               	movlb	0	; select bank0
  3827     04B4  0823               	movf	?___lldiv+3,w
  3828     04B5  00C0               	movwf	spo2_compute@dc_ir+3
  3829     04B6  0822               	movf	?___lldiv+2,w
  3830     04B7  00BF               	movwf	spo2_compute@dc_ir+2
  3831     04B8  0821               	movf	?___lldiv+1,w
  3832     04B9  00BE               	movwf	spo2_compute@dc_ir+1
  3833     04BA  0820               	movf	?___lldiv,w
  3834     04BB  00BD               	movwf	spo2_compute@dc_ir
  3835     04BC                     l2664:
  3836                           
  3837                           ;main.c: 506:     uint32_t dc_red = spo2_acc.red_sum / spo2_acc.count;
  3838     04BC  0022               	movlb	2	; select bank2
  3839     04BD  0838               	movf	(_spo2_acc^(0+256)+24),w
  3840     04BE  0020               	movlb	0	; select bank0
  3841     04BF  00A0               	movwf	___lldiv@divisor
  3842     04C0  0022               	movlb	2	; select bank2
  3843     04C1  0839               	movf	((_spo2_acc+1)^(0+256)+24),w
  3844     04C2  0020               	movlb	0	; select bank0
  3845     04C3  00A1               	movwf	___lldiv@divisor+1
  3846     04C4  01A2               	clrf	___lldiv@divisor+2
  3847     04C5  01A3               	clrf	___lldiv@divisor+3
  3848     04C6  3004               	movlw	4
  3849     04C7  3E20               	addlw	(low (_spo2_acc| (0+256)))& (0+255)
  3850     04C8  0086               	movwf	6
  3851     04C9  3001               	movlw	1	; select bank2/3
  3852     04CA  0087               	movwf	7
  3853     04CB  3F40               	moviw [0]fsr1
  3854     04CC  00A4               	movwf	___lldiv@dividend
  3855     04CD  3F41               	moviw [1]fsr1
  3856     04CE  00A5               	movwf	___lldiv@dividend+1
  3857     04CF  3F42               	moviw [2]fsr1
  3858     04D0  00A6               	movwf	___lldiv@dividend+2
  3859     04D1  3F43               	moviw [3]fsr1
  3860     04D2  00A7               	movwf	___lldiv@dividend+3
  3861     04D3  318C  24A1  3184   	fcall	___lldiv
  3862     04D6  0020               	movlb	0	; select bank0
  3863     04D7  0823               	movf	?___lldiv+3,w
  3864     04D8  00C4               	movwf	spo2_compute@dc_red+3
  3865     04D9  0822               	movf	?___lldiv+2,w
  3866     04DA  00C3               	movwf	spo2_compute@dc_red+2
  3867     04DB  0821               	movf	?___lldiv+1,w
  3868     04DC  00C2               	movwf	spo2_compute@dc_red+1
  3869     04DD  0820               	movf	?___lldiv,w
  3870     04DE  00C1               	movwf	spo2_compute@dc_red
  3871     04DF                     l2666:
  3872                           
  3873                           ;main.c: 508:     if (ac_ir == 0 || dc_ir == 0 || dc_red == 0) return 0;
  3874     04DF  083C               	movf	spo2_compute@ac_ir+3,w
  3875     04E0  043B               	iorwf	spo2_compute@ac_ir+2,w
  3876     04E1  043A               	iorwf	spo2_compute@ac_ir+1,w
  3877     04E2  0439               	iorwf	spo2_compute@ac_ir,w
  3878     04E3  1903               	skipnz
  3879     04E4  2CE6               	goto	u2661
  3880     04E5  2CE7               	goto	u2660
  3881     04E6                     u2661:
  3882     04E6  2C5D               	goto	l2656
  3883     04E7                     u2660:
  3884     04E7                     l2668:
  3885     04E7  0840               	movf	spo2_compute@dc_ir+3,w
  3886     04E8  043F               	iorwf	spo2_compute@dc_ir+2,w
  3887     04E9  043E               	iorwf	spo2_compute@dc_ir+1,w
  3888     04EA  043D               	iorwf	spo2_compute@dc_ir,w
  3889     04EB  1903               	skipnz
  3890     04EC  2CEE               	goto	u2671
  3891     04ED  2CEF               	goto	u2670
  3892     04EE                     u2671:
  3893     04EE  2C5D               	goto	l2656
  3894     04EF                     u2670:
  3895     04EF                     l2670:
  3896     04EF  0844               	movf	spo2_compute@dc_red+3,w
  3897     04F0  0443               	iorwf	spo2_compute@dc_red+2,w
  3898     04F1  0442               	iorwf	spo2_compute@dc_red+1,w
  3899     04F2  0441               	iorwf	spo2_compute@dc_red,w
  3900     04F3  1D03               	skipz
  3901     04F4  2CF6               	goto	u2681
  3902     04F5  2CF7               	goto	u2680
  3903     04F6                     u2681:
  3904     04F6  2CF8               	goto	l2676
  3905     04F7                     u2680:
  3906     04F7  2C5D               	goto	l2656
  3907     04F8                     l2676:
  3908                           
  3909                           ;main.c: 511:     uint32_t num = (ac_red >> 4) * dc_ir;
  3910     04F8  0831               	movf	spo2_compute@ac_red,w
  3911     04F9  00AD               	movwf	??_spo2_compute
  3912     04FA  0832               	movf	spo2_compute@ac_red+1,w
  3913     04FB  00AE               	movwf	??_spo2_compute+1
  3914     04FC  0833               	movf	spo2_compute@ac_red+2,w
  3915     04FD  00AF               	movwf	??_spo2_compute+2
  3916     04FE  0834               	movf	spo2_compute@ac_red+3,w
  3917     04FF  00B0               	movwf	??_spo2_compute+3
  3918     0500  3004               	movlw	4
  3919     0501                     u2695:
  3920     0501  36B0               	lsrf	??_spo2_compute+3,f
  3921     0502  0CAF               	rrf	??_spo2_compute+2,f
  3922     0503  0CAE               	rrf	??_spo2_compute+1,f
  3923     0504  0CAD               	rrf	??_spo2_compute,f
  3924     0505                     u2690:
  3925     0505  0B89               	decfsz	9,f
  3926     0506  2D01               	goto	u2695
  3927     0507  0830               	movf	??_spo2_compute+3,w
  3928     0508  00F3               	movwf	___lmul@multiplier+3
  3929     0509  082F               	movf	??_spo2_compute+2,w
  3930     050A  00F2               	movwf	___lmul@multiplier+2
  3931     050B  082E               	movf	??_spo2_compute+1,w
  3932     050C  00F1               	movwf	___lmul@multiplier+1
  3933     050D  082D               	movf	??_spo2_compute,w
  3934     050E  00F0               	movwf	___lmul@multiplier
  3935     050F  0840               	movf	spo2_compute@dc_ir+3,w
  3936     0510  00F7               	movwf	___lmul@multiplicand+3
  3937     0511  083F               	movf	spo2_compute@dc_ir+2,w
  3938     0512  00F6               	movwf	___lmul@multiplicand+2
  3939     0513  083E               	movf	spo2_compute@dc_ir+1,w
  3940     0514  00F5               	movwf	___lmul@multiplicand+1
  3941     0515  083D               	movf	spo2_compute@dc_ir,w
  3942     0516  00F4               	movwf	___lmul@multiplicand
  3943     0517  3189  21B1  3184   	fcall	___lmul
  3944     051A  0873               	movf	?___lmul+3,w
  3945     051B  0020               	movlb	0	; select bank0
  3946     051C  00B8               	movwf	spo2_compute@num+3
  3947     051D  0872               	movf	?___lmul+2,w
  3948     051E  00B7               	movwf	spo2_compute@num+2
  3949     051F  0871               	movf	?___lmul+1,w
  3950     0520  00B6               	movwf	spo2_compute@num+1
  3951     0521  0870               	movf	?___lmul,w
  3952     0522  00B5               	movwf	spo2_compute@num
  3953                           
  3954                           ;main.c: 512:     uint32_t den = (ac_ir >> 4) * dc_red;
  3955     0523  0839               	movf	spo2_compute@ac_ir,w
  3956     0524  00AD               	movwf	??_spo2_compute
  3957     0525  083A               	movf	spo2_compute@ac_ir+1,w
  3958     0526  00AE               	movwf	??_spo2_compute+1
  3959     0527  083B               	movf	spo2_compute@ac_ir+2,w
  3960     0528  00AF               	movwf	??_spo2_compute+2
  3961     0529  083C               	movf	spo2_compute@ac_ir+3,w
  3962     052A  00B0               	movwf	??_spo2_compute+3
  3963     052B  3004               	movlw	4
  3964     052C                     u2705:
  3965     052C  36B0               	lsrf	??_spo2_compute+3,f
  3966     052D  0CAF               	rrf	??_spo2_compute+2,f
  3967     052E  0CAE               	rrf	??_spo2_compute+1,f
  3968     052F  0CAD               	rrf	??_spo2_compute,f
  3969     0530                     u2700:
  3970     0530  0B89               	decfsz	9,f
  3971     0531  2D2C               	goto	u2705
  3972     0532  0830               	movf	??_spo2_compute+3,w
  3973     0533  00F3               	movwf	___lmul@multiplier+3
  3974     0534  082F               	movf	??_spo2_compute+2,w
  3975     0535  00F2               	movwf	___lmul@multiplier+2
  3976     0536  082E               	movf	??_spo2_compute+1,w
  3977     0537  00F1               	movwf	___lmul@multiplier+1
  3978     0538  082D               	movf	??_spo2_compute,w
  3979     0539  00F0               	movwf	___lmul@multiplier
  3980     053A  0844               	movf	spo2_compute@dc_red+3,w
  3981     053B  00F7               	movwf	___lmul@multiplicand+3
  3982     053C  0843               	movf	spo2_compute@dc_red+2,w
  3983     053D  00F6               	movwf	___lmul@multiplicand+2
  3984     053E  0842               	movf	spo2_compute@dc_red+1,w
  3985     053F  00F5               	movwf	___lmul@multiplicand+1
  3986     0540  0841               	movf	spo2_compute@dc_red,w
  3987     0541  00F4               	movwf	___lmul@multiplicand
  3988     0542  3189  21B1  3184   	fcall	___lmul
  3989     0545  0873               	movf	?___lmul+3,w
  3990     0546  0020               	movlb	0	; select bank0
  3991     0547  00C8               	movwf	spo2_compute@den+3
  3992     0548  0872               	movf	?___lmul+2,w
  3993     0549  00C7               	movwf	spo2_compute@den+2
  3994     054A  0871               	movf	?___lmul+1,w
  3995     054B  00C6               	movwf	spo2_compute@den+1
  3996     054C  0870               	movf	?___lmul,w
  3997     054D  00C5               	movwf	spo2_compute@den
  3998     054E                     l2678:
  3999                           
  4000                           ;main.c: 514:     if (den == 0) return 0;
  4001     054E  0848               	movf	spo2_compute@den+3,w
  4002     054F  0447               	iorwf	spo2_compute@den+2,w
  4003     0550  0446               	iorwf	spo2_compute@den+1,w
  4004     0551  0445               	iorwf	spo2_compute@den,w
  4005     0552  1D03               	skipz
  4006     0553  2D55               	goto	u2711
  4007     0554  2D56               	goto	u2710
  4008     0555                     u2711:
  4009     0555  2D57               	goto	l2684
  4010     0556                     u2710:
  4011     0556  2C5D               	goto	l2656
  4012     0557                     l2684:
  4013                           
  4014                           ;main.c: 516:     uint32_t ratio_x100 = (num * 100UL) / den;
  4015     0557  0848               	movf	spo2_compute@den+3,w
  4016     0558  00A3               	movwf	___lldiv@divisor+3
  4017     0559  0847               	movf	spo2_compute@den+2,w
  4018     055A  00A2               	movwf	___lldiv@divisor+2
  4019     055B  0846               	movf	spo2_compute@den+1,w
  4020     055C  00A1               	movwf	___lldiv@divisor+1
  4021     055D  0845               	movf	spo2_compute@den,w
  4022     055E  00A0               	movwf	___lldiv@divisor
  4023     055F  0838               	movf	spo2_compute@num+3,w
  4024     0560  00F3               	movwf	___lmul@multiplier+3
  4025     0561  0837               	movf	spo2_compute@num+2,w
  4026     0562  00F2               	movwf	___lmul@multiplier+2
  4027     0563  0836               	movf	spo2_compute@num+1,w
  4028     0564  00F1               	movwf	___lmul@multiplier+1
  4029     0565  0835               	movf	spo2_compute@num,w
  4030     0566  00F0               	movwf	___lmul@multiplier
  4031     0567  3000               	movlw	0
  4032     0568  00F7               	movwf	___lmul@multiplicand+3
  4033     0569  3000               	movlw	0
  4034     056A  00F6               	movwf	___lmul@multiplicand+2
  4035     056B  3000               	movlw	0
  4036     056C  00F5               	movwf	___lmul@multiplicand+1
  4037     056D  3064               	movlw	100
  4038     056E  00F4               	movwf	___lmul@multiplicand
  4039     056F  3189  21B1  3184   	fcall	___lmul
  4040     0572  0873               	movf	?___lmul+3,w
  4041     0573  0020               	movlb	0	; select bank0
  4042     0574  00A7               	movwf	___lldiv@dividend+3
  4043     0575  0872               	movf	?___lmul+2,w
  4044     0576  00A6               	movwf	___lldiv@dividend+2
  4045     0577  0871               	movf	?___lmul+1,w
  4046     0578  00A5               	movwf	___lldiv@dividend+1
  4047     0579  0870               	movf	?___lmul,w
  4048     057A  00A4               	movwf	___lldiv@dividend
  4049     057B  318C  24A1  3184   	fcall	___lldiv
  4050     057E  0020               	movlb	0	; select bank0
  4051     057F  0823               	movf	?___lldiv+3,w
  4052     0580  00CC               	movwf	spo2_compute@ratio_x100+3
  4053     0581  0822               	movf	?___lldiv+2,w
  4054     0582  00CB               	movwf	spo2_compute@ratio_x100+2
  4055     0583  0821               	movf	?___lldiv+1,w
  4056     0584  00CA               	movwf	spo2_compute@ratio_x100+1
  4057     0585  0820               	movf	?___lldiv,w
  4058     0586  00C9               	movwf	spo2_compute@ratio_x100
  4059     0587                     l2686:
  4060                           
  4061                           ;main.c: 518:     if (ratio_x100 > 2 && ratio_x100 < 184)
  4062     0587  084C               	movf	spo2_compute@ratio_x100+3,w
  4063     0588  1D03               	btfss	3,2
  4064     0589  2D96               	goto	u2720
  4065     058A  084B               	movf	spo2_compute@ratio_x100+2,w
  4066     058B  1D03               	btfss	3,2
  4067     058C  2D96               	goto	u2720
  4068     058D  084A               	movf	spo2_compute@ratio_x100+1,w
  4069     058E  1D03               	btfss	3,2
  4070     058F  2D96               	goto	u2720
  4071     0590  3003               	movlw	3
  4072     0591  0249               	subwf	spo2_compute@ratio_x100,w
  4073     0592  1C03               	btfss	3,0
  4074     0593  2D95               	goto	u2721
  4075     0594  2D96               	goto	u2720
  4076     0595                     u2721:
  4077     0595  2C5D               	goto	l2656
  4078     0596                     u2720:
  4079     0596                     l2688:
  4080     0596  0020               	movlb	0	; select bank0
  4081     0597  084C               	movf	spo2_compute@ratio_x100+3,w
  4082     0598  1D03               	btfss	3,2
  4083     0599  2DA5               	goto	u2731
  4084     059A  084B               	movf	spo2_compute@ratio_x100+2,w
  4085     059B  1D03               	btfss	3,2
  4086     059C  2DA5               	goto	u2731
  4087     059D  084A               	movf	spo2_compute@ratio_x100+1,w
  4088     059E  1D03               	btfss	3,2
  4089     059F  2DA5               	goto	u2731
  4090     05A0  30B8               	movlw	184
  4091     05A1  0249               	subwf	spo2_compute@ratio_x100,w
  4092     05A2  1803               	btfsc	3,0
  4093     05A3  2DA5               	goto	u2731
  4094     05A4  2DA6               	goto	u2730
  4095     05A5                     u2731:
  4096     05A5  2C5D               	goto	l2656
  4097     05A6                     u2730:
  4098     05A6                     l2690:
  4099                           
  4100                           ;main.c: 519:         return uch_spo2_table[ratio_x100];
  4101     05A6  304C               	movlw	low _uch_spo2_table
  4102     05A7  0020               	movlb	0	; select bank0
  4103     05A8  0749               	addwf	spo2_compute@ratio_x100,w
  4104     05A9  0084               	movwf	4
  4105     05AA  3007               	movlw	high _uch_spo2_table
  4106     05AB  3D4A               	addwfc	spo2_compute@ratio_x100+1,w
  4107     05AC  3880               	iorlw	128
  4108     05AD  0085               	movwf	5
  4109     05AE  0800               	movf	0,w	;code access
  4110     05AF                     l356:
  4111     05AF  0008               	return
  4112     05B0                     __end_of_spo2_compute:
  4113                           
  4114                           	psect	text3
  4115     0F64                     __ptext3:	
  4116 ;; *************** function _spo2_accumulate *****************
  4117 ;; Defined at:
  4118 ;;		line 488 in file "main.c"
  4119 ;; Parameters:    Size  Location     Type
  4120 ;;  ir              4    0[COMMON] unsigned long 
  4121 ;;  red             4    4[COMMON] unsigned long 
  4122 ;; Auto vars:     Size  Location     Type
  4123 ;;		None
  4124 ;; Return value:  Size  Location     Type
  4125 ;;                  1    wreg      void 
  4126 ;; Registers used:
  4127 ;;		wreg, status,2, status,0
  4128 ;; Tracked objects:
  4129 ;;		On entry : 0/0
  4130 ;;		On exit  : 0/0
  4131 ;;		Unchanged: 0/0
  4132 ;; Data sizes:     COMMON   BANK0   BANK1   BANK2   BANK3   BANK4   BANK5   BANK6   BANK7   BANK8   BANK9  BANK10  BANK1
      +1  BANK12  BANK13  BANK14  BANK15  BANK16  BANK17  BANK18  BANK19  BANK20  BANK21  BANK22  BANK23  BANK24  BANK25
  4133 ;;      Params:         8       0       0       0       0       0       0       0       0       0       0       0       
      +0       0       0       0       0       0       0       0       0       0       0       0       0       0       0
  4134 ;;      Locals:         0       0       0       0       0       0       0       0       0       0       0       0       
      +0       0       0       0       0       0       0       0       0       0       0       0       0       0       0
  4135 ;;      Temps:          4       0       0       0       0       0       0       0       0       0       0       0       
      +0       0       0       0       0       0       0       0       0       0       0       0       0       0       0
  4136 ;;      Totals:        12       0       0       0       0       0       0       0       0       0       0       0       
      +0       0       0       0       0       0       0       0       0       0       0       0       0       0       0
  4137 ;;Total ram usage:       12 bytes
  4138 ;; Hardware stack levels used: 1
  4139 ;; Hardware stack levels required when called: 1
  4140 ;; This function calls:
  4141 ;;		Nothing
  4142 ;; This function is called by:
  4143 ;;		_main
  4144 ;; This function uses a non-reentrant model
  4145 ;;
  4146                           
  4147     0F64                     _spo2_accumulate:	
  4148                           ;psect for function _spo2_accumulate
  4149                           
  4150     0F64                     l2640:	
  4151                           ;incstack = 0
  4152                           ; Regs used in _spo2_accumulate: [wreg+status,2+status,0]
  4153                           
  4154                           
  4155                           ;main.c: 488: static void spo2_accumulate(uint32_t ir, uint32_t red);main.c: 489: {;main
      +                          .c: 490:     spo2_acc.ir_sum += (ir >> 4);
  4156     0F64  0870               	movf	spo2_accumulate@ir,w
  4157     0F65  00F8               	movwf	??_spo2_accumulate
  4158     0F66  0871               	movf	spo2_accumulate@ir+1,w
  4159     0F67  00F9               	movwf	??_spo2_accumulate+1
  4160     0F68  0872               	movf	spo2_accumulate@ir+2,w
  4161     0F69  00FA               	movwf	??_spo2_accumulate+2
  4162     0F6A  0873               	movf	spo2_accumulate@ir+3,w
  4163     0F6B  00FB               	movwf	??_spo2_accumulate+3
  4164     0F6C  3004               	movlw	4
  4165     0F6D                     u2595:
  4166     0F6D  36FB               	lsrf	??_spo2_accumulate+3,f
  4167     0F6E  0CFA               	rrf	??_spo2_accumulate+2,f
  4168     0F6F  0CF9               	rrf	??_spo2_accumulate+1,f
  4169     0F70  0CF8               	rrf	??_spo2_accumulate,f
  4170     0F71                     u2590:
  4171     0F71  0B89               	decfsz	9,f
  4172     0F72  2F6D               	goto	u2595
  4173     0F73  0878               	movf	??_spo2_accumulate,w
  4174     0F74  0022               	movlb	2	; select bank2
  4175     0F75  07A0               	addwf	_spo2_acc^(0+256),f
  4176     0F76  0879               	movf	??_spo2_accumulate+1,w
  4177     0F77  3DA1               	addwfc	(_spo2_acc+1)^(0+256),f
  4178     0F78  087A               	movf	??_spo2_accumulate+2,w
  4179     0F79  3DA2               	addwfc	(_spo2_acc+2)^(0+256),f
  4180     0F7A  087B               	movf	??_spo2_accumulate+3,w
  4181     0F7B  3DA3               	addwfc	(_spo2_acc+3)^(0+256),f
  4182                           
  4183                           ;main.c: 491:     spo2_acc.red_sum += (red >> 4);
  4184     0F7C  0874               	movf	spo2_accumulate@red,w
  4185     0F7D  00F8               	movwf	??_spo2_accumulate
  4186     0F7E  0875               	movf	spo2_accumulate@red+1,w
  4187     0F7F  00F9               	movwf	??_spo2_accumulate+1
  4188     0F80  0876               	movf	spo2_accumulate@red+2,w
  4189     0F81  00FA               	movwf	??_spo2_accumulate+2
  4190     0F82  0877               	movf	spo2_accumulate@red+3,w
  4191     0F83  00FB               	movwf	??_spo2_accumulate+3
  4192     0F84  3004               	movlw	4
  4193     0F85                     u2605:
  4194     0F85  36FB               	lsrf	??_spo2_accumulate+3,f
  4195     0F86  0CFA               	rrf	??_spo2_accumulate+2,f
  4196     0F87  0CF9               	rrf	??_spo2_accumulate+1,f
  4197     0F88  0CF8               	rrf	??_spo2_accumulate,f
  4198     0F89                     u2600:
  4199     0F89  0B89               	decfsz	9,f
  4200     0F8A  2F85               	goto	u2605
  4201     0F8B  0878               	movf	??_spo2_accumulate,w
  4202     0F8C  07A4               	addwf	(_spo2_acc^(0+256)+4),f
  4203     0F8D  0879               	movf	??_spo2_accumulate+1,w
  4204     0F8E  3DA5               	addwfc	((_spo2_acc+1)^(0+256)+4),f
  4205     0F8F  087A               	movf	??_spo2_accumulate+2,w
  4206     0F90  3DA6               	addwfc	((_spo2_acc+2)^(0+256)+4),f
  4207     0F91  087B               	movf	??_spo2_accumulate+3,w
  4208     0F92  3DA7               	addwfc	((_spo2_acc+3)^(0+256)+4),f
  4209     0F93                     l2642:
  4210                           
  4211                           ;main.c: 492:     spo2_acc.count++;
  4212     0F93  3001               	movlw	1
  4213     0F94  07B8               	addwf	(_spo2_acc^(0+256)+24),f
  4214     0F95  3000               	movlw	0
  4215     0F96  3DB9               	addwfc	((_spo2_acc+1)^(0+256)+24),f
  4216     0F97                     l2644:
  4217                           
  4218                           ;main.c: 493:     if (ir > spo2_acc.ir_max) spo2_acc.ir_max = ir;
  4219     0F97  0873               	movf	spo2_accumulate@ir+3,w
  4220     0F98  022B               	subwf	((_spo2_acc+3)^(0+256)+8),w
  4221     0F99  1D03               	skipz
  4222     0F9A  2FA5               	goto	u2615
  4223     0F9B  0872               	movf	spo2_accumulate@ir+2,w
  4224     0F9C  022A               	subwf	((_spo2_acc+2)^(0+256)+8),w
  4225     0F9D  1D03               	skipz
  4226     0F9E  2FA5               	goto	u2615
  4227     0F9F  0871               	movf	spo2_accumulate@ir+1,w
  4228     0FA0  0229               	subwf	((_spo2_acc+1)^(0+256)+8),w
  4229     0FA1  1D03               	skipz
  4230     0FA2  2FA5               	goto	u2615
  4231     0FA3  0870               	movf	spo2_accumulate@ir,w
  4232     0FA4  0228               	subwf	(_spo2_acc^(0+256)+8),w
  4233     0FA5                     u2615:
  4234     0FA5  1803               	skipnc
  4235     0FA6  2FA8               	goto	u2611
  4236     0FA7  2FA9               	goto	u2610
  4237     0FA8                     u2611:
  4238     0FA8  2FB1               	goto	l348
  4239     0FA9                     u2610:
  4240     0FA9                     l2646:
  4241     0FA9  0873               	movf	spo2_accumulate@ir+3,w
  4242     0FAA  00AB               	movwf	((_spo2_acc+3)^(0+256)+8)
  4243     0FAB  0872               	movf	spo2_accumulate@ir+2,w
  4244     0FAC  00AA               	movwf	((_spo2_acc+2)^(0+256)+8)
  4245     0FAD  0871               	movf	spo2_accumulate@ir+1,w
  4246     0FAE  00A9               	movwf	((_spo2_acc+1)^(0+256)+8)
  4247     0FAF  0870               	movf	spo2_accumulate@ir,w
  4248     0FB0  00A8               	movwf	(_spo2_acc^(0+256)+8)
  4249     0FB1                     l348:
  4250                           
  4251                           ;main.c: 494:     if (ir < spo2_acc.ir_min) spo2_acc.ir_min = ir;
  4252     0FB1  082F               	movf	((_spo2_acc+3)^(0+256)+12),w
  4253     0FB2  0273               	subwf	spo2_accumulate@ir+3,w
  4254     0FB3  1D03               	skipz
  4255     0FB4  2FBF               	goto	u2625
  4256     0FB5  082E               	movf	((_spo2_acc+2)^(0+256)+12),w
  4257     0FB6  0272               	subwf	spo2_accumulate@ir+2,w
  4258     0FB7  1D03               	skipz
  4259     0FB8  2FBF               	goto	u2625
  4260     0FB9  082D               	movf	((_spo2_acc+1)^(0+256)+12),w
  4261     0FBA  0271               	subwf	spo2_accumulate@ir+1,w
  4262     0FBB  1D03               	skipz
  4263     0FBC  2FBF               	goto	u2625
  4264     0FBD  082C               	movf	(_spo2_acc^(0+256)+12),w
  4265     0FBE  0270               	subwf	spo2_accumulate@ir,w
  4266     0FBF                     u2625:
  4267     0FBF  1803               	skipnc
  4268     0FC0  2FC2               	goto	u2621
  4269     0FC1  2FC3               	goto	u2620
  4270     0FC2                     u2621:
  4271     0FC2  2FCB               	goto	l349
  4272     0FC3                     u2620:
  4273     0FC3                     l2648:
  4274     0FC3  0873               	movf	spo2_accumulate@ir+3,w
  4275     0FC4  00AF               	movwf	((_spo2_acc+3)^(0+256)+12)
  4276     0FC5  0872               	movf	spo2_accumulate@ir+2,w
  4277     0FC6  00AE               	movwf	((_spo2_acc+2)^(0+256)+12)
  4278     0FC7  0871               	movf	spo2_accumulate@ir+1,w
  4279     0FC8  00AD               	movwf	((_spo2_acc+1)^(0+256)+12)
  4280     0FC9  0870               	movf	spo2_accumulate@ir,w
  4281     0FCA  00AC               	movwf	(_spo2_acc^(0+256)+12)
  4282     0FCB                     l349:
  4283                           
  4284                           ;main.c: 495:     if (red > spo2_acc.red_max) spo2_acc.red_max = red;
  4285     0FCB  0877               	movf	spo2_accumulate@red+3,w
  4286     0FCC  0233               	subwf	((_spo2_acc+3)^(0+256)+16),w
  4287     0FCD  1D03               	skipz
  4288     0FCE  2FD9               	goto	u2635
  4289     0FCF  0876               	movf	spo2_accumulate@red+2,w
  4290     0FD0  0232               	subwf	((_spo2_acc+2)^(0+256)+16),w
  4291     0FD1  1D03               	skipz
  4292     0FD2  2FD9               	goto	u2635
  4293     0FD3  0875               	movf	spo2_accumulate@red+1,w
  4294     0FD4  0231               	subwf	((_spo2_acc+1)^(0+256)+16),w
  4295     0FD5  1D03               	skipz
  4296     0FD6  2FD9               	goto	u2635
  4297     0FD7  0874               	movf	spo2_accumulate@red,w
  4298     0FD8  0230               	subwf	(_spo2_acc^(0+256)+16),w
  4299     0FD9                     u2635:
  4300     0FD9  1803               	skipnc
  4301     0FDA  2FDC               	goto	u2631
  4302     0FDB  2FDD               	goto	u2630
  4303     0FDC                     u2631:
  4304     0FDC  2FE5               	goto	l350
  4305     0FDD                     u2630:
  4306     0FDD                     l2650:
  4307     0FDD  0877               	movf	spo2_accumulate@red+3,w
  4308     0FDE  00B3               	movwf	((_spo2_acc+3)^(0+256)+16)
  4309     0FDF  0876               	movf	spo2_accumulate@red+2,w
  4310     0FE0  00B2               	movwf	((_spo2_acc+2)^(0+256)+16)
  4311     0FE1  0875               	movf	spo2_accumulate@red+1,w
  4312     0FE2  00B1               	movwf	((_spo2_acc+1)^(0+256)+16)
  4313     0FE3  0874               	movf	spo2_accumulate@red,w
  4314     0FE4  00B0               	movwf	(_spo2_acc^(0+256)+16)
  4315     0FE5                     l350:
  4316                           
  4317                           ;main.c: 496:     if (red < spo2_acc.red_min) spo2_acc.red_min = red;
  4318     0FE5  0837               	movf	((_spo2_acc+3)^(0+256)+20),w
  4319     0FE6  0277               	subwf	spo2_accumulate@red+3,w
  4320     0FE7  1D03               	skipz
  4321     0FE8  2FF3               	goto	u2645
  4322     0FE9  0836               	movf	((_spo2_acc+2)^(0+256)+20),w
  4323     0FEA  0276               	subwf	spo2_accumulate@red+2,w
  4324     0FEB  1D03               	skipz
  4325     0FEC  2FF3               	goto	u2645
  4326     0FED  0835               	movf	((_spo2_acc+1)^(0+256)+20),w
  4327     0FEE  0275               	subwf	spo2_accumulate@red+1,w
  4328     0FEF  1D03               	skipz
  4329     0FF0  2FF3               	goto	u2645
  4330     0FF1  0834               	movf	(_spo2_acc^(0+256)+20),w
  4331     0FF2  0274               	subwf	spo2_accumulate@red,w
  4332     0FF3                     u2645:
  4333     0FF3  1803               	skipnc
  4334     0FF4  2FF6               	goto	u2641
  4335     0FF5  2FF7               	goto	u2640
  4336     0FF6                     u2641:
  4337     0FF6  2FFF               	goto	l352
  4338     0FF7                     u2640:
  4339     0FF7                     l2652:
  4340     0FF7  0877               	movf	spo2_accumulate@red+3,w
  4341     0FF8  00B7               	movwf	((_spo2_acc+3)^(0+256)+20)
  4342     0FF9  0876               	movf	spo2_accumulate@red+2,w
  4343     0FFA  00B6               	movwf	((_spo2_acc+2)^(0+256)+20)
  4344     0FFB  0875               	movf	spo2_accumulate@red+1,w
  4345     0FFC  00B5               	movwf	((_spo2_acc+1)^(0+256)+20)
  4346     0FFD  0874               	movf	spo2_accumulate@red,w
  4347     0FFE  00B4               	movwf	(_spo2_acc^(0+256)+20)
  4348     0FFF                     l352:
  4349     0FFF  0008               	return
  4350     1000                     __end_of_spo2_accumulate:
  4351                           
  4352                           	psect	text4
  4353     09E4                     __ptext4:	
  4354 ;; *************** function _pba_init *****************
  4355 ;; Defined at:
  4356 ;;		line 343 in file "main.c"
  4357 ;; Parameters:    Size  Location     Type
  4358 ;;		None
  4359 ;; Auto vars:     Size  Location     Type
  4360 ;;  i               1    1[COMMON] unsigned char 
  4361 ;; Return value:  Size  Location     Type
  4362 ;;                  1    wreg      void 
  4363 ;; Registers used:
  4364 ;;		wreg, fsr1l, fsr1h, status,2, status,0
  4365 ;; Tracked objects:
  4366 ;;		On entry : 0/0
  4367 ;;		On exit  : 0/0
  4368 ;;		Unchanged: 0/0
  4369 ;; Data sizes:     COMMON   BANK0   BANK1   BANK2   BANK3   BANK4   BANK5   BANK6   BANK7   BANK8   BANK9  BANK10  BANK1
      +1  BANK12  BANK13  BANK14  BANK15  BANK16  BANK17  BANK18  BANK19  BANK20  BANK21  BANK22  BANK23  BANK24  BANK25
  4370 ;;      Params:         0       0       0       0       0       0       0       0       0       0       0       0       
      +0       0       0       0       0       0       0       0       0       0       0       0       0       0       0
  4371 ;;      Locals:         1       0       0       0       0       0       0       0       0       0       0       0       
      +0       0       0       0       0       0       0       0       0       0       0       0       0       0       0
  4372 ;;      Temps:          1       0       0       0       0       0       0       0       0       0       0       0       
      +0       0       0       0       0       0       0       0       0       0       0       0       0       0       0
  4373 ;;      Totals:         2       0       0       0       0       0       0       0       0       0       0       0       
      +0       0       0       0       0       0       0       0       0       0       0       0       0       0       0
  4374 ;;Total ram usage:        2 bytes
  4375 ;; Hardware stack levels used: 1
  4376 ;; Hardware stack levels required when called: 1
  4377 ;; This function calls:
  4378 ;;		Nothing
  4379 ;; This function is called by:
  4380 ;;		_main
  4381 ;; This function uses a non-reentrant model
  4382 ;;
  4383                           
  4384     09E4                     _pba_init:	
  4385                           ;psect for function _pba_init
  4386                           
  4387     09E4                     l2562:	
  4388                           ;incstack = 0
  4389                           ; Regs used in _pba_init: [wreg+fsr1l+fsr1h+status,2+status,0]
  4390                           
  4391                           
  4392                           ;main.c: 345:     pba_IR_AC_Max = 20;
  4393     09E4  3014               	movlw	20
  4394     09E5  0020               	movlb	0	; select bank0
  4395     09E6  00EE               	movwf	_pba_IR_AC_Max
  4396     09E7  3000               	movlw	0
  4397     09E8  00EF               	movwf	_pba_IR_AC_Max+1
  4398                           
  4399                           ;main.c: 346:     pba_IR_AC_Min = -20;
  4400     09E9  30EC               	movlw	236
  4401     09EA  00EC               	movwf	_pba_IR_AC_Min
  4402     09EB  30FF               	movlw	255
  4403     09EC  00ED               	movwf	_pba_IR_AC_Min+1
  4404     09ED                     l2564:
  4405                           
  4406                           ;main.c: 347:     pba_IR_AC_Signal_Current = 0;
  4407     09ED  01E5               	clrf	_pba_IR_AC_Signal_Current
  4408     09EE  01E6               	clrf	_pba_IR_AC_Signal_Current+1
  4409     09EF                     l2566:
  4410                           
  4411                           ;main.c: 348:     pba_IR_AC_Signal_Previous = 0;
  4412     09EF  01E3               	clrf	_pba_IR_AC_Signal_Previous
  4413     09F0  01E4               	clrf	_pba_IR_AC_Signal_Previous+1
  4414     09F1                     l2568:
  4415                           
  4416                           ;main.c: 349:     pba_IR_AC_Signal_min = 0;
  4417     09F1  01E1               	clrf	_pba_IR_AC_Signal_min
  4418     09F2  01E2               	clrf	_pba_IR_AC_Signal_min+1
  4419     09F3                     l2570:
  4420                           
  4421                           ;main.c: 350:     pba_IR_AC_Signal_max = 0;
  4422     09F3  01DF               	clrf	_pba_IR_AC_Signal_max
  4423     09F4  01E0               	clrf	_pba_IR_AC_Signal_max+1
  4424     09F5                     l2572:
  4425                           
  4426                           ;main.c: 351:     pba_positiveEdge = 0;
  4427     09F5  01DD               	clrf	_pba_positiveEdge
  4428     09F6  01DE               	clrf	_pba_positiveEdge+1
  4429     09F7                     l2574:
  4430                           
  4431                           ;main.c: 352:     pba_negativeEdge = 0;
  4432     09F7  01DB               	clrf	_pba_negativeEdge
  4433     09F8  01DC               	clrf	_pba_negativeEdge+1
  4434                           
  4435                           ;main.c: 353:     pba_ir_avg_reg = 0;
  4436     09F9  3000               	movlw	0
  4437     09FA  0022               	movlb	2	; select bank2
  4438     09FB  00D3               	movwf	(_pba_ir_avg_reg+3)^(0+256)
  4439     09FC  3000               	movlw	0
  4440     09FD  00D2               	movwf	(_pba_ir_avg_reg+2)^(0+256)
  4441     09FE  3000               	movlw	0
  4442     09FF  00D1               	movwf	(_pba_ir_avg_reg+1)^(0+256)
  4443     0A00  3000               	movlw	0
  4444     0A01  00D0               	movwf	_pba_ir_avg_reg^(0+256)
  4445     0A02                     l2576:
  4446                           
  4447                           ;main.c: 354:     pba_offset = 0;
  4448     0A02  0020               	movlb	0	; select bank0
  4449     0A03  01E9               	clrf	_pba_offset
  4450     0A04                     l2578:
  4451                           
  4452                           ;main.c: 355:     for (uint8_t i = 0; i < 32; i++) pba_cbuf[i] = 0;
  4453     0A04  01F1               	clrf	pba_init@i
  4454     0A05                     l2582:
  4455     0A05  3571               	lslf	pba_init@i,w
  4456     0A06  3E20               	addlw	(low (_pba_cbuf| (0+512)))& (0+255)
  4457     0A07  0086               	movwf	6
  4458     0A08  3002               	movlw	2	; select bank4/5
  4459     0A09  0087               	movwf	7
  4460     0A0A  3000               	movlw	0
  4461     0A0B  3FC0               	movwi [0]fsr1
  4462     0A0C  3FC1               	movwi [1]fsr1
  4463     0A0D                     l2584:
  4464     0A0D  3001               	movlw	1
  4465     0A0E  00F0               	movwf	??_pba_init
  4466     0A0F  0870               	movf	??_pba_init,w
  4467     0A10  07F1               	addwf	pba_init@i,f
  4468     0A11                     l2586:
  4469     0A11  3020               	movlw	32
  4470     0A12  0271               	subwf	pba_init@i,w
  4471     0A13  1C03               	skipc
  4472     0A14  2A16               	goto	u2481
  4473     0A15  2A17               	goto	u2480
  4474     0A16                     u2481:
  4475     0A16  2A05               	goto	l2582
  4476     0A17                     u2480:
  4477     0A17                     l319:
  4478     0A17  0008               	return
  4479     0A18                     __end_of_pba_init:
  4480                           
  4481                           	psect	text5
  4482     0A8B                     __ptext5:	
  4483 ;; *************** function _initMain *****************
  4484 ;; Defined at:
  4485 ;;		line 633 in file "main.c"
  4486 ;; Parameters:    Size  Location     Type
  4487 ;;		None
  4488 ;; Auto vars:     Size  Location     Type
  4489 ;;		None
  4490 ;; Return value:  Size  Location     Type
  4491 ;;                  1    wreg      void 
  4492 ;; Registers used:
  4493 ;;		wreg, status,2, status,0, pclath, cstack
  4494 ;; Tracked objects:
  4495 ;;		On entry : 0/0
  4496 ;;		On exit  : 0/0
  4497 ;;		Unchanged: 0/0
  4498 ;; Data sizes:     COMMON   BANK0   BANK1   BANK2   BANK3   BANK4   BANK5   BANK6   BANK7   BANK8   BANK9  BANK10  BANK1
      +1  BANK12  BANK13  BANK14  BANK15  BANK16  BANK17  BANK18  BANK19  BANK20  BANK21  BANK22  BANK23  BANK24  BANK25
  4499 ;;      Params:         0       0       0       0       0       0       0       0       0       0       0       0       
      +0       0       0       0       0       0       0       0       0       0       0       0       0       0       0
  4500 ;;      Locals:         0       0       0       0       0       0       0       0       0       0       0       0       
      +0       0       0       0       0       0       0       0       0       0       0       0       0       0       0
  4501 ;;      Temps:          2       0       0       0       0       0       0       0       0       0       0       0       
      +0       0       0       0       0       0       0       0       0       0       0       0       0       0       0
  4502 ;;      Totals:         2       0       0       0       0       0       0       0       0       0       0       0       
      +0       0       0       0       0       0       0       0       0       0       0       0       0       0       0
  4503 ;;Total ram usage:        2 bytes
  4504 ;; Hardware stack levels used: 1
  4505 ;; Hardware stack levels required when called: 2
  4506 ;; This function calls:
  4507 ;;		_internal_32
  4508 ;; This function is called by:
  4509 ;;		_main
  4510 ;; This function uses a non-reentrant model
  4511 ;;
  4512                           
  4513     0A8B                     _initMain:	
  4514                           ;psect for function _initMain
  4515                           
  4516     0A8B                     l2796:	
  4517                           ;incstack = 0
  4518                           ; Regs used in _initMain: [wreg+status,2+status,0+pclath+cstack]
  4519                           
  4520                           
  4521                           ;main.c: 635:     internal_32();
  4522     0A8B  3188  2004  318A   	fcall	_internal_32
  4523     0A8E                     l2798:
  4524                           
  4525                           ;main.c: 636:     _delay((unsigned long)((100)*(32000000/4000.0)));
  4526     0A8E  3005               	movlw	5
  4527     0A8F  00F1               	movwf	??_initMain+1
  4528     0A90  300F               	movlw	15
  4529     0A91  00F0               	movwf	??_initMain
  4530     0A92  30F1               	movlw	241
  4531     0A93                     u3167:
  4532     0A93  0B89               	decfsz	9,f
  4533     0A94  2A93               	goto	u3167
  4534     0A95  0BF0               	decfsz	??_initMain,f
  4535     0A96  2A93               	goto	u3167
  4536     0A97  0BF1               	decfsz	??_initMain+1,f
  4537     0A98  2A93               	goto	u3167
  4538     0A99  0000               	nop
  4539     0A9A                     l2800:
  4540                           
  4541                           ;main.c: 638:     TRISBbits.TRISB2 = 0;
  4542     0A9A  0021               	movlb	1	; select bank1
  4543     0A9B  110D               	bcf	13,2	;volatile
  4544     0A9C                     l2802:
  4545                           
  4546                           ;main.c: 639:     ANSELBbits.ANSB2 = 0;
  4547     0A9C  0023               	movlb	3	; select bank3
  4548     0A9D  110D               	bcf	13,2	;volatile
  4549     0A9E                     l2804:
  4550                           
  4551                           ;main.c: 641:     ANSELCbits.ANSC4 = 0;
  4552     0A9E  120E               	bcf	14,4	;volatile
  4553     0A9F                     l2806:
  4554                           
  4555                           ;main.c: 642:     ANSELCbits.ANSC5 = 0;
  4556     0A9F  128E               	bcf	14,5	;volatile
  4557     0AA0                     l2808:
  4558                           
  4559                           ;main.c: 643:     TRISCbits.TRISC4 = 1;
  4560     0AA0  0021               	movlb	1	; select bank1
  4561     0AA1  160E               	bsf	14,4	;volatile
  4562     0AA2                     l2810:
  4563                           
  4564                           ;main.c: 644:     TRISCbits.TRISC5 = 1;
  4565     0AA2  168E               	bsf	14,5	;volatile
  4566     0AA3                     l2812:
  4567                           
  4568                           ;main.c: 646:     PPSLOCK = 0x55;
  4569     0AA3  3055               	movlw	85
  4570     0AA4  003C               	movlb	28	; select bank28
  4571     0AA5  008F               	movwf	15	;volsfr
  4572     0AA6                     l2814:
  4573                           
  4574                           ;main.c: 647:     PPSLOCK = 0xAA;
  4575     0AA6  30AA               	movlw	170
  4576     0AA7  008F               	movwf	15	;volsfr
  4577     0AA8                     l2816:
  4578                           
  4579                           ;main.c: 648:     PPSLOCKbits.PPSLOCKED = 0x00;
  4580     0AA8  100F               	bcf	15,0	;volsfr
  4581     0AA9                     l2818:
  4582                           
  4583                           ;main.c: 650:     RB2PPSbits.RB2PPS = 0x14;
  4584     0AA9  003D               	movlb	29	; select bank29
  4585     0AAA  081A               	movf	26,w	;volatile
  4586     0AAB  39E0               	andlw	-32
  4587     0AAC  3814               	iorlw	20
  4588     0AAD  009A               	movwf	26	;volatile
  4589     0AAE                     l2820:
  4590                           
  4591                           ;main.c: 651:     RXPPSbits.RXPPS = 0x0B;
  4592     0AAE  003C               	movlb	28	; select bank28
  4593     0AAF  0824               	movf	36,w	;volatile
  4594     0AB0  39E0               	andlw	-32
  4595     0AB1  380B               	iorlw	11
  4596     0AB2  00A4               	movwf	36	;volatile
  4597     0AB3                     l2822:
  4598                           
  4599                           ;main.c: 652:     RC4PPSbits.RC4PPS = 0x0011;
  4600     0AB3  003D               	movlb	29	; select bank29
  4601     0AB4  0824               	movf	36,w	;volatile
  4602     0AB5  39E0               	andlw	-32
  4603     0AB6  3811               	iorlw	17
  4604     0AB7  00A4               	movwf	36	;volatile
  4605     0AB8                     l2824:
  4606                           
  4607                           ;main.c: 653:     SSPDATPPSbits.SSPDATPPS = 0x0014;
  4608     0AB8  003C               	movlb	28	; select bank28
  4609     0AB9  0821               	movf	33,w	;volatile
  4610     0ABA  39E0               	andlw	-32
  4611     0ABB  3814               	iorlw	20
  4612     0ABC  00A1               	movwf	33	;volatile
  4613     0ABD                     l2826:
  4614                           
  4615                           ;main.c: 654:     SSPCLKPPSbits.SSPCLKPPS = 0x0015;
  4616     0ABD  0820               	movf	32,w	;volatile
  4617     0ABE  39E0               	andlw	-32
  4618     0ABF  3815               	iorlw	21
  4619     0AC0  00A0               	movwf	32	;volatile
  4620     0AC1                     l2828:
  4621                           
  4622                           ;main.c: 655:     RC5PPSbits.RC5PPS = 0x0010;
  4623     0AC1  003D               	movlb	29	; select bank29
  4624     0AC2  0825               	movf	37,w	;volatile
  4625     0AC3  39E0               	andlw	-32
  4626     0AC4  3810               	iorlw	16
  4627     0AC5  00A5               	movwf	37	;volatile
  4628     0AC6                     l2830:
  4629                           
  4630                           ;main.c: 657:     PPSLOCK = 0x55;
  4631     0AC6  3055               	movlw	85
  4632     0AC7  003C               	movlb	28	; select bank28
  4633     0AC8  008F               	movwf	15	;volsfr
  4634     0AC9                     l2832:
  4635                           
  4636                           ;main.c: 658:     PPSLOCK = 0xAA;
  4637     0AC9  30AA               	movlw	170
  4638     0ACA  008F               	movwf	15	;volsfr
  4639     0ACB                     l2834:
  4640                           
  4641                           ;main.c: 659:     PPSLOCKbits.PPSLOCKED = 0x01;
  4642     0ACB  140F               	bsf	15,0	;volsfr
  4643     0ACC                     l423:
  4644     0ACC  0008               	return
  4645     0ACD                     __end_of_initMain:
  4646                           
  4647                           	psect	text6
  4648     0804                     __ptext6:	
  4649 ;; *************** function _internal_32 *****************
  4650 ;; Defined at:
  4651 ;;		line 36 in file "PIC16F1718_Internal.c"
  4652 ;; Parameters:    Size  Location     Type
  4653 ;;		None
  4654 ;; Auto vars:     Size  Location     Type
  4655 ;;		None
  4656 ;; Return value:  Size  Location     Type
  4657 ;;                  1    wreg      void 
  4658 ;; Registers used:
  4659 ;;		None
  4660 ;; Tracked objects:
  4661 ;;		On entry : 0/0
  4662 ;;		On exit  : 0/0
  4663 ;;		Unchanged: 0/0
  4664 ;; Data sizes:     COMMON   BANK0   BANK1   BANK2   BANK3   BANK4   BANK5   BANK6   BANK7   BANK8   BANK9  BANK10  BANK1
      +1  BANK12  BANK13  BANK14  BANK15  BANK16  BANK17  BANK18  BANK19  BANK20  BANK21  BANK22  BANK23  BANK24  BANK25
  4665 ;;      Params:         0       0       0       0       0       0       0       0       0       0       0       0       
      +0       0       0       0       0       0       0       0       0       0       0       0       0       0       0
  4666 ;;      Locals:         0       0       0       0       0       0       0       0       0       0       0       0       
      +0       0       0       0       0       0       0       0       0       0       0       0       0       0       0
  4667 ;;      Temps:          0       0       0       0       0       0       0       0       0       0       0       0       
      +0       0       0       0       0       0       0       0       0       0       0       0       0       0       0
  4668 ;;      Totals:         0       0       0       0       0       0       0       0       0       0       0       0       
      +0       0       0       0       0       0       0       0       0       0       0       0       0       0       0
  4669 ;;Total ram usage:        0 bytes
  4670 ;; Hardware stack levels used: 1
  4671 ;; Hardware stack levels required when called: 1
  4672 ;; This function calls:
  4673 ;;		Nothing
  4674 ;; This function is called by:
  4675 ;;		_initMain
  4676 ;; This function uses a non-reentrant model
  4677 ;;
  4678                           
  4679     0804                     _internal_32:	
  4680                           ;psect for function _internal_32
  4681                           
  4682     0804                     l2356:	
  4683                           ;incstack = 0
  4684                           ; Regs used in _internal_32: []
  4685                           
  4686                           
  4687                           ;PIC16F1718_Internal.c: 38:     SCS0 = 0;
  4688     0804  0021               	movlb	1	; select bank1
  4689     0805  1019               	bcf	25,0	;volatile
  4690                           
  4691                           ;PIC16F1718_Internal.c: 39:     SCS1 = 0;
  4692     0806  1099               	bcf	25,1	;volatile
  4693                           
  4694                           ;PIC16F1718_Internal.c: 42:     IRCF0 = 0;
  4695     0807  1199               	bcf	25,3	;volatile
  4696                           
  4697                           ;PIC16F1718_Internal.c: 43:     IRCF1 = 1;
  4698     0808  1619               	bsf	25,4	;volatile
  4699                           
  4700                           ;PIC16F1718_Internal.c: 44:     IRCF2 = 1;
  4701     0809  1699               	bsf	25,5	;volatile
  4702                           
  4703                           ;PIC16F1718_Internal.c: 45:     IRCF3 = 1;
  4704     080A  1719               	bsf	25,6	;volatile
  4705                           
  4706                           ;PIC16F1718_Internal.c: 48:     SPLLEN = 1;
  4707     080B  1799               	bsf	25,7	;volatile
  4708     080C                     l153:
  4709     080C  0008               	return
  4710     080D                     __end_of_internal_32:
  4711                           
  4712                           	psect	text7
  4713     068D                     __ptext7:	
  4714 ;; *************** function _checkForBeat *****************
  4715 ;; Defined at:
  4716 ;;		line 395 in file "main.c"
  4717 ;; Parameters:    Size  Location     Type
  4718 ;;  sample          4   14[BANK0 ] long 
  4719 ;; Auto vars:     Size  Location     Type
  4720 ;;  dc_est          2   21[BANK0 ] short 
  4721 ;;  beatDetected    1   23[BANK0 ] _Bool 
  4722 ;; Return value:  Size  Location     Type
  4723 ;;                  1    wreg      _Bool 
  4724 ;; Registers used:
  4725 ;;		wreg, fsr0l, fsr0h, fsr1l, fsr1h, status,2, status,0, pclath, cstack
  4726 ;; Tracked objects:
  4727 ;;		On entry : 0/0
  4728 ;;		On exit  : 0/0
  4729 ;;		Unchanged: 0/0
  4730 ;; Data sizes:     COMMON   BANK0   BANK1   BANK2   BANK3   BANK4   BANK5   BANK6   BANK7   BANK8   BANK9  BANK10  BANK1
      +1  BANK12  BANK13  BANK14  BANK15  BANK16  BANK17  BANK18  BANK19  BANK20  BANK21  BANK22  BANK23  BANK24  BANK25
  4731 ;;      Params:         0       4       0       0       0       0       0       0       0       0       0       0       
      +0       0       0       0       0       0       0       0       0       0       0       0       0       0       0
  4732 ;;      Locals:         0       3       0       0       0       0       0       0       0       0       0       0       
      +0       0       0       0       0       0       0       0       0       0       0       0       0       0       0
  4733 ;;      Temps:          0       3       0       0       0       0       0       0       0       0       0       0       
      +0       0       0       0       0       0       0       0       0       0       0       0       0       0       0
  4734 ;;      Totals:         0      10       0       0       0       0       0       0       0       0       0       0       
      +0       0       0       0       0       0       0       0       0       0       0       0       0       0       0
  4735 ;;Total ram usage:       10 bytes
  4736 ;; Hardware stack levels used: 1
  4737 ;; Hardware stack levels required when called: 4
  4738 ;; This function calls:
  4739 ;;		_averageDCEstimator
  4740 ;;		_lowPassFIRFilter
  4741 ;; This function is called by:
  4742 ;;		_main
  4743 ;; This function uses a non-reentrant model
  4744 ;;
  4745                           
  4746     068D                     _checkForBeat:	
  4747                           ;psect for function _checkForBeat
  4748                           
  4749     068D                     l2588:	
  4750                           ;incstack = 0
  4751                           ; Regs used in _checkForBeat: [wreg-fsr1h+status,2+status,0+pclath+cstack]
  4752                           
  4753                           
  4754                           ;main.c: 395: static _Bool checkForBeat(int32_t sample);main.c: 396: {;main.c: 397:     
      +                          _Bool beatDetected = 0;
  4755     068D  0020               	movlb	0	; select bank0
  4756     068E  01B7               	clrf	checkForBeat@beatDetected
  4757     068F                     l2590:
  4758                           
  4759                           ;main.c: 399:     pba_IR_AC_Signal_Previous = pba_IR_AC_Signal_Current;
  4760     068F  0866               	movf	_pba_IR_AC_Signal_Current+1,w
  4761     0690  00E4               	movwf	_pba_IR_AC_Signal_Previous+1
  4762     0691  0865               	movf	_pba_IR_AC_Signal_Current,w
  4763     0692  00E3               	movwf	_pba_IR_AC_Signal_Previous
  4764     0693                     l2592:
  4765                           
  4766                           ;main.c: 401:     int16_t dc_est = averageDCEstimator(&pba_ir_avg_reg, (uint16_t)sample)
      +                          ;
  4767     0693  082F               	movf	checkForBeat@sample+1,w
  4768     0694  00F1               	movwf	averageDCEstimator@x+1
  4769     0695  082E               	movf	checkForBeat@sample,w
  4770     0696  00F0               	movwf	averageDCEstimator@x
  4771     0697  3050               	movlw	(low (_pba_ir_avg_reg| (0+256)))& (0+255)
  4772     0698  318C  244F  3186   	fcall	_averageDCEstimator
  4773     069B  0871               	movf	?_averageDCEstimator+1,w
  4774     069C  0020               	movlb	0	; select bank0
  4775     069D  00B6               	movwf	checkForBeat@dc_est+1
  4776     069E  0870               	movf	?_averageDCEstimator,w
  4777     069F  00B5               	movwf	checkForBeat@dc_est
  4778     06A0                     l2594:
  4779                           
  4780                           ;main.c: 402:     pba_IR_AC_Signal_Current = lowPassFIRFilter((int16_t)(sample - dc_est)
      +                          );
  4781     06A0  0835               	movf	checkForBeat@dc_est,w
  4782     06A1  022E               	subwf	checkForBeat@sample,w
  4783     06A2  00FC               	movwf	lowPassFIRFilter@din
  4784     06A3  0836               	movf	checkForBeat@dc_est+1,w
  4785     06A4  3B2F               	subwfb	checkForBeat@sample+1,w
  4786     06A5  00FD               	movwf	lowPassFIRFilter@din+1
  4787     06A6  318E  264E  3186   	fcall	_lowPassFIRFilter
  4788     06A9  087D               	movf	?_lowPassFIRFilter+1,w
  4789     06AA  0020               	movlb	0	; select bank0
  4790     06AB  00E6               	movwf	_pba_IR_AC_Signal_Current+1
  4791     06AC  087C               	movf	?_lowPassFIRFilter,w
  4792     06AD  00E5               	movwf	_pba_IR_AC_Signal_Current
  4793     06AE                     l2596:
  4794                           
  4795                           ;main.c: 405:     if ((pba_IR_AC_Signal_Previous < 0) && (pba_IR_AC_Signal_Current >= 0)
      +                          )
  4796     06AE  1FE4               	btfss	_pba_IR_AC_Signal_Previous+1,7
  4797     06AF  2EB1               	goto	u2491
  4798     06B0  2EB2               	goto	u2490
  4799     06B1                     u2491:
  4800     06B1  2EF0               	goto	l2612
  4801     06B2                     u2490:
  4802     06B2                     l2598:
  4803     06B2  1BE6               	btfsc	_pba_IR_AC_Signal_Current+1,7
  4804     06B3  2EB5               	goto	u2501
  4805     06B4  2EB6               	goto	u2500
  4806     06B5                     u2501:
  4807     06B5  2EF0               	goto	l2612
  4808     06B6                     u2500:
  4809     06B6                     l2600:
  4810                           
  4811                           ;main.c: 406:     {;main.c: 407:         pba_IR_AC_Max = pba_IR_AC_Signal_max;
  4812     06B6  0860               	movf	_pba_IR_AC_Signal_max+1,w
  4813     06B7  00EF               	movwf	_pba_IR_AC_Max+1
  4814     06B8  085F               	movf	_pba_IR_AC_Signal_max,w
  4815     06B9  00EE               	movwf	_pba_IR_AC_Max
  4816                           
  4817                           ;main.c: 408:         pba_IR_AC_Min = pba_IR_AC_Signal_min;
  4818     06BA  0862               	movf	_pba_IR_AC_Signal_min+1,w
  4819     06BB  00ED               	movwf	_pba_IR_AC_Min+1
  4820     06BC  0861               	movf	_pba_IR_AC_Signal_min,w
  4821     06BD  00EC               	movwf	_pba_IR_AC_Min
  4822                           
  4823                           ;main.c: 410:         pba_positiveEdge = 1;
  4824     06BE  3001               	movlw	1
  4825     06BF  00DD               	movwf	_pba_positiveEdge
  4826     06C0  3000               	movlw	0
  4827     06C1  00DE               	movwf	_pba_positiveEdge+1
  4828     06C2                     l2602:
  4829                           
  4830                           ;main.c: 411:         pba_negativeEdge = 0;
  4831     06C2  01DB               	clrf	_pba_negativeEdge
  4832     06C3  01DC               	clrf	_pba_negativeEdge+1
  4833     06C4                     l2604:
  4834                           
  4835                           ;main.c: 412:         pba_IR_AC_Signal_max = 0;
  4836     06C4  01DF               	clrf	_pba_IR_AC_Signal_max
  4837     06C5  01E0               	clrf	_pba_IR_AC_Signal_max+1
  4838     06C6                     l2606:
  4839                           
  4840                           ;main.c: 414:         if ((pba_IR_AC_Max - pba_IR_AC_Min) > 20 &&
  4841     06C6  086C               	movf	_pba_IR_AC_Min,w
  4842     06C7  026E               	subwf	_pba_IR_AC_Max,w
  4843     06C8  00B2               	movwf	??_checkForBeat
  4844     06C9  086D               	movf	_pba_IR_AC_Min+1,w
  4845     06CA  3B6F               	subwfb	_pba_IR_AC_Max+1,w
  4846     06CB  00B3               	movwf	??_checkForBeat+1
  4847     06CC  0833               	movf	??_checkForBeat+1,w
  4848     06CD  3A80               	xorlw	128
  4849     06CE  00B4               	movwf	??_checkForBeat+2
  4850     06CF  3080               	movlw	128
  4851     06D0  0234               	subwf	??_checkForBeat+2,w
  4852     06D1  1D03               	skipz
  4853     06D2  2ED5               	goto	u2515
  4854     06D3  3015               	movlw	21
  4855     06D4  0232               	subwf	??_checkForBeat,w
  4856     06D5                     u2515:
  4857     06D5  1C03               	skipc
  4858     06D6  2ED8               	goto	u2511
  4859     06D7  2ED9               	goto	u2510
  4860     06D8                     u2511:
  4861     06D8  2EF0               	goto	l2612
  4862     06D9                     u2510:
  4863     06D9                     l2608:
  4864     06D9  0020               	movlb	0	; select bank0
  4865     06DA  086C               	movf	_pba_IR_AC_Min,w
  4866     06DB  026E               	subwf	_pba_IR_AC_Max,w
  4867     06DC  00B2               	movwf	??_checkForBeat
  4868     06DD  086D               	movf	_pba_IR_AC_Min+1,w
  4869     06DE  3B6F               	subwfb	_pba_IR_AC_Max+1,w
  4870     06DF  00B3               	movwf	??_checkForBeat+1
  4871     06E0  0833               	movf	??_checkForBeat+1,w
  4872     06E1  3A80               	xorlw	128
  4873     06E2  00B4               	movwf	??_checkForBeat+2
  4874     06E3  3083               	movlw	131
  4875     06E4  0234               	subwf	??_checkForBeat+2,w
  4876     06E5  1D03               	skipz
  4877     06E6  2EE9               	goto	u2525
  4878     06E7  30E8               	movlw	232
  4879     06E8  0232               	subwf	??_checkForBeat,w
  4880     06E9                     u2525:
  4881     06E9  1803               	skipnc
  4882     06EA  2EEC               	goto	u2521
  4883     06EB  2EED               	goto	u2520
  4884     06EC                     u2521:
  4885     06EC  2EF0               	goto	l2612
  4886     06ED                     u2520:
  4887     06ED                     l2610:
  4888                           
  4889                           ;main.c: 416:         {;main.c: 417:             beatDetected = 1;
  4890     06ED  0020               	movlb	0	; select bank0
  4891     06EE  01B7               	clrf	checkForBeat@beatDetected
  4892     06EF  0AB7               	incf	checkForBeat@beatDetected,f
  4893     06F0                     l2612:
  4894                           
  4895                           ;main.c: 422:     if ((pba_IR_AC_Signal_Previous > 0) && (pba_IR_AC_Signal_Current <= 0)
      +                          )
  4896     06F0  0020               	movlb	0	; select bank0
  4897     06F1  0864               	movf	_pba_IR_AC_Signal_Previous+1,w
  4898     06F2  3A80               	xorlw	128
  4899     06F3  00B2               	movwf	??_checkForBeat
  4900     06F4  3080               	movlw	128
  4901     06F5  0232               	subwf	??_checkForBeat,w
  4902     06F6  1D03               	skipz
  4903     06F7  2EFA               	goto	u2535
  4904     06F8  3001               	movlw	1
  4905     06F9  0263               	subwf	_pba_IR_AC_Signal_Previous,w
  4906     06FA                     u2535:
  4907     06FA  1C03               	skipc
  4908     06FB  2EFD               	goto	u2531
  4909     06FC  2EFE               	goto	u2530
  4910     06FD                     u2531:
  4911     06FD  2F15               	goto	l2622
  4912     06FE                     u2530:
  4913     06FE                     l2614:
  4914     06FE  0020               	movlb	0	; select bank0
  4915     06FF  0866               	movf	_pba_IR_AC_Signal_Current+1,w
  4916     0700  3A80               	xorlw	128
  4917     0701  00B2               	movwf	??_checkForBeat
  4918     0702  3080               	movlw	128
  4919     0703  0232               	subwf	??_checkForBeat,w
  4920     0704  1D03               	skipz
  4921     0705  2F08               	goto	u2545
  4922     0706  3001               	movlw	1
  4923     0707  0265               	subwf	_pba_IR_AC_Signal_Current,w
  4924     0708                     u2545:
  4925     0708  1803               	skipnc
  4926     0709  2F0B               	goto	u2541
  4927     070A  2F0C               	goto	u2540
  4928     070B                     u2541:
  4929     070B  2F15               	goto	l2622
  4930     070C                     u2540:
  4931     070C                     l2616:
  4932                           
  4933                           ;main.c: 423:     {;main.c: 424:         pba_positiveEdge = 0;
  4934     070C  0020               	movlb	0	; select bank0
  4935     070D  01DD               	clrf	_pba_positiveEdge
  4936     070E  01DE               	clrf	_pba_positiveEdge+1
  4937     070F                     l2618:
  4938                           
  4939                           ;main.c: 425:         pba_negativeEdge = 1;
  4940     070F  3001               	movlw	1
  4941     0710  00DB               	movwf	_pba_negativeEdge
  4942     0711  3000               	movlw	0
  4943     0712  00DC               	movwf	_pba_negativeEdge+1
  4944     0713                     l2620:
  4945                           
  4946                           ;main.c: 426:         pba_IR_AC_Signal_min = 0;
  4947     0713  01E1               	clrf	_pba_IR_AC_Signal_min
  4948     0714  01E2               	clrf	_pba_IR_AC_Signal_min+1
  4949     0715                     l2622:
  4950                           
  4951                           ;main.c: 430:     if (pba_positiveEdge && (pba_IR_AC_Signal_Current > pba_IR_AC_Signal_P
      +                          revious))
  4952     0715  0020               	movlb	0	; select bank0
  4953     0716  085D               	movf	_pba_positiveEdge,w
  4954     0717  045E               	iorwf	_pba_positiveEdge+1,w
  4955     0718  1903               	btfsc	3,2
  4956     0719  2F1B               	goto	u2551
  4957     071A  2F1C               	goto	u2550
  4958     071B                     u2551:
  4959     071B  2F2F               	goto	l2628
  4960     071C                     u2550:
  4961     071C                     l2624:
  4962     071C  0864               	movf	_pba_IR_AC_Signal_Previous+1,w
  4963     071D  3A80               	xorlw	128
  4964     071E  00B2               	movwf	??_checkForBeat
  4965     071F  0866               	movf	_pba_IR_AC_Signal_Current+1,w
  4966     0720  3A80               	xorlw	128
  4967     0721  0232               	subwf	??_checkForBeat,w
  4968     0722  1D03               	skipz
  4969     0723  2F26               	goto	u2565
  4970     0724  0865               	movf	_pba_IR_AC_Signal_Current,w
  4971     0725  0263               	subwf	_pba_IR_AC_Signal_Previous,w
  4972     0726                     u2565:
  4973     0726  1803               	skipnc
  4974     0727  2F29               	goto	u2561
  4975     0728  2F2A               	goto	u2560
  4976     0729                     u2561:
  4977     0729  2F2F               	goto	l2628
  4978     072A                     u2560:
  4979     072A                     l2626:
  4980                           
  4981                           ;main.c: 431:     {;main.c: 432:         pba_IR_AC_Signal_max = pba_IR_AC_Signal_Current
      +                          ;
  4982     072A  0020               	movlb	0	; select bank0
  4983     072B  0866               	movf	_pba_IR_AC_Signal_Current+1,w
  4984     072C  00E0               	movwf	_pba_IR_AC_Signal_max+1
  4985     072D  0865               	movf	_pba_IR_AC_Signal_Current,w
  4986     072E  00DF               	movwf	_pba_IR_AC_Signal_max
  4987     072F                     l2628:
  4988                           
  4989                           ;main.c: 436:     if (pba_negativeEdge && (pba_IR_AC_Signal_Current < pba_IR_AC_Signal_P
      +                          revious))
  4990     072F  0020               	movlb	0	; select bank0
  4991     0730  085B               	movf	_pba_negativeEdge,w
  4992     0731  045C               	iorwf	_pba_negativeEdge+1,w
  4993     0732  1903               	btfsc	3,2
  4994     0733  2F35               	goto	u2571
  4995     0734  2F36               	goto	u2570
  4996     0735                     u2571:
  4997     0735  2F49               	goto	l337
  4998     0736                     u2570:
  4999     0736                     l2630:
  5000     0736  0866               	movf	_pba_IR_AC_Signal_Current+1,w
  5001     0737  3A80               	xorlw	128
  5002     0738  00B2               	movwf	??_checkForBeat
  5003     0739  0864               	movf	_pba_IR_AC_Signal_Previous+1,w
  5004     073A  3A80               	xorlw	128
  5005     073B  0232               	subwf	??_checkForBeat,w
  5006     073C  1D03               	skipz
  5007     073D  2F40               	goto	u2585
  5008     073E  0863               	movf	_pba_IR_AC_Signal_Previous,w
  5009     073F  0265               	subwf	_pba_IR_AC_Signal_Current,w
  5010     0740                     u2585:
  5011     0740  1803               	skipnc
  5012     0741  2F43               	goto	u2581
  5013     0742  2F44               	goto	u2580
  5014     0743                     u2581:
  5015     0743  2F49               	goto	l337
  5016     0744                     u2580:
  5017     0744                     l2632:
  5018                           
  5019                           ;main.c: 437:     {;main.c: 438:         pba_IR_AC_Signal_min = pba_IR_AC_Signal_Current
      +                          ;
  5020     0744  0020               	movlb	0	; select bank0
  5021     0745  0866               	movf	_pba_IR_AC_Signal_Current+1,w
  5022     0746  00E2               	movwf	_pba_IR_AC_Signal_min+1
  5023     0747  0865               	movf	_pba_IR_AC_Signal_Current,w
  5024     0748  00E1               	movwf	_pba_IR_AC_Signal_min
  5025     0749                     l337:	
  5026                           ;main.c: 439:     }
  5027                           
  5028                           
  5029                           ;main.c: 441:     return beatDetected;
  5030     0749  0020               	movlb	0	; select bank0
  5031     074A  0837               	movf	checkForBeat@beatDetected,w
  5032     074B                     l338:
  5033     074B  0008               	return
  5034     074C                     __end_of_checkForBeat:
  5035                           
  5036                           	psect	text8
  5037     0E4E                     __ptext8:	
  5038 ;; *************** function _lowPassFIRFilter *****************
  5039 ;; Defined at:
  5040 ;;		line 371 in file "main.c"
  5041 ;; Parameters:    Size  Location     Type
  5042 ;;  din             2   12[COMMON] short 
  5043 ;; Auto vars:     Size  Location     Type
  5044 ;;  i               1   13[BANK0 ] unsigned char 
  5045 ;;  z               4    9[BANK0 ] long 
  5046 ;; Return value:  Size  Location     Type
  5047 ;;                  2   12[COMMON] short 
  5048 ;; Registers used:
  5049 ;;		wreg, fsr0l, fsr0h, fsr1l, fsr1h, status,2, status,0, pclath, cstack
  5050 ;; Tracked objects:
  5051 ;;		On entry : 0/0
  5052 ;;		On exit  : 0/0
  5053 ;;		Unchanged: 0/0
  5054 ;; Data sizes:     COMMON   BANK0   BANK1   BANK2   BANK3   BANK4   BANK5   BANK6   BANK7   BANK8   BANK9  BANK10  BANK1
      +1  BANK12  BANK13  BANK14  BANK15  BANK16  BANK17  BANK18  BANK19  BANK20  BANK21  BANK22  BANK23  BANK24  BANK25
  5055 ;;      Params:         2       0       0       0       0       0       0       0       0       0       0       0       
      +0       0       0       0       0       0       0       0       0       0       0       0       0       0       0
  5056 ;;      Locals:         0       5       0       0       0       0       0       0       0       0       0       0       
      +0       0       0       0       0       0       0       0       0       0       0       0       0       0       0
  5057 ;;      Temps:          0       5       0       0       0       0       0       0       0       0       0       0       
      +0       0       0       0       0       0       0       0       0       0       0       0       0       0       0
  5058 ;;      Totals:         2      10       0       0       0       0       0       0       0       0       0       0       
      +0       0       0       0       0       0       0       0       0       0       0       0       0       0       0
  5059 ;;Total ram usage:       12 bytes
  5060 ;; Hardware stack levels used: 1
  5061 ;; Hardware stack levels required when called: 3
  5062 ;; This function calls:
  5063 ;;		_mul16
  5064 ;; This function is called by:
  5065 ;;		_checkForBeat
  5066 ;; This function uses a non-reentrant model
  5067 ;;
  5068                           
  5069     0E4E                     _lowPassFIRFilter:	
  5070                           ;psect for function _lowPassFIRFilter
  5071                           
  5072     0E4E                     l2378:	
  5073                           ;incstack = 0
  5074                           ; Regs used in _lowPassFIRFilter: [wreg-fsr1h+status,2+status,0+pclath+cstack]
  5075                           
  5076                           
  5077                           ;main.c: 371: static int16_t lowPassFIRFilter(int16_t din);main.c: 372: {;main.c: 373:  
      +                             pba_cbuf[pba_offset] = din;
  5078     0E4E  0020               	movlb	0	; select bank0
  5079     0E4F  3569               	lslf	_pba_offset,w
  5080     0E50  3E20               	addlw	(low (_pba_cbuf| (0+512)))& (0+255)
  5081     0E51  0086               	movwf	6
  5082     0E52  3002               	movlw	2	; select bank4/5
  5083     0E53  0087               	movwf	7
  5084     0E54  087C               	movf	lowPassFIRFilter@din,w
  5085     0E55  3FC0               	movwi [0]fsr1
  5086     0E56  087D               	movf	lowPassFIRFilter@din+1,w
  5087     0E57  3FC1               	movwi [1]fsr1
  5088     0E58                     l2380:
  5089                           
  5090                           ;main.c: 375:     int32_t z = mul16(FIRCoeffs[11],
  5091     0E58  3016               	movlw	low ((_FIRCoeffs+22)| (0+32768))
  5092     0E59  0084               	movwf	4
  5093     0E5A  3090               	movlw	high ((_FIRCoeffs+22)| (0+32768))
  5094     0E5B  0085               	movwf	5
  5095     0E5C  3F00               	moviw [0]fsr0
  5096     0E5D  00A0               	movwf	mul16@x
  5097     0E5E  3F01               	moviw [1]fsr0
  5098     0E5F  00A1               	movwf	mul16@x+1
  5099     0E60  0869               	movf	_pba_offset,w
  5100     0E61  3EF5               	addlw	245
  5101     0E62  391F               	andlw	31
  5102     0E63  0709               	addwf	9,w
  5103     0E64  3E20               	addlw	(low (_pba_cbuf| (0+512)))& (0+255)
  5104     0E65  0086               	movwf	6
  5105     0E66  3002               	movlw	2	; select bank4/5
  5106     0E67  0087               	movwf	7
  5107     0E68  3F40               	moviw [0]fsr1
  5108     0E69  00A2               	movwf	mul16@y
  5109     0E6A  3F41               	moviw [1]fsr1
  5110     0E6B  00A3               	movwf	mul16@y+1
  5111     0E6C  3188  20A3  318E   	fcall	_mul16
  5112     0E6F  0020               	movlb	0	; select bank0
  5113     0E70  0823               	movf	?_mul16+3,w
  5114     0E71  00AC               	movwf	lowPassFIRFilter@z+3
  5115     0E72  0822               	movf	?_mul16+2,w
  5116     0E73  00AB               	movwf	lowPassFIRFilter@z+2
  5117     0E74  0821               	movf	?_mul16+1,w
  5118     0E75  00AA               	movwf	lowPassFIRFilter@z+1
  5119     0E76  0820               	movf	?_mul16,w
  5120     0E77  00A9               	movwf	lowPassFIRFilter@z
  5121     0E78                     l2382:
  5122                           
  5123                           ;main.c: 378:     for (uint8_t i = 0; i < 11; i++)
  5124     0E78  01AD               	clrf	lowPassFIRFilter@i
  5125     0E79                     l2388:
  5126                           
  5127                           ;main.c: 379:     {;main.c: 380:         z += mul16(FIRCoeffs[i],
  5128     0E79  082D               	movf	lowPassFIRFilter@i,w
  5129     0E7A  00A4               	movwf	??_lowPassFIRFilter
  5130     0E7B  01A5               	clrf	??_lowPassFIRFilter+1
  5131     0E7C  35A4               	lslf	??_lowPassFIRFilter,f
  5132     0E7D  0DA5               	rlf	??_lowPassFIRFilter+1,f
  5133     0E7E  3000               	movlw	low _FIRCoeffs
  5134     0E7F  0724               	addwf	??_lowPassFIRFilter,w
  5135     0E80  0084               	movwf	4
  5136     0E81  3010               	movlw	high _FIRCoeffs
  5137     0E82  3D25               	addwfc	??_lowPassFIRFilter+1,w
  5138     0E83  3880               	iorlw	128
  5139     0E84  0085               	movwf	5
  5140     0E85  3F00               	moviw [0]fsr0
  5141     0E86  00A0               	movwf	mul16@x
  5142     0E87  3F01               	moviw [1]fsr0
  5143     0E88  00A1               	movwf	mul16@x+1
  5144     0E89  0869               	movf	_pba_offset,w
  5145     0E8A  072D               	addwf	lowPassFIRFilter@i,w
  5146     0E8B  3EEA               	addlw	234
  5147     0E8C  391F               	andlw	31
  5148     0E8D  0709               	addwf	9,w
  5149     0E8E  3E20               	addlw	(low (_pba_cbuf| (0+512)))& (0+255)
  5150     0E8F  0086               	movwf	6
  5151     0E90  3002               	movlw	2	; select bank4/5
  5152     0E91  0087               	movwf	7
  5153     0E92  082D               	movf	lowPassFIRFilter@i,w
  5154     0E93  0269               	subwf	_pba_offset,w
  5155     0E94  391F               	andlw	31
  5156     0E95  0709               	addwf	9,w
  5157     0E96  3E20               	addlw	(low (_pba_cbuf| (0+512)))& (0+255)
  5158     0E97  0084               	movwf	4
  5159     0E98  3002               	movlw	2	; select bank4/5
  5160     0E99  0085               	movwf	5
  5161     0E9A  3F40               	moviw [0]fsr1
  5162     0E9B  0700               	addwf	0,w
  5163     0E9C  00A2               	movwf	mul16@y
  5164     0E9D  3101               	addfsr 0,1
  5165     0E9E  3F41               	moviw [1]fsr1
  5166     0E9F  3D00               	addwfc	0,w
  5167     0EA0  00A3               	movwf	mul16@y+1
  5168     0EA1  3188  20A3  318E   	fcall	_mul16
  5169     0EA4  0020               	movlb	0	; select bank0
  5170     0EA5  0820               	movf	?_mul16,w
  5171     0EA6  07A9               	addwf	lowPassFIRFilter@z,f
  5172     0EA7  0821               	movf	?_mul16+1,w
  5173     0EA8  3DAA               	addwfc	lowPassFIRFilter@z+1,f
  5174     0EA9  0822               	movf	?_mul16+2,w
  5175     0EAA  3DAB               	addwfc	lowPassFIRFilter@z+2,f
  5176     0EAB  0823               	movf	?_mul16+3,w
  5177     0EAC  3DAC               	addwfc	lowPassFIRFilter@z+3,f
  5178     0EAD                     l2390:
  5179                           
  5180                           ;main.c: 383:     }
  5181     0EAD  3001               	movlw	1
  5182     0EAE  00A4               	movwf	??_lowPassFIRFilter
  5183     0EAF  0824               	movf	??_lowPassFIRFilter,w
  5184     0EB0  07AD               	addwf	lowPassFIRFilter@i,f
  5185     0EB1                     l2392:
  5186     0EB1  300B               	movlw	11
  5187     0EB2  022D               	subwf	lowPassFIRFilter@i,w
  5188     0EB3  1C03               	skipc
  5189     0EB4  2EB6               	goto	u2191
  5190     0EB5  2EB7               	goto	u2190
  5191     0EB6                     u2191:
  5192     0EB6  2E79               	goto	l2388
  5193     0EB7                     u2190:
  5194     0EB7                     l2394:
  5195                           
  5196                           ;main.c: 385:     pba_offset++;
  5197     0EB7  3001               	movlw	1
  5198     0EB8  00A4               	movwf	??_lowPassFIRFilter
  5199     0EB9  0824               	movf	??_lowPassFIRFilter,w
  5200     0EBA  07E9               	addwf	_pba_offset,f
  5201                           
  5202                           ;main.c: 386:     pba_offset %= 32;
  5203     0EBB  301F               	movlw	31
  5204     0EBC  00A4               	movwf	??_lowPassFIRFilter
  5205     0EBD  0824               	movf	??_lowPassFIRFilter,w
  5206     0EBE  05E9               	andwf	_pba_offset,f
  5207                           
  5208                           ;main.c: 388:     return (int16_t)(z >> 15);
  5209     0EBF  0829               	movf	lowPassFIRFilter@z,w
  5210     0EC0  00A4               	movwf	??_lowPassFIRFilter
  5211     0EC1  082A               	movf	lowPassFIRFilter@z+1,w
  5212     0EC2  00A5               	movwf	??_lowPassFIRFilter+1
  5213     0EC3  082B               	movf	lowPassFIRFilter@z+2,w
  5214     0EC4  00A6               	movwf	??_lowPassFIRFilter+2
  5215     0EC5  082C               	movf	lowPassFIRFilter@z+3,w
  5216     0EC6  00A7               	movwf	??_lowPassFIRFilter+3
  5217     0EC7  300F               	movlw	15
  5218     0EC8  00A8               	movwf	??_lowPassFIRFilter+4
  5219     0EC9                     u2205:
  5220     0EC9  37A7               	asrf	??_lowPassFIRFilter+3,f
  5221     0ECA  0CA6               	rrf	??_lowPassFIRFilter+2,f
  5222     0ECB  0CA5               	rrf	??_lowPassFIRFilter+1,f
  5223     0ECC  0CA4               	rrf	??_lowPassFIRFilter,f
  5224     0ECD                     u2200:
  5225     0ECD  0BA8               	decfsz	??_lowPassFIRFilter+4,f
  5226     0ECE  2EC9               	goto	u2205
  5227     0ECF  0825               	movf	??_lowPassFIRFilter+1,w
  5228     0ED0  00FD               	movwf	?_lowPassFIRFilter+1
  5229     0ED1  0824               	movf	??_lowPassFIRFilter,w
  5230     0ED2  00FC               	movwf	?_lowPassFIRFilter
  5231     0ED3                     l330:
  5232     0ED3  0008               	return
  5233     0ED4                     __end_of_lowPassFIRFilter:
  5234                           
  5235                           	psect	text9
  5236     08A3                     __ptext9:	
  5237 ;; *************** function _mul16 *****************
  5238 ;; Defined at:
  5239 ;;		line 365 in file "main.c"
  5240 ;; Parameters:    Size  Location     Type
  5241 ;;  x               2    0[BANK0 ] short 
  5242 ;;  y               2    2[BANK0 ] short 
  5243 ;; Auto vars:     Size  Location     Type
  5244 ;;		None
  5245 ;; Return value:  Size  Location     Type
  5246 ;;                  4    0[BANK0 ] long 
  5247 ;; Registers used:
  5248 ;;		wreg, status,2, status,0, pclath, cstack
  5249 ;; Tracked objects:
  5250 ;;		On entry : 0/0
  5251 ;;		On exit  : 0/0
  5252 ;;		Unchanged: 0/0
  5253 ;; Data sizes:     COMMON   BANK0   BANK1   BANK2   BANK3   BANK4   BANK5   BANK6   BANK7   BANK8   BANK9  BANK10  BANK1
      +1  BANK12  BANK13  BANK14  BANK15  BANK16  BANK17  BANK18  BANK19  BANK20  BANK21  BANK22  BANK23  BANK24  BANK25
  5254 ;;      Params:         0       4       0       0       0       0       0       0       0       0       0       0       
      +0       0       0       0       0       0       0       0       0       0       0       0       0       0       0
  5255 ;;      Locals:         0       0       0       0       0       0       0       0       0       0       0       0       
      +0       0       0       0       0       0       0       0       0       0       0       0       0       0       0
  5256 ;;      Temps:          0       0       0       0       0       0       0       0       0       0       0       0       
      +0       0       0       0       0       0       0       0       0       0       0       0       0       0       0
  5257 ;;      Totals:         0       4       0       0       0       0       0       0       0       0       0       0       
      +0       0       0       0       0       0       0       0       0       0       0       0       0       0       0
  5258 ;;Total ram usage:        4 bytes
  5259 ;; Hardware stack levels used: 1
  5260 ;; Hardware stack levels required when called: 2
  5261 ;; This function calls:
  5262 ;;		___lmul
  5263 ;; This function is called by:
  5264 ;;		_lowPassFIRFilter
  5265 ;; This function uses a non-reentrant model
  5266 ;;
  5267                           
  5268     08A3                     _mul16:	
  5269                           ;psect for function _mul16
  5270                           
  5271     08A3                     l2306:	
  5272                           ;incstack = 0
  5273                           ; Regs used in _mul16: [wreg+status,2+status,0+pclath+cstack]
  5274                           
  5275                           
  5276                           ;main.c: 365: static int32_t mul16(int16_t x, int16_t y);main.c: 366: {;main.c: 367:    
      +                           return (int32_t)x * (int32_t)y;
  5277     08A3  0020               	movlb	0	; select bank0
  5278     08A4  0820               	movf	mul16@x,w
  5279     08A5  00F0               	movwf	___lmul@multiplier
  5280     08A6  0821               	movf	mul16@x+1,w
  5281     08A7  00F1               	movwf	___lmul@multiplier+1
  5282     08A8  0D89               	rlf	9,f
  5283     08A9  3B89               	subwfb	9,f
  5284     08AA  0989               	comf	9,f
  5285     08AB  00F2               	movwf	___lmul@multiplier+2
  5286     08AC  00F3               	movwf	___lmul@multiplier+3
  5287     08AD  0822               	movf	mul16@y,w
  5288     08AE  00F4               	movwf	___lmul@multiplicand
  5289     08AF  0823               	movf	mul16@y+1,w
  5290     08B0  00F5               	movwf	___lmul@multiplicand+1
  5291     08B1  0D89               	rlf	9,f
  5292     08B2  3B89               	subwfb	9,f
  5293     08B3  0989               	comf	9,f
  5294     08B4  00F6               	movwf	___lmul@multiplicand+2
  5295     08B5  00F7               	movwf	___lmul@multiplicand+3
  5296     08B6  3189  21B1  3188   	fcall	___lmul
  5297     08B9  0873               	movf	?___lmul+3,w
  5298     08BA  0020               	movlb	0	; select bank0
  5299     08BB  00A3               	movwf	?_mul16+3
  5300     08BC  0872               	movf	?___lmul+2,w
  5301     08BD  00A2               	movwf	?_mul16+2
  5302     08BE  0871               	movf	?___lmul+1,w
  5303     08BF  00A1               	movwf	?_mul16+1
  5304     08C0  0870               	movf	?___lmul,w
  5305     08C1  00A0               	movwf	?_mul16
  5306     08C2                     l325:
  5307     08C2  0008               	return
  5308     08C3                     __end_of_mul16:
  5309                           
  5310                           	psect	text10
  5311     0C4F                     __ptext10:	
  5312 ;; *************** function _averageDCEstimator *****************
  5313 ;; Defined at:
  5314 ;;		line 359 in file "main.c"
  5315 ;; Parameters:    Size  Location     Type
  5316 ;;  p               1    wreg     PTR long 
  5317 ;;		 -> pba_ir_avg_reg(4), 
  5318 ;;  x               2    0[COMMON] unsigned short 
  5319 ;; Auto vars:     Size  Location     Type
  5320 ;;  p               1   11[COMMON] PTR long 
  5321 ;;		 -> pba_ir_avg_reg(4), 
  5322 ;; Return value:  Size  Location     Type
  5323 ;;                  2    0[COMMON] short 
  5324 ;; Registers used:
  5325 ;;		wreg, fsr1l, fsr1h, status,2, status,0
  5326 ;; Tracked objects:
  5327 ;;		On entry : 0/0
  5328 ;;		On exit  : 0/0
  5329 ;;		Unchanged: 0/0
  5330 ;; Data sizes:     COMMON   BANK0   BANK1   BANK2   BANK3   BANK4   BANK5   BANK6   BANK7   BANK8   BANK9  BANK10  BANK1
      +1  BANK12  BANK13  BANK14  BANK15  BANK16  BANK17  BANK18  BANK19  BANK20  BANK21  BANK22  BANK23  BANK24  BANK25
  5331 ;;      Params:         2       0       0       0       0       0       0       0       0       0       0       0       
      +0       0       0       0       0       0       0       0       0       0       0       0       0       0       0
  5332 ;;      Locals:         1       0       0       0       0       0       0       0       0       0       0       0       
      +0       0       0       0       0       0       0       0       0       0       0       0       0       0       0
  5333 ;;      Temps:          9       0       0       0       0       0       0       0       0       0       0       0       
      +0       0       0       0       0       0       0       0       0       0       0       0       0       0       0
  5334 ;;      Totals:        12       0       0       0       0       0       0       0       0       0       0       0       
      +0       0       0       0       0       0       0       0       0       0       0       0       0       0       0
  5335 ;;Total ram usage:       12 bytes
  5336 ;; Hardware stack levels used: 1
  5337 ;; Hardware stack levels required when called: 1
  5338 ;; This function calls:
  5339 ;;		Nothing
  5340 ;; This function is called by:
  5341 ;;		_checkForBeat
  5342 ;; This function uses a non-reentrant model
  5343 ;;
  5344                           
  5345     0C4F                     _averageDCEstimator:	
  5346                           ;psect for function _averageDCEstimator
  5347                           
  5348                           
  5349                           ;incstack = 0
  5350                           ; Regs used in _averageDCEstimator: [wreg+fsr1l+fsr1h+status,2+status,0]
  5351                           ;averageDCEstimator@p stored from wreg
  5352     0C4F  00FB               	movwf	averageDCEstimator@p
  5353     0C50                     l2374:
  5354                           
  5355                           ;main.c: 359: static int16_t averageDCEstimator(int32_t *p, uint16_t x);main.c: 360: {;m
      +                          ain.c: 361:     *p += ((((int32_t)x << 15) - *p) >> 4);
  5356     0C50  087B               	movf	averageDCEstimator@p,w
  5357     0C51  0086               	movwf	6
  5358     0C52  3001               	movlw	1	; select bank2/3
  5359     0C53  0087               	movwf	7
  5360     0C54  3F40               	moviw [0]fsr1
  5361     0C55  00F2               	movwf	??_averageDCEstimator
  5362     0C56  3F41               	moviw [1]fsr1
  5363     0C57  00F3               	movwf	??_averageDCEstimator+1
  5364     0C58  3F42               	moviw [2]fsr1
  5365     0C59  00F4               	movwf	??_averageDCEstimator+2
  5366     0C5A  3F43               	moviw [3]fsr1
  5367     0C5B  00F5               	movwf	??_averageDCEstimator+3
  5368     0C5C  0870               	movf	averageDCEstimator@x,w
  5369     0C5D  00F6               	movwf	??_averageDCEstimator+4
  5370     0C5E  0871               	movf	averageDCEstimator@x+1,w
  5371     0C5F  00F7               	movwf	??_averageDCEstimator+5
  5372     0C60  01F8               	clrf	??_averageDCEstimator+6
  5373     0C61  01F9               	clrf	??_averageDCEstimator+7
  5374     0C62  300F               	movlw	15
  5375     0C63                     u2165:
  5376     0C63  35F6               	lslf	??_averageDCEstimator+4,f
  5377     0C64  0DF7               	rlf	??_averageDCEstimator+5,f
  5378     0C65  0DF8               	rlf	??_averageDCEstimator+6,f
  5379     0C66  0DF9               	rlf	??_averageDCEstimator+7,f
  5380     0C67                     u2160:
  5381     0C67  0B89               	decfsz	9,f
  5382     0C68  2C63               	goto	u2165
  5383     0C69  0872               	movf	??_averageDCEstimator,w
  5384     0C6A  02F6               	subwf	??_averageDCEstimator+4,f
  5385     0C6B  0873               	movf	??_averageDCEstimator+1,w
  5386     0C6C  3BF7               	subwfb	??_averageDCEstimator+5,f
  5387     0C6D  0874               	movf	??_averageDCEstimator+2,w
  5388     0C6E  3BF8               	subwfb	??_averageDCEstimator+6,f
  5389     0C6F  0875               	movf	??_averageDCEstimator+3,w
  5390     0C70  3BF9               	subwfb	??_averageDCEstimator+7,f
  5391     0C71  3004               	movlw	4
  5392     0C72  00FA               	movwf	??_averageDCEstimator+8
  5393     0C73                     u2175:
  5394     0C73  37F9               	asrf	??_averageDCEstimator+7,f
  5395     0C74  0CF8               	rrf	??_averageDCEstimator+6,f
  5396     0C75  0CF7               	rrf	??_averageDCEstimator+5,f
  5397     0C76  0CF6               	rrf	??_averageDCEstimator+4,f
  5398     0C77                     u2170:
  5399     0C77  0BFA               	decfsz	??_averageDCEstimator+8,f
  5400     0C78  2C73               	goto	u2175
  5401     0C79  087B               	movf	averageDCEstimator@p,w
  5402     0C7A  0086               	movwf	6
  5403     0C7B  3001               	movlw	1	; select bank2/3
  5404     0C7C  0087               	movwf	7
  5405     0C7D  0876               	movf	??_averageDCEstimator+4,w
  5406     0C7E  0781               	addwf	1,f
  5407     0C7F  3141               	addfsr 1,1
  5408     0C80  0877               	movf	??_averageDCEstimator+5,w
  5409     0C81  3D81               	addwfc	1,f
  5410     0C82  3141               	addfsr 1,1
  5411     0C83  0878               	movf	??_averageDCEstimator+6,w
  5412     0C84  3D81               	addwfc	1,f
  5413     0C85  3141               	addfsr 1,1
  5414     0C86  0879               	movf	??_averageDCEstimator+7,w
  5415     0C87  3D81               	addwfc	1,f
  5416                           
  5417                           ;main.c: 362:     return (int16_t)(*p >> 15);
  5418     0C88  087B               	movf	averageDCEstimator@p,w
  5419     0C89  0086               	movwf	6
  5420     0C8A  3001               	movlw	1	; select bank2/3
  5421     0C8B  0087               	movwf	7
  5422     0C8C  3F40               	moviw [0]fsr1
  5423     0C8D  00F2               	movwf	??_averageDCEstimator
  5424     0C8E  3F41               	moviw [1]fsr1
  5425     0C8F  00F3               	movwf	??_averageDCEstimator+1
  5426     0C90  3F42               	moviw [2]fsr1
  5427     0C91  00F4               	movwf	??_averageDCEstimator+2
  5428     0C92  3F43               	moviw [3]fsr1
  5429     0C93  00F5               	movwf	??_averageDCEstimator+3
  5430     0C94  300F               	movlw	15
  5431     0C95  00F6               	movwf	??_averageDCEstimator+4
  5432     0C96                     u2185:
  5433     0C96  37F5               	asrf	??_averageDCEstimator+3,f
  5434     0C97  0CF4               	rrf	??_averageDCEstimator+2,f
  5435     0C98  0CF3               	rrf	??_averageDCEstimator+1,f
  5436     0C99  0CF2               	rrf	??_averageDCEstimator,f
  5437     0C9A                     u2180:
  5438     0C9A  0BF6               	decfsz	??_averageDCEstimator+4,f
  5439     0C9B  2C96               	goto	u2185
  5440     0C9C  0873               	movf	??_averageDCEstimator+1,w
  5441     0C9D  00F1               	movwf	?_averageDCEstimator+1
  5442     0C9E  0872               	movf	??_averageDCEstimator,w
  5443     0C9F  00F0               	movwf	?_averageDCEstimator
  5444     0CA0                     l322:
  5445     0CA0  0008               	return
  5446     0CA1                     __end_of_averageDCEstimator:
  5447                           
  5448                           	psect	text11
  5449     02DE                     __ptext11:	
  5450 ;; *************** function _bpm_record_beat *****************
  5451 ;; Defined at:
  5452 ;;		line 553 in file "main.c"
  5453 ;; Parameters:    Size  Location     Type
  5454 ;;  now_ms          4   13[BANK0 ] unsigned long 
  5455 ;; Auto vars:     Size  Location     Type
  5456 ;;  idx             1   41[BANK0 ] unsigned char 
  5457 ;;  i               1   42[BANK0 ] unsigned char 
  5458 ;;  hi              4   30[BANK0 ] unsigned long 
  5459 ;;  lo              4   26[BANK0 ] unsigned long 
  5460 ;;  sum             4   34[BANK0 ] unsigned long 
  5461 ;;  valid           1   43[BANK0 ] unsigned char 
  5462 ;;  interval        4   44[BANK0 ] unsigned long 
  5463 ;;  prev            1   40[BANK0 ] unsigned char 
  5464 ;; Return value:  Size  Location     Type
  5465 ;;                  1    wreg      _Bool 
  5466 ;; Registers used:
  5467 ;;		wreg, fsr1l, fsr1h, status,2, status,0, pclath, cstack
  5468 ;; Tracked objects:
  5469 ;;		On entry : 0/0
  5470 ;;		On exit  : 0/0
  5471 ;;		Unchanged: 0/0
  5472 ;; Data sizes:     COMMON   BANK0   BANK1   BANK2   BANK3   BANK4   BANK5   BANK6   BANK7   BANK8   BANK9  BANK10  BANK1
      +1  BANK12  BANK13  BANK14  BANK15  BANK16  BANK17  BANK18  BANK19  BANK20  BANK21  BANK22  BANK23  BANK24  BANK25
  5473 ;;      Params:         0       4       0       0       0       0       0       0       0       0       0       0       
      +0       0       0       0       0       0       0       0       0       0       0       0       0       0       0
  5474 ;;      Locals:         0      22       0       0       0       0       0       0       0       0       0       0       
      +0       0       0       0       0       0       0       0       0       0       0       0       0       0       0
  5475 ;;      Temps:          0       9       0       0       0       0       0       0       0       0       0       0       
      +0       0       0       0       0       0       0       0       0       0       0       0       0       0       0
  5476 ;;      Totals:         0      35       0       0       0       0       0       0       0       0       0       0       
      +0       0       0       0       0       0       0       0       0       0       0       0       0       0       0
  5477 ;;Total ram usage:       35 bytes
  5478 ;; Hardware stack levels used: 1
  5479 ;; Hardware stack levels required when called: 2
  5480 ;; This function calls:
  5481 ;;		___lldiv
  5482 ;;		___lmul
  5483 ;; This function is called by:
  5484 ;;		_main
  5485 ;; This function uses a non-reentrant model
  5486 ;;
  5487                           
  5488     02DE                     _bpm_record_beat:	
  5489                           ;psect for function _bpm_record_beat
  5490                           
  5491     02DE                     l2710:	
  5492                           ;incstack = 0
  5493                           ; Regs used in _bpm_record_beat: [wreg+fsr1l+fsr1h+status,2+status,0+pclath+cstack]
  5494                           
  5495                           
  5496                           ;main.c: 553: static _Bool bpm_record_beat(uint32_t now_ms);main.c: 554: {;main.c: 555: 
      +                              if (beat_count > 0)
  5497     02DE  0020               	movlb	0	; select bank0
  5498     02DF  0867               	movf	_beat_count,w
  5499     02E0  1903               	btfsc	3,2
  5500     02E1  2AE3               	goto	u2761
  5501     02E2  2AE4               	goto	u2760
  5502     02E3                     u2761:
  5503     02E3  2BCC               	goto	l379
  5504     02E4                     u2760:
  5505     02E4                     l2712:
  5506                           
  5507                           ;main.c: 556:     {;main.c: 557:         uint8_t prev = (beat_idx - 1) % 8;
  5508     02E4  0868               	movf	_beat_idx,w
  5509     02E5  3EFF               	addlw	255
  5510     02E6  3907               	andlw	7
  5511     02E7  00C8               	movwf	bpm_record_beat@prev
  5512     02E8                     l2714:
  5513                           
  5514                           ;main.c: 558:         uint32_t interval = now_ms - beat_times[prev];
  5515     02E8  0848               	movf	bpm_record_beat@prev,w
  5516     02E9  00B1               	movwf	??_bpm_record_beat
  5517     02EA  3001               	movlw	1
  5518     02EB                     u2775:
  5519     02EB  35B1               	lslf	??_bpm_record_beat,f
  5520     02EC  3EFF               	addlw	-1
  5521     02ED  1D03               	skipz
  5522     02EE  2AEB               	goto	u2775
  5523     02EF  3531               	lslf	??_bpm_record_beat,w
  5524     02F0  3EA0               	addlw	(low (_beat_times| (0+256)))& (0+255)
  5525     02F1  0086               	movwf	6
  5526     02F2  3001               	movlw	1	; select bank3/4
  5527     02F3  0087               	movwf	7
  5528     02F4  3F40               	moviw [0]fsr1
  5529     02F5  00B2               	movwf	??_bpm_record_beat+1
  5530     02F6  3F41               	moviw [1]fsr1
  5531     02F7  00B3               	movwf	??_bpm_record_beat+2
  5532     02F8  3F42               	moviw [2]fsr1
  5533     02F9  00B4               	movwf	??_bpm_record_beat+3
  5534     02FA  3F43               	moviw [3]fsr1
  5535     02FB  00B5               	movwf	??_bpm_record_beat+4
  5536     02FC  082D               	movf	bpm_record_beat@now_ms,w
  5537     02FD  00B6               	movwf	??_bpm_record_beat+5
  5538     02FE  082E               	movf	bpm_record_beat@now_ms+1,w
  5539     02FF  00B7               	movwf	??_bpm_record_beat+6
  5540     0300  082F               	movf	bpm_record_beat@now_ms+2,w
  5541     0301  00B8               	movwf	??_bpm_record_beat+7
  5542     0302  0830               	movf	bpm_record_beat@now_ms+3,w
  5543     0303  00B9               	movwf	??_bpm_record_beat+8
  5544     0304  0832               	movf	??_bpm_record_beat+1,w
  5545     0305  02B6               	subwf	??_bpm_record_beat+5,f
  5546     0306  0833               	movf	??_bpm_record_beat+2,w
  5547     0307  3BB7               	subwfb	??_bpm_record_beat+6,f
  5548     0308  0834               	movf	??_bpm_record_beat+3,w
  5549     0309  3BB8               	subwfb	??_bpm_record_beat+7,f
  5550     030A  0835               	movf	??_bpm_record_beat+4,w
  5551     030B  3BB9               	subwfb	??_bpm_record_beat+8,f
  5552     030C  0839               	movf	??_bpm_record_beat+8,w
  5553     030D  00CF               	movwf	bpm_record_beat@interval+3
  5554     030E  0838               	movf	??_bpm_record_beat+7,w
  5555     030F  00CE               	movwf	bpm_record_beat@interval+2
  5556     0310  0837               	movf	??_bpm_record_beat+6,w
  5557     0311  00CD               	movwf	bpm_record_beat@interval+1
  5558     0312  0836               	movf	??_bpm_record_beat+5,w
  5559     0313  00CC               	movwf	bpm_record_beat@interval
  5560     0314                     l2716:
  5561                           
  5562                           ;main.c: 561:         if (interval < 273 || interval > 2000)
  5563     0314  084F               	movf	bpm_record_beat@interval+3,w
  5564     0315  1D03               	btfss	3,2
  5565     0316  2B22               	goto	u2780
  5566     0317  084E               	movf	bpm_record_beat@interval+2,w
  5567     0318  1D03               	btfss	3,2
  5568     0319  2B22               	goto	u2780
  5569     031A  3011               	movlw	17
  5570     031B  024C               	subwf	bpm_record_beat@interval,w
  5571     031C  3001               	movlw	1
  5572     031D  3B4D               	subwfb	bpm_record_beat@interval+1,w
  5573     031E  1C03               	btfss	3,0
  5574     031F  2B21               	goto	u2781
  5575     0320  2B22               	goto	u2780
  5576     0321                     u2781:
  5577     0321  2B31               	goto	l2720
  5578     0322                     u2780:
  5579     0322                     l2718:
  5580     0322  0020               	movlb	0	; select bank0
  5581     0323  084F               	movf	bpm_record_beat@interval+3,w
  5582     0324  1D03               	btfss	3,2
  5583     0325  2B31               	goto	u2790
  5584     0326  084E               	movf	bpm_record_beat@interval+2,w
  5585     0327  1D03               	btfss	3,2
  5586     0328  2B31               	goto	u2790
  5587     0329  30D1               	movlw	209
  5588     032A  024C               	subwf	bpm_record_beat@interval,w
  5589     032B  3007               	movlw	7
  5590     032C  3B4D               	subwfb	bpm_record_beat@interval+1,w
  5591     032D  1C03               	btfss	3,0
  5592     032E  2B30               	goto	u2791
  5593     032F  2B31               	goto	u2790
  5594     0330                     u2791:
  5595     0330  2B33               	goto	l2724
  5596     0331                     u2790:
  5597     0331                     l2720:
  5598                           
  5599                           ;main.c: 562:             return 0;
  5600     0331  3000               	movlw	0
  5601     0332  2C55               	goto	l383
  5602     0333                     l2724:
  5603                           
  5604                           ;main.c: 565:         if (beat_count >= 3 && beat_avg_interval > 0)
  5605     0333  3003               	movlw	3
  5606     0334  0020               	movlb	0	; select bank0
  5607     0335  0267               	subwf	_beat_count,w
  5608     0336  1C03               	skipc
  5609     0337  2B39               	goto	u2801
  5610     0338  2B3A               	goto	u2800
  5611     0339                     u2801:
  5612     0339  2BC1               	goto	l2738
  5613     033A                     u2800:
  5614     033A                     l2726:
  5615     033A  086A               	movf	_beat_avg_interval,w
  5616     033B  046B               	iorwf	_beat_avg_interval+1,w
  5617     033C  1903               	btfsc	3,2
  5618     033D  2B3F               	goto	u2811
  5619     033E  2B40               	goto	u2810
  5620     033F                     u2811:
  5621     033F  2BC1               	goto	l2738
  5622     0340                     u2810:
  5623     0340                     l2728:
  5624                           
  5625                           ;main.c: 566:         {;main.c: 567:             uint32_t lo = (uint32_t)beat_avg_interv
      +                          al * 60 / 100;
  5626     0340  3000               	movlw	0
  5627     0341  00A3               	movwf	___lldiv@divisor+3
  5628     0342  3000               	movlw	0
  5629     0343  00A2               	movwf	___lldiv@divisor+2
  5630     0344  3000               	movlw	0
  5631     0345  00A1               	movwf	___lldiv@divisor+1
  5632     0346  3064               	movlw	100
  5633     0347  00A0               	movwf	___lldiv@divisor
  5634     0348  086A               	movf	_beat_avg_interval,w
  5635     0349  00F0               	movwf	___lmul@multiplier
  5636     034A  086B               	movf	_beat_avg_interval+1,w
  5637     034B  00F1               	movwf	___lmul@multiplier+1
  5638     034C  01F2               	clrf	___lmul@multiplier+2
  5639     034D  01F3               	clrf	___lmul@multiplier+3
  5640     034E  3000               	movlw	0
  5641     034F  00F7               	movwf	___lmul@multiplicand+3
  5642     0350  3000               	movlw	0
  5643     0351  00F6               	movwf	___lmul@multiplicand+2
  5644     0352  3000               	movlw	0
  5645     0353  00F5               	movwf	___lmul@multiplicand+1
  5646     0354  303C               	movlw	60
  5647     0355  00F4               	movwf	___lmul@multiplicand
  5648     0356  3189  21B1  3182   	fcall	___lmul
  5649     0359  0873               	movf	?___lmul+3,w
  5650     035A  0020               	movlb	0	; select bank0
  5651     035B  00A7               	movwf	___lldiv@dividend+3
  5652     035C  0872               	movf	?___lmul+2,w
  5653     035D  00A6               	movwf	___lldiv@dividend+2
  5654     035E  0871               	movf	?___lmul+1,w
  5655     035F  00A5               	movwf	___lldiv@dividend+1
  5656     0360  0870               	movf	?___lmul,w
  5657     0361  00A4               	movwf	___lldiv@dividend
  5658     0362  318C  24A1  3182   	fcall	___lldiv
  5659     0365  0020               	movlb	0	; select bank0
  5660     0366  0823               	movf	?___lldiv+3,w
  5661     0367  00BD               	movwf	bpm_record_beat@lo+3
  5662     0368  0822               	movf	?___lldiv+2,w
  5663     0369  00BC               	movwf	bpm_record_beat@lo+2
  5664     036A  0821               	movf	?___lldiv+1,w
  5665     036B  00BB               	movwf	bpm_record_beat@lo+1
  5666     036C  0820               	movf	?___lldiv,w
  5667     036D  00BA               	movwf	bpm_record_beat@lo
  5668                           
  5669                           ;main.c: 568:             uint32_t hi = (uint32_t)beat_avg_interval * 140 / 100;
  5670     036E  3000               	movlw	0
  5671     036F  00A3               	movwf	___lldiv@divisor+3
  5672     0370  3000               	movlw	0
  5673     0371  00A2               	movwf	___lldiv@divisor+2
  5674     0372  3000               	movlw	0
  5675     0373  00A1               	movwf	___lldiv@divisor+1
  5676     0374  3064               	movlw	100
  5677     0375  00A0               	movwf	___lldiv@divisor
  5678     0376  086A               	movf	_beat_avg_interval,w
  5679     0377  00F0               	movwf	___lmul@multiplier
  5680     0378  086B               	movf	_beat_avg_interval+1,w
  5681     0379  00F1               	movwf	___lmul@multiplier+1
  5682     037A  01F2               	clrf	___lmul@multiplier+2
  5683     037B  01F3               	clrf	___lmul@multiplier+3
  5684     037C  3000               	movlw	0
  5685     037D  00F7               	movwf	___lmul@multiplicand+3
  5686     037E  3000               	movlw	0
  5687     037F  00F6               	movwf	___lmul@multiplicand+2
  5688     0380  3000               	movlw	0
  5689     0381  00F5               	movwf	___lmul@multiplicand+1
  5690     0382  308C               	movlw	140
  5691     0383  00F4               	movwf	___lmul@multiplicand
  5692     0384  3189  21B1  3182   	fcall	___lmul
  5693     0387  0873               	movf	?___lmul+3,w
  5694     0388  0020               	movlb	0	; select bank0
  5695     0389  00A7               	movwf	___lldiv@dividend+3
  5696     038A  0872               	movf	?___lmul+2,w
  5697     038B  00A6               	movwf	___lldiv@dividend+2
  5698     038C  0871               	movf	?___lmul+1,w
  5699     038D  00A5               	movwf	___lldiv@dividend+1
  5700     038E  0870               	movf	?___lmul,w
  5701     038F  00A4               	movwf	___lldiv@dividend
  5702     0390  318C  24A1  3182   	fcall	___lldiv
  5703     0393  0020               	movlb	0	; select bank0
  5704     0394  0823               	movf	?___lldiv+3,w
  5705     0395  00C1               	movwf	bpm_record_beat@hi+3
  5706     0396  0822               	movf	?___lldiv+2,w
  5707     0397  00C0               	movwf	bpm_record_beat@hi+2
  5708     0398  0821               	movf	?___lldiv+1,w
  5709     0399  00BF               	movwf	bpm_record_beat@hi+1
  5710     039A  0820               	movf	?___lldiv,w
  5711     039B  00BE               	movwf	bpm_record_beat@hi
  5712     039C                     l2730:
  5713                           
  5714                           ;main.c: 569:             if (interval < lo || interval > hi)
  5715     039C  083D               	movf	bpm_record_beat@lo+3,w
  5716     039D  024F               	subwf	bpm_record_beat@interval+3,w
  5717     039E  1D03               	skipz
  5718     039F  2BAA               	goto	u2825
  5719     03A0  083C               	movf	bpm_record_beat@lo+2,w
  5720     03A1  024E               	subwf	bpm_record_beat@interval+2,w
  5721     03A2  1D03               	skipz
  5722     03A3  2BAA               	goto	u2825
  5723     03A4  083B               	movf	bpm_record_beat@lo+1,w
  5724     03A5  024D               	subwf	bpm_record_beat@interval+1,w
  5725     03A6  1D03               	skipz
  5726     03A7  2BAA               	goto	u2825
  5727     03A8  083A               	movf	bpm_record_beat@lo,w
  5728     03A9  024C               	subwf	bpm_record_beat@interval,w
  5729     03AA                     u2825:
  5730     03AA  1C03               	skipc
  5731     03AB  2BAD               	goto	u2821
  5732     03AC  2BAE               	goto	u2820
  5733     03AD                     u2821:
  5734     03AD  2B31               	goto	l2720
  5735     03AE                     u2820:
  5736     03AE                     l2732:
  5737     03AE  084F               	movf	bpm_record_beat@interval+3,w
  5738     03AF  0241               	subwf	bpm_record_beat@hi+3,w
  5739     03B0  1D03               	skipz
  5740     03B1  2BBC               	goto	u2835
  5741     03B2  084E               	movf	bpm_record_beat@interval+2,w
  5742     03B3  0240               	subwf	bpm_record_beat@hi+2,w
  5743     03B4  1D03               	skipz
  5744     03B5  2BBC               	goto	u2835
  5745     03B6  084D               	movf	bpm_record_beat@interval+1,w
  5746     03B7  023F               	subwf	bpm_record_beat@hi+1,w
  5747     03B8  1D03               	skipz
  5748     03B9  2BBC               	goto	u2835
  5749     03BA  084C               	movf	bpm_record_beat@interval,w
  5750     03BB  023E               	subwf	bpm_record_beat@hi,w
  5751     03BC                     u2835:
  5752     03BC  1803               	skipnc
  5753     03BD  2BBF               	goto	u2831
  5754     03BE  2BC0               	goto	u2830
  5755     03BF                     u2831:
  5756     03BF  2BC1               	goto	l2738
  5757     03C0                     u2830:
  5758     03C0  2B31               	goto	l2720
  5759     03C1                     l2738:
  5760                           
  5761                           ;main.c: 574:         beat_intervals[beat_idx % 8] = (uint16_t)interval;
  5762     03C1  0868               	movf	_beat_idx,w
  5763     03C2  3907               	andlw	7
  5764     03C3  0709               	addwf	9,w
  5765     03C4  3E3A               	addlw	(low (_beat_intervals| (0+256)))& (0+255)
  5766     03C5  0086               	movwf	6
  5767     03C6  3001               	movlw	1	; select bank2/3
  5768     03C7  0087               	movwf	7
  5769     03C8  084C               	movf	bpm_record_beat@interval,w
  5770     03C9  3FC0               	movwi [0]fsr1
  5771     03CA  084D               	movf	bpm_record_beat@interval+1,w
  5772     03CB  3FC1               	movwi [1]fsr1
  5773     03CC                     l379:	
  5774                           ;main.c: 575:     }
  5775                           
  5776                           
  5777                           ;main.c: 577:     beat_times[beat_idx % 8] = now_ms;
  5778     03CC  0868               	movf	_beat_idx,w
  5779     03CD  3907               	andlw	7
  5780     03CE  00B1               	movwf	??_bpm_record_beat
  5781     03CF  3001               	movlw	1
  5782     03D0                     u2845:
  5783     03D0  35B1               	lslf	??_bpm_record_beat,f
  5784     03D1  3EFF               	addlw	-1
  5785     03D2  1D03               	skipz
  5786     03D3  2BD0               	goto	u2845
  5787     03D4  3531               	lslf	??_bpm_record_beat,w
  5788     03D5  3EA0               	addlw	(low (_beat_times| (0+256)))& (0+255)
  5789     03D6  0086               	movwf	6
  5790     03D7  3001               	movlw	1	; select bank3/4
  5791     03D8  0087               	movwf	7
  5792     03D9  082D               	movf	bpm_record_beat@now_ms,w
  5793     03DA  3FC0               	movwi [0]fsr1
  5794     03DB  082E               	movf	bpm_record_beat@now_ms+1,w
  5795     03DC  3FC1               	movwi [1]fsr1
  5796     03DD  082F               	movf	bpm_record_beat@now_ms+2,w
  5797     03DE  3FC2               	movwi [2]fsr1
  5798     03DF  0830               	movf	bpm_record_beat@now_ms+3,w
  5799     03E0  3FC3               	movwi [3]fsr1
  5800     03E1                     l2740:
  5801                           
  5802                           ;main.c: 578:     beat_idx++;
  5803     03E1  3001               	movlw	1
  5804     03E2  00B1               	movwf	??_bpm_record_beat
  5805     03E3  0831               	movf	??_bpm_record_beat,w
  5806     03E4  07E8               	addwf	_beat_idx,f
  5807     03E5                     l2742:
  5808                           
  5809                           ;main.c: 579:     if (beat_count < 8) beat_count++;
  5810     03E5  3008               	movlw	8
  5811     03E6  0267               	subwf	_beat_count,w
  5812     03E7  1803               	skipnc
  5813     03E8  2BEA               	goto	u2851
  5814     03E9  2BEB               	goto	u2850
  5815     03EA                     u2851:
  5816     03EA  2BEF               	goto	l2746
  5817     03EB                     u2850:
  5818     03EB                     l2744:
  5819     03EB  3001               	movlw	1
  5820     03EC  00B1               	movwf	??_bpm_record_beat
  5821     03ED  0831               	movf	??_bpm_record_beat,w
  5822     03EE  07E7               	addwf	_beat_count,f
  5823     03EF                     l2746:
  5824                           
  5825                           ;main.c: 582:     if (beat_count >= 2)
  5826     03EF  3002               	movlw	2
  5827     03F0  0267               	subwf	_beat_count,w
  5828     03F1  1C03               	skipc
  5829     03F2  2BF4               	goto	u2861
  5830     03F3  2BF5               	goto	u2860
  5831     03F4                     u2861:
  5832     03F4  2C54               	goto	l2768
  5833     03F5                     u2860:
  5834     03F5                     l2748:
  5835                           
  5836                           ;main.c: 583:     {;main.c: 584:         uint32_t sum = 0;
  5837     03F5  3000               	movlw	0
  5838     03F6  00C5               	movwf	bpm_record_beat@sum+3
  5839     03F7  3000               	movlw	0
  5840     03F8  00C4               	movwf	bpm_record_beat@sum+2
  5841     03F9  3000               	movlw	0
  5842     03FA  00C3               	movwf	bpm_record_beat@sum+1
  5843     03FB  3000               	movlw	0
  5844     03FC  00C2               	movwf	bpm_record_beat@sum
  5845                           
  5846                           ;main.c: 585:         uint8_t valid = (beat_count < 8) ? beat_count - 1 : 8 - 1;
  5847     03FD  3008               	movlw	8
  5848     03FE  0267               	subwf	_beat_count,w
  5849     03FF  1C03               	skipc
  5850     0400  2C02               	goto	u2871
  5851     0401  2C03               	goto	u2870
  5852     0402                     u2871:
  5853     0402  2C08               	goto	l2752
  5854     0403                     u2870:
  5855     0403                     l2750:
  5856     0403  3007               	movlw	7
  5857     0404  00C6               	movwf	_bpm_record_beat$692
  5858     0405  3000               	movlw	0
  5859     0406  00C7               	movwf	_bpm_record_beat$692+1
  5860     0407  2C0F               	goto	l393
  5861     0408                     l2752:
  5862     0408  0867               	movf	_beat_count,w
  5863     0409  3EFF               	addlw	255
  5864     040A  00C6               	movwf	_bpm_record_beat$692
  5865     040B  30FF               	movlw	255
  5866     040C  1803               	skipnc
  5867     040D  3000               	movlw	0
  5868     040E  00C7               	movwf	_bpm_record_beat$692+1
  5869     040F                     l393:
  5870     040F  0846               	movf	_bpm_record_beat$692,w
  5871     0410  00CB               	movwf	bpm_record_beat@valid
  5872     0411                     l2754:
  5873                           
  5874                           ;main.c: 586:         for (uint8_t i = 0; i < valid; i++)
  5875     0411  01CA               	clrf	bpm_record_beat@i
  5876     0412  2C2C               	goto	l2762
  5877     0413                     l2756:
  5878                           
  5879                           ;main.c: 587:         {;main.c: 588:             uint8_t idx = (beat_idx - 1 - i) % 8;
  5880     0413  084A               	movf	bpm_record_beat@i,w
  5881     0414  0268               	subwf	_beat_idx,w
  5882     0415  3EFF               	addlw	255
  5883     0416  3907               	andlw	7
  5884     0417  00C9               	movwf	bpm_record_beat@idx
  5885     0418                     l2758:
  5886                           
  5887                           ;main.c: 589:             sum += beat_intervals[idx];
  5888     0418  3549               	lslf	bpm_record_beat@idx,w
  5889     0419  3E3A               	addlw	(low (_beat_intervals| (0+256)))& (0+255)
  5890     041A  0086               	movwf	6
  5891     041B  3001               	movlw	1	; select bank2/3
  5892     041C  0087               	movwf	7
  5893     041D  3F40               	moviw [0]fsr1
  5894     041E  00B1               	movwf	??_bpm_record_beat
  5895     041F  3F41               	moviw [1]fsr1
  5896     0420  00B2               	movwf	??_bpm_record_beat+1
  5897     0421  0831               	movf	??_bpm_record_beat,w
  5898     0422  07C2               	addwf	bpm_record_beat@sum,f
  5899     0423  0832               	movf	??_bpm_record_beat+1,w
  5900     0424  3DC3               	addwfc	bpm_record_beat@sum+1,f
  5901     0425  3000               	movlw	0
  5902     0426  3DC4               	addwfc	bpm_record_beat@sum+2,f
  5903     0427  3DC5               	addwfc	bpm_record_beat@sum+3,f
  5904     0428                     l2760:
  5905                           
  5906                           ;main.c: 590:         }
  5907     0428  3001               	movlw	1
  5908     0429  00B1               	movwf	??_bpm_record_beat
  5909     042A  0831               	movf	??_bpm_record_beat,w
  5910     042B  07CA               	addwf	bpm_record_beat@i,f
  5911     042C                     l2762:
  5912     042C  084B               	movf	bpm_record_beat@valid,w
  5913     042D  024A               	subwf	bpm_record_beat@i,w
  5914     042E  1C03               	skipc
  5915     042F  2C31               	goto	u2881
  5916     0430  2C32               	goto	u2880
  5917     0431                     u2881:
  5918     0431  2C13               	goto	l2756
  5919     0432                     u2880:
  5920     0432                     l2764:
  5921                           
  5922                           ;main.c: 591:         if (valid > 0) beat_avg_interval = (uint16_t)(sum / valid);
  5923     0432  084B               	movf	bpm_record_beat@valid,w
  5924     0433  1903               	btfsc	3,2
  5925     0434  2C36               	goto	u2891
  5926     0435  2C37               	goto	u2890
  5927     0436                     u2891:
  5928     0436  2C54               	goto	l2768
  5929     0437                     u2890:
  5930     0437                     l2766:
  5931     0437  084B               	movf	bpm_record_beat@valid,w
  5932     0438  00B1               	movwf	??_bpm_record_beat
  5933     0439  01B2               	clrf	??_bpm_record_beat+1
  5934     043A  01B3               	clrf	??_bpm_record_beat+2
  5935     043B  01B4               	clrf	??_bpm_record_beat+3
  5936     043C  0834               	movf	??_bpm_record_beat+3,w
  5937     043D  00A3               	movwf	___lldiv@divisor+3
  5938     043E  0833               	movf	??_bpm_record_beat+2,w
  5939     043F  00A2               	movwf	___lldiv@divisor+2
  5940     0440  0832               	movf	??_bpm_record_beat+1,w
  5941     0441  00A1               	movwf	___lldiv@divisor+1
  5942     0442  0831               	movf	??_bpm_record_beat,w
  5943     0443  00A0               	movwf	___lldiv@divisor
  5944     0444  0845               	movf	bpm_record_beat@sum+3,w
  5945     0445  00A7               	movwf	___lldiv@dividend+3
  5946     0446  0844               	movf	bpm_record_beat@sum+2,w
  5947     0447  00A6               	movwf	___lldiv@dividend+2
  5948     0448  0843               	movf	bpm_record_beat@sum+1,w
  5949     0449  00A5               	movwf	___lldiv@dividend+1
  5950     044A  0842               	movf	bpm_record_beat@sum,w
  5951     044B  00A4               	movwf	___lldiv@dividend
  5952     044C  318C  24A1  3182   	fcall	___lldiv
  5953     044F  0020               	movlb	0	; select bank0
  5954     0450  0821               	movf	?___lldiv+1,w
  5955     0451  00EB               	movwf	_beat_avg_interval+1
  5956     0452  0820               	movf	?___lldiv,w
  5957     0453  00EA               	movwf	_beat_avg_interval
  5958     0454                     l2768:
  5959                           
  5960                           ;main.c: 594:     return 1;
  5961     0454  3001               	movlw	1
  5962     0455                     l383:
  5963     0455  0008               	return
  5964     0456                     __end_of_bpm_record_beat:
  5965                           
  5966                           	psect	text12
  5967     09B1                     __ptext12:	
  5968 ;; *************** function ___lmul *****************
  5969 ;; Defined at:
  5970 ;;		line 15 in file "C:\Program Files\Microchip\xc8\v2.46\pic\sources\c99\common\Umul32.c"
  5971 ;; Parameters:    Size  Location     Type
  5972 ;;  multiplier      4    0[COMMON] unsigned long 
  5973 ;;  multiplicand    4    4[COMMON] unsigned long 
  5974 ;; Auto vars:     Size  Location     Type
  5975 ;;  product         4    8[COMMON] unsigned long 
  5976 ;; Return value:  Size  Location     Type
  5977 ;;                  4    0[COMMON] unsigned long 
  5978 ;; Registers used:
  5979 ;;		wreg, status,2, status,0
  5980 ;; Tracked objects:
  5981 ;;		On entry : 0/0
  5982 ;;		On exit  : 0/0
  5983 ;;		Unchanged: 0/0
  5984 ;; Data sizes:     COMMON   BANK0   BANK1   BANK2   BANK3   BANK4   BANK5   BANK6   BANK7   BANK8   BANK9  BANK10  BANK1
      +1  BANK12  BANK13  BANK14  BANK15  BANK16  BANK17  BANK18  BANK19  BANK20  BANK21  BANK22  BANK23  BANK24  BANK25
  5985 ;;      Params:         8       0       0       0       0       0       0       0       0       0       0       0       
      +0       0       0       0       0       0       0       0       0       0       0       0       0       0       0
  5986 ;;      Locals:         4       0       0       0       0       0       0       0       0       0       0       0       
      +0       0       0       0       0       0       0       0       0       0       0       0       0       0       0
  5987 ;;      Temps:          0       0       0       0       0       0       0       0       0       0       0       0       
      +0       0       0       0       0       0       0       0       0       0       0       0       0       0       0
  5988 ;;      Totals:        12       0       0       0       0       0       0       0       0       0       0       0       
      +0       0       0       0       0       0       0       0       0       0       0       0       0       0       0
  5989 ;;Total ram usage:       12 bytes
  5990 ;; Hardware stack levels used: 1
  5991 ;; Hardware stack levels required when called: 1
  5992 ;; This function calls:
  5993 ;;		Nothing
  5994 ;; This function is called by:
  5995 ;;		_mul16
  5996 ;;		_spo2_compute
  5997 ;;		_bpm_record_beat
  5998 ;; This function uses a non-reentrant model
  5999 ;;
  6000                           
  6001     09B1                     ___lmul:	
  6002                           ;psect for function ___lmul
  6003                           
  6004     09B1                     l2270:	
  6005                           ;incstack = 0
  6006                           ; Regs used in ___lmul: [wreg+status,2+status,0]
  6007                           
  6008     09B1  3000               	movlw	0
  6009     09B2  00FB               	movwf	___lmul@product+3
  6010     09B3  3000               	movlw	0
  6011     09B4  00FA               	movwf	___lmul@product+2
  6012     09B5  3000               	movlw	0
  6013     09B6  00F9               	movwf	___lmul@product+1
  6014     09B7  3000               	movlw	0
  6015     09B8  00F8               	movwf	___lmul@product
  6016     09B9                     l2272:
  6017     09B9  1C70               	btfss	___lmul@multiplier,0
  6018     09BA  29BC               	goto	u1961
  6019     09BB  29BD               	goto	u1960
  6020     09BC                     u1961:
  6021     09BC  29C5               	goto	l2276
  6022     09BD                     u1960:
  6023     09BD                     l2274:
  6024     09BD  0874               	movf	___lmul@multiplicand,w
  6025     09BE  07F8               	addwf	___lmul@product,f
  6026     09BF  0875               	movf	___lmul@multiplicand+1,w
  6027     09C0  3DF9               	addwfc	___lmul@product+1,f
  6028     09C1  0876               	movf	___lmul@multiplicand+2,w
  6029     09C2  3DFA               	addwfc	___lmul@product+2,f
  6030     09C3  0877               	movf	___lmul@multiplicand+3,w
  6031     09C4  3DFB               	addwfc	___lmul@product+3,f
  6032     09C5                     l2276:
  6033     09C5  3001               	movlw	1
  6034     09C6                     u1975:
  6035     09C6  35F4               	lslf	___lmul@multiplicand,f
  6036     09C7  0DF5               	rlf	___lmul@multiplicand+1,f
  6037     09C8  0DF6               	rlf	___lmul@multiplicand+2,f
  6038     09C9  0DF7               	rlf	___lmul@multiplicand+3,f
  6039     09CA  0B89               	decfsz	9,f
  6040     09CB  29C6               	goto	u1975
  6041     09CC                     l2278:
  6042     09CC  3001               	movlw	1
  6043     09CD                     u1985:
  6044     09CD  36F3               	lsrf	___lmul@multiplier+3,f
  6045     09CE  0CF2               	rrf	___lmul@multiplier+2,f
  6046     09CF  0CF1               	rrf	___lmul@multiplier+1,f
  6047     09D0  0CF0               	rrf	___lmul@multiplier,f
  6048     09D1  0B89               	decfsz	9,f
  6049     09D2  29CD               	goto	u1985
  6050     09D3  0873               	movf	___lmul@multiplier+3,w
  6051     09D4  0472               	iorwf	___lmul@multiplier+2,w
  6052     09D5  0471               	iorwf	___lmul@multiplier+1,w
  6053     09D6  0470               	iorwf	___lmul@multiplier,w
  6054     09D7  1D03               	skipz
  6055     09D8  29DA               	goto	u1991
  6056     09D9  29DB               	goto	u1990
  6057     09DA                     u1991:
  6058     09DA  29B9               	goto	l2272
  6059     09DB                     u1990:
  6060     09DB                     l2280:
  6061     09DB  087B               	movf	___lmul@product+3,w
  6062     09DC  00F3               	movwf	?___lmul+3
  6063     09DD  087A               	movf	___lmul@product+2,w
  6064     09DE  00F2               	movwf	?___lmul+2
  6065     09DF  0879               	movf	___lmul@product+1,w
  6066     09E0  00F1               	movwf	?___lmul+1
  6067     09E1  0878               	movf	___lmul@product,w
  6068     09E2  00F0               	movwf	?___lmul
  6069     09E3                     l536:
  6070     09E3  0008               	return
  6071     09E4                     __end_of___lmul:
  6072                           
  6073                           	psect	text13
  6074     0954                     __ptext13:	
  6075 ;; *************** function _bpm_init *****************
  6076 ;; Defined at:
  6077 ;;		line 536 in file "main.c"
  6078 ;; Parameters:    Size  Location     Type
  6079 ;;		None
  6080 ;; Auto vars:     Size  Location     Type
  6081 ;;  i               1    1[COMMON] unsigned char 
  6082 ;; Return value:  Size  Location     Type
  6083 ;;                  1    wreg      void 
  6084 ;; Registers used:
  6085 ;;		wreg, fsr1l, fsr1h, status,2, status,0
  6086 ;; Tracked objects:
  6087 ;;		On entry : 0/0
  6088 ;;		On exit  : 0/0
  6089 ;;		Unchanged: 0/0
  6090 ;; Data sizes:     COMMON   BANK0   BANK1   BANK2   BANK3   BANK4   BANK5   BANK6   BANK7   BANK8   BANK9  BANK10  BANK1
      +1  BANK12  BANK13  BANK14  BANK15  BANK16  BANK17  BANK18  BANK19  BANK20  BANK21  BANK22  BANK23  BANK24  BANK25
  6091 ;;      Params:         0       0       0       0       0       0       0       0       0       0       0       0       
      +0       0       0       0       0       0       0       0       0       0       0       0       0       0       0
  6092 ;;      Locals:         1       0       0       0       0       0       0       0       0       0       0       0       
      +0       0       0       0       0       0       0       0       0       0       0       0       0       0       0
  6093 ;;      Temps:          1       0       0       0       0       0       0       0       0       0       0       0       
      +0       0       0       0       0       0       0       0       0       0       0       0       0       0       0
  6094 ;;      Totals:         2       0       0       0       0       0       0       0       0       0       0       0       
      +0       0       0       0       0       0       0       0       0       0       0       0       0       0       0
  6095 ;;Total ram usage:        2 bytes
  6096 ;; Hardware stack levels used: 1
  6097 ;; Hardware stack levels required when called: 1
  6098 ;; This function calls:
  6099 ;;		Nothing
  6100 ;; This function is called by:
  6101 ;;		_main
  6102 ;; This function uses a non-reentrant model
  6103 ;;
  6104                           
  6105     0954                     _bpm_init:	
  6106                           ;psect for function _bpm_init
  6107                           
  6108     0954                     l2698:	
  6109                           ;incstack = 0
  6110                           ; Regs used in _bpm_init: [wreg+fsr1l+fsr1h+status,2+status,0]
  6111                           
  6112                           
  6113                           ;main.c: 538:     beat_idx = 0;
  6114     0954  0020               	movlb	0	; select bank0
  6115     0955  01E8               	clrf	_beat_idx
  6116                           
  6117                           ;main.c: 539:     beat_count = 0;
  6118     0956  01E7               	clrf	_beat_count
  6119                           
  6120                           ;main.c: 540:     beat_avg_interval = 0;
  6121     0957  01EA               	clrf	_beat_avg_interval
  6122     0958  01EB               	clrf	_beat_avg_interval+1
  6123                           
  6124                           ;main.c: 541:     for (uint8_t i = 0; i < 8; i++)
  6125     0959  01F1               	clrf	bpm_init@i
  6126     095A                     l2704:
  6127                           
  6128                           ;main.c: 542:     {;main.c: 543:         beat_times[i] = 0;
  6129     095A  0871               	movf	bpm_init@i,w
  6130     095B  00F0               	movwf	??_bpm_init
  6131     095C  3001               	movlw	1
  6132     095D                     u2745:
  6133     095D  35F0               	lslf	??_bpm_init,f
  6134     095E  3EFF               	addlw	-1
  6135     095F  1D03               	skipz
  6136     0960  295D               	goto	u2745
  6137     0961  3570               	lslf	??_bpm_init,w
  6138     0962  3EA0               	addlw	(low (_beat_times| (0+256)))& (0+255)
  6139     0963  0086               	movwf	6
  6140     0964  3001               	movlw	1	; select bank3/4
  6141     0965  0087               	movwf	7
  6142     0966  3000               	movlw	0
  6143     0967  3FC0               	movwi [0]fsr1
  6144     0968  3000               	movlw	0
  6145     0969  3FC1               	movwi [1]fsr1
  6146     096A  3FC2               	movwi [2]fsr1
  6147     096B  3FC3               	movwi [3]fsr1
  6148                           
  6149                           ;main.c: 544:         beat_intervals[i] = 0;
  6150     096C  3571               	lslf	bpm_init@i,w
  6151     096D  3E3A               	addlw	(low (_beat_intervals| (0+256)))& (0+255)
  6152     096E  0086               	movwf	6
  6153     096F  3001               	movlw	1	; select bank2/3
  6154     0970  0087               	movwf	7
  6155     0971  3000               	movlw	0
  6156     0972  3FC0               	movwi [0]fsr1
  6157     0973  3FC1               	movwi [1]fsr1
  6158     0974                     l2706:
  6159                           
  6160                           ;main.c: 545:     }
  6161     0974  3001               	movlw	1
  6162     0975  00F0               	movwf	??_bpm_init
  6163     0976  0870               	movf	??_bpm_init,w
  6164     0977  07F1               	addwf	bpm_init@i,f
  6165     0978                     l2708:
  6166     0978  3008               	movlw	8
  6167     0979  0271               	subwf	bpm_init@i,w
  6168     097A  1C03               	skipc
  6169     097B  297D               	goto	u2751
  6170     097C  297E               	goto	u2750
  6171     097D                     u2751:
  6172     097D  295A               	goto	l2704
  6173     097E                     u2750:
  6174     097E                     l376:
  6175     097E  0008               	return
  6176     097F                     __end_of_bpm_init:
  6177                           
  6178                           	psect	text14
  6179     0BFE                     __ptext14:	
  6180 ;; *************** function _bpm_calculate *****************
  6181 ;; Defined at:
  6182 ;;		line 597 in file "main.c"
  6183 ;; Parameters:    Size  Location     Type
  6184 ;;		None
  6185 ;; Auto vars:     Size  Location     Type
  6186 ;;  bpm             4   15[BANK0 ] unsigned long 
  6187 ;; Return value:  Size  Location     Type
  6188 ;;                  2   13[BANK0 ] unsigned short 
  6189 ;; Registers used:
  6190 ;;		wreg, status,2, status,0, pclath, cstack
  6191 ;; Tracked objects:
  6192 ;;		On entry : 0/0
  6193 ;;		On exit  : 0/0
  6194 ;;		Unchanged: 0/0
  6195 ;; Data sizes:     COMMON   BANK0   BANK1   BANK2   BANK3   BANK4   BANK5   BANK6   BANK7   BANK8   BANK9  BANK10  BANK1
      +1  BANK12  BANK13  BANK14  BANK15  BANK16  BANK17  BANK18  BANK19  BANK20  BANK21  BANK22  BANK23  BANK24  BANK25
  6196 ;;      Params:         0       2       0       0       0       0       0       0       0       0       0       0       
      +0       0       0       0       0       0       0       0       0       0       0       0       0       0       0
  6197 ;;      Locals:         0       4       0       0       0       0       0       0       0       0       0       0       
      +0       0       0       0       0       0       0       0       0       0       0       0       0       0       0
  6198 ;;      Temps:          0       0       0       0       0       0       0       0       0       0       0       0       
      +0       0       0       0       0       0       0       0       0       0       0       0       0       0       0
  6199 ;;      Totals:         0       6       0       0       0       0       0       0       0       0       0       0       
      +0       0       0       0       0       0       0       0       0       0       0       0       0       0       0
  6200 ;;Total ram usage:        6 bytes
  6201 ;; Hardware stack levels used: 1
  6202 ;; Hardware stack levels required when called: 2
  6203 ;; This function calls:
  6204 ;;		___lldiv
  6205 ;; This function is called by:
  6206 ;;		_main
  6207 ;; This function uses a non-reentrant model
  6208 ;;
  6209                           
  6210     0BFE                     _bpm_calculate:	
  6211                           ;psect for function _bpm_calculate
  6212                           
  6213     0BFE                     l2772:	
  6214                           ;incstack = 0
  6215                           ; Regs used in _bpm_calculate: [wreg+status,2+status,0+pclath+cstack]
  6216                           
  6217                           
  6218                           ;main.c: 599:     if (beat_avg_interval == 0 || beat_count < 3) return 0;
  6219     0BFE  0020               	movlb	0	; select bank0
  6220     0BFF  086A               	movf	_beat_avg_interval,w
  6221     0C00  046B               	iorwf	_beat_avg_interval+1,w
  6222     0C01  1903               	btfsc	3,2
  6223     0C02  2C04               	goto	u2901
  6224     0C03  2C05               	goto	u2900
  6225     0C04                     u2901:
  6226     0C04  2C0B               	goto	l2776
  6227     0C05                     u2900:
  6228     0C05                     l2774:
  6229     0C05  3003               	movlw	3
  6230     0C06  0267               	subwf	_beat_count,w
  6231     0C07  1803               	skipnc
  6232     0C08  2C0A               	goto	u2911
  6233     0C09  2C0B               	goto	u2910
  6234     0C0A                     u2911:
  6235     0C0A  2C0F               	goto	l2780
  6236     0C0B                     u2910:
  6237     0C0B                     l2776:
  6238     0C0B  0020               	movlb	0	; select bank0
  6239     0C0C  01AD               	clrf	?_bpm_calculate
  6240     0C0D  01AE               	clrf	?_bpm_calculate+1
  6241     0C0E  2C4E               	goto	l403
  6242     0C0F                     l2780:
  6243                           
  6244                           ;main.c: 601:     uint32_t bpm = 60000UL / (uint32_t)beat_avg_interval;
  6245     0C0F  086A               	movf	_beat_avg_interval,w
  6246     0C10  00A0               	movwf	___lldiv@divisor
  6247     0C11  086B               	movf	_beat_avg_interval+1,w
  6248     0C12  00A1               	movwf	___lldiv@divisor+1
  6249     0C13  01A2               	clrf	___lldiv@divisor+2
  6250     0C14  01A3               	clrf	___lldiv@divisor+3
  6251     0C15  3000               	movlw	0
  6252     0C16  00A7               	movwf	___lldiv@dividend+3
  6253     0C17  3000               	movlw	0
  6254     0C18  00A6               	movwf	___lldiv@dividend+2
  6255     0C19  30EA               	movlw	234
  6256     0C1A  00A5               	movwf	___lldiv@dividend+1
  6257     0C1B  3060               	movlw	96
  6258     0C1C  00A4               	movwf	___lldiv@dividend
  6259     0C1D  318C  24A1  318B   	fcall	___lldiv
  6260     0C20  0020               	movlb	0	; select bank0
  6261     0C21  0823               	movf	?___lldiv+3,w
  6262     0C22  00B2               	movwf	bpm_calculate@bpm+3
  6263     0C23  0822               	movf	?___lldiv+2,w
  6264     0C24  00B1               	movwf	bpm_calculate@bpm+2
  6265     0C25  0821               	movf	?___lldiv+1,w
  6266     0C26  00B0               	movwf	bpm_calculate@bpm+1
  6267     0C27  0820               	movf	?___lldiv,w
  6268     0C28  00AF               	movwf	bpm_calculate@bpm
  6269     0C29                     l2782:
  6270                           
  6271                           ;main.c: 602:     if (bpm < 30 || bpm > 220) return 0;
  6272     0C29  0832               	movf	bpm_calculate@bpm+3,w
  6273     0C2A  1D03               	btfss	3,2
  6274     0C2B  2C38               	goto	u2920
  6275     0C2C  0831               	movf	bpm_calculate@bpm+2,w
  6276     0C2D  1D03               	btfss	3,2
  6277     0C2E  2C38               	goto	u2920
  6278     0C2F  0830               	movf	bpm_calculate@bpm+1,w
  6279     0C30  1D03               	btfss	3,2
  6280     0C31  2C38               	goto	u2920
  6281     0C32  301E               	movlw	30
  6282     0C33  022F               	subwf	bpm_calculate@bpm,w
  6283     0C34  1C03               	btfss	3,0
  6284     0C35  2C37               	goto	u2921
  6285     0C36  2C38               	goto	u2920
  6286     0C37                     u2921:
  6287     0C37  2C0B               	goto	l2776
  6288     0C38                     u2920:
  6289     0C38                     l2784:
  6290     0C38  0020               	movlb	0	; select bank0
  6291     0C39  0832               	movf	bpm_calculate@bpm+3,w
  6292     0C3A  1D03               	btfss	3,2
  6293     0C3B  2C48               	goto	u2930
  6294     0C3C  0831               	movf	bpm_calculate@bpm+2,w
  6295     0C3D  1D03               	btfss	3,2
  6296     0C3E  2C48               	goto	u2930
  6297     0C3F  0830               	movf	bpm_calculate@bpm+1,w
  6298     0C40  1D03               	btfss	3,2
  6299     0C41  2C48               	goto	u2930
  6300     0C42  30DD               	movlw	221
  6301     0C43  022F               	subwf	bpm_calculate@bpm,w
  6302     0C44  1C03               	btfss	3,0
  6303     0C45  2C47               	goto	u2931
  6304     0C46  2C48               	goto	u2930
  6305     0C47                     u2931:
  6306     0C47  2C49               	goto	l2790
  6307     0C48                     u2930:
  6308     0C48  2C0B               	goto	l2776
  6309     0C49                     l2790:
  6310                           
  6311                           ;main.c: 604:     return (uint16_t)bpm;
  6312     0C49  0020               	movlb	0	; select bank0
  6313     0C4A  0830               	movf	bpm_calculate@bpm+1,w
  6314     0C4B  00AE               	movwf	?_bpm_calculate+1
  6315     0C4C  082F               	movf	bpm_calculate@bpm,w
  6316     0C4D  00AD               	movwf	?_bpm_calculate
  6317     0C4E                     l403:
  6318     0C4E  0008               	return
  6319     0C4F                     __end_of_bpm_calculate:
  6320                           
  6321                           	psect	text15
  6322     17DA                     __ptext15:	
  6323 ;; *************** function _UART_PrintUint16 *****************
  6324 ;; Defined at:
  6325 ;;		line 625 in file "main.c"
  6326 ;; Parameters:    Size  Location     Type
  6327 ;;  val             2   31[BANK0 ] unsigned short 
  6328 ;; Auto vars:     Size  Location     Type
  6329 ;;		None
  6330 ;; Return value:  Size  Location     Type
  6331 ;;                  1    wreg      void 
  6332 ;; Registers used:
  6333 ;;		wreg, fsr0l, fsr0h, fsr1l, fsr1h, status,2, status,0, pclath, cstack
  6334 ;; Tracked objects:
  6335 ;;		On entry : 0/0
  6336 ;;		On exit  : 0/0
  6337 ;;		Unchanged: 0/0
  6338 ;; Data sizes:     COMMON   BANK0   BANK1   BANK2   BANK3   BANK4   BANK5   BANK6   BANK7   BANK8   BANK9  BANK10  BANK1
      +1  BANK12  BANK13  BANK14  BANK15  BANK16  BANK17  BANK18  BANK19  BANK20  BANK21  BANK22  BANK23  BANK24  BANK25
  6339 ;;      Params:         0       2       0       0       0       0       0       0       0       0       0       0       
      +0       0       0       0       0       0       0       0       0       0       0       0       0       0       0
  6340 ;;      Locals:         0       0       0       0       0       0       0       0       0       0       0       0       
      +0       0       0       0       0       0       0       0       0       0       0       0       0       0       0
  6341 ;;      Temps:          0       0       0       0       0       0       0       0       0       0       0       0       
      +0       0       0       0       0       0       0       0       0       0       0       0       0       0       0
  6342 ;;      Totals:         0       2       0       0       0       0       0       0       0       0       0       0       
      +0       0       0       0       0       0       0       0       0       0       0       0       0       0       0
  6343 ;;Total ram usage:        2 bytes
  6344 ;; Hardware stack levels used: 1
  6345 ;; Hardware stack levels required when called: 4
  6346 ;; This function calls:
  6347 ;;		_UART_PrintUint32
  6348 ;; This function is called by:
  6349 ;;		_main
  6350 ;; This function uses a non-reentrant model
  6351 ;;
  6352                           
  6353     17DA                     _UART_PrintUint16:	
  6354                           ;psect for function _UART_PrintUint16
  6355                           
  6356     17DA                     l2794:	
  6357                           ;incstack = 0
  6358                           ; Regs used in _UART_PrintUint16: [wreg-fsr1h+status,2+status,0+pclath+cstack]
  6359                           
  6360                           
  6361                           ;main.c: 625: static void UART_PrintUint16(uint16_t val);main.c: 626: {;main.c: 627:    
      +                           UART_PrintUint32((uint32_t)val);
  6362     17DA  0020               	movlb	0	; select bank0
  6363     17DB  083F               	movf	UART_PrintUint16@val,w
  6364     17DC  00AD               	movwf	UART_PrintUint32@val
  6365     17DD  0840               	movf	UART_PrintUint16@val+1,w
  6366     17DE  00AE               	movwf	UART_PrintUint32@val+1
  6367     17DF  01AF               	clrf	UART_PrintUint32@val+2
  6368     17E0  01B0               	clrf	UART_PrintUint32@val+3
  6369     17E1  318D  2563  3197   	fcall	_UART_PrintUint32
  6370     17E4                     l420:
  6371     17E4  0008               	return
  6372     17E5                     __end_of_UART_PrintUint16:
  6373                           
  6374                           	psect	text16
  6375     0D63                     __ptext16:	
  6376 ;; *************** function _UART_PrintUint32 *****************
  6377 ;; Defined at:
  6378 ;;		line 611 in file "main.c"
  6379 ;; Parameters:    Size  Location     Type
  6380 ;;  val             4   13[BANK0 ] unsigned long 
  6381 ;; Auto vars:     Size  Location     Type
  6382 ;;  c               2   28[BANK0 ] unsigned char [2]
  6383 ;;  buf            11   17[BANK0 ] unsigned char [11]
  6384 ;;  i               1   30[BANK0 ] char 
  6385 ;; Return value:  Size  Location     Type
  6386 ;;                  1    wreg      void 
  6387 ;; Registers used:
  6388 ;;		wreg, fsr0l, fsr0h, fsr1l, fsr1h, status,2, status,0, pclath, cstack
  6389 ;; Tracked objects:
  6390 ;;		On entry : 0/0
  6391 ;;		On exit  : 0/0
  6392 ;;		Unchanged: 0/0
  6393 ;; Data sizes:     COMMON   BANK0   BANK1   BANK2   BANK3   BANK4   BANK5   BANK6   BANK7   BANK8   BANK9  BANK10  BANK1
      +1  BANK12  BANK13  BANK14  BANK15  BANK16  BANK17  BANK18  BANK19  BANK20  BANK21  BANK22  BANK23  BANK24  BANK25
  6394 ;;      Params:         0       4       0       0       0       0       0       0       0       0       0       0       
      +0       0       0       0       0       0       0       0       0       0       0       0       0       0       0
  6395 ;;      Locals:         0      14       0       0       0       0       0       0       0       0       0       0       
      +0       0       0       0       0       0       0       0       0       0       0       0       0       0       0
  6396 ;;      Temps:          1       0       0       0       0       0       0       0       0       0       0       0       
      +0       0       0       0       0       0       0       0       0       0       0       0       0       0       0
  6397 ;;      Totals:         1      18       0       0       0       0       0       0       0       0       0       0       
      +0       0       0       0       0       0       0       0       0       0       0       0       0       0       0
  6398 ;;Total ram usage:       19 bytes
  6399 ;; Hardware stack levels used: 1
  6400 ;; Hardware stack levels required when called: 3
  6401 ;; This function calls:
  6402 ;;		_EUSART_Write_Text
  6403 ;;		___lldiv
  6404 ;;		___llmod
  6405 ;; This function is called by:
  6406 ;;		_UART_PrintUint16
  6407 ;;		_main
  6408 ;; This function uses a non-reentrant model
  6409 ;;
  6410                           
  6411     0D63                     _UART_PrintUint32:	
  6412                           ;psect for function _UART_PrintUint32
  6413                           
  6414     0D63                     l2398:	
  6415                           ;incstack = 0
  6416                           ; Regs used in _UART_PrintUint32: [wreg-fsr1h+status,2+status,0+pclath+cstack]
  6417                           
  6418                           
  6419                           ;main.c: 611: static void UART_PrintUint32(uint32_t val);main.c: 612: {;main.c: 613:    
      +                           char buf[11];;main.c: 614:     int8_t i = 0;
  6420     0D63  0020               	movlb	0	; select bank0
  6421     0D64  01BE               	clrf	UART_PrintUint32@i
  6422     0D65                     l2400:
  6423                           
  6424                           ;main.c: 616:     if (val == 0) { EUSART_Write_Text("0"); return; }
  6425     0D65  0830               	movf	UART_PrintUint32@val+3,w
  6426     0D66  042F               	iorwf	UART_PrintUint32@val+2,w
  6427     0D67  042E               	iorwf	UART_PrintUint32@val+1,w
  6428     0D68  042D               	iorwf	UART_PrintUint32@val,w
  6429     0D69  1D03               	skipz
  6430     0D6A  2D6C               	goto	u2211
  6431     0D6B  2D6D               	goto	u2210
  6432     0D6C                     u2211:
  6433     0D6C  2DB0               	goto	l2412
  6434     0D6D                     u2210:
  6435     0D6D                     l2402:
  6436     0D6D  303A               	movlw	low (STR_1| (0+32768))
  6437     0D6E  00F1               	movwf	EUSART_Write_Text@text
  6438     0D6F  3098               	movlw	high (STR_1| (0+32768))
  6439     0D70  00F2               	movwf	EUSART_Write_Text@text+1
  6440     0D71  3188  2068  318D   	fcall	_EUSART_Write_Text
  6441     0D74  2DD3               	goto	l410
  6442     0D75                     l2406:
  6443     0D75  083E               	movf	UART_PrintUint32@i,w
  6444     0D76  3E31               	addlw	(low (UART_PrintUint32@buf| 0))& (0+255)
  6445     0D77  0086               	movwf	6
  6446     0D78  0187               	clrf	7
  6447     0D79  3000               	movlw	0
  6448     0D7A  00F3               	movwf	___llmod@divisor+3
  6449     0D7B  3000               	movlw	0
  6450     0D7C  00F2               	movwf	___llmod@divisor+2
  6451     0D7D  3000               	movlw	0
  6452     0D7E  00F1               	movwf	___llmod@divisor+1
  6453     0D7F  300A               	movlw	10
  6454     0D80  00F0               	movwf	___llmod@divisor
  6455     0D81  0830               	movf	UART_PrintUint32@val+3,w
  6456     0D82  00F7               	movwf	___llmod@dividend+3
  6457     0D83  082F               	movf	UART_PrintUint32@val+2,w
  6458     0D84  00F6               	movwf	___llmod@dividend+2
  6459     0D85  082E               	movf	UART_PrintUint32@val+1,w
  6460     0D86  00F5               	movwf	___llmod@dividend+1
  6461     0D87  082D               	movf	UART_PrintUint32@val,w
  6462     0D88  00F4               	movwf	___llmod@dividend
  6463     0D89  318B  2317  318D   	fcall	___llmod
  6464     0D8C  0870               	movf	?___llmod,w
  6465     0D8D  3E30               	addlw	48
  6466     0D8E  0081               	movwf	1
  6467     0D8F                     l2408:
  6468     0D8F  3001               	movlw	1
  6469     0D90  00FD               	movwf	??_UART_PrintUint32
  6470     0D91  087D               	movf	??_UART_PrintUint32,w
  6471     0D92  0020               	movlb	0	; select bank0
  6472     0D93  07BE               	addwf	UART_PrintUint32@i,f
  6473     0D94                     l2410:
  6474     0D94  3000               	movlw	0
  6475     0D95  00A3               	movwf	___lldiv@divisor+3
  6476     0D96  3000               	movlw	0
  6477     0D97  00A2               	movwf	___lldiv@divisor+2
  6478     0D98  3000               	movlw	0
  6479     0D99  00A1               	movwf	___lldiv@divisor+1
  6480     0D9A  300A               	movlw	10
  6481     0D9B  00A0               	movwf	___lldiv@divisor
  6482     0D9C  0830               	movf	UART_PrintUint32@val+3,w
  6483     0D9D  00A7               	movwf	___lldiv@dividend+3
  6484     0D9E  082F               	movf	UART_PrintUint32@val+2,w
  6485     0D9F  00A6               	movwf	___lldiv@dividend+2
  6486     0DA0  082E               	movf	UART_PrintUint32@val+1,w
  6487     0DA1  00A5               	movwf	___lldiv@dividend+1
  6488     0DA2  082D               	movf	UART_PrintUint32@val,w
  6489     0DA3  00A4               	movwf	___lldiv@dividend
  6490     0DA4  318C  24A1  318D   	fcall	___lldiv
  6491     0DA7  0020               	movlb	0	; select bank0
  6492     0DA8  0823               	movf	?___lldiv+3,w
  6493     0DA9  00B0               	movwf	UART_PrintUint32@val+3
  6494     0DAA  0822               	movf	?___lldiv+2,w
  6495     0DAB  00AF               	movwf	UART_PrintUint32@val+2
  6496     0DAC  0821               	movf	?___lldiv+1,w
  6497     0DAD  00AE               	movwf	UART_PrintUint32@val+1
  6498     0DAE  0820               	movf	?___lldiv,w
  6499     0DAF  00AD               	movwf	UART_PrintUint32@val
  6500     0DB0                     l2412:
  6501     0DB0  0830               	movf	UART_PrintUint32@val+3,w
  6502     0DB1  042F               	iorwf	UART_PrintUint32@val+2,w
  6503     0DB2  042E               	iorwf	UART_PrintUint32@val+1,w
  6504     0DB3  042D               	iorwf	UART_PrintUint32@val,w
  6505     0DB4  1D03               	skipz
  6506     0DB5  2DB7               	goto	u2221
  6507     0DB6  2DB8               	goto	u2220
  6508     0DB7                     u2221:
  6509     0DB7  2D75               	goto	l2406
  6510     0DB8                     u2220:
  6511     0DB8                     l2414:
  6512                           
  6513                           ;main.c: 618:     for (i--; i >= 0; i--)
  6514     0DB8  30FF               	movlw	255
  6515     0DB9  00FD               	movwf	??_UART_PrintUint32
  6516     0DBA  087D               	movf	??_UART_PrintUint32,w
  6517     0DBB  0020               	movlb	0	; select bank0
  6518     0DBC  07BE               	addwf	UART_PrintUint32@i,f
  6519     0DBD                     l2416:
  6520     0DBD  1FBE               	btfss	UART_PrintUint32@i,7
  6521     0DBE  2DC0               	goto	u2231
  6522     0DBF  2DC1               	goto	u2230
  6523     0DC0                     u2231:
  6524     0DC0  2DC2               	goto	l2420
  6525     0DC1                     u2230:
  6526     0DC1  2DD3               	goto	l410
  6527     0DC2                     l2420:
  6528                           
  6529                           ;main.c: 619:     {;main.c: 620:         char c[2] = { buf[i], '\0' };
  6530     0DC2  01BC               	clrf	UART_PrintUint32@c
  6531     0DC3  01BD               	clrf	UART_PrintUint32@c+1
  6532     0DC4                     l2422:
  6533     0DC4  083E               	movf	UART_PrintUint32@i,w
  6534     0DC5  3E31               	addlw	(low (UART_PrintUint32@buf| 0))& (0+255)
  6535     0DC6  0086               	movwf	6
  6536     0DC7  0187               	clrf	7
  6537     0DC8  0801               	movf	1,w
  6538     0DC9  00BC               	movwf	UART_PrintUint32@c
  6539     0DCA                     l2424:
  6540     0DCA  01BD               	clrf	UART_PrintUint32@c+1
  6541     0DCB                     l2426:
  6542                           
  6543                           ;main.c: 621:         EUSART_Write_Text(c);
  6544     0DCB  303C               	movlw	low UART_PrintUint32@c
  6545     0DCC  00F1               	movwf	EUSART_Write_Text@text
  6546     0DCD  3000               	movlw	high UART_PrintUint32@c
  6547     0DCE  00F2               	movwf	EUSART_Write_Text@text+1
  6548     0DCF  3188  2068  318D   	fcall	_EUSART_Write_Text
  6549     0DD2  2DB8               	goto	l2414
  6550     0DD3                     l410:
  6551     0DD3  0008               	return
  6552     0DD4                     __end_of_UART_PrintUint32:
  6553                           
  6554                           	psect	text17
  6555     0B17                     __ptext17:	
  6556 ;; *************** function ___llmod *****************
  6557 ;; Defined at:
  6558 ;;		line 5 in file "C:\Program Files\Microchip\xc8\v2.46\pic\sources\c99\common\llmod.c"
  6559 ;; Parameters:    Size  Location     Type
  6560 ;;  divisor         4    0[COMMON] unsigned long 
  6561 ;;  dividend        4    4[COMMON] unsigned long 
  6562 ;; Auto vars:     Size  Location     Type
  6563 ;;  counter         1    9[COMMON] unsigned char 
  6564 ;; Return value:  Size  Location     Type
  6565 ;;                  4    0[COMMON] unsigned long 
  6566 ;; Registers used:
  6567 ;;		wreg, status,2, status,0
  6568 ;; Tracked objects:
  6569 ;;		On entry : 0/0
  6570 ;;		On exit  : 0/0
  6571 ;;		Unchanged: 0/0
  6572 ;; Data sizes:     COMMON   BANK0   BANK1   BANK2   BANK3   BANK4   BANK5   BANK6   BANK7   BANK8   BANK9  BANK10  BANK1
      +1  BANK12  BANK13  BANK14  BANK15  BANK16  BANK17  BANK18  BANK19  BANK20  BANK21  BANK22  BANK23  BANK24  BANK25
  6573 ;;      Params:         8       0       0       0       0       0       0       0       0       0       0       0       
      +0       0       0       0       0       0       0       0       0       0       0       0       0       0       0
  6574 ;;      Locals:         1       0       0       0       0       0       0       0       0       0       0       0       
      +0       0       0       0       0       0       0       0       0       0       0       0       0       0       0
  6575 ;;      Temps:          1       0       0       0       0       0       0       0       0       0       0       0       
      +0       0       0       0       0       0       0       0       0       0       0       0       0       0       0
  6576 ;;      Totals:        10       0       0       0       0       0       0       0       0       0       0       0       
      +0       0       0       0       0       0       0       0       0       0       0       0       0       0       0
  6577 ;;Total ram usage:       10 bytes
  6578 ;; Hardware stack levels used: 1
  6579 ;; Hardware stack levels required when called: 1
  6580 ;; This function calls:
  6581 ;;		Nothing
  6582 ;; This function is called by:
  6583 ;;		_UART_PrintUint32
  6584 ;; This function uses a non-reentrant model
  6585 ;;
  6586                           
  6587     0B17                     ___llmod:	
  6588                           ;psect for function ___llmod
  6589                           
  6590     0B17                     l2334:	
  6591                           ;incstack = 0
  6592                           ; Regs used in ___llmod: [wreg+status,2+status,0]
  6593                           
  6594     0B17  0873               	movf	___llmod@divisor+3,w
  6595     0B18  0472               	iorwf	___llmod@divisor+2,w
  6596     0B19  0471               	iorwf	___llmod@divisor+1,w
  6597     0B1A  0470               	iorwf	___llmod@divisor,w
  6598     0B1B  1903               	skipnz
  6599     0B1C  2B1E               	goto	u2081
  6600     0B1D  2B1F               	goto	u2080
  6601     0B1E                     u2081:
  6602     0B1E  2B58               	goto	l2350
  6603     0B1F                     u2080:
  6604     0B1F                     l2336:
  6605     0B1F  01F9               	clrf	___llmod@counter
  6606     0B20  0AF9               	incf	___llmod@counter,f
  6607     0B21  2B2D               	goto	l2340
  6608     0B22                     l2338:
  6609     0B22  3001               	movlw	1
  6610     0B23                     u2095:
  6611     0B23  35F0               	lslf	___llmod@divisor,f
  6612     0B24  0DF1               	rlf	___llmod@divisor+1,f
  6613     0B25  0DF2               	rlf	___llmod@divisor+2,f
  6614     0B26  0DF3               	rlf	___llmod@divisor+3,f
  6615     0B27  0B89               	decfsz	9,f
  6616     0B28  2B23               	goto	u2095
  6617     0B29  3001               	movlw	1
  6618     0B2A  00F8               	movwf	??___llmod
  6619     0B2B  0878               	movf	??___llmod,w
  6620     0B2C  07F9               	addwf	___llmod@counter,f
  6621     0B2D                     l2340:
  6622     0B2D  1FF3               	btfss	___llmod@divisor+3,7
  6623     0B2E  2B30               	goto	u2101
  6624     0B2F  2B31               	goto	u2100
  6625     0B30                     u2101:
  6626     0B30  2B22               	goto	l2338
  6627     0B31                     u2100:
  6628     0B31                     l2342:
  6629     0B31  0873               	movf	___llmod@divisor+3,w
  6630     0B32  0277               	subwf	___llmod@dividend+3,w
  6631     0B33  1D03               	skipz
  6632     0B34  2B3F               	goto	u2115
  6633     0B35  0872               	movf	___llmod@divisor+2,w
  6634     0B36  0276               	subwf	___llmod@dividend+2,w
  6635     0B37  1D03               	skipz
  6636     0B38  2B3F               	goto	u2115
  6637     0B39  0871               	movf	___llmod@divisor+1,w
  6638     0B3A  0275               	subwf	___llmod@dividend+1,w
  6639     0B3B  1D03               	skipz
  6640     0B3C  2B3F               	goto	u2115
  6641     0B3D  0870               	movf	___llmod@divisor,w
  6642     0B3E  0274               	subwf	___llmod@dividend,w
  6643     0B3F                     u2115:
  6644     0B3F  1C03               	skipc
  6645     0B40  2B42               	goto	u2111
  6646     0B41  2B43               	goto	u2110
  6647     0B42                     u2111:
  6648     0B42  2B4B               	goto	l2346
  6649     0B43                     u2110:
  6650     0B43                     l2344:
  6651     0B43  0870               	movf	___llmod@divisor,w
  6652     0B44  02F4               	subwf	___llmod@dividend,f
  6653     0B45  0871               	movf	___llmod@divisor+1,w
  6654     0B46  3BF5               	subwfb	___llmod@dividend+1,f
  6655     0B47  0872               	movf	___llmod@divisor+2,w
  6656     0B48  3BF6               	subwfb	___llmod@dividend+2,f
  6657     0B49  0873               	movf	___llmod@divisor+3,w
  6658     0B4A  3BF7               	subwfb	___llmod@dividend+3,f
  6659     0B4B                     l2346:
  6660     0B4B  3001               	movlw	1
  6661     0B4C                     u2125:
  6662     0B4C  36F3               	lsrf	___llmod@divisor+3,f
  6663     0B4D  0CF2               	rrf	___llmod@divisor+2,f
  6664     0B4E  0CF1               	rrf	___llmod@divisor+1,f
  6665     0B4F  0CF0               	rrf	___llmod@divisor,f
  6666     0B50  0B89               	decfsz	9,f
  6667     0B51  2B4C               	goto	u2125
  6668     0B52                     l2348:
  6669     0B52  3001               	movlw	1
  6670     0B53  02F9               	subwf	___llmod@counter,f
  6671     0B54  1D03               	btfss	3,2
  6672     0B55  2B57               	goto	u2131
  6673     0B56  2B58               	goto	u2130
  6674     0B57                     u2131:
  6675     0B57  2B31               	goto	l2342
  6676     0B58                     u2130:
  6677     0B58                     l2350:
  6678     0B58  0877               	movf	___llmod@dividend+3,w
  6679     0B59  00F3               	movwf	?___llmod+3
  6680     0B5A  0876               	movf	___llmod@dividend+2,w
  6681     0B5B  00F2               	movwf	?___llmod+2
  6682     0B5C  0875               	movf	___llmod@dividend+1,w
  6683     0B5D  00F1               	movwf	?___llmod+1
  6684     0B5E  0874               	movf	___llmod@dividend,w
  6685     0B5F  00F0               	movwf	?___llmod
  6686     0B60                     l752:
  6687     0B60  0008               	return
  6688     0B61                     __end_of___llmod:
  6689                           
  6690                           	psect	text18
  6691     0CA1                     __ptext18:	
  6692 ;; *************** function ___lldiv *****************
  6693 ;; Defined at:
  6694 ;;		line 5 in file "C:\Program Files\Microchip\xc8\v2.46\pic\sources\c99\common\__lldiv.c"
  6695 ;; Parameters:    Size  Location     Type
  6696 ;;  divisor         4    0[BANK0 ] unsigned long 
  6697 ;;  dividend        4    4[BANK0 ] unsigned long 
  6698 ;; Auto vars:     Size  Location     Type
  6699 ;;  quotient        4    8[BANK0 ] unsigned long 
  6700 ;;  counter         1   12[BANK0 ] unsigned char 
  6701 ;; Return value:  Size  Location     Type
  6702 ;;                  4    0[BANK0 ] unsigned long 
  6703 ;; Registers used:
  6704 ;;		wreg, status,2, status,0
  6705 ;; Tracked objects:
  6706 ;;		On entry : 0/0
  6707 ;;		On exit  : 0/0
  6708 ;;		Unchanged: 0/0
  6709 ;; Data sizes:     COMMON   BANK0   BANK1   BANK2   BANK3   BANK4   BANK5   BANK6   BANK7   BANK8   BANK9  BANK10  BANK1
      +1  BANK12  BANK13  BANK14  BANK15  BANK16  BANK17  BANK18  BANK19  BANK20  BANK21  BANK22  BANK23  BANK24  BANK25
  6710 ;;      Params:         0       8       0       0       0       0       0       0       0       0       0       0       
      +0       0       0       0       0       0       0       0       0       0       0       0       0       0       0
  6711 ;;      Locals:         0       5       0       0       0       0       0       0       0       0       0       0       
      +0       0       0       0       0       0       0       0       0       0       0       0       0       0       0
  6712 ;;      Temps:          1       0       0       0       0       0       0       0       0       0       0       0       
      +0       0       0       0       0       0       0       0       0       0       0       0       0       0       0
  6713 ;;      Totals:         1      13       0       0       0       0       0       0       0       0       0       0       
      +0       0       0       0       0       0       0       0       0       0       0       0       0       0       0
  6714 ;;Total ram usage:       14 bytes
  6715 ;; Hardware stack levels used: 1
  6716 ;; Hardware stack levels required when called: 1
  6717 ;; This function calls:
  6718 ;;		Nothing
  6719 ;; This function is called by:
  6720 ;;		_spo2_compute
  6721 ;;		_bpm_record_beat
  6722 ;;		_bpm_calculate
  6723 ;;		_UART_PrintUint32
  6724 ;; This function uses a non-reentrant model
  6725 ;;
  6726                           
  6727     0CA1                     ___lldiv:	
  6728                           ;psect for function ___lldiv
  6729                           
  6730     0CA1                     l2310:	
  6731                           ;incstack = 0
  6732                           ; Regs used in ___lldiv: [wreg+status,2+status,0]
  6733                           
  6734     0CA1  3000               	movlw	0
  6735     0CA2  0020               	movlb	0	; select bank0
  6736     0CA3  00AB               	movwf	___lldiv@quotient+3
  6737     0CA4  3000               	movlw	0
  6738     0CA5  00AA               	movwf	___lldiv@quotient+2
  6739     0CA6  3000               	movlw	0
  6740     0CA7  00A9               	movwf	___lldiv@quotient+1
  6741     0CA8  3000               	movlw	0
  6742     0CA9  00A8               	movwf	___lldiv@quotient
  6743     0CAA  0823               	movf	___lldiv@divisor+3,w
  6744     0CAB  0422               	iorwf	___lldiv@divisor+2,w
  6745     0CAC  0421               	iorwf	___lldiv@divisor+1,w
  6746     0CAD  0420               	iorwf	___lldiv@divisor,w
  6747     0CAE  1903               	skipnz
  6748     0CAF  2CB1               	goto	u2011
  6749     0CB0  2CB2               	goto	u2010
  6750     0CB1                     u2011:
  6751     0CB1  2CF3               	goto	l2330
  6752     0CB2                     u2010:
  6753     0CB2                     l2312:
  6754     0CB2  01AC               	clrf	___lldiv@counter
  6755     0CB3  0AAC               	incf	___lldiv@counter,f
  6756     0CB4  2CC0               	goto	l2316
  6757     0CB5                     l2314:
  6758     0CB5  3001               	movlw	1
  6759     0CB6                     u2025:
  6760     0CB6  35A0               	lslf	___lldiv@divisor,f
  6761     0CB7  0DA1               	rlf	___lldiv@divisor+1,f
  6762     0CB8  0DA2               	rlf	___lldiv@divisor+2,f
  6763     0CB9  0DA3               	rlf	___lldiv@divisor+3,f
  6764     0CBA  0B89               	decfsz	9,f
  6765     0CBB  2CB6               	goto	u2025
  6766     0CBC  3001               	movlw	1
  6767     0CBD  00FC               	movwf	??___lldiv
  6768     0CBE  087C               	movf	??___lldiv,w
  6769     0CBF  07AC               	addwf	___lldiv@counter,f
  6770     0CC0                     l2316:
  6771     0CC0  1FA3               	btfss	___lldiv@divisor+3,7
  6772     0CC1  2CC3               	goto	u2031
  6773     0CC2  2CC4               	goto	u2030
  6774     0CC3                     u2031:
  6775     0CC3  2CB5               	goto	l2314
  6776     0CC4                     u2030:
  6777     0CC4                     l2318:
  6778     0CC4  3001               	movlw	1
  6779     0CC5                     u2045:
  6780     0CC5  35A8               	lslf	___lldiv@quotient,f
  6781     0CC6  0DA9               	rlf	___lldiv@quotient+1,f
  6782     0CC7  0DAA               	rlf	___lldiv@quotient+2,f
  6783     0CC8  0DAB               	rlf	___lldiv@quotient+3,f
  6784     0CC9  0B89               	decfsz	9,f
  6785     0CCA  2CC5               	goto	u2045
  6786     0CCB                     l2320:
  6787     0CCB  0823               	movf	___lldiv@divisor+3,w
  6788     0CCC  0227               	subwf	___lldiv@dividend+3,w
  6789     0CCD  1D03               	skipz
  6790     0CCE  2CD9               	goto	u2055
  6791     0CCF  0822               	movf	___lldiv@divisor+2,w
  6792     0CD0  0226               	subwf	___lldiv@dividend+2,w
  6793     0CD1  1D03               	skipz
  6794     0CD2  2CD9               	goto	u2055
  6795     0CD3  0821               	movf	___lldiv@divisor+1,w
  6796     0CD4  0225               	subwf	___lldiv@dividend+1,w
  6797     0CD5  1D03               	skipz
  6798     0CD6  2CD9               	goto	u2055
  6799     0CD7  0820               	movf	___lldiv@divisor,w
  6800     0CD8  0224               	subwf	___lldiv@dividend,w
  6801     0CD9                     u2055:
  6802     0CD9  1C03               	skipc
  6803     0CDA  2CDC               	goto	u2051
  6804     0CDB  2CDD               	goto	u2050
  6805     0CDC                     u2051:
  6806     0CDC  2CE6               	goto	l2326
  6807     0CDD                     u2050:
  6808     0CDD                     l2322:
  6809     0CDD  0820               	movf	___lldiv@divisor,w
  6810     0CDE  02A4               	subwf	___lldiv@dividend,f
  6811     0CDF  0821               	movf	___lldiv@divisor+1,w
  6812     0CE0  3BA5               	subwfb	___lldiv@dividend+1,f
  6813     0CE1  0822               	movf	___lldiv@divisor+2,w
  6814     0CE2  3BA6               	subwfb	___lldiv@dividend+2,f
  6815     0CE3  0823               	movf	___lldiv@divisor+3,w
  6816     0CE4  3BA7               	subwfb	___lldiv@dividend+3,f
  6817     0CE5                     l2324:
  6818     0CE5  1428               	bsf	___lldiv@quotient,0
  6819     0CE6                     l2326:
  6820     0CE6  3001               	movlw	1
  6821     0CE7                     u2065:
  6822     0CE7  36A3               	lsrf	___lldiv@divisor+3,f
  6823     0CE8  0CA2               	rrf	___lldiv@divisor+2,f
  6824     0CE9  0CA1               	rrf	___lldiv@divisor+1,f
  6825     0CEA  0CA0               	rrf	___lldiv@divisor,f
  6826     0CEB  0B89               	decfsz	9,f
  6827     0CEC  2CE7               	goto	u2065
  6828     0CED                     l2328:
  6829     0CED  3001               	movlw	1
  6830     0CEE  02AC               	subwf	___lldiv@counter,f
  6831     0CEF  1D03               	btfss	3,2
  6832     0CF0  2CF2               	goto	u2071
  6833     0CF1  2CF3               	goto	u2070
  6834     0CF2                     u2071:
  6835     0CF2  2CC4               	goto	l2318
  6836     0CF3                     u2070:
  6837     0CF3                     l2330:
  6838     0CF3  082B               	movf	___lldiv@quotient+3,w
  6839     0CF4  00A3               	movwf	?___lldiv+3
  6840     0CF5  082A               	movf	___lldiv@quotient+2,w
  6841     0CF6  00A2               	movwf	?___lldiv+2
  6842     0CF7  0829               	movf	___lldiv@quotient+1,w
  6843     0CF8  00A1               	movwf	?___lldiv+1
  6844     0CF9  0828               	movf	___lldiv@quotient,w
  6845     0CFA  00A0               	movwf	?___lldiv
  6846     0CFB                     l558:
  6847     0CFB  0008               	return
  6848     0CFC                     __end_of___lldiv:
  6849                           
  6850                           	psect	text19
  6851     0868                     __ptext19:	
  6852 ;; *************** function _EUSART_Write_Text *****************
  6853 ;; Defined at:
  6854 ;;		line 127 in file "EUSART.c"
  6855 ;; Parameters:    Size  Location     Type
  6856 ;;  text            2    1[COMMON] PTR unsigned char 
  6857 ;;		 -> STR_17(3), STR_16(12), STR_15(2), STR_14(8), 
  6858 ;;		 -> STR_13(10), STR_12(7), STR_11(7), STR_10(4), 
  6859 ;;		 -> STR_9(24), STR_8(23), STR_7(30), STR_6(29), 
  6860 ;;		 -> STR_5(10), STR_4(31), STR_3(32), STR_2(31), 
  6861 ;;		 -> UART_PrintUint32@c(2), STR_1(2), 
  6862 ;; Auto vars:     Size  Location     Type
  6863 ;;  i               2    4[COMMON] int 
  6864 ;; Return value:  Size  Location     Type
  6865 ;;                  1    wreg      void 
  6866 ;; Registers used:
  6867 ;;		wreg, fsr0l, fsr0h, status,2, status,0, pclath, cstack
  6868 ;; Tracked objects:
  6869 ;;		On entry : 0/0
  6870 ;;		On exit  : 0/0
  6871 ;;		Unchanged: 0/0
  6872 ;; Data sizes:     COMMON   BANK0   BANK1   BANK2   BANK3   BANK4   BANK5   BANK6   BANK7   BANK8   BANK9  BANK10  BANK1
      +1  BANK12  BANK13  BANK14  BANK15  BANK16  BANK17  BANK18  BANK19  BANK20  BANK21  BANK22  BANK23  BANK24  BANK25
  6873 ;;      Params:         2       0       0       0       0       0       0       0       0       0       0       0       
      +0       0       0       0       0       0       0       0       0       0       0       0       0       0       0
  6874 ;;      Locals:         2       0       0       0       0       0       0       0       0       0       0       0       
      +0       0       0       0       0       0       0       0       0       0       0       0       0       0       0
  6875 ;;      Temps:          1       0       0       0       0       0       0       0       0       0       0       0       
      +0       0       0       0       0       0       0       0       0       0       0       0       0       0       0
  6876 ;;      Totals:         5       0       0       0       0       0       0       0       0       0       0       0       
      +0       0       0       0       0       0       0       0       0       0       0       0       0       0       0
  6877 ;;Total ram usage:        5 bytes
  6878 ;; Hardware stack levels used: 1
  6879 ;; Hardware stack levels required when called: 2
  6880 ;; This function calls:
  6881 ;;		_EUSART_Write
  6882 ;; This function is called by:
  6883 ;;		_UART_PrintUint32
  6884 ;;		_main
  6885 ;; This function uses a non-reentrant model
  6886 ;;
  6887                           
  6888     0868                     _EUSART_Write_Text:	
  6889                           ;psect for function _EUSART_Write_Text
  6890                           
  6891     0868                     l2284:	
  6892                           ;incstack = 0
  6893                           ; Regs used in _EUSART_Write_Text: [wreg-fsr0h+status,2+status,0+pclath+cstack]
  6894                           
  6895                           
  6896                           ;EUSART.c: 127: void EUSART_Write_Text(char *text);EUSART.c: 128: {;EUSART.c: 129:   int
      +                           i;;EUSART.c: 130:   for(i=0;text[i]!='\0';i++)
  6897     0868  01F4               	clrf	EUSART_Write_Text@i
  6898     0869  01F5               	clrf	EUSART_Write_Text@i+1
  6899     086A  2879               	goto	l2290
  6900     086B                     l2286:
  6901                           
  6902                           ;EUSART.c: 131:    EUSART_Write(text[i]);
  6903     086B  0871               	movf	EUSART_Write_Text@text,w
  6904     086C  0774               	addwf	EUSART_Write_Text@i,w
  6905     086D  0084               	movwf	4
  6906     086E  0872               	movf	EUSART_Write_Text@text+1,w
  6907     086F  3D75               	addwfc	EUSART_Write_Text@i+1,w
  6908     0870  0085               	movwf	5
  6909     0871  0800               	movf	0,w	;code access
  6910     0872  3197  27D0  3188   	fcall	_EUSART_Write
  6911     0875                     l2288:
  6912     0875  3001               	movlw	1
  6913     0876  07F4               	addwf	EUSART_Write_Text@i,f
  6914     0877  3000               	movlw	0
  6915     0878  3DF5               	addwfc	EUSART_Write_Text@i+1,f
  6916     0879                     l2290:
  6917     0879  0871               	movf	EUSART_Write_Text@text,w
  6918     087A  0774               	addwf	EUSART_Write_Text@i,w
  6919     087B  0084               	movwf	4
  6920     087C  0872               	movf	EUSART_Write_Text@text+1,w
  6921     087D  3D75               	addwfc	EUSART_Write_Text@i+1,w
  6922     087E  0085               	movwf	5
  6923     087F  0012               	moviw fsr0++
  6924     0880  1D03               	btfss	3,2
  6925     0881  2883               	goto	u2001
  6926     0882  2884               	goto	u2000
  6927     0883                     u2001:
  6928     0883  286B               	goto	l2286
  6929     0884                     u2000:
  6930     0884                     l50:
  6931     0884  0008               	return
  6932     0885                     __end_of_EUSART_Write_Text:
  6933                           
  6934                           	psect	text20
  6935     17D0                     __ptext20:	
  6936 ;; *************** function _EUSART_Write *****************
  6937 ;; Defined at:
  6938 ;;		line 108 in file "EUSART.c"
  6939 ;; Parameters:    Size  Location     Type
  6940 ;;  txData          1    wreg     unsigned char 
  6941 ;; Auto vars:     Size  Location     Type
  6942 ;;  txData          1    0[COMMON] unsigned char 
  6943 ;; Return value:  Size  Location     Type
  6944 ;;                  1    wreg      void 
  6945 ;; Registers used:
  6946 ;;		wreg
  6947 ;; Tracked objects:
  6948 ;;		On entry : 0/0
  6949 ;;		On exit  : 0/0
  6950 ;;		Unchanged: 0/0
  6951 ;; Data sizes:     COMMON   BANK0   BANK1   BANK2   BANK3   BANK4   BANK5   BANK6   BANK7   BANK8   BANK9  BANK10  BANK1
      +1  BANK12  BANK13  BANK14  BANK15  BANK16  BANK17  BANK18  BANK19  BANK20  BANK21  BANK22  BANK23  BANK24  BANK25
  6952 ;;      Params:         0       0       0       0       0       0       0       0       0       0       0       0       
      +0       0       0       0       0       0       0       0       0       0       0       0       0       0       0
  6953 ;;      Locals:         1       0       0       0       0       0       0       0       0       0       0       0       
      +0       0       0       0       0       0       0       0       0       0       0       0       0       0       0
  6954 ;;      Temps:          0       0       0       0       0       0       0       0       0       0       0       0       
      +0       0       0       0       0       0       0       0       0       0       0       0       0       0       0
  6955 ;;      Totals:         1       0       0       0       0       0       0       0       0       0       0       0       
      +0       0       0       0       0       0       0       0       0       0       0       0       0       0       0
  6956 ;;Total ram usage:        1 bytes
  6957 ;; Hardware stack levels used: 1
  6958 ;; Hardware stack levels required when called: 1
  6959 ;; This function calls:
  6960 ;;		Nothing
  6961 ;; This function is called by:
  6962 ;;		_EUSART_Write_Text
  6963 ;;		_EUSART_Write_Integer
  6964 ;; This function uses a non-reentrant model
  6965 ;;
  6966                           
  6967     17D0                     _EUSART_Write:	
  6968                           ;psect for function _EUSART_Write
  6969                           
  6970                           
  6971                           ;incstack = 0
  6972                           ; Regs used in _EUSART_Write: [wreg]
  6973                           ;EUSART_Write@txData stored from wreg
  6974     17D0  00F0               	movwf	EUSART_Write@txData
  6975     17D1                     l2256:
  6976     17D1                     l41:	
  6977                           ;EUSART.c: 111:     {;EUSART.c: 112:     }
  6978                           
  6979                           
  6980                           ;EUSART.c: 110:     while(0 == PIR1bits.TXIF)
  6981     17D1  0020               	movlb	0	; select bank0
  6982     17D2  1E11               	btfss	17,4	;volatile
  6983     17D3  2FD5               	goto	u1951
  6984     17D4  2FD6               	goto	u1950
  6985     17D5                     u1951:
  6986     17D5  2FD1               	goto	l41
  6987     17D6                     u1950:
  6988     17D6                     l2258:
  6989                           
  6990                           ;EUSART.c: 114:     TX1REG = txData;
  6991     17D6  0870               	movf	EUSART_Write@txData,w
  6992     17D7  0023               	movlb	3	; select bank3
  6993     17D8  009A               	movwf	26	;volatile
  6994     17D9                     l44:
  6995     17D9  0008               	return
  6996     17DA                     __end_of_EUSART_Write:
  6997                           
  6998                           	psect	text21
  6999     17F1                     __ptext21:	
  7000 ;; *************** function _TMR0_Init *****************
  7001 ;; Defined at:
  7002 ;;		line 108 in file "main.c"
  7003 ;; Parameters:    Size  Location     Type
  7004 ;;		None
  7005 ;; Auto vars:     Size  Location     Type
  7006 ;;		None
  7007 ;; Return value:  Size  Location     Type
  7008 ;;                  1    wreg      void 
  7009 ;; Registers used:
  7010 ;;		wreg, status,2, status,0
  7011 ;; Tracked objects:
  7012 ;;		On entry : 0/0
  7013 ;;		On exit  : 0/0
  7014 ;;		Unchanged: 0/0
  7015 ;; Data sizes:     COMMON   BANK0   BANK1   BANK2   BANK3   BANK4   BANK5   BANK6   BANK7   BANK8   BANK9  BANK10  BANK1
      +1  BANK12  BANK13  BANK14  BANK15  BANK16  BANK17  BANK18  BANK19  BANK20  BANK21  BANK22  BANK23  BANK24  BANK25
  7016 ;;      Params:         0       0       0       0       0       0       0       0       0       0       0       0       
      +0       0       0       0       0       0       0       0       0       0       0       0       0       0       0
  7017 ;;      Locals:         0       0       0       0       0       0       0       0       0       0       0       0       
      +0       0       0       0       0       0       0       0       0       0       0       0       0       0       0
  7018 ;;      Temps:          0       0       0       0       0       0       0       0       0       0       0       0       
      +0       0       0       0       0       0       0       0       0       0       0       0       0       0       0
  7019 ;;      Totals:         0       0       0       0       0       0       0       0       0       0       0       0       
      +0       0       0       0       0       0       0       0       0       0       0       0       0       0       0
  7020 ;;Total ram usage:        0 bytes
  7021 ;; Hardware stack levels used: 1
  7022 ;; Hardware stack levels required when called: 1
  7023 ;; This function calls:
  7024 ;;		Nothing
  7025 ;; This function is called by:
  7026 ;;		_main
  7027 ;; This function uses a non-reentrant model
  7028 ;;
  7029                           
  7030     17F1                     _TMR0_Init:	
  7031                           ;psect for function _TMR0_Init
  7032                           
  7033     17F1                     l2500:	
  7034                           ;incstack = 0
  7035                           ; Regs used in _TMR0_Init: [wreg+status,2+status,0]
  7036                           
  7037                           
  7038                           ;main.c: 110:     OPTION_REGbits.TMR0CS = 0;
  7039     17F1  0021               	movlb	1	; select bank1
  7040     17F2  1295               	bcf	21,5	;volatile
  7041                           
  7042                           ;main.c: 111:     OPTION_REGbits.PSA = 0;
  7043     17F3  1195               	bcf	21,3	;volatile
  7044     17F4                     l2502:
  7045                           
  7046                           ;main.c: 112:     OPTION_REGbits.PS = 0b100;
  7047     17F4  0815               	movf	21,w	;volatile
  7048     17F5  39F8               	andlw	-8
  7049     17F6  3804               	iorlw	4
  7050     17F7  0095               	movwf	21	;volatile
  7051     17F8                     l2504:
  7052                           
  7053                           ;main.c: 113:     TMR0 = 6;
  7054     17F8  3006               	movlw	6
  7055     17F9  0020               	movlb	0	; select bank0
  7056     17FA  0095               	movwf	21	;volatile
  7057     17FB                     l2506:
  7058                           
  7059                           ;main.c: 114:     INTCONbits.TMR0IF = 0;
  7060     17FB  110B               	bcf	11,2	;volatile
  7061     17FC                     l2508:
  7062                           
  7063                           ;main.c: 115:     INTCONbits.TMR0IE = 1;
  7064     17FC  168B               	bsf	11,5	;volatile
  7065     17FD                     l2510:
  7066                           
  7067                           ;main.c: 116:     INTCONbits.GIE = 1;
  7068     17FD  178B               	bsf	11,7	;volatile
  7069     17FE                     l2512:
  7070                           
  7071                           ;main.c: 117:     INTCONbits.PEIE = 1;
  7072     17FE  170B               	bsf	11,6	;volatile
  7073     17FF                     l226:
  7074     17FF  0008               	return
  7075     1800                     __end_of_TMR0_Init:
  7076                           
  7077                           	psect	text22
  7078     05B0                     __ptext22:	
  7079 ;; *************** function _MAX30102_check *****************
  7080 ;; Defined at:
  7081 ;;		line 281 in file "main.c"
  7082 ;; Parameters:    Size  Location     Type
  7083 ;;  red_buf         1    wreg     PTR unsigned long 
  7084 ;;		 -> main@red_buf(32), 
  7085 ;;  ir_buf          1    2[BANK0 ] PTR unsigned long 
  7086 ;;		 -> main@ir_buf(32), 
  7087 ;;  max_samples     1    3[BANK0 ] unsigned char 
  7088 ;; Auto vars:     Size  Location     Type
  7089 ;;  red_buf         1   26[BANK0 ] PTR unsigned long 
  7090 ;;		 -> main@red_buf(32), 
  7091 ;;  buf             6   18[BANK0 ] unsigned char [6]
  7092 ;;  s               1   27[BANK0 ] unsigned char 
  7093 ;;  count           1   30[BANK0 ] unsigned char 
  7094 ;;  num_availabl    1   29[BANK0 ] char 
  7095 ;;  to_read         1   28[BANK0 ] unsigned char 
  7096 ;;  wr_ptr          1   25[BANK0 ] unsigned char 
  7097 ;;  rd_ptr          1   24[BANK0 ] unsigned char 
  7098 ;; Return value:  Size  Location     Type
  7099 ;;                  1    wreg      unsigned char 
  7100 ;; Registers used:
  7101 ;;		wreg, fsr1l, fsr1h, status,2, status,0, pclath, cstack
  7102 ;; Tracked objects:
  7103 ;;		On entry : 0/0
  7104 ;;		On exit  : 0/0
  7105 ;;		Unchanged: 0/0
  7106 ;; Data sizes:     COMMON   BANK0   BANK1   BANK2   BANK3   BANK4   BANK5   BANK6   BANK7   BANK8   BANK9  BANK10  BANK1
      +1  BANK12  BANK13  BANK14  BANK15  BANK16  BANK17  BANK18  BANK19  BANK20  BANK21  BANK22  BANK23  BANK24  BANK25
  7107 ;;      Params:         0       2       0       0       0       0       0       0       0       0       0       0       
      +0       0       0       0       0       0       0       0       0       0       0       0       0       0       0
  7108 ;;      Locals:         0      13       0       0       0       0       0       0       0       0       0       0       
      +0       0       0       0       0       0       0       0       0       0       0       0       0       0       0
  7109 ;;      Temps:          0      14       0       0       0       0       0       0       0       0       0       0       
      +0       0       0       0       0       0       0       0       0       0       0       0       0       0       0
  7110 ;;      Totals:         0      29       0       0       0       0       0       0       0       0       0       0       
      +0       0       0       0       0       0       0       0       0       0       0       0       0       0       0
  7111 ;;Total ram usage:       29 bytes
  7112 ;; Hardware stack levels used: 1
  7113 ;; Hardware stack levels required when called: 5
  7114 ;; This function calls:
  7115 ;;		_i2c_read_bytes
  7116 ;;		_readRegister8
  7117 ;; This function is called by:
  7118 ;;		_main
  7119 ;; This function uses a non-reentrant model
  7120 ;;
  7121                           
  7122     05B0                     _MAX30102_check:	
  7123                           ;psect for function _MAX30102_check
  7124                           
  7125                           
  7126                           ;incstack = 0
  7127                           ; Regs used in _MAX30102_check: [wreg+fsr1l+fsr1h+status,2+status,0+pclath+cstack]
  7128                           ;MAX30102_check@red_buf stored from wreg
  7129     05B0  0020               	movlb	0	; select bank0
  7130     05B1  00BA               	movwf	MAX30102_check@red_buf
  7131     05B2                     l2526:
  7132                           
  7133                           ;main.c: 281: static uint8_t MAX30102_check(uint32_t *red_buf, uint32_t *ir_buf,;main.c:
      +                           282:                                uint8_t max_samples);main.c: 283: {;main.c: 285:   
      +                            readRegister8(0x00);
  7134     05B2  3000               	movlw	0
  7135     05B3  3188  201D  3185   	fcall	_readRegister8
  7136                           
  7137                           ;main.c: 286:     readRegister8(0x01);
  7138     05B6  3001               	movlw	1
  7139     05B7  3188  201D  3185   	fcall	_readRegister8
  7140                           
  7141                           ;main.c: 288:     uint8_t rd_ptr = readRegister8(0x06);
  7142     05BA  3006               	movlw	6
  7143     05BB  3188  201D  3185   	fcall	_readRegister8
  7144     05BE  0020               	movlb	0	; select bank0
  7145     05BF  00B8               	movwf	MAX30102_check@rd_ptr
  7146                           
  7147                           ;main.c: 289:     uint8_t wr_ptr = readRegister8(0x04);
  7148     05C0  3004               	movlw	4
  7149     05C1  3188  201D  3185   	fcall	_readRegister8
  7150     05C4  0020               	movlb	0	; select bank0
  7151     05C5  00B9               	movwf	MAX30102_check@wr_ptr
  7152     05C6                     l2528:
  7153                           
  7154                           ;main.c: 291:     int8_t num_available = (int8_t)(wr_ptr - rd_ptr);
  7155     05C6  0838               	movf	MAX30102_check@rd_ptr,w
  7156     05C7  0239               	subwf	MAX30102_check@wr_ptr,w
  7157     05C8  00BD               	movwf	MAX30102_check@num_available
  7158     05C9                     l2530:
  7159                           
  7160                           ;main.c: 292:     if (num_available < 0) num_available += 32;
  7161     05C9  1FBD               	btfss	MAX30102_check@num_available,7
  7162     05CA  2DCC               	goto	u2371
  7163     05CB  2DCD               	goto	u2370
  7164     05CC                     u2371:
  7165     05CC  2DD1               	goto	l283
  7166     05CD                     u2370:
  7167     05CD                     l2532:
  7168     05CD  3020               	movlw	32
  7169     05CE  00A4               	movwf	??_MAX30102_check
  7170     05CF  0824               	movf	??_MAX30102_check,w
  7171     05D0  07BD               	addwf	MAX30102_check@num_available,f
  7172     05D1                     l283:
  7173                           
  7174                           ;main.c: 293:     if (num_available == 0) return 0;
  7175     05D1  083D               	movf	MAX30102_check@num_available,w
  7176     05D2  1D03               	btfss	3,2
  7177     05D3  2DD5               	goto	u2381
  7178     05D4  2DD6               	goto	u2380
  7179     05D5                     u2381:
  7180     05D5  2DD8               	goto	l2538
  7181     05D6                     u2380:
  7182     05D6                     l2534:
  7183     05D6  3000               	movlw	0
  7184     05D7  2E8C               	goto	l285
  7185     05D8                     l2538:
  7186                           
  7187                           ;main.c: 295:     uint8_t to_read = (uint8_t)num_available;
  7188     05D8  083D               	movf	MAX30102_check@num_available,w
  7189     05D9  00BC               	movwf	MAX30102_check@to_read
  7190                           
  7191                           ;main.c: 296:     if (to_read > max_samples) to_read = max_samples;
  7192     05DA  083C               	movf	MAX30102_check@to_read,w
  7193     05DB  0223               	subwf	MAX30102_check@max_samples,w
  7194     05DC  1803               	skipnc
  7195     05DD  2DDF               	goto	u2391
  7196     05DE  2DE0               	goto	u2390
  7197     05DF                     u2391:
  7198     05DF  2DE2               	goto	l2542
  7199     05E0                     u2390:
  7200     05E0                     l2540:
  7201     05E0  0823               	movf	MAX30102_check@max_samples,w
  7202     05E1  00BC               	movwf	MAX30102_check@to_read
  7203     05E2                     l2542:
  7204                           
  7205                           ;main.c: 298:     uint8_t count = 0;
  7206     05E2  01BE               	clrf	MAX30102_check@count
  7207     05E3                     l2544:
  7208                           
  7209                           ;main.c: 299:     for (uint8_t s = 0; s < to_read; s++)
  7210     05E3  01BB               	clrf	MAX30102_check@s
  7211     05E4  2E84               	goto	l2556
  7212     05E5                     l2546:
  7213                           
  7214                           ;main.c: 300:     {;main.c: 301:         uint8_t buf[6];;main.c: 302:         if (i2c_re
      +                          ad_bytes(0x57, 0x07, buf, 6) != 0)
  7215     05E5  3007               	movlw	7
  7216     05E6  00F6               	movwf	i2c_read_bytes@reg
  7217     05E7  3032               	movlw	(low (MAX30102_check@buf| 0))& (0+255)
  7218     05E8  00F7               	movwf	i2c_read_bytes@dst
  7219     05E9  3006               	movlw	6
  7220     05EA  00F8               	movwf	i2c_read_bytes@len
  7221     05EB  3057               	movlw	87
  7222     05EC  318D  25D4  3185   	fcall	_i2c_read_bytes
  7223     05EF  3A00               	xorlw	0
  7224     05F0  1903               	skipnz
  7225     05F1  2DF3               	goto	u2401
  7226     05F2  2DF4               	goto	u2400
  7227     05F3                     u2401:
  7228     05F3  2DF5               	goto	l2550
  7229     05F4                     u2400:
  7230     05F4  2E8A               	goto	l2558
  7231     05F5                     l2550:
  7232                           
  7233                           ;main.c: 306:         red_buf[count] = ((uint32_t)(buf[0] & 0x03) << 16) |
  7234     05F5  0020               	movlb	0	; select bank0
  7235     05F6  0834               	movf	MAX30102_check@buf+2,w
  7236     05F7  00A4               	movwf	??_MAX30102_check
  7237     05F8  01A5               	clrf	??_MAX30102_check+1
  7238     05F9  01A6               	clrf	??_MAX30102_check+2
  7239     05FA  01A7               	clrf	??_MAX30102_check+3
  7240     05FB  0833               	movf	MAX30102_check@buf+1,w
  7241     05FC  00A8               	movwf	??_MAX30102_check+4
  7242     05FD  01A9               	clrf	??_MAX30102_check+5
  7243     05FE  01AA               	clrf	??_MAX30102_check+6
  7244     05FF  01AB               	clrf	??_MAX30102_check+7
  7245     0600  3008               	movlw	8
  7246     0601                     u2415:
  7247     0601  35A8               	lslf	??_MAX30102_check+4,f
  7248     0602  0DA9               	rlf	??_MAX30102_check+5,f
  7249     0603  0DAA               	rlf	??_MAX30102_check+6,f
  7250     0604  0DAB               	rlf	??_MAX30102_check+7,f
  7251     0605                     u2410:
  7252     0605  0B89               	decfsz	9,f
  7253     0606  2E01               	goto	u2415
  7254     0607  0832               	movf	MAX30102_check@buf,w
  7255     0608  3903               	andlw	3
  7256     0609  00AC               	movwf	??_MAX30102_check+8
  7257     060A  01AD               	clrf	??_MAX30102_check+9
  7258     060B  01AE               	clrf	??_MAX30102_check+10
  7259     060C  01AF               	clrf	??_MAX30102_check+11
  7260     060D  3010               	movlw	16
  7261     060E                     u2425:
  7262     060E  35AC               	lslf	??_MAX30102_check+8,f
  7263     060F  0DAD               	rlf	??_MAX30102_check+9,f
  7264     0610  0DAE               	rlf	??_MAX30102_check+10,f
  7265     0611  0DAF               	rlf	??_MAX30102_check+11,f
  7266     0612                     u2420:
  7267     0612  0B89               	decfsz	9,f
  7268     0613  2E0E               	goto	u2425
  7269     0614  082C               	movf	??_MAX30102_check+8,w
  7270     0615  04A8               	iorwf	??_MAX30102_check+4,f
  7271     0616  082D               	movf	??_MAX30102_check+9,w
  7272     0617  04A9               	iorwf	??_MAX30102_check+5,f
  7273     0618  082E               	movf	??_MAX30102_check+10,w
  7274     0619  04AA               	iorwf	??_MAX30102_check+6,f
  7275     061A  082F               	movf	??_MAX30102_check+11,w
  7276     061B  04AB               	iorwf	??_MAX30102_check+7,f
  7277     061C  0828               	movf	??_MAX30102_check+4,w
  7278     061D  04A4               	iorwf	??_MAX30102_check,f
  7279     061E  0829               	movf	??_MAX30102_check+5,w
  7280     061F  04A5               	iorwf	??_MAX30102_check+1,f
  7281     0620  082A               	movf	??_MAX30102_check+6,w
  7282     0621  04A6               	iorwf	??_MAX30102_check+2,f
  7283     0622  082B               	movf	??_MAX30102_check+7,w
  7284     0623  04A7               	iorwf	??_MAX30102_check+3,f
  7285     0624  083E               	movf	MAX30102_check@count,w
  7286     0625  00B0               	movwf	??_MAX30102_check+12
  7287     0626  3001               	movlw	1
  7288     0627                     u2435:
  7289     0627  35B0               	lslf	??_MAX30102_check+12,f
  7290     0628  3EFF               	addlw	-1
  7291     0629  1D03               	skipz
  7292     062A  2E27               	goto	u2435
  7293     062B  3530               	lslf	??_MAX30102_check+12,w
  7294     062C  073A               	addwf	MAX30102_check@red_buf,w
  7295     062D  00B1               	movwf	??_MAX30102_check+13
  7296     062E  0831               	movf	??_MAX30102_check+13,w
  7297     062F  0086               	movwf	6
  7298     0630  0187               	clrf	7
  7299     0631  0824               	movf	??_MAX30102_check,w
  7300     0632  3FC0               	movwi [0]fsr1
  7301     0633  0825               	movf	??_MAX30102_check+1,w
  7302     0634  3FC1               	movwi [1]fsr1
  7303     0635  0826               	movf	??_MAX30102_check+2,w
  7304     0636  3FC2               	movwi [2]fsr1
  7305     0637  0827               	movf	??_MAX30102_check+3,w
  7306     0638  3FC3               	movwi [3]fsr1
  7307                           
  7308                           ;main.c: 310:         ir_buf[count] = ((uint32_t)(buf[3] & 0x03) << 16) |
  7309     0639  0837               	movf	MAX30102_check@buf+5,w
  7310     063A  00A4               	movwf	??_MAX30102_check
  7311     063B  01A5               	clrf	??_MAX30102_check+1
  7312     063C  01A6               	clrf	??_MAX30102_check+2
  7313     063D  01A7               	clrf	??_MAX30102_check+3
  7314     063E  0836               	movf	MAX30102_check@buf+4,w
  7315     063F  00A8               	movwf	??_MAX30102_check+4
  7316     0640  01A9               	clrf	??_MAX30102_check+5
  7317     0641  01AA               	clrf	??_MAX30102_check+6
  7318     0642  01AB               	clrf	??_MAX30102_check+7
  7319     0643  3008               	movlw	8
  7320     0644                     u2445:
  7321     0644  35A8               	lslf	??_MAX30102_check+4,f
  7322     0645  0DA9               	rlf	??_MAX30102_check+5,f
  7323     0646  0DAA               	rlf	??_MAX30102_check+6,f
  7324     0647  0DAB               	rlf	??_MAX30102_check+7,f
  7325     0648                     u2440:
  7326     0648  0B89               	decfsz	9,f
  7327     0649  2E44               	goto	u2445
  7328     064A  0835               	movf	MAX30102_check@buf+3,w
  7329     064B  3903               	andlw	3
  7330     064C  00AC               	movwf	??_MAX30102_check+8
  7331     064D  01AD               	clrf	??_MAX30102_check+9
  7332     064E  01AE               	clrf	??_MAX30102_check+10
  7333     064F  01AF               	clrf	??_MAX30102_check+11
  7334     0650  3010               	movlw	16
  7335     0651                     u2455:
  7336     0651  35AC               	lslf	??_MAX30102_check+8,f
  7337     0652  0DAD               	rlf	??_MAX30102_check+9,f
  7338     0653  0DAE               	rlf	??_MAX30102_check+10,f
  7339     0654  0DAF               	rlf	??_MAX30102_check+11,f
  7340     0655                     u2450:
  7341     0655  0B89               	decfsz	9,f
  7342     0656  2E51               	goto	u2455
  7343     0657  082C               	movf	??_MAX30102_check+8,w
  7344     0658  04A8               	iorwf	??_MAX30102_check+4,f
  7345     0659  082D               	movf	??_MAX30102_check+9,w
  7346     065A  04A9               	iorwf	??_MAX30102_check+5,f
  7347     065B  082E               	movf	??_MAX30102_check+10,w
  7348     065C  04AA               	iorwf	??_MAX30102_check+6,f
  7349     065D  082F               	movf	??_MAX30102_check+11,w
  7350     065E  04AB               	iorwf	??_MAX30102_check+7,f
  7351     065F  0828               	movf	??_MAX30102_check+4,w
  7352     0660  04A4               	iorwf	??_MAX30102_check,f
  7353     0661  0829               	movf	??_MAX30102_check+5,w
  7354     0662  04A5               	iorwf	??_MAX30102_check+1,f
  7355     0663  082A               	movf	??_MAX30102_check+6,w
  7356     0664  04A6               	iorwf	??_MAX30102_check+2,f
  7357     0665  082B               	movf	??_MAX30102_check+7,w
  7358     0666  04A7               	iorwf	??_MAX30102_check+3,f
  7359     0667  083E               	movf	MAX30102_check@count,w
  7360     0668  00B0               	movwf	??_MAX30102_check+12
  7361     0669  3001               	movlw	1
  7362     066A                     u2465:
  7363     066A  35B0               	lslf	??_MAX30102_check+12,f
  7364     066B  3EFF               	addlw	-1
  7365     066C  1D03               	skipz
  7366     066D  2E6A               	goto	u2465
  7367     066E  3530               	lslf	??_MAX30102_check+12,w
  7368     066F  0722               	addwf	MAX30102_check@ir_buf,w
  7369     0670  00B1               	movwf	??_MAX30102_check+13
  7370     0671  0831               	movf	??_MAX30102_check+13,w
  7371     0672  0086               	movwf	6
  7372     0673  0187               	clrf	7
  7373     0674  0824               	movf	??_MAX30102_check,w
  7374     0675  3FC0               	movwi [0]fsr1
  7375     0676  0825               	movf	??_MAX30102_check+1,w
  7376     0677  3FC1               	movwi [1]fsr1
  7377     0678  0826               	movf	??_MAX30102_check+2,w
  7378     0679  3FC2               	movwi [2]fsr1
  7379     067A  0827               	movf	??_MAX30102_check+3,w
  7380     067B  3FC3               	movwi [3]fsr1
  7381     067C                     l2552:
  7382                           
  7383                           ;main.c: 313:         count++;
  7384     067C  3001               	movlw	1
  7385     067D  00A4               	movwf	??_MAX30102_check
  7386     067E  0824               	movf	??_MAX30102_check,w
  7387     067F  07BE               	addwf	MAX30102_check@count,f
  7388     0680                     l2554:
  7389                           
  7390                           ;main.c: 314:     }
  7391     0680  3001               	movlw	1
  7392     0681  00A4               	movwf	??_MAX30102_check
  7393     0682  0824               	movf	??_MAX30102_check,w
  7394     0683  07BB               	addwf	MAX30102_check@s,f
  7395     0684                     l2556:
  7396     0684  083C               	movf	MAX30102_check@to_read,w
  7397     0685  023B               	subwf	MAX30102_check@s,w
  7398     0686  1C03               	skipc
  7399     0687  2E89               	goto	u2471
  7400     0688  2E8A               	goto	u2470
  7401     0689                     u2471:
  7402     0689  2DE5               	goto	l2546
  7403     068A                     u2470:
  7404     068A                     l2558:
  7405                           
  7406                           ;main.c: 315:     return count;
  7407     068A  0020               	movlb	0	; select bank0
  7408     068B  083E               	movf	MAX30102_check@count,w
  7409     068C                     l285:
  7410     068C  0008               	return
  7411     068D                     __end_of_MAX30102_check:
  7412                           
  7413                           	psect	text23
  7414     0CFC                     __ptext23:	
  7415 ;; *************** function _MAX30102_Init *****************
  7416 ;; Defined at:
  7417 ;;		line 223 in file "main.c"
  7418 ;; Parameters:    Size  Location     Type
  7419 ;;		None
  7420 ;; Auto vars:     Size  Location     Type
  7421 ;;		None
  7422 ;; Return value:  Size  Location     Type
  7423 ;;                  1    wreg      _Bool 
  7424 ;; Registers used:
  7425 ;;		wreg, fsr1l, fsr1h, status,2, status,0, pclath, cstack
  7426 ;; Tracked objects:
  7427 ;;		On entry : 0/0
  7428 ;;		On exit  : 0/0
  7429 ;;		Unchanged: 0/0
  7430 ;; Data sizes:     COMMON   BANK0   BANK1   BANK2   BANK3   BANK4   BANK5   BANK6   BANK7   BANK8   BANK9  BANK10  BANK1
      +1  BANK12  BANK13  BANK14  BANK15  BANK16  BANK17  BANK18  BANK19  BANK20  BANK21  BANK22  BANK23  BANK24  BANK25
  7431 ;;      Params:         0       0       0       0       0       0       0       0       0       0       0       0       
      +0       0       0       0       0       0       0       0       0       0       0       0       0       0       0
  7432 ;;      Locals:         0       0       0       0       0       0       0       0       0       0       0       0       
      +0       0       0       0       0       0       0       0       0       0       0       0       0       0       0
  7433 ;;      Temps:          0       0       0       0       0       0       0       0       0       0       0       0       
      +0       0       0       0       0       0       0       0       0       0       0       0       0       0       0
  7434 ;;      Totals:         0       0       0       0       0       0       0       0       0       0       0       0       
      +0       0       0       0       0       0       0       0       0       0       0       0       0       0       0
  7435 ;;Total ram usage:        0 bytes
  7436 ;; Hardware stack levels used: 1
  7437 ;; Hardware stack levels required when called: 7
  7438 ;; This function calls:
  7439 ;;		_MAX30102_clearFIFO
  7440 ;;		_MAX30102_softReset
  7441 ;;		_bitMask
  7442 ;;		_readRegister8
  7443 ;;		_writeRegister8
  7444 ;; This function is called by:
  7445 ;;		_main
  7446 ;; This function uses a non-reentrant model
  7447 ;;
  7448                           
  7449     0CFC                     _MAX30102_Init:	
  7450                           ;psect for function _MAX30102_Init
  7451                           
  7452     0CFC                     l2514:	
  7453                           ;incstack = 0
  7454                           ; Regs used in _MAX30102_Init: [wreg+fsr1l+fsr1h+status,2+status,0+pclath+cstack]
  7455                           
  7456                           
  7457                           ;main.c: 226:     if (readRegister8(0xFF) != 0x15)
  7458     0CFC  30FF               	movlw	255
  7459     0CFD  3188  201D  318C   	fcall	_readRegister8
  7460     0D00  3A15               	xorlw	21
  7461     0D01  1903               	skipnz
  7462     0D02  2D04               	goto	u2361
  7463     0D03  2D05               	goto	u2360
  7464     0D04                     u2361:
  7465     0D04  2D07               	goto	l2520
  7466     0D05                     u2360:
  7467     0D05                     l2516:
  7468                           
  7469                           ;main.c: 227:         return 0;
  7470     0D05  3000               	movlw	0
  7471     0D06  2D62               	goto	l280
  7472     0D07                     l2520:
  7473                           
  7474                           ;main.c: 232:     MAX30102_softReset();
  7475     0D07  318A  22CD  318C   	fcall	_MAX30102_softReset
  7476                           
  7477                           ;main.c: 238:     bitMask(0x08, ((uint8_t)~0xE0), 0x40);
  7478     0D0A  301F               	movlw	31
  7479     0D0B  0020               	movlb	0	; select bank0
  7480     0D0C  00A2               	movwf	bitMask@mask
  7481     0D0D  3040               	movlw	64
  7482     0D0E  00A3               	movwf	bitMask@thing
  7483     0D0F  3008               	movlw	8
  7484     0D10  3188  202D  318C   	fcall	_bitMask
  7485                           
  7486                           ;main.c: 239:     bitMask(0x08, 0xEF, 0x10);
  7487     0D13  30EF               	movlw	239
  7488     0D14  0020               	movlb	0	; select bank0
  7489     0D15  00A2               	movwf	bitMask@mask
  7490     0D16  3010               	movlw	16
  7491     0D17  00A3               	movwf	bitMask@thing
  7492     0D18  3008               	movlw	8
  7493     0D19  3188  202D  318C   	fcall	_bitMask
  7494                           
  7495                           ;main.c: 244:     bitMask(0x09, 0xF8, 0x03);
  7496     0D1C  30F8               	movlw	248
  7497     0D1D  0020               	movlb	0	; select bank0
  7498     0D1E  00A2               	movwf	bitMask@mask
  7499     0D1F  3003               	movlw	3
  7500     0D20  00A3               	movwf	bitMask@thing
  7501     0D21  3009               	movlw	9
  7502     0D22  3188  202D  318C   	fcall	_bitMask
  7503                           
  7504                           ;main.c: 252:     bitMask(0x0A, 0x9F, 0x20);
  7505     0D25  309F               	movlw	159
  7506     0D26  0020               	movlb	0	; select bank0
  7507     0D27  00A2               	movwf	bitMask@mask
  7508     0D28  3020               	movlw	32
  7509     0D29  00A3               	movwf	bitMask@thing
  7510     0D2A  300A               	movlw	10
  7511     0D2B  3188  202D  318C   	fcall	_bitMask
  7512                           
  7513                           ;main.c: 253:     bitMask(0x0A, 0xE3, 0x04);
  7514     0D2E  30E3               	movlw	227
  7515     0D2F  0020               	movlb	0	; select bank0
  7516     0D30  00A2               	movwf	bitMask@mask
  7517     0D31  3004               	movlw	4
  7518     0D32  00A3               	movwf	bitMask@thing
  7519     0D33  300A               	movlw	10
  7520     0D34  3188  202D  318C   	fcall	_bitMask
  7521                           
  7522                           ;main.c: 254:     bitMask(0x0A, 0xFC, 0x03);
  7523     0D37  30FC               	movlw	252
  7524     0D38  0020               	movlb	0	; select bank0
  7525     0D39  00A2               	movwf	bitMask@mask
  7526     0D3A  3003               	movlw	3
  7527     0D3B  00A3               	movwf	bitMask@thing
  7528     0D3C  300A               	movlw	10
  7529     0D3D  3188  202D  318C   	fcall	_bitMask
  7530                           
  7531                           ;main.c: 260:     writeRegister8(0x0C, 0x24);
  7532     0D40  3024               	movlw	36
  7533     0D41  00FB               	movwf	writeRegister8@value
  7534     0D42  300C               	movlw	12
  7535     0D43  3197  27E5  318C   	fcall	_writeRegister8
  7536                           
  7537                           ;main.c: 261:     writeRegister8(0x0D, 0x24);
  7538     0D46  3024               	movlw	36
  7539     0D47  00FB               	movwf	writeRegister8@value
  7540     0D48  300D               	movlw	13
  7541     0D49  3197  27E5  318C   	fcall	_writeRegister8
  7542                           
  7543                           ;main.c: 267:     bitMask(0x11, 0xF8, 0x01);
  7544     0D4C  30F8               	movlw	248
  7545     0D4D  0020               	movlb	0	; select bank0
  7546     0D4E  00A2               	movwf	bitMask@mask
  7547     0D4F  01A3               	clrf	bitMask@thing
  7548     0D50  0AA3               	incf	bitMask@thing,f
  7549     0D51  3011               	movlw	17
  7550     0D52  3188  202D  318C   	fcall	_bitMask
  7551                           
  7552                           ;main.c: 268:     bitMask(0x11, 0x8F, (uint8_t)(0x02 << 4));
  7553     0D55  308F               	movlw	143
  7554     0D56  0020               	movlb	0	; select bank0
  7555     0D57  00A2               	movwf	bitMask@mask
  7556     0D58  3020               	movlw	32
  7557     0D59  00A3               	movwf	bitMask@thing
  7558     0D5A  3011               	movlw	17
  7559     0D5B  3188  202D  318C   	fcall	_bitMask
  7560                           
  7561                           ;main.c: 271:     MAX30102_clearFIFO();
  7562     0D5E  3188  200D  318C   	fcall	_MAX30102_clearFIFO
  7563     0D61                     l2522:
  7564                           
  7565                           ;main.c: 273:     return 1;
  7566     0D61  3001               	movlw	1
  7567     0D62                     l280:
  7568     0D62  0008               	return
  7569     0D63                     __end_of_MAX30102_Init:
  7570                           
  7571                           	psect	text24
  7572     0ACD                     __ptext24:	
  7573 ;; *************** function _MAX30102_softReset *****************
  7574 ;; Defined at:
  7575 ;;		line 202 in file "main.c"
  7576 ;; Parameters:    Size  Location     Type
  7577 ;;		None
  7578 ;; Auto vars:     Size  Location     Type
  7579 ;;  resp            1   14[BANK0 ] unsigned char 
  7580 ;;  start           4   10[BANK0 ] unsigned long 
  7581 ;; Return value:  Size  Location     Type
  7582 ;;                  1    wreg      void 
  7583 ;; Registers used:
  7584 ;;		wreg, fsr1l, fsr1h, status,2, status,0, pclath, cstack
  7585 ;; Tracked objects:
  7586 ;;		On entry : 0/0
  7587 ;;		On exit  : 0/0
  7588 ;;		Unchanged: 0/0
  7589 ;; Data sizes:     COMMON   BANK0   BANK1   BANK2   BANK3   BANK4   BANK5   BANK6   BANK7   BANK8   BANK9  BANK10  BANK1
      +1  BANK12  BANK13  BANK14  BANK15  BANK16  BANK17  BANK18  BANK19  BANK20  BANK21  BANK22  BANK23  BANK24  BANK25
  7590 ;;      Params:         0       0       0       0       0       0       0       0       0       0       0       0       
      +0       0       0       0       0       0       0       0       0       0       0       0       0       0       0
  7591 ;;      Locals:         0       5       0       0       0       0       0       0       0       0       0       0       
      +0       0       0       0       0       0       0       0       0       0       0       0       0       0       0
  7592 ;;      Temps:          0       4       0       0       0       0       0       0       0       0       0       0       
      +0       0       0       0       0       0       0       0       0       0       0       0       0       0       0
  7593 ;;      Totals:         0       9       0       0       0       0       0       0       0       0       0       0       
      +0       0       0       0       0       0       0       0       0       0       0       0       0       0       0
  7594 ;;Total ram usage:        9 bytes
  7595 ;; Hardware stack levels used: 1
  7596 ;; Hardware stack levels required when called: 6
  7597 ;; This function calls:
  7598 ;;		_bitMask
  7599 ;;		_millis
  7600 ;;		_readRegister8
  7601 ;; This function is called by:
  7602 ;;		_MAX30102_Init
  7603 ;; This function uses a non-reentrant model
  7604 ;;
  7605                           
  7606     0ACD                     _MAX30102_softReset:	
  7607                           ;psect for function _MAX30102_softReset
  7608                           
  7609     0ACD                     l2358:	
  7610                           ;incstack = 0
  7611                           ; Regs used in _MAX30102_softReset: [wreg+fsr1l+fsr1h+status,2+status,0+pclath+cstack]
  7612                           
  7613                           
  7614                           ;main.c: 204:     bitMask(0x09, 0xBF, 0x40);
  7615     0ACD  30BF               	movlw	191
  7616     0ACE  0020               	movlb	0	; select bank0
  7617     0ACF  00A2               	movwf	bitMask@mask
  7618     0AD0  3040               	movlw	64
  7619     0AD1  00A3               	movwf	bitMask@thing
  7620     0AD2  3009               	movlw	9
  7621     0AD3  3188  202D  318A   	fcall	_bitMask
  7622     0AD6                     l2360:
  7623                           
  7624                           ;main.c: 207:     uint32_t start = millis();
  7625     0AD6  3188  2054  318A   	fcall	_millis
  7626     0AD9  0873               	movf	?_millis+3,w
  7627     0ADA  0020               	movlb	0	; select bank0
  7628     0ADB  00AD               	movwf	MAX30102_softReset@start+3
  7629     0ADC  0872               	movf	?_millis+2,w
  7630     0ADD  00AC               	movwf	MAX30102_softReset@start+2
  7631     0ADE  0871               	movf	?_millis+1,w
  7632     0ADF  00AB               	movwf	MAX30102_softReset@start+1
  7633     0AE0  0870               	movf	?_millis,w
  7634     0AE1  00AA               	movwf	MAX30102_softReset@start
  7635                           
  7636                           ;main.c: 208:     while ((millis() - start) < 100)
  7637     0AE2  2AF7               	goto	l2370
  7638     0AE3                     l2362:
  7639                           
  7640                           ;main.c: 209:     {;main.c: 210:         uint8_t resp = readRegister8(0x09);
  7641     0AE3  3009               	movlw	9
  7642     0AE4  3188  201D  318A   	fcall	_readRegister8
  7643     0AE7  0020               	movlb	0	; select bank0
  7644     0AE8  00AE               	movwf	MAX30102_softReset@resp
  7645     0AE9                     l2364:
  7646                           
  7647                           ;main.c: 211:         if ((resp & 0x40) == 0) break;
  7648     0AE9  1B2E               	btfsc	MAX30102_softReset@resp,6
  7649     0AEA  2AEC               	goto	u2141
  7650     0AEB  2AED               	goto	u2140
  7651     0AEC                     u2141:
  7652     0AEC  2AEE               	goto	l2368
  7653     0AED                     u2140:
  7654     0AED  2B16               	goto	l273
  7655     0AEE                     l2368:
  7656                           
  7657                           ;main.c: 212:         _delay((unsigned long)((1)*(32000000/4000.0)));
  7658     0AEE  300B               	movlw	11
  7659     0AEF  0020               	movlb	0	; select bank0
  7660     0AF0  00A6               	movwf	??_MAX30102_softReset
  7661     0AF1  3062               	movlw	98
  7662     0AF2                     u3177:
  7663     0AF2  0B89               	decfsz	9,f
  7664     0AF3  2AF2               	goto	u3177
  7665     0AF4  0BA6               	decfsz	??_MAX30102_softReset,f
  7666     0AF5  2AF2               	goto	u3177
  7667     0AF6  0000               	nop
  7668     0AF7                     l2370:
  7669                           
  7670                           ;main.c: 208:     while ((millis() - start) < 100)
  7671     0AF7  3188  2054  318A   	fcall	_millis
  7672     0AFA  0020               	movlb	0	; select bank0
  7673     0AFB  082A               	movf	MAX30102_softReset@start,w
  7674     0AFC  0270               	subwf	?_millis,w
  7675     0AFD  00A6               	movwf	??_MAX30102_softReset
  7676     0AFE  082B               	movf	MAX30102_softReset@start+1,w
  7677     0AFF  3B71               	subwfb	?_millis+1,w
  7678     0B00  00A7               	movwf	??_MAX30102_softReset+1
  7679     0B01  082C               	movf	MAX30102_softReset@start+2,w
  7680     0B02  3B72               	subwfb	?_millis+2,w
  7681     0B03  00A8               	movwf	??_MAX30102_softReset+2
  7682     0B04  082D               	movf	MAX30102_softReset@start+3,w
  7683     0B05  3B73               	subwfb	?_millis+3,w
  7684     0B06  00A9               	movwf	??_MAX30102_softReset+3
  7685     0B07  0829               	movf	??_MAX30102_softReset+3,w
  7686     0B08  1D03               	btfss	3,2
  7687     0B09  2B16               	goto	u2150
  7688     0B0A  0828               	movf	??_MAX30102_softReset+2,w
  7689     0B0B  1D03               	btfss	3,2
  7690     0B0C  2B16               	goto	u2150
  7691     0B0D  0827               	movf	??_MAX30102_softReset+1,w
  7692     0B0E  1D03               	btfss	3,2
  7693     0B0F  2B16               	goto	u2150
  7694     0B10  3064               	movlw	100
  7695     0B11  0226               	subwf	??_MAX30102_softReset,w
  7696     0B12  1C03               	btfss	3,0
  7697     0B13  2B15               	goto	u2151
  7698     0B14  2B16               	goto	u2150
  7699     0B15                     u2151:
  7700     0B15  2AE3               	goto	l2362
  7701     0B16                     u2150:
  7702     0B16                     l273:
  7703     0B16  0008               	return
  7704     0B17                     __end_of_MAX30102_softReset:
  7705                           
  7706                           	psect	text25
  7707     0854                     __ptext25:	
  7708 ;; *************** function _millis *****************
  7709 ;; Defined at:
  7710 ;;		line 130 in file "main.c"
  7711 ;; Parameters:    Size  Location     Type
  7712 ;;		None
  7713 ;; Auto vars:     Size  Location     Type
  7714 ;;  val             4    4[COMMON] unsigned long 
  7715 ;; Return value:  Size  Location     Type
  7716 ;;                  4    0[COMMON] unsigned long 
  7717 ;; Registers used:
  7718 ;;		wreg
  7719 ;; Tracked objects:
  7720 ;;		On entry : 0/0
  7721 ;;		On exit  : 0/0
  7722 ;;		Unchanged: 0/0
  7723 ;; Data sizes:     COMMON   BANK0   BANK1   BANK2   BANK3   BANK4   BANK5   BANK6   BANK7   BANK8   BANK9  BANK10  BANK1
      +1  BANK12  BANK13  BANK14  BANK15  BANK16  BANK17  BANK18  BANK19  BANK20  BANK21  BANK22  BANK23  BANK24  BANK25
  7724 ;;      Params:         4       0       0       0       0       0       0       0       0       0       0       0       
      +0       0       0       0       0       0       0       0       0       0       0       0       0       0       0
  7725 ;;      Locals:         4       0       0       0       0       0       0       0       0       0       0       0       
      +0       0       0       0       0       0       0       0       0       0       0       0       0       0       0
  7726 ;;      Temps:          0       0       0       0       0       0       0       0       0       0       0       0       
      +0       0       0       0       0       0       0       0       0       0       0       0       0       0       0
  7727 ;;      Totals:         8       0       0       0       0       0       0       0       0       0       0       0       
      +0       0       0       0       0       0       0       0       0       0       0       0       0       0       0
  7728 ;;Total ram usage:        8 bytes
  7729 ;; Hardware stack levels used: 1
  7730 ;; Hardware stack levels required when called: 1
  7731 ;; This function calls:
  7732 ;;		Nothing
  7733 ;; This function is called by:
  7734 ;;		_MAX30102_softReset
  7735 ;;		_main
  7736 ;; This function uses a non-reentrant model
  7737 ;;
  7738                           
  7739     0854                     _millis:	
  7740                           ;psect for function _millis
  7741                           
  7742     0854                     l2292:	
  7743                           ;incstack = 0
  7744                           ; Regs used in _millis: [wreg]
  7745                           
  7746                           
  7747                           ;main.c: 132:     uint32_t val;;main.c: 133:     INTCONbits.GIE = 0;
  7748     0854  138B               	bcf	11,7	;volatile
  7749     0855                     l2294:
  7750                           
  7751                           ;main.c: 134:     val = millis_counter;
  7752     0855  0022               	movlb	2	; select bank2
  7753     0856  084D               	movf	(_millis_counter+3)^(0+256),w	;volatile
  7754     0857  00F7               	movwf	millis@val+3
  7755     0858  084C               	movf	(_millis_counter+2)^(0+256),w	;volatile
  7756     0859  00F6               	movwf	millis@val+2
  7757     085A  084B               	movf	(_millis_counter+1)^(0+256),w	;volatile
  7758     085B  00F5               	movwf	millis@val+1
  7759     085C  084A               	movf	_millis_counter^(0+256),w	;volatile
  7760     085D  00F4               	movwf	millis@val
  7761     085E                     l2296:
  7762                           
  7763                           ;main.c: 135:     INTCONbits.GIE = 1;
  7764     085E  178B               	bsf	11,7	;volatile
  7765                           
  7766                           ;main.c: 136:     return val;
  7767     085F  0877               	movf	millis@val+3,w
  7768     0860  00F3               	movwf	?_millis+3
  7769     0861  0876               	movf	millis@val+2,w
  7770     0862  00F2               	movwf	?_millis+2
  7771     0863  0875               	movf	millis@val+1,w
  7772     0864  00F1               	movwf	?_millis+1
  7773     0865  0874               	movf	millis@val,w
  7774     0866  00F0               	movwf	?_millis
  7775     0867                     l235:
  7776     0867  0008               	return
  7777     0868                     __end_of_millis:
  7778                           
  7779                           	psect	text26
  7780     082D                     __ptext26:	
  7781 ;; *************** function _bitMask *****************
  7782 ;; Defined at:
  7783 ;;		line 191 in file "main.c"
  7784 ;; Parameters:    Size  Location     Type
  7785 ;;  reg             1    wreg     unsigned char 
  7786 ;;  mask            1    2[BANK0 ] unsigned char 
  7787 ;;  thing           1    3[BANK0 ] unsigned char 
  7788 ;; Auto vars:     Size  Location     Type
  7789 ;;  reg             1    4[BANK0 ] unsigned char 
  7790 ;;  original        1    5[BANK0 ] unsigned char 
  7791 ;; Return value:  Size  Location     Type
  7792 ;;                  1    wreg      void 
  7793 ;; Registers used:
  7794 ;;		wreg, fsr1l, fsr1h, status,2, status,0, pclath, cstack
  7795 ;; Tracked objects:
  7796 ;;		On entry : 0/0
  7797 ;;		On exit  : 0/0
  7798 ;;		Unchanged: 0/0
  7799 ;; Data sizes:     COMMON   BANK0   BANK1   BANK2   BANK3   BANK4   BANK5   BANK6   BANK7   BANK8   BANK9  BANK10  BANK1
      +1  BANK12  BANK13  BANK14  BANK15  BANK16  BANK17  BANK18  BANK19  BANK20  BANK21  BANK22  BANK23  BANK24  BANK25
  7800 ;;      Params:         0       2       0       0       0       0       0       0       0       0       0       0       
      +0       0       0       0       0       0       0       0       0       0       0       0       0       0       0
  7801 ;;      Locals:         0       2       0       0       0       0       0       0       0       0       0       0       
      +0       0       0       0       0       0       0       0       0       0       0       0       0       0       0
  7802 ;;      Temps:          0       0       0       0       0       0       0       0       0       0       0       0       
      +0       0       0       0       0       0       0       0       0       0       0       0       0       0       0
  7803 ;;      Totals:         0       4       0       0       0       0       0       0       0       0       0       0       
      +0       0       0       0       0       0       0       0       0       0       0       0       0       0       0
  7804 ;;Total ram usage:        4 bytes
  7805 ;; Hardware stack levels used: 1
  7806 ;; Hardware stack levels required when called: 5
  7807 ;; This function calls:
  7808 ;;		_readRegister8
  7809 ;;		_writeRegister8
  7810 ;; This function is called by:
  7811 ;;		_MAX30102_softReset
  7812 ;;		_MAX30102_Init
  7813 ;; This function uses a non-reentrant model
  7814 ;;
  7815                           
  7816     082D                     _bitMask:	
  7817                           ;psect for function _bitMask
  7818                           
  7819                           
  7820                           ;incstack = 0
  7821                           ; Regs used in _bitMask: [wreg+fsr1l+fsr1h+status,2+status,0+pclath+cstack]
  7822                           ;bitMask@reg stored from wreg
  7823     082D  0020               	movlb	0	; select bank0
  7824     082E  00A4               	movwf	bitMask@reg
  7825     082F                     l2300:
  7826                           
  7827                           ;main.c: 191: static void bitMask(uint8_t reg, uint8_t mask, uint8_t thing);main.c: 192:
      +                           {;main.c: 193:     uint8_t original = readRegister8(reg);
  7828     082F  0824               	movf	bitMask@reg,w
  7829     0830  3188  201D  3188   	fcall	_readRegister8
  7830     0833  0020               	movlb	0	; select bank0
  7831     0834  00A5               	movwf	bitMask@original
  7832     0835                     l2302:
  7833                           
  7834                           ;main.c: 194:     original = original & mask;
  7835     0835  0825               	movf	bitMask@original,w
  7836     0836  0522               	andwf	bitMask@mask,w
  7837     0837  00A5               	movwf	bitMask@original
  7838     0838                     l2304:
  7839                           
  7840                           ;main.c: 195:     writeRegister8(reg, original | thing);
  7841     0838  0825               	movf	bitMask@original,w
  7842     0839  0423               	iorwf	bitMask@thing,w
  7843     083A  00FB               	movwf	writeRegister8@value
  7844     083B  0824               	movf	bitMask@reg,w
  7845     083C  3197  27E5  3188   	fcall	_writeRegister8
  7846     083F                     l266:
  7847     083F  0008               	return
  7848     0840                     __end_of_bitMask:
  7849                           
  7850                           	psect	text27
  7851     081D                     __ptext27:	
  7852 ;; *************** function _readRegister8 *****************
  7853 ;; Defined at:
  7854 ;;		line 178 in file "main.c"
  7855 ;; Parameters:    Size  Location     Type
  7856 ;;  reg             1    wreg     unsigned char 
  7857 ;; Auto vars:     Size  Location     Type
  7858 ;;  reg             1    0[BANK0 ] unsigned char 
  7859 ;;  val             1    1[BANK0 ] unsigned char 
  7860 ;; Return value:  Size  Location     Type
  7861 ;;                  1    wreg      unsigned char 
  7862 ;; Registers used:
  7863 ;;		wreg, fsr1l, fsr1h, status,2, status,0, pclath, cstack
  7864 ;; Tracked objects:
  7865 ;;		On entry : 0/0
  7866 ;;		On exit  : 0/0
  7867 ;;		Unchanged: 0/0
  7868 ;; Data sizes:     COMMON   BANK0   BANK1   BANK2   BANK3   BANK4   BANK5   BANK6   BANK7   BANK8   BANK9  BANK10  BANK1
      +1  BANK12  BANK13  BANK14  BANK15  BANK16  BANK17  BANK18  BANK19  BANK20  BANK21  BANK22  BANK23  BANK24  BANK25
  7869 ;;      Params:         0       0       0       0       0       0       0       0       0       0       0       0       
      +0       0       0       0       0       0       0       0       0       0       0       0       0       0       0
  7870 ;;      Locals:         0       2       0       0       0       0       0       0       0       0       0       0       
      +0       0       0       0       0       0       0       0       0       0       0       0       0       0       0
  7871 ;;      Temps:          0       0       0       0       0       0       0       0       0       0       0       0       
      +0       0       0       0       0       0       0       0       0       0       0       0       0       0       0
  7872 ;;      Totals:         0       2       0       0       0       0       0       0       0       0       0       0       
      +0       0       0       0       0       0       0       0       0       0       0       0       0       0       0
  7873 ;;Total ram usage:        2 bytes
  7874 ;; Hardware stack levels used: 1
  7875 ;; Hardware stack levels required when called: 4
  7876 ;; This function calls:
  7877 ;;		_i2c_read_bytes
  7878 ;; This function is called by:
  7879 ;;		_bitMask
  7880 ;;		_MAX30102_softReset
  7881 ;;		_MAX30102_Init
  7882 ;;		_MAX30102_check
  7883 ;; This function uses a non-reentrant model
  7884 ;;
  7885                           
  7886     081D                     _readRegister8:	
  7887                           ;psect for function _readRegister8
  7888                           
  7889                           
  7890                           ;incstack = 0
  7891                           ; Regs used in _readRegister8: [wreg+fsr1l+fsr1h+status,2+status,0+pclath+cstack]
  7892                           ;readRegister8@reg stored from wreg
  7893     081D  0020               	movlb	0	; select bank0
  7894     081E  00A0               	movwf	readRegister8@reg
  7895     081F                     l2260:
  7896                           
  7897                           ;main.c: 178: static uint8_t readRegister8(uint8_t reg);main.c: 179: {;main.c: 180:     
      +                          uint8_t val = 0;
  7898     081F  01A1               	clrf	readRegister8@val
  7899     0820                     l2262:
  7900                           
  7901                           ;main.c: 181:     i2c_read_bytes(0x57, reg, &val, 1);
  7902     0820  0820               	movf	readRegister8@reg,w
  7903     0821  00F6               	movwf	i2c_read_bytes@reg
  7904     0822  3021               	movlw	(low (readRegister8@val| 0))& (0+255)
  7905     0823  00F7               	movwf	i2c_read_bytes@dst
  7906     0824  01F8               	clrf	i2c_read_bytes@len
  7907     0825  0AF8               	incf	i2c_read_bytes@len,f
  7908     0826  3057               	movlw	87
  7909     0827  318D  25D4  3188   	fcall	_i2c_read_bytes
  7910     082A                     l2264:
  7911                           
  7912                           ;main.c: 182:     return val;
  7913     082A  0020               	movlb	0	; select bank0
  7914     082B  0821               	movf	readRegister8@val,w
  7915     082C                     l260:
  7916     082C  0008               	return
  7917     082D                     __end_of_readRegister8:
  7918                           
  7919                           	psect	text28
  7920     0DD4                     __ptext28:	
  7921 ;; *************** function _i2c_read_bytes *****************
  7922 ;; Defined at:
  7923 ;;		line 157 in file "main.c"
  7924 ;; Parameters:    Size  Location     Type
  7925 ;;  addr7           1    wreg     unsigned char 
  7926 ;;  reg             1    6[COMMON] unsigned char 
  7927 ;;  dst             1    7[COMMON] PTR unsigned char 
  7928 ;;		 -> MAX30102_check@buf(6), readRegister8@val(1), 
  7929 ;;  len             1    8[COMMON] unsigned char 
  7930 ;; Auto vars:     Size  Location     Type
  7931 ;;  addr7           1   12[COMMON] unsigned char 
  7932 ;;  ack             1   11[COMMON] _Bool 
  7933 ;;  i               1   13[COMMON] unsigned char 
  7934 ;; Return value:  Size  Location     Type
  7935 ;;                  1    wreg      unsigned char 
  7936 ;; Registers used:
  7937 ;;		wreg, fsr1l, fsr1h, status,2, status,0, pclath, cstack
  7938 ;; Tracked objects:
  7939 ;;		On entry : 0/0
  7940 ;;		On exit  : 0/0
  7941 ;;		Unchanged: 0/0
  7942 ;; Data sizes:     COMMON   BANK0   BANK1   BANK2   BANK3   BANK4   BANK5   BANK6   BANK7   BANK8   BANK9  BANK10  BANK1
      +1  BANK12  BANK13  BANK14  BANK15  BANK16  BANK17  BANK18  BANK19  BANK20  BANK21  BANK22  BANK23  BANK24  BANK25
  7943 ;;      Params:         3       0       0       0       0       0       0       0       0       0       0       0       
      +0       0       0       0       0       0       0       0       0       0       0       0       0       0       0
  7944 ;;      Locals:         3       0       0       0       0       0       0       0       0       0       0       0       
      +0       0       0       0       0       0       0       0       0       0       0       0       0       0       0
  7945 ;;      Temps:          2       0       0       0       0       0       0       0       0       0       0       0       
      +0       0       0       0       0       0       0       0       0       0       0       0       0       0       0
  7946 ;;      Totals:         8       0       0       0       0       0       0       0       0       0       0       0       
      +0       0       0       0       0       0       0       0       0       0       0       0       0       0       0
  7947 ;;Total ram usage:        8 bytes
  7948 ;; Hardware stack levels used: 1
  7949 ;; Hardware stack levels required when called: 3
  7950 ;; This function calls:
  7951 ;;		_I2C_ReadByte
  7952 ;;		_I2C_RepeatedStart
  7953 ;;		_I2C_Start
  7954 ;;		_I2C_Stop
  7955 ;;		_I2C_WriteByte
  7956 ;; This function is called by:
  7957 ;;		_readRegister8
  7958 ;;		_MAX30102_check
  7959 ;; This function uses a non-reentrant model
  7960 ;;
  7961                           
  7962     0DD4                     _i2c_read_bytes:	
  7963                           ;psect for function _i2c_read_bytes
  7964                           
  7965                           
  7966                           ;incstack = 0
  7967                           ; Regs used in _i2c_read_bytes: [wreg+fsr1l+fsr1h+status,2+status,0+pclath+cstack]
  7968                           ;i2c_read_bytes@addr7 stored from wreg
  7969     0DD4  00FC               	movwf	i2c_read_bytes@addr7
  7970     0DD5                     l2196:
  7971                           
  7972                           ;main.c: 157: static uint8_t i2c_read_bytes(uint8_t addr7, uint8_t reg,;main.c: 158:    
      +                                                      uint8_t *dst, uint8_t len);main.c: 159: {;main.c: 160:     i
      +                          f (I2C_Start() != I2C_OK) return 1;
  7973     0DD5  3189  210A  318D   	fcall	_I2C_Start
  7974     0DD8  3A00               	xorlw	0
  7975     0DD9  1903               	skipnz
  7976     0DDA  2DDC               	goto	u1861
  7977     0DDB  2DDD               	goto	u1860
  7978     0DDC                     u1861:
  7979     0DDC  2DDF               	goto	l2202
  7980     0DDD                     u1860:
  7981     0DDD                     l2198:
  7982     0DDD  3001               	movlw	1
  7983     0DDE  2E4D               	goto	l249
  7984     0DDF                     l2202:
  7985                           
  7986                           ;main.c: 161:     if (I2C_WriteByte(addr7 << 1) != I2C_OK) { I2C_Stop(); return 2; }
  7987     0DDF  357C               	lslf	i2c_read_bytes@addr7,w
  7988     0DE0  3189  217F  318D   	fcall	_I2C_WriteByte
  7989     0DE3  3A00               	xorlw	0
  7990     0DE4  1903               	skipnz
  7991     0DE5  2DE7               	goto	u1871
  7992     0DE6  2DE8               	goto	u1870
  7993     0DE7                     u1871:
  7994     0DE7  2DED               	goto	l2210
  7995     0DE8                     u1870:
  7996     0DE8                     l2204:
  7997     0DE8  3188  20C3  318D   	fcall	_I2C_Stop
  7998     0DEB                     l2206:
  7999     0DEB  3002               	movlw	2
  8000     0DEC  2E4D               	goto	l249
  8001     0DED                     l2210:
  8002                           
  8003                           ;main.c: 162:     if (I2C_WriteByte(reg) != I2C_OK) { I2C_Stop(); return 3; }
  8004     0DED  0876               	movf	i2c_read_bytes@reg,w
  8005     0DEE  3189  217F  318D   	fcall	_I2C_WriteByte
  8006     0DF1  3A00               	xorlw	0
  8007     0DF2  1903               	skipnz
  8008     0DF3  2DF5               	goto	u1881
  8009     0DF4  2DF6               	goto	u1880
  8010     0DF5                     u1881:
  8011     0DF5  2DFB               	goto	l2218
  8012     0DF6                     u1880:
  8013     0DF6                     l2212:
  8014     0DF6  3188  20C3  318D   	fcall	_I2C_Stop
  8015     0DF9                     l2214:
  8016     0DF9  3003               	movlw	3
  8017     0DFA  2E4D               	goto	l249
  8018     0DFB                     l2218:
  8019                           
  8020                           ;main.c: 163:     if (I2C_RepeatedStart() != I2C_OK) { I2C_Stop(); return 4; }
  8021     0DFB  3189  212F  318D   	fcall	_I2C_RepeatedStart
  8022     0DFE  3A00               	xorlw	0
  8023     0DFF  1903               	skipnz
  8024     0E00  2E02               	goto	u1891
  8025     0E01  2E03               	goto	u1890
  8026     0E02                     u1891:
  8027     0E02  2E08               	goto	l2226
  8028     0E03                     u1890:
  8029     0E03                     l2220:
  8030     0E03  3188  20C3  318D   	fcall	_I2C_Stop
  8031     0E06                     l2222:
  8032     0E06  3004               	movlw	4
  8033     0E07  2E4D               	goto	l249
  8034     0E08                     l2226:
  8035                           
  8036                           ;main.c: 164:     if (I2C_WriteByte((addr7 << 1) | 1) != I2C_OK) { I2C_Stop(); return 5;
      +                           }
  8037     0E08  1403               	setc
  8038     0E09  0D7C               	rlf	i2c_read_bytes@addr7,w
  8039     0E0A  3189  217F  318D   	fcall	_I2C_WriteByte
  8040     0E0D  3A00               	xorlw	0
  8041     0E0E  1903               	skipnz
  8042     0E0F  2E11               	goto	u1901
  8043     0E10  2E12               	goto	u1900
  8044     0E11                     u1901:
  8045     0E11  2E17               	goto	l2234
  8046     0E12                     u1900:
  8047     0E12                     l2228:
  8048     0E12  3188  20C3  318D   	fcall	_I2C_Stop
  8049     0E15                     l2230:
  8050     0E15  3005               	movlw	5
  8051     0E16  2E4D               	goto	l249
  8052     0E17                     l2234:
  8053                           
  8054                           ;main.c: 165:     for (uint8_t i = 0; i < len; i++)
  8055     0E17  01FD               	clrf	i2c_read_bytes@i
  8056     0E18  2E43               	goto	l2248
  8057     0E19                     l2236:
  8058                           
  8059                           ;main.c: 166:     {;main.c: 167:         _Bool ack = (i < (len - 1));
  8060     0E19  0878               	movf	i2c_read_bytes@len,w
  8061     0E1A  3EFF               	addlw	255
  8062     0E1B  00F9               	movwf	??_i2c_read_bytes
  8063     0E1C  30FF               	movlw	255
  8064     0E1D  1803               	skipnc
  8065     0E1E  3000               	movlw	0
  8066     0E1F  00FA               	movwf	??_i2c_read_bytes+1
  8067     0E20  087A               	movf	??_i2c_read_bytes+1,w
  8068     0E21  3A80               	xorlw	128
  8069     0E22  3C80               	sublw	128
  8070     0E23  1D03               	skipz
  8071     0E24  2E27               	goto	u1915
  8072     0E25  0879               	movf	??_i2c_read_bytes,w
  8073     0E26  027D               	subwf	i2c_read_bytes@i,w
  8074     0E27                     u1915:
  8075     0E27  1C03               	skipc
  8076     0E28  2E2A               	goto	u1911
  8077     0E29  2E2C               	goto	u1910
  8078     0E2A                     u1911:
  8079     0E2A  3001               	movlw	1
  8080     0E2B  2E2D               	goto	u1920
  8081     0E2C                     u1910:
  8082     0E2C  3000               	movlw	0
  8083     0E2D                     u1920:
  8084     0E2D  00FB               	movwf	i2c_read_bytes@ack
  8085     0E2E                     l2238:
  8086                           
  8087                           ;main.c: 168:         if (I2C_ReadByte(&dst[i], ack) != I2C_OK) { I2C_Stop(); return 6; 
      +                          }
  8088     0E2E  087B               	movf	i2c_read_bytes@ack,w
  8089     0E2F  00F3               	movwf	I2C_ReadByte@ack
  8090     0E30  0877               	movf	i2c_read_bytes@dst,w
  8091     0E31  077D               	addwf	i2c_read_bytes@i,w
  8092     0E32  318B  2361  318D   	fcall	_I2C_ReadByte
  8093     0E35  3A00               	xorlw	0
  8094     0E36  1903               	skipnz
  8095     0E37  2E39               	goto	u1931
  8096     0E38  2E3A               	goto	u1930
  8097     0E39                     u1931:
  8098     0E39  2E3F               	goto	l2246
  8099     0E3A                     u1930:
  8100     0E3A                     l2240:
  8101     0E3A  3188  20C3  318D   	fcall	_I2C_Stop
  8102     0E3D                     l2242:
  8103     0E3D  3006               	movlw	6
  8104     0E3E  2E4D               	goto	l249
  8105     0E3F                     l2246:
  8106                           
  8107                           ;main.c: 169:     }
  8108     0E3F  3001               	movlw	1
  8109     0E40  00F9               	movwf	??_i2c_read_bytes
  8110     0E41  0879               	movf	??_i2c_read_bytes,w
  8111     0E42  07FD               	addwf	i2c_read_bytes@i,f
  8112     0E43                     l2248:
  8113     0E43  0878               	movf	i2c_read_bytes@len,w
  8114     0E44  027D               	subwf	i2c_read_bytes@i,w
  8115     0E45  1C03               	skipc
  8116     0E46  2E48               	goto	u1941
  8117     0E47  2E49               	goto	u1940
  8118     0E48                     u1941:
  8119     0E48  2E19               	goto	l2236
  8120     0E49                     u1940:
  8121     0E49                     l2250:
  8122                           
  8123                           ;main.c: 170:     I2C_Stop();
  8124     0E49  3188  20C3  318D   	fcall	_I2C_Stop
  8125     0E4C                     l2252:
  8126                           
  8127                           ;main.c: 171:     return 0;
  8128     0E4C  3000               	movlw	0
  8129     0E4D                     l249:
  8130     0E4D  0008               	return
  8131     0E4E                     __end_of_i2c_read_bytes:
  8132                           
  8133                           	psect	text29
  8134     092F                     __ptext29:	
  8135 ;; *************** function _I2C_RepeatedStart *****************
  8136 ;; Defined at:
  8137 ;;		line 118 in file "I2C.c"
  8138 ;; Parameters:    Size  Location     Type
  8139 ;;		None
  8140 ;; Auto vars:     Size  Location     Type
  8141 ;;  st              1    3[COMMON] enum E6036
  8142 ;; Return value:  Size  Location     Type
  8143 ;;                  1    wreg      enum E6036
  8144 ;; Registers used:
  8145 ;;		wreg, status,2, status,0, pclath, cstack
  8146 ;; Tracked objects:
  8147 ;;		On entry : 0/0
  8148 ;;		On exit  : 0/0
  8149 ;;		Unchanged: 0/0
  8150 ;; Data sizes:     COMMON   BANK0   BANK1   BANK2   BANK3   BANK4   BANK5   BANK6   BANK7   BANK8   BANK9  BANK10  BANK1
      +1  BANK12  BANK13  BANK14  BANK15  BANK16  BANK17  BANK18  BANK19  BANK20  BANK21  BANK22  BANK23  BANK24  BANK25
  8151 ;;      Params:         0       0       0       0       0       0       0       0       0       0       0       0       
      +0       0       0       0       0       0       0       0       0       0       0       0       0       0       0
  8152 ;;      Locals:         1       0       0       0       0       0       0       0       0       0       0       0       
      +0       0       0       0       0       0       0       0       0       0       0       0       0       0       0
  8153 ;;      Temps:          0       0       0       0       0       0       0       0       0       0       0       0       
      +0       0       0       0       0       0       0       0       0       0       0       0       0       0       0
  8154 ;;      Totals:         1       0       0       0       0       0       0       0       0       0       0       0       
      +0       0       0       0       0       0       0       0       0       0       0       0       0       0       0
  8155 ;;Total ram usage:        1 bytes
  8156 ;; Hardware stack levels used: 1
  8157 ;; Hardware stack levels required when called: 2
  8158 ;; This function calls:
  8159 ;;		_I2C_WaitIF
  8160 ;;		_I2C_WaitIdle
  8161 ;; This function is called by:
  8162 ;;		_i2c_read_bytes
  8163 ;; This function uses a non-reentrant model
  8164 ;;
  8165                           
  8166     092F                     _I2C_RepeatedStart:	
  8167                           ;psect for function _I2C_RepeatedStart
  8168                           
  8169     092F                     l2062:	
  8170                           ;incstack = 0
  8171                           ; Regs used in _I2C_RepeatedStart: [wreg+status,2+status,0+pclath+cstack]
  8172                           
  8173                           
  8174                           ;I2C.c: 120:     I2C_Status_t st;;I2C.c: 122:     st = I2C_WaitIdle(50);
  8175     092F  3032               	movlw	50
  8176     0930  00F0               	movwf	I2C_WaitIdle@timeout_ms
  8177     0931  3000               	movlw	0
  8178     0932  00F1               	movwf	I2C_WaitIdle@timeout_ms+1
  8179     0933  3188  20E6  3189   	fcall	_I2C_WaitIdle
  8180     0936  00F3               	movwf	I2C_RepeatedStart@st
  8181     0937                     l2064:
  8182                           
  8183                           ;I2C.c: 123:     if (st != I2C_OK) return st;
  8184     0937  0873               	movf	I2C_RepeatedStart@st,w
  8185     0938  1903               	btfsc	3,2
  8186     0939  293B               	goto	u1681
  8187     093A  293C               	goto	u1680
  8188     093B                     u1681:
  8189     093B  293E               	goto	l116
  8190     093C                     u1680:
  8191     093C                     l2066:
  8192     093C  0873               	movf	I2C_RepeatedStart@st,w
  8193     093D  2953               	goto	l117
  8194     093E                     l116:
  8195                           
  8196                           ;I2C.c: 125:     PIR1bits.SSP1IF = 0;
  8197     093E  0020               	movlb	0	; select bank0
  8198     093F  1191               	bcf	17,3	;volatile
  8199                           
  8200                           ;I2C.c: 126:     SSPCON2bits.RSEN = 1;
  8201     0940  0024               	movlb	4	; select bank4
  8202     0941  1496               	bsf	22,1	;volatile
  8203     0942                     l2070:
  8204                           
  8205                           ;I2C.c: 128:     st = I2C_WaitIF(50);
  8206     0942  3032               	movlw	50
  8207     0943  00F0               	movwf	I2C_WaitIF@timeout_ms
  8208     0944  3000               	movlw	0
  8209     0945  00F1               	movwf	I2C_WaitIF@timeout_ms+1
  8210     0946  3188  2085  3189   	fcall	_I2C_WaitIF
  8211     0949  00F3               	movwf	I2C_RepeatedStart@st
  8212     094A                     l2072:
  8213                           
  8214                           ;I2C.c: 129:     if (st != I2C_OK) return st;
  8215     094A  0873               	movf	I2C_RepeatedStart@st,w
  8216     094B  1903               	btfsc	3,2
  8217     094C  294E               	goto	u1691
  8218     094D  294F               	goto	u1690
  8219     094E                     u1691:
  8220     094E  2950               	goto	l118
  8221     094F                     u1690:
  8222     094F  293C               	goto	l2066
  8223     0950                     l118:
  8224                           
  8225                           ;I2C.c: 131:     PIR1bits.SSP1IF = 0;
  8226     0950  0020               	movlb	0	; select bank0
  8227     0951  1191               	bcf	17,3	;volatile
  8228     0952                     l2078:
  8229                           
  8230                           ;I2C.c: 132:     return I2C_OK;
  8231     0952  3000               	movlw	0
  8232     0953                     l117:
  8233     0953  0008               	return
  8234     0954                     __end_of_I2C_RepeatedStart:
  8235                           
  8236                           	psect	text30
  8237     0B61                     __ptext30:	
  8238 ;; *************** function _I2C_ReadByte *****************
  8239 ;; Defined at:
  8240 ;;		line 192 in file "I2C.c"
  8241 ;; Parameters:    Size  Location     Type
  8242 ;;  data            1    wreg     PTR unsigned char 
  8243 ;;		 -> MAX30102_check@buf(6), readRegister8@val(1), 
  8244 ;;  ack             1    3[COMMON] _Bool 
  8245 ;; Auto vars:     Size  Location     Type
  8246 ;;  data            1    4[COMMON] PTR unsigned char 
  8247 ;;		 -> MAX30102_check@buf(6), readRegister8@val(1), 
  8248 ;;  st              1    5[COMMON] enum E6036
  8249 ;; Return value:  Size  Location     Type
  8250 ;;                  1    wreg      enum E6036
  8251 ;; Registers used:
  8252 ;;		wreg, fsr1l, fsr1h, status,2, status,0, pclath, cstack
  8253 ;; Tracked objects:
  8254 ;;		On entry : 0/0
  8255 ;;		On exit  : 0/0
  8256 ;;		Unchanged: 0/0
  8257 ;; Data sizes:     COMMON   BANK0   BANK1   BANK2   BANK3   BANK4   BANK5   BANK6   BANK7   BANK8   BANK9  BANK10  BANK1
      +1  BANK12  BANK13  BANK14  BANK15  BANK16  BANK17  BANK18  BANK19  BANK20  BANK21  BANK22  BANK23  BANK24  BANK25
  8258 ;;      Params:         1       0       0       0       0       0       0       0       0       0       0       0       
      +0       0       0       0       0       0       0       0       0       0       0       0       0       0       0
  8259 ;;      Locals:         2       0       0       0       0       0       0       0       0       0       0       0       
      +0       0       0       0       0       0       0       0       0       0       0       0       0       0       0
  8260 ;;      Temps:          0       0       0       0       0       0       0       0       0       0       0       0       
      +0       0       0       0       0       0       0       0       0       0       0       0       0       0       0
  8261 ;;      Totals:         3       0       0       0       0       0       0       0       0       0       0       0       
      +0       0       0       0       0       0       0       0       0       0       0       0       0       0       0
  8262 ;;Total ram usage:        3 bytes
  8263 ;; Hardware stack levels used: 1
  8264 ;; Hardware stack levels required when called: 2
  8265 ;; This function calls:
  8266 ;;		_I2C_WaitIF
  8267 ;;		_I2C_WaitIdle
  8268 ;; This function is called by:
  8269 ;;		_i2c_read_bytes
  8270 ;; This function uses a non-reentrant model
  8271 ;;
  8272                           
  8273     0B61                     _I2C_ReadByte:	
  8274                           ;psect for function _I2C_ReadByte
  8275                           
  8276                           
  8277                           ;incstack = 0
  8278                           ; Regs used in _I2C_ReadByte: [wreg+fsr1l+fsr1h+status,2+status,0+pclath+cstack]
  8279                           ;I2C_ReadByte@data stored from wreg
  8280     0B61  00F4               	movwf	I2C_ReadByte@data
  8281     0B62                     l2122:
  8282                           
  8283                           ;I2C.c: 192: I2C_Status_t I2C_ReadByte(uint8_t *data, _Bool ack);I2C.c: 193: {;I2C.c: 19
      +                          4:     I2C_Status_t st;;I2C.c: 196:     if (data == ((void*)0)) return I2C_TIMEOUT;
  8284     0B62  0874               	movf	I2C_ReadByte@data,w
  8285     0B63  1D03               	btfss	3,2
  8286     0B64  2B66               	goto	u1751
  8287     0B65  2B67               	goto	u1750
  8288     0B66                     u1751:
  8289     0B66  2B69               	goto	l2128
  8290     0B67                     u1750:
  8291     0B67                     l2124:
  8292     0B67  3002               	movlw	2
  8293     0B68  2BAD               	goto	l133
  8294     0B69                     l2128:
  8295                           
  8296                           ;I2C.c: 198:     st = I2C_WaitIdle(50);
  8297     0B69  3032               	movlw	50
  8298     0B6A  00F0               	movwf	I2C_WaitIdle@timeout_ms
  8299     0B6B  3000               	movlw	0
  8300     0B6C  00F1               	movwf	I2C_WaitIdle@timeout_ms+1
  8301     0B6D  3188  20E6  318B   	fcall	_I2C_WaitIdle
  8302     0B70  00F5               	movwf	I2C_ReadByte@st
  8303     0B71                     l2130:
  8304                           
  8305                           ;I2C.c: 199:     if (st != I2C_OK) return st;
  8306     0B71  0875               	movf	I2C_ReadByte@st,w
  8307     0B72  1903               	btfsc	3,2
  8308     0B73  2B75               	goto	u1761
  8309     0B74  2B76               	goto	u1760
  8310     0B75                     u1761:
  8311     0B75  2B78               	goto	l134
  8312     0B76                     u1760:
  8313     0B76                     l2132:
  8314     0B76  0875               	movf	I2C_ReadByte@st,w
  8315     0B77  2BAD               	goto	l133
  8316     0B78                     l134:
  8317                           
  8318                           ;I2C.c: 202:     PIR1bits.SSP1IF = 0;
  8319     0B78  0020               	movlb	0	; select bank0
  8320     0B79  1191               	bcf	17,3	;volatile
  8321                           
  8322                           ;I2C.c: 203:     SSPCON2bits.RCEN = 1;
  8323     0B7A  0024               	movlb	4	; select bank4
  8324     0B7B  1596               	bsf	22,3	;volatile
  8325     0B7C                     l2136:
  8326                           
  8327                           ;I2C.c: 205:     st = I2C_WaitIF(50);
  8328     0B7C  3032               	movlw	50
  8329     0B7D  00F0               	movwf	I2C_WaitIF@timeout_ms
  8330     0B7E  3000               	movlw	0
  8331     0B7F  00F1               	movwf	I2C_WaitIF@timeout_ms+1
  8332     0B80  3188  2085  318B   	fcall	_I2C_WaitIF
  8333     0B83  00F5               	movwf	I2C_ReadByte@st
  8334     0B84                     l2138:
  8335                           
  8336                           ;I2C.c: 206:     if (st != I2C_OK) return st;
  8337     0B84  0875               	movf	I2C_ReadByte@st,w
  8338     0B85  1903               	btfsc	3,2
  8339     0B86  2B88               	goto	u1771
  8340     0B87  2B89               	goto	u1770
  8341     0B88                     u1771:
  8342     0B88  2B8A               	goto	l2144
  8343     0B89                     u1770:
  8344     0B89  2B76               	goto	l2132
  8345     0B8A                     l2144:
  8346                           
  8347                           ;I2C.c: 208:     *data = SSPBUF;
  8348     0B8A  0874               	movf	I2C_ReadByte@data,w
  8349     0B8B  0086               	movwf	6
  8350     0B8C  0187               	clrf	7
  8351     0B8D  0024               	movlb	4	; select bank4
  8352     0B8E  0811               	movf	17,w	;volatile
  8353     0B8F  0081               	movwf	1
  8354     0B90                     l2146:
  8355                           
  8356                           ;I2C.c: 211:     PIR1bits.SSP1IF = 0;
  8357     0B90  0020               	movlb	0	; select bank0
  8358     0B91  1191               	bcf	17,3	;volatile
  8359     0B92                     l2148:
  8360                           
  8361                           ;I2C.c: 212:     SSPCON2bits.ACKDT = (ack ? 0 : 1);
  8362     0B92  0873               	movf	I2C_ReadByte@ack,w
  8363     0B93  1903               	btfsc	3,2
  8364     0B94  2B96               	goto	u1781
  8365     0B95  2B99               	goto	u1780
  8366     0B96                     u1781:
  8367     0B96  0024               	movlb	4	; select bank4
  8368     0B97  1696               	bsf	22,5	;volatile
  8369     0B98  2B9B               	goto	u1794
  8370     0B99                     u1780:
  8371     0B99  0024               	movlb	4	; select bank4
  8372     0B9A  1296               	bcf	22,5	;volatile
  8373     0B9B                     u1794:
  8374     0B9B                     l2150:
  8375                           
  8376                           ;I2C.c: 213:     SSPCON2bits.ACKEN = 1;
  8377     0B9B  1616               	bsf	22,4	;volatile
  8378     0B9C                     l2152:
  8379                           
  8380                           ;I2C.c: 215:     st = I2C_WaitIF(50);
  8381     0B9C  3032               	movlw	50
  8382     0B9D  00F0               	movwf	I2C_WaitIF@timeout_ms
  8383     0B9E  3000               	movlw	0
  8384     0B9F  00F1               	movwf	I2C_WaitIF@timeout_ms+1
  8385     0BA0  3188  2085  318B   	fcall	_I2C_WaitIF
  8386     0BA3  00F5               	movwf	I2C_ReadByte@st
  8387     0BA4                     l2154:
  8388                           
  8389                           ;I2C.c: 216:     if (st != I2C_OK) return st;
  8390     0BA4  0875               	movf	I2C_ReadByte@st,w
  8391     0BA5  1903               	btfsc	3,2
  8392     0BA6  2BA8               	goto	u1801
  8393     0BA7  2BA9               	goto	u1800
  8394     0BA8                     u1801:
  8395     0BA8  2BAA               	goto	l136
  8396     0BA9                     u1800:
  8397     0BA9  2B76               	goto	l2132
  8398     0BAA                     l136:
  8399                           
  8400                           ;I2C.c: 218:     PIR1bits.SSP1IF = 0;
  8401     0BAA  0020               	movlb	0	; select bank0
  8402     0BAB  1191               	bcf	17,3	;volatile
  8403     0BAC                     l2160:
  8404                           
  8405                           ;I2C.c: 219:     return I2C_OK;
  8406     0BAC  3000               	movlw	0
  8407     0BAD                     l133:
  8408     0BAD  0008               	return
  8409     0BAE                     __end_of_I2C_ReadByte:
  8410                           
  8411                           	psect	text31
  8412     080D                     __ptext31:	
  8413 ;; *************** function _MAX30102_clearFIFO *****************
  8414 ;; Defined at:
  8415 ;;		line 216 in file "main.c"
  8416 ;; Parameters:    Size  Location     Type
  8417 ;;		None
  8418 ;; Auto vars:     Size  Location     Type
  8419 ;;		None
  8420 ;; Return value:  Size  Location     Type
  8421 ;;                  1    wreg      void 
  8422 ;; Registers used:
  8423 ;;		wreg, fsr1l, fsr1h, status,2, status,0, pclath, cstack
  8424 ;; Tracked objects:
  8425 ;;		On entry : 0/0
  8426 ;;		On exit  : 0/0
  8427 ;;		Unchanged: 0/0
  8428 ;; Data sizes:     COMMON   BANK0   BANK1   BANK2   BANK3   BANK4   BANK5   BANK6   BANK7   BANK8   BANK9  BANK10  BANK1
      +1  BANK12  BANK13  BANK14  BANK15  BANK16  BANK17  BANK18  BANK19  BANK20  BANK21  BANK22  BANK23  BANK24  BANK25
  8429 ;;      Params:         0       0       0       0       0       0       0       0       0       0       0       0       
      +0       0       0       0       0       0       0       0       0       0       0       0       0       0       0
  8430 ;;      Locals:         0       0       0       0       0       0       0       0       0       0       0       0       
      +0       0       0       0       0       0       0       0       0       0       0       0       0       0       0
  8431 ;;      Temps:          0       0       0       0       0       0       0       0       0       0       0       0       
      +0       0       0       0       0       0       0       0       0       0       0       0       0       0       0
  8432 ;;      Totals:         0       0       0       0       0       0       0       0       0       0       0       0       
      +0       0       0       0       0       0       0       0       0       0       0       0       0       0       0
  8433 ;;Total ram usage:        0 bytes
  8434 ;; Hardware stack levels used: 1
  8435 ;; Hardware stack levels required when called: 5
  8436 ;; This function calls:
  8437 ;;		_writeRegister8
  8438 ;; This function is called by:
  8439 ;;		_MAX30102_Init
  8440 ;; This function uses a non-reentrant model
  8441 ;;
  8442                           
  8443     080D                     _MAX30102_clearFIFO:	
  8444                           ;psect for function _MAX30102_clearFIFO
  8445                           
  8446     080D                     l2372:	
  8447                           ;incstack = 0
  8448                           ; Regs used in _MAX30102_clearFIFO: [wreg+fsr1l+fsr1h+status,2+status,0+pclath+cstack]
  8449                           
  8450                           
  8451                           ;main.c: 218:     writeRegister8(0x04, 0);
  8452     080D  01FB               	clrf	writeRegister8@value
  8453     080E  3004               	movlw	4
  8454     080F  3197  27E5  3188   	fcall	_writeRegister8
  8455                           
  8456                           ;main.c: 219:     writeRegister8(0x05, 0);
  8457     0812  01FB               	clrf	writeRegister8@value
  8458     0813  3005               	movlw	5
  8459     0814  3197  27E5  3188   	fcall	_writeRegister8
  8460                           
  8461                           ;main.c: 220:     writeRegister8(0x06, 0);
  8462     0817  01FB               	clrf	writeRegister8@value
  8463     0818  3006               	movlw	6
  8464     0819  3197  27E5  3188   	fcall	_writeRegister8
  8465     081C                     l276:
  8466     081C  0008               	return
  8467     081D                     __end_of_MAX30102_clearFIFO:
  8468                           
  8469                           	psect	text32
  8470     17E5                     __ptext32:	
  8471 ;; *************** function _writeRegister8 *****************
  8472 ;; Defined at:
  8473 ;;		line 185 in file "main.c"
  8474 ;; Parameters:    Size  Location     Type
  8475 ;;  reg             1    wreg     unsigned char 
  8476 ;;  value           1   11[COMMON] unsigned char 
  8477 ;; Auto vars:     Size  Location     Type
  8478 ;;  reg             1   12[COMMON] unsigned char 
  8479 ;; Return value:  Size  Location     Type
  8480 ;;                  1    wreg      void 
  8481 ;; Registers used:
  8482 ;;		wreg, fsr1l, fsr1h, status,2, status,0, pclath, cstack
  8483 ;; Tracked objects:
  8484 ;;		On entry : 0/0
  8485 ;;		On exit  : 0/0
  8486 ;;		Unchanged: 0/0
  8487 ;; Data sizes:     COMMON   BANK0   BANK1   BANK2   BANK3   BANK4   BANK5   BANK6   BANK7   BANK8   BANK9  BANK10  BANK1
      +1  BANK12  BANK13  BANK14  BANK15  BANK16  BANK17  BANK18  BANK19  BANK20  BANK21  BANK22  BANK23  BANK24  BANK25
  8488 ;;      Params:         1       0       0       0       0       0       0       0       0       0       0       0       
      +0       0       0       0       0       0       0       0       0       0       0       0       0       0       0
  8489 ;;      Locals:         1       0       0       0       0       0       0       0       0       0       0       0       
      +0       0       0       0       0       0       0       0       0       0       0       0       0       0       0
  8490 ;;      Temps:          0       0       0       0       0       0       0       0       0       0       0       0       
      +0       0       0       0       0       0       0       0       0       0       0       0       0       0       0
  8491 ;;      Totals:         2       0       0       0       0       0       0       0       0       0       0       0       
      +0       0       0       0       0       0       0       0       0       0       0       0       0       0       0
  8492 ;;Total ram usage:        2 bytes
  8493 ;; Hardware stack levels used: 1
  8494 ;; Hardware stack levels required when called: 4
  8495 ;; This function calls:
  8496 ;;		_i2c_write_bytes
  8497 ;; This function is called by:
  8498 ;;		_bitMask
  8499 ;;		_MAX30102_clearFIFO
  8500 ;;		_MAX30102_Init
  8501 ;; This function uses a non-reentrant model
  8502 ;;
  8503                           
  8504     17E5                     _writeRegister8:	
  8505                           ;psect for function _writeRegister8
  8506                           
  8507                           
  8508                           ;incstack = 0
  8509                           ; Regs used in _writeRegister8: [wreg+fsr1l+fsr1h+status,2+status,0+pclath+cstack]
  8510                           ;writeRegister8@reg stored from wreg
  8511     17E5  00FC               	movwf	writeRegister8@reg
  8512     17E6                     l2268:
  8513                           
  8514                           ;main.c: 185: static void writeRegister8(uint8_t reg, uint8_t value);main.c: 186: {;main
      +                          .c: 187:     i2c_write_bytes(0x57, reg, &value, 1);
  8515     17E6  087C               	movf	writeRegister8@reg,w
  8516     17E7  00F5               	movwf	i2c_write_bytes@reg
  8517     17E8  307B               	movlw	(low (writeRegister8@value| 0))& (0+255)
  8518     17E9  00F6               	movwf	i2c_write_bytes@src
  8519     17EA  01F7               	clrf	i2c_write_bytes@len
  8520     17EB  0AF7               	incf	i2c_write_bytes@len,f
  8521     17EC  3057               	movlw	87
  8522     17ED  318A  224C  3197   	fcall	_i2c_write_bytes
  8523     17F0                     l263:
  8524     17F0  0008               	return
  8525     17F1                     __end_of_writeRegister8:
  8526                           
  8527                           	psect	text33
  8528     0A4C                     __ptext33:	
  8529 ;; *************** function _i2c_write_bytes *****************
  8530 ;; Defined at:
  8531 ;;		line 143 in file "main.c"
  8532 ;; Parameters:    Size  Location     Type
  8533 ;;  addr7           1    wreg     unsigned char 
  8534 ;;  reg             1    5[COMMON] unsigned char 
  8535 ;;  src             1    6[COMMON] PTR unsigned char 
  8536 ;;		 -> writeRegister8@value(1), 
  8537 ;;  len             1    7[COMMON] unsigned char 
  8538 ;; Auto vars:     Size  Location     Type
  8539 ;;  addr7           1    9[COMMON] unsigned char 
  8540 ;;  i               1   10[COMMON] unsigned char 
  8541 ;; Return value:  Size  Location     Type
  8542 ;;                  1    wreg      unsigned char 
  8543 ;; Registers used:
  8544 ;;		wreg, fsr1l, fsr1h, status,2, status,0, pclath, cstack
  8545 ;; Tracked objects:
  8546 ;;		On entry : 0/0
  8547 ;;		On exit  : 0/0
  8548 ;;		Unchanged: 0/0
  8549 ;; Data sizes:     COMMON   BANK0   BANK1   BANK2   BANK3   BANK4   BANK5   BANK6   BANK7   BANK8   BANK9  BANK10  BANK1
      +1  BANK12  BANK13  BANK14  BANK15  BANK16  BANK17  BANK18  BANK19  BANK20  BANK21  BANK22  BANK23  BANK24  BANK25
  8550 ;;      Params:         3       0       0       0       0       0       0       0       0       0       0       0       
      +0       0       0       0       0       0       0       0       0       0       0       0       0       0       0
  8551 ;;      Locals:         2       0       0       0       0       0       0       0       0       0       0       0       
      +0       0       0       0       0       0       0       0       0       0       0       0       0       0       0
  8552 ;;      Temps:          1       0       0       0       0       0       0       0       0       0       0       0       
      +0       0       0       0       0       0       0       0       0       0       0       0       0       0       0
  8553 ;;      Totals:         6       0       0       0       0       0       0       0       0       0       0       0       
      +0       0       0       0       0       0       0       0       0       0       0       0       0       0       0
  8554 ;;Total ram usage:        6 bytes
  8555 ;; Hardware stack levels used: 1
  8556 ;; Hardware stack levels required when called: 3
  8557 ;; This function calls:
  8558 ;;		_I2C_Start
  8559 ;;		_I2C_Stop
  8560 ;;		_I2C_WriteByte
  8561 ;; This function is called by:
  8562 ;;		_writeRegister8
  8563 ;; This function uses a non-reentrant model
  8564 ;;
  8565                           
  8566     0A4C                     _i2c_write_bytes:	
  8567                           ;psect for function _i2c_write_bytes
  8568                           
  8569                           
  8570                           ;incstack = 0
  8571                           ; Regs used in _i2c_write_bytes: [wreg+fsr1l+fsr1h+status,2+status,0+pclath+cstack]
  8572                           ;i2c_write_bytes@addr7 stored from wreg
  8573     0A4C  00F9               	movwf	i2c_write_bytes@addr7
  8574     0A4D                     l2164:
  8575                           
  8576                           ;main.c: 143: static uint8_t i2c_write_bytes(uint8_t addr7, uint8_t reg,;main.c: 144:   
      +                                                        uint8_t *src, uint8_t len);main.c: 145: {;main.c: 146:    
      +                           if (I2C_Start() != I2C_OK) return 1;
  8577     0A4D  3189  210A  318A   	fcall	_I2C_Start
  8578     0A50  3A00               	xorlw	0
  8579     0A51  1903               	skipnz
  8580     0A52  2A54               	goto	u1811
  8581     0A53  2A55               	goto	u1810
  8582     0A54                     u1811:
  8583     0A54  2A56               	goto	l2168
  8584     0A55                     u1810:
  8585     0A55  2A8A               	goto	l239
  8586     0A56                     l2168:
  8587                           
  8588                           ;main.c: 147:     if (I2C_WriteByte(addr7 << 1) != I2C_OK) { I2C_Stop(); return 2; }
  8589     0A56  3579               	lslf	i2c_write_bytes@addr7,w
  8590     0A57  3189  217F  318A   	fcall	_I2C_WriteByte
  8591     0A5A  3A00               	xorlw	0
  8592     0A5B  1903               	skipnz
  8593     0A5C  2A5E               	goto	u1821
  8594     0A5D  2A5F               	goto	u1820
  8595     0A5E                     u1821:
  8596     0A5E  2A63               	goto	l2174
  8597     0A5F                     u1820:
  8598     0A5F                     l2170:
  8599     0A5F  3188  20C3  318A   	fcall	_I2C_Stop
  8600     0A62  2A8A               	goto	l239
  8601     0A63                     l2174:
  8602                           
  8603                           ;main.c: 148:     if (I2C_WriteByte(reg) != I2C_OK) { I2C_Stop(); return 3; }
  8604     0A63  0875               	movf	i2c_write_bytes@reg,w
  8605     0A64  3189  217F  318A   	fcall	_I2C_WriteByte
  8606     0A67  3A00               	xorlw	0
  8607     0A68  1903               	skipnz
  8608     0A69  2A6B               	goto	u1831
  8609     0A6A  2A6C               	goto	u1830
  8610     0A6B                     u1831:
  8611     0A6B  2A6D               	goto	l2180
  8612     0A6C                     u1830:
  8613     0A6C  2A5F               	goto	l2170
  8614     0A6D                     l2180:
  8615                           
  8616                           ;main.c: 149:     for (uint8_t i = 0; i < len; i++)
  8617     0A6D  01FA               	clrf	i2c_write_bytes@i
  8618     0A6E  2A83               	goto	l2190
  8619     0A6F                     l2182:
  8620                           
  8621                           ;main.c: 150:     {;main.c: 151:         if (I2C_WriteByte(src[i]) != I2C_OK) { I2C_Stop
      +                          (); return 4; }
  8622     0A6F  087A               	movf	i2c_write_bytes@i,w
  8623     0A70  0776               	addwf	i2c_write_bytes@src,w
  8624     0A71  00F8               	movwf	??_i2c_write_bytes
  8625     0A72  0878               	movf	??_i2c_write_bytes,w
  8626     0A73  0086               	movwf	6
  8627     0A74  0187               	clrf	7
  8628     0A75  0801               	movf	1,w
  8629     0A76  3189  217F  318A   	fcall	_I2C_WriteByte
  8630     0A79  3A00               	xorlw	0
  8631     0A7A  1903               	skipnz
  8632     0A7B  2A7D               	goto	u1841
  8633     0A7C  2A7E               	goto	u1840
  8634     0A7D                     u1841:
  8635     0A7D  2A7F               	goto	l2188
  8636     0A7E                     u1840:
  8637     0A7E  2A5F               	goto	l2170
  8638     0A7F                     l2188:
  8639                           
  8640                           ;main.c: 152:     }
  8641     0A7F  3001               	movlw	1
  8642     0A80  00F8               	movwf	??_i2c_write_bytes
  8643     0A81  0878               	movf	??_i2c_write_bytes,w
  8644     0A82  07FA               	addwf	i2c_write_bytes@i,f
  8645     0A83                     l2190:
  8646     0A83  0877               	movf	i2c_write_bytes@len,w
  8647     0A84  027A               	subwf	i2c_write_bytes@i,w
  8648     0A85  1C03               	skipc
  8649     0A86  2A88               	goto	u1851
  8650     0A87  2A89               	goto	u1850
  8651     0A88                     u1851:
  8652     0A88  2A6F               	goto	l2182
  8653     0A89                     u1850:
  8654     0A89  2A5F               	goto	l2170
  8655     0A8A                     l239:
  8656     0A8A  0008               	return
  8657     0A8B                     __end_of_i2c_write_bytes:
  8658                           
  8659                           	psect	text34
  8660     097F                     __ptext34:	
  8661 ;; *************** function _I2C_WriteByte *****************
  8662 ;; Defined at:
  8663 ;;		line 161 in file "I2C.c"
  8664 ;; Parameters:    Size  Location     Type
  8665 ;;  data            1    wreg     unsigned char 
  8666 ;; Auto vars:     Size  Location     Type
  8667 ;;  data            1    3[COMMON] unsigned char 
  8668 ;;  st              1    4[COMMON] enum E6036
  8669 ;; Return value:  Size  Location     Type
  8670 ;;                  1    wreg      enum E6036
  8671 ;; Registers used:
  8672 ;;		wreg, status,2, status,0, pclath, cstack
  8673 ;; Tracked objects:
  8674 ;;		On entry : 0/0
  8675 ;;		On exit  : 0/0
  8676 ;;		Unchanged: 0/0
  8677 ;; Data sizes:     COMMON   BANK0   BANK1   BANK2   BANK3   BANK4   BANK5   BANK6   BANK7   BANK8   BANK9  BANK10  BANK1
      +1  BANK12  BANK13  BANK14  BANK15  BANK16  BANK17  BANK18  BANK19  BANK20  BANK21  BANK22  BANK23  BANK24  BANK25
  8678 ;;      Params:         0       0       0       0       0       0       0       0       0       0       0       0       
      +0       0       0       0       0       0       0       0       0       0       0       0       0       0       0
  8679 ;;      Locals:         2       0       0       0       0       0       0       0       0       0       0       0       
      +0       0       0       0       0       0       0       0       0       0       0       0       0       0       0
  8680 ;;      Temps:          0       0       0       0       0       0       0       0       0       0       0       0       
      +0       0       0       0       0       0       0       0       0       0       0       0       0       0       0
  8681 ;;      Totals:         2       0       0       0       0       0       0       0       0       0       0       0       
      +0       0       0       0       0       0       0       0       0       0       0       0       0       0       0
  8682 ;;Total ram usage:        2 bytes
  8683 ;; Hardware stack levels used: 1
  8684 ;; Hardware stack levels required when called: 2
  8685 ;; This function calls:
  8686 ;;		_I2C_WaitIF
  8687 ;;		_I2C_WaitIdle
  8688 ;; This function is called by:
  8689 ;;		_i2c_write_bytes
  8690 ;;		_i2c_read_bytes
  8691 ;; This function uses a non-reentrant model
  8692 ;;
  8693                           
  8694     097F                     _I2C_WriteByte:	
  8695                           ;psect for function _I2C_WriteByte
  8696                           
  8697                           
  8698                           ;incstack = 0
  8699                           ; Regs used in _I2C_WriteByte: [wreg+status,2+status,0+pclath+cstack]
  8700                           ;I2C_WriteByte@data stored from wreg
  8701     097F  00F3               	movwf	I2C_WriteByte@data
  8702     0980                     l2094:
  8703                           
  8704                           ;I2C.c: 161: I2C_Status_t I2C_WriteByte(uint8_t data);I2C.c: 162: {;I2C.c: 163:     I2C_
      +                          Status_t st;;I2C.c: 165:     st = I2C_WaitIdle(50);
  8705     0980  3032               	movlw	50
  8706     0981  00F0               	movwf	I2C_WaitIdle@timeout_ms
  8707     0982  3000               	movlw	0
  8708     0983  00F1               	movwf	I2C_WaitIdle@timeout_ms+1
  8709     0984  3188  20E6  3189   	fcall	_I2C_WaitIdle
  8710     0987  00F4               	movwf	I2C_WriteByte@st
  8711     0988                     l2096:
  8712                           
  8713                           ;I2C.c: 166:     if (st != I2C_OK) return st;
  8714     0988  0874               	movf	I2C_WriteByte@st,w
  8715     0989  1903               	btfsc	3,2
  8716     098A  298C               	goto	u1721
  8717     098B  298D               	goto	u1720
  8718     098C                     u1721:
  8719     098C  298F               	goto	l126
  8720     098D                     u1720:
  8721     098D                     l2098:
  8722     098D  0874               	movf	I2C_WriteByte@st,w
  8723     098E  29B0               	goto	l127
  8724     098F                     l126:
  8725                           
  8726                           ;I2C.c: 168:     PIR1bits.SSP1IF = 0;
  8727     098F  0020               	movlb	0	; select bank0
  8728     0990  1191               	bcf	17,3	;volatile
  8729     0991                     l2102:
  8730                           
  8731                           ;I2C.c: 169:     SSPBUF = data;
  8732     0991  0873               	movf	I2C_WriteByte@data,w
  8733     0992  0024               	movlb	4	; select bank4
  8734     0993  0091               	movwf	17	;volatile
  8735     0994                     l2104:
  8736                           
  8737                           ;I2C.c: 171:     st = I2C_WaitIF(50);
  8738     0994  3032               	movlw	50
  8739     0995  00F0               	movwf	I2C_WaitIF@timeout_ms
  8740     0996  3000               	movlw	0
  8741     0997  00F1               	movwf	I2C_WaitIF@timeout_ms+1
  8742     0998  3188  2085  3189   	fcall	_I2C_WaitIF
  8743     099B  00F4               	movwf	I2C_WriteByte@st
  8744     099C                     l2106:
  8745                           
  8746                           ;I2C.c: 172:     if (st != I2C_OK) return st;
  8747     099C  0874               	movf	I2C_WriteByte@st,w
  8748     099D  1903               	btfsc	3,2
  8749     099E  29A0               	goto	u1731
  8750     099F  29A1               	goto	u1730
  8751     09A0                     u1731:
  8752     09A0  29A2               	goto	l128
  8753     09A1                     u1730:
  8754     09A1  298D               	goto	l2098
  8755     09A2                     l128:
  8756                           
  8757                           ;I2C.c: 175:     if (PIR2bits.BCL1IF)
  8758     09A2  0020               	movlb	0	; select bank0
  8759     09A3  1D92               	btfss	18,3	;volatile
  8760     09A4  29A6               	goto	u1741
  8761     09A5  29A7               	goto	u1740
  8762     09A6                     u1741:
  8763     09A6  29AA               	goto	l129
  8764     09A7                     u1740:
  8765     09A7                     l2112:
  8766                           
  8767                           ;I2C.c: 176:     {;I2C.c: 177:         PIR2bits.BCL1IF = 0;
  8768     09A7  1192               	bcf	18,3	;volatile
  8769     09A8                     l2114:
  8770                           
  8771                           ;I2C.c: 178:         return I2C_BUS_COLLISION;
  8772     09A8  3003               	movlw	3
  8773     09A9  29B0               	goto	l127
  8774     09AA                     l129:	
  8775                           ;I2C.c: 179:     }
  8776                           
  8777                           
  8778                           ;I2C.c: 182:     PIR1bits.SSP1IF = 0;
  8779     09AA  1191               	bcf	17,3	;volatile
  8780     09AB                     l2118:
  8781                           
  8782                           ;I2C.c: 183:     return (SSPCON2bits.ACKSTAT == 0) ? I2C_OK : I2C_NAK;
  8783     09AB  0024               	movlb	4	; select bank4
  8784     09AC  0E16               	swapf	22,w	;volatile
  8785     09AD  0C89               	rrf	9,f
  8786     09AE  0C89               	rrf	9,f
  8787     09AF  3901               	andlw	1
  8788     09B0                     l127:
  8789     09B0  0008               	return
  8790     09B1                     __end_of_I2C_WriteByte:
  8791                           
  8792                           	psect	text35
  8793     08C3                     __ptext35:	
  8794 ;; *************** function _I2C_Stop *****************
  8795 ;; Defined at:
  8796 ;;		line 138 in file "I2C.c"
  8797 ;; Parameters:    Size  Location     Type
  8798 ;;		None
  8799 ;; Auto vars:     Size  Location     Type
  8800 ;;  st              1    3[COMMON] enum E6036
  8801 ;; Return value:  Size  Location     Type
  8802 ;;                  1    wreg      enum E6036
  8803 ;; Registers used:
  8804 ;;		wreg, status,2, status,0, pclath, cstack
  8805 ;; Tracked objects:
  8806 ;;		On entry : 0/0
  8807 ;;		On exit  : 0/0
  8808 ;;		Unchanged: 0/0
  8809 ;; Data sizes:     COMMON   BANK0   BANK1   BANK2   BANK3   BANK4   BANK5   BANK6   BANK7   BANK8   BANK9  BANK10  BANK1
      +1  BANK12  BANK13  BANK14  BANK15  BANK16  BANK17  BANK18  BANK19  BANK20  BANK21  BANK22  BANK23  BANK24  BANK25
  8810 ;;      Params:         0       0       0       0       0       0       0       0       0       0       0       0       
      +0       0       0       0       0       0       0       0       0       0       0       0       0       0       0
  8811 ;;      Locals:         1       0       0       0       0       0       0       0       0       0       0       0       
      +0       0       0       0       0       0       0       0       0       0       0       0       0       0       0
  8812 ;;      Temps:          0       0       0       0       0       0       0       0       0       0       0       0       
      +0       0       0       0       0       0       0       0       0       0       0       0       0       0       0
  8813 ;;      Totals:         1       0       0       0       0       0       0       0       0       0       0       0       
      +0       0       0       0       0       0       0       0       0       0       0       0       0       0       0
  8814 ;;Total ram usage:        1 bytes
  8815 ;; Hardware stack levels used: 1
  8816 ;; Hardware stack levels required when called: 2
  8817 ;; This function calls:
  8818 ;;		_I2C_WaitIF
  8819 ;;		_I2C_WaitIdle
  8820 ;; This function is called by:
  8821 ;;		_i2c_write_bytes
  8822 ;;		_i2c_read_bytes
  8823 ;; This function uses a non-reentrant model
  8824 ;;
  8825                           
  8826     08C3                     _I2C_Stop:	
  8827                           ;psect for function _I2C_Stop
  8828                           
  8829     08C3                     l2082:	
  8830                           ;incstack = 0
  8831                           ; Regs used in _I2C_Stop: [wreg+status,2+status,0+pclath+cstack]
  8832                           
  8833                           
  8834                           ;I2C.c: 140:     I2C_Status_t st;;I2C.c: 142:     st = I2C_WaitIdle(50);
  8835     08C3  3032               	movlw	50
  8836     08C4  00F0               	movwf	I2C_WaitIdle@timeout_ms
  8837     08C5  3000               	movlw	0
  8838     08C6  00F1               	movwf	I2C_WaitIdle@timeout_ms+1
  8839     08C7  3188  20E6  3188   	fcall	_I2C_WaitIdle
  8840     08CA  00F3               	movwf	I2C_Stop@st
  8841     08CB                     l2084:
  8842                           
  8843                           ;I2C.c: 143:     if (st != I2C_OK) return st;
  8844     08CB  0873               	movf	I2C_Stop@st,w
  8845     08CC  1903               	btfsc	3,2
  8846     08CD  28CF               	goto	u1701
  8847     08CE  28D0               	goto	u1700
  8848     08CF                     u1701:
  8849     08CF  28D1               	goto	l121
  8850     08D0                     u1700:
  8851     08D0  28E5               	goto	l122
  8852     08D1                     l121:
  8853                           
  8854                           ;I2C.c: 145:     PIR1bits.SSP1IF = 0;
  8855     08D1  0020               	movlb	0	; select bank0
  8856     08D2  1191               	bcf	17,3	;volatile
  8857                           
  8858                           ;I2C.c: 146:     SSPCON2bits.PEN = 1;
  8859     08D3  0024               	movlb	4	; select bank4
  8860     08D4  1516               	bsf	22,2	;volatile
  8861     08D5                     l2088:
  8862                           
  8863                           ;I2C.c: 148:     st = I2C_WaitIF(50);
  8864     08D5  3032               	movlw	50
  8865     08D6  00F0               	movwf	I2C_WaitIF@timeout_ms
  8866     08D7  3000               	movlw	0
  8867     08D8  00F1               	movwf	I2C_WaitIF@timeout_ms+1
  8868     08D9  3188  2085  3188   	fcall	_I2C_WaitIF
  8869     08DC  00F3               	movwf	I2C_Stop@st
  8870     08DD                     l2090:
  8871                           
  8872                           ;I2C.c: 149:     if (st != I2C_OK) return st;
  8873     08DD  0873               	movf	I2C_Stop@st,w
  8874     08DE  1903               	btfsc	3,2
  8875     08DF  28E1               	goto	u1711
  8876     08E0  28E2               	goto	u1710
  8877     08E1                     u1711:
  8878     08E1  28E3               	goto	l123
  8879     08E2                     u1710:
  8880     08E2  28E5               	goto	l122
  8881     08E3                     l123:
  8882                           
  8883                           ;I2C.c: 151:     PIR1bits.SSP1IF = 0;
  8884     08E3  0020               	movlb	0	; select bank0
  8885     08E4  1191               	bcf	17,3	;volatile
  8886     08E5                     l122:	
  8887                           ;I2C.c: 152:     return I2C_OK;;	Return value of _I2C_Stop is never used
  8888                           
  8889     08E5  0008               	return
  8890     08E6                     __end_of_I2C_Stop:
  8891                           
  8892                           	psect	text36
  8893     090A                     __ptext36:	
  8894 ;; *************** function _I2C_Start *****************
  8895 ;; Defined at:
  8896 ;;		line 98 in file "I2C.c"
  8897 ;; Parameters:    Size  Location     Type
  8898 ;;		None
  8899 ;; Auto vars:     Size  Location     Type
  8900 ;;  st              1    3[COMMON] enum E6036
  8901 ;; Return value:  Size  Location     Type
  8902 ;;                  1    wreg      enum E6036
  8903 ;; Registers used:
  8904 ;;		wreg, status,2, status,0, pclath, cstack
  8905 ;; Tracked objects:
  8906 ;;		On entry : 0/0
  8907 ;;		On exit  : 0/0
  8908 ;;		Unchanged: 0/0
  8909 ;; Data sizes:     COMMON   BANK0   BANK1   BANK2   BANK3   BANK4   BANK5   BANK6   BANK7   BANK8   BANK9  BANK10  BANK1
      +1  BANK12  BANK13  BANK14  BANK15  BANK16  BANK17  BANK18  BANK19  BANK20  BANK21  BANK22  BANK23  BANK24  BANK25
  8910 ;;      Params:         0       0       0       0       0       0       0       0       0       0       0       0       
      +0       0       0       0       0       0       0       0       0       0       0       0       0       0       0
  8911 ;;      Locals:         1       0       0       0       0       0       0       0       0       0       0       0       
      +0       0       0       0       0       0       0       0       0       0       0       0       0       0       0
  8912 ;;      Temps:          0       0       0       0       0       0       0       0       0       0       0       0       
      +0       0       0       0       0       0       0       0       0       0       0       0       0       0       0
  8913 ;;      Totals:         1       0       0       0       0       0       0       0       0       0       0       0       
      +0       0       0       0       0       0       0       0       0       0       0       0       0       0       0
  8914 ;;Total ram usage:        1 bytes
  8915 ;; Hardware stack levels used: 1
  8916 ;; Hardware stack levels required when called: 2
  8917 ;; This function calls:
  8918 ;;		_I2C_WaitIF
  8919 ;;		_I2C_WaitIdle
  8920 ;; This function is called by:
  8921 ;;		_i2c_write_bytes
  8922 ;;		_i2c_read_bytes
  8923 ;; This function uses a non-reentrant model
  8924 ;;
  8925                           
  8926     090A                     _I2C_Start:	
  8927                           ;psect for function _I2C_Start
  8928                           
  8929     090A                     l2042:	
  8930                           ;incstack = 0
  8931                           ; Regs used in _I2C_Start: [wreg+status,2+status,0+pclath+cstack]
  8932                           
  8933                           
  8934                           ;I2C.c: 100:     I2C_Status_t st;;I2C.c: 102:     st = I2C_WaitIdle(50);
  8935     090A  3032               	movlw	50
  8936     090B  00F0               	movwf	I2C_WaitIdle@timeout_ms
  8937     090C  3000               	movlw	0
  8938     090D  00F1               	movwf	I2C_WaitIdle@timeout_ms+1
  8939     090E  3188  20E6  3189   	fcall	_I2C_WaitIdle
  8940     0911  00F3               	movwf	I2C_Start@st
  8941     0912                     l2044:
  8942                           
  8943                           ;I2C.c: 103:     if (st != I2C_OK) return st;
  8944     0912  0873               	movf	I2C_Start@st,w
  8945     0913  1903               	btfsc	3,2
  8946     0914  2916               	goto	u1661
  8947     0915  2917               	goto	u1660
  8948     0916                     u1661:
  8949     0916  2919               	goto	l111
  8950     0917                     u1660:
  8951     0917                     l2046:
  8952     0917  0873               	movf	I2C_Start@st,w
  8953     0918  292E               	goto	l112
  8954     0919                     l111:
  8955                           
  8956                           ;I2C.c: 105:     PIR1bits.SSP1IF = 0;
  8957     0919  0020               	movlb	0	; select bank0
  8958     091A  1191               	bcf	17,3	;volatile
  8959                           
  8960                           ;I2C.c: 106:     SSPCON2bits.SEN = 1;
  8961     091B  0024               	movlb	4	; select bank4
  8962     091C  1416               	bsf	22,0	;volatile
  8963     091D                     l2050:
  8964                           
  8965                           ;I2C.c: 108:     st = I2C_WaitIF(50);
  8966     091D  3032               	movlw	50
  8967     091E  00F0               	movwf	I2C_WaitIF@timeout_ms
  8968     091F  3000               	movlw	0
  8969     0920  00F1               	movwf	I2C_WaitIF@timeout_ms+1
  8970     0921  3188  2085  3189   	fcall	_I2C_WaitIF
  8971     0924  00F3               	movwf	I2C_Start@st
  8972     0925                     l2052:
  8973                           
  8974                           ;I2C.c: 109:     if (st != I2C_OK) return st;
  8975     0925  0873               	movf	I2C_Start@st,w
  8976     0926  1903               	btfsc	3,2
  8977     0927  2929               	goto	u1671
  8978     0928  292A               	goto	u1670
  8979     0929                     u1671:
  8980     0929  292B               	goto	l113
  8981     092A                     u1670:
  8982     092A  2917               	goto	l2046
  8983     092B                     l113:
  8984                           
  8985                           ;I2C.c: 111:     PIR1bits.SSP1IF = 0;
  8986     092B  0020               	movlb	0	; select bank0
  8987     092C  1191               	bcf	17,3	;volatile
  8988     092D                     l2058:
  8989                           
  8990                           ;I2C.c: 112:     return I2C_OK;
  8991     092D  3000               	movlw	0
  8992     092E                     l112:
  8993     092E  0008               	return
  8994     092F                     __end_of_I2C_Start:
  8995                           
  8996                           	psect	text37
  8997     08E6                     __ptext37:	
  8998 ;; *************** function _I2C_WaitIdle *****************
  8999 ;; Defined at:
  9000 ;;		line 81 in file "I2C.c"
  9001 ;; Parameters:    Size  Location     Type
  9002 ;;  timeout_ms      2    0[COMMON] unsigned short 
  9003 ;; Auto vars:     Size  Location     Type
  9004 ;;		None
  9005 ;; Return value:  Size  Location     Type
  9006 ;;                  1    wreg      enum E6036
  9007 ;; Registers used:
  9008 ;;		wreg, status,2, status,0
  9009 ;; Tracked objects:
  9010 ;;		On entry : 0/0
  9011 ;;		On exit  : 0/0
  9012 ;;		Unchanged: 0/0
  9013 ;; Data sizes:     COMMON   BANK0   BANK1   BANK2   BANK3   BANK4   BANK5   BANK6   BANK7   BANK8   BANK9  BANK10  BANK1
      +1  BANK12  BANK13  BANK14  BANK15  BANK16  BANK17  BANK18  BANK19  BANK20  BANK21  BANK22  BANK23  BANK24  BANK25
  9014 ;;      Params:         2       0       0       0       0       0       0       0       0       0       0       0       
      +0       0       0       0       0       0       0       0       0       0       0       0       0       0       0
  9015 ;;      Locals:         0       0       0       0       0       0       0       0       0       0       0       0       
      +0       0       0       0       0       0       0       0       0       0       0       0       0       0       0
  9016 ;;      Temps:          1       0       0       0       0       0       0       0       0       0       0       0       
      +0       0       0       0       0       0       0       0       0       0       0       0       0       0       0
  9017 ;;      Totals:         3       0       0       0       0       0       0       0       0       0       0       0       
      +0       0       0       0       0       0       0       0       0       0       0       0       0       0       0
  9018 ;;Total ram usage:        3 bytes
  9019 ;; Hardware stack levels used: 1
  9020 ;; Hardware stack levels required when called: 1
  9021 ;; This function calls:
  9022 ;;		Nothing
  9023 ;; This function is called by:
  9024 ;;		_I2C_Start
  9025 ;;		_I2C_RepeatedStart
  9026 ;;		_I2C_Stop
  9027 ;;		_I2C_WriteByte
  9028 ;;		_I2C_ReadByte
  9029 ;; This function uses a non-reentrant model
  9030 ;;
  9031                           
  9032     08E6                     _I2C_WaitIdle:	
  9033                           ;psect for function _I2C_WaitIdle
  9034                           
  9035     08E6                     l2024:	
  9036                           ;incstack = 0
  9037                           ; Regs used in _I2C_WaitIdle: [wreg+status,2+status,0]
  9038                           
  9039                           
  9040                           ;I2C.c: 81: I2C_Status_t I2C_WaitIdle(uint16_t timeout_ms);I2C.c: 82: {;I2C.c: 83:     w
      +                          hile (timeout_ms--)
  9041     08E6  28FC               	goto	l2036
  9042     08E7                     l2026:
  9043                           
  9044                           ;I2C.c: 84:     {;I2C.c: 87:         if ((SSPCON2 & 0x1F) == 0 && SSPSTATbits.R_nW == 0)
  9045     08E7  0024               	movlb	4	; select bank4
  9046     08E8  0816               	movf	22,w	;volatile
  9047     08E9  391F               	andlw	31
  9048     08EA  1D03               	btfss	3,2
  9049     08EB  28ED               	goto	u1631
  9050     08EC  28EE               	goto	u1630
  9051     08ED                     u1631:
  9052     08ED  28F4               	goto	l2034
  9053     08EE                     u1630:
  9054     08EE                     l2028:
  9055     08EE  1914               	btfsc	20,2	;volatile
  9056     08EF  28F1               	goto	u1641
  9057     08F0  28F2               	goto	u1640
  9058     08F1                     u1641:
  9059     08F1  28F4               	goto	l2034
  9060     08F2                     u1640:
  9061     08F2                     l2030:
  9062                           
  9063                           ;I2C.c: 88:             return I2C_OK;
  9064     08F2  3000               	movlw	0
  9065     08F3  2909               	goto	l107
  9066     08F4                     l2034:
  9067                           
  9068                           ;I2C.c: 90:         _delay((unsigned long)((1)*(32000000/4000.0)));
  9069     08F4  300B               	movlw	11
  9070     08F5  00F2               	movwf	??_I2C_WaitIdle
  9071     08F6  3062               	movlw	98
  9072     08F7                     u3187:
  9073     08F7  0B89               	decfsz	9,f
  9074     08F8  28F7               	goto	u3187
  9075     08F9  0BF2               	decfsz	??_I2C_WaitIdle,f
  9076     08FA  28F7               	goto	u3187
  9077     08FB  3200               	nop2
  9078     08FC                     l2036:
  9079                           
  9080                           ;I2C.c: 83:     while (timeout_ms--)
  9081     08FC  3001               	movlw	1
  9082     08FD  02F0               	subwf	I2C_WaitIdle@timeout_ms,f
  9083     08FE  3000               	movlw	0
  9084     08FF  3BF1               	subwfb	I2C_WaitIdle@timeout_ms+1,f
  9085     0900  0A70               	incf	I2C_WaitIdle@timeout_ms,w
  9086     0901  1D03               	skipz
  9087     0902  2907               	goto	u1651
  9088     0903  0A71               	incf	I2C_WaitIdle@timeout_ms+1,w
  9089     0904  1D03               	btfss	3,2
  9090     0905  2907               	goto	u1651
  9091     0906  2908               	goto	u1650
  9092     0907                     u1651:
  9093     0907  28E7               	goto	l2026
  9094     0908                     u1650:
  9095     0908                     l2038:
  9096                           
  9097                           ;I2C.c: 92:     return I2C_TIMEOUT;
  9098     0908  3002               	movlw	2
  9099     0909                     l107:
  9100     0909  0008               	return
  9101     090A                     __end_of_I2C_WaitIdle:
  9102                           
  9103                           	psect	text38
  9104     0885                     __ptext38:	
  9105 ;; *************** function _I2C_WaitIF *****************
  9106 ;; Defined at:
  9107 ;;		line 23 in file "I2C.c"
  9108 ;; Parameters:    Size  Location     Type
  9109 ;;  timeout_ms      2    0[COMMON] unsigned short 
  9110 ;; Auto vars:     Size  Location     Type
  9111 ;;		None
  9112 ;; Return value:  Size  Location     Type
  9113 ;;                  1    wreg      enum E6036
  9114 ;; Registers used:
  9115 ;;		wreg, status,2, status,0
  9116 ;; Tracked objects:
  9117 ;;		On entry : 0/0
  9118 ;;		On exit  : 0/0
  9119 ;;		Unchanged: 0/0
  9120 ;; Data sizes:     COMMON   BANK0   BANK1   BANK2   BANK3   BANK4   BANK5   BANK6   BANK7   BANK8   BANK9  BANK10  BANK1
      +1  BANK12  BANK13  BANK14  BANK15  BANK16  BANK17  BANK18  BANK19  BANK20  BANK21  BANK22  BANK23  BANK24  BANK25
  9121 ;;      Params:         2       0       0       0       0       0       0       0       0       0       0       0       
      +0       0       0       0       0       0       0       0       0       0       0       0       0       0       0
  9122 ;;      Locals:         0       0       0       0       0       0       0       0       0       0       0       0       
      +0       0       0       0       0       0       0       0       0       0       0       0       0       0       0
  9123 ;;      Temps:          1       0       0       0       0       0       0       0       0       0       0       0       
      +0       0       0       0       0       0       0       0       0       0       0       0       0       0       0
  9124 ;;      Totals:         3       0       0       0       0       0       0       0       0       0       0       0       
      +0       0       0       0       0       0       0       0       0       0       0       0       0       0       0
  9125 ;;Total ram usage:        3 bytes
  9126 ;; Hardware stack levels used: 1
  9127 ;; Hardware stack levels required when called: 1
  9128 ;; This function calls:
  9129 ;;		Nothing
  9130 ;; This function is called by:
  9131 ;;		_I2C_Start
  9132 ;;		_I2C_RepeatedStart
  9133 ;;		_I2C_Stop
  9134 ;;		_I2C_WriteByte
  9135 ;;		_I2C_ReadByte
  9136 ;; This function uses a non-reentrant model
  9137 ;;
  9138                           
  9139     0885                     _I2C_WaitIF:	
  9140                           ;psect for function _I2C_WaitIF
  9141                           
  9142     0885                     l2010:	
  9143                           ;incstack = 0
  9144                           ; Regs used in _I2C_WaitIF: [wreg+status,2+status,0]
  9145                           
  9146                           
  9147                           ;I2C.c: 23: static I2C_Status_t I2C_WaitIF(uint16_t timeout_ms);I2C.c: 24: {;I2C.c: 25: 
      +                              while (timeout_ms--)
  9148     0885  2895               	goto	l2018
  9149     0886                     l92:
  9150                           
  9151                           ;I2C.c: 26:     {;I2C.c: 27:         if (PIR1bits.SSP1IF)
  9152     0886  0020               	movlb	0	; select bank0
  9153     0887  1D91               	btfss	17,3	;volatile
  9154     0888  288A               	goto	u1611
  9155     0889  288B               	goto	u1610
  9156     088A                     u1611:
  9157     088A  288D               	goto	l2016
  9158     088B                     u1610:
  9159     088B                     l2012:
  9160                           
  9161                           ;I2C.c: 28:             return I2C_OK;
  9162     088B  3000               	movlw	0
  9163     088C  28A2               	goto	l94
  9164     088D                     l2016:
  9165                           
  9166                           ;I2C.c: 30:         _delay((unsigned long)((1)*(32000000/4000.0)));
  9167     088D  300B               	movlw	11
  9168     088E  00F2               	movwf	??_I2C_WaitIF
  9169     088F  3062               	movlw	98
  9170     0890                     u3197:
  9171     0890  0B89               	decfsz	9,f
  9172     0891  2890               	goto	u3197
  9173     0892  0BF2               	decfsz	??_I2C_WaitIF,f
  9174     0893  2890               	goto	u3197
  9175     0894  3200               	nop2
  9176     0895                     l2018:
  9177                           
  9178                           ;I2C.c: 25:     while (timeout_ms--)
  9179     0895  3001               	movlw	1
  9180     0896  02F0               	subwf	I2C_WaitIF@timeout_ms,f
  9181     0897  3000               	movlw	0
  9182     0898  3BF1               	subwfb	I2C_WaitIF@timeout_ms+1,f
  9183     0899  0A70               	incf	I2C_WaitIF@timeout_ms,w
  9184     089A  1D03               	skipz
  9185     089B  28A0               	goto	u1621
  9186     089C  0A71               	incf	I2C_WaitIF@timeout_ms+1,w
  9187     089D  1D03               	btfss	3,2
  9188     089E  28A0               	goto	u1621
  9189     089F  28A1               	goto	u1620
  9190     08A0                     u1621:
  9191     08A0  2886               	goto	l92
  9192     08A1                     u1620:
  9193     08A1                     l2020:
  9194                           
  9195                           ;I2C.c: 32:     return I2C_TIMEOUT;
  9196     08A1  3002               	movlw	2
  9197     08A2                     l94:
  9198     08A2  0008               	return
  9199     08A3                     __end_of_I2C_WaitIF:
  9200                           
  9201                           	psect	text39
  9202     0840                     __ptext39:	
  9203 ;; *************** function _I2C_Init *****************
  9204 ;; Defined at:
  9205 ;;		line 41 in file "I2C.c"
  9206 ;; Parameters:    Size  Location     Type
  9207 ;;		None
  9208 ;; Auto vars:     Size  Location     Type
  9209 ;;		None
  9210 ;; Return value:  Size  Location     Type
  9211 ;;                  1    wreg      void 
  9212 ;; Registers used:
  9213 ;;		wreg, status,2, status,0, pclath, cstack
  9214 ;; Tracked objects:
  9215 ;;		On entry : 0/0
  9216 ;;		On exit  : 0/0
  9217 ;;		Unchanged: 0/0
  9218 ;; Data sizes:     COMMON   BANK0   BANK1   BANK2   BANK3   BANK4   BANK5   BANK6   BANK7   BANK8   BANK9  BANK10  BANK1
      +1  BANK12  BANK13  BANK14  BANK15  BANK16  BANK17  BANK18  BANK19  BANK20  BANK21  BANK22  BANK23  BANK24  BANK25
  9219 ;;      Params:         0       0       0       0       0       0       0       0       0       0       0       0       
      +0       0       0       0       0       0       0       0       0       0       0       0       0       0       0
  9220 ;;      Locals:         0       0       0       0       0       0       0       0       0       0       0       0       
      +0       0       0       0       0       0       0       0       0       0       0       0       0       0       0
  9221 ;;      Temps:          1       0       0       0       0       0       0       0       0       0       0       0       
      +0       0       0       0       0       0       0       0       0       0       0       0       0       0       0
  9222 ;;      Totals:         1       0       0       0       0       0       0       0       0       0       0       0       
      +0       0       0       0       0       0       0       0       0       0       0       0       0       0       0
  9223 ;;Total ram usage:        1 bytes
  9224 ;; Hardware stack levels used: 1
  9225 ;; Hardware stack levels required when called: 2
  9226 ;; This function calls:
  9227 ;;		_I2C_ClearErrors
  9228 ;; This function is called by:
  9229 ;;		_main
  9230 ;; This function uses a non-reentrant model
  9231 ;;
  9232                           
  9233     0840                     _I2C_Init:	
  9234                           ;psect for function _I2C_Init
  9235                           
  9236     0840                     l2490:	
  9237                           ;incstack = 0
  9238                           ; Regs used in _I2C_Init: [wreg+status,2+status,0+pclath+cstack]
  9239                           
  9240                           
  9241                           ;I2C.c: 44:     SSPCONbits.SSPM = 0x08;
  9242     0840  0024               	movlb	4	; select bank4
  9243     0841  0815               	movf	21,w	;volatile
  9244     0842  39F0               	andlw	-16
  9245     0843  3808               	iorlw	8
  9246     0844  0095               	movwf	21	;volatile
  9247     0845                     l2492:
  9248                           
  9249                           ;I2C.c: 47:     SSPCONbits.SSPEN = 1;
  9250     0845  1695               	bsf	21,5	;volatile
  9251     0846                     l2494:
  9252                           
  9253                           ;I2C.c: 50:     SSPADD = 79;
  9254     0846  304F               	movlw	79
  9255     0847  0092               	movwf	18	;volatile
  9256     0848                     l2496:
  9257                           
  9258                           ;I2C.c: 52:     I2C_ClearErrors();
  9259     0848  3197  27C9  3188   	fcall	_I2C_ClearErrors
  9260     084B                     l2498:
  9261                           
  9262                           ;I2C.c: 53:     _delay((unsigned long)((10)*(32000000/4000.0)));
  9263     084B  3068               	movlw	104
  9264     084C  00F0               	movwf	??_I2C_Init
  9265     084D  30E4               	movlw	228
  9266     084E                     u3207:
  9267     084E  0B89               	decfsz	9,f
  9268     084F  284E               	goto	u3207
  9269     0850  0BF0               	decfsz	??_I2C_Init,f
  9270     0851  284E               	goto	u3207
  9271     0852  3200               	nop2
  9272     0853                     l98:
  9273     0853  0008               	return
  9274     0854                     __end_of_I2C_Init:
  9275                           
  9276                           	psect	text40
  9277     17C9                     __ptext40:	
  9278 ;; *************** function _I2C_ClearErrors *****************
  9279 ;; Defined at:
  9280 ;;		line 62 in file "I2C.c"
  9281 ;; Parameters:    Size  Location     Type
  9282 ;;		None
  9283 ;; Auto vars:     Size  Location     Type
  9284 ;;		None
  9285 ;; Return value:  Size  Location     Type
  9286 ;;                  1    wreg      void 
  9287 ;; Registers used:
  9288 ;;		None
  9289 ;; Tracked objects:
  9290 ;;		On entry : 0/0
  9291 ;;		On exit  : 0/0
  9292 ;;		Unchanged: 0/0
  9293 ;; Data sizes:     COMMON   BANK0   BANK1   BANK2   BANK3   BANK4   BANK5   BANK6   BANK7   BANK8   BANK9  BANK10  BANK1
      +1  BANK12  BANK13  BANK14  BANK15  BANK16  BANK17  BANK18  BANK19  BANK20  BANK21  BANK22  BANK23  BANK24  BANK25
  9294 ;;      Params:         0       0       0       0       0       0       0       0       0       0       0       0       
      +0       0       0       0       0       0       0       0       0       0       0       0       0       0       0
  9295 ;;      Locals:         0       0       0       0       0       0       0       0       0       0       0       0       
      +0       0       0       0       0       0       0       0       0       0       0       0       0       0       0
  9296 ;;      Temps:          0       0       0       0       0       0       0       0       0       0       0       0       
      +0       0       0       0       0       0       0       0       0       0       0       0       0       0       0
  9297 ;;      Totals:         0       0       0       0       0       0       0       0       0       0       0       0       
      +0       0       0       0       0       0       0       0       0       0       0       0       0       0       0
  9298 ;;Total ram usage:        0 bytes
  9299 ;; Hardware stack levels used: 1
  9300 ;; Hardware stack levels required when called: 1
  9301 ;; This function calls:
  9302 ;;		Nothing
  9303 ;; This function is called by:
  9304 ;;		_I2C_Init
  9305 ;; This function uses a non-reentrant model
  9306 ;;
  9307                           
  9308     17C9                     _I2C_ClearErrors:	
  9309                           ;psect for function _I2C_ClearErrors
  9310                           
  9311     17C9                     l2354:	
  9312                           ;incstack = 0
  9313                           ; Regs used in _I2C_ClearErrors: []
  9314                           
  9315                           
  9316                           ;I2C.c: 65:     SSPCON1bits.SSPOV = 0;
  9317     17C9  0024               	movlb	4	; select bank4
  9318     17CA  1315               	bcf	21,6	;volatile
  9319                           
  9320                           ;I2C.c: 66:     SSPCON1bits.WCOL = 0;
  9321     17CB  1395               	bcf	21,7	;volatile
  9322                           
  9323                           ;I2C.c: 69:     PIR2bits.BCL1IF = 0;
  9324     17CC  0020               	movlb	0	; select bank0
  9325     17CD  1192               	bcf	18,3	;volatile
  9326                           
  9327                           ;I2C.c: 72:     PIR1bits.SSP1IF = 0;
  9328     17CE  1191               	bcf	17,3	;volatile
  9329     17CF                     l101:
  9330     17CF  0008               	return
  9331     17D0                     __end_of_I2C_ClearErrors:
  9332                           
  9333                           	psect	text41
  9334     0BAE                     __ptext41:	
  9335 ;; *************** function _EUSART_Initialize *****************
  9336 ;; Defined at:
  9337 ;;		line 36 in file "EUSART.c"
  9338 ;; Parameters:    Size  Location     Type
  9339 ;;  baudrate        4    6[BANK0 ] const long 
  9340 ;; Auto vars:     Size  Location     Type
  9341 ;;  x               2    9[COMMON] unsigned int 
  9342 ;; Return value:  Size  Location     Type
  9343 ;;                  1    wreg      unsigned char 
  9344 ;; Registers used:
  9345 ;;		wreg, status,2, status,0, pclath, cstack
  9346 ;; Tracked objects:
  9347 ;;		On entry : 0/0
  9348 ;;		On exit  : 0/0
  9349 ;;		Unchanged: 0/0
  9350 ;; Data sizes:     COMMON   BANK0   BANK1   BANK2   BANK3   BANK4   BANK5   BANK6   BANK7   BANK8   BANK9  BANK10  BANK1
      +1  BANK12  BANK13  BANK14  BANK15  BANK16  BANK17  BANK18  BANK19  BANK20  BANK21  BANK22  BANK23  BANK24  BANK25
  9351 ;;      Params:         0       4       0       0       0       0       0       0       0       0       0       0       
      +0       0       0       0       0       0       0       0       0       0       0       0       0       0       0
  9352 ;;      Locals:         2       0       0       0       0       0       0       0       0       0       0       0       
      +0       0       0       0       0       0       0       0       0       0       0       0       0       0       0
  9353 ;;      Temps:          0      12       0       0       0       0       0       0       0       0       0       0       
      +0       0       0       0       0       0       0       0       0       0       0       0       0       0       0
  9354 ;;      Totals:         2      16       0       0       0       0       0       0       0       0       0       0       
      +0       0       0       0       0       0       0       0       0       0       0       0       0       0       0
  9355 ;;Total ram usage:       18 bytes
  9356 ;; Hardware stack levels used: 1
  9357 ;; Hardware stack levels required when called: 2
  9358 ;; This function calls:
  9359 ;;		___aldiv
  9360 ;; This function is called by:
  9361 ;;		_main
  9362 ;; This function uses a non-reentrant model
  9363 ;;
  9364                           
  9365     0BAE                     _EUSART_Initialize:	
  9366                           ;psect for function _EUSART_Initialize
  9367                           
  9368     0BAE                     l2472:	
  9369                           ;incstack = 0
  9370                           ; Regs used in _EUSART_Initialize: [wreg+status,2+status,0+pclath+cstack]
  9371                           
  9372                           
  9373                           ;EUSART.c: 36: char EUSART_Initialize(const long int baudrate);EUSART.c: 37: {;EUSART.c:
      +                           38:     unsigned int x;;EUSART.c: 39:  x = (32000000 - baudrate*64)/(baudrate*64);
  9374     0BAE  0020               	movlb	0	; select bank0
  9375     0BAF  0826               	movf	EUSART_Initialize@baudrate,w
  9376     0BB0  00AA               	movwf	??_EUSART_Initialize
  9377     0BB1  0827               	movf	EUSART_Initialize@baudrate+1,w
  9378     0BB2  00AB               	movwf	??_EUSART_Initialize+1
  9379     0BB3  0828               	movf	EUSART_Initialize@baudrate+2,w
  9380     0BB4  00AC               	movwf	??_EUSART_Initialize+2
  9381     0BB5  0829               	movf	EUSART_Initialize@baudrate+3,w
  9382     0BB6  00AD               	movwf	??_EUSART_Initialize+3
  9383     0BB7  3006               	movlw	6
  9384     0BB8                     u2345:
  9385     0BB8  35AA               	lslf	??_EUSART_Initialize,f
  9386     0BB9  0DAB               	rlf	??_EUSART_Initialize+1,f
  9387     0BBA  0DAC               	rlf	??_EUSART_Initialize+2,f
  9388     0BBB  0DAD               	rlf	??_EUSART_Initialize+3,f
  9389     0BBC                     u2340:
  9390     0BBC  0B89               	decfsz	9,f
  9391     0BBD  2BB8               	goto	u2345
  9392     0BBE  082D               	movf	??_EUSART_Initialize+3,w
  9393     0BBF  00F3               	movwf	___aldiv@divisor+3
  9394     0BC0  082C               	movf	??_EUSART_Initialize+2,w
  9395     0BC1  00F2               	movwf	___aldiv@divisor+2
  9396     0BC2  082B               	movf	??_EUSART_Initialize+1,w
  9397     0BC3  00F1               	movwf	___aldiv@divisor+1
  9398     0BC4  082A               	movf	??_EUSART_Initialize,w
  9399     0BC5  00F0               	movwf	___aldiv@divisor
  9400     0BC6  0826               	movf	EUSART_Initialize@baudrate,w
  9401     0BC7  00AE               	movwf	??_EUSART_Initialize+4
  9402     0BC8  0827               	movf	EUSART_Initialize@baudrate+1,w
  9403     0BC9  00AF               	movwf	??_EUSART_Initialize+5
  9404     0BCA  0828               	movf	EUSART_Initialize@baudrate+2,w
  9405     0BCB  00B0               	movwf	??_EUSART_Initialize+6
  9406     0BCC  0829               	movf	EUSART_Initialize@baudrate+3,w
  9407     0BCD  00B1               	movwf	??_EUSART_Initialize+7
  9408     0BCE  3006               	movlw	6
  9409     0BCF                     u2355:
  9410     0BCF  35AE               	lslf	??_EUSART_Initialize+4,f
  9411     0BD0  0DAF               	rlf	??_EUSART_Initialize+5,f
  9412     0BD1  0DB0               	rlf	??_EUSART_Initialize+6,f
  9413     0BD2  0DB1               	rlf	??_EUSART_Initialize+7,f
  9414     0BD3                     u2350:
  9415     0BD3  0B89               	decfsz	9,f
  9416     0BD4  2BCF               	goto	u2355
  9417     0BD5  3000               	movlw	0
  9418     0BD6  00B2               	movwf	??_EUSART_Initialize+8
  9419     0BD7  3048               	movlw	72
  9420     0BD8  00B3               	movwf	??_EUSART_Initialize+9
  9421     0BD9  30E8               	movlw	232
  9422     0BDA  00B4               	movwf	??_EUSART_Initialize+10
  9423     0BDB  3001               	movlw	1
  9424     0BDC  00B5               	movwf	??_EUSART_Initialize+11
  9425     0BDD  082E               	movf	??_EUSART_Initialize+4,w
  9426     0BDE  02B2               	subwf	??_EUSART_Initialize+8,f
  9427     0BDF  082F               	movf	??_EUSART_Initialize+5,w
  9428     0BE0  3BB3               	subwfb	??_EUSART_Initialize+9,f
  9429     0BE1  0830               	movf	??_EUSART_Initialize+6,w
  9430     0BE2  3BB4               	subwfb	??_EUSART_Initialize+10,f
  9431     0BE3  0831               	movf	??_EUSART_Initialize+7,w
  9432     0BE4  3BB5               	subwfb	??_EUSART_Initialize+11,f
  9433     0BE5  0835               	movf	??_EUSART_Initialize+11,w
  9434     0BE6  00F7               	movwf	___aldiv@dividend+3
  9435     0BE7  0834               	movf	??_EUSART_Initialize+10,w
  9436     0BE8  00F6               	movwf	___aldiv@dividend+2
  9437     0BE9  0833               	movf	??_EUSART_Initialize+9,w
  9438     0BEA  00F5               	movwf	___aldiv@dividend+1
  9439     0BEB  0832               	movf	??_EUSART_Initialize+8,w
  9440     0BEC  00F4               	movwf	___aldiv@dividend
  9441     0BED  318E  26D4  318B   	fcall	___aldiv
  9442     0BF0  0871               	movf	?___aldiv+1,w
  9443     0BF1  00FA               	movwf	EUSART_Initialize@x+1
  9444     0BF2  0870               	movf	?___aldiv,w
  9445     0BF3  00F9               	movwf	EUSART_Initialize@x
  9446     0BF4                     l2474:
  9447                           
  9448                           ;EUSART.c: 41:  SPBRGL = x;
  9449     0BF4  0879               	movf	EUSART_Initialize@x,w
  9450     0BF5  0023               	movlb	3	; select bank3
  9451     0BF6  009B               	movwf	27	;volatile
  9452     0BF7                     l2476:
  9453                           
  9454                           ;EUSART.c: 42:     BRGH = 0;
  9455     0BF7  111E               	bcf	30,2	;volatile
  9456     0BF8                     l2478:
  9457                           
  9458                           ;EUSART.c: 43:     BRG16 = 0;
  9459     0BF8  119F               	bcf	31,3	;volatile
  9460     0BF9                     l2480:
  9461                           
  9462                           ;EUSART.c: 44:     SYNC = 0;
  9463     0BF9  121E               	bcf	30,4	;volatile
  9464     0BFA                     l2482:
  9465                           
  9466                           ;EUSART.c: 45:     SPEN = 1;
  9467     0BFA  179D               	bsf	29,7	;volatile
  9468     0BFB                     l2484:
  9469                           
  9470                           ;EUSART.c: 46:     CREN = 1;
  9471     0BFB  161D               	bsf	29,4	;volatile
  9472     0BFC                     l2486:
  9473                           
  9474                           ;EUSART.c: 47:     TXEN = 1;
  9475     0BFC  169E               	bsf	30,5	;volatile
  9476     0BFD                     l25:
  9477     0BFD  0008               	return
  9478     0BFE                     __end_of_EUSART_Initialize:
  9479                           
  9480                           	psect	text42
  9481     0ED4                     __ptext42:	
  9482 ;; *************** function ___aldiv *****************
  9483 ;; Defined at:
  9484 ;;		line 5 in file "C:\Program Files\Microchip\xc8\v2.46\pic\sources\c99\common\aldiv.c"
  9485 ;; Parameters:    Size  Location     Type
  9486 ;;  divisor         4    0[COMMON] long 
  9487 ;;  dividend        4    4[COMMON] long 
  9488 ;; Auto vars:     Size  Location     Type
  9489 ;;  quotient        4    2[BANK0 ] long 
  9490 ;;  sign            1    1[BANK0 ] unsigned char 
  9491 ;;  counter         1    0[BANK0 ] unsigned char 
  9492 ;; Return value:  Size  Location     Type
  9493 ;;                  4    0[COMMON] long 
  9494 ;; Registers used:
  9495 ;;		wreg, status,2, status,0
  9496 ;; Tracked objects:
  9497 ;;		On entry : 0/0
  9498 ;;		On exit  : 0/0
  9499 ;;		Unchanged: 0/0
  9500 ;; Data sizes:     COMMON   BANK0   BANK1   BANK2   BANK3   BANK4   BANK5   BANK6   BANK7   BANK8   BANK9  BANK10  BANK1
      +1  BANK12  BANK13  BANK14  BANK15  BANK16  BANK17  BANK18  BANK19  BANK20  BANK21  BANK22  BANK23  BANK24  BANK25
  9501 ;;      Params:         8       0       0       0       0       0       0       0       0       0       0       0       
      +0       0       0       0       0       0       0       0       0       0       0       0       0       0       0
  9502 ;;      Locals:         0       6       0       0       0       0       0       0       0       0       0       0       
      +0       0       0       0       0       0       0       0       0       0       0       0       0       0       0
  9503 ;;      Temps:          1       0       0       0       0       0       0       0       0       0       0       0       
      +0       0       0       0       0       0       0       0       0       0       0       0       0       0       0
  9504 ;;      Totals:         9       6       0       0       0       0       0       0       0       0       0       0       
      +0       0       0       0       0       0       0       0       0       0       0       0       0       0       0
  9505 ;;Total ram usage:       15 bytes
  9506 ;; Hardware stack levels used: 1
  9507 ;; Hardware stack levels required when called: 1
  9508 ;; This function calls:
  9509 ;;		Nothing
  9510 ;; This function is called by:
  9511 ;;		_EUSART_Initialize
  9512 ;; This function uses a non-reentrant model
  9513 ;;
  9514                           
  9515     0ED4                     ___aldiv:	
  9516                           ;psect for function ___aldiv
  9517                           
  9518     0ED4                     l2432:	
  9519                           ;incstack = 0
  9520                           ; Regs used in ___aldiv: [wreg+status,2+status,0]
  9521                           
  9522     0ED4  0020               	movlb	0	; select bank0
  9523     0ED5  01A1               	clrf	___aldiv@sign
  9524     0ED6                     l2434:
  9525     0ED6  1FF3               	btfss	___aldiv@divisor+3,7
  9526     0ED7  2ED9               	goto	u2241
  9527     0ED8  2EDA               	goto	u2240
  9528     0ED9                     u2241:
  9529     0ED9  2EE7               	goto	l587
  9530     0EDA                     u2240:
  9531     0EDA                     l2436:
  9532     0EDA  09F0               	comf	___aldiv@divisor,f
  9533     0EDB  09F1               	comf	___aldiv@divisor+1,f
  9534     0EDC  09F2               	comf	___aldiv@divisor+2,f
  9535     0EDD  09F3               	comf	___aldiv@divisor+3,f
  9536     0EDE  0AF0               	incf	___aldiv@divisor,f
  9537     0EDF  1903               	skipnz
  9538     0EE0  0AF1               	incf	___aldiv@divisor+1,f
  9539     0EE1  1903               	skipnz
  9540     0EE2  0AF2               	incf	___aldiv@divisor+2,f
  9541     0EE3  1903               	skipnz
  9542     0EE4  0AF3               	incf	___aldiv@divisor+3,f
  9543     0EE5  01A1               	clrf	___aldiv@sign
  9544     0EE6  0AA1               	incf	___aldiv@sign,f
  9545     0EE7                     l587:
  9546     0EE7  1FF7               	btfss	___aldiv@dividend+3,7
  9547     0EE8  2EEA               	goto	u2251
  9548     0EE9  2EEB               	goto	u2250
  9549     0EEA                     u2251:
  9550     0EEA  2EFA               	goto	l2442
  9551     0EEB                     u2250:
  9552     0EEB                     l2438:
  9553     0EEB  09F4               	comf	___aldiv@dividend,f
  9554     0EEC  09F5               	comf	___aldiv@dividend+1,f
  9555     0EED  09F6               	comf	___aldiv@dividend+2,f
  9556     0EEE  09F7               	comf	___aldiv@dividend+3,f
  9557     0EEF  0AF4               	incf	___aldiv@dividend,f
  9558     0EF0  1903               	skipnz
  9559     0EF1  0AF5               	incf	___aldiv@dividend+1,f
  9560     0EF2  1903               	skipnz
  9561     0EF3  0AF6               	incf	___aldiv@dividend+2,f
  9562     0EF4  1903               	skipnz
  9563     0EF5  0AF7               	incf	___aldiv@dividend+3,f
  9564     0EF6                     l2440:
  9565     0EF6  3001               	movlw	1
  9566     0EF7  00F8               	movwf	??___aldiv
  9567     0EF8  0878               	movf	??___aldiv,w
  9568     0EF9  06A1               	xorwf	___aldiv@sign,f
  9569     0EFA                     l2442:
  9570     0EFA  3000               	movlw	0
  9571     0EFB  00A5               	movwf	___aldiv@quotient+3
  9572     0EFC  3000               	movlw	0
  9573     0EFD  00A4               	movwf	___aldiv@quotient+2
  9574     0EFE  3000               	movlw	0
  9575     0EFF  00A3               	movwf	___aldiv@quotient+1
  9576     0F00  3000               	movlw	0
  9577     0F01  00A2               	movwf	___aldiv@quotient
  9578     0F02                     l2444:
  9579     0F02  0873               	movf	___aldiv@divisor+3,w
  9580     0F03  0472               	iorwf	___aldiv@divisor+2,w
  9581     0F04  0471               	iorwf	___aldiv@divisor+1,w
  9582     0F05  0470               	iorwf	___aldiv@divisor,w
  9583     0F06  1903               	skipnz
  9584     0F07  2F09               	goto	u2261
  9585     0F08  2F0A               	goto	u2260
  9586     0F09                     u2261:
  9587     0F09  2F4B               	goto	l2464
  9588     0F0A                     u2260:
  9589     0F0A                     l2446:
  9590     0F0A  01A0               	clrf	___aldiv@counter
  9591     0F0B  0AA0               	incf	___aldiv@counter,f
  9592     0F0C  2F18               	goto	l2450
  9593     0F0D                     l2448:
  9594     0F0D  3001               	movlw	1
  9595     0F0E                     u2275:
  9596     0F0E  35F0               	lslf	___aldiv@divisor,f
  9597     0F0F  0DF1               	rlf	___aldiv@divisor+1,f
  9598     0F10  0DF2               	rlf	___aldiv@divisor+2,f
  9599     0F11  0DF3               	rlf	___aldiv@divisor+3,f
  9600     0F12  0B89               	decfsz	9,f
  9601     0F13  2F0E               	goto	u2275
  9602     0F14  3001               	movlw	1
  9603     0F15  00F8               	movwf	??___aldiv
  9604     0F16  0878               	movf	??___aldiv,w
  9605     0F17  07A0               	addwf	___aldiv@counter,f
  9606     0F18                     l2450:
  9607     0F18  1FF3               	btfss	___aldiv@divisor+3,7
  9608     0F19  2F1B               	goto	u2281
  9609     0F1A  2F1C               	goto	u2280
  9610     0F1B                     u2281:
  9611     0F1B  2F0D               	goto	l2448
  9612     0F1C                     u2280:
  9613     0F1C                     l2452:
  9614     0F1C  3001               	movlw	1
  9615     0F1D                     u2295:
  9616     0F1D  35A2               	lslf	___aldiv@quotient,f
  9617     0F1E  0DA3               	rlf	___aldiv@quotient+1,f
  9618     0F1F  0DA4               	rlf	___aldiv@quotient+2,f
  9619     0F20  0DA5               	rlf	___aldiv@quotient+3,f
  9620     0F21  0B89               	decfsz	9,f
  9621     0F22  2F1D               	goto	u2295
  9622     0F23                     l2454:
  9623     0F23  0873               	movf	___aldiv@divisor+3,w
  9624     0F24  0277               	subwf	___aldiv@dividend+3,w
  9625     0F25  1D03               	skipz
  9626     0F26  2F31               	goto	u2305
  9627     0F27  0872               	movf	___aldiv@divisor+2,w
  9628     0F28  0276               	subwf	___aldiv@dividend+2,w
  9629     0F29  1D03               	skipz
  9630     0F2A  2F31               	goto	u2305
  9631     0F2B  0871               	movf	___aldiv@divisor+1,w
  9632     0F2C  0275               	subwf	___aldiv@dividend+1,w
  9633     0F2D  1D03               	skipz
  9634     0F2E  2F31               	goto	u2305
  9635     0F2F  0870               	movf	___aldiv@divisor,w
  9636     0F30  0274               	subwf	___aldiv@dividend,w
  9637     0F31                     u2305:
  9638     0F31  1C03               	skipc
  9639     0F32  2F34               	goto	u2301
  9640     0F33  2F35               	goto	u2300
  9641     0F34                     u2301:
  9642     0F34  2F3E               	goto	l2460
  9643     0F35                     u2300:
  9644     0F35                     l2456:
  9645     0F35  0870               	movf	___aldiv@divisor,w
  9646     0F36  02F4               	subwf	___aldiv@dividend,f
  9647     0F37  0871               	movf	___aldiv@divisor+1,w
  9648     0F38  3BF5               	subwfb	___aldiv@dividend+1,f
  9649     0F39  0872               	movf	___aldiv@divisor+2,w
  9650     0F3A  3BF6               	subwfb	___aldiv@dividend+2,f
  9651     0F3B  0873               	movf	___aldiv@divisor+3,w
  9652     0F3C  3BF7               	subwfb	___aldiv@dividend+3,f
  9653     0F3D                     l2458:
  9654     0F3D  1422               	bsf	___aldiv@quotient,0
  9655     0F3E                     l2460:
  9656     0F3E  3001               	movlw	1
  9657     0F3F                     u2315:
  9658     0F3F  36F3               	lsrf	___aldiv@divisor+3,f
  9659     0F40  0CF2               	rrf	___aldiv@divisor+2,f
  9660     0F41  0CF1               	rrf	___aldiv@divisor+1,f
  9661     0F42  0CF0               	rrf	___aldiv@divisor,f
  9662     0F43  0B89               	decfsz	9,f
  9663     0F44  2F3F               	goto	u2315
  9664     0F45                     l2462:
  9665     0F45  3001               	movlw	1
  9666     0F46  02A0               	subwf	___aldiv@counter,f
  9667     0F47  1D03               	btfss	3,2
  9668     0F48  2F4A               	goto	u2321
  9669     0F49  2F4B               	goto	u2320
  9670     0F4A                     u2321:
  9671     0F4A  2F1C               	goto	l2452
  9672     0F4B                     u2320:
  9673     0F4B                     l2464:
  9674     0F4B  0821               	movf	___aldiv@sign,w
  9675     0F4C  1903               	btfsc	3,2
  9676     0F4D  2F4F               	goto	u2331
  9677     0F4E  2F50               	goto	u2330
  9678     0F4F                     u2331:
  9679     0F4F  2F5B               	goto	l2468
  9680     0F50                     u2330:
  9681     0F50                     l2466:
  9682     0F50  09A2               	comf	___aldiv@quotient,f
  9683     0F51  09A3               	comf	___aldiv@quotient+1,f
  9684     0F52  09A4               	comf	___aldiv@quotient+2,f
  9685     0F53  09A5               	comf	___aldiv@quotient+3,f
  9686     0F54  0AA2               	incf	___aldiv@quotient,f
  9687     0F55  1903               	skipnz
  9688     0F56  0AA3               	incf	___aldiv@quotient+1,f
  9689     0F57  1903               	skipnz
  9690     0F58  0AA4               	incf	___aldiv@quotient+2,f
  9691     0F59  1903               	skipnz
  9692     0F5A  0AA5               	incf	___aldiv@quotient+3,f
  9693     0F5B                     l2468:
  9694     0F5B  0825               	movf	___aldiv@quotient+3,w
  9695     0F5C  00F3               	movwf	?___aldiv+3
  9696     0F5D  0824               	movf	___aldiv@quotient+2,w
  9697     0F5E  00F2               	movwf	?___aldiv+2
  9698     0F5F  0823               	movf	___aldiv@quotient+1,w
  9699     0F60  00F1               	movwf	?___aldiv+1
  9700     0F61  0822               	movf	___aldiv@quotient,w
  9701     0F62  00F0               	movwf	?___aldiv
  9702     0F63                     l597:
  9703     0F63  0008               	return
  9704     0F64                     __end_of___aldiv:
  9705                           
  9706                           	psect	intentry
  9707     0004                     __pintentry:	
  9708 ;; *************** function _ISR *****************
  9709 ;; Defined at:
  9710 ;;		line 120 in file "main.c"
  9711 ;; Parameters:    Size  Location     Type
  9712 ;;		None
  9713 ;; Auto vars:     Size  Location     Type
  9714 ;;		None
  9715 ;; Return value:  Size  Location     Type
  9716 ;;                  1    wreg      void 
  9717 ;; Registers used:
  9718 ;;		wreg
  9719 ;; Tracked objects:
  9720 ;;		On entry : 0/0
  9721 ;;		On exit  : 0/0
  9722 ;;		Unchanged: 0/0
  9723 ;; Data sizes:     COMMON   BANK0   BANK1   BANK2   BANK3   BANK4   BANK5   BANK6   BANK7   BANK8   BANK9  BANK10  BANK1
      +1  BANK12  BANK13  BANK14  BANK15  BANK16  BANK17  BANK18  BANK19  BANK20  BANK21  BANK22  BANK23  BANK24  BANK25
  9724 ;;      Params:         0       0       0       0       0       0       0       0       0       0       0       0       
      +0       0       0       0       0       0       0       0       0       0       0       0       0       0       0
  9725 ;;      Locals:         0       0       0       0       0       0       0       0       0       0       0       0       
      +0       0       0       0       0       0       0       0       0       0       0       0       0       0       0
  9726 ;;      Temps:          0       0       0       0       0       0       0       0       0       0       0       0       
      +0       0       0       0       0       0       0       0       0       0       0       0       0       0       0
  9727 ;;      Totals:         0       0       0       0       0       0       0       0       0       0       0       0       
      +0       0       0       0       0       0       0       0       0       0       0       0       0       0       0
  9728 ;;Total ram usage:        0 bytes
  9729 ;; Hardware stack levels used: 1
  9730 ;; This function calls:
  9731 ;;		Nothing
  9732 ;; This function is called by:
  9733 ;;		Interrupt level 1
  9734 ;; This function uses a non-reentrant model
  9735 ;;
  9736                           
  9737     0004                     _ISR:
  9738                           
  9739                           ;incstack = 0
  9740     0004  147E               	bsf	int$flags,0	;set compiler interrupt flag (level 1)
  9741                           
  9742                           ; Regs used in _ISR: [wreg]
  9743     0005  3180               	pagesel	$
  9744     0006                     i1l2848:
  9745                           
  9746                           ;main.c: 122:     if (INTCONbits.TMR0IF)
  9747     0006  1D0B               	btfss	11,2	;volatile
  9748     0007  2809               	goto	u295_21
  9749     0008  280A               	goto	u295_20
  9750     0009                     u295_21:
  9751     0009  2817               	goto	i1l232
  9752     000A                     u295_20:
  9753     000A                     i1l2850:
  9754                           
  9755                           ;main.c: 123:     {;main.c: 124:         TMR0 = 6;
  9756     000A  3006               	movlw	6
  9757     000B  0020               	movlb	0	; select bank0
  9758     000C  0095               	movwf	21	;volatile
  9759     000D                     i1l2852:
  9760                           
  9761                           ;main.c: 125:         INTCONbits.TMR0IF = 0;
  9762     000D  110B               	bcf	11,2	;volatile
  9763                           
  9764                           ;main.c: 126:         millis_counter++;
  9765     000E  3001               	movlw	1
  9766     000F  0022               	movlb	2	; select bank2
  9767     0010  07CA               	addwf	_millis_counter^(0+256),f	;volatile
  9768     0011  3000               	movlw	0
  9769     0012  3DCB               	addwfc	(_millis_counter+1)^(0+256),f	;volatile
  9770     0013  3000               	movlw	0
  9771     0014  3DCC               	addwfc	(_millis_counter+2)^(0+256),f	;volatile
  9772     0015  3000               	movlw	0
  9773     0016  3DCD               	addwfc	(_millis_counter+3)^(0+256),f	;volatile
  9774     0017                     i1l232:
  9775     0017  107E               	bcf	int$flags,0	;clear compiler interrupt flag (level 1)
  9776     0018  0009               	retfie
  9777     0019                     __end_of_ISR:
  9778     007E                     btemp	set	126	;btemp
  9779     007E                     int$flags	set	126
  9780     007E                     wtemp0	set	126
  9781                           
  9782                           	psect	config
  9783                           
  9784                           ;Config register CONFIG1 @ 0x8007
  9785                           ;	Oscillator Selection Bits
  9786                           ;	FOSC = INTOSC, INTOSC oscillator: I/O function on CLKIN pin
  9787                           ;	Watchdog Timer Enable
  9788                           ;	WDTE = OFF, WDT disabled
  9789                           ;	Power-up Timer Enable
  9790                           ;	PWRTE = OFF, PWRT disabled
  9791                           ;	MCLR Pin Function Select
  9792                           ;	MCLRE = OFF, MCLR/VPP pin function is digital input if LVP bit is also 0.
  9793                           ;	Flash Program Memory Code Protection
  9794                           ;	CP = OFF, Program memory code protection is disabled
  9795                           ;	Brown-out Reset Enable
  9796                           ;	BOREN = OFF, Brown-out Reset disabled
  9797                           ;	Clock Out Enable
  9798                           ;	CLKOUTEN = OFF, CLKOUT function is disabled. I/O or oscillator function on the CLKOUT 
      +                          pin
  9799                           ;	Internal/External Switchover Mode
  9800                           ;	IESO = ON, Internal/External Switchover Mode is enabled
  9801                           ;	Fail-Safe Clock Monitor Enable
  9802                           ;	FCMEN = OFF, Fail-Safe Clock Monitor is disabled
  9803     8007                     	org	32775
  9804     8007  19A4               	dw	6564
  9805                           
  9806                           ;Config register CONFIG2 @ 0x8008
  9807                           ;	Flash Memory Self-Write Protection
  9808                           ;	WRT = OFF, Write protection off
  9809                           ;	Peripheral Pin Select one-way control
  9810                           ;	PPS1WAY = ON, The PPSLOCK bit cannot be cleared once it is set by software
  9811                           ;	Zero-cross detect disable
  9812                           ;	ZCDDIS = ON, ZCD disabled. ZCD can be enabled by setting the ZCDSEN bit of ZCDCON
  9813                           ;	Phase Lock Loop enable
  9814                           ;	PLLEN = OFF, 4x PLL is disabled
  9815                           ;	Stack Overflow/Underflow Reset Enable
  9816                           ;	STVREN = ON, Stack Overflow or Underflow will cause a Reset
  9817                           ;	Brown-out Reset Voltage Selection
  9818                           ;	BORV = LO, Brown-out Reset Voltage (Vbor), low trip point selected.
  9819                           ;	Low-Power Brown Out Reset
  9820                           ;	LPBOR = OFF, Low-Power BOR is disabled
  9821                           ;	In-Circuit Debugger Mode
  9822                           ;	DEBUG = 0x1, unprogrammed default
  9823                           ;	Low-Voltage Programming Enable
  9824                           ;	LVP = OFF, High-voltage on MCLR/VPP must be used for programming
  9825     8008                     	org	32776
  9826     8008  1EFF               	dw	7935

Data Sizes:
    Strings     260
    Constant    208
    Data        4
    BSS         165
    Persistent  32
    Stack       0

Auto Spaces:
    Space          Size  Autos    Used
    COMMON           14     14      14
    BANK0            80     59      80
    BANK1            80     80      80
    BANK2            80     11      63
    BANK3            80      0      32
    BANK4            80      0      64
    BANK5            80      0       0
    BANK6            80      0       0
    BANK7            80      0       0
    BANK8            80      0       0
    BANK9            80      0       0
    BANK10           80      0       0
    BANK11           80      0       0
    BANK12           80      0       0
    BANK13           80      0       0
    BANK14           80      0       0
    BANK15           80      0       0
    BANK16           80      0       0
    BANK17           80      0       0
    BANK18           80      0       0
    BANK19           80      0       0
    BANK20           80      0       0
    BANK21           80      0       0
    BANK22           80      0       0
    BANK23           80      0       0
    BANK24           80      0       0
    BANK25           32      0       0

Pointer List with Targets:

    averageDCEstimator@p	PTR long  size(1) Largest target is 4
		 -> pba_ir_avg_reg(BANK2[4]), 

    EUSART_Write_Text@text	PTR unsigned char  size(2) Largest target is 32
		 -> STR_1(CODE[2]), STR_10(CODE[4]), STR_11(CODE[7]), STR_12(CODE[7]), 
		 -> STR_13(CODE[10]), STR_14(CODE[8]), STR_15(CODE[2]), STR_16(CODE[12]), 
		 -> STR_17(CODE[3]), STR_2(CODE[31]), STR_3(CODE[32]), STR_4(CODE[31]), 
		 -> STR_5(CODE[10]), STR_6(CODE[29]), STR_7(CODE[30]), STR_8(CODE[23]), 
		 -> STR_9(CODE[24]), UART_PrintUint32@c(BANK0[2]), 

    i2c_read_bytes@dst	PTR unsigned char  size(1) Largest target is 6
		 -> MAX30102_check@buf(BANK0[6]), readRegister8@val(BANK0[1]), 

    I2C_ReadByte@data	PTR unsigned char  size(1) Largest target is 6
		 -> MAX30102_check@buf(BANK0[6]), readRegister8@val(BANK0[1]), 

    i2c_write_bytes@src	PTR unsigned char  size(1) Largest target is 1
		 -> writeRegister8@value(COMMON[1]), 

    MAX30102_check@ir_buf	PTR unsigned long  size(1) Largest target is 32
		 -> main@ir_buf(BANK1[32]), 

    MAX30102_check@red_buf	PTR unsigned long  size(1) Largest target is 32
		 -> main@red_buf(BANK1[32]), 


Critical Paths under _main in COMMON

    _main->_UART_PrintUint32
    _spo2_compute->___lldiv
    _checkForBeat->_lowPassFIRFilter
    _mul16->___lmul
    _bpm_record_beat->___lldiv
    _bpm_calculate->___lldiv
    _UART_PrintUint16->_UART_PrintUint32
    _UART_PrintUint32->___lldiv
    ___lldiv->___lmul
    _EUSART_Write_Text->_EUSART_Write
    _MAX30102_check->_i2c_read_bytes
    _readRegister8->_i2c_read_bytes
    _i2c_read_bytes->_I2C_ReadByte
    _I2C_RepeatedStart->_I2C_WaitIF
    _I2C_RepeatedStart->_I2C_WaitIdle
    _I2C_ReadByte->_I2C_WaitIF
    _I2C_ReadByte->_I2C_WaitIdle
    _MAX30102_clearFIFO->_writeRegister8
    _writeRegister8->_i2c_write_bytes
    _i2c_write_bytes->_I2C_WriteByte
    _I2C_WriteByte->_I2C_WaitIF
    _I2C_WriteByte->_I2C_WaitIdle
    _I2C_Stop->_I2C_WaitIF
    _I2C_Stop->_I2C_WaitIdle
    _I2C_Start->_I2C_WaitIF
    _I2C_Start->_I2C_WaitIdle
    _EUSART_Initialize->___aldiv

Critical Paths under _ISR in COMMON

    None.

Critical Paths under _main in BANK0

    _main->_bpm_record_beat
    _spo2_compute->___lldiv
    _checkForBeat->_lowPassFIRFilter
    _lowPassFIRFilter->_mul16
    _bpm_record_beat->___lldiv
    _bpm_calculate->___lldiv
    _UART_PrintUint16->_UART_PrintUint32
    _UART_PrintUint32->___lldiv
    _MAX30102_check->_readRegister8
    _MAX30102_Init->_MAX30102_softReset
    _MAX30102_softReset->_bitMask
    _bitMask->_readRegister8
    _EUSART_Initialize->___aldiv

Critical Paths under _ISR in BANK0

    None.

Critical Paths under _main in BANK1

    None.

Critical Paths under _ISR in BANK1

    None.

Critical Paths under _main in BANK2

    None.

Critical Paths under _ISR in BANK2

    None.

Critical Paths under _main in BANK3

    None.

Critical Paths under _ISR in BANK3

    None.

Critical Paths under _main in BANK4

    None.

Critical Paths under _ISR in BANK4

    None.

Critical Paths under _main in BANK5

    None.

Critical Paths under _ISR in BANK5

    None.

Critical Paths under _main in BANK6

    None.

Critical Paths under _ISR in BANK6

    None.

Critical Paths under _main in BANK7

    None.

Critical Paths under _ISR in BANK7

    None.

Critical Paths under _main in BANK8

    None.

Critical Paths under _ISR in BANK8

    None.

Critical Paths under _main in BANK9

    None.

Critical Paths under _ISR in BANK9

    None.

Critical Paths under _main in BANK10

    None.

Critical Paths under _ISR in BANK10

    None.

Critical Paths under _main in BANK11

    None.

Critical Paths under _ISR in BANK11

    None.

Critical Paths under _main in BANK12

    None.

Critical Paths under _ISR in BANK12

    None.

Critical Paths under _main in BANK13

    None.

Critical Paths under _ISR in BANK13

    None.

Critical Paths under _main in BANK14

    None.

Critical Paths under _ISR in BANK14

    None.

Critical Paths under _main in BANK15

    None.

Critical Paths under _ISR in BANK15

    None.

Critical Paths under _main in BANK16

    None.

Critical Paths under _ISR in BANK16

    None.

Critical Paths under _main in BANK17

    None.

Critical Paths under _ISR in BANK17

    None.

Critical Paths under _main in BANK18

    None.

Critical Paths under _ISR in BANK18

    None.

Critical Paths under _main in BANK19

    None.

Critical Paths under _ISR in BANK19

    None.

Critical Paths under _main in BANK20

    None.

Critical Paths under _ISR in BANK20

    None.

Critical Paths under _main in BANK21

    None.

Critical Paths under _ISR in BANK21

    None.

Critical Paths under _main in BANK22

    None.

Critical Paths under _ISR in BANK22

    None.

Critical Paths under _main in BANK23

    None.

Critical Paths under _ISR in BANK23

    None.

Critical Paths under _main in BANK24

    None.

Critical Paths under _ISR in BANK24

    None.

Critical Paths under _main in BANK25

    None.

Critical Paths under _ISR in BANK25

    None.

Call Graph Tables:

 ---------------------------------------------------------------------------------
 (Depth) Function   	        Calls       Base Space   Used Autos Params    Refs
 ---------------------------------------------------------------------------------
 (0) _main                                               102   102      0   73559
                                             48 BANK0     11    11      0
                                              0 BANK1     80    80      0
                                              0 BANK2     11    11      0
                  _EUSART_Initialize
                  _EUSART_Write_Text
                           _I2C_Init
                      _MAX30102_Init
                     _MAX30102_check
                          _TMR0_Init
                   _UART_PrintUint16
                   _UART_PrintUint32
                      _bpm_calculate
                           _bpm_init
                    _bpm_record_beat
                       _checkForBeat
                           _initMain
                             _millis
                           _pba_init
                    _spo2_accumulate
                       _spo2_compute
                         _spo2_reset
 ---------------------------------------------------------------------------------
 (1) _spo2_reset                                           0     0      0       0
 ---------------------------------------------------------------------------------
 (1) _spo2_compute                                        32    32      0    2675
                                             13 BANK0     32    32      0
                            ___lldiv
                             ___lmul
 ---------------------------------------------------------------------------------
 (1) _spo2_accumulate                                     12     4      8     372
                                              0 COMMON    12     4      8
 ---------------------------------------------------------------------------------
 (1) _pba_init                                             2     2      0      68
                                              0 COMMON     2     2      0
 ---------------------------------------------------------------------------------
 (1) _initMain                                             2     2      0       0
                                              0 COMMON     2     2      0
                        _internal_32
 ---------------------------------------------------------------------------------
 (2) _internal_32                                          0     0      0       0
 ---------------------------------------------------------------------------------
 (1) _checkForBeat                                        10     6      4    1950
                                             14 BANK0     10     6      4
                 _averageDCEstimator
                   _lowPassFIRFilter
 ---------------------------------------------------------------------------------
 (2) _lowPassFIRFilter                                    12    10      2    1586
                                             12 COMMON     2     0      2
                                              4 BANK0     10    10      0
                              _mul16
 ---------------------------------------------------------------------------------
 (3) _mul16                                                4     0      4    1352
                                              0 BANK0      4     0      4
                             ___lmul
 ---------------------------------------------------------------------------------
 (2) _averageDCEstimator                                  12    10      2     197
                                              0 COMMON    12    10      2
 ---------------------------------------------------------------------------------
 (1) _bpm_record_beat                                     35    31      4    2942
                                             13 BANK0     35    31      4
                            ___lldiv
                             ___lmul
 ---------------------------------------------------------------------------------
 (2) ___lmul                                              12     4      8    1004
                                              0 COMMON    12     4      8
 ---------------------------------------------------------------------------------
 (1) _bpm_init                                             2     2      0      90
                                              0 COMMON     2     2      0
 ---------------------------------------------------------------------------------
 (1) _bpm_calculate                                        6     4      2    1445
                                             13 BANK0      6     4      2
                            ___lldiv
 ---------------------------------------------------------------------------------
 (1) _UART_PrintUint16                                     2     0      2    3849
                                             31 BANK0      2     0      2
                   _UART_PrintUint32
 ---------------------------------------------------------------------------------
 (1) _UART_PrintUint32                                    19    15      4    3675
                                             13 COMMON     1     1      0
                                             13 BANK0     18    14      4
                  _EUSART_Write_Text
                            ___lldiv
                            ___llmod
 ---------------------------------------------------------------------------------
 (2) ___llmod                                             10     2      8     311
                                              0 COMMON    10     2      8
 ---------------------------------------------------------------------------------
 (2) ___lldiv                                             14     6      8    1378
                                             12 COMMON     1     1      0
                                              0 BANK0     13     5      8
                             ___lmul (ARG)
 ---------------------------------------------------------------------------------
 (2) _EUSART_Write_Text                                    5     3      2    1480
                                              1 COMMON     5     3      2
                       _EUSART_Write
 ---------------------------------------------------------------------------------
 (3) _EUSART_Write                                         1     1      0      22
                                              0 COMMON     1     1      0
 ---------------------------------------------------------------------------------
 (1) _TMR0_Init                                            0     0      0       0
 ---------------------------------------------------------------------------------
 (1) _MAX30102_check                                      29    27      2   12233
                                              2 BANK0     29    27      2
                     _i2c_read_bytes
                      _readRegister8
 ---------------------------------------------------------------------------------
 (1) _MAX30102_Init                                        0     0      0   41357
                 _MAX30102_clearFIFO
                 _MAX30102_softReset
                            _bitMask
                      _readRegister8
                     _writeRegister8
 ---------------------------------------------------------------------------------
 (2) _MAX30102_softReset                                   9     9      0   16950
                                              6 BANK0      9     9      0
                            _bitMask
                             _millis
                      _readRegister8
 ---------------------------------------------------------------------------------
 (1) _millis                                               8     4      4      23
                                              0 COMMON     8     4      4
 ---------------------------------------------------------------------------------
 (2) _bitMask                                              4     2      2   11073
                                              2 BANK0      4     2      2
                      _readRegister8
                     _writeRegister8
 ---------------------------------------------------------------------------------
 (2) _readRegister8                                        2     2      0    5808
                                              0 BANK0      2     2      0
                     _i2c_read_bytes
 ---------------------------------------------------------------------------------
 (3) _i2c_read_bytes                                       8     5      3    5739
                                              6 COMMON     8     5      3
                       _I2C_ReadByte
                  _I2C_RepeatedStart
                          _I2C_Start
                           _I2C_Stop
                      _I2C_WriteByte
 ---------------------------------------------------------------------------------
 (4) _I2C_RepeatedStart                                    1     1      0     970
                                              3 COMMON     1     1      0
                         _I2C_WaitIF
                       _I2C_WaitIdle
 ---------------------------------------------------------------------------------
 (4) _I2C_ReadByte                                         3     2      1    1190
                                              3 COMMON     3     2      1
                         _I2C_WaitIF
                       _I2C_WaitIdle
 ---------------------------------------------------------------------------------
 (2) _MAX30102_clearFIFO                                   0     0      0    3763
                     _writeRegister8
 ---------------------------------------------------------------------------------
 (2) _writeRegister8                                       2     1      1    3763
                                             11 COMMON     2     1      1
                    _i2c_write_bytes
 ---------------------------------------------------------------------------------
 (3) _i2c_write_bytes                                      6     3      3    3262
                                              5 COMMON     6     3      3
                          _I2C_Start
                           _I2C_Stop
                      _I2C_WriteByte
 ---------------------------------------------------------------------------------
 (4) _I2C_WriteByte                                        2     2      0     992
                                              3 COMMON     2     2      0
                         _I2C_WaitIF
                       _I2C_WaitIdle
 ---------------------------------------------------------------------------------
 (4) _I2C_Stop                                             1     1      0     938
                                              3 COMMON     1     1      0
                         _I2C_WaitIF
                       _I2C_WaitIdle
 ---------------------------------------------------------------------------------
 (4) _I2C_Start                                            1     1      0     970
                                              3 COMMON     1     1      0
                         _I2C_WaitIF
                       _I2C_WaitIdle
 ---------------------------------------------------------------------------------
 (5) _I2C_WaitIdle                                         3     1      2     402
                                              0 COMMON     3     1      2
 ---------------------------------------------------------------------------------
 (5) _I2C_WaitIF                                           3     1      2     478
                                              0 COMMON     3     1      2
 ---------------------------------------------------------------------------------
 (1) _I2C_Init                                             1     1      0       0
                                              0 COMMON     1     1      0
                    _I2C_ClearErrors
 ---------------------------------------------------------------------------------
 (2) _I2C_ClearErrors                                      0     0      0       0
 ---------------------------------------------------------------------------------
 (1) _EUSART_Initialize                                   18    14      4     595
                                              9 COMMON     2     2      0
                                              6 BANK0     16    12      4
                            ___aldiv
 ---------------------------------------------------------------------------------
 (2) ___aldiv                                             15     7      8     452
                                              0 COMMON     9     1      8
                                              0 BANK0      6     6      0
 ---------------------------------------------------------------------------------
 Estimated maximum stack depth 5
 ---------------------------------------------------------------------------------
 (Depth) Function   	        Calls       Base Space   Used Autos Params    Refs
 ---------------------------------------------------------------------------------
 (8) _ISR                                                  0     0      0       0
 ---------------------------------------------------------------------------------
 Estimated maximum stack depth 8
 ---------------------------------------------------------------------------------

 Call Graph Graphs:

 _main (ROOT)
   _EUSART_Initialize
     ___aldiv
   _EUSART_Write_Text
     _EUSART_Write
   _I2C_Init
     _I2C_ClearErrors
   _MAX30102_Init
     _MAX30102_clearFIFO
       _writeRegister8
         _i2c_write_bytes
           _I2C_Start
             _I2C_WaitIF
             _I2C_WaitIdle
           _I2C_Stop
             _I2C_WaitIF
             _I2C_WaitIdle
           _I2C_WriteByte
             _I2C_WaitIF
             _I2C_WaitIdle
     _MAX30102_softReset
       _bitMask
         _readRegister8
           _i2c_read_bytes
             _I2C_ReadByte
               _I2C_WaitIF
               _I2C_WaitIdle
             _I2C_RepeatedStart
               _I2C_WaitIF
               _I2C_WaitIdle
             _I2C_Start
             _I2C_Stop
             _I2C_WriteByte
         _writeRegister8
       _millis
       _readRegister8
     _bitMask
     _readRegister8
     _writeRegister8
   _MAX30102_check
     _i2c_read_bytes
     _readRegister8
   _TMR0_Init
   _UART_PrintUint16
     _UART_PrintUint32
       _EUSART_Write_Text
       ___lldiv
         ___lmul (ARG)
       ___llmod
   _UART_PrintUint32
   _bpm_calculate
     ___lldiv
   _bpm_init
   _bpm_record_beat
     ___lldiv
     ___lmul
   _checkForBeat
     _averageDCEstimator
     _lowPassFIRFilter
       _mul16
         ___lmul
   _initMain
     _internal_32
   _millis
   _pba_init
   _spo2_accumulate
   _spo2_compute
     ___lldiv
     ___lmul
   _spo2_reset

 _ISR (ROOT)

 Address spaces:
Name               Size   Autos  Total    Cost      Usage
BIGRAM             7F0      0       0       0        0.0%
NULL                 0      0       0       0        0.0%
CODE                 0      0       0       0        0.0%
BITCOMMON            E      0       0       1        0.0%
BITSFR0              0      0       0       1        0.0%
SFR0                 0      0       0       1        0.0%
COMMON               E      E       E       2      100.0%
BITSFR1              0      0       0       2        0.0%
SFR1                 0      0       0       2        0.0%
BITSFR2              0      0       0       3        0.0%
SFR2                 0      0       0       3        0.0%
STACK                0      0       0       3        0.0%
BITBANK0            50      0       0       4        0.0%
BITSFR3              0      0       0       4        0.0%
SFR3                 0      0       0       4        0.0%
BANK0               50     3B      50       5      100.0%
BITSFR4              0      0       0       5        0.0%
SFR4                 0      0       0       5        0.0%
BITBANK1            50      0       0       6        0.0%
BITSFR5              0      0       0       6        0.0%
SFR5                 0      0       0       6        0.0%
BANK1               50     50      50       7      100.0%
BITSFR6              0      0       0       7        0.0%
SFR6                 0      0       0       7        0.0%
BITBANK2            50      0       0       8        0.0%
BITSFR7              0      0       0       8        0.0%
SFR7                 0      0       0       8        0.0%
BANK2               50      B      3F       9       78.8%
BITSFR8              0      0       0       9        0.0%
SFR8                 0      0       0       9        0.0%
BITBANK3            50      0       0      10        0.0%
BITSFR9              0      0       0      10        0.0%
SFR9                 0      0       0      10        0.0%
BANK3               50      0      20      11       40.0%
BITSFR10             0      0       0      11        0.0%
SFR10                0      0       0      11        0.0%
BITBANK4            50      0       0      12        0.0%
BITSFR11             0      0       0      12        0.0%
SFR11                0      0       0      12        0.0%
BANK4               50      0      40      13       80.0%
BITSFR12             0      0       0      13        0.0%
SFR12                0      0       0      13        0.0%
BITSFR13             0      0       0      14        0.0%
SFR13                0      0       0      14        0.0%
ABS                  0      0     14D      14        0.0%
BITBANK5            50      0       0      15        0.0%
BITSFR14             0      0       0      15        0.0%
SFR14                0      0       0      15        0.0%
BANK5               50      0       0      16        0.0%
BITSFR15             0      0       0      16        0.0%
SFR15                0      0       0      16        0.0%
BITBANK6            50      0       0      17        0.0%
BITSFR16             0      0       0      17        0.0%
SFR16                0      0       0      17        0.0%
BANK6               50      0       0      18        0.0%
BITSFR17             0      0       0      18        0.0%
SFR17                0      0       0      18        0.0%
BITBANK7            50      0       0      19        0.0%
BITSFR18             0      0       0      19        0.0%
SFR18                0      0       0      19        0.0%
BANK7               50      0       0      20        0.0%
BITSFR19             0      0       0      20        0.0%
SFR19                0      0       0      20        0.0%
BITBANK8            50      0       0      21        0.0%
BITSFR20             0      0       0      21        0.0%
SFR20                0      0       0      21        0.0%
BANK8               50      0       0      22        0.0%
BITSFR21             0      0       0      22        0.0%
SFR21                0      0       0      22        0.0%
BITBANK9            50      0       0      23        0.0%
BITSFR22             0      0       0      23        0.0%
SFR22                0      0       0      23        0.0%
BANK9               50      0       0      24        0.0%
BITSFR23             0      0       0      24        0.0%
SFR23                0      0       0      24        0.0%
BITBANK10           50      0       0      25        0.0%
BITSFR24             0      0       0      25        0.0%
SFR24                0      0       0      25        0.0%
BANK10              50      0       0      26        0.0%
BITSFR25             0      0       0      26        0.0%
SFR25                0      0       0      26        0.0%
BITBANK11           50      0       0      27        0.0%
BITSFR26             0      0       0      27        0.0%
SFR26                0      0       0      27        0.0%
BITSFR27             0      0       0      28        0.0%
SFR27                0      0       0      28        0.0%
DATA                 0      0     14D      28        0.0%
BANK11              50      0       0      29        0.0%
BITSFR28             0      0       0      29        0.0%
SFR28                0      0       0      29        0.0%
BITBANK12           50      0       0      30        0.0%
BITSFR29             0      0       0      30        0.0%
SFR29                0      0       0      30        0.0%
BANK12              50      0       0      31        0.0%
BITSFR30             0      0       0      31        0.0%
SFR30                0      0       0      31        0.0%
BITBANK13           50      0       0      32        0.0%
BITSFR31             0      0       0      32        0.0%
SFR31                0      0       0      32        0.0%
BANK13              50      0       0      33        0.0%
BITBANK14           50      0       0      34        0.0%
BANK14              50      0       0      35        0.0%
BITBANK15           50      0       0      36        0.0%
BANK15              50      0       0      37        0.0%
BITBANK16           50      0       0      38        0.0%
BANK16              50      0       0      39        0.0%
BITBANK17           50      0       0      40        0.0%
BANK17              50      0       0      41        0.0%
BITBANK18           50      0       0      42        0.0%
BANK18              50      0       0      43        0.0%
BITBANK19           50      0       0      44        0.0%
BANK19              50      0       0      45        0.0%
BITBANK20           50      0       0      46        0.0%
BANK20              50      0       0      47        0.0%
BITBANK21           50      0       0      48        0.0%
BANK21              50      0       0      49        0.0%
BITBANK22           50      0       0      50        0.0%
BANK22              50      0       0      51        0.0%
BITBANK23           50      0       0      52        0.0%
BANK23              50      0       0      53        0.0%
BITBANK24           50      0       0      54        0.0%
BANK24              50      0       0      55        0.0%
BITBANK25           20      0       0      56        0.0%
BANK25              20      0       0      57        0.0%


Microchip Technology PIC Macro Assembler V2.46 build 20240104201356 
Symbol Table                                                                                   Sat Feb 07 19:34:23 2026

                _SSPSTATbits 0214                           l25 0BFD                           l41 17D1  
                         l50 0884                           l44 17D9                           l92 0886  
                         l94 08A2                           l98 0853                          l101 17CF  
                        l111 0919                          l112 092E                          l113 092B  
                        l121 08D1                          l122 08E5                          l107 0909  
                        l123 08E3                          l116 093E                          l133 0BAD  
                        l117 0953                          l126 098F                          l134 0B78  
                        l118 0950                          l127 09B0                          l128 09A2  
                        l136 0BAA                          l129 09AA                          l153 080C  
                        l226 17FF                          l410 0DD3                          l322 0CA0  
                        l330 0ED3                          l235 0867                          l403 0C4E  
                        l260 082C                          l420 17E4                          l325 08C2  
                        l350 0FE5                          l430 0090                          l239 0A8A  
                        l263 17F0                          l423 0ACC                          l319 0A17  
                        l431 0090                          l280 0D62                          l352 0FFF  
                        l249 0E4D                          l273 0B16                          l337 0749  
                        l345 0A4B                          l266 083F                          l338 074B  
                        l283 05D1                          l276 081C                          l348 0FB1  
                        l356 05AF                          l452 02D4                          l285 068C  
                        l349 0FCB                          l383 0455                          l376 097E  
                        l536 09E3                          l393 040F                          l379 03CC  
                        l558 0CFB                          l752 0B60                          l587 0EE7  
                        l597 0F63                          _ISR 0004          bpm_record_beat@prev 0048  
   __end_of_UART_PrintUint32 0DD4     __end_of_UART_PrintUint16 17E5                          wreg 0009  
         checkForBeat@dc_est 0035            ??_spo2_accumulate 0078                         ?_ISR 0070  
                       l2010 0885                         l2020 08A1                         l2012 088B  
                       l2030 08F2                         l2102 0991                         l2016 088D  
                       l2024 08E6                         l2112 09A7                         l2104 0994  
                       l2018 0895                         l2034 08F4                         l2026 08E7  
                       l2050 091D                         l2042 090A                         l2114 09A8  
                       l2106 099C                         l2130 0B71                         l2122 0B62  
                       l2210 0DED                         l2202 0DDF                         l2028 08EE  
                       l2036 08FC                         l2052 0925                         l2044 0912  
                       l2132 0B76                         l2124 0B67                         l2220 0E03  
                       l2212 0DF6                         l2204 0DE8                         l2300 082F  
                       l2038 0908                         l2046 0917                         l2118 09AB  
                       l2150 0B9B                         l2070 0942                         l2062 092F  
                       l2230 0E15                         l2222 0E06                         l2214 0DF9  
                       l2206 0DEB                         l2302 0835                         l2310 0CA1  
                       l2160 0BAC                         l2152 0B9C                         l2144 0B8A  
                       l2136 0B7C                         l2128 0B69                         l2072 094A  
                       l2064 0937                         l2240 0E3A                         l2304 0838  
                       l2320 0CCB                         l2312 0CB2                         l2400 0D65  
                       l2058 092D                         l2090 08DD                         l2082 08C3  
                       l2170 0A5F                         l2154 0BA4                         l2146 0B90  
                       l2138 0B84                         l2066 093C                         l2250 0E49  
                       l2242 0E3D                         l2234 0E17                         l2226 0E08  
                       l2218 0DFB                         l2322 0CDD                         l2314 0CB5  
                       l2330 0CF3                         l2410 0D94                         l2402 0D6D  
                       l2306 08A3                         l2084 08CB                         l2180 0A6D  
                       l2164 0A4D                         l2148 0B92                         l2252 0E4C  
                       l2236 0E19                         l2228 0E12                         l2260 081F  
                       l2500 17F1                         l2324 0CE5                         l2316 0CC0  
                       l2340 0B2D                         l2420 0DC2                         l2412 0DB0  
                       l2094 0980                         l2182 0A6F                         l2190 0A83  
                       l2174 0A63                         l2078 0952                         l2246 0E3F  
                       l2238 0E2E                         l2262 0820                         l2510 17FD  
                       l2502 17F4                         l2326 0CE6                         l2318 0CC4  
                       l2342 0B31                         l2350 0B58                         l2334 0B17  
                       l2422 0DC4                         l2414 0DB8                         l2406 0D75  
                       l2270 09B1                         l2440 0EF6                         l2432 0ED4  
                       l2088 08D5                         l2096 0988                         l2168 0A56  
                       l2248 0E43                         l2264 082A                         l2360 0AD6  
                       l2520 0D07                         l2512 17FE                         l2504 17F8  
                       l2256 17D1                         l2328 0CED                         l2344 0B43  
                       l2336 0B1F                         l2424 0DCA                         l2416 0DBD  
                       l2408 0D8F                         l2280 09DB                         l2272 09B9  
                       l2600 06B6                         l2450 0F18                         l2442 0EFA  
                       l2434 0ED6                         l2354 17C9                         l2098 098D  
                       l2362 0AE3                         l2370 0AF7                         l2522 0D61  
                       l2514 0CFC                         l2530 05C9                         l2506 17FB  
                       l2258 17D6                         l2290 0879                         l2346 0B4B  
                       l2338 0B22                         l2426 0DCB                         l2274 09BD  
                       l2610 06ED                         l2602 06C2                         l2460 0F3E  
                       l2452 0F1C                         l2444 0F02                         l2436 0EDA  
                       l2188 0A7F                         l2268 17E6                         l2372 080D  
                       l2196 0DD5                         l2292 0854                         l2364 0AE9  
                       l2516 0D05                         l2540 05E0                         l2532 05CD  
                       l2508 17FC                         l2284 0868                         l2348 0B52  
                       l2276 09C5                         l2380 0E58                         l2620 0713  
                       l2604 06C4                         l2612 06F0                         l2356 0804  
                       l2462 0F45                         l2454 0F23                         l2446 0F0A  
                       l2438 0EEB                         l2198 0DDD                         l2294 0855  
                       l2358 0ACD                         l2550 05F5                         l2542 05E2  
                       l2534 05D6                         l2526 05B2                         l2286 086B  
                       l2278 09CC                         l2710 02DE                         l2374 0C50  
                       l2390 0EAD                         l2382 0E78                         l2630 0736  
                       l2614 06FE                         l2622 0715                         l2606 06C6  
                       l2456 0F35                         l2448 0F0D                         l2464 0F4B  
                       l2480 0BF9                         l2472 0BAE                         l2296 085E  
                       l2368 0AEE                         l2552 067C                         l2544 05E3  
                       l2528 05C6                         l2288 0875                         l2704 095A  
                       l2720 0331                         l2712 02E4                         l2392 0EB1  
                       l2632 0744                         l2624 071C                         l2616 070C  
                       l2608 06D9                         l2800 0A9A                         l2640 0F64  
                       l2466 0F50                         l2458 0F3D                         l2482 0BFA  
                       l2474 0BF4                         l2490 0840                         l2554 0680  
                       l2546 05E5                         l2538 05D8                         l2706 0974  
                       l2730 039C                         l2714 02E8                         l2394 0EB7  
                       l2378 0E4E                         l2626 072A                         l2618 070F  
                       l2810 0AA2                         l2802 0A9C                         l2570 09F3  
                       l2562 09E4                         l2650 0FDD                         l2642 0F93  
                       l2468 0F5B                         l2484 0BFB                         l2476 0BF7  
                       l2492 0845                         l2556 0684                         l2708 0978  
                       l2740 03E1                         l2732 03AE                         l2724 0333  
                       l2716 0314                         l2388 0E79                         l2628 072F  
                       l2820 0AAE                         l2812 0AA3                         l2804 0A9E  
                       l2572 09F5                         l2564 09ED                         l2652 0FF7  
                       l2644 0F97                         l2660 045F                         l2636 0A18  
                       l2900 010E                         l2486 0BFC                         l2478 0BF8  
                       l2494 0846                         l2558 068A                         l2398 0D63  
                       l2750 0403                         l2742 03E5                         l2726 033A  
                       l2718 0322                         l2590 068F                         l2830 0AC6  
                       l2822 0AB3                         l2814 0AA6                         l2806 0A9F  
                       l2582 0A05                         l2574 09F7                         l2566 09EF  
                       l2646 0FA9                         l2670 04EF                         l2662 0496  
                       l2654 0456                         l2638 0A49                         l2910 013D  
                       l2902 011D                         l2496 0848                         l2760 0428  
                       l2752 0408                         l2744 03EB                         l2728 0340  
                       l2592 0693                         l2832 0AC9                         l2824 0AB8  
                       l2816 0AA8                         l2808 0AA0                         l2584 0A0D  
                       l2576 0A02                         l2568 09F1                         l2648 0FC3  
                       l2664 04BC                         l2656 045D                         l2920 0150  
                       l2912 0140                         l2904 012B                         l2498 084B  
                       l2762 042C                         l2754 0411                         l2746 03EF  
                       l2738 03C1                         l2594 06A0                         l2834 0ACB  
                       l2826 0ABD                         l2818 0AA9                         l2586 0A11  
                       l2578 0A04                         l2690 05A6                         l2666 04DF  
                       l2930 0162                         l2922 0152                         l2914 0143  
                       l2906 0131                         l2780 0C0F                         l2772 0BFE  
                       l2764 0432                         l2756 0413                         l2748 03F5  
                       l2596 06AE                         l2588 068D                         l2828 0AC1  
                       l2684 0557                         l2676 04F8                         l2668 04E7  
                       l2940 01AD                         l2924 0159                         l2932 016B  
                       l2908 0136                         l2916 0147                         l2860 0072  
                       l2790 0C49                         l2782 0C29                         l2774 0C05  
                       l2766 0437                         l2758 0418                         l2598 06B2  
                       l2686 0587                         l2678 054E                         l2950 01DC  
                       l2942 01C2                         l2934 0180                         l2926 015C  
                       l2918 014A                         l2870 0094                         l2862 0079  
                       l2854 004F                         l2784 0C38                         l2776 0C0B  
                       l2768 0454                         l2688 0596                         l2944 01C7  
                       l2952 01DF                         l2936 0198                         l2928 015F  
                       l2960 020D                         l2880 00AE                         l2872 0097  
                       l2864 0081                         l2856 0064                         l2794 17DA  
                       l2698 0954                         l2970 0252                         l2962 0213  
                       l2946 01D2                         l2954 01F4                         l2938 01A4  
                       l2890 00C6                         l2882 00AF                         l2874 009A  
                       l2866 0089                         l2858 006B                         l2796 0A8B  
                       l2980 0299                         l2972 026B                         l2964 0218  
                       l2956 0204                         l2948 01D7                         l2892 00CB  
                       l2884 00B1                         l2876 00A3                         l2868 0091  
                       l2798 0A8E                         l2990 02C5                         l2982 02A5  
                       l2974 0272                         l2966 023B                         l2958 0207  
                       l2894 00D5                         l2886 00B4                         l2878 00AC  
                       l2992 02CD                         l2984 02AC                         l2976 028B  
                       l2968 024B                         l2896 00E1                         l2888 00BB  
                       l2986 02B2                         l2978 0292                         l2898 00E4  
                       l2988 02B9                         STR_1 183A                         STR_2 1057  
                       STR_3 1018                         STR_4 1038                         STR_5 180C  
                       STR_6 1094                         STR_7 1076                         STR_8 10C9  
                       STR_9 10B1                         _BRGH 0CF2           checkForBeat@sample 002E  
                       _CREN 0CEC                         u2000 0884                         u2001 0883  
                       u2010 0CB2                         u2011 0CB1                         u2100 0B31  
                       u2101 0B30                         u2030 0CC4                         u2110 0B43  
                       u2031 0CC3                         u2111 0B42                         u2200 0ECD  
                       u3000 011D                         u2025 0CB6                         u3001 011C  
                       u2050 0CDD                         u2130 0B58                         u2210 0D6D  
                       u3010 012B                         u2051 0CDC                         u2131 0B57  
                       u2115 0B3F                         u2211 0D6C                         u3011 012A  
                       u2300 0F35                         u2140 0AED                         u2220 0DB8  
                       u3100 023B                         u3020 0131                         u2301 0F34  
                       u2141 0AEC                         u2045 0CC5                         u2125 0B4C  
                       u2221 0DB7                         u2205 0EC9                         u3101 023A  
                       u3021 0130                         u2150 0B16                         u2070 0CF3  
                       u2230 0DC1                         u3030 0150                         u2151 0B15  
                       u2071 0CF2                         u2055 0CD9                         u2231 0DC0  
                       u3031 014F                         u2320 0F4B                         u2240 0EDA  
                       u2400 05F4                         u2080 0B1F                         u2160 0C67  
                       u3040 0198                         u2321 0F4A                         u2305 0F31  
                       u2241 0ED9                         u2401 05F3                         u2065 0CE7  
                       u2081 0B1E                         u3041 0197                         u2330 0F50  
                       u2250 0EEB                         u1610 088B                         u2410 0605  
                       u2170 0C77                         u3130 0292                         u3050 01AD  
                       u2331 0F4F                         u2315 0F3F                         u2251 0EEA  
                       u1611 088A                         u3131 0291                         u3115 0257  
                       u3051 01AC                         u2260 0F0A                         u2340 0BBC  
                       u1620 08A1                         u1700 08D0                         u2420 0612  
                       u2180 0C9A                         u2500 06B6                         u3140 02B2  
                       u3060 01C7                         u2261 0F09                         u1621 08A0  
                       u1701 08CF                         u2165 0C63                         u2501 06B5  
                       u3141 02B1                         u3125 0277                         u3061 01C6  
                       u2350 0BD3                         u1630 08EE                         u1710 08E2  
                       u2190 0EB7                         u2510 06D9                         u3070 01DC  
                       u3207 084E                         u1631 08ED                         u1711 08E1  
                       u2415 0601                         u2095 0B23                         u2175 0C73  
                       u2191 0EB6                         u2511 06D8                         u3071 01DB  
                       u2280 0F1C                         u1640 08F2                         u1720 098D  
                       u1800 0BA9                         u2360 0D05                         u2440 0648  
                       u2520 06ED                         u2600 0F89                         u3080 0213  
                       u2281 0F1B                         u2345 0BB8                         u1641 08F1  
                       u1721 098C                         u1801 0BA8                         u2361 0D04  
                       u2425 060E                         u2185 0C96                         u2521 06EC  
                       u3081 0212             i2c_write_bytes@i 007A                         u1650 0908  
                       u1730 09A1                         u1810 0A55                         u2450 0655  
                       u2370 05CD                         u2530 06FE                         u2610 0FA9  
                       u3090 0218                         u2275 0F0E                         u2355 0BCF  
                       u1651 0907                         u1731 09A0                         u1811 0A54  
                       u2435 0627                         u2371 05CC                         u2531 06FD  
                       u2515 06D5                         u2611 0FA8                         u3091 0217  
                       u1660 0917                         u1740 09A7                         u1820 0A5F  
                       u1900 0E12                         u2380 05D6                         u2540 070C  
                       u2620 0FC3                         u2700 0530                         u1661 0916  
                       u1741 09A6                         u1821 0A5E                         u1901 0E11  
                       u2445 0644                         u2381 05D5                         u2541 070B  
                       u2525 06E9                         u2621 0FC2                         u2605 0F85  
                       u3157 00CF                         u1670 092A                         u1830 0A6C  
                       u1750 0B67                         u1910 0E2C                         u2470 068A  
                       u2390 05E0                         u2550 071C                         u2630 0FDD  
                       u2710 0556                         u2295 0F1D                         u1671 0929  
                       u1831 0A6B                         u1751 0B66                         u1911 0E2A  
                       u2471 0689                         u2455 0651                         u2391 05DF  
                       u2551 071B                         u2535 06FA                         u3167 0A93  
                       u2631 0FDC                         u2615 0FA5                         u2711 0555  
                       u1840 0A7E                         u1760 0B76                         u1680 093C  
                       u1920 0E2D                         u2800 033A                         u2560 072A  
                       u2480 0A17                         u2640 0FF7                         u2720 0596  
                       u1841 0A7D                         u1761 0B75                         u1681 093B  
                       u3177 0AF2                         u2465 066A                         u2801 0339  
                       u2561 0729                         u2545 0708                         u2481 0A16  
                       u2641 0FF6                         u2625 0FBF                         u2721 0595  
                       u2705 052C                         u1850 0A89                         u1770 0B89  
                       u1690 094F                         u1930 0E3A                         u2810 0340  
                       u2570 0736                         u2490 06B2                         u2730 05A6  
                       u2650 045D                         u3187 08F7                         u1851 0A88  
                       u1771 0B88                         u1691 094E                         u1931 0E39  
                       u1915 0E27                         u2811 033F                         u2571 0735  
                       u2491 06B1                         u2635 0FD9                         u2731 05A5  
                       u2651 045C                         u1780 0B99                         u1940 0E49  
                       u1860 0DDD                         u2900 0C05                         u2820 03AE  
                       u2580 0744                         u2660 04E7                         u3197 0890  
                       u1781 0B96                         u1941 0E48                         u1861 0DDC  
                       u2901 0C04                         u2821 03AD                         u2581 0743  
                       u2565 0726                         u2645 0FF3                         u2661 04E6  
                       u1870 0DE8                         u1950 17D6                         u2910 0C0B  
                       u2750 097E                         u2830 03C0                         u2590 0F71  
                       u2670 04EF                         u1871 0DE7                         u1951 17D5  
                       u2911 0C0A                         u2751 097D                         u2831 03BF  
                       u2671 04EE                         u1880 0DF6                         u2920 0C38  
                       u1960 09BD                         u2760 02E4                         u2680 04F7  
                       u1881 0DF5                         u2921 0C37                         u2745 095D  
                       u1961 09BC                         u2825 03AA                         u2761 02E3  
                       u2585 0740                         u2681 04F6                         u1794 0B9B  
                       u1890 0E03                         u2930 0C48                         u2850 03EB  
                       u2690 0505                         u1891 0E02                         u2931 0C47  
                       u2851 03EA                         u2835 03BC                         u2595 0F6D  
                       u2860 03F5                         u2780 0322                         u2861 03F4  
                       u2845 03D0                         u2781 0321                         u1990 09DB  
                       u2870 0403                         u2790 0331                         u1991 09DA  
                       u1975 09C6                         u2871 0402                         u2791 0330  
                       u2775 02EB                         u2695 0501                         u2880 0432  
                       u2960 0081                         u1985 09CD                         u2881 0431  
                       u2961 0080                         u2890 0437                         u2970 00CB  
                       u2891 0436                         u2971 00CA         bpm_record_beat@valid 004B  
                       u2985 00E8                         _SCS0 04C8                         u2995 00FD  
                       _SCS1 04C9                         _TMR0 0015                         _SPEN 0CEF  
                       _TXEN 0CF5                         _SYNC 0CF4                  main@red_buf 00A0  
                       _main 004F             __end_of_I2C_Init 0854                         fsr0h 0005  
                       fsr1h 0007                         indf0 0000                         fsr0l 0004  
                       indf1 0001                         fsr1l 0006                         btemp 007E  
           __end_of_I2C_Stop 08E6                         start 0019                 main@accepted 005A  
               main@beat_now 0158   __end_of_MAX30102_clearFIFO 081D                        ??_ISR 0070  
              ?_EUSART_Write 0070              __end_of___aldiv 0F64     __end_of_lowPassFIRFilter 0ED4  
                      ?_main 0070                        STR_10 1836                        STR_11 182F  
                      STR_12 1828                        STR_13 1816                        STR_14 1820  
                      STR_15 180A                        STR_16 1800                        _BRG16 0CFB  
                      STR_17 1091              __end_of___lldiv 0CFC              __end_of___llmod 0B61  
                      _IRCF0 04CB                        _IRCF1 04CC                        _IRCF2 04CD  
                      _IRCF3 04CE                        i1l232 0017        bpm_record_beat@now_ms 002D  
            __end_of_bitMask 0840          ___lmul@multiplicand 0074             ??_writeRegister8 007C  
               _I2C_ReadByte 0B61               _i2c_read_bytes 0DD4                        _mul16 08A3  
                      main@i 015C                        main@n 015E                        main@s 00EC  
          __end_of_I2C_Start 092F                 _I2C_WaitIdle 08E6         I2C_WaitIF@timeout_ms 0070  
                      status 0003           spo2_accumulate@red 0074                        wtemp0 007E  
               ?_internal_32 0070              __initialization 001B                 __end_of_main 02DE  
          _beat_avg_interval 006A               ??_EUSART_Write 0070                       ??_main 0050  
          __end_of_FIRCoeffs 1018   __end_of_MAX30102_softReset 0B17          I2C_RepeatedStart@st 0073  
      __end_of_MAX30102_Init 0D63       __end_of_i2c_read_bytes 0E4E            main@no_finger_cnt 0058  
            MAX30102_check@s 003B                       ?_mul16 0020             ___llmod@dividend 0074  
               ??_I2C_WaitIF 0072                       _RC1REG 0199                       i1l2850 000A  
                     i1l2852 000D                       i1l2848 0006           i2c_write_bytes@len 0077  
         i2c_write_bytes@reg 0075           i2c_write_bytes@src 0076                       u295_20 000A  
                     u295_21 0009                       _SPBRGL 019B                       _TX1REG 019A  
          ??_bpm_record_beat 0031                       _SPLLEN 04CF                       _SSPADD 0212  
                     _SSPBUF 0211     checkForBeat@beatDetected 0037             __end_of_bpm_init 097F  
          __end_of_TMR0_Init 1800                       ___lmul 09B1                    ??___aldiv 0078  
           __end_of_pba_init 0A18                    ??___lldiv 007C                    ??___llmod 0078  
           __end_of_initMain 0ACD                       _millis 0854                    ??_bitMask 007E  
             _pba_ir_avg_reg 0150           __end_of_I2C_WaitIF 08A3                       main@ir 0154  
                     mul16@x 0020                       mul16@y 0022                    ?_I2C_Init 0070  
          ??_i2c_write_bytes 0078                    ?_I2C_Stop 0070                 _checkForBeat 068D  
            ?_i2c_read_bytes 0076            spo2_compute@ac_ir 0039            spo2_compute@dc_ir 003D  
            I2C_WriteByte@st 0074               _uch_spo2_table 074C      __end_of__initialization 004B  
           _pba_positiveEdge 005D               __pcstackCOMMON 0070                _I2C_WriteByte 097F  
               __pidataBANK0 17BF               _MAX30102_check 05B0                _readRegister8 081D  
              __end_of_mul16 08C3              _spo2_accumulate 0F64           _averageDCEstimator 0C4F  
                 ??_I2C_Init 0070               _OPTION_REGbits 0095                   ??_I2C_Stop 0073  
          ?_UART_PrintUint16 003F            ?_UART_PrintUint32 002D                   _beat_count 0067  
                 _beat_times 01A0           ??_UART_PrintUint16 007E           ??_UART_PrintUint32 007D  
                    ??_mul16 007C       __end_of_uch_spo2_table 0804          ?_averageDCEstimator 0070  
                 __pbssBANK0 005B                   __pbssBANK2 0120                   __pbssBANK3 01A0  
                 __pbssBANK4 0220         __end_of_EUSART_Write 17DA              bitMask@original 0025  
      __end_of_bpm_calculate 0C4F                ?_spo2_compute 0070       __end_of_MAX30102_check 068D  
                 __pmaintext 004F               ?_I2C_WriteByte 0070                      ?___lmul 0070  
             ?_readRegister8 0070         ??_averageDCEstimator 0072                   __pintentry 0004  
             ___lmul@product 0078                      ?_millis 0070                   I2C_Stop@st 0073  
             I2C_ReadByte@st 0075           main@finger_present 015D            ?_lowPassFIRFilter 007C  
    bpm_record_beat@interval 004C           ??_lowPassFIRFilter 0024           _MAX30102_clearFIFO 080D  
                    _PPSLOCK 0E0F                    ?_bpm_init 0070                      _SSPCON2 0216  
     I2C_WaitIdle@timeout_ms 0070      MAX30102_softReset@start 002A                    ?_pba_init 0070  
        ?_MAX30102_clearFIFO 0070                    ?_initMain 0070                   _pba_offset 0069  
             ??_spo2_compute 002D                    _I2C_Start 090A             I2C_ReadByte@data 0074  
    __end_of_spo2_accumulate 1000              ?_MAX30102_check 0022                      ___aldiv 0ED4  
                    ___lldiv 0CA1                      ___llmod 0B17            ??_I2C_ClearErrors 0070  
       ??_MAX30102_clearFIFO 007D                      _bitMask 082D                   bitMask@reg 0024  
                    __ptext1 0A18                      __ptext2 0456                      __ptext3 0F64  
                    __ptext4 09E4                      __ptext5 0A8B                      __ptext6 0804  
                    __ptext7 068D                      __ptext8 0E4E                      __ptext9 08A3  
        writeRegister8@value 007B              _bpm_record_beat 02DE             ___aldiv@dividend 0074  
                  _FIRCoeffs 1000                   ??_bpm_init 0070                      main@red 00E0  
                    clrloop0 17C4                      main@now 00E8         MAX30102_check@ir_buf 0022  
       end_of_initialization 004B         MAX30102_check@rd_ptr 0038                   ??_pba_init 0070  
                 ??_initMain 0070           _MAX30102_softReset 0ACD                   _spo2_reset 0A18  
       MAX30102_check@wr_ptr 0039          averageDCEstimator@p 007B          averageDCEstimator@x 0070  
                 ?_I2C_Start 0070            _EUSART_Initialize 0BAE              ??_I2C_WriteByte 0073  
            ___lldiv@divisor 0020              ___lldiv@counter 002C           spo2_compute@ac_red 0031  
            ??_readRegister8 007E           spo2_compute@dc_red 0041          ?_MAX30102_softReset 0070  
         ?_EUSART_Initialize 0026             ___aldiv@quotient 0022              _i2c_write_bytes 0A4C  
           main@last_beat_ms 00E4           EUSART_Initialize@x 0079             ??_i2c_read_bytes 0079  
        ??_EUSART_Initialize 002A                    _TMR0_Init 17F1            UART_PrintUint32@c 003C  
          UART_PrintUint32@i 003E              i2c_read_bytes@i 007D         ??_MAX30102_softReset 0026  
                  _TRISBbits 008D                    _TRISCbits 008E           bpm_record_beat@idx 0049  
         bpm_record_beat@sum 0042                    _RXPPSbits 0E24    __end_of_EUSART_Initialize 0BFE  
                 main@ir_buf 00C0             main@current_spo2 00EF             ?_spo2_accumulate 0070  
             __end_of___lmul 09E4      __end_of_bpm_record_beat 0456                 _EUSART_Write 17D0  
                 ?_TMR0_Init 0070               __end_of_millis 0868            spo2_accumulate@ir 0070  
       __end_of_spo2_compute 05B0          start_initialization 001B                  __end_of_ISR 0019  
           readRegister8@reg 0020             readRegister8@val 0021     _pba_IR_AC_Signal_Current 0065  
                ?_spo2_reset 0070              ___llmod@divisor 0070      __end_of_i2c_write_bytes 0A8B  
          _EUSART_Write_Text 0868                  ??_I2C_Start 0073              ___llmod@counter 0079  
         ?_EUSART_Write_Text 0071                     ??___lmul 0078       spo2_compute@ratio_x100 0049  
          _I2C_RepeatedStart 092F                  __pdataBANK0 006C          ??_EUSART_Write_Text 0073  
                   ??_millis 0074           ?_I2C_RepeatedStart 0070                    ___latbits 0003  
              __pcstackBANK0 0020                __pcstackBANK1 00A0                __pcstackBANK2 0154  
              ?_I2C_ReadByte 0073          ??_I2C_RepeatedStart 0073                _MAX30102_Init 0CFC  
  __end_of_EUSART_Write_Text 0885                ?_I2C_WaitIdle 0070             ??_MAX30102_check 0024  
            _I2C_ClearErrors 17C9                ??_internal_32 0070         _pba_IR_AC_Signal_max 005F  
       _pba_IR_AC_Signal_min 0061                 bitMask@thing 0023    __end_of_I2C_RepeatedStart 0954  
                   ?___aldiv 0070                     ?___lldiv 0020                     ?___llmod 0070  
MAX30102_check@num_available 003D            MAX30102_check@buf 0032                     ?_bitMask 0022  
  EUSART_Initialize@baudrate 0026             ?_bpm_record_beat 002D                  ??_TMR0_Init 0070  
     MAX30102_softReset@resp 002E                  I2C_Start@st 0073                     _I2C_Init 0840  
                   _I2C_Stop 08C3               ??_I2C_ReadByte 0074               ?_MAX30102_Init 0070  
            I2C_ReadByte@ack 0073               ??_I2C_WaitIdle 0072              ___aldiv@divisor 0070  
            ___aldiv@counter 0020         i2c_write_bytes@addr7 0079               _writeRegister8 17E5  
        MAX30102_check@count 003E             ?_i2c_write_bytes 0075                    clear_ram0 17C3  
          lowPassFIRFilter@i 002D            lowPassFIRFilter@z 0029                     _PIR1bits 0011  
                   _PIR2bits 0012          __end_of_internal_32 080D                    bpm_init@i 0071  
          bpm_record_beat@hi 003E            bpm_record_beat@lo 003A              main@current_bpm 00ED  
              ?_checkForBeat 002E      __end_of_I2C_ClearErrors 17D0            ___lmul@multiplier 0070  
  _pba_IR_AC_Signal_Previous 0063                   _I2C_WaitIF 0885       __end_of_writeRegister8 17F1  
                  pba_init@i 0071                _bpm_calculate 0BFE    MAX30102_check@max_samples 0023  
           _UART_PrintUint32 0D63             _UART_PrintUint16 17DA                 _spo2_compute 0456  
      __end_of_I2C_WriteByte 09B1               _beat_intervals 013A        __end_of_readRegister8 082D  
            spo2_compute@den 0045              spo2_compute@num 0035             bpm_calculate@bpm 002F  
                  millis@val 0074                   _ANSELBbits 018D                   _ANSELCbits 018E  
            ??_MAX30102_Init 007E               ??_checkForBeat 0032                     _beat_idx 0068  
                bitMask@mask 0022                     __ptext10 0C4F                     __ptext11 02DE  
                   __ptext20 17D0                     __ptext12 09B1                     __ptext21 17F1  
                   __ptext13 0954                     __ptext30 0B61                     __ptext22 05B0  
                   __ptext14 0BFE                     __ptext31 080D                     __ptext23 0CFC  
                   __ptext15 17DA                     __ptext40 17C9                     __ptext32 17E5  
                   __ptext24 0ACD                     __ptext16 0D63                     __ptext41 0BAE  
                   __ptext33 0A4C                     __ptext25 0854                     __ptext17 0B17  
                   __ptext42 0ED4                     __ptext34 097F                     __ptext26 082D  
                   __ptext18 0CA1                     __ptext35 08C3                     __ptext27 081D  
                   __ptext19 0868                     __ptext36 090A                     __ptext28 0DD4  
                   __ptext37 08E6                     __ptext29 092F                     __ptext38 0885  
                   __ptext39 0840                     _bpm_init 0954                     _pba_cbuf 0220  
            ?_writeRegister8 007B                     _pba_init 09E4                 ??_spo2_reset 0070  
                   _initMain 0A8B             _lowPassFIRFilter 0E4E                _SSPDATPPSbits 0E21  
             ?_bpm_calculate 002D            writeRegister8@reg 007C                  _internal_32 0804  
        _bpm_record_beat$692 0046                     _spo2_acc 0120                   _RB2PPSbits 0E9A  
       __end_of_I2C_ReadByte 0BAE                   _RC1STAbits 019D                _pba_IR_AC_Max 006E  
                 _RC4PPSbits 0EA4                _pba_IR_AC_Min 006C                _SSPCLKPPSbits 0E20  
                   int$flags 007E                   _RC5PPSbits 0EA5             bpm_record_beat@i 004A  
       __end_of_I2C_WaitIdle 090A             _pba_negativeEdge 005B               _millis_counter 014A  
      MAX30102_check@red_buf 003A           __end_of_spo2_reset 0A4C                   _INTCONbits 000B  
      MAX30102_check@to_read 003C               __pstringtext10 180C               __pstringtext11 1816  
             __pstringtext12 1820               __pstringtext13 1828               __pstringtext14 182F  
             __pstringtext15 1836               __pstringtext16 183A               __pstringtext17 0000  
      UART_PrintUint32@F6192 014E             ?_I2C_ClearErrors 0070          lowPassFIRFilter@din 007C  
                ?_I2C_WaitIF 0070                     intlevel1 0000             ___lldiv@dividend 0024  
                _PPSLOCKbits 0E0F          i2c_read_bytes@addr7 007C                __pstringtext1 074C  
              __pstringtext2 1000                __pstringtext3 1038                __pstringtext4 1057  
              __pstringtext5 1076                __pstringtext6 1094                __pstringtext7 10B1  
              __pstringtext8 10C9                __pstringtext9 1800             ___lldiv@quotient 0028  
      EUSART_Write_Text@text 0071                 ___aldiv@sign 0021                  _SSPCON1bits 0215  
                _SSPCON2bits 0216           EUSART_Write@txData 0070              ??_bpm_calculate 007D  
        UART_PrintUint32@buf 0031          UART_PrintUint16@val 003F          UART_PrintUint32@val 002D  
          i2c_read_bytes@ack 007B            i2c_read_bytes@len 0078            i2c_read_bytes@dst 0077  
          i2c_read_bytes@reg 0076            I2C_WriteByte@data 0073                   _SSPCONbits 0215  
          main@last_print_ms 0054         __end_of_checkForBeat 074C           EUSART_Write_Text@i 0074  
 __end_of_averageDCEstimator 0CA1  
