

Microchip Technology PIC LITE Macro Assembler V1.38 build -256452561 
                                                                                               Mon Apr 22 14:22:51 2019

Microchip Technology Omniscient Code Generator v1.38 (Free mode) build 201607010351
     1                           	processor	16F1719
     2                           	opt	pw 120
     3                           	opt	lm
     4                           	psect	cinit,global,class=CODE,merge=1,delta=2
     5                           	psect	cstackCOMMON,global,class=COMMON,space=1,delta=1
     6                           	psect	maintext,global,class=CODE,merge=1,split=1,delta=2
     7                           	psect	text1,local,class=CODE,merge=1,delta=2
     8                           	psect	text2,local,class=CODE,merge=1,delta=2
     9                           	psect	text3,local,class=CODE,merge=1,delta=2
    10                           	psect	text4,local,class=CODE,merge=1,delta=2
    11                           	psect	text5,local,class=CODE,merge=1,delta=2
    12                           	dabs	1,0x7E,2
    13  0000                     	;# 
    14  0001                     	;# 
    15  0002                     	;# 
    16  0003                     	;# 
    17  0004                     	;# 
    18  0005                     	;# 
    19  0006                     	;# 
    20  0007                     	;# 
    21  0008                     	;# 
    22  0009                     	;# 
    23  000A                     	;# 
    24  000B                     	;# 
    25  000C                     	;# 
    26  000D                     	;# 
    27  000E                     	;# 
    28  000F                     	;# 
    29  0010                     	;# 
    30  0011                     	;# 
    31  0012                     	;# 
    32  0013                     	;# 
    33  0015                     	;# 
    34  0016                     	;# 
    35  0016                     	;# 
    36  0017                     	;# 
    37  0018                     	;# 
    38  0019                     	;# 
    39  001A                     	;# 
    40  001B                     	;# 
    41  001C                     	;# 
    42  008C                     	;# 
    43  008D                     	;# 
    44  008E                     	;# 
    45  008F                     	;# 
    46  0090                     	;# 
    47  0091                     	;# 
    48  0092                     	;# 
    49  0093                     	;# 
    50  0095                     	;# 
    51  0096                     	;# 
    52  0097                     	;# 
    53  0098                     	;# 
    54  0099                     	;# 
    55  009A                     	;# 
    56  009B                     	;# 
    57  009B                     	;# 
    58  009C                     	;# 
    59  009D                     	;# 
    60  009E                     	;# 
    61  009F                     	;# 
    62  010C                     	;# 
    63  010D                     	;# 
    64  010E                     	;# 
    65  010F                     	;# 
    66  0110                     	;# 
    67  0111                     	;# 
    68  0112                     	;# 
    69  0113                     	;# 
    70  0114                     	;# 
    71  0115                     	;# 
    72  0116                     	;# 
    73  0117                     	;# 
    74  0118                     	;# 
    75  0119                     	;# 
    76  011A                     	;# 
    77  011B                     	;# 
    78  011B                     	;# 
    79  011C                     	;# 
    80  018C                     	;# 
    81  018D                     	;# 
    82  018E                     	;# 
    83  018F                     	;# 
    84  0190                     	;# 
    85  0191                     	;# 
    86  0191                     	;# 
    87  0192                     	;# 
    88  0193                     	;# 
    89  0193                     	;# 
    90  0194                     	;# 
    91  0195                     	;# 
    92  0196                     	;# 
    93  0197                     	;# 
    94  0199                     	;# 
    95  0199                     	;# 
    96  0199                     	;# 
    97  019A                     	;# 
    98  019A                     	;# 
    99  019A                     	;# 
   100  019B                     	;# 
   101  019B                     	;# 
   102  019B                     	;# 
   103  019B                     	;# 
   104  019B                     	;# 
   105  019C                     	;# 
   106  019C                     	;# 
   107  019C                     	;# 
   108  019D                     	;# 
   109  019D                     	;# 
   110  019D                     	;# 
   111  019E                     	;# 
   112  019E                     	;# 
   113  019E                     	;# 
   114  019F                     	;# 
   115  019F                     	;# 
   116  019F                     	;# 
   117  019F                     	;# 
   118  019F                     	;# 
   119  020C                     	;# 
   120  020D                     	;# 
   121  020E                     	;# 
   122  020F                     	;# 
   123  0210                     	;# 
   124  0211                     	;# 
   125  0211                     	;# 
   126  0212                     	;# 
   127  0212                     	;# 
   128  0213                     	;# 
   129  0213                     	;# 
   130  0214                     	;# 
   131  0214                     	;# 
   132  0215                     	;# 
   133  0215                     	;# 
   134  0215                     	;# 
   135  0215                     	;# 
   136  0216                     	;# 
   137  0216                     	;# 
   138  0217                     	;# 
   139  0217                     	;# 
   140  028C                     	;# 
   141  028D                     	;# 
   142  028E                     	;# 
   143  028F                     	;# 
   144  0290                     	;# 
   145  0291                     	;# 
   146  0291                     	;# 
   147  0292                     	;# 
   148  0293                     	;# 
   149  0293                     	;# 
   150  0298                     	;# 
   151  0298                     	;# 
   152  0299                     	;# 
   153  029A                     	;# 
   154  029A                     	;# 
   155  029E                     	;# 
   156  030C                     	;# 
   157  030D                     	;# 
   158  030E                     	;# 
   159  030F                     	;# 
   160  0310                     	;# 
   161  038C                     	;# 
   162  038D                     	;# 
   163  038E                     	;# 
   164  038F                     	;# 
   165  0390                     	;# 
   166  0391                     	;# 
   167  0392                     	;# 
   168  0393                     	;# 
   169  0394                     	;# 
   170  0395                     	;# 
   171  0396                     	;# 
   172  0397                     	;# 
   173  0398                     	;# 
   174  0399                     	;# 
   175  039D                     	;# 
   176  039E                     	;# 
   177  039F                     	;# 
   178  0415                     	;# 
   179  0416                     	;# 
   180  0417                     	;# 
   181  041C                     	;# 
   182  041D                     	;# 
   183  041E                     	;# 
   184  0498                     	;# 
   185  0498                     	;# 
   186  0499                     	;# 
   187  049A                     	;# 
   188  049B                     	;# 
   189  049B                     	;# 
   190  049C                     	;# 
   191  049D                     	;# 
   192  049E                     	;# 
   193  049F                     	;# 
   194  0511                     	;# 
   195  0515                     	;# 
   196  0617                     	;# 
   197  0618                     	;# 
   198  0619                     	;# 
   199  0619                     	;# 
   200  061A                     	;# 
   201  061B                     	;# 
   202  061C                     	;# 
   203  061C                     	;# 
   204  0691                     	;# 
   205  0692                     	;# 
   206  0693                     	;# 
   207  0694                     	;# 
   208  0695                     	;# 
   209  0696                     	;# 
   210  0697                     	;# 
   211  0698                     	;# 
   212  0699                     	;# 
   213  069A                     	;# 
   214  069B                     	;# 
   215  069C                     	;# 
   216  069D                     	;# 
   217  069E                     	;# 
   218  069F                     	;# 
   219  0E0F                     	;# 
   220  0E10                     	;# 
   221  0E11                     	;# 
   222  0E12                     	;# 
   223  0E13                     	;# 
   224  0E14                     	;# 
   225  0E15                     	;# 
   226  0E17                     	;# 
   227  0E20                     	;# 
   228  0E21                     	;# 
   229  0E22                     	;# 
   230  0E24                     	;# 
   231  0E25                     	;# 
   232  0E28                     	;# 
   233  0E29                     	;# 
   234  0E2A                     	;# 
   235  0E2B                     	;# 
   236  0E90                     	;# 
   237  0E91                     	;# 
   238  0E92                     	;# 
   239  0E93                     	;# 
   240  0E94                     	;# 
   241  0E95                     	;# 
   242  0E96                     	;# 
   243  0E97                     	;# 
   244  0E98                     	;# 
   245  0E99                     	;# 
   246  0E9A                     	;# 
   247  0E9B                     	;# 
   248  0E9C                     	;# 
   249  0E9D                     	;# 
   250  0E9E                     	;# 
   251  0E9F                     	;# 
   252  0EA0                     	;# 
   253  0EA1                     	;# 
   254  0EA2                     	;# 
   255  0EA3                     	;# 
   256  0EA4                     	;# 
   257  0EA5                     	;# 
   258  0EA6                     	;# 
   259  0EA7                     	;# 
   260  0EA8                     	;# 
   261  0EA9                     	;# 
   262  0EAA                     	;# 
   263  0EAB                     	;# 
   264  0EAC                     	;# 
   265  0EAD                     	;# 
   266  0EAE                     	;# 
   267  0EAF                     	;# 
   268  0EB0                     	;# 
   269  0EB1                     	;# 
   270  0EB2                     	;# 
   271  0F0F                     	;# 
   272  0F10                     	;# 
   273  0F11                     	;# 
   274  0F12                     	;# 
   275  0F13                     	;# 
   276  0F14                     	;# 
   277  0F15                     	;# 
   278  0F16                     	;# 
   279  0F17                     	;# 
   280  0F18                     	;# 
   281  0F19                     	;# 
   282  0F1A                     	;# 
   283  0F1B                     	;# 
   284  0F1C                     	;# 
   285  0F1D                     	;# 
   286  0F1E                     	;# 
   287  0F1F                     	;# 
   288  0F20                     	;# 
   289  0F21                     	;# 
   290  0F22                     	;# 
   291  0F23                     	;# 
   292  0F24                     	;# 
   293  0F25                     	;# 
   294  0F26                     	;# 
   295  0F27                     	;# 
   296  0F28                     	;# 
   297  0F29                     	;# 
   298  0F2A                     	;# 
   299  0F2B                     	;# 
   300  0F2C                     	;# 
   301  0F2D                     	;# 
   302  0F2E                     	;# 
   303  0F2F                     	;# 
   304  0F30                     	;# 
   305  0F31                     	;# 
   306  0F32                     	;# 
   307  0F33                     	;# 
   308  0F34                     	;# 
   309  0F35                     	;# 
   310  0F36                     	;# 
   311  0F37                     	;# 
   312  0FE4                     	;# 
   313  0FE5                     	;# 
   314  0FE6                     	;# 
   315  0FE7                     	;# 
   316  0FE8                     	;# 
   317  0FE9                     	;# 
   318  0FEA                     	;# 
   319  0FEB                     	;# 
   320  0FED                     	;# 
   321  0FEE                     	;# 
   322  0FEF                     	;# 
   323  0000                     	;# 
   324  0001                     	;# 
   325  0002                     	;# 
   326  0003                     	;# 
   327  0004                     	;# 
   328  0005                     	;# 
   329  0006                     	;# 
   330  0007                     	;# 
   331  0008                     	;# 
   332  0009                     	;# 
   333  000A                     	;# 
   334  000B                     	;# 
   335  000C                     	;# 
   336  000D                     	;# 
   337  000E                     	;# 
   338  000F                     	;# 
   339  0010                     	;# 
   340  0011                     	;# 
   341  0012                     	;# 
   342  0013                     	;# 
   343  0015                     	;# 
   344  0016                     	;# 
   345  0016                     	;# 
   346  0017                     	;# 
   347  0018                     	;# 
   348  0019                     	;# 
   349  001A                     	;# 
   350  001B                     	;# 
   351  001C                     	;# 
   352  008C                     	;# 
   353  008D                     	;# 
   354  008E                     	;# 
   355  008F                     	;# 
   356  0090                     	;# 
   357  0091                     	;# 
   358  0092                     	;# 
   359  0093                     	;# 
   360  0095                     	;# 
   361  0096                     	;# 
   362  0097                     	;# 
   363  0098                     	;# 
   364  0099                     	;# 
   365  009A                     	;# 
   366  009B                     	;# 
   367  009B                     	;# 
   368  009C                     	;# 
   369  009D                     	;# 
   370  009E                     	;# 
   371  009F                     	;# 
   372  010C                     	;# 
   373  010D                     	;# 
   374  010E                     	;# 
   375  010F                     	;# 
   376  0110                     	;# 
   377  0111                     	;# 
   378  0112                     	;# 
   379  0113                     	;# 
   380  0114                     	;# 
   381  0115                     	;# 
   382  0116                     	;# 
   383  0117                     	;# 
   384  0118                     	;# 
   385  0119                     	;# 
   386  011A                     	;# 
   387  011B                     	;# 
   388  011B                     	;# 
   389  011C                     	;# 
   390  018C                     	;# 
   391  018D                     	;# 
   392  018E                     	;# 
   393  018F                     	;# 
   394  0190                     	;# 
   395  0191                     	;# 
   396  0191                     	;# 
   397  0192                     	;# 
   398  0193                     	;# 
   399  0193                     	;# 
   400  0194                     	;# 
   401  0195                     	;# 
   402  0196                     	;# 
   403  0197                     	;# 
   404  0199                     	;# 
   405  0199                     	;# 
   406  0199                     	;# 
   407  019A                     	;# 
   408  019A                     	;# 
   409  019A                     	;# 
   410  019B                     	;# 
   411  019B                     	;# 
   412  019B                     	;# 
   413  019B                     	;# 
   414  019B                     	;# 
   415  019C                     	;# 
   416  019C                     	;# 
   417  019C                     	;# 
   418  019D                     	;# 
   419  019D                     	;# 
   420  019D                     	;# 
   421  019E                     	;# 
   422  019E                     	;# 
   423  019E                     	;# 
   424  019F                     	;# 
   425  019F                     	;# 
   426  019F                     	;# 
   427  019F                     	;# 
   428  019F                     	;# 
   429  020C                     	;# 
   430  020D                     	;# 
   431  020E                     	;# 
   432  020F                     	;# 
   433  0210                     	;# 
   434  0211                     	;# 
   435  0211                     	;# 
   436  0212                     	;# 
   437  0212                     	;# 
   438  0213                     	;# 
   439  0213                     	;# 
   440  0214                     	;# 
   441  0214                     	;# 
   442  0215                     	;# 
   443  0215                     	;# 
   444  0215                     	;# 
   445  0215                     	;# 
   446  0216                     	;# 
   447  0216                     	;# 
   448  0217                     	;# 
   449  0217                     	;# 
   450  028C                     	;# 
   451  028D                     	;# 
   452  028E                     	;# 
   453  028F                     	;# 
   454  0290                     	;# 
   455  0291                     	;# 
   456  0291                     	;# 
   457  0292                     	;# 
   458  0293                     	;# 
   459  0293                     	;# 
   460  0298                     	;# 
   461  0298                     	;# 
   462  0299                     	;# 
   463  029A                     	;# 
   464  029A                     	;# 
   465  029E                     	;# 
   466  030C                     	;# 
   467  030D                     	;# 
   468  030E                     	;# 
   469  030F                     	;# 
   470  0310                     	;# 
   471  038C                     	;# 
   472  038D                     	;# 
   473  038E                     	;# 
   474  038F                     	;# 
   475  0390                     	;# 
   476  0391                     	;# 
   477  0392                     	;# 
   478  0393                     	;# 
   479  0394                     	;# 
   480  0395                     	;# 
   481  0396                     	;# 
   482  0397                     	;# 
   483  0398                     	;# 
   484  0399                     	;# 
   485  039D                     	;# 
   486  039E                     	;# 
   487  039F                     	;# 
   488  0415                     	;# 
   489  0416                     	;# 
   490  0417                     	;# 
   491  041C                     	;# 
   492  041D                     	;# 
   493  041E                     	;# 
   494  0498                     	;# 
   495  0498                     	;# 
   496  0499                     	;# 
   497  049A                     	;# 
   498  049B                     	;# 
   499  049B                     	;# 
   500  049C                     	;# 
   501  049D                     	;# 
   502  049E                     	;# 
   503  049F                     	;# 
   504  0511                     	;# 
   505  0515                     	;# 
   506  0617                     	;# 
   507  0618                     	;# 
   508  0619                     	;# 
   509  0619                     	;# 
   510  061A                     	;# 
   511  061B                     	;# 
   512  061C                     	;# 
   513  061C                     	;# 
   514  0691                     	;# 
   515  0692                     	;# 
   516  0693                     	;# 
   517  0694                     	;# 
   518  0695                     	;# 
   519  0696                     	;# 
   520  0697                     	;# 
   521  0698                     	;# 
   522  0699                     	;# 
   523  069A                     	;# 
   524  069B                     	;# 
   525  069C                     	;# 
   526  069D                     	;# 
   527  069E                     	;# 
   528  069F                     	;# 
   529  0E0F                     	;# 
   530  0E10                     	;# 
   531  0E11                     	;# 
   532  0E12                     	;# 
   533  0E13                     	;# 
   534  0E14                     	;# 
   535  0E15                     	;# 
   536  0E17                     	;# 
   537  0E20                     	;# 
   538  0E21                     	;# 
   539  0E22                     	;# 
   540  0E24                     	;# 
   541  0E25                     	;# 
   542  0E28                     	;# 
   543  0E29                     	;# 
   544  0E2A                     	;# 
   545  0E2B                     	;# 
   546  0E90                     	;# 
   547  0E91                     	;# 
   548  0E92                     	;# 
   549  0E93                     	;# 
   550  0E94                     	;# 
   551  0E95                     	;# 
   552  0E96                     	;# 
   553  0E97                     	;# 
   554  0E98                     	;# 
   555  0E99                     	;# 
   556  0E9A                     	;# 
   557  0E9B                     	;# 
   558  0E9C                     	;# 
   559  0E9D                     	;# 
   560  0E9E                     	;# 
   561  0E9F                     	;# 
   562  0EA0                     	;# 
   563  0EA1                     	;# 
   564  0EA2                     	;# 
   565  0EA3                     	;# 
   566  0EA4                     	;# 
   567  0EA5                     	;# 
   568  0EA6                     	;# 
   569  0EA7                     	;# 
   570  0EA8                     	;# 
   571  0EA9                     	;# 
   572  0EAA                     	;# 
   573  0EAB                     	;# 
   574  0EAC                     	;# 
   575  0EAD                     	;# 
   576  0EAE                     	;# 
   577  0EAF                     	;# 
   578  0EB0                     	;# 
   579  0EB1                     	;# 
   580  0EB2                     	;# 
   581  0F0F                     	;# 
   582  0F10                     	;# 
   583  0F11                     	;# 
   584  0F12                     	;# 
   585  0F13                     	;# 
   586  0F14                     	;# 
   587  0F15                     	;# 
   588  0F16                     	;# 
   589  0F17                     	;# 
   590  0F18                     	;# 
   591  0F19                     	;# 
   592  0F1A                     	;# 
   593  0F1B                     	;# 
   594  0F1C                     	;# 
   595  0F1D                     	;# 
   596  0F1E                     	;# 
   597  0F1F                     	;# 
   598  0F20                     	;# 
   599  0F21                     	;# 
   600  0F22                     	;# 
   601  0F23                     	;# 
   602  0F24                     	;# 
   603  0F25                     	;# 
   604  0F26                     	;# 
   605  0F27                     	;# 
   606  0F28                     	;# 
   607  0F29                     	;# 
   608  0F2A                     	;# 
   609  0F2B                     	;# 
   610  0F2C                     	;# 
   611  0F2D                     	;# 
   612  0F2E                     	;# 
   613  0F2F                     	;# 
   614  0F30                     	;# 
   615  0F31                     	;# 
   616  0F32                     	;# 
   617  0F33                     	;# 
   618  0F34                     	;# 
   619  0F35                     	;# 
   620  0F36                     	;# 
   621  0F37                     	;# 
   622  0FE4                     	;# 
   623  0FE5                     	;# 
   624  0FE6                     	;# 
   625  0FE7                     	;# 
   626  0FE8                     	;# 
   627  0FE9                     	;# 
   628  0FEA                     	;# 
   629  0FEB                     	;# 
   630  0FED                     	;# 
   631  0FEE                     	;# 
   632  0FEF                     	;# 
   633  0000                     	;# 
   634  0001                     	;# 
   635  0002                     	;# 
   636  0003                     	;# 
   637  0004                     	;# 
   638  0005                     	;# 
   639  0006                     	;# 
   640  0007                     	;# 
   641  0008                     	;# 
   642  0009                     	;# 
   643  000A                     	;# 
   644  000B                     	;# 
   645  000C                     	;# 
   646  000D                     	;# 
   647  000E                     	;# 
   648  000F                     	;# 
   649  0010                     	;# 
   650  0011                     	;# 
   651  0012                     	;# 
   652  0013                     	;# 
   653  0015                     	;# 
   654  0016                     	;# 
   655  0016                     	;# 
   656  0017                     	;# 
   657  0018                     	;# 
   658  0019                     	;# 
   659  001A                     	;# 
   660  001B                     	;# 
   661  001C                     	;# 
   662  008C                     	;# 
   663  008D                     	;# 
   664  008E                     	;# 
   665  008F                     	;# 
   666  0090                     	;# 
   667  0091                     	;# 
   668  0092                     	;# 
   669  0093                     	;# 
   670  0095                     	;# 
   671  0096                     	;# 
   672  0097                     	;# 
   673  0098                     	;# 
   674  0099                     	;# 
   675  009A                     	;# 
   676  009B                     	;# 
   677  009B                     	;# 
   678  009C                     	;# 
   679  009D                     	;# 
   680  009E                     	;# 
   681  009F                     	;# 
   682  010C                     	;# 
   683  010D                     	;# 
   684  010E                     	;# 
   685  010F                     	;# 
   686  0110                     	;# 
   687  0111                     	;# 
   688  0112                     	;# 
   689  0113                     	;# 
   690  0114                     	;# 
   691  0115                     	;# 
   692  0116                     	;# 
   693  0117                     	;# 
   694  0118                     	;# 
   695  0119                     	;# 
   696  011A                     	;# 
   697  011B                     	;# 
   698  011B                     	;# 
   699  011C                     	;# 
   700  018C                     	;# 
   701  018D                     	;# 
   702  018E                     	;# 
   703  018F                     	;# 
   704  0190                     	;# 
   705  0191                     	;# 
   706  0191                     	;# 
   707  0192                     	;# 
   708  0193                     	;# 
   709  0193                     	;# 
   710  0194                     	;# 
   711  0195                     	;# 
   712  0196                     	;# 
   713  0197                     	;# 
   714  0199                     	;# 
   715  0199                     	;# 
   716  0199                     	;# 
   717  019A                     	;# 
   718  019A                     	;# 
   719  019A                     	;# 
   720  019B                     	;# 
   721  019B                     	;# 
   722  019B                     	;# 
   723  019B                     	;# 
   724  019B                     	;# 
   725  019C                     	;# 
   726  019C                     	;# 
   727  019C                     	;# 
   728  019D                     	;# 
   729  019D                     	;# 
   730  019D                     	;# 
   731  019E                     	;# 
   732  019E                     	;# 
   733  019E                     	;# 
   734  019F                     	;# 
   735  019F                     	;# 
   736  019F                     	;# 
   737  019F                     	;# 
   738  019F                     	;# 
   739  020C                     	;# 
   740  020D                     	;# 
   741  020E                     	;# 
   742  020F                     	;# 
   743  0210                     	;# 
   744  0211                     	;# 
   745  0211                     	;# 
   746  0212                     	;# 
   747  0212                     	;# 
   748  0213                     	;# 
   749  0213                     	;# 
   750  0214                     	;# 
   751  0214                     	;# 
   752  0215                     	;# 
   753  0215                     	;# 
   754  0215                     	;# 
   755  0215                     	;# 
   756  0216                     	;# 
   757  0216                     	;# 
   758  0217                     	;# 
   759  0217                     	;# 
   760  028C                     	;# 
   761  028D                     	;# 
   762  028E                     	;# 
   763  028F                     	;# 
   764  0290                     	;# 
   765  0291                     	;# 
   766  0291                     	;# 
   767  0292                     	;# 
   768  0293                     	;# 
   769  0293                     	;# 
   770  0298                     	;# 
   771  0298                     	;# 
   772  0299                     	;# 
   773  029A                     	;# 
   774  029A                     	;# 
   775  029E                     	;# 
   776  030C                     	;# 
   777  030D                     	;# 
   778  030E                     	;# 
   779  030F                     	;# 
   780  0310                     	;# 
   781  038C                     	;# 
   782  038D                     	;# 
   783  038E                     	;# 
   784  038F                     	;# 
   785  0390                     	;# 
   786  0391                     	;# 
   787  0392                     	;# 
   788  0393                     	;# 
   789  0394                     	;# 
   790  0395                     	;# 
   791  0396                     	;# 
   792  0397                     	;# 
   793  0398                     	;# 
   794  0399                     	;# 
   795  039D                     	;# 
   796  039E                     	;# 
   797  039F                     	;# 
   798  0415                     	;# 
   799  0416                     	;# 
   800  0417                     	;# 
   801  041C                     	;# 
   802  041D                     	;# 
   803  041E                     	;# 
   804  0498                     	;# 
   805  0498                     	;# 
   806  0499                     	;# 
   807  049A                     	;# 
   808  049B                     	;# 
   809  049B                     	;# 
   810  049C                     	;# 
   811  049D                     	;# 
   812  049E                     	;# 
   813  049F                     	;# 
   814  0511                     	;# 
   815  0515                     	;# 
   816  0617                     	;# 
   817  0618                     	;# 
   818  0619                     	;# 
   819  0619                     	;# 
   820  061A                     	;# 
   821  061B                     	;# 
   822  061C                     	;# 
   823  061C                     	;# 
   824  0691                     	;# 
   825  0692                     	;# 
   826  0693                     	;# 
   827  0694                     	;# 
   828  0695                     	;# 
   829  0696                     	;# 
   830  0697                     	;# 
   831  0698                     	;# 
   832  0699                     	;# 
   833  069A                     	;# 
   834  069B                     	;# 
   835  069C                     	;# 
   836  069D                     	;# 
   837  069E                     	;# 
   838  069F                     	;# 
   839  0E0F                     	;# 
   840  0E10                     	;# 
   841  0E11                     	;# 
   842  0E12                     	;# 
   843  0E13                     	;# 
   844  0E14                     	;# 
   845  0E15                     	;# 
   846  0E17                     	;# 
   847  0E20                     	;# 
   848  0E21                     	;# 
   849  0E22                     	;# 
   850  0E24                     	;# 
   851  0E25                     	;# 
   852  0E28                     	;# 
   853  0E29                     	;# 
   854  0E2A                     	;# 
   855  0E2B                     	;# 
   856  0E90                     	;# 
   857  0E91                     	;# 
   858  0E92                     	;# 
   859  0E93                     	;# 
   860  0E94                     	;# 
   861  0E95                     	;# 
   862  0E96                     	;# 
   863  0E97                     	;# 
   864  0E98                     	;# 
   865  0E99                     	;# 
   866  0E9A                     	;# 
   867  0E9B                     	;# 
   868  0E9C                     	;# 
   869  0E9D                     	;# 
   870  0E9E                     	;# 
   871  0E9F                     	;# 
   872  0EA0                     	;# 
   873  0EA1                     	;# 
   874  0EA2                     	;# 
   875  0EA3                     	;# 
   876  0EA4                     	;# 
   877  0EA5                     	;# 
   878  0EA6                     	;# 
   879  0EA7                     	;# 
   880  0EA8                     	;# 
   881  0EA9                     	;# 
   882  0EAA                     	;# 
   883  0EAB                     	;# 
   884  0EAC                     	;# 
   885  0EAD                     	;# 
   886  0EAE                     	;# 
   887  0EAF                     	;# 
   888  0EB0                     	;# 
   889  0EB1                     	;# 
   890  0EB2                     	;# 
   891  0F0F                     	;# 
   892  0F10                     	;# 
   893  0F11                     	;# 
   894  0F12                     	;# 
   895  0F13                     	;# 
   896  0F14                     	;# 
   897  0F15                     	;# 
   898  0F16                     	;# 
   899  0F17                     	;# 
   900  0F18                     	;# 
   901  0F19                     	;# 
   902  0F1A                     	;# 
   903  0F1B                     	;# 
   904  0F1C                     	;# 
   905  0F1D                     	;# 
   906  0F1E                     	;# 
   907  0F1F                     	;# 
   908  0F20                     	;# 
   909  0F21                     	;# 
   910  0F22                     	;# 
   911  0F23                     	;# 
   912  0F24                     	;# 
   913  0F25                     	;# 
   914  0F26                     	;# 
   915  0F27                     	;# 
   916  0F28                     	;# 
   917  0F29                     	;# 
   918  0F2A                     	;# 
   919  0F2B                     	;# 
   920  0F2C                     	;# 
   921  0F2D                     	;# 
   922  0F2E                     	;# 
   923  0F2F                     	;# 
   924  0F30                     	;# 
   925  0F31                     	;# 
   926  0F32                     	;# 
   927  0F33                     	;# 
   928  0F34                     	;# 
   929  0F35                     	;# 
   930  0F36                     	;# 
   931  0F37                     	;# 
   932  0FE4                     	;# 
   933  0FE5                     	;# 
   934  0FE6                     	;# 
   935  0FE7                     	;# 
   936  0FE8                     	;# 
   937  0FE9                     	;# 
   938  0FEA                     	;# 
   939  0FEB                     	;# 
   940  0FED                     	;# 
   941  0FEE                     	;# 
   942  0FEF                     	;# 
   943  0000                     	;# 
   944  0001                     	;# 
   945  0002                     	;# 
   946  0003                     	;# 
   947  0004                     	;# 
   948  0005                     	;# 
   949  0006                     	;# 
   950  0007                     	;# 
   951  0008                     	;# 
   952  0009                     	;# 
   953  000A                     	;# 
   954  000B                     	;# 
   955  000C                     	;# 
   956  000D                     	;# 
   957  000E                     	;# 
   958  000F                     	;# 
   959  0010                     	;# 
   960  0011                     	;# 
   961  0012                     	;# 
   962  0013                     	;# 
   963  0015                     	;# 
   964  0016                     	;# 
   965  0016                     	;# 
   966  0017                     	;# 
   967  0018                     	;# 
   968  0019                     	;# 
   969  001A                     	;# 
   970  001B                     	;# 
   971  001C                     	;# 
   972  008C                     	;# 
   973  008D                     	;# 
   974  008E                     	;# 
   975  008F                     	;# 
   976  0090                     	;# 
   977  0091                     	;# 
   978  0092                     	;# 
   979  0093                     	;# 
   980  0095                     	;# 
   981  0096                     	;# 
   982  0097                     	;# 
   983  0098                     	;# 
   984  0099                     	;# 
   985  009A                     	;# 
   986  009B                     	;# 
   987  009B                     	;# 
   988  009C                     	;# 
   989  009D                     	;# 
   990  009E                     	;# 
   991  009F                     	;# 
   992  010C                     	;# 
   993  010D                     	;# 
   994  010E                     	;# 
   995  010F                     	;# 
   996  0110                     	;# 
   997  0111                     	;# 
   998  0112                     	;# 
   999  0113                     	;# 
  1000  0114                     	;# 
  1001  0115                     	;# 
  1002  0116                     	;# 
  1003  0117                     	;# 
  1004  0118                     	;# 
  1005  0119                     	;# 
  1006  011A                     	;# 
  1007  011B                     	;# 
  1008  011B                     	;# 
  1009  011C                     	;# 
  1010  018C                     	;# 
  1011  018D                     	;# 
  1012  018E                     	;# 
  1013  018F                     	;# 
  1014  0190                     	;# 
  1015  0191                     	;# 
  1016  0191                     	;# 
  1017  0192                     	;# 
  1018  0193                     	;# 
  1019  0193                     	;# 
  1020  0194                     	;# 
  1021  0195                     	;# 
  1022  0196                     	;# 
  1023  0197                     	;# 
  1024  0199                     	;# 
  1025  0199                     	;# 
  1026  0199                     	;# 
  1027  019A                     	;# 
  1028  019A                     	;# 
  1029  019A                     	;# 
  1030  019B                     	;# 
  1031  019B                     	;# 
  1032  019B                     	;# 
  1033  019B                     	;# 
  1034  019B                     	;# 
  1035  019C                     	;# 
  1036  019C                     	;# 
  1037  019C                     	;# 
  1038  019D                     	;# 
  1039  019D                     	;# 
  1040  019D                     	;# 
  1041  019E                     	;# 
  1042  019E                     	;# 
  1043  019E                     	;# 
  1044  019F                     	;# 
  1045  019F                     	;# 
  1046  019F                     	;# 
  1047  019F                     	;# 
  1048  019F                     	;# 
  1049  020C                     	;# 
  1050  020D                     	;# 
  1051  020E                     	;# 
  1052  020F                     	;# 
  1053  0210                     	;# 
  1054  0211                     	;# 
  1055  0211                     	;# 
  1056  0212                     	;# 
  1057  0212                     	;# 
  1058  0213                     	;# 
  1059  0213                     	;# 
  1060  0214                     	;# 
  1061  0214                     	;# 
  1062  0215                     	;# 
  1063  0215                     	;# 
  1064  0215                     	;# 
  1065  0215                     	;# 
  1066  0216                     	;# 
  1067  0216                     	;# 
  1068  0217                     	;# 
  1069  0217                     	;# 
  1070  028C                     	;# 
  1071  028D                     	;# 
  1072  028E                     	;# 
  1073  028F                     	;# 
  1074  0290                     	;# 
  1075  0291                     	;# 
  1076  0291                     	;# 
  1077  0292                     	;# 
  1078  0293                     	;# 
  1079  0293                     	;# 
  1080  0298                     	;# 
  1081  0298                     	;# 
  1082  0299                     	;# 
  1083  029A                     	;# 
  1084  029A                     	;# 
  1085  029E                     	;# 
  1086  030C                     	;# 
  1087  030D                     	;# 
  1088  030E                     	;# 
  1089  030F                     	;# 
  1090  0310                     	;# 
  1091  038C                     	;# 
  1092  038D                     	;# 
  1093  038E                     	;# 
  1094  038F                     	;# 
  1095  0390                     	;# 
  1096  0391                     	;# 
  1097  0392                     	;# 
  1098  0393                     	;# 
  1099  0394                     	;# 
  1100  0395                     	;# 
  1101  0396                     	;# 
  1102  0397                     	;# 
  1103  0398                     	;# 
  1104  0399                     	;# 
  1105  039D                     	;# 
  1106  039E                     	;# 
  1107  039F                     	;# 
  1108  0415                     	;# 
  1109  0416                     	;# 
  1110  0417                     	;# 
  1111  041C                     	;# 
  1112  041D                     	;# 
  1113  041E                     	;# 
  1114  0498                     	;# 
  1115  0498                     	;# 
  1116  0499                     	;# 
  1117  049A                     	;# 
  1118  049B                     	;# 
  1119  049B                     	;# 
  1120  049C                     	;# 
  1121  049D                     	;# 
  1122  049E                     	;# 
  1123  049F                     	;# 
  1124  0511                     	;# 
  1125  0515                     	;# 
  1126  0617                     	;# 
  1127  0618                     	;# 
  1128  0619                     	;# 
  1129  0619                     	;# 
  1130  061A                     	;# 
  1131  061B                     	;# 
  1132  061C                     	;# 
  1133  061C                     	;# 
  1134  0691                     	;# 
  1135  0692                     	;# 
  1136  0693                     	;# 
  1137  0694                     	;# 
  1138  0695                     	;# 
  1139  0696                     	;# 
  1140  0697                     	;# 
  1141  0698                     	;# 
  1142  0699                     	;# 
  1143  069A                     	;# 
  1144  069B                     	;# 
  1145  069C                     	;# 
  1146  069D                     	;# 
  1147  069E                     	;# 
  1148  069F                     	;# 
  1149  0E0F                     	;# 
  1150  0E10                     	;# 
  1151  0E11                     	;# 
  1152  0E12                     	;# 
  1153  0E13                     	;# 
  1154  0E14                     	;# 
  1155  0E15                     	;# 
  1156  0E17                     	;# 
  1157  0E20                     	;# 
  1158  0E21                     	;# 
  1159  0E22                     	;# 
  1160  0E24                     	;# 
  1161  0E25                     	;# 
  1162  0E28                     	;# 
  1163  0E29                     	;# 
  1164  0E2A                     	;# 
  1165  0E2B                     	;# 
  1166  0E90                     	;# 
  1167  0E91                     	;# 
  1168  0E92                     	;# 
  1169  0E93                     	;# 
  1170  0E94                     	;# 
  1171  0E95                     	;# 
  1172  0E96                     	;# 
  1173  0E97                     	;# 
  1174  0E98                     	;# 
  1175  0E99                     	;# 
  1176  0E9A                     	;# 
  1177  0E9B                     	;# 
  1178  0E9C                     	;# 
  1179  0E9D                     	;# 
  1180  0E9E                     	;# 
  1181  0E9F                     	;# 
  1182  0EA0                     	;# 
  1183  0EA1                     	;# 
  1184  0EA2                     	;# 
  1185  0EA3                     	;# 
  1186  0EA4                     	;# 
  1187  0EA5                     	;# 
  1188  0EA6                     	;# 
  1189  0EA7                     	;# 
  1190  0EA8                     	;# 
  1191  0EA9                     	;# 
  1192  0EAA                     	;# 
  1193  0EAB                     	;# 
  1194  0EAC                     	;# 
  1195  0EAD                     	;# 
  1196  0EAE                     	;# 
  1197  0EAF                     	;# 
  1198  0EB0                     	;# 
  1199  0EB1                     	;# 
  1200  0EB2                     	;# 
  1201  0F0F                     	;# 
  1202  0F10                     	;# 
  1203  0F11                     	;# 
  1204  0F12                     	;# 
  1205  0F13                     	;# 
  1206  0F14                     	;# 
  1207  0F15                     	;# 
  1208  0F16                     	;# 
  1209  0F17                     	;# 
  1210  0F18                     	;# 
  1211  0F19                     	;# 
  1212  0F1A                     	;# 
  1213  0F1B                     	;# 
  1214  0F1C                     	;# 
  1215  0F1D                     	;# 
  1216  0F1E                     	;# 
  1217  0F1F                     	;# 
  1218  0F20                     	;# 
  1219  0F21                     	;# 
  1220  0F22                     	;# 
  1221  0F23                     	;# 
  1222  0F24                     	;# 
  1223  0F25                     	;# 
  1224  0F26                     	;# 
  1225  0F27                     	;# 
  1226  0F28                     	;# 
  1227  0F29                     	;# 
  1228  0F2A                     	;# 
  1229  0F2B                     	;# 
  1230  0F2C                     	;# 
  1231  0F2D                     	;# 
  1232  0F2E                     	;# 
  1233  0F2F                     	;# 
  1234  0F30                     	;# 
  1235  0F31                     	;# 
  1236  0F32                     	;# 
  1237  0F33                     	;# 
  1238  0F34                     	;# 
  1239  0F35                     	;# 
  1240  0F36                     	;# 
  1241  0F37                     	;# 
  1242  0FE4                     	;# 
  1243  0FE5                     	;# 
  1244  0FE6                     	;# 
  1245  0FE7                     	;# 
  1246  0FE8                     	;# 
  1247  0FE9                     	;# 
  1248  0FEA                     	;# 
  1249  0FEB                     	;# 
  1250  0FED                     	;# 
  1251  0FEE                     	;# 
  1252  0FEF                     	;# 
  1253  0095                     _OPTION_REGbits	set	149
  1254  0099                     _OSCCON	set	153
  1255  0098                     _OSCTUNE	set	152
  1256  008C                     _TRISA	set	140
  1257  008D                     _TRISB	set	141
  1258  008E                     _TRISC	set	142
  1259  008F                     _TRISD	set	143
  1260  0090                     _TRISE	set	144
  1261  0097                     _WDTCON	set	151
  1262  0116                     _BORCON	set	278
  1263  010C                     _LATA	set	268
  1264  010D                     _LATB	set	269
  1265  010E                     _LATC	set	270
  1266  010F                     _LATD	set	271
  1267  0110                     _LATE	set	272
  1268  018C                     _ANSELA	set	396
  1269  018D                     _ANSELB	set	397
  1270  018E                     _ANSELC	set	398
  1271  018F                     _ANSELD	set	399
  1272  0190                     _ANSELE	set	400
  1273  020C                     _WPUA	set	524
  1274  020D                     _WPUB	set	525
  1275  020E                     _WPUC	set	526
  1276  020F                     _WPUD	set	527
  1277  0210                     _WPUE	set	528
  1278  028C                     _ODCONA	set	652
  1279  028D                     _ODCONB	set	653
  1280  028E                     _ODCONC	set	654
  1281  028F                     _ODCOND	set	655
  1282  0290                     _ODCONE	set	656
  1283  030C                     _SLRCONA	set	780
  1284  030D                     _SLRCONB	set	781
  1285  030E                     _SLRCONC	set	782
  1286  030F                     _SLRCOND	set	783
  1287  0310                     _SLRCONE	set	784
  1288  0499                     _NCO1ACCH	set	1177
  1289  0498                     _NCO1ACCL	set	1176
  1290  049A                     _NCO1ACCU	set	1178
  1291  049F                     _NCO1CLK	set	1183
  1292  049E                     _NCO1CON	set	1182
  1293  049E                     _NCO1CONbits	set	1182
  1294  049C                     _NCO1INCH	set	1180
  1295  049B                     _NCO1INCL	set	1179
  1296  049D                     _NCO1INCU	set	1181
  1297  0E94                     _RA4PPS	set	3732
  1298                           
  1299                           ; #config settings
  1300  0000                     
  1301                           	psect	cinit
  1302  07FD                     start_initialization:	
  1303  07FD                     __initialization:	
  1304  07FD                     end_of_initialization:	
  1305                           ;End of C runtime variable initialization code
  1306                           
  1307  07FD                     __end_of__initialization:	
  1308  07FD  0020               	movlb	0
  1309  07FE  3187  2FA1         	ljmp	_main	;jump to C main() function
  1310                           
  1311                           	psect	cstackCOMMON
  1312  0000                     __pcstackCOMMON:	
  1313  0000                     ?_SYSTEM_Initialize:	
  1314  0000                     ??_SYSTEM_Initialize:	
  1315                           ; 1 bytes @ 0x0
  1316                           
  1317  0000                     ?_PIN_MANAGER_Initialize:	
  1318                           ; 1 bytes @ 0x0
  1319                           
  1320  0000                     ??_PIN_MANAGER_Initialize:	
  1321                           ; 1 bytes @ 0x0
  1322                           
  1323  0000                     ?_OSCILLATOR_Initialize:	
  1324                           ; 1 bytes @ 0x0
  1325                           
  1326  0000                     ??_OSCILLATOR_Initialize:	
  1327                           ; 1 bytes @ 0x0
  1328                           
  1329  0000                     ?_WDT_Initialize:	
  1330                           ; 1 bytes @ 0x0
  1331                           
  1332  0000                     ??_WDT_Initialize:	
  1333                           ; 1 bytes @ 0x0
  1334                           
  1335  0000                     ?_NCO1_Initialize:	
  1336                           ; 1 bytes @ 0x0
  1337                           
  1338  0000                     ??_NCO1_Initialize:	
  1339                           ; 1 bytes @ 0x0
  1340                           
  1341  0000                     ?_main:	
  1342                           ; 1 bytes @ 0x0
  1343                           
  1344  0000                     ??_main:	
  1345                           ; 1 bytes @ 0x0
  1346                           
  1347                           
  1348                           	psect	maintext
  1349  07A1                     __pmaintext:	
  1350                           ; 1 bytes @ 0x0
  1351 ;;
  1352 ;;Main: autosize = 0, tempsize = 0, incstack = 0, save=0
  1353 ;;
  1354 ;; *************** function _main *****************
  1355 ;; Defined at:
  1356 ;;		line 49 in file "main.c"
  1357 ;; Parameters:    Size  Location     Type
  1358 ;;		None
  1359 ;; Auto vars:     Size  Location     Type
  1360 ;;		None
  1361 ;; Return value:  Size  Location     Type
  1362 ;;                  1    wreg      void 
  1363 ;; Registers used:
  1364 ;;		wreg, status,2, status,0, pclath, cstack
  1365 ;; Tracked objects:
  1366 ;;		On entry : B1F/0
  1367 ;;		On exit  : 0/0
  1368 ;;		Unchanged: 0/0
  1369 ;; Data sizes:     COMMON   BANK0   BANK1   BANK2   BANK3   BANK4   BANK5   BANK6   BANK7   BANK8   BANK9  BANK10  BANK1
      +1  BANK12  BANK13  BANK14  BANK15  BANK16  BANK17  BANK18  BANK19  BANK20  BANK21  BANK22  BANK23  BANK24  BANK25
  1370 ;;      Params:         0       0       0       0       0       0       0       0       0       0       0       0       
      +0       0       0       0       0       0       0       0       0       0       0       0       0       0       0
  1371 ;;      Locals:         0       0       0       0       0       0       0       0       0       0       0       0       
      +0       0       0       0       0       0       0       0       0       0       0       0       0       0       0
  1372 ;;      Temps:          0       0       0       0       0       0       0       0       0       0       0       0       
      +0       0       0       0       0       0       0       0       0       0       0       0       0       0       0
  1373 ;;      Totals:         0       0       0       0       0       0       0       0       0       0       0       0       
      +0       0       0       0       0       0       0       0       0       0       0       0       0       0       0
  1374 ;;Total ram usage:        0 bytes
  1375 ;; Hardware stack levels required when called:    2
  1376 ;; This function calls:
  1377 ;;		_SYSTEM_Initialize
  1378 ;; This function is called by:
  1379 ;;		Startup code after reset
  1380 ;; This function uses a non-reentrant model
  1381 ;;
  1382                           
  1383                           
  1384                           ;psect for function _main
  1385  07A1                     _main:	
  1386                           
  1387                           ;main.c: 52: SYSTEM_Initialize();
  1388                           
  1389                           ;incstack = 0
  1390                           ; Regs used in _main: [wreg+status,2+status,0+pclath+cstack]
  1391  07A1  3187  27B8  3187   	fcall	_SYSTEM_Initialize
  1392  07A4                     l5:	
  1393                           ;main.c: 69: while (1)
  1394                           
  1395                           
  1396                           ;main.c: 70: {
  1397  07A4  2FA4               	goto	l5
  1398  07A5                     __end_of_main:	
  1399                           
  1400                           	psect	text1
  1401  07B8                     __ptext1:	
  1402 ;; *************** function _SYSTEM_Initialize *****************
  1403 ;; Defined at:
  1404 ;;		line 50 in file "mcc_generated_files/mcc.c"
  1405 ;; Parameters:    Size  Location     Type
  1406 ;;		None
  1407 ;; Auto vars:     Size  Location     Type
  1408 ;;		None
  1409 ;; Return value:  Size  Location     Type
  1410 ;;                  1    wreg      void 
  1411 ;; Registers used:
  1412 ;;		wreg, status,2, status,0, pclath, cstack
  1413 ;; Tracked objects:
  1414 ;;		On entry : 0/0
  1415 ;;		On exit  : 0/0
  1416 ;;		Unchanged: 0/0
  1417 ;; Data sizes:     COMMON   BANK0   BANK1   BANK2   BANK3   BANK4   BANK5   BANK6   BANK7   BANK8   BANK9  BANK10  BANK1
      +1  BANK12  BANK13  BANK14  BANK15  BANK16  BANK17  BANK18  BANK19  BANK20  BANK21  BANK22  BANK23  BANK24  BANK25
  1418 ;;      Params:         0       0       0       0       0       0       0       0       0       0       0       0       
      +0       0       0       0       0       0       0       0       0       0       0       0       0       0       0
  1419 ;;      Locals:         0       0       0       0       0       0       0       0       0       0       0       0       
      +0       0       0       0       0       0       0       0       0       0       0       0       0       0       0
  1420 ;;      Temps:          0       0       0       0       0       0       0       0       0       0       0       0       
      +0       0       0       0       0       0       0       0       0       0       0       0       0       0       0
  1421 ;;      Totals:         0       0       0       0       0       0       0       0       0       0       0       0       
      +0       0       0       0       0       0       0       0       0       0       0       0       0       0       0
  1422 ;;Total ram usage:        0 bytes
  1423 ;; Hardware stack levels used:    1
  1424 ;; Hardware stack levels required when called:    1
  1425 ;; This function calls:
  1426 ;;		_NCO1_Initialize
  1427 ;;		_OSCILLATOR_Initialize
  1428 ;;		_PIN_MANAGER_Initialize
  1429 ;;		_WDT_Initialize
  1430 ;; This function is called by:
  1431 ;;		_main
  1432 ;; This function uses a non-reentrant model
  1433 ;;
  1434                           
  1435                           
  1436                           ;psect for function _SYSTEM_Initialize
  1437  07B8                     _SYSTEM_Initialize:	
  1438                           
  1439                           ;mcc.c: 53: PIN_MANAGER_Initialize();
  1440                           
  1441                           ;incstack = 0
  1442                           ; Regs used in _SYSTEM_Initialize: [wreg+status,2+status,0+pclath+cstack]
  1443  07B8  3187  27C4  3187   	fcall	_PIN_MANAGER_Initialize
  1444                           
  1445                           ;mcc.c: 54: OSCILLATOR_Initialize();
  1446  07BB  3187  27A5  3187   	fcall	_OSCILLATOR_Initialize
  1447                           
  1448                           ;mcc.c: 55: WDT_Initialize();
  1449  07BE  3187  279D  3187   	fcall	_WDT_Initialize
  1450                           
  1451                           ;mcc.c: 56: NCO1_Initialize();
  1452  07C1  3187  27AC         	fcall	_NCO1_Initialize
  1453  07C3  0008               	return
  1454  07C4                     __end_of_SYSTEM_Initialize:	
  1455                           
  1456                           	psect	text2
  1457  079D                     __ptext2:	
  1458 ;; *************** function _WDT_Initialize *****************
  1459 ;; Defined at:
  1460 ;;		line 69 in file "mcc_generated_files/mcc.c"
  1461 ;; Parameters:    Size  Location     Type
  1462 ;;		None
  1463 ;; Auto vars:     Size  Location     Type
  1464 ;;		None
  1465 ;; Return value:  Size  Location     Type
  1466 ;;                  1    wreg      void 
  1467 ;; Registers used:
  1468 ;;		wreg
  1469 ;; Tracked objects:
  1470 ;;		On entry : 0/0
  1471 ;;		On exit  : 0/0
  1472 ;;		Unchanged: 0/0
  1473 ;; Data sizes:     COMMON   BANK0   BANK1   BANK2   BANK3   BANK4   BANK5   BANK6   BANK7   BANK8   BANK9  BANK10  BANK1
      +1  BANK12  BANK13  BANK14  BANK15  BANK16  BANK17  BANK18  BANK19  BANK20  BANK21  BANK22  BANK23  BANK24  BANK25
  1474 ;;      Params:         0       0       0       0       0       0       0       0       0       0       0       0       
      +0       0       0       0       0       0       0       0       0       0       0       0       0       0       0
  1475 ;;      Locals:         0       0       0       0       0       0       0       0       0       0       0       0       
      +0       0       0       0       0       0       0       0       0       0       0       0       0       0       0
  1476 ;;      Temps:          0       0       0       0       0       0       0       0       0       0       0       0       
      +0       0       0       0       0       0       0       0       0       0       0       0       0       0       0
  1477 ;;      Totals:         0       0       0       0       0       0       0       0       0       0       0       0       
      +0       0       0       0       0       0       0       0       0       0       0       0       0       0       0
  1478 ;;Total ram usage:        0 bytes
  1479 ;; Hardware stack levels used:    1
  1480 ;; This function calls:
  1481 ;;		Nothing
  1482 ;; This function is called by:
  1483 ;;		_SYSTEM_Initialize
  1484 ;; This function uses a non-reentrant model
  1485 ;;
  1486                           
  1487                           
  1488                           ;psect for function _WDT_Initialize
  1489  079D                     _WDT_Initialize:	
  1490                           
  1491                           ;mcc.c: 72: WDTCON = 0x16;
  1492                           
  1493                           ;incstack = 0
  1494                           ; Regs used in _WDT_Initialize: [wreg]
  1495  079D  3016               	movlw	22
  1496  079E  0021               	movlb	1	; select bank1
  1497  079F  0097               	movwf	23	;volatile
  1498  07A0  0008               	return
  1499  07A1                     __end_of_WDT_Initialize:	
  1500                           
  1501                           	psect	text3
  1502  07C4                     __ptext3:	
  1503 ;; *************** function _PIN_MANAGER_Initialize *****************
  1504 ;; Defined at:
  1505 ;;		line 55 in file "mcc_generated_files/pin_manager.c"
  1506 ;; Parameters:    Size  Location     Type
  1507 ;;		None
  1508 ;; Auto vars:     Size  Location     Type
  1509 ;;		None
  1510 ;; Return value:  Size  Location     Type
  1511 ;;                  1    wreg      void 
  1512 ;; Registers used:
  1513 ;;		wreg, status,2
  1514 ;; Tracked objects:
  1515 ;;		On entry : 0/0
  1516 ;;		On exit  : 0/0
  1517 ;;		Unchanged: 0/0
  1518 ;; Data sizes:     COMMON   BANK0   BANK1   BANK2   BANK3   BANK4   BANK5   BANK6   BANK7   BANK8   BANK9  BANK10  BANK1
      +1  BANK12  BANK13  BANK14  BANK15  BANK16  BANK17  BANK18  BANK19  BANK20  BANK21  BANK22  BANK23  BANK24  BANK25
  1519 ;;      Params:         0       0       0       0       0       0       0       0       0       0       0       0       
      +0       0       0       0       0       0       0       0       0       0       0       0       0       0       0
  1520 ;;      Locals:         0       0       0       0       0       0       0       0       0       0       0       0       
      +0       0       0       0       0       0       0       0       0       0       0       0       0       0       0
  1521 ;;      Temps:          0       0       0       0       0       0       0       0       0       0       0       0       
      +0       0       0       0       0       0       0       0       0       0       0       0       0       0       0
  1522 ;;      Totals:         0       0       0       0       0       0       0       0       0       0       0       0       
      +0       0       0       0       0       0       0       0       0       0       0       0       0       0       0
  1523 ;;Total ram usage:        0 bytes
  1524 ;; Hardware stack levels used:    1
  1525 ;; This function calls:
  1526 ;;		Nothing
  1527 ;; This function is called by:
  1528 ;;		_SYSTEM_Initialize
  1529 ;; This function uses a non-reentrant model
  1530 ;;
  1531                           
  1532                           
  1533                           ;psect for function _PIN_MANAGER_Initialize
  1534  07C4                     _PIN_MANAGER_Initialize:	
  1535                           
  1536                           ;pin_manager.c: 60: LATE = 0x00;
  1537                           
  1538                           ;incstack = 0
  1539                           ; Regs used in _PIN_MANAGER_Initialize: [wreg+status,2]
  1540  07C4  0022               	movlb	2	; select bank2
  1541  07C5  0190               	clrf	16	;volatile
  1542                           
  1543                           ;pin_manager.c: 61: LATD = 0x00;
  1544  07C6  018F               	clrf	15	;volatile
  1545                           
  1546                           ;pin_manager.c: 62: LATA = 0x00;
  1547  07C7  018C               	clrf	12	;volatile
  1548                           
  1549                           ;pin_manager.c: 63: LATB = 0x00;
  1550  07C8  018D               	clrf	13	;volatile
  1551                           
  1552                           ;pin_manager.c: 64: LATC = 0x00;
  1553  07C9  018E               	clrf	14	;volatile
  1554                           
  1555                           ;pin_manager.c: 69: TRISE = 0x0F;
  1556  07CA  300F               	movlw	15
  1557  07CB  0021               	movlb	1	; select bank1
  1558  07CC  0090               	movwf	16	;volatile
  1559                           
  1560                           ;pin_manager.c: 70: TRISA = 0xEF;
  1561  07CD  30EF               	movlw	239
  1562  07CE  008C               	movwf	12	;volatile
  1563                           
  1564                           ;pin_manager.c: 71: TRISB = 0xFF;
  1565  07CF  30FF               	movlw	255
  1566  07D0  008D               	movwf	13	;volatile
  1567                           
  1568                           ;pin_manager.c: 72: TRISC = 0xFF;
  1569  07D1  30FF               	movlw	255
  1570  07D2  008E               	movwf	14	;volatile
  1571                           
  1572                           ;pin_manager.c: 73: TRISD = 0xFF;
  1573  07D3  30FF               	movlw	255
  1574  07D4  008F               	movwf	15	;volatile
  1575                           
  1576                           ;pin_manager.c: 78: ANSELD = 0xFF;
  1577  07D5  30FF               	movlw	255
  1578  07D6  0023               	movlb	3	; select bank3
  1579  07D7  008F               	movwf	15	;volatile
  1580                           
  1581                           ;pin_manager.c: 79: ANSELC = 0xFC;
  1582  07D8  30FC               	movlw	252
  1583  07D9  008E               	movwf	14	;volatile
  1584                           
  1585                           ;pin_manager.c: 80: ANSELB = 0x3F;
  1586  07DA  303F               	movlw	63
  1587  07DB  008D               	movwf	13	;volatile
  1588                           
  1589                           ;pin_manager.c: 81: ANSELE = 0x07;
  1590  07DC  3007               	movlw	7
  1591  07DD  0090               	movwf	16	;volatile
  1592                           
  1593                           ;pin_manager.c: 82: ANSELA = 0x3F;
  1594  07DE  303F               	movlw	63
  1595  07DF  008C               	movwf	12	;volatile
  1596                           
  1597                           ;pin_manager.c: 87: WPUD = 0x00;
  1598  07E0  0024               	movlb	4	; select bank4
  1599  07E1  018F               	clrf	15	;volatile
  1600                           
  1601                           ;pin_manager.c: 88: WPUE = 0x00;
  1602  07E2  0190               	clrf	16	;volatile
  1603                           
  1604                           ;pin_manager.c: 89: WPUB = 0x00;
  1605  07E3  018D               	clrf	13	;volatile
  1606                           
  1607                           ;pin_manager.c: 90: WPUA = 0x00;
  1608  07E4  018C               	clrf	12	;volatile
  1609                           
  1610                           ;pin_manager.c: 91: WPUC = 0x00;
  1611  07E5  018E               	clrf	14	;volatile
  1612                           
  1613                           ;pin_manager.c: 92: OPTION_REGbits.nWPUEN = 1;
  1614  07E6  0021               	movlb	1	; select bank1
  1615  07E7  1795               	bsf	21,7	;volatile
  1616                           
  1617                           ;pin_manager.c: 97: ODCONE = 0x00;
  1618  07E8  0025               	movlb	5	; select bank5
  1619  07E9  0190               	clrf	16	;volatile
  1620                           
  1621                           ;pin_manager.c: 98: ODCONA = 0x00;
  1622  07EA  018C               	clrf	12	;volatile
  1623                           
  1624                           ;pin_manager.c: 99: ODCONB = 0x00;
  1625  07EB  018D               	clrf	13	;volatile
  1626                           
  1627                           ;pin_manager.c: 100: ODCONC = 0x00;
  1628  07EC  018E               	clrf	14	;volatile
  1629                           
  1630                           ;pin_manager.c: 101: ODCOND = 0x00;
  1631  07ED  018F               	clrf	15	;volatile
  1632                           
  1633                           ;pin_manager.c: 106: SLRCONA = 0xFF;
  1634  07EE  30FF               	movlw	255
  1635  07EF  0026               	movlb	6	; select bank6
  1636  07F0  008C               	movwf	12	;volatile
  1637                           
  1638                           ;pin_manager.c: 107: SLRCONB = 0xFF;
  1639  07F1  30FF               	movlw	255
  1640  07F2  008D               	movwf	13	;volatile
  1641                           
  1642                           ;pin_manager.c: 108: SLRCONC = 0xFF;
  1643  07F3  30FF               	movlw	255
  1644  07F4  008E               	movwf	14	;volatile
  1645                           
  1646                           ;pin_manager.c: 109: SLRCOND = 0xFF;
  1647  07F5  30FF               	movlw	255
  1648  07F6  008F               	movwf	15	;volatile
  1649                           
  1650                           ;pin_manager.c: 110: SLRCONE = 0x07;
  1651  07F7  3007               	movlw	7
  1652  07F8  0090               	movwf	16	;volatile
  1653                           
  1654                           ;pin_manager.c: 119: RA4PPS = 0x03;
  1655  07F9  3003               	movlw	3
  1656  07FA  003D               	movlb	29	; select bank29
  1657  07FB  0094               	movwf	20	;volatile
  1658  07FC  0008               	return
  1659  07FD                     __end_of_PIN_MANAGER_Initialize:	
  1660                           
  1661                           	psect	text4
  1662  07A5                     __ptext4:	
  1663 ;; *************** function _OSCILLATOR_Initialize *****************
  1664 ;; Defined at:
  1665 ;;		line 59 in file "mcc_generated_files/mcc.c"
  1666 ;; Parameters:    Size  Location     Type
  1667 ;;		None
  1668 ;; Auto vars:     Size  Location     Type
  1669 ;;		None
  1670 ;; Return value:  Size  Location     Type
  1671 ;;                  1    wreg      void 
  1672 ;; Registers used:
  1673 ;;		wreg, status,2
  1674 ;; Tracked objects:
  1675 ;;		On entry : 0/0
  1676 ;;		On exit  : 0/0
  1677 ;;		Unchanged: 0/0
  1678 ;; Data sizes:     COMMON   BANK0   BANK1   BANK2   BANK3   BANK4   BANK5   BANK6   BANK7   BANK8   BANK9  BANK10  BANK1
      +1  BANK12  BANK13  BANK14  BANK15  BANK16  BANK17  BANK18  BANK19  BANK20  BANK21  BANK22  BANK23  BANK24  BANK25
  1679 ;;      Params:         0       0       0       0       0       0       0       0       0       0       0       0       
      +0       0       0       0       0       0       0       0       0       0       0       0       0       0       0
  1680 ;;      Locals:         0       0       0       0       0       0       0       0       0       0       0       0       
      +0       0       0       0       0       0       0       0       0       0       0       0       0       0       0
  1681 ;;      Temps:          0       0       0       0       0       0       0       0       0       0       0       0       
      +0       0       0       0       0       0       0       0       0       0       0       0       0       0       0
  1682 ;;      Totals:         0       0       0       0       0       0       0       0       0       0       0       0       
      +0       0       0       0       0       0       0       0       0       0       0       0       0       0       0
  1683 ;;Total ram usage:        0 bytes
  1684 ;; Hardware stack levels used:    1
  1685 ;; This function calls:
  1686 ;;		Nothing
  1687 ;; This function is called by:
  1688 ;;		_SYSTEM_Initialize
  1689 ;; This function uses a non-reentrant model
  1690 ;;
  1691                           
  1692                           
  1693                           ;psect for function _OSCILLATOR_Initialize
  1694  07A5                     _OSCILLATOR_Initialize:	
  1695                           
  1696                           ;mcc.c: 62: OSCCON = 0x38;
  1697                           
  1698                           ;incstack = 0
  1699                           ; Regs used in _OSCILLATOR_Initialize: [wreg+status,2]
  1700  07A5  3038               	movlw	56
  1701  07A6  0021               	movlb	1	; select bank1
  1702  07A7  0099               	movwf	25	;volatile
  1703                           
  1704                           ;mcc.c: 64: OSCTUNE = 0x00;
  1705  07A8  0198               	clrf	24	;volatile
  1706                           
  1707                           ;mcc.c: 66: BORCON = 0x00;
  1708  07A9  0022               	movlb	2	; select bank2
  1709  07AA  0196               	clrf	22	;volatile
  1710  07AB  0008               	return
  1711  07AC                     __end_of_OSCILLATOR_Initialize:	
  1712                           
  1713                           	psect	text5
  1714  07AC                     __ptext5:	
  1715 ;; *************** function _NCO1_Initialize *****************
  1716 ;; Defined at:
  1717 ;;		line 58 in file "mcc_generated_files/nco1.c"
  1718 ;; Parameters:    Size  Location     Type
  1719 ;;		None
  1720 ;; Auto vars:     Size  Location     Type
  1721 ;;		None
  1722 ;; Return value:  Size  Location     Type
  1723 ;;                  1    wreg      void 
  1724 ;; Registers used:
  1725 ;;		wreg, status,2
  1726 ;; Tracked objects:
  1727 ;;		On entry : 0/0
  1728 ;;		On exit  : 0/0
  1729 ;;		Unchanged: 0/0
  1730 ;; Data sizes:     COMMON   BANK0   BANK1   BANK2   BANK3   BANK4   BANK5   BANK6   BANK7   BANK8   BANK9  BANK10  BANK1
      +1  BANK12  BANK13  BANK14  BANK15  BANK16  BANK17  BANK18  BANK19  BANK20  BANK21  BANK22  BANK23  BANK24  BANK25
  1731 ;;      Params:         0       0       0       0       0       0       0       0       0       0       0       0       
      +0       0       0       0       0       0       0       0       0       0       0       0       0       0       0
  1732 ;;      Locals:         0       0       0       0       0       0       0       0       0       0       0       0       
      +0       0       0       0       0       0       0       0       0       0       0       0       0       0       0
  1733 ;;      Temps:          0       0       0       0       0       0       0       0       0       0       0       0       
      +0       0       0       0       0       0       0       0       0       0       0       0       0       0       0
  1734 ;;      Totals:         0       0       0       0       0       0       0       0       0       0       0       0       
      +0       0       0       0       0       0       0       0       0       0       0       0       0       0       0
  1735 ;;Total ram usage:        0 bytes
  1736 ;; Hardware stack levels used:    1
  1737 ;; This function calls:
  1738 ;;		Nothing
  1739 ;; This function is called by:
  1740 ;;		_SYSTEM_Initialize
  1741 ;; This function uses a non-reentrant model
  1742 ;;
  1743                           
  1744                           
  1745                           ;psect for function _NCO1_Initialize
  1746  07AC                     _NCO1_Initialize:	
  1747                           
  1748                           ;nco1.c: 62: NCO1CON = 0x00;
  1749                           
  1750                           ;incstack = 0
  1751                           ; Regs used in _NCO1_Initialize: [wreg+status,2]
  1752  07AC  0029               	movlb	9	; select bank9
  1753  07AD  019E               	clrf	30	;volatile
  1754                           
  1755                           ;nco1.c: 64: NCO1CLK = 0x00;
  1756  07AE  019F               	clrf	31	;volatile
  1757                           
  1758                           ;nco1.c: 66: NCO1ACCU = 0x00;
  1759  07AF  019A               	clrf	26	;volatile
  1760                           
  1761                           ;nco1.c: 68: NCO1ACCH = 0x00;
  1762  07B0  0199               	clrf	25	;volatile
  1763                           
  1764                           ;nco1.c: 70: NCO1ACCL = 0x00;
  1765  07B1  0198               	clrf	24	;volatile
  1766                           
  1767                           ;nco1.c: 72: NCO1INCU = 0x00;
  1768  07B2  019D               	clrf	29	;volatile
  1769                           
  1770                           ;nco1.c: 74: NCO1INCH = 0x00;
  1771  07B3  019C               	clrf	28	;volatile
  1772                           
  1773                           ;nco1.c: 76: NCO1INCL = 0x83;
  1774  07B4  3083               	movlw	131
  1775  07B5  009B               	movwf	27	;volatile
  1776                           
  1777                           ;nco1.c: 79: NCO1CONbits.N1EN = 1;
  1778  07B6  179E               	bsf	30,7	;volatile
  1779  07B7  0008               	return
  1780  07B8                     __end_of_NCO1_Initialize:	
  1781  007E                     btemp	set	126	;btemp
  1782  007E                     wtemp	set	126
  1783  007E                     wtemp0	set	126
  1784  0080                     wtemp1	set	128
  1785  0082                     wtemp2	set	130
  1786  0084                     wtemp3	set	132
  1787  0086                     wtemp4	set	134
  1788  0088                     wtemp5	set	136
  1789  007F                     wtemp6	set	127
  1790  007E                     ttemp	set	126
  1791  007E                     ttemp0	set	126
  1792  0081                     ttemp1	set	129
  1793  0084                     ttemp2	set	132
  1794  0087                     ttemp3	set	135
  1795  007F                     ttemp4	set	127
  1796  007E                     ltemp	set	126
  1797  007E                     ltemp0	set	126
  1798  0082                     ltemp1	set	130
  1799  0086                     ltemp2	set	134
  1800  0080                     ltemp3	set	128


Data Sizes:
    Strings     0
    Constant    0
    Data        0
    BSS         0
    Persistent  0
    Stack       0

Auto Spaces:
    Space          Size  Autos    Used
    COMMON           14      0       0
    BANK0            80      0       0
    BANK1            80      0       0
    BANK2            80      0       0
    BANK3            80      0       0
    BANK4            80      0       0
    BANK5            80      0       0
    BANK6            80      0       0
    BANK7            80      0       0
    BANK8            80      0       0
    BANK9            80      0       0
    BANK10           80      0       0
    BANK11           80      0       0
    BANK12           80      0       0
    BANK13           80      0       0
    BANK14           80      0       0
    BANK15           80      0       0
    BANK16           80      0       0
    BANK17           80      0       0
    BANK18           80      0       0
    BANK19           80      0       0
    BANK20           80      0       0
    BANK21           80      0       0
    BANK22           80      0       0
    BANK23           80      0       0
    BANK24           80      0       0
    BANK25           32      0       0

Pointer List with Targets:

    None.

Critical Paths under _main in COMMON

    None.

Critical Paths under _main in BANK0

    None.

Critical Paths under _main in BANK1

    None.

Critical Paths under _main in BANK2

    None.

Critical Paths under _main in BANK3

    None.

Critical Paths under _main in BANK4

    None.

Critical Paths under _main in BANK5

    None.

Critical Paths under _main in BANK6

    None.

Critical Paths under _main in BANK7

    None.

Critical Paths under _main in BANK8

    None.

Critical Paths under _main in BANK9

    None.

Critical Paths under _main in BANK10

    None.

Critical Paths under _main in BANK11

    None.

Critical Paths under _main in BANK12

    None.

Critical Paths under _main in BANK13

    None.

Critical Paths under _main in BANK14

    None.

Critical Paths under _main in BANK15

    None.

Critical Paths under _main in BANK16

    None.

Critical Paths under _main in BANK17

    None.

Critical Paths under _main in BANK18

    None.

Critical Paths under _main in BANK19

    None.

Critical Paths under _main in BANK20

    None.

Critical Paths under _main in BANK21

    None.

Critical Paths under _main in BANK22

    None.

Critical Paths under _main in BANK23

    None.

Critical Paths under _main in BANK24

    None.

Critical Paths under _main in BANK25

    None.

Call Graph Tables:

 ---------------------------------------------------------------------------------
 (Depth) Function   	        Calls       Base Space   Used Autos Params    Refs
 ---------------------------------------------------------------------------------
 (0) _main                                                 0     0      0       0
                  _SYSTEM_Initialize
 ---------------------------------------------------------------------------------
 (1) _SYSTEM_Initialize                                    0     0      0       0
                    _NCO1_Initialize
              _OSCILLATOR_Initialize
             _PIN_MANAGER_Initialize
                     _WDT_Initialize
 ---------------------------------------------------------------------------------
 (2) _WDT_Initialize                                       0     0      0       0
 ---------------------------------------------------------------------------------
 (2) _PIN_MANAGER_Initialize                               0     0      0       0
 ---------------------------------------------------------------------------------
 (2) _OSCILLATOR_Initialize                                0     0      0       0
 ---------------------------------------------------------------------------------
 (2) _NCO1_Initialize                                      0     0      0       0
 ---------------------------------------------------------------------------------
 Estimated maximum stack depth 2
 ---------------------------------------------------------------------------------

 Call Graph Graphs:

 _main (ROOT)
   _SYSTEM_Initialize
     _NCO1_Initialize
     _OSCILLATOR_Initialize
     _PIN_MANAGER_Initialize
     _WDT_Initialize

 Address spaces:
Name               Size   Autos  Total    Cost      Usage
BIGRAM             7F0      0       0       0        0.0%
NULL                 0      0       0       0        0.0%
CODE                 0      0       0       0        0.0%
BITCOMMON            E      0       0       1        0.0%
BITSFR0              0      0       0       1        0.0%
SFR0                 0      0       0       1        0.0%
COMMON               E      0       0       2        0.0%
BITSFR1              0      0       0       2        0.0%
SFR1                 0      0       0       2        0.0%
BITSFR2              0      0       0       3        0.0%
SFR2                 0      0       0       3        0.0%
STACK                0      0       0       3        0.0%
BITBANK0            50      0       0       4        0.0%
BITSFR3              0      0       0       4        0.0%
SFR3                 0      0       0       4        0.0%
BANK0               50      0       0       5        0.0%
BITSFR4              0      0       0       5        0.0%
SFR4                 0      0       0       5        0.0%
BITBANK1            50      0       0       6        0.0%
BITSFR5              0      0       0       6        0.0%
SFR5                 0      0       0       6        0.0%
BANK1               50      0       0       7        0.0%
BITSFR6              0      0       0       7        0.0%
SFR6                 0      0       0       7        0.0%
BITBANK2            50      0       0       8        0.0%
BITSFR7              0      0       0       8        0.0%
SFR7                 0      0       0       8        0.0%
BANK2               50      0       0       9        0.0%
BITSFR8              0      0       0       9        0.0%
SFR8                 0      0       0       9        0.0%
BITBANK3            50      0       0      10        0.0%
BITSFR9              0      0       0      10        0.0%
SFR9                 0      0       0      10        0.0%
BANK3               50      0       0      11        0.0%
BITSFR10             0      0       0      11        0.0%
SFR10                0      0       0      11        0.0%
BITBANK4            50      0       0      12        0.0%
BITSFR11             0      0       0      12        0.0%
SFR11                0      0       0      12        0.0%
BANK4               50      0       0      13        0.0%
BITSFR12             0      0       0      13        0.0%
SFR12                0      0       0      13        0.0%
BITSFR13             0      0       0      14        0.0%
SFR13                0      0       0      14        0.0%
ABS                  0      0       0      14        0.0%
BITBANK5            50      0       0      15        0.0%
BITSFR14             0      0       0      15        0.0%
SFR14                0      0       0      15        0.0%
BANK5               50      0       0      16        0.0%
BITSFR15             0      0       0      16        0.0%
SFR15                0      0       0      16        0.0%
BITBANK6            50      0       0      17        0.0%
BITSFR16             0      0       0      17        0.0%
SFR16                0      0       0      17        0.0%
BANK6               50      0       0      18        0.0%
BITSFR17             0      0       0      18        0.0%
SFR17                0      0       0      18        0.0%
BITBANK7            50      0       0      19        0.0%
BITSFR18             0      0       0      19        0.0%
SFR18                0      0       0      19        0.0%
BANK7               50      0       0      20        0.0%
BITSFR19             0      0       0      20        0.0%
SFR19                0      0       0      20        0.0%
BITBANK8            50      0       0      21        0.0%
BITSFR20             0      0       0      21        0.0%
SFR20                0      0       0      21        0.0%
BANK8               50      0       0      22        0.0%
BITSFR21             0      0       0      22        0.0%
SFR21                0      0       0      22        0.0%
BITBANK9            50      0       0      23        0.0%
BITSFR22             0      0       0      23        0.0%
SFR22                0      0       0      23        0.0%
BANK9               50      0       0      24        0.0%
BITSFR23             0      0       0      24        0.0%
SFR23                0      0       0      24        0.0%
BITBANK10           50      0       0      25        0.0%
BITSFR24             0      0       0      25        0.0%
SFR24                0      0       0      25        0.0%
BANK10              50      0       0      26        0.0%
BITSFR25             0      0       0      26        0.0%
SFR25                0      0       0      26        0.0%
BITBANK11           50      0       0      27        0.0%
BITSFR26             0      0       0      27        0.0%
SFR26                0      0       0      27        0.0%
BITSFR27             0      0       0      28        0.0%
SFR27                0      0       0      28        0.0%
DATA                 0      0       0      28        0.0%
BANK11              50      0       0      29        0.0%
BITSFR28             0      0       0      29        0.0%
SFR28                0      0       0      29        0.0%
BITBANK12           50      0       0      30        0.0%
BITSFR29             0      0       0      30        0.0%
SFR29                0      0       0      30        0.0%
BANK12              50      0       0      31        0.0%
BITSFR30             0      0       0      31        0.0%
SFR30                0      0       0      31        0.0%
BITBANK13           50      0       0      32        0.0%
BITSFR31             0      0       0      32        0.0%
SFR31                0      0       0      32        0.0%
BANK13              50      0       0      33        0.0%
BITBANK14           50      0       0      34        0.0%
BANK14              50      0       0      35        0.0%
BITBANK15           50      0       0      36        0.0%
BANK15              50      0       0      37        0.0%
BITBANK16           50      0       0      38        0.0%
BANK16              50      0       0      39        0.0%
BITBANK17           50      0       0      40        0.0%
BANK17              50      0       0      41        0.0%
BITBANK18           50      0       0      42        0.0%
BANK18              50      0       0      43        0.0%
BITBANK19           50      0       0      44        0.0%
BANK19              50      0       0      45        0.0%
BITBANK20           50      0       0      46        0.0%
BANK20              50      0       0      47        0.0%
BITBANK21           50      0       0      48        0.0%
BANK21              50      0       0      49        0.0%
BITBANK22           50      0       0      50        0.0%
BANK22              50      0       0      51        0.0%
BITBANK23           50      0       0      52        0.0%
BANK23              50      0       0      53        0.0%
BITBANK24           50      0       0      54        0.0%
BANK24              50      0       0      55        0.0%
BITBANK25           20      0       0      56        0.0%
BANK25              20      0       0      57        0.0%


Microchip Technology PIC Macro Assembler V1.38 build -256452561 
Symbol Table                                                                                   Mon Apr 22 14:22:51 2019

                              l5 07A4                      __CFG_CP$OFF 0000                      __CFG_LVP$ON 0000  
                   __CFG_BORV$LO 0000                     __CFG_IESO$ON 0000                             _LATA 010C  
                           _LATB 010D                             _LATC 010E                             _LATD 010F  
                           _LATE 0110                             _WPUA 020C                             _WPUB 020D  
                           _WPUC 020E                             _WPUD 020F                             _WPUE 0210  
                   __CFG_WRT$OFF 0000                    __CFG_FCMEN$ON 0000                             _main 07A1  
                           btemp 007E                    __CFG_BOREN$ON 0000                             ltemp 007E  
                           start 0002                             ttemp 007E                             wtemp 007E  
               ?_NCO1_Initialize 0000                    __CFG_MCLRE$ON 0000   __size_of_OSCILLATOR_Initialize 0007  
  __end_of_OSCILLATOR_Initialize 07AC                            ?_main 0000                    __CFG_WDTE$OFF 0000  
                          _TRISA 008C                            _TRISB 008D                            _TRISC 008E  
                          _TRISD 008F                            _TRISE 0090                   _WDT_Initialize 079D  
                          ltemp0 007E                            ltemp1 0082                            ltemp2 0086  
                          ltemp3 0080                            ttemp0 007E                            ttemp1 0081  
                          ttemp2 0084                            ttemp3 0087                            ttemp4 007F  
                          wtemp0 007E                            wtemp1 0080                            wtemp2 0082  
                          wtemp3 0084                            wtemp4 0086                            wtemp5 0088  
                          wtemp6 007F                  __initialization 07FD                     __end_of_main 07A5  
                 __CFG_LPBOR$OFF 0000                           ??_main 0000                   __CFG_PLLEN$OFF 0000  
         __end_of_WDT_Initialize 07A1                   __CFG_ZCDDIS$ON 0000                           _ANSELA 018C  
                         _ANSELB 018D                           _ANSELC 018E                           _ANSELD 018F  
                         _ANSELE 0190                           _BORCON 0116                           _RA4PPS 0E94  
                         _ODCONA 028C                           _ODCONB 028D                           _ODCONC 028E  
                         _ODCOND 028F                           _ODCONE 0290                           _OSCCON 0099  
                         _WDTCON 0097                   __CFG_PWRTE$OFF 0000                   __CFG_STVREN$ON 0000  
                ?_WDT_Initialize 0000                _SYSTEM_Initialize 07B8          __end_of__initialization 07FD  
             ?_SYSTEM_Initialize 0000                   __pcstackCOMMON 0000              ??_SYSTEM_Initialize 0000  
                 _OPTION_REGbits 0095        __end_of_SYSTEM_Initialize 07C4                       __pmaintext 07A1  
                __CFG_PPS1WAY$ON 0000                          _NCO1CLK 049F                          _NCO1CON 049E  
                        _OSCTUNE 0098                          _SLRCONA 030C                          _SLRCONB 030D  
                        _SLRCONC 030E                          _SLRCOND 030F                          _SLRCONE 0310  
       __size_of_NCO1_Initialize 000C                          __ptext1 07B8                          __ptext2 079D  
                        __ptext3 07C4                          __ptext4 07A5                          __ptext5 07AC  
          _OSCILLATOR_Initialize 07A5         ??_PIN_MANAGER_Initialize 0000       __size_of_SYSTEM_Initialize 000C  
           end_of_initialization 07FD                 ??_WDT_Initialize 0000                 __CFG_FOSC$INTOSC 0000  
         ?_OSCILLATOR_Initialize 0000              start_initialization 07FD  __size_of_PIN_MANAGER_Initialize 0039  
              ??_NCO1_Initialize 0000                        ___latbits 0003           _PIN_MANAGER_Initialize 07C4  
                    _NCO1CONbits 049E                         _NCO1ACCH 0499                         _NCO1ACCL 0498  
                       _NCO1ACCU 049A                         _NCO1INCH 049C                         _NCO1INCL 049B  
                       _NCO1INCU 049D          ??_OSCILLATOR_Initialize 0000                  _NCO1_Initialize 07AC  
                  __size_of_main 0004          __size_of_WDT_Initialize 0004          ?_PIN_MANAGER_Initialize 0000  
              __CFG_CLKOUTEN$OFF 0000          __end_of_NCO1_Initialize 07B8   __end_of_PIN_MANAGER_Initialize 07FD  
