

Microchip MPLAB XC8 Assembler V2.46 build 20240104201356 
                                                                                               Fri Dec 26 01:13:25 2025

Microchip MPLAB XC8 C Compiler v2.46 (Free license) build 20240104201356 Og1 
     1                           	processor	16F1718
     2                           	pagewidth 120
     3                           	opt	flic
     4                           	psect	idataBANK0,global,class=CODE,delta=2,noexec
     5                           	psect	cinit,global,class=CODE,merge=1,delta=2
     6                           	psect	bssCOMMON,global,class=COMMON,space=1,delta=1,noexec
     7                           	psect	dataBANK0,global,class=BANK0,space=1,delta=1,noexec
     8                           	psect	cstackBANK2,global,class=BANK2,space=1,delta=1,noexec
     9                           	psect	cstackBANK1,global,class=BANK1,space=1,delta=1,noexec
    10                           	psect	cstackCOMMON,global,class=COMMON,space=1,delta=1,noexec
    11                           	psect	cstackBANK0,global,class=BANK0,space=1,delta=1,noexec
    12                           	psect	maintext,global,class=CODE,merge=1,split=1,delta=2
    13                           	psect	text1,local,class=CODE,merge=1,delta=2
    14                           	psect	text2,local,class=CODE,merge=1,delta=2
    15                           	psect	text3,local,class=CODE,merge=1,delta=2
    16                           	psect	text4,local,class=CODE,merge=1,inline,delta=2
    17                           	psect	text5,local,class=CODE,merge=1,delta=2,group=1
    18                           	psect	text6,local,class=CODE,merge=1,delta=2,group=1
    19                           	psect	text7,local,class=CODE,merge=1,inline,delta=2
    20                           	psect	text8,local,class=CODE,merge=1,inline,delta=2
    21                           	psect	text9,local,class=CODE,merge=1,delta=2,group=1
    22                           	psect	text10,local,class=CODE,merge=1,inline,delta=2
    23                           	psect	text11,local,class=CODE,merge=1,delta=2,group=1
    24                           	psect	text12,local,class=CODE,merge=1,delta=2
    25                           	psect	text13,local,class=CODE,merge=1,delta=2
    26                           	psect	text14,local,class=CODE,merge=1,inline,delta=2
    27                           	psect	text15,local,class=CODE,merge=1,delta=2
    28                           	psect	intentry,global,class=CODE,delta=2
    29                           	psect	text17,local,class=CODE,merge=1,delta=2
    30                           	psect	text18,local,class=CODE,merge=1,inline,delta=2
    31                           	psect	config,global,abs,ovrld,class=CONFIG,space=4,delta=2,noexec
    32                           	dabs	1,0x7E,2
    33     0000                     
    34                           ; Generated 07/09/2023 GMT
    35                           ; 
    36                           ; Copyright © 2023, Microchip Technology Inc. and its subsidiaries ("Microchip")
    37                           ; All rights reserved.
    38                           ; 
    39                           ; This software is developed by Microchip Technology Inc. and its subsidiaries ("Microch
      +                          ip").
    40                           ; 
    41                           ; Redistribution and use in source and binary forms, with or without modification, are
    42                           ; permitted provided that the following conditions are met:
    43                           ; 
    44                           ;     1. Redistributions of source code must retain the above copyright notice, this lis
      +                          t of
    45                           ;        conditions and the following disclaimer.
    46                           ; 
    47                           ;     2. Redistributions in binary form must reproduce the above copyright notice, this 
      +                          list
    48                           ;        of conditions and the following disclaimer in the documentation and/or other
    49                           ;        materials provided with the distribution. Publication is not required when
    50                           ;        this file is used in an embedded application.
    51                           ; 
    52                           ;     3. Microchip's name may not be used to endorse or promote products derived from th
      +                          is
    53                           ;        software without specific prior written permission.
    54                           ; 
    55                           ; THIS SOFTWARE IS PROVIDED BY MICROCHIP "AS IS" AND ANY EXPRESS OR IMPLIED WARRANTIES,
    56                           ; INCLUDING, BUT NOT LIMITED TO, THE IMPLIED WARRANTIES OF MERCHANTABILITY AND FITNESS F
      +                          OR
    57                           ; PURPOSE ARE DISCLAIMED.  IN NO EVENT SHALL MICROCHIP BE LIABLE FOR ANY DIRECT, INDIREC
      +                          T,
    58                           ; INCIDENTAL, SPECIAL, EXEMPLARY, OR CONSEQUENTIAL DAMAGES (INCLUDING BUT NOT LIMITED TO
    59                           ; PROCUREMENT OF SUBSTITUTE GOODS OR SERVICES; LOSS OF USE, DATA OR PROFITS; OR BUSINESS
    60                           ; INTERRUPTION) HOWSOEVER CAUSED AND ON ANY THEORY OF LIABILITY, WHETHER IN CONTRACT, ST
      +                          RICT
    61                           ; LIABILITY, OR TORT (INCLUDING NEGLIGENCE OR OTHERWISE) ARISING IN ANY WAY OUT OF THE U
      +                          SE OF
    62                           ; THIS SOFTWARE, EVEN IF ADVISED OF THE POSSIBILITY OF SUCH DAMAGE.
    63                           ; 
    64                           ; 
    65                           ; Code-generator required, PIC16F1718 Definitions
    66                           ; 
    67                           ; SFR Addresses
    68     0000                     	;# 
    69     0001                     	;# 
    70     0002                     	;# 
    71     0003                     	;# 
    72     0004                     	;# 
    73     0005                     	;# 
    74     0006                     	;# 
    75     0007                     	;# 
    76     0008                     	;# 
    77     0009                     	;# 
    78     000A                     	;# 
    79     000B                     	;# 
    80     000C                     	;# 
    81     000D                     	;# 
    82     000E                     	;# 
    83     0010                     	;# 
    84     0011                     	;# 
    85     0012                     	;# 
    86     0013                     	;# 
    87     0015                     	;# 
    88     0016                     	;# 
    89     0016                     	;# 
    90     0017                     	;# 
    91     0018                     	;# 
    92     0019                     	;# 
    93     001A                     	;# 
    94     001B                     	;# 
    95     001C                     	;# 
    96     008C                     	;# 
    97     008D                     	;# 
    98     008E                     	;# 
    99     0090                     	;# 
   100     0091                     	;# 
   101     0092                     	;# 
   102     0093                     	;# 
   103     0095                     	;# 
   104     0096                     	;# 
   105     0097                     	;# 
   106     0098                     	;# 
   107     0099                     	;# 
   108     009A                     	;# 
   109     009B                     	;# 
   110     009B                     	;# 
   111     009C                     	;# 
   112     009D                     	;# 
   113     009E                     	;# 
   114     009F                     	;# 
   115     010C                     	;# 
   116     010D                     	;# 
   117     010E                     	;# 
   118     0111                     	;# 
   119     0112                     	;# 
   120     0113                     	;# 
   121     0114                     	;# 
   122     0115                     	;# 
   123     0116                     	;# 
   124     0117                     	;# 
   125     0118                     	;# 
   126     0119                     	;# 
   127     011A                     	;# 
   128     011B                     	;# 
   129     011B                     	;# 
   130     011C                     	;# 
   131     018C                     	;# 
   132     018D                     	;# 
   133     018E                     	;# 
   134     0191                     	;# 
   135     0191                     	;# 
   136     0192                     	;# 
   137     0193                     	;# 
   138     0193                     	;# 
   139     0194                     	;# 
   140     0195                     	;# 
   141     0196                     	;# 
   142     0197                     	;# 
   143     0199                     	;# 
   144     0199                     	;# 
   145     0199                     	;# 
   146     019A                     	;# 
   147     019A                     	;# 
   148     019A                     	;# 
   149     019B                     	;# 
   150     019B                     	;# 
   151     019B                     	;# 
   152     019B                     	;# 
   153     019B                     	;# 
   154     019C                     	;# 
   155     019C                     	;# 
   156     019C                     	;# 
   157     019D                     	;# 
   158     019D                     	;# 
   159     019D                     	;# 
   160     019E                     	;# 
   161     019E                     	;# 
   162     019E                     	;# 
   163     019F                     	;# 
   164     019F                     	;# 
   165     019F                     	;# 
   166     019F                     	;# 
   167     019F                     	;# 
   168     020C                     	;# 
   169     020D                     	;# 
   170     020E                     	;# 
   171     0210                     	;# 
   172     0211                     	;# 
   173     0211                     	;# 
   174     0212                     	;# 
   175     0212                     	;# 
   176     0213                     	;# 
   177     0213                     	;# 
   178     0214                     	;# 
   179     0214                     	;# 
   180     0215                     	;# 
   181     0215                     	;# 
   182     0215                     	;# 
   183     0215                     	;# 
   184     0216                     	;# 
   185     0216                     	;# 
   186     0217                     	;# 
   187     0217                     	;# 
   188     028C                     	;# 
   189     028D                     	;# 
   190     028E                     	;# 
   191     0291                     	;# 
   192     0291                     	;# 
   193     0292                     	;# 
   194     0293                     	;# 
   195     0293                     	;# 
   196     0298                     	;# 
   197     0298                     	;# 
   198     0299                     	;# 
   199     029A                     	;# 
   200     029A                     	;# 
   201     029E                     	;# 
   202     030C                     	;# 
   203     030D                     	;# 
   204     030E                     	;# 
   205     038C                     	;# 
   206     038D                     	;# 
   207     038E                     	;# 
   208     0390                     	;# 
   209     0391                     	;# 
   210     0392                     	;# 
   211     0393                     	;# 
   212     0394                     	;# 
   213     0395                     	;# 
   214     0396                     	;# 
   215     0397                     	;# 
   216     0398                     	;# 
   217     0399                     	;# 
   218     039D                     	;# 
   219     039E                     	;# 
   220     039F                     	;# 
   221     0415                     	;# 
   222     0416                     	;# 
   223     0417                     	;# 
   224     041C                     	;# 
   225     041D                     	;# 
   226     041E                     	;# 
   227     0498                     	;# 
   228     0498                     	;# 
   229     0499                     	;# 
   230     049A                     	;# 
   231     049B                     	;# 
   232     049B                     	;# 
   233     049C                     	;# 
   234     049D                     	;# 
   235     049E                     	;# 
   236     049F                     	;# 
   237     0511                     	;# 
   238     0515                     	;# 
   239     0617                     	;# 
   240     0618                     	;# 
   241     0619                     	;# 
   242     0619                     	;# 
   243     061A                     	;# 
   244     061B                     	;# 
   245     061C                     	;# 
   246     061C                     	;# 
   247     0691                     	;# 
   248     0692                     	;# 
   249     0693                     	;# 
   250     0694                     	;# 
   251     0695                     	;# 
   252     0696                     	;# 
   253     0697                     	;# 
   254     0698                     	;# 
   255     0699                     	;# 
   256     069A                     	;# 
   257     069B                     	;# 
   258     069C                     	;# 
   259     069D                     	;# 
   260     069E                     	;# 
   261     069F                     	;# 
   262     0E0F                     	;# 
   263     0E10                     	;# 
   264     0E11                     	;# 
   265     0E12                     	;# 
   266     0E13                     	;# 
   267     0E14                     	;# 
   268     0E15                     	;# 
   269     0E17                     	;# 
   270     0E20                     	;# 
   271     0E21                     	;# 
   272     0E22                     	;# 
   273     0E24                     	;# 
   274     0E25                     	;# 
   275     0E28                     	;# 
   276     0E29                     	;# 
   277     0E2A                     	;# 
   278     0E2B                     	;# 
   279     0E90                     	;# 
   280     0E91                     	;# 
   281     0E92                     	;# 
   282     0E93                     	;# 
   283     0E94                     	;# 
   284     0E95                     	;# 
   285     0E96                     	;# 
   286     0E97                     	;# 
   287     0E98                     	;# 
   288     0E99                     	;# 
   289     0E9A                     	;# 
   290     0E9B                     	;# 
   291     0E9C                     	;# 
   292     0E9D                     	;# 
   293     0E9E                     	;# 
   294     0E9F                     	;# 
   295     0EA0                     	;# 
   296     0EA1                     	;# 
   297     0EA2                     	;# 
   298     0EA3                     	;# 
   299     0EA4                     	;# 
   300     0EA5                     	;# 
   301     0EA6                     	;# 
   302     0EA7                     	;# 
   303     0F0F                     	;# 
   304     0F10                     	;# 
   305     0F11                     	;# 
   306     0F12                     	;# 
   307     0F13                     	;# 
   308     0F14                     	;# 
   309     0F15                     	;# 
   310     0F16                     	;# 
   311     0F17                     	;# 
   312     0F18                     	;# 
   313     0F19                     	;# 
   314     0F1A                     	;# 
   315     0F1B                     	;# 
   316     0F1C                     	;# 
   317     0F1D                     	;# 
   318     0F1E                     	;# 
   319     0F1F                     	;# 
   320     0F20                     	;# 
   321     0F21                     	;# 
   322     0F22                     	;# 
   323     0F23                     	;# 
   324     0F24                     	;# 
   325     0F25                     	;# 
   326     0F26                     	;# 
   327     0F27                     	;# 
   328     0F28                     	;# 
   329     0F29                     	;# 
   330     0F2A                     	;# 
   331     0F2B                     	;# 
   332     0F2C                     	;# 
   333     0F2D                     	;# 
   334     0F2E                     	;# 
   335     0F2F                     	;# 
   336     0F30                     	;# 
   337     0F31                     	;# 
   338     0F32                     	;# 
   339     0F33                     	;# 
   340     0F34                     	;# 
   341     0F35                     	;# 
   342     0F36                     	;# 
   343     0F37                     	;# 
   344     0FE4                     	;# 
   345     0FE5                     	;# 
   346     0FE6                     	;# 
   347     0FE7                     	;# 
   348     0FE8                     	;# 
   349     0FE9                     	;# 
   350     0FEA                     	;# 
   351     0FEB                     	;# 
   352     0FED                     	;# 
   353     0FEE                     	;# 
   354     0FEF                     	;# 
   355     0000                     	;# 
   356     0001                     	;# 
   357     0002                     	;# 
   358     0003                     	;# 
   359     0004                     	;# 
   360     0005                     	;# 
   361     0006                     	;# 
   362     0007                     	;# 
   363     0008                     	;# 
   364     0009                     	;# 
   365     000A                     	;# 
   366     000B                     	;# 
   367     000C                     	;# 
   368     000D                     	;# 
   369     000E                     	;# 
   370     0010                     	;# 
   371     0011                     	;# 
   372     0012                     	;# 
   373     0013                     	;# 
   374     0015                     	;# 
   375     0016                     	;# 
   376     0016                     	;# 
   377     0017                     	;# 
   378     0018                     	;# 
   379     0019                     	;# 
   380     001A                     	;# 
   381     001B                     	;# 
   382     001C                     	;# 
   383     008C                     	;# 
   384     008D                     	;# 
   385     008E                     	;# 
   386     0090                     	;# 
   387     0091                     	;# 
   388     0092                     	;# 
   389     0093                     	;# 
   390     0095                     	;# 
   391     0096                     	;# 
   392     0097                     	;# 
   393     0098                     	;# 
   394     0099                     	;# 
   395     009A                     	;# 
   396     009B                     	;# 
   397     009B                     	;# 
   398     009C                     	;# 
   399     009D                     	;# 
   400     009E                     	;# 
   401     009F                     	;# 
   402     010C                     	;# 
   403     010D                     	;# 
   404     010E                     	;# 
   405     0111                     	;# 
   406     0112                     	;# 
   407     0113                     	;# 
   408     0114                     	;# 
   409     0115                     	;# 
   410     0116                     	;# 
   411     0117                     	;# 
   412     0118                     	;# 
   413     0119                     	;# 
   414     011A                     	;# 
   415     011B                     	;# 
   416     011B                     	;# 
   417     011C                     	;# 
   418     018C                     	;# 
   419     018D                     	;# 
   420     018E                     	;# 
   421     0191                     	;# 
   422     0191                     	;# 
   423     0192                     	;# 
   424     0193                     	;# 
   425     0193                     	;# 
   426     0194                     	;# 
   427     0195                     	;# 
   428     0196                     	;# 
   429     0197                     	;# 
   430     0199                     	;# 
   431     0199                     	;# 
   432     0199                     	;# 
   433     019A                     	;# 
   434     019A                     	;# 
   435     019A                     	;# 
   436     019B                     	;# 
   437     019B                     	;# 
   438     019B                     	;# 
   439     019B                     	;# 
   440     019B                     	;# 
   441     019C                     	;# 
   442     019C                     	;# 
   443     019C                     	;# 
   444     019D                     	;# 
   445     019D                     	;# 
   446     019D                     	;# 
   447     019E                     	;# 
   448     019E                     	;# 
   449     019E                     	;# 
   450     019F                     	;# 
   451     019F                     	;# 
   452     019F                     	;# 
   453     019F                     	;# 
   454     019F                     	;# 
   455     020C                     	;# 
   456     020D                     	;# 
   457     020E                     	;# 
   458     0210                     	;# 
   459     0211                     	;# 
   460     0211                     	;# 
   461     0212                     	;# 
   462     0212                     	;# 
   463     0213                     	;# 
   464     0213                     	;# 
   465     0214                     	;# 
   466     0214                     	;# 
   467     0215                     	;# 
   468     0215                     	;# 
   469     0215                     	;# 
   470     0215                     	;# 
   471     0216                     	;# 
   472     0216                     	;# 
   473     0217                     	;# 
   474     0217                     	;# 
   475     028C                     	;# 
   476     028D                     	;# 
   477     028E                     	;# 
   478     0291                     	;# 
   479     0291                     	;# 
   480     0292                     	;# 
   481     0293                     	;# 
   482     0293                     	;# 
   483     0298                     	;# 
   484     0298                     	;# 
   485     0299                     	;# 
   486     029A                     	;# 
   487     029A                     	;# 
   488     029E                     	;# 
   489     030C                     	;# 
   490     030D                     	;# 
   491     030E                     	;# 
   492     038C                     	;# 
   493     038D                     	;# 
   494     038E                     	;# 
   495     0390                     	;# 
   496     0391                     	;# 
   497     0392                     	;# 
   498     0393                     	;# 
   499     0394                     	;# 
   500     0395                     	;# 
   501     0396                     	;# 
   502     0397                     	;# 
   503     0398                     	;# 
   504     0399                     	;# 
   505     039D                     	;# 
   506     039E                     	;# 
   507     039F                     	;# 
   508     0415                     	;# 
   509     0416                     	;# 
   510     0417                     	;# 
   511     041C                     	;# 
   512     041D                     	;# 
   513     041E                     	;# 
   514     0498                     	;# 
   515     0498                     	;# 
   516     0499                     	;# 
   517     049A                     	;# 
   518     049B                     	;# 
   519     049B                     	;# 
   520     049C                     	;# 
   521     049D                     	;# 
   522     049E                     	;# 
   523     049F                     	;# 
   524     0511                     	;# 
   525     0515                     	;# 
   526     0617                     	;# 
   527     0618                     	;# 
   528     0619                     	;# 
   529     0619                     	;# 
   530     061A                     	;# 
   531     061B                     	;# 
   532     061C                     	;# 
   533     061C                     	;# 
   534     0691                     	;# 
   535     0692                     	;# 
   536     0693                     	;# 
   537     0694                     	;# 
   538     0695                     	;# 
   539     0696                     	;# 
   540     0697                     	;# 
   541     0698                     	;# 
   542     0699                     	;# 
   543     069A                     	;# 
   544     069B                     	;# 
   545     069C                     	;# 
   546     069D                     	;# 
   547     069E                     	;# 
   548     069F                     	;# 
   549     0E0F                     	;# 
   550     0E10                     	;# 
   551     0E11                     	;# 
   552     0E12                     	;# 
   553     0E13                     	;# 
   554     0E14                     	;# 
   555     0E15                     	;# 
   556     0E17                     	;# 
   557     0E20                     	;# 
   558     0E21                     	;# 
   559     0E22                     	;# 
   560     0E24                     	;# 
   561     0E25                     	;# 
   562     0E28                     	;# 
   563     0E29                     	;# 
   564     0E2A                     	;# 
   565     0E2B                     	;# 
   566     0E90                     	;# 
   567     0E91                     	;# 
   568     0E92                     	;# 
   569     0E93                     	;# 
   570     0E94                     	;# 
   571     0E95                     	;# 
   572     0E96                     	;# 
   573     0E97                     	;# 
   574     0E98                     	;# 
   575     0E99                     	;# 
   576     0E9A                     	;# 
   577     0E9B                     	;# 
   578     0E9C                     	;# 
   579     0E9D                     	;# 
   580     0E9E                     	;# 
   581     0E9F                     	;# 
   582     0EA0                     	;# 
   583     0EA1                     	;# 
   584     0EA2                     	;# 
   585     0EA3                     	;# 
   586     0EA4                     	;# 
   587     0EA5                     	;# 
   588     0EA6                     	;# 
   589     0EA7                     	;# 
   590     0F0F                     	;# 
   591     0F10                     	;# 
   592     0F11                     	;# 
   593     0F12                     	;# 
   594     0F13                     	;# 
   595     0F14                     	;# 
   596     0F15                     	;# 
   597     0F16                     	;# 
   598     0F17                     	;# 
   599     0F18                     	;# 
   600     0F19                     	;# 
   601     0F1A                     	;# 
   602     0F1B                     	;# 
   603     0F1C                     	;# 
   604     0F1D                     	;# 
   605     0F1E                     	;# 
   606     0F1F                     	;# 
   607     0F20                     	;# 
   608     0F21                     	;# 
   609     0F22                     	;# 
   610     0F23                     	;# 
   611     0F24                     	;# 
   612     0F25                     	;# 
   613     0F26                     	;# 
   614     0F27                     	;# 
   615     0F28                     	;# 
   616     0F29                     	;# 
   617     0F2A                     	;# 
   618     0F2B                     	;# 
   619     0F2C                     	;# 
   620     0F2D                     	;# 
   621     0F2E                     	;# 
   622     0F2F                     	;# 
   623     0F30                     	;# 
   624     0F31                     	;# 
   625     0F32                     	;# 
   626     0F33                     	;# 
   627     0F34                     	;# 
   628     0F35                     	;# 
   629     0F36                     	;# 
   630     0F37                     	;# 
   631     0FE4                     	;# 
   632     0FE5                     	;# 
   633     0FE6                     	;# 
   634     0FE7                     	;# 
   635     0FE8                     	;# 
   636     0FE9                     	;# 
   637     0FEA                     	;# 
   638     0FEB                     	;# 
   639     0FED                     	;# 
   640     0FEE                     	;# 
   641     0FEF                     	;# 
   642                           
   643                           	psect	idataBANK0
   644     0FD9                     __pidataBANK0:
   645                           
   646                           ;initializer for _g_pulse_us
   647     0FD9  34DC               	retlw	220
   648     0FDA  3405               	retlw	5
   649                           
   650                           ;initializer for _g_rb_mask
   651     0FDB  3401               	retlw	1
   652     000B                     _INTCONbits	set	11
   653     0011                     _PIR1bits	set	17
   654     0019                     _T1GCONbits	set	25
   655     0018                     _T1CONbits	set	24
   656     0016                     _TMR1L	set	22
   657     0017                     _TMR1H	set	23
   658     0091                     _PIE1bits	set	145
   659     008D                     _TRISB	set	141
   660     04CF                     _SPLLEN	set	1231
   661     04CE                     _IRCF3	set	1230
   662     04CD                     _IRCF2	set	1229
   663     04CC                     _IRCF1	set	1228
   664     04CB                     _IRCF0	set	1227
   665     04C9                     _SCS1	set	1225
   666     04C8                     _SCS0	set	1224
   667     010D                     _LATB	set	269
   668     018D                     _ANSELB	set	397
   669     0293                     _CCP1CONbits	set	659
   670     0291                     _CCPR1L	set	657
   671     0292                     _CCPR1H	set	658
   672                           
   673                           	psect	cinit
   674     000D                     start_initialization:	
   675                           ; #config settings
   676                           
   677     000D                     __initialization:
   678                           
   679                           ; Initialize objects allocated to BANK0
   680     000D  318F  27D9  3180   	fcall	__pidataBANK0	;fetch initializer
   681     0010  00E9               	movwf	__pdataBANK0& (0+127)
   682     0011  318F  27DA  3180   	fcall	__pidataBANK0+1	;fetch initializer
   683     0014  00EA               	movwf	(__pdataBANK0+1)& (0+127)
   684     0015  318F  27DB  3180   	fcall	__pidataBANK0+2	;fetch initializer
   685     0018  00EB               	movwf	(__pdataBANK0+2)& (0+127)
   686                           
   687                           ; Clear objects allocated to COMMON
   688     0019  01FA               	clrf	__pbssCOMMON& (0+127)
   689     001A                     end_of_initialization:	
   690                           ;End of C runtime variable initialization code
   691                           
   692     001A                     __end_of__initialization:
   693     001A  107E               	bcf	int$flags,0	;clear compiler interrupt flag (level 1)
   694     001B  0020               	movlb	0
   695     001C  3184  2C5A         	ljmp	_main	;jump to C main() function
   696                           
   697                           	psect	bssCOMMON
   698     007A                     __pbssCOMMON:
   699     007A                     _g_pin_high:
   700     007A                     	ds	1
   701                           
   702                           	psect	dataBANK0
   703     0069                     __pdataBANK0:
   704     0069                     _g_pulse_us:
   705     0069                     	ds	2
   706     006B                     _g_rb_mask:
   707     006B                     	ds	1
   708                           
   709                           	psect	cstackBANK2
   710     0120                     __pcstackBANK2:
   711     0120                     ??_servo_sweep_deg_scurve:
   712                           
   713                           ; 1 bytes @ 0x0
   714     0120                     	ds	17
   715     0131                     servo_sweep_deg_scurve@diff:
   716                           
   717                           ; 4 bytes @ 0x11
   718     0131                     	ds	4
   719     0135                     servo_sweep_deg_scurve@t_q15:
   720                           
   721                           ; 4 bytes @ 0x15
   722     0135                     	ds	4
   723     0139                     servo_sweep_deg_scurve@s_q15:
   724                           
   725                           ; 4 bytes @ 0x19
   726     0139                     	ds	4
   727     013D                     servo_sweep_deg_scurve@delta:
   728                           
   729                           ; 4 bytes @ 0x1D
   730     013D                     	ds	4
   731     0141                     servo_sweep_deg_scurve@k:
   732                           
   733                           ; 4 bytes @ 0x21
   734     0141                     	ds	4
   735     0145                     servo_sweep_deg_scurve@steps:
   736                           
   737                           ; 4 bytes @ 0x25
   738     0145                     	ds	4
   739     0149                     servo_sweep_deg_scurve@a:
   740                           
   741                           ; 4 bytes @ 0x29
   742     0149                     	ds	4
   743                           
   744                           	psect	cstackBANK1
   745     00A0                     __pcstackBANK1:
   746     00A0                     ??_scurve5_q15:
   747                           
   748                           ; 1 bytes @ 0x0
   749     00A0                     	ds	40
   750     00C8                     scurve5_q15@t2:
   751                           
   752                           ; 4 bytes @ 0x28
   753     00C8                     	ds	4
   754     00CC                     scurve5_q15@t5:
   755                           
   756                           ; 4 bytes @ 0x2C
   757     00CC                     	ds	4
   758     00D0                     scurve5_q15@t3:
   759                           
   760                           ; 4 bytes @ 0x30
   761     00D0                     	ds	4
   762     00D4                     scurve5_q15@t4:
   763                           
   764                           ; 4 bytes @ 0x34
   765     00D4                     	ds	4
   766     00D8                     scurve5_q15@s:
   767                           
   768                           ; 8 bytes @ 0x38
   769     00D8                     	ds	8
   770                           
   771                           	psect	cstackCOMMON
   772     0070                     __pcstackCOMMON:
   773     0070                     ?_internal_32:
   774     0070                     ?_servo_init_rb:	
   775                           ; 1 bytes @ 0x0
   776                           
   777     0070                     ?_servo_isr:	
   778                           ; 1 bytes @ 0x0
   779                           
   780     0070                     ?_initMain:	
   781                           ; 1 bytes @ 0x0
   782                           
   783     0070                     ?_isr:	
   784                           ; 1 bytes @ 0x0
   785                           
   786     0070                     ?_main:	
   787                           ; 1 bytes @ 0x0
   788                           
   789     0070                     ?i1_schedule_after_us:	
   790                           ; 1 bytes @ 0x0
   791                           
   792     0070                     i1schedule_after_us@delta_us:	
   793                           ; 1 bytes @ 0x0
   794                           
   795                           
   796                           ; 2 bytes @ 0x0
   797     0070                     	ds	2
   798     0072                     ??i1_schedule_after_us:
   799     0072                     i1schedule_after_us@now:	
   800                           ; 1 bytes @ 0x2
   801                           
   802                           
   803                           ; 2 bytes @ 0x2
   804     0072                     	ds	2
   805     0074                     i1schedule_after_us@next:
   806                           
   807                           ; 2 bytes @ 0x4
   808     0074                     	ds	2
   809     0076                     ??_servo_isr:
   810                           
   811                           ; 1 bytes @ 0x6
   812     0076                     	ds	2
   813     0078                     servo_isr@off_us:
   814                           
   815                           ; 2 bytes @ 0x8
   816     0078                     	ds	2
   817     007A                     ??_isr:
   818                           
   819                           	psect	cstackBANK0
   820     0020                     __pcstackBANK0:	
   821                           ; 1 bytes @ 0xA
   822                           
   823     0020                     ??_internal_32:
   824     0020                     ?_delay_ms:	
   825                           ; 1 bytes @ 0x0
   826                           
   827     0020                     ?_schedule_after_us:	
   828                           ; 1 bytes @ 0x0
   829                           
   830     0020                     ?___lmul:	
   831                           ; 1 bytes @ 0x0
   832                           
   833     0020                     ?___omul:	
   834                           ; 4 bytes @ 0x0
   835                           
   836     0020                     ?___lodiv:	
   837                           ; 8 bytes @ 0x0
   838                           
   839     0020                     delay_ms@ms:	
   840                           ; 8 bytes @ 0x0
   841                           
   842     0020                     schedule_after_us@delta_us:	
   843                           ; 2 bytes @ 0x0
   844                           
   845     0020                     ___lmul@multiplier:	
   846                           ; 2 bytes @ 0x0
   847                           
   848     0020                     ___omul@multiplier:	
   849                           ; 4 bytes @ 0x0
   850                           
   851     0020                     ___lodiv@divisor:	
   852                           ; 8 bytes @ 0x0
   853                           
   854                           
   855                           ; 8 bytes @ 0x0
   856     0020                     	ds	2
   857     0022                     ??_delay_ms:
   858     0022                     ??_schedule_after_us:	
   859                           ; 1 bytes @ 0x2
   860                           
   861     0022                     schedule_after_us@now:	
   862                           ; 1 bytes @ 0x2
   863                           
   864                           
   865                           ; 2 bytes @ 0x2
   866     0022                     	ds	2
   867     0024                     schedule_after_us@next:
   868     0024                     ___lmul@multiplicand:	
   869                           ; 2 bytes @ 0x4
   870                           
   871                           
   872                           ; 4 bytes @ 0x4
   873     0024                     	ds	2
   874     0026                     ??_servo_init_rb:
   875                           
   876                           ; 1 bytes @ 0x6
   877     0026                     	ds	1
   878     0027                     servo_init_rb@rb_pin:
   879                           
   880                           ; 1 bytes @ 0x7
   881     0027                     	ds	1
   882     0028                     ??_initMain:
   883     0028                     ??___lmul:	
   884                           ; 1 bytes @ 0x8
   885                           
   886     0028                     ___lmul@product:	
   887                           ; 1 bytes @ 0x8
   888                           
   889     0028                     ___omul@multiplicand:	
   890                           ; 4 bytes @ 0x8
   891                           
   892     0028                     ___lodiv@dividend:	
   893                           ; 8 bytes @ 0x8
   894                           
   895                           
   896                           ; 8 bytes @ 0x8
   897     0028                     	ds	4
   898     002C                     ?___lldiv:
   899     002C                     ___lldiv@divisor:	
   900                           ; 4 bytes @ 0xC
   901                           
   902                           
   903                           ; 4 bytes @ 0xC
   904     002C                     	ds	4
   905     0030                     ??___omul:
   906     0030                     ??___lodiv:	
   907                           ; 1 bytes @ 0x10
   908                           
   909     0030                     ___lldiv@dividend:	
   910                           ; 1 bytes @ 0x10
   911                           
   912                           
   913                           ; 4 bytes @ 0x10
   914     0030                     	ds	1
   915     0031                     ___omul@product:
   916     0031                     ___lodiv@quotient:	
   917                           ; 8 bytes @ 0x11
   918                           
   919                           
   920                           ; 8 bytes @ 0x11
   921     0031                     	ds	3
   922     0034                     ??___lldiv:
   923                           
   924                           ; 1 bytes @ 0x14
   925     0034                     	ds	1
   926     0035                     ___lldiv@quotient:
   927                           
   928                           ; 4 bytes @ 0x15
   929     0035                     	ds	4
   930     0039                     ?_q15_mul:
   931     0039                     ___lldiv@counter:	
   932                           ; 4 bytes @ 0x19
   933                           
   934     0039                     ___lodiv@counter:	
   935                           ; 1 bytes @ 0x19
   936                           
   937     0039                     q15_mul@a:	
   938                           ; 1 bytes @ 0x19
   939                           
   940                           
   941                           ; 4 bytes @ 0x19
   942     0039                     	ds	1
   943     003A                     ?_deg_to_us:
   944     003A                     deg_to_us@deg:	
   945                           ; 2 bytes @ 0x1A
   946                           
   947                           
   948                           ; 2 bytes @ 0x1A
   949     003A                     	ds	2
   950     003C                     ??_deg_to_us:
   951     003C                     ?_servo_write_us:	
   952                           ; 1 bytes @ 0x1C
   953                           
   954     003C                     servo_write_us@us:	
   955                           ; 1 bytes @ 0x1C
   956                           
   957                           
   958                           ; 2 bytes @ 0x1C
   959     003C                     	ds	1
   960     003D                     q15_mul@b:
   961                           
   962                           ; 4 bytes @ 0x1D
   963     003D                     	ds	1
   964     003E                     ??_servo_write_us:
   965     003E                     ?_servo_set_angle_deg:	
   966                           ; 1 bytes @ 0x1E
   967                           
   968     003E                     servo_set_angle_deg@deg:	
   969                           ; 1 bytes @ 0x1E
   970                           
   971                           
   972                           ; 2 bytes @ 0x1E
   973     003E                     	ds	2
   974     0040                     ??_servo_set_angle_deg:
   975                           
   976                           ; 1 bytes @ 0x20
   977     0040                     	ds	1
   978     0041                     ??_q15_mul:
   979                           
   980                           ; 1 bytes @ 0x21
   981     0041                     	ds	24
   982     0059                     ?_scurve5_q15:
   983     0059                     scurve5_q15@t:	
   984                           ; 4 bytes @ 0x39
   985                           
   986                           
   987                           ; 4 bytes @ 0x39
   988     0059                     	ds	4
   989     005D                     ?_servo_sweep_deg_scurve:
   990     005D                     servo_sweep_deg_scurve@start_deg:	
   991                           ; 1 bytes @ 0x3D
   992                           
   993                           
   994                           ; 2 bytes @ 0x3D
   995     005D                     	ds	2
   996     005F                     servo_sweep_deg_scurve@end_deg:
   997                           
   998                           ; 2 bytes @ 0x3F
   999     005F                     	ds	2
  1000     0061                     servo_sweep_deg_scurve@duration_ms:
  1001                           
  1002                           ; 4 bytes @ 0x41
  1003     0061                     	ds	4
  1004     0065                     servo_sweep_deg_scurve@tick_ms:
  1005                           
  1006                           ; 2 bytes @ 0x45
  1007     0065                     	ds	2
  1008     0067                     ??_main:
  1009                           
  1010                           ; 1 bytes @ 0x47
  1011     0067                     	ds	2
  1012                           
  1013                           	psect	maintext
  1014     045A                     __pmaintext:	
  1015 ;;
  1016 ;;Main: autosize = 0, tempsize = 2, incstack = 0, save=0
  1017 ;;
  1018 ;; *************** function _main *****************
  1019 ;; Defined at:
  1020 ;;		line 264 in file "main.c"
  1021 ;; Parameters:    Size  Location     Type
  1022 ;;		None
  1023 ;; Auto vars:     Size  Location     Type
  1024 ;;		None
  1025 ;; Return value:  Size  Location     Type
  1026 ;;                  1    wreg      void 
  1027 ;; Registers used:
  1028 ;;		wreg, fsr1l, fsr1h, status,2, status,0, pclath, cstack
  1029 ;; Tracked objects:
  1030 ;;		On entry : B1F/0
  1031 ;;		On exit  : 0/0
  1032 ;;		Unchanged: 0/0
  1033 ;; Data sizes:     COMMON   BANK0   BANK1   BANK2   BANK3   BANK4   BANK5   BANK6   BANK7   BANK8   BANK9  BANK10  BANK1
      +1  BANK12  BANK13  BANK14  BANK15  BANK16  BANK17  BANK18  BANK19  BANK20  BANK21  BANK22  BANK23  BANK24  BANK25
  1034 ;;      Params:         0       0       0       0       0       0       0       0       0       0       0       0       
      +0       0       0       0       0       0       0       0       0       0       0       0       0       0       0
  1035 ;;      Locals:         0       0       0       0       0       0       0       0       0       0       0       0       
      +0       0       0       0       0       0       0       0       0       0       0       0       0       0       0
  1036 ;;      Temps:          0       2       0       0       0       0       0       0       0       0       0       0       
      +0       0       0       0       0       0       0       0       0       0       0       0       0       0       0
  1037 ;;      Totals:         0       2       0       0       0       0       0       0       0       0       0       0       
      +0       0       0       0       0       0       0       0       0       0       0       0       0       0       0
  1038 ;;Total ram usage:        2 bytes
  1039 ;; Hardware stack levels required when called: 7
  1040 ;; This function calls:
  1041 ;;		_initMain
  1042 ;;		_servo_sweep_deg_scurve
  1043 ;; This function is called by:
  1044 ;;		Startup code after reset
  1045 ;; This function uses a non-reentrant model
  1046 ;;
  1047                           
  1048     045A                     _main:	
  1049                           ;psect for function _main
  1050                           
  1051     045A                     l1215:	
  1052                           ;incstack = 0
  1053                           ; Regs used in _main: [wreg+fsr1l+fsr1h+status,2+status,0+pclath+cstack]
  1054                           
  1055                           
  1056                           ;main.c: 266:     initMain();
  1057     045A  3187  27E1  3184   	fcall	_initMain
  1058     045D                     l1217:
  1059                           
  1060                           ;main.c: 269:     {;main.c: 270:         servo_sweep_deg_scurve(0, 180, 2000, 10); _dela
      +                          y((unsigned long)((300)*(32000000/4000.0)));
  1061     045D  3000               	movlw	0
  1062     045E  0020               	movlb	0	; select bank0
  1063     045F  00DD               	movwf	servo_sweep_deg_scurve@start_deg
  1064     0460  00DE               	movwf	servo_sweep_deg_scurve@start_deg+1
  1065     0461  30B4               	movlw	180
  1066     0462  00DF               	movwf	servo_sweep_deg_scurve@end_deg
  1067     0463  3000               	movlw	0
  1068     0464  00E0               	movwf	servo_sweep_deg_scurve@end_deg+1
  1069     0465  3000               	movlw	0
  1070     0466  00E4               	movwf	servo_sweep_deg_scurve@duration_ms+3
  1071     0467  3000               	movlw	0
  1072     0468  00E3               	movwf	servo_sweep_deg_scurve@duration_ms+2
  1073     0469  3007               	movlw	7
  1074     046A  00E2               	movwf	servo_sweep_deg_scurve@duration_ms+1
  1075     046B  30D0               	movlw	208
  1076     046C  00E1               	movwf	servo_sweep_deg_scurve@duration_ms
  1077     046D  300A               	movlw	10
  1078     046E  00E5               	movwf	servo_sweep_deg_scurve@tick_ms
  1079     046F  3000               	movlw	0
  1080     0470  00E6               	movwf	servo_sweep_deg_scurve@tick_ms+1
  1081     0471  3180  201E  3184   	fcall	_servo_sweep_deg_scurve
  1082     0474                     l1219:
  1083     0474  300D               	movlw	13
  1084     0475  0020               	movlb	0	; select bank0
  1085     0476  00E8               	movwf	??_main+1
  1086     0477  302D               	movlw	45
  1087     0478  00E7               	movwf	??_main
  1088     0479  30D7               	movlw	215
  1089     047A                     u957:
  1090     047A  0B89               	decfsz	9,f
  1091     047B  2C7A               	goto	u957
  1092     047C  0BE7               	decfsz	??_main,f
  1093     047D  2C7A               	goto	u957
  1094     047E  0BE8               	decfsz	??_main+1,f
  1095     047F  2C7A               	goto	u957
  1096     0480  3200               	nop2
  1097     0481                     l1221:
  1098                           
  1099                           ;main.c: 271:         servo_sweep_deg_scurve(180, 0, 2000, 10); _delay((unsigned long)((
      +                          300)*(32000000/4000.0)));
  1100     0481  30B4               	movlw	180
  1101     0482  0020               	movlb	0	; select bank0
  1102     0483  00DD               	movwf	servo_sweep_deg_scurve@start_deg
  1103     0484  3000               	movlw	0
  1104     0485  00DE               	movwf	servo_sweep_deg_scurve@start_deg+1
  1105     0486  3000               	movlw	0
  1106     0487  00DF               	movwf	servo_sweep_deg_scurve@end_deg
  1107     0488  00E0               	movwf	servo_sweep_deg_scurve@end_deg+1
  1108     0489  3000               	movlw	0
  1109     048A  00E4               	movwf	servo_sweep_deg_scurve@duration_ms+3
  1110     048B  3000               	movlw	0
  1111     048C  00E3               	movwf	servo_sweep_deg_scurve@duration_ms+2
  1112     048D  3007               	movlw	7
  1113     048E  00E2               	movwf	servo_sweep_deg_scurve@duration_ms+1
  1114     048F  30D0               	movlw	208
  1115     0490  00E1               	movwf	servo_sweep_deg_scurve@duration_ms
  1116     0491  300A               	movlw	10
  1117     0492  00E5               	movwf	servo_sweep_deg_scurve@tick_ms
  1118     0493  3000               	movlw	0
  1119     0494  00E6               	movwf	servo_sweep_deg_scurve@tick_ms+1
  1120     0495  3180  201E  3184   	fcall	_servo_sweep_deg_scurve
  1121     0498                     l1223:
  1122     0498  300D               	movlw	13
  1123     0499  0020               	movlb	0	; select bank0
  1124     049A  00E8               	movwf	??_main+1
  1125     049B  302D               	movlw	45
  1126     049C  00E7               	movwf	??_main
  1127     049D  30D7               	movlw	215
  1128     049E                     u967:
  1129     049E  0B89               	decfsz	9,f
  1130     049F  2C9E               	goto	u967
  1131     04A0  0BE7               	decfsz	??_main,f
  1132     04A1  2C9E               	goto	u967
  1133     04A2  0BE8               	decfsz	??_main+1,f
  1134     04A3  2C9E               	goto	u967
  1135     04A4  3200               	nop2
  1136     04A5                     l1225:
  1137                           
  1138                           ;main.c: 273:         servo_sweep_deg_scurve(0, 180, 600, 8); _delay((unsigned long)((20
      +                          0)*(32000000/4000.0)));
  1139     04A5  3000               	movlw	0
  1140     04A6  0020               	movlb	0	; select bank0
  1141     04A7  00DD               	movwf	servo_sweep_deg_scurve@start_deg
  1142     04A8  00DE               	movwf	servo_sweep_deg_scurve@start_deg+1
  1143     04A9  30B4               	movlw	180
  1144     04AA  00DF               	movwf	servo_sweep_deg_scurve@end_deg
  1145     04AB  3000               	movlw	0
  1146     04AC  00E0               	movwf	servo_sweep_deg_scurve@end_deg+1
  1147     04AD  3000               	movlw	0
  1148     04AE  00E4               	movwf	servo_sweep_deg_scurve@duration_ms+3
  1149     04AF  3000               	movlw	0
  1150     04B0  00E3               	movwf	servo_sweep_deg_scurve@duration_ms+2
  1151     04B1  3002               	movlw	2
  1152     04B2  00E2               	movwf	servo_sweep_deg_scurve@duration_ms+1
  1153     04B3  3058               	movlw	88
  1154     04B4  00E1               	movwf	servo_sweep_deg_scurve@duration_ms
  1155     04B5  3008               	movlw	8
  1156     04B6  00E5               	movwf	servo_sweep_deg_scurve@tick_ms
  1157     04B7  3000               	movlw	0
  1158     04B8  00E6               	movwf	servo_sweep_deg_scurve@tick_ms+1
  1159     04B9  3180  201E  3184   	fcall	_servo_sweep_deg_scurve
  1160     04BC                     l1227:
  1161     04BC  3009               	movlw	9
  1162     04BD  0020               	movlb	0	; select bank0
  1163     04BE  00E8               	movwf	??_main+1
  1164     04BF  301E               	movlw	30
  1165     04C0  00E7               	movwf	??_main
  1166     04C1  30E4               	movlw	228
  1167     04C2                     u977:
  1168     04C2  0B89               	decfsz	9,f
  1169     04C3  2CC2               	goto	u977
  1170     04C4  0BE7               	decfsz	??_main,f
  1171     04C5  2CC2               	goto	u977
  1172     04C6  0BE8               	decfsz	??_main+1,f
  1173     04C7  2CC2               	goto	u977
  1174     04C8  0000               	nop
  1175     04C9                     l1229:
  1176                           
  1177                           ;main.c: 274:         servo_sweep_deg_scurve(180, 0, 600, 8); _delay((unsigned long)((20
      +                          0)*(32000000/4000.0)));
  1178     04C9  30B4               	movlw	180
  1179     04CA  0020               	movlb	0	; select bank0
  1180     04CB  00DD               	movwf	servo_sweep_deg_scurve@start_deg
  1181     04CC  3000               	movlw	0
  1182     04CD  00DE               	movwf	servo_sweep_deg_scurve@start_deg+1
  1183     04CE  3000               	movlw	0
  1184     04CF  00DF               	movwf	servo_sweep_deg_scurve@end_deg
  1185     04D0  00E0               	movwf	servo_sweep_deg_scurve@end_deg+1
  1186     04D1  3000               	movlw	0
  1187     04D2  00E4               	movwf	servo_sweep_deg_scurve@duration_ms+3
  1188     04D3  3000               	movlw	0
  1189     04D4  00E3               	movwf	servo_sweep_deg_scurve@duration_ms+2
  1190     04D5  3002               	movlw	2
  1191     04D6  00E2               	movwf	servo_sweep_deg_scurve@duration_ms+1
  1192     04D7  3058               	movlw	88
  1193     04D8  00E1               	movwf	servo_sweep_deg_scurve@duration_ms
  1194     04D9  3008               	movlw	8
  1195     04DA  00E5               	movwf	servo_sweep_deg_scurve@tick_ms
  1196     04DB  3000               	movlw	0
  1197     04DC  00E6               	movwf	servo_sweep_deg_scurve@tick_ms+1
  1198     04DD  3180  201E  3184   	fcall	_servo_sweep_deg_scurve
  1199     04E0                     l1231:
  1200     04E0  3009               	movlw	9
  1201     04E1  0020               	movlb	0	; select bank0
  1202     04E2  00E8               	movwf	??_main+1
  1203     04E3  301E               	movlw	30
  1204     04E4  00E7               	movwf	??_main
  1205     04E5  30E4               	movlw	228
  1206     04E6                     u987:
  1207     04E6  0B89               	decfsz	9,f
  1208     04E7  2CE6               	goto	u987
  1209     04E8  0BE7               	decfsz	??_main,f
  1210     04E9  2CE6               	goto	u987
  1211     04EA  0BE8               	decfsz	??_main+1,f
  1212     04EB  2CE6               	goto	u987
  1213     04EC  0000               	nop
  1214     04ED  2C5D               	goto	l1217
  1215     04EE  3180  280B         	ljmp	start
  1216     04F0                     __end_of_main:
  1217                           
  1218                           	psect	text1
  1219     001E                     __ptext1:	
  1220 ;; *************** function _servo_sweep_deg_scurve *****************
  1221 ;; Defined at:
  1222 ;;		line 177 in file "main.c"
  1223 ;; Parameters:    Size  Location     Type
  1224 ;;  start_deg       2   61[BANK0 ] unsigned short 
  1225 ;;  end_deg         2   63[BANK0 ] unsigned short 
  1226 ;;  duration_ms     4   65[BANK0 ] unsigned long 
  1227 ;;  tick_ms         2   69[BANK0 ] unsigned short 
  1228 ;; Auto vars:     Size  Location     Type
  1229 ;;  a               4   41[BANK2 ] long 
  1230 ;;  delta           4   29[BANK2 ] long 
  1231 ;;  s_q15           4   25[BANK2 ] unsigned long 
  1232 ;;  t_q15           4   21[BANK2 ] unsigned long 
  1233 ;;  k               4   33[BANK2 ] unsigned long 
  1234 ;;  steps           4   37[BANK2 ] unsigned long 
  1235 ;;  diff            4   17[BANK2 ] long 
  1236 ;; Return value:  Size  Location     Type
  1237 ;;                  1    wreg      void 
  1238 ;; Registers used:
  1239 ;;		wreg, fsr1l, fsr1h, status,2, status,0, pclath, cstack
  1240 ;; Tracked objects:
  1241 ;;		On entry : 0/0
  1242 ;;		On exit  : 0/0
  1243 ;;		Unchanged: 0/0
  1244 ;; Data sizes:     COMMON   BANK0   BANK1   BANK2   BANK3   BANK4   BANK5   BANK6   BANK7   BANK8   BANK9  BANK10  BANK1
      +1  BANK12  BANK13  BANK14  BANK15  BANK16  BANK17  BANK18  BANK19  BANK20  BANK21  BANK22  BANK23  BANK24  BANK25
  1245 ;;      Params:         0      10       0       0       0       0       0       0       0       0       0       0       
      +0       0       0       0       0       0       0       0       0       0       0       0       0       0       0
  1246 ;;      Locals:         0       0       0      28       0       0       0       0       0       0       0       0       
      +0       0       0       0       0       0       0       0       0       0       0       0       0       0       0
  1247 ;;      Temps:          0       0       0      17       0       0       0       0       0       0       0       0       
      +0       0       0       0       0       0       0       0       0       0       0       0       0       0       0
  1248 ;;      Totals:         0      10       0      45       0       0       0       0       0       0       0       0       
      +0       0       0       0       0       0       0       0       0       0       0       0       0       0       0
  1249 ;;Total ram usage:       55 bytes
  1250 ;; Hardware stack levels used: 1
  1251 ;; Hardware stack levels required when called: 6
  1252 ;; This function calls:
  1253 ;;		___lldiv
  1254 ;;		___lodiv
  1255 ;;		___omul
  1256 ;;		_delay_ms
  1257 ;;		_scurve5_q15
  1258 ;;		_servo_set_angle_deg
  1259 ;; This function is called by:
  1260 ;;		_main
  1261 ;;		_servo_set_angle_scurve
  1262 ;; This function uses a non-reentrant model
  1263 ;;
  1264                           
  1265     001E                     _servo_sweep_deg_scurve:	
  1266                           ;psect for function _servo_sweep_deg_scurve
  1267                           
  1268     001E                     l1137:	
  1269                           ;incstack = 0
  1270                           ; Regs used in _servo_sweep_deg_scurve: [wreg+fsr1l+fsr1h+status,2+status,0+pclath+cstac
      +                          k]
  1271                           
  1272                           
  1273                           ;main.c: 177: void servo_sweep_deg_scurve(uint16_t start_deg, uint16_t end_deg, uint32_t
      +                           duration_ms, uint16_t tick_ms);main.c: 178: {;main.c: 179:     if (start_deg > 180) sta
      +                          rt_deg = 180;
  1274     001E  3000               	movlw	0
  1275     001F  0020               	movlb	0	; select bank0
  1276     0020  025E               	subwf	servo_sweep_deg_scurve@start_deg+1,w
  1277     0021  30B5               	movlw	181
  1278     0022  1903               	skipnz
  1279     0023  025D               	subwf	servo_sweep_deg_scurve@start_deg,w
  1280     0024  1C03               	skipc
  1281     0025  2827               	goto	u811
  1282     0026  2828               	goto	u810
  1283     0027                     u811:
  1284     0027  282C               	goto	l114
  1285     0028                     u810:
  1286     0028                     l1139:
  1287     0028  30B4               	movlw	180
  1288     0029  00DD               	movwf	servo_sweep_deg_scurve@start_deg
  1289     002A  3000               	movlw	0
  1290     002B  00DE               	movwf	servo_sweep_deg_scurve@start_deg+1
  1291     002C                     l114:
  1292                           
  1293                           ;main.c: 180:     if (end_deg > 180) end_deg = 180;
  1294     002C  3000               	movlw	0
  1295     002D  0260               	subwf	servo_sweep_deg_scurve@end_deg+1,w
  1296     002E  30B5               	movlw	181
  1297     002F  1903               	skipnz
  1298     0030  025F               	subwf	servo_sweep_deg_scurve@end_deg,w
  1299     0031  1C03               	skipc
  1300     0032  2834               	goto	u821
  1301     0033  2835               	goto	u820
  1302     0034                     u821:
  1303     0034  2839               	goto	l1143
  1304     0035                     u820:
  1305     0035                     l1141:
  1306     0035  30B4               	movlw	180
  1307     0036  00DF               	movwf	servo_sweep_deg_scurve@end_deg
  1308     0037  3000               	movlw	0
  1309     0038  00E0               	movwf	servo_sweep_deg_scurve@end_deg+1
  1310     0039                     l1143:
  1311                           
  1312                           ;main.c: 181:     if (duration_ms < 5) duration_ms = 5;
  1313     0039  0864               	movf	servo_sweep_deg_scurve@duration_ms+3,w
  1314     003A  1D03               	btfss	3,2
  1315     003B  2847               	goto	u831
  1316     003C  0863               	movf	servo_sweep_deg_scurve@duration_ms+2,w
  1317     003D  1D03               	btfss	3,2
  1318     003E  2847               	goto	u831
  1319     003F  0862               	movf	servo_sweep_deg_scurve@duration_ms+1,w
  1320     0040  1D03               	btfss	3,2
  1321     0041  2847               	goto	u831
  1322     0042  3005               	movlw	5
  1323     0043  0261               	subwf	servo_sweep_deg_scurve@duration_ms,w
  1324     0044  1803               	btfsc	3,0
  1325     0045  2847               	goto	u831
  1326     0046  2848               	goto	u830
  1327     0047                     u831:
  1328     0047  2851               	goto	l116
  1329     0048                     u830:
  1330     0048                     l1145:
  1331     0048  3000               	movlw	0
  1332     0049  0020               	movlb	0	; select bank0
  1333     004A  00E4               	movwf	servo_sweep_deg_scurve@duration_ms+3
  1334     004B  3000               	movlw	0
  1335     004C  00E3               	movwf	servo_sweep_deg_scurve@duration_ms+2
  1336     004D  3000               	movlw	0
  1337     004E  00E2               	movwf	servo_sweep_deg_scurve@duration_ms+1
  1338     004F  3005               	movlw	5
  1339     0050  00E1               	movwf	servo_sweep_deg_scurve@duration_ms
  1340     0051                     l116:
  1341                           
  1342                           ;main.c: 182:     if (tick_ms < 2) tick_ms = 2;
  1343     0051  3000               	movlw	0
  1344     0052  0020               	movlb	0	; select bank0
  1345     0053  0266               	subwf	servo_sweep_deg_scurve@tick_ms+1,w
  1346     0054  3002               	movlw	2
  1347     0055  1903               	skipnz
  1348     0056  0265               	subwf	servo_sweep_deg_scurve@tick_ms,w
  1349     0057  1803               	skipnc
  1350     0058  285A               	goto	u841
  1351     0059  285B               	goto	u840
  1352     005A                     u841:
  1353     005A  285F               	goto	l117
  1354     005B                     u840:
  1355     005B                     l1147:
  1356     005B  3002               	movlw	2
  1357     005C  00E5               	movwf	servo_sweep_deg_scurve@tick_ms
  1358     005D  3000               	movlw	0
  1359     005E  00E6               	movwf	servo_sweep_deg_scurve@tick_ms+1
  1360     005F                     l117:
  1361                           
  1362                           ;main.c: 184:     int32_t diff = (int32_t)end_deg - (int32_t)start_deg;
  1363     005F  085D               	movf	servo_sweep_deg_scurve@start_deg,w
  1364     0060  0022               	movlb	2	; select bank2
  1365     0061  00A0               	movwf	??_servo_sweep_deg_scurve^(0+256)
  1366     0062  0020               	movlb	0	; select bank0
  1367     0063  085E               	movf	servo_sweep_deg_scurve@start_deg+1,w
  1368     0064  0022               	movlb	2	; select bank2
  1369     0065  00A1               	movwf	(??_servo_sweep_deg_scurve^(0+256)+1)
  1370     0066  01A2               	clrf	(??_servo_sweep_deg_scurve^(0+256)+2)
  1371     0067  01A3               	clrf	(??_servo_sweep_deg_scurve^(0+256)+3)
  1372     0068  0020               	movlb	0	; select bank0
  1373     0069  085F               	movf	servo_sweep_deg_scurve@end_deg,w
  1374     006A  0022               	movlb	2	; select bank2
  1375     006B  00A4               	movwf	(??_servo_sweep_deg_scurve+4)^(0+256)
  1376     006C  0020               	movlb	0	; select bank0
  1377     006D  0860               	movf	servo_sweep_deg_scurve@end_deg+1,w
  1378     006E  0022               	movlb	2	; select bank2
  1379     006F  00A5               	movwf	((??_servo_sweep_deg_scurve+4)^(0+256)+1)
  1380     0070  01A6               	clrf	((??_servo_sweep_deg_scurve+4)^(0+256)+2)
  1381     0071  01A7               	clrf	((??_servo_sweep_deg_scurve+4)^(0+256)+3)
  1382     0072  0820               	movf	??_servo_sweep_deg_scurve^(0+256),w
  1383     0073  02A4               	subwf	(??_servo_sweep_deg_scurve+4)^(0+256),f
  1384     0074  0821               	movf	(??_servo_sweep_deg_scurve+1)^(0+256),w
  1385     0075  3BA5               	subwfb	((??_servo_sweep_deg_scurve+4)^(0+256)+1),f
  1386     0076  0822               	movf	(??_servo_sweep_deg_scurve+2)^(0+256),w
  1387     0077  3BA6               	subwfb	((??_servo_sweep_deg_scurve+4)^(0+256)+2),f
  1388     0078  0823               	movf	(??_servo_sweep_deg_scurve+3)^(0+256),w
  1389     0079  3BA7               	subwfb	((??_servo_sweep_deg_scurve+4)^(0+256)+3),f
  1390     007A  0827               	movf	(??_servo_sweep_deg_scurve+7)^(0+256),w
  1391     007B  00B4               	movwf	(servo_sweep_deg_scurve@diff+3)^(0+256)
  1392     007C  0826               	movf	(??_servo_sweep_deg_scurve+6)^(0+256),w
  1393     007D  00B3               	movwf	(servo_sweep_deg_scurve@diff+2)^(0+256)
  1394     007E  0825               	movf	(??_servo_sweep_deg_scurve+5)^(0+256),w
  1395     007F  00B2               	movwf	(servo_sweep_deg_scurve@diff+1)^(0+256)
  1396     0080  0824               	movf	(??_servo_sweep_deg_scurve+4)^(0+256),w
  1397     0081  00B1               	movwf	servo_sweep_deg_scurve@diff^(0+256)
  1398     0082                     l1149:
  1399                           
  1400                           ;main.c: 186:     uint32_t steps = duration_ms / tick_ms;
  1401     0082  0020               	movlb	0	; select bank0
  1402     0083  0865               	movf	servo_sweep_deg_scurve@tick_ms,w
  1403     0084  00AC               	movwf	___lldiv@divisor
  1404     0085  0866               	movf	servo_sweep_deg_scurve@tick_ms+1,w
  1405     0086  00AD               	movwf	___lldiv@divisor+1
  1406     0087  01AE               	clrf	___lldiv@divisor+2
  1407     0088  01AF               	clrf	___lldiv@divisor+3
  1408     0089  0864               	movf	servo_sweep_deg_scurve@duration_ms+3,w
  1409     008A  00B3               	movwf	___lldiv@dividend+3
  1410     008B  0863               	movf	servo_sweep_deg_scurve@duration_ms+2,w
  1411     008C  00B2               	movwf	___lldiv@dividend+2
  1412     008D  0862               	movf	servo_sweep_deg_scurve@duration_ms+1,w
  1413     008E  00B1               	movwf	___lldiv@dividend+1
  1414     008F  0861               	movf	servo_sweep_deg_scurve@duration_ms,w
  1415     0090  00B0               	movwf	___lldiv@dividend
  1416     0091  3185  25EB  3180   	fcall	___lldiv
  1417     0094  0020               	movlb	0	; select bank0
  1418     0095  082F               	movf	?___lldiv+3,w
  1419     0096  0022               	movlb	2	; select bank2
  1420     0097  00C8               	movwf	(servo_sweep_deg_scurve@steps+3)^(0+256)
  1421     0098  0020               	movlb	0	; select bank0
  1422     0099  082E               	movf	?___lldiv+2,w
  1423     009A  0022               	movlb	2	; select bank2
  1424     009B  00C7               	movwf	(servo_sweep_deg_scurve@steps+2)^(0+256)
  1425     009C  0020               	movlb	0	; select bank0
  1426     009D  082D               	movf	?___lldiv+1,w
  1427     009E  0022               	movlb	2	; select bank2
  1428     009F  00C6               	movwf	(servo_sweep_deg_scurve@steps+1)^(0+256)
  1429     00A0  0020               	movlb	0	; select bank0
  1430     00A1  082C               	movf	?___lldiv,w
  1431     00A2  0022               	movlb	2	; select bank2
  1432     00A3  00C5               	movwf	servo_sweep_deg_scurve@steps^(0+256)
  1433     00A4                     l1151:
  1434                           
  1435                           ;main.c: 187:     if (steps < 1) steps = 1;
  1436     00A4  0848               	movf	(servo_sweep_deg_scurve@steps+3)^(0+256),w
  1437     00A5  0447               	iorwf	(servo_sweep_deg_scurve@steps+2)^(0+256),w
  1438     00A6  0446               	iorwf	(servo_sweep_deg_scurve@steps+1)^(0+256),w
  1439     00A7  0445               	iorwf	servo_sweep_deg_scurve@steps^(0+256),w
  1440     00A8  1D03               	skipz
  1441     00A9  28AB               	goto	u851
  1442     00AA  28AC               	goto	u850
  1443     00AB                     u851:
  1444     00AB  28B4               	goto	l118
  1445     00AC                     u850:
  1446     00AC                     l1153:
  1447     00AC  3000               	movlw	0
  1448     00AD  00C8               	movwf	(servo_sweep_deg_scurve@steps+3)^(0+256)
  1449     00AE  3000               	movlw	0
  1450     00AF  00C7               	movwf	(servo_sweep_deg_scurve@steps+2)^(0+256)
  1451     00B0  3000               	movlw	0
  1452     00B1  00C6               	movwf	(servo_sweep_deg_scurve@steps+1)^(0+256)
  1453     00B2  3001               	movlw	1
  1454     00B3  00C5               	movwf	servo_sweep_deg_scurve@steps^(0+256)
  1455     00B4                     l118:
  1456                           
  1457                           ;main.c: 189:     for (uint32_t k = 0; k <= steps; ++k)
  1458     00B4  3000               	movlw	0
  1459     00B5  00C4               	movwf	(servo_sweep_deg_scurve@k+3)^(0+256)
  1460     00B6  3000               	movlw	0
  1461     00B7  00C3               	movwf	(servo_sweep_deg_scurve@k+2)^(0+256)
  1462     00B8  3000               	movlw	0
  1463     00B9  00C2               	movwf	(servo_sweep_deg_scurve@k+1)^(0+256)
  1464     00BA  3000               	movlw	0
  1465     00BB  00C1               	movwf	servo_sweep_deg_scurve@k^(0+256)
  1466     00BC  2A3B               	goto	l119
  1467     00BD                     l1155:
  1468                           
  1469                           ;main.c: 190:     {;main.c: 191:         uint32_t t_q15 = (uint32_t)((uint64_t)32768u * 
      +                          k / steps);
  1470     00BD  0845               	movf	servo_sweep_deg_scurve@steps^(0+256),w
  1471     00BE  00A0               	movwf	??_servo_sweep_deg_scurve^(0+256)
  1472     00BF  0846               	movf	(servo_sweep_deg_scurve@steps+1)^(0+256),w
  1473     00C0  00A1               	movwf	(??_servo_sweep_deg_scurve^(0+256)+1)
  1474     00C1  0847               	movf	(servo_sweep_deg_scurve@steps+2)^(0+256),w
  1475     00C2  00A2               	movwf	(??_servo_sweep_deg_scurve^(0+256)+2)
  1476     00C3  0848               	movf	(servo_sweep_deg_scurve@steps+3)^(0+256),w
  1477     00C4  00A3               	movwf	(??_servo_sweep_deg_scurve^(0+256)+3)
  1478     00C5  01A4               	clrf	(??_servo_sweep_deg_scurve^(0+256)+4)
  1479     00C6  01A5               	clrf	(??_servo_sweep_deg_scurve^(0+256)+5)
  1480     00C7  01A6               	clrf	(??_servo_sweep_deg_scurve^(0+256)+6)
  1481     00C8  01A7               	clrf	(??_servo_sweep_deg_scurve^(0+256)+7)
  1482     00C9  0827               	movf	(??_servo_sweep_deg_scurve^(0+256)+7),w
  1483     00CA  0020               	movlb	0	; select bank0
  1484     00CB  00A7               	movwf	___lodiv@divisor+7
  1485     00CC  0022               	movlb	2	; select bank2
  1486     00CD  0826               	movf	(??_servo_sweep_deg_scurve^(0+256)+6),w
  1487     00CE  0020               	movlb	0	; select bank0
  1488     00CF  00A6               	movwf	___lodiv@divisor+6
  1489     00D0  0022               	movlb	2	; select bank2
  1490     00D1  0825               	movf	(??_servo_sweep_deg_scurve^(0+256)+5),w
  1491     00D2  0020               	movlb	0	; select bank0
  1492     00D3  00A5               	movwf	___lodiv@divisor+5
  1493     00D4  0022               	movlb	2	; select bank2
  1494     00D5  0824               	movf	(??_servo_sweep_deg_scurve^(0+256)+4),w
  1495     00D6  0020               	movlb	0	; select bank0
  1496     00D7  00A4               	movwf	___lodiv@divisor+4
  1497     00D8  0022               	movlb	2	; select bank2
  1498     00D9  0823               	movf	(??_servo_sweep_deg_scurve^(0+256)+3),w
  1499     00DA  0020               	movlb	0	; select bank0
  1500     00DB  00A3               	movwf	___lodiv@divisor+3
  1501     00DC  0022               	movlb	2	; select bank2
  1502     00DD  0822               	movf	(??_servo_sweep_deg_scurve^(0+256)+2),w
  1503     00DE  0020               	movlb	0	; select bank0
  1504     00DF  00A2               	movwf	___lodiv@divisor+2
  1505     00E0  0022               	movlb	2	; select bank2
  1506     00E1  0821               	movf	(??_servo_sweep_deg_scurve^(0+256)+1),w
  1507     00E2  0020               	movlb	0	; select bank0
  1508     00E3  00A1               	movwf	___lodiv@divisor+1
  1509     00E4  0022               	movlb	2	; select bank2
  1510     00E5  0820               	movf	??_servo_sweep_deg_scurve^(0+256),w
  1511     00E6  0020               	movlb	0	; select bank0
  1512     00E7  00A0               	movwf	___lodiv@divisor
  1513     00E8  0022               	movlb	2	; select bank2
  1514     00E9  0841               	movf	servo_sweep_deg_scurve@k^(0+256),w
  1515     00EA  00A8               	movwf	(??_servo_sweep_deg_scurve+8)^(0+256)
  1516     00EB  0842               	movf	(servo_sweep_deg_scurve@k+1)^(0+256),w
  1517     00EC  00A9               	movwf	((??_servo_sweep_deg_scurve+8)^(0+256)+1)
  1518     00ED  0843               	movf	(servo_sweep_deg_scurve@k+2)^(0+256),w
  1519     00EE  00AA               	movwf	((??_servo_sweep_deg_scurve+8)^(0+256)+2)
  1520     00EF  0844               	movf	(servo_sweep_deg_scurve@k+3)^(0+256),w
  1521     00F0  00AB               	movwf	((??_servo_sweep_deg_scurve+8)^(0+256)+3)
  1522     00F1  01AC               	clrf	((??_servo_sweep_deg_scurve+8)^(0+256)+4)
  1523     00F2  01AD               	clrf	((??_servo_sweep_deg_scurve+8)^(0+256)+5)
  1524     00F3  01AE               	clrf	((??_servo_sweep_deg_scurve+8)^(0+256)+6)
  1525     00F4  01AF               	clrf	((??_servo_sweep_deg_scurve+8)^(0+256)+7)
  1526     00F5  300F               	movlw	15
  1527     00F6                     u865:
  1528     00F6  0022               	movlb	2	; select bank2
  1529     00F7  35A8               	lslf	(??_servo_sweep_deg_scurve+8)^(0+256),f
  1530     00F8  0DA9               	rlf	((??_servo_sweep_deg_scurve+8)^(0+256)+1),f
  1531     00F9  0DAA               	rlf	((??_servo_sweep_deg_scurve+8)^(0+256)+2),f
  1532     00FA  0DAB               	rlf	((??_servo_sweep_deg_scurve+8)^(0+256)+3),f
  1533     00FB  0DAC               	rlf	((??_servo_sweep_deg_scurve+8)^(0+256)+4),f
  1534     00FC  0DAD               	rlf	((??_servo_sweep_deg_scurve+8)^(0+256)+5),f
  1535     00FD  0DAE               	rlf	((??_servo_sweep_deg_scurve+8)^(0+256)+6),f
  1536     00FE  0DAF               	rlf	((??_servo_sweep_deg_scurve+8)^(0+256)+7),f
  1537     00FF                     u860:
  1538     00FF  0B89               	decfsz	9,f
  1539     0100  28F6               	goto	u865
  1540     0101  0022               	movlb	2	; select bank2
  1541     0102  082F               	movf	((??_servo_sweep_deg_scurve+8)^(0+256)+7),w
  1542     0103  0020               	movlb	0	; select bank0
  1543     0104  00AF               	movwf	___lodiv@dividend+7
  1544     0105  0022               	movlb	2	; select bank2
  1545     0106  082E               	movf	((??_servo_sweep_deg_scurve+8)^(0+256)+6),w
  1546     0107  0020               	movlb	0	; select bank0
  1547     0108  00AE               	movwf	___lodiv@dividend+6
  1548     0109  0022               	movlb	2	; select bank2
  1549     010A  082D               	movf	((??_servo_sweep_deg_scurve+8)^(0+256)+5),w
  1550     010B  0020               	movlb	0	; select bank0
  1551     010C  00AD               	movwf	___lodiv@dividend+5
  1552     010D  0022               	movlb	2	; select bank2
  1553     010E  082C               	movf	((??_servo_sweep_deg_scurve+8)^(0+256)+4),w
  1554     010F  0020               	movlb	0	; select bank0
  1555     0110  00AC               	movwf	___lodiv@dividend+4
  1556     0111  0022               	movlb	2	; select bank2
  1557     0112  082B               	movf	((??_servo_sweep_deg_scurve+8)^(0+256)+3),w
  1558     0113  0020               	movlb	0	; select bank0
  1559     0114  00AB               	movwf	___lodiv@dividend+3
  1560     0115  0022               	movlb	2	; select bank2
  1561     0116  082A               	movf	((??_servo_sweep_deg_scurve+8)^(0+256)+2),w
  1562     0117  0020               	movlb	0	; select bank0
  1563     0118  00AA               	movwf	___lodiv@dividend+2
  1564     0119  0022               	movlb	2	; select bank2
  1565     011A  0829               	movf	((??_servo_sweep_deg_scurve+8)^(0+256)+1),w
  1566     011B  0020               	movlb	0	; select bank0
  1567     011C  00A9               	movwf	___lodiv@dividend+1
  1568     011D  0022               	movlb	2	; select bank2
  1569     011E  0828               	movf	(??_servo_sweep_deg_scurve+8)^(0+256),w
  1570     011F  0020               	movlb	0	; select bank0
  1571     0120  00A8               	movwf	___lodiv@dividend
  1572     0121  3184  24F0  3180   	fcall	___lodiv
  1573     0124  0020               	movlb	0	; select bank0
  1574     0125  0823               	movf	?___lodiv+3,w
  1575     0126  0022               	movlb	2	; select bank2
  1576     0127  00B8               	movwf	(servo_sweep_deg_scurve@t_q15+3)^(0+256)
  1577     0128  0020               	movlb	0	; select bank0
  1578     0129  0822               	movf	?___lodiv+2,w
  1579     012A  0022               	movlb	2	; select bank2
  1580     012B  00B7               	movwf	(servo_sweep_deg_scurve@t_q15+2)^(0+256)
  1581     012C  0020               	movlb	0	; select bank0
  1582     012D  0821               	movf	?___lodiv+1,w
  1583     012E  0022               	movlb	2	; select bank2
  1584     012F  00B6               	movwf	(servo_sweep_deg_scurve@t_q15+1)^(0+256)
  1585     0130  0020               	movlb	0	; select bank0
  1586     0131  0820               	movf	?___lodiv,w
  1587     0132  0022               	movlb	2	; select bank2
  1588     0133  00B5               	movwf	servo_sweep_deg_scurve@t_q15^(0+256)
  1589                           
  1590                           ;main.c: 192:         uint32_t s_q15 = scurve5_q15(t_q15);
  1591     0134  0838               	movf	(servo_sweep_deg_scurve@t_q15+3)^(0+256),w
  1592     0135  0020               	movlb	0	; select bank0
  1593     0136  00DC               	movwf	scurve5_q15@t+3
  1594     0137  0022               	movlb	2	; select bank2
  1595     0138  0837               	movf	(servo_sweep_deg_scurve@t_q15+2)^(0+256),w
  1596     0139  0020               	movlb	0	; select bank0
  1597     013A  00DB               	movwf	scurve5_q15@t+2
  1598     013B  0022               	movlb	2	; select bank2
  1599     013C  0836               	movf	(servo_sweep_deg_scurve@t_q15+1)^(0+256),w
  1600     013D  0020               	movlb	0	; select bank0
  1601     013E  00DA               	movwf	scurve5_q15@t+1
  1602     013F  0022               	movlb	2	; select bank2
  1603     0140  0835               	movf	servo_sweep_deg_scurve@t_q15^(0+256),w
  1604     0141  0020               	movlb	0	; select bank0
  1605     0142  00D9               	movwf	scurve5_q15@t
  1606     0143  3182  2256  3180   	fcall	_scurve5_q15
  1607     0146  0020               	movlb	0	; select bank0
  1608     0147  085C               	movf	?_scurve5_q15+3,w
  1609     0148  0022               	movlb	2	; select bank2
  1610     0149  00BC               	movwf	(servo_sweep_deg_scurve@s_q15+3)^(0+256)
  1611     014A  0020               	movlb	0	; select bank0
  1612     014B  085B               	movf	?_scurve5_q15+2,w
  1613     014C  0022               	movlb	2	; select bank2
  1614     014D  00BB               	movwf	(servo_sweep_deg_scurve@s_q15+2)^(0+256)
  1615     014E  0020               	movlb	0	; select bank0
  1616     014F  085A               	movf	?_scurve5_q15+1,w
  1617     0150  0022               	movlb	2	; select bank2
  1618     0151  00BA               	movwf	(servo_sweep_deg_scurve@s_q15+1)^(0+256)
  1619     0152  0020               	movlb	0	; select bank0
  1620     0153  0859               	movf	?_scurve5_q15,w
  1621     0154  0022               	movlb	2	; select bank2
  1622     0155  00B9               	movwf	servo_sweep_deg_scurve@s_q15^(0+256)
  1623                           
  1624                           ;main.c: 194:         int32_t delta = (int32_t)(((int64_t)diff * (int64_t)s_q15 + (32768
      +                          u >> 1)) >> 15);
  1625     0156  3000               	movlw	0
  1626     0157  00A0               	movwf	??_servo_sweep_deg_scurve^(0+256)
  1627     0158  3040               	movlw	64
  1628     0159  00A1               	movwf	(??_servo_sweep_deg_scurve^(0+256)+1)
  1629     015A  3000               	movlw	0
  1630     015B  00A2               	movwf	(??_servo_sweep_deg_scurve^(0+256)+2)
  1631     015C  3000               	movlw	0
  1632     015D  00A3               	movwf	(??_servo_sweep_deg_scurve^(0+256)+3)
  1633     015E  3000               	movlw	0
  1634     015F  00A4               	movwf	(??_servo_sweep_deg_scurve^(0+256)+4)
  1635     0160  3000               	movlw	0
  1636     0161  00A5               	movwf	(??_servo_sweep_deg_scurve^(0+256)+5)
  1637     0162  3000               	movlw	0
  1638     0163  00A6               	movwf	(??_servo_sweep_deg_scurve^(0+256)+6)
  1639     0164  3000               	movlw	0
  1640     0165  00A7               	movwf	(??_servo_sweep_deg_scurve^(0+256)+7)
  1641     0166  0831               	movf	servo_sweep_deg_scurve@diff^(0+256),w
  1642     0167  0020               	movlb	0	; select bank0
  1643     0168  00A0               	movwf	___omul@multiplier
  1644     0169  0022               	movlb	2	; select bank2
  1645     016A  0832               	movf	(servo_sweep_deg_scurve@diff+1)^(0+256),w
  1646     016B  0020               	movlb	0	; select bank0
  1647     016C  00A1               	movwf	___omul@multiplier+1
  1648     016D  0022               	movlb	2	; select bank2
  1649     016E  0833               	movf	(servo_sweep_deg_scurve@diff+2)^(0+256),w
  1650     016F  0020               	movlb	0	; select bank0
  1651     0170  00A2               	movwf	___omul@multiplier+2
  1652     0171  0022               	movlb	2	; select bank2
  1653     0172  0834               	movf	(servo_sweep_deg_scurve@diff+3)^(0+256),w
  1654     0173  0020               	movlb	0	; select bank0
  1655     0174  00A3               	movwf	___omul@multiplier+3
  1656     0175  3000               	movlw	0
  1657     0176  1BA3               	btfsc	___omul@multiplier+3,7
  1658     0177  30FF               	movlw	255
  1659     0178  00A4               	movwf	___omul@multiplier+4
  1660     0179  00A5               	movwf	___omul@multiplier+5
  1661     017A  00A6               	movwf	___omul@multiplier+6
  1662     017B  00A7               	movwf	___omul@multiplier+7
  1663     017C  0022               	movlb	2	; select bank2
  1664     017D  0839               	movf	servo_sweep_deg_scurve@s_q15^(0+256),w
  1665     017E  00A8               	movwf	(??_servo_sweep_deg_scurve+8)^(0+256)
  1666     017F  083A               	movf	(servo_sweep_deg_scurve@s_q15+1)^(0+256),w
  1667     0180  00A9               	movwf	((??_servo_sweep_deg_scurve+8)^(0+256)+1)
  1668     0181  083B               	movf	(servo_sweep_deg_scurve@s_q15+2)^(0+256),w
  1669     0182  00AA               	movwf	((??_servo_sweep_deg_scurve+8)^(0+256)+2)
  1670     0183  083C               	movf	(servo_sweep_deg_scurve@s_q15+3)^(0+256),w
  1671     0184  00AB               	movwf	((??_servo_sweep_deg_scurve+8)^(0+256)+3)
  1672     0185  01AC               	clrf	((??_servo_sweep_deg_scurve+8)^(0+256)+4)
  1673     0186  01AD               	clrf	((??_servo_sweep_deg_scurve+8)^(0+256)+5)
  1674     0187  01AE               	clrf	((??_servo_sweep_deg_scurve+8)^(0+256)+6)
  1675     0188  01AF               	clrf	((??_servo_sweep_deg_scurve+8)^(0+256)+7)
  1676     0189  082F               	movf	((??_servo_sweep_deg_scurve+8)^(0+256)+7),w
  1677     018A  0020               	movlb	0	; select bank0
  1678     018B  00AF               	movwf	___omul@multiplicand+7
  1679     018C  0022               	movlb	2	; select bank2
  1680     018D  082E               	movf	((??_servo_sweep_deg_scurve+8)^(0+256)+6),w
  1681     018E  0020               	movlb	0	; select bank0
  1682     018F  00AE               	movwf	___omul@multiplicand+6
  1683     0190  0022               	movlb	2	; select bank2
  1684     0191  082D               	movf	((??_servo_sweep_deg_scurve+8)^(0+256)+5),w
  1685     0192  0020               	movlb	0	; select bank0
  1686     0193  00AD               	movwf	___omul@multiplicand+5
  1687     0194  0022               	movlb	2	; select bank2
  1688     0195  082C               	movf	((??_servo_sweep_deg_scurve+8)^(0+256)+4),w
  1689     0196  0020               	movlb	0	; select bank0
  1690     0197  00AC               	movwf	___omul@multiplicand+4
  1691     0198  0022               	movlb	2	; select bank2
  1692     0199  082B               	movf	((??_servo_sweep_deg_scurve+8)^(0+256)+3),w
  1693     019A  0020               	movlb	0	; select bank0
  1694     019B  00AB               	movwf	___omul@multiplicand+3
  1695     019C  0022               	movlb	2	; select bank2
  1696     019D  082A               	movf	((??_servo_sweep_deg_scurve+8)^(0+256)+2),w
  1697     019E  0020               	movlb	0	; select bank0
  1698     019F  00AA               	movwf	___omul@multiplicand+2
  1699     01A0  0022               	movlb	2	; select bank2
  1700     01A1  0829               	movf	((??_servo_sweep_deg_scurve+8)^(0+256)+1),w
  1701     01A2  0020               	movlb	0	; select bank0
  1702     01A3  00A9               	movwf	___omul@multiplicand+1
  1703     01A4  0022               	movlb	2	; select bank2
  1704     01A5  0828               	movf	(??_servo_sweep_deg_scurve+8)^(0+256),w
  1705     01A6  0020               	movlb	0	; select bank0
  1706     01A7  00A8               	movwf	___omul@multiplicand
  1707     01A8  3186  2646  3180   	fcall	___omul
  1708     01AB  0020               	movlb	0	; select bank0
  1709     01AC  3020               	movlw	low ?___omul
  1710     01AD  0086               	movwf	6
  1711     01AE  3000               	movlw	high ?___omul
  1712     01AF  0087               	movwf	7
  1713     01B0  3F40               	moviw [0]fsr1
  1714     01B1  0022               	movlb	2	; select bank2
  1715     01B2  07A0               	addwf	??_servo_sweep_deg_scurve^(0+256),f
  1716     01B3  3F41               	moviw [1]fsr1
  1717     01B4  3DA1               	addwfc	(??_servo_sweep_deg_scurve^(0+256)+1),f
  1718     01B5  3F42               	moviw [2]fsr1
  1719     01B6  3DA2               	addwfc	(??_servo_sweep_deg_scurve^(0+256)+2),f
  1720     01B7  3F43               	moviw [3]fsr1
  1721     01B8  3DA3               	addwfc	(??_servo_sweep_deg_scurve^(0+256)+3),f
  1722     01B9  3F44               	moviw [4]fsr1
  1723     01BA  3DA4               	addwfc	(??_servo_sweep_deg_scurve^(0+256)+4),f
  1724     01BB  3F45               	moviw [5]fsr1
  1725     01BC  3DA5               	addwfc	(??_servo_sweep_deg_scurve^(0+256)+5),f
  1726     01BD  3F46               	moviw [6]fsr1
  1727     01BE  3DA6               	addwfc	(??_servo_sweep_deg_scurve^(0+256)+6),f
  1728     01BF  3F47               	moviw [7]fsr1
  1729     01C0  3DA7               	addwfc	(??_servo_sweep_deg_scurve^(0+256)+7),f
  1730     01C1  300F               	movlw	15
  1731     01C2  00B0               	movwf	(??_servo_sweep_deg_scurve+16)^(0+256)
  1732     01C3                     u875:
  1733     01C3  0022               	movlb	2	; select bank2
  1734     01C4  37A7               	asrf	(??_servo_sweep_deg_scurve^(0+256)+7),f
  1735     01C5  0CA6               	rrf	(??_servo_sweep_deg_scurve^(0+256)+6),f
  1736     01C6  0CA5               	rrf	(??_servo_sweep_deg_scurve^(0+256)+5),f
  1737     01C7  0CA4               	rrf	(??_servo_sweep_deg_scurve^(0+256)+4),f
  1738     01C8  0CA3               	rrf	(??_servo_sweep_deg_scurve^(0+256)+3),f
  1739     01C9  0CA2               	rrf	(??_servo_sweep_deg_scurve^(0+256)+2),f
  1740     01CA  0CA1               	rrf	(??_servo_sweep_deg_scurve^(0+256)+1),f
  1741     01CB  0CA0               	rrf	??_servo_sweep_deg_scurve^(0+256),f
  1742     01CC                     u870:
  1743     01CC  0BB0               	decfsz	(??_servo_sweep_deg_scurve+16)^(0+256),f
  1744     01CD  29C3               	goto	u875
  1745     01CE  0022               	movlb	2	; select bank2
  1746     01CF  0823               	movf	(??_servo_sweep_deg_scurve^(0+256)+3),w
  1747     01D0  00C0               	movwf	(servo_sweep_deg_scurve@delta+3)^(0+256)
  1748     01D1  0822               	movf	(??_servo_sweep_deg_scurve^(0+256)+2),w
  1749     01D2  00BF               	movwf	(servo_sweep_deg_scurve@delta+2)^(0+256)
  1750     01D3  0821               	movf	(??_servo_sweep_deg_scurve^(0+256)+1),w
  1751     01D4  00BE               	movwf	(servo_sweep_deg_scurve@delta+1)^(0+256)
  1752     01D5  0820               	movf	??_servo_sweep_deg_scurve^(0+256),w
  1753     01D6  00BD               	movwf	servo_sweep_deg_scurve@delta^(0+256)
  1754     01D7                     l1157:
  1755                           
  1756                           ;main.c: 195:         int32_t a = (int32_t)start_deg + delta;
  1757     01D7  083D               	movf	servo_sweep_deg_scurve@delta^(0+256),w
  1758     01D8  00A0               	movwf	??_servo_sweep_deg_scurve^(0+256)
  1759     01D9  083E               	movf	(servo_sweep_deg_scurve@delta+1)^(0+256),w
  1760     01DA  00A1               	movwf	(??_servo_sweep_deg_scurve^(0+256)+1)
  1761     01DB  083F               	movf	(servo_sweep_deg_scurve@delta+2)^(0+256),w
  1762     01DC  00A2               	movwf	(??_servo_sweep_deg_scurve^(0+256)+2)
  1763     01DD  0840               	movf	(servo_sweep_deg_scurve@delta+3)^(0+256),w
  1764     01DE  00A3               	movwf	(??_servo_sweep_deg_scurve^(0+256)+3)
  1765     01DF  0020               	movlb	0	; select bank0
  1766     01E0  085D               	movf	servo_sweep_deg_scurve@start_deg,w
  1767     01E1  0022               	movlb	2	; select bank2
  1768     01E2  00A4               	movwf	(??_servo_sweep_deg_scurve+4)^(0+256)
  1769     01E3  0020               	movlb	0	; select bank0
  1770     01E4  085E               	movf	servo_sweep_deg_scurve@start_deg+1,w
  1771     01E5  0022               	movlb	2	; select bank2
  1772     01E6  00A5               	movwf	((??_servo_sweep_deg_scurve+4)^(0+256)+1)
  1773     01E7  01A6               	clrf	((??_servo_sweep_deg_scurve+4)^(0+256)+2)
  1774     01E8  01A7               	clrf	((??_servo_sweep_deg_scurve+4)^(0+256)+3)
  1775     01E9  0824               	movf	(??_servo_sweep_deg_scurve+4)^(0+256),w
  1776     01EA  07A0               	addwf	??_servo_sweep_deg_scurve^(0+256),f
  1777     01EB  0825               	movf	(??_servo_sweep_deg_scurve+5)^(0+256),w
  1778     01EC  3DA1               	addwfc	(??_servo_sweep_deg_scurve^(0+256)+1),f
  1779     01ED  0826               	movf	(??_servo_sweep_deg_scurve+6)^(0+256),w
  1780     01EE  3DA2               	addwfc	(??_servo_sweep_deg_scurve^(0+256)+2),f
  1781     01EF  0827               	movf	(??_servo_sweep_deg_scurve+7)^(0+256),w
  1782     01F0  3DA3               	addwfc	(??_servo_sweep_deg_scurve^(0+256)+3),f
  1783     01F1  0823               	movf	(??_servo_sweep_deg_scurve+3)^(0+256),w
  1784     01F2  00CC               	movwf	(servo_sweep_deg_scurve@a+3)^(0+256)
  1785     01F3  0822               	movf	(??_servo_sweep_deg_scurve+2)^(0+256),w
  1786     01F4  00CB               	movwf	(servo_sweep_deg_scurve@a+2)^(0+256)
  1787     01F5  0821               	movf	(??_servo_sweep_deg_scurve+1)^(0+256),w
  1788     01F6  00CA               	movwf	(servo_sweep_deg_scurve@a+1)^(0+256)
  1789     01F7  0820               	movf	??_servo_sweep_deg_scurve^(0+256),w
  1790     01F8  00C9               	movwf	servo_sweep_deg_scurve@a^(0+256)
  1791     01F9                     l1159:
  1792                           
  1793                           ;main.c: 197:         if (a < 0) a = 0;
  1794     01F9  1FCC               	btfss	(servo_sweep_deg_scurve@a+3)^(0+256),7
  1795     01FA  29FC               	goto	u881
  1796     01FB  29FD               	goto	u880
  1797     01FC                     u881:
  1798     01FC  2A05               	goto	l1163
  1799     01FD                     u880:
  1800     01FD                     l1161:
  1801     01FD  3000               	movlw	0
  1802     01FE  00CC               	movwf	(servo_sweep_deg_scurve@a+3)^(0+256)
  1803     01FF  3000               	movlw	0
  1804     0200  00CB               	movwf	(servo_sweep_deg_scurve@a+2)^(0+256)
  1805     0201  3000               	movlw	0
  1806     0202  00CA               	movwf	(servo_sweep_deg_scurve@a+1)^(0+256)
  1807     0203  3000               	movlw	0
  1808     0204  00C9               	movwf	servo_sweep_deg_scurve@a^(0+256)
  1809     0205                     l1163:
  1810                           
  1811                           ;main.c: 198:         if (a > 180) a = 180;
  1812     0205  1BCC               	btfsc	(servo_sweep_deg_scurve@a+3)^(0+256),7
  1813     0206  2A15               	goto	u891
  1814     0207  084C               	movf	(servo_sweep_deg_scurve@a+3)^(0+256),w
  1815     0208  1D03               	btfss	3,2
  1816     0209  2A16               	goto	u890
  1817     020A  084B               	movf	(servo_sweep_deg_scurve@a+2)^(0+256),w
  1818     020B  1D03               	btfss	3,2
  1819     020C  2A16               	goto	u890
  1820     020D  084A               	movf	(servo_sweep_deg_scurve@a+1)^(0+256),w
  1821     020E  1D03               	btfss	3,2
  1822     020F  2A16               	goto	u890
  1823     0210  30B5               	movlw	181
  1824     0211  0249               	subwf	servo_sweep_deg_scurve@a^(0+256),w
  1825     0212  1C03               	btfss	3,0
  1826     0213  2A15               	goto	u891
  1827     0214  2A16               	goto	u890
  1828     0215                     u891:
  1829     0215  2A1F               	goto	l1167
  1830     0216                     u890:
  1831     0216                     l1165:
  1832     0216  3000               	movlw	0
  1833     0217  0022               	movlb	2	; select bank2
  1834     0218  00CC               	movwf	(servo_sweep_deg_scurve@a+3)^(0+256)
  1835     0219  3000               	movlw	0
  1836     021A  00CB               	movwf	(servo_sweep_deg_scurve@a+2)^(0+256)
  1837     021B  3000               	movlw	0
  1838     021C  00CA               	movwf	(servo_sweep_deg_scurve@a+1)^(0+256)
  1839     021D  30B4               	movlw	180
  1840     021E  00C9               	movwf	servo_sweep_deg_scurve@a^(0+256)
  1841     021F                     l1167:
  1842                           
  1843                           ;main.c: 200:         servo_set_angle_deg((uint16_t)a);
  1844     021F  0022               	movlb	2	; select bank2
  1845     0220  084A               	movf	(servo_sweep_deg_scurve@a+1)^(0+256),w
  1846     0221  0020               	movlb	0	; select bank0
  1847     0222  00BF               	movwf	servo_set_angle_deg@deg+1
  1848     0223  0022               	movlb	2	; select bank2
  1849     0224  0849               	movf	servo_sweep_deg_scurve@a^(0+256),w
  1850     0225  0020               	movlb	0	; select bank0
  1851     0226  00BE               	movwf	servo_set_angle_deg@deg
  1852     0227  3187  27AB  3180   	fcall	_servo_set_angle_deg
  1853     022A                     l1169:
  1854                           
  1855                           ;main.c: 203:         delay_ms(tick_ms);
  1856     022A  0020               	movlb	0	; select bank0
  1857     022B  0866               	movf	servo_sweep_deg_scurve@tick_ms+1,w
  1858     022C  00A1               	movwf	delay_ms@ms+1
  1859     022D  0865               	movf	servo_sweep_deg_scurve@tick_ms,w
  1860     022E  00A0               	movwf	delay_ms@ms
  1861     022F  3187  27C9  3180   	fcall	_delay_ms
  1862                           
  1863                           ;main.c: 204:     }
  1864     0232  3001               	movlw	1
  1865     0233  0022               	movlb	2	; select bank2
  1866     0234  07C1               	addwf	servo_sweep_deg_scurve@k^(0+256),f
  1867     0235  3000               	movlw	0
  1868     0236  3DC2               	addwfc	(servo_sweep_deg_scurve@k+1)^(0+256),f
  1869     0237  3000               	movlw	0
  1870     0238  3DC3               	addwfc	(servo_sweep_deg_scurve@k+2)^(0+256),f
  1871     0239  3000               	movlw	0
  1872     023A  3DC4               	addwfc	(servo_sweep_deg_scurve@k+3)^(0+256),f
  1873     023B                     l119:
  1874     023B  0844               	movf	(servo_sweep_deg_scurve@k+3)^(0+256),w
  1875     023C  0248               	subwf	(servo_sweep_deg_scurve@steps+3)^(0+256),w
  1876     023D  1D03               	skipz
  1877     023E  2A49               	goto	u905
  1878     023F  0843               	movf	(servo_sweep_deg_scurve@k+2)^(0+256),w
  1879     0240  0247               	subwf	(servo_sweep_deg_scurve@steps+2)^(0+256),w
  1880     0241  1D03               	skipz
  1881     0242  2A49               	goto	u905
  1882     0243  0842               	movf	(servo_sweep_deg_scurve@k+1)^(0+256),w
  1883     0244  0246               	subwf	(servo_sweep_deg_scurve@steps+1)^(0+256),w
  1884     0245  1D03               	skipz
  1885     0246  2A49               	goto	u905
  1886     0247  0841               	movf	servo_sweep_deg_scurve@k^(0+256),w
  1887     0248  0245               	subwf	servo_sweep_deg_scurve@steps^(0+256),w
  1888     0249                     u905:
  1889     0249  1803               	skipnc
  1890     024A  2A4C               	goto	u901
  1891     024B  2A4D               	goto	u900
  1892     024C                     u901:
  1893     024C  28BD               	goto	l1155
  1894     024D                     u900:
  1895     024D                     l1171:
  1896                           
  1897                           ;main.c: 206:     servo_set_angle_deg(end_deg);
  1898     024D  0020               	movlb	0	; select bank0
  1899     024E  0860               	movf	servo_sweep_deg_scurve@end_deg+1,w
  1900     024F  00BF               	movwf	servo_set_angle_deg@deg+1
  1901     0250  085F               	movf	servo_sweep_deg_scurve@end_deg,w
  1902     0251  00BE               	movwf	servo_set_angle_deg@deg
  1903     0252  3187  27AB  3180   	fcall	_servo_set_angle_deg
  1904     0255                     l124:
  1905     0255  0008               	return
  1906     0256                     __end_of_servo_sweep_deg_scurve:
  1907                           
  1908                           	psect	text2
  1909     07AB                     __ptext2:	
  1910 ;; *************** function _servo_set_angle_deg *****************
  1911 ;; Defined at:
  1912 ;;		line 160 in file "main.c"
  1913 ;; Parameters:    Size  Location     Type
  1914 ;;  deg             2   30[BANK0 ] unsigned short 
  1915 ;; Auto vars:     Size  Location     Type
  1916 ;;		None
  1917 ;; Return value:  Size  Location     Type
  1918 ;;                  1    wreg      void 
  1919 ;; Registers used:
  1920 ;;		wreg, status,2, status,0, pclath, cstack
  1921 ;; Tracked objects:
  1922 ;;		On entry : 0/0
  1923 ;;		On exit  : 0/0
  1924 ;;		Unchanged: 0/0
  1925 ;; Data sizes:     COMMON   BANK0   BANK1   BANK2   BANK3   BANK4   BANK5   BANK6   BANK7   BANK8   BANK9  BANK10  BANK1
      +1  BANK12  BANK13  BANK14  BANK15  BANK16  BANK17  BANK18  BANK19  BANK20  BANK21  BANK22  BANK23  BANK24  BANK25
  1926 ;;      Params:         0       2       0       0       0       0       0       0       0       0       0       0       
      +0       0       0       0       0       0       0       0       0       0       0       0       0       0       0
  1927 ;;      Locals:         0       0       0       0       0       0       0       0       0       0       0       0       
      +0       0       0       0       0       0       0       0       0       0       0       0       0       0       0
  1928 ;;      Temps:          0       0       0       0       0       0       0       0       0       0       0       0       
      +0       0       0       0       0       0       0       0       0       0       0       0       0       0       0
  1929 ;;      Totals:         0       2       0       0       0       0       0       0       0       0       0       0       
      +0       0       0       0       0       0       0       0       0       0       0       0       0       0       0
  1930 ;;Total ram usage:        2 bytes
  1931 ;; Hardware stack levels used: 1
  1932 ;; Hardware stack levels required when called: 5
  1933 ;; This function calls:
  1934 ;;		_deg_to_us
  1935 ;;		_servo_write_us
  1936 ;; This function is called by:
  1937 ;;		_servo_sweep_deg_scurve
  1938 ;; This function uses a non-reentrant model
  1939 ;;
  1940                           
  1941     07AB                     _servo_set_angle_deg:	
  1942                           ;psect for function _servo_set_angle_deg
  1943                           
  1944     07AB                     l1091:	
  1945                           ;incstack = 0
  1946                           ; Regs used in _servo_set_angle_deg: [wreg+status,2+status,0+pclath+cstack]
  1947                           
  1948                           
  1949                           ;main.c: 160: void servo_set_angle_deg(uint16_t deg);main.c: 161: {;main.c: 162:     if 
      +                          (deg > 180) deg = 180;
  1950     07AB  3000               	movlw	0
  1951     07AC  0020               	movlb	0	; select bank0
  1952     07AD  023F               	subwf	servo_set_angle_deg@deg+1,w
  1953     07AE  30B5               	movlw	181
  1954     07AF  1903               	skipnz
  1955     07B0  023E               	subwf	servo_set_angle_deg@deg,w
  1956     07B1  1C03               	skipc
  1957     07B2  2FB4               	goto	u731
  1958     07B3  2FB5               	goto	u730
  1959     07B4                     u731:
  1960     07B4  2FB9               	goto	l1095
  1961     07B5                     u730:
  1962     07B5                     l1093:
  1963     07B5  30B4               	movlw	180
  1964     07B6  00BE               	movwf	servo_set_angle_deg@deg
  1965     07B7  3000               	movlw	0
  1966     07B8  00BF               	movwf	servo_set_angle_deg@deg+1
  1967     07B9                     l1095:
  1968                           
  1969                           ;main.c: 163:     servo_write_us(deg_to_us(deg));
  1970     07B9  083F               	movf	servo_set_angle_deg@deg+1,w
  1971     07BA  00BB               	movwf	deg_to_us@deg+1
  1972     07BB  083E               	movf	servo_set_angle_deg@deg,w
  1973     07BC  00BA               	movwf	deg_to_us@deg
  1974     07BD  3186  2692  3187   	fcall	_deg_to_us
  1975     07C0  0020               	movlb	0	; select bank0
  1976     07C1  083B               	movf	?_deg_to_us+1,w
  1977     07C2  00BD               	movwf	servo_write_us@us+1
  1978     07C3  083A               	movf	?_deg_to_us,w
  1979     07C4  00BC               	movwf	servo_write_us@us
  1980     07C5  3187  278B  3187   	fcall	_servo_write_us
  1981     07C8                     l106:
  1982     07C8  0008               	return
  1983     07C9                     __end_of_servo_set_angle_deg:
  1984                           
  1985                           	psect	text3
  1986     078B                     __ptext3:	
  1987 ;; *************** function _servo_write_us *****************
  1988 ;; Defined at:
  1989 ;;		line 153 in file "main.c"
  1990 ;; Parameters:    Size  Location     Type
  1991 ;;  us              2   28[BANK0 ] unsigned short 
  1992 ;; Auto vars:     Size  Location     Type
  1993 ;;		None
  1994 ;; Return value:  Size  Location     Type
  1995 ;;                  1    wreg      void 
  1996 ;; Registers used:
  1997 ;;		wreg
  1998 ;; Tracked objects:
  1999 ;;		On entry : 0/0
  2000 ;;		On exit  : 0/0
  2001 ;;		Unchanged: 0/0
  2002 ;; Data sizes:     COMMON   BANK0   BANK1   BANK2   BANK3   BANK4   BANK5   BANK6   BANK7   BANK8   BANK9  BANK10  BANK1
      +1  BANK12  BANK13  BANK14  BANK15  BANK16  BANK17  BANK18  BANK19  BANK20  BANK21  BANK22  BANK23  BANK24  BANK25
  2003 ;;      Params:         0       2       0       0       0       0       0       0       0       0       0       0       
      +0       0       0       0       0       0       0       0       0       0       0       0       0       0       0
  2004 ;;      Locals:         0       0       0       0       0       0       0       0       0       0       0       0       
      +0       0       0       0       0       0       0       0       0       0       0       0       0       0       0
  2005 ;;      Temps:          0       0       0       0       0       0       0       0       0       0       0       0       
      +0       0       0       0       0       0       0       0       0       0       0       0       0       0       0
  2006 ;;      Totals:         0       2       0       0       0       0       0       0       0       0       0       0       
      +0       0       0       0       0       0       0       0       0       0       0       0       0       0       0
  2007 ;;Total ram usage:        2 bytes
  2008 ;; Hardware stack levels used: 1
  2009 ;; Hardware stack levels required when called: 3
  2010 ;; This function calls:
  2011 ;;		Nothing
  2012 ;; This function is called by:
  2013 ;;		_servo_set_angle_deg
  2014 ;; This function uses a non-reentrant model
  2015 ;;
  2016                           
  2017     078B                     _servo_write_us:	
  2018                           ;psect for function _servo_write_us
  2019                           
  2020     078B                     l1031:	
  2021                           ;incstack = 0
  2022                           ; Regs used in _servo_write_us: [wreg]
  2023                           
  2024                           
  2025                           ;main.c: 153: void servo_write_us(uint16_t us);main.c: 154: {;main.c: 155:     if (us < 
      +                          500u) us = 500u;
  2026     078B  3001               	movlw	1
  2027     078C  0020               	movlb	0	; select bank0
  2028     078D  023D               	subwf	servo_write_us@us+1,w
  2029     078E  30F4               	movlw	244
  2030     078F  1903               	skipnz
  2031     0790  023C               	subwf	servo_write_us@us,w
  2032     0791  1803               	skipnc
  2033     0792  2F94               	goto	u651
  2034     0793  2F95               	goto	u650
  2035     0794                     u651:
  2036     0794  2F99               	goto	l100
  2037     0795                     u650:
  2038     0795                     l1033:
  2039     0795  30F4               	movlw	244
  2040     0796  00BC               	movwf	servo_write_us@us
  2041     0797  3001               	movlw	1
  2042     0798  00BD               	movwf	servo_write_us@us+1
  2043     0799                     l100:
  2044                           
  2045                           ;main.c: 156:     if (us > 2500u) us = 2500u;
  2046     0799  3009               	movlw	9
  2047     079A  023D               	subwf	servo_write_us@us+1,w
  2048     079B  30C5               	movlw	197
  2049     079C  1903               	skipnz
  2050     079D  023C               	subwf	servo_write_us@us,w
  2051     079E  1C03               	skipc
  2052     079F  2FA1               	goto	u661
  2053     07A0  2FA2               	goto	u660
  2054     07A1                     u661:
  2055     07A1  2FA6               	goto	l101
  2056     07A2                     u660:
  2057     07A2                     l1035:
  2058     07A2  30C4               	movlw	196
  2059     07A3  00BC               	movwf	servo_write_us@us
  2060     07A4  3009               	movlw	9
  2061     07A5  00BD               	movwf	servo_write_us@us+1
  2062     07A6                     l101:
  2063                           
  2064                           ;main.c: 157:     g_pulse_us = us;
  2065     07A6  083D               	movf	servo_write_us@us+1,w
  2066     07A7  00EA               	movwf	_g_pulse_us+1	;volatile
  2067     07A8  083C               	movf	servo_write_us@us,w
  2068     07A9  00E9               	movwf	_g_pulse_us	;volatile
  2069     07AA                     l102:
  2070     07AA  0008               	return
  2071     07AB                     __end_of_servo_write_us:
  2072                           
  2073                           	psect	text4
  2074     0692                     __ptext4:	
  2075 ;; *************** function _deg_to_us *****************
  2076 ;; Defined at:
  2077 ;;		line 91 in file "main.c"
  2078 ;; Parameters:    Size  Location     Type
  2079 ;;  deg             2   26[BANK0 ] unsigned short 
  2080 ;; Auto vars:     Size  Location     Type
  2081 ;;  span            4    0        unsigned long 
  2082 ;; Return value:  Size  Location     Type
  2083 ;;                  2   26[BANK0 ] unsigned short 
  2084 ;; Registers used:
  2085 ;;		wreg, status,2, status,0, pclath, cstack
  2086 ;; Tracked objects:
  2087 ;;		On entry : 0/0
  2088 ;;		On exit  : 0/0
  2089 ;;		Unchanged: 0/0
  2090 ;; Data sizes:     COMMON   BANK0   BANK1   BANK2   BANK3   BANK4   BANK5   BANK6   BANK7   BANK8   BANK9  BANK10  BANK1
      +1  BANK12  BANK13  BANK14  BANK15  BANK16  BANK17  BANK18  BANK19  BANK20  BANK21  BANK22  BANK23  BANK24  BANK25
  2091 ;;      Params:         0       2       0       0       0       0       0       0       0       0       0       0       
      +0       0       0       0       0       0       0       0       0       0       0       0       0       0       0
  2092 ;;      Locals:         0       0       0       0       0       0       0       0       0       0       0       0       
      +0       0       0       0       0       0       0       0       0       0       0       0       0       0       0
  2093 ;;      Temps:          0       0       0       0       0       0       0       0       0       0       0       0       
      +0       0       0       0       0       0       0       0       0       0       0       0       0       0       0
  2094 ;;      Totals:         0       2       0       0       0       0       0       0       0       0       0       0       
      +0       0       0       0       0       0       0       0       0       0       0       0       0       0       0
  2095 ;;Total ram usage:        2 bytes
  2096 ;; Hardware stack levels used: 1
  2097 ;; Hardware stack levels required when called: 4
  2098 ;; This function calls:
  2099 ;;		___lldiv
  2100 ;;		___lmul
  2101 ;; This function is called by:
  2102 ;;		_servo_set_angle_deg
  2103 ;; This function uses a non-reentrant model
  2104 ;;
  2105                           
  2106     0692                     _deg_to_us:	
  2107                           ;psect for function _deg_to_us
  2108                           
  2109     0692                     l1013:	
  2110                           ;incstack = 0
  2111                           ; Regs used in _deg_to_us: [wreg+status,2+status,0+pclath+cstack]
  2112                           
  2113                           
  2114                           ;main.c: 91: static __attribute__((inline)) uint16_t deg_to_us(uint16_t deg);main.c: 92:
      +                           {;main.c: 93:     if (deg < 5u) deg = 5u;
  2115     0692  3000               	movlw	0
  2116     0693  0020               	movlb	0	; select bank0
  2117     0694  023B               	subwf	deg_to_us@deg+1,w
  2118     0695  3005               	movlw	5
  2119     0696  1903               	skipnz
  2120     0697  023A               	subwf	deg_to_us@deg,w
  2121     0698  1803               	skipnc
  2122     0699  2E9B               	goto	u631
  2123     069A  2E9C               	goto	u630
  2124     069B                     u631:
  2125     069B  2EA0               	goto	l88
  2126     069C                     u630:
  2127     069C                     l1015:
  2128     069C  3005               	movlw	5
  2129     069D  00BA               	movwf	deg_to_us@deg
  2130     069E  3000               	movlw	0
  2131     069F  00BB               	movwf	deg_to_us@deg+1
  2132     06A0                     l88:
  2133                           
  2134                           ;main.c: 94:     if (deg > 175u) deg = 175u;
  2135     06A0  3000               	movlw	0
  2136     06A1  023B               	subwf	deg_to_us@deg+1,w
  2137     06A2  30B0               	movlw	176
  2138     06A3  1903               	skipnz
  2139     06A4  023A               	subwf	deg_to_us@deg,w
  2140     06A5  1C03               	skipc
  2141     06A6  2EA8               	goto	u641
  2142     06A7  2EA9               	goto	u640
  2143     06A8                     u641:
  2144     06A8  2EAD               	goto	l89
  2145     06A9                     u640:
  2146     06A9                     l1017:
  2147     06A9  30AF               	movlw	175
  2148     06AA  00BA               	movwf	deg_to_us@deg
  2149     06AB  3000               	movlw	0
  2150     06AC  00BB               	movwf	deg_to_us@deg+1
  2151     06AD                     l89:
  2152     06AD                     l1019:
  2153                           
  2154                           ;main.c: 97:     return (uint16_t)(500u + (span * deg) / 180u);
  2155     06AD  3000               	movlw	0
  2156     06AE  00AF               	movwf	___lldiv@divisor+3
  2157     06AF  3000               	movlw	0
  2158     06B0  00AE               	movwf	___lldiv@divisor+2
  2159     06B1  3000               	movlw	0
  2160     06B2  00AD               	movwf	___lldiv@divisor+1
  2161     06B3  30B4               	movlw	180
  2162     06B4  00AC               	movwf	___lldiv@divisor
  2163     06B5  083A               	movf	deg_to_us@deg,w
  2164     06B6  00A0               	movwf	___lmul@multiplier
  2165     06B7  083B               	movf	deg_to_us@deg+1,w
  2166     06B8  00A1               	movwf	___lmul@multiplier+1
  2167     06B9  01A2               	clrf	___lmul@multiplier+2
  2168     06BA  01A3               	clrf	___lmul@multiplier+3
  2169     06BB  3000               	movlw	0
  2170     06BC  00A7               	movwf	___lmul@multiplicand+3
  2171     06BD  3000               	movlw	0
  2172     06BE  00A6               	movwf	___lmul@multiplicand+2
  2173     06BF  3007               	movlw	7
  2174     06C0  00A5               	movwf	___lmul@multiplicand+1
  2175     06C1  30D0               	movlw	208
  2176     06C2  00A4               	movwf	___lmul@multiplicand
  2177     06C3  3187  2757  3186   	fcall	___lmul
  2178     06C6  0020               	movlb	0	; select bank0
  2179     06C7  0823               	movf	?___lmul+3,w
  2180     06C8  00B3               	movwf	___lldiv@dividend+3
  2181     06C9  0822               	movf	?___lmul+2,w
  2182     06CA  00B2               	movwf	___lldiv@dividend+2
  2183     06CB  0821               	movf	?___lmul+1,w
  2184     06CC  00B1               	movwf	___lldiv@dividend+1
  2185     06CD  0820               	movf	?___lmul,w
  2186     06CE  00B0               	movwf	___lldiv@dividend
  2187     06CF  3185  25EB  3186   	fcall	___lldiv
  2188     06D2  0020               	movlb	0	; select bank0
  2189     06D3  082C               	movf	?___lldiv,w
  2190     06D4  3EF4               	addlw	244
  2191     06D5  00BA               	movwf	?_deg_to_us
  2192     06D6  3001               	movlw	1
  2193     06D7  3D2D               	addwfc	?___lldiv+1,w
  2194     06D8  00BB               	movwf	?_deg_to_us+1
  2195     06D9                     l90:
  2196     06D9  0008               	return
  2197     06DA                     __end_of_deg_to_us:
  2198                           
  2199                           	psect	text5
  2200     0757                     __ptext5:	
  2201 ;; *************** function ___lmul *****************
  2202 ;; Defined at:
  2203 ;;		line 15 in file "C:\Program Files\Microchip\xc8\v2.46\pic\sources\c99\common\Umul32.c"
  2204 ;; Parameters:    Size  Location     Type
  2205 ;;  multiplier      4    0[BANK0 ] unsigned long 
  2206 ;;  multiplicand    4    4[BANK0 ] unsigned long 
  2207 ;; Auto vars:     Size  Location     Type
  2208 ;;  product         4    8[BANK0 ] unsigned long 
  2209 ;; Return value:  Size  Location     Type
  2210 ;;                  4    0[BANK0 ] unsigned long 
  2211 ;; Registers used:
  2212 ;;		wreg, status,2, status,0
  2213 ;; Tracked objects:
  2214 ;;		On entry : 0/0
  2215 ;;		On exit  : 0/0
  2216 ;;		Unchanged: 0/0
  2217 ;; Data sizes:     COMMON   BANK0   BANK1   BANK2   BANK3   BANK4   BANK5   BANK6   BANK7   BANK8   BANK9  BANK10  BANK1
      +1  BANK12  BANK13  BANK14  BANK15  BANK16  BANK17  BANK18  BANK19  BANK20  BANK21  BANK22  BANK23  BANK24  BANK25
  2218 ;;      Params:         0       8       0       0       0       0       0       0       0       0       0       0       
      +0       0       0       0       0       0       0       0       0       0       0       0       0       0       0
  2219 ;;      Locals:         0       4       0       0       0       0       0       0       0       0       0       0       
      +0       0       0       0       0       0       0       0       0       0       0       0       0       0       0
  2220 ;;      Temps:          0       0       0       0       0       0       0       0       0       0       0       0       
      +0       0       0       0       0       0       0       0       0       0       0       0       0       0       0
  2221 ;;      Totals:         0      12       0       0       0       0       0       0       0       0       0       0       
      +0       0       0       0       0       0       0       0       0       0       0       0       0       0       0
  2222 ;;Total ram usage:       12 bytes
  2223 ;; Hardware stack levels used: 1
  2224 ;; Hardware stack levels required when called: 3
  2225 ;; This function calls:
  2226 ;;		Nothing
  2227 ;; This function is called by:
  2228 ;;		_deg_to_us
  2229 ;;		_current_deg_from_pulse
  2230 ;; This function uses a non-reentrant model
  2231 ;;
  2232                           
  2233     0757                     ___lmul:	
  2234                           ;psect for function ___lmul
  2235                           
  2236     0757                     l961:	
  2237                           ;incstack = 0
  2238                           ; Regs used in ___lmul: [wreg+status,2+status,0]
  2239                           
  2240     0757  3000               	movlw	0
  2241     0758  0020               	movlb	0	; select bank0
  2242     0759  00AB               	movwf	___lmul@product+3
  2243     075A  3000               	movlw	0
  2244     075B  00AA               	movwf	___lmul@product+2
  2245     075C  3000               	movlw	0
  2246     075D  00A9               	movwf	___lmul@product+1
  2247     075E  3000               	movlw	0
  2248     075F  00A8               	movwf	___lmul@product
  2249     0760                     l963:
  2250     0760  1C20               	btfss	___lmul@multiplier,0
  2251     0761  2F63               	goto	u481
  2252     0762  2F64               	goto	u480
  2253     0763                     u481:
  2254     0763  2F6C               	goto	l967
  2255     0764                     u480:
  2256     0764                     l965:
  2257     0764  0824               	movf	___lmul@multiplicand,w
  2258     0765  07A8               	addwf	___lmul@product,f
  2259     0766  0825               	movf	___lmul@multiplicand+1,w
  2260     0767  3DA9               	addwfc	___lmul@product+1,f
  2261     0768  0826               	movf	___lmul@multiplicand+2,w
  2262     0769  3DAA               	addwfc	___lmul@product+2,f
  2263     076A  0827               	movf	___lmul@multiplicand+3,w
  2264     076B  3DAB               	addwfc	___lmul@product+3,f
  2265     076C                     l967:
  2266     076C  3001               	movlw	1
  2267     076D                     u495:
  2268     076D  35A4               	lslf	___lmul@multiplicand,f
  2269     076E  0DA5               	rlf	___lmul@multiplicand+1,f
  2270     076F  0DA6               	rlf	___lmul@multiplicand+2,f
  2271     0770  0DA7               	rlf	___lmul@multiplicand+3,f
  2272     0771  0B89               	decfsz	9,f
  2273     0772  2F6D               	goto	u495
  2274     0773                     l969:
  2275     0773  3001               	movlw	1
  2276     0774                     u505:
  2277     0774  36A3               	lsrf	___lmul@multiplier+3,f
  2278     0775  0CA2               	rrf	___lmul@multiplier+2,f
  2279     0776  0CA1               	rrf	___lmul@multiplier+1,f
  2280     0777  0CA0               	rrf	___lmul@multiplier,f
  2281     0778  0B89               	decfsz	9,f
  2282     0779  2F74               	goto	u505
  2283     077A  0823               	movf	___lmul@multiplier+3,w
  2284     077B  0422               	iorwf	___lmul@multiplier+2,w
  2285     077C  0421               	iorwf	___lmul@multiplier+1,w
  2286     077D  0420               	iorwf	___lmul@multiplier,w
  2287     077E  1D03               	skipz
  2288     077F  2F81               	goto	u511
  2289     0780  2F82               	goto	u510
  2290     0781                     u511:
  2291     0781  2F60               	goto	l963
  2292     0782                     u510:
  2293     0782                     l971:
  2294     0782  082B               	movf	___lmul@product+3,w
  2295     0783  00A3               	movwf	?___lmul+3
  2296     0784  082A               	movf	___lmul@product+2,w
  2297     0785  00A2               	movwf	?___lmul+2
  2298     0786  0829               	movf	___lmul@product+1,w
  2299     0787  00A1               	movwf	?___lmul+1
  2300     0788  0828               	movf	___lmul@product,w
  2301     0789  00A0               	movwf	?___lmul
  2302     078A                     l233:
  2303     078A  0008               	return
  2304     078B                     __end_of___lmul:
  2305                           
  2306                           	psect	text6
  2307     05EB                     __ptext6:	
  2308 ;; *************** function ___lldiv *****************
  2309 ;; Defined at:
  2310 ;;		line 5 in file "C:\Program Files\Microchip\xc8\v2.46\pic\sources\c99\common\__lldiv.c"
  2311 ;; Parameters:    Size  Location     Type
  2312 ;;  divisor         4   12[BANK0 ] unsigned long 
  2313 ;;  dividend        4   16[BANK0 ] unsigned long 
  2314 ;; Auto vars:     Size  Location     Type
  2315 ;;  quotient        4   21[BANK0 ] unsigned long 
  2316 ;;  counter         1   25[BANK0 ] unsigned char 
  2317 ;; Return value:  Size  Location     Type
  2318 ;;                  4   12[BANK0 ] unsigned long 
  2319 ;; Registers used:
  2320 ;;		wreg, status,2, status,0
  2321 ;; Tracked objects:
  2322 ;;		On entry : 0/0
  2323 ;;		On exit  : 0/0
  2324 ;;		Unchanged: 0/0
  2325 ;; Data sizes:     COMMON   BANK0   BANK1   BANK2   BANK3   BANK4   BANK5   BANK6   BANK7   BANK8   BANK9  BANK10  BANK1
      +1  BANK12  BANK13  BANK14  BANK15  BANK16  BANK17  BANK18  BANK19  BANK20  BANK21  BANK22  BANK23  BANK24  BANK25
  2326 ;;      Params:         0       8       0       0       0       0       0       0       0       0       0       0       
      +0       0       0       0       0       0       0       0       0       0       0       0       0       0       0
  2327 ;;      Locals:         0       5       0       0       0       0       0       0       0       0       0       0       
      +0       0       0       0       0       0       0       0       0       0       0       0       0       0       0
  2328 ;;      Temps:          0       1       0       0       0       0       0       0       0       0       0       0       
      +0       0       0       0       0       0       0       0       0       0       0       0       0       0       0
  2329 ;;      Totals:         0      14       0       0       0       0       0       0       0       0       0       0       
      +0       0       0       0       0       0       0       0       0       0       0       0       0       0       0
  2330 ;;Total ram usage:       14 bytes
  2331 ;; Hardware stack levels used: 1
  2332 ;; Hardware stack levels required when called: 3
  2333 ;; This function calls:
  2334 ;;		Nothing
  2335 ;; This function is called by:
  2336 ;;		_deg_to_us
  2337 ;;		_servo_sweep_deg_scurve
  2338 ;;		_current_deg_from_pulse
  2339 ;; This function uses a non-reentrant model
  2340 ;;
  2341                           
  2342     05EB                     ___lldiv:	
  2343                           ;psect for function ___lldiv
  2344                           
  2345     05EB                     l985:	
  2346                           ;incstack = 0
  2347                           ; Regs used in ___lldiv: [wreg+status,2+status,0]
  2348                           
  2349     05EB  3000               	movlw	0
  2350     05EC  0020               	movlb	0	; select bank0
  2351     05ED  00B8               	movwf	___lldiv@quotient+3
  2352     05EE  3000               	movlw	0
  2353     05EF  00B7               	movwf	___lldiv@quotient+2
  2354     05F0  3000               	movlw	0
  2355     05F1  00B6               	movwf	___lldiv@quotient+1
  2356     05F2  3000               	movlw	0
  2357     05F3  00B5               	movwf	___lldiv@quotient
  2358     05F4  082F               	movf	___lldiv@divisor+3,w
  2359     05F5  042E               	iorwf	___lldiv@divisor+2,w
  2360     05F6  042D               	iorwf	___lldiv@divisor+1,w
  2361     05F7  042C               	iorwf	___lldiv@divisor,w
  2362     05F8  1903               	skipnz
  2363     05F9  2DFB               	goto	u551
  2364     05FA  2DFC               	goto	u550
  2365     05FB                     u551:
  2366     05FB  2E3D               	goto	l1005
  2367     05FC                     u550:
  2368     05FC                     l987:
  2369     05FC  01B9               	clrf	___lldiv@counter
  2370     05FD  0AB9               	incf	___lldiv@counter,f
  2371     05FE  2E0A               	goto	l991
  2372     05FF                     l989:
  2373     05FF  3001               	movlw	1
  2374     0600                     u565:
  2375     0600  35AC               	lslf	___lldiv@divisor,f
  2376     0601  0DAD               	rlf	___lldiv@divisor+1,f
  2377     0602  0DAE               	rlf	___lldiv@divisor+2,f
  2378     0603  0DAF               	rlf	___lldiv@divisor+3,f
  2379     0604  0B89               	decfsz	9,f
  2380     0605  2E00               	goto	u565
  2381     0606  3001               	movlw	1
  2382     0607  00B4               	movwf	??___lldiv
  2383     0608  0834               	movf	??___lldiv,w
  2384     0609  07B9               	addwf	___lldiv@counter,f
  2385     060A                     l991:
  2386     060A  1FAF               	btfss	___lldiv@divisor+3,7
  2387     060B  2E0D               	goto	u571
  2388     060C  2E0E               	goto	u570
  2389     060D                     u571:
  2390     060D  2DFF               	goto	l989
  2391     060E                     u570:
  2392     060E                     l993:
  2393     060E  3001               	movlw	1
  2394     060F                     u585:
  2395     060F  35B5               	lslf	___lldiv@quotient,f
  2396     0610  0DB6               	rlf	___lldiv@quotient+1,f
  2397     0611  0DB7               	rlf	___lldiv@quotient+2,f
  2398     0612  0DB8               	rlf	___lldiv@quotient+3,f
  2399     0613  0B89               	decfsz	9,f
  2400     0614  2E0F               	goto	u585
  2401     0615                     l995:
  2402     0615  082F               	movf	___lldiv@divisor+3,w
  2403     0616  0233               	subwf	___lldiv@dividend+3,w
  2404     0617  1D03               	skipz
  2405     0618  2E23               	goto	u595
  2406     0619  082E               	movf	___lldiv@divisor+2,w
  2407     061A  0232               	subwf	___lldiv@dividend+2,w
  2408     061B  1D03               	skipz
  2409     061C  2E23               	goto	u595
  2410     061D  082D               	movf	___lldiv@divisor+1,w
  2411     061E  0231               	subwf	___lldiv@dividend+1,w
  2412     061F  1D03               	skipz
  2413     0620  2E23               	goto	u595
  2414     0621  082C               	movf	___lldiv@divisor,w
  2415     0622  0230               	subwf	___lldiv@dividend,w
  2416     0623                     u595:
  2417     0623  1C03               	skipc
  2418     0624  2E26               	goto	u591
  2419     0625  2E27               	goto	u590
  2420     0626                     u591:
  2421     0626  2E30               	goto	l1001
  2422     0627                     u590:
  2423     0627                     l997:
  2424     0627  082C               	movf	___lldiv@divisor,w
  2425     0628  02B0               	subwf	___lldiv@dividend,f
  2426     0629  082D               	movf	___lldiv@divisor+1,w
  2427     062A  3BB1               	subwfb	___lldiv@dividend+1,f
  2428     062B  082E               	movf	___lldiv@divisor+2,w
  2429     062C  3BB2               	subwfb	___lldiv@dividend+2,f
  2430     062D  082F               	movf	___lldiv@divisor+3,w
  2431     062E  3BB3               	subwfb	___lldiv@dividend+3,f
  2432     062F                     l999:
  2433     062F  1435               	bsf	___lldiv@quotient,0
  2434     0630                     l1001:
  2435     0630  3001               	movlw	1
  2436     0631                     u605:
  2437     0631  36AF               	lsrf	___lldiv@divisor+3,f
  2438     0632  0CAE               	rrf	___lldiv@divisor+2,f
  2439     0633  0CAD               	rrf	___lldiv@divisor+1,f
  2440     0634  0CAC               	rrf	___lldiv@divisor,f
  2441     0635  0B89               	decfsz	9,f
  2442     0636  2E31               	goto	u605
  2443     0637                     l1003:
  2444     0637  3001               	movlw	1
  2445     0638  02B9               	subwf	___lldiv@counter,f
  2446     0639  1D03               	btfss	3,2
  2447     063A  2E3C               	goto	u611
  2448     063B  2E3D               	goto	u610
  2449     063C                     u611:
  2450     063C  2E0E               	goto	l993
  2451     063D                     u610:
  2452     063D                     l1005:
  2453     063D  0838               	movf	___lldiv@quotient+3,w
  2454     063E  00AF               	movwf	?___lldiv+3
  2455     063F  0837               	movf	___lldiv@quotient+2,w
  2456     0640  00AE               	movwf	?___lldiv+2
  2457     0641  0836               	movf	___lldiv@quotient+1,w
  2458     0642  00AD               	movwf	?___lldiv+1
  2459     0643  0835               	movf	___lldiv@quotient,w
  2460     0644  00AC               	movwf	?___lldiv
  2461     0645                     l255:
  2462     0645  0008               	return
  2463     0646                     __end_of___lldiv:
  2464                           
  2465                           	psect	text7
  2466     0256                     __ptext7:	
  2467 ;; *************** function _scurve5_q15 *****************
  2468 ;; Defined at:
  2469 ;;		line 75 in file "main.c"
  2470 ;; Parameters:    Size  Location     Type
  2471 ;;  t               4   57[BANK0 ] unsigned long 
  2472 ;; Auto vars:     Size  Location     Type
  2473 ;;  s               8   56[BANK1 ] long long 
  2474 ;;  t4              4   52[BANK1 ] unsigned long 
  2475 ;;  t3              4   48[BANK1 ] unsigned long 
  2476 ;;  t5              4   44[BANK1 ] unsigned long 
  2477 ;;  t2              4   40[BANK1 ] unsigned long 
  2478 ;; Return value:  Size  Location     Type
  2479 ;;                  4   57[BANK0 ] unsigned long 
  2480 ;; Registers used:
  2481 ;;		wreg, fsr1l, fsr1h, status,2, status,0, pclath, cstack
  2482 ;; Tracked objects:
  2483 ;;		On entry : 0/0
  2484 ;;		On exit  : 0/0
  2485 ;;		Unchanged: 0/0
  2486 ;; Data sizes:     COMMON   BANK0   BANK1   BANK2   BANK3   BANK4   BANK5   BANK6   BANK7   BANK8   BANK9  BANK10  BANK1
      +1  BANK12  BANK13  BANK14  BANK15  BANK16  BANK17  BANK18  BANK19  BANK20  BANK21  BANK22  BANK23  BANK24  BANK25
  2487 ;;      Params:         0       4       0       0       0       0       0       0       0       0       0       0       
      +0       0       0       0       0       0       0       0       0       0       0       0       0       0       0
  2488 ;;      Locals:         0       0      24       0       0       0       0       0       0       0       0       0       
      +0       0       0       0       0       0       0       0       0       0       0       0       0       0       0
  2489 ;;      Temps:          0       0      40       0       0       0       0       0       0       0       0       0       
      +0       0       0       0       0       0       0       0       0       0       0       0       0       0       0
  2490 ;;      Totals:         0       4      64       0       0       0       0       0       0       0       0       0       
      +0       0       0       0       0       0       0       0       0       0       0       0       0       0       0
  2491 ;;Total ram usage:       68 bytes
  2492 ;; Hardware stack levels used: 1
  2493 ;; Hardware stack levels required when called: 5
  2494 ;; This function calls:
  2495 ;;		___omul
  2496 ;;		_q15_mul
  2497 ;; This function is called by:
  2498 ;;		_servo_sweep_deg_scurve
  2499 ;; This function uses a non-reentrant model
  2500 ;;
  2501                           
  2502     0256                     _scurve5_q15:	
  2503                           ;psect for function _scurve5_q15
  2504                           
  2505     0256                     l1045:	
  2506                           ;incstack = 0
  2507                           ; Regs used in _scurve5_q15: [wreg+fsr1l+fsr1h+status,2+status,0+pclath+cstack]
  2508                           
  2509                           
  2510                           ;main.c: 75: static __attribute__((inline)) uint32_t scurve5_q15(uint32_t t);main.c: 76:
      +                           {;main.c: 77:     uint32_t t2 = q15_mul(t, t);
  2511     0256  0020               	movlb	0	; select bank0
  2512     0257  085C               	movf	scurve5_q15@t+3,w
  2513     0258  00BC               	movwf	q15_mul@a+3
  2514     0259  085B               	movf	scurve5_q15@t+2,w
  2515     025A  00BB               	movwf	q15_mul@a+2
  2516     025B  085A               	movf	scurve5_q15@t+1,w
  2517     025C  00BA               	movwf	q15_mul@a+1
  2518     025D  0859               	movf	scurve5_q15@t,w
  2519     025E  00B9               	movwf	q15_mul@a
  2520     025F  085C               	movf	scurve5_q15@t+3,w
  2521     0260  00C0               	movwf	q15_mul@b+3
  2522     0261  085B               	movf	scurve5_q15@t+2,w
  2523     0262  00BF               	movwf	q15_mul@b+2
  2524     0263  085A               	movf	scurve5_q15@t+1,w
  2525     0264  00BE               	movwf	q15_mul@b+1
  2526     0265  0859               	movf	scurve5_q15@t,w
  2527     0266  00BD               	movwf	q15_mul@b
  2528     0267  3185  2574  3182   	fcall	_q15_mul
  2529     026A  0020               	movlb	0	; select bank0
  2530     026B  083C               	movf	?_q15_mul+3,w
  2531     026C  0021               	movlb	1	; select bank1
  2532     026D  00CB               	movwf	(scurve5_q15@t2+3)^(0+128)
  2533     026E  0020               	movlb	0	; select bank0
  2534     026F  083B               	movf	?_q15_mul+2,w
  2535     0270  0021               	movlb	1	; select bank1
  2536     0271  00CA               	movwf	(scurve5_q15@t2+2)^(0+128)
  2537     0272  0020               	movlb	0	; select bank0
  2538     0273  083A               	movf	?_q15_mul+1,w
  2539     0274  0021               	movlb	1	; select bank1
  2540     0275  00C9               	movwf	(scurve5_q15@t2+1)^(0+128)
  2541     0276  0020               	movlb	0	; select bank0
  2542     0277  0839               	movf	?_q15_mul,w
  2543     0278  0021               	movlb	1	; select bank1
  2544     0279  00C8               	movwf	scurve5_q15@t2^(0+128)
  2545                           
  2546                           ;main.c: 78:     uint32_t t3 = q15_mul(t2, t);
  2547     027A  084B               	movf	(scurve5_q15@t2+3)^(0+128),w
  2548     027B  0020               	movlb	0	; select bank0
  2549     027C  00BC               	movwf	q15_mul@a+3
  2550     027D  0021               	movlb	1	; select bank1
  2551     027E  084A               	movf	(scurve5_q15@t2+2)^(0+128),w
  2552     027F  0020               	movlb	0	; select bank0
  2553     0280  00BB               	movwf	q15_mul@a+2
  2554     0281  0021               	movlb	1	; select bank1
  2555     0282  0849               	movf	(scurve5_q15@t2+1)^(0+128),w
  2556     0283  0020               	movlb	0	; select bank0
  2557     0284  00BA               	movwf	q15_mul@a+1
  2558     0285  0021               	movlb	1	; select bank1
  2559     0286  0848               	movf	scurve5_q15@t2^(0+128),w
  2560     0287  0020               	movlb	0	; select bank0
  2561     0288  00B9               	movwf	q15_mul@a
  2562     0289  085C               	movf	scurve5_q15@t+3,w
  2563     028A  00C0               	movwf	q15_mul@b+3
  2564     028B  085B               	movf	scurve5_q15@t+2,w
  2565     028C  00BF               	movwf	q15_mul@b+2
  2566     028D  085A               	movf	scurve5_q15@t+1,w
  2567     028E  00BE               	movwf	q15_mul@b+1
  2568     028F  0859               	movf	scurve5_q15@t,w
  2569     0290  00BD               	movwf	q15_mul@b
  2570     0291  3185  2574  3182   	fcall	_q15_mul
  2571     0294  0020               	movlb	0	; select bank0
  2572     0295  083C               	movf	?_q15_mul+3,w
  2573     0296  0021               	movlb	1	; select bank1
  2574     0297  00D3               	movwf	(scurve5_q15@t3+3)^(0+128)
  2575     0298  0020               	movlb	0	; select bank0
  2576     0299  083B               	movf	?_q15_mul+2,w
  2577     029A  0021               	movlb	1	; select bank1
  2578     029B  00D2               	movwf	(scurve5_q15@t3+2)^(0+128)
  2579     029C  0020               	movlb	0	; select bank0
  2580     029D  083A               	movf	?_q15_mul+1,w
  2581     029E  0021               	movlb	1	; select bank1
  2582     029F  00D1               	movwf	(scurve5_q15@t3+1)^(0+128)
  2583     02A0  0020               	movlb	0	; select bank0
  2584     02A1  0839               	movf	?_q15_mul,w
  2585     02A2  0021               	movlb	1	; select bank1
  2586     02A3  00D0               	movwf	scurve5_q15@t3^(0+128)
  2587                           
  2588                           ;main.c: 79:     uint32_t t4 = q15_mul(t3, t);
  2589     02A4  0853               	movf	(scurve5_q15@t3+3)^(0+128),w
  2590     02A5  0020               	movlb	0	; select bank0
  2591     02A6  00BC               	movwf	q15_mul@a+3
  2592     02A7  0021               	movlb	1	; select bank1
  2593     02A8  0852               	movf	(scurve5_q15@t3+2)^(0+128),w
  2594     02A9  0020               	movlb	0	; select bank0
  2595     02AA  00BB               	movwf	q15_mul@a+2
  2596     02AB  0021               	movlb	1	; select bank1
  2597     02AC  0851               	movf	(scurve5_q15@t3+1)^(0+128),w
  2598     02AD  0020               	movlb	0	; select bank0
  2599     02AE  00BA               	movwf	q15_mul@a+1
  2600     02AF  0021               	movlb	1	; select bank1
  2601     02B0  0850               	movf	scurve5_q15@t3^(0+128),w
  2602     02B1  0020               	movlb	0	; select bank0
  2603     02B2  00B9               	movwf	q15_mul@a
  2604     02B3  085C               	movf	scurve5_q15@t+3,w
  2605     02B4  00C0               	movwf	q15_mul@b+3
  2606     02B5  085B               	movf	scurve5_q15@t+2,w
  2607     02B6  00BF               	movwf	q15_mul@b+2
  2608     02B7  085A               	movf	scurve5_q15@t+1,w
  2609     02B8  00BE               	movwf	q15_mul@b+1
  2610     02B9  0859               	movf	scurve5_q15@t,w
  2611     02BA  00BD               	movwf	q15_mul@b
  2612     02BB  3185  2574  3182   	fcall	_q15_mul
  2613     02BE  0020               	movlb	0	; select bank0
  2614     02BF  083C               	movf	?_q15_mul+3,w
  2615     02C0  0021               	movlb	1	; select bank1
  2616     02C1  00D7               	movwf	(scurve5_q15@t4+3)^(0+128)
  2617     02C2  0020               	movlb	0	; select bank0
  2618     02C3  083B               	movf	?_q15_mul+2,w
  2619     02C4  0021               	movlb	1	; select bank1
  2620     02C5  00D6               	movwf	(scurve5_q15@t4+2)^(0+128)
  2621     02C6  0020               	movlb	0	; select bank0
  2622     02C7  083A               	movf	?_q15_mul+1,w
  2623     02C8  0021               	movlb	1	; select bank1
  2624     02C9  00D5               	movwf	(scurve5_q15@t4+1)^(0+128)
  2625     02CA  0020               	movlb	0	; select bank0
  2626     02CB  0839               	movf	?_q15_mul,w
  2627     02CC  0021               	movlb	1	; select bank1
  2628     02CD  00D4               	movwf	scurve5_q15@t4^(0+128)
  2629                           
  2630                           ;main.c: 80:     uint32_t t5 = q15_mul(t4, t);
  2631     02CE  0857               	movf	(scurve5_q15@t4+3)^(0+128),w
  2632     02CF  0020               	movlb	0	; select bank0
  2633     02D0  00BC               	movwf	q15_mul@a+3
  2634     02D1  0021               	movlb	1	; select bank1
  2635     02D2  0856               	movf	(scurve5_q15@t4+2)^(0+128),w
  2636     02D3  0020               	movlb	0	; select bank0
  2637     02D4  00BB               	movwf	q15_mul@a+2
  2638     02D5  0021               	movlb	1	; select bank1
  2639     02D6  0855               	movf	(scurve5_q15@t4+1)^(0+128),w
  2640     02D7  0020               	movlb	0	; select bank0
  2641     02D8  00BA               	movwf	q15_mul@a+1
  2642     02D9  0021               	movlb	1	; select bank1
  2643     02DA  0854               	movf	scurve5_q15@t4^(0+128),w
  2644     02DB  0020               	movlb	0	; select bank0
  2645     02DC  00B9               	movwf	q15_mul@a
  2646     02DD  085C               	movf	scurve5_q15@t+3,w
  2647     02DE  00C0               	movwf	q15_mul@b+3
  2648     02DF  085B               	movf	scurve5_q15@t+2,w
  2649     02E0  00BF               	movwf	q15_mul@b+2
  2650     02E1  085A               	movf	scurve5_q15@t+1,w
  2651     02E2  00BE               	movwf	q15_mul@b+1
  2652     02E3  0859               	movf	scurve5_q15@t,w
  2653     02E4  00BD               	movwf	q15_mul@b
  2654     02E5  3185  2574  3182   	fcall	_q15_mul
  2655     02E8  0020               	movlb	0	; select bank0
  2656     02E9  083C               	movf	?_q15_mul+3,w
  2657     02EA  0021               	movlb	1	; select bank1
  2658     02EB  00CF               	movwf	(scurve5_q15@t5+3)^(0+128)
  2659     02EC  0020               	movlb	0	; select bank0
  2660     02ED  083B               	movf	?_q15_mul+2,w
  2661     02EE  0021               	movlb	1	; select bank1
  2662     02EF  00CE               	movwf	(scurve5_q15@t5+2)^(0+128)
  2663     02F0  0020               	movlb	0	; select bank0
  2664     02F1  083A               	movf	?_q15_mul+1,w
  2665     02F2  0021               	movlb	1	; select bank1
  2666     02F3  00CD               	movwf	(scurve5_q15@t5+1)^(0+128)
  2667     02F4  0020               	movlb	0	; select bank0
  2668     02F5  0839               	movf	?_q15_mul,w
  2669     02F6  0021               	movlb	1	; select bank1
  2670     02F7  00CC               	movwf	scurve5_q15@t5^(0+128)
  2671                           
  2672                           ;main.c: 82:     int64_t s = (int64_t)6 * (int64_t)t5
  2673     02F8  0854               	movf	scurve5_q15@t4^(0+128),w
  2674     02F9  00A0               	movwf	??_scurve5_q15^(0+128)
  2675     02FA  0855               	movf	(scurve5_q15@t4+1)^(0+128),w
  2676     02FB  00A1               	movwf	(??_scurve5_q15^(0+128)+1)
  2677     02FC  0856               	movf	(scurve5_q15@t4+2)^(0+128),w
  2678     02FD  00A2               	movwf	(??_scurve5_q15^(0+128)+2)
  2679     02FE  0857               	movf	(scurve5_q15@t4+3)^(0+128),w
  2680     02FF  00A3               	movwf	(??_scurve5_q15^(0+128)+3)
  2681     0300  01A4               	clrf	(??_scurve5_q15^(0+128)+4)
  2682     0301  01A5               	clrf	(??_scurve5_q15^(0+128)+5)
  2683     0302  01A6               	clrf	(??_scurve5_q15^(0+128)+6)
  2684     0303  01A7               	clrf	(??_scurve5_q15^(0+128)+7)
  2685     0304  0827               	movf	(??_scurve5_q15^(0+128)+7),w
  2686     0305  0020               	movlb	0	; select bank0
  2687     0306  00A7               	movwf	___omul@multiplier+7
  2688     0307  0021               	movlb	1	; select bank1
  2689     0308  0826               	movf	(??_scurve5_q15^(0+128)+6),w
  2690     0309  0020               	movlb	0	; select bank0
  2691     030A  00A6               	movwf	___omul@multiplier+6
  2692     030B  0021               	movlb	1	; select bank1
  2693     030C  0825               	movf	(??_scurve5_q15^(0+128)+5),w
  2694     030D  0020               	movlb	0	; select bank0
  2695     030E  00A5               	movwf	___omul@multiplier+5
  2696     030F  0021               	movlb	1	; select bank1
  2697     0310  0824               	movf	(??_scurve5_q15^(0+128)+4),w
  2698     0311  0020               	movlb	0	; select bank0
  2699     0312  00A4               	movwf	___omul@multiplier+4
  2700     0313  0021               	movlb	1	; select bank1
  2701     0314  0823               	movf	(??_scurve5_q15^(0+128)+3),w
  2702     0315  0020               	movlb	0	; select bank0
  2703     0316  00A3               	movwf	___omul@multiplier+3
  2704     0317  0021               	movlb	1	; select bank1
  2705     0318  0822               	movf	(??_scurve5_q15^(0+128)+2),w
  2706     0319  0020               	movlb	0	; select bank0
  2707     031A  00A2               	movwf	___omul@multiplier+2
  2708     031B  0021               	movlb	1	; select bank1
  2709     031C  0821               	movf	(??_scurve5_q15^(0+128)+1),w
  2710     031D  0020               	movlb	0	; select bank0
  2711     031E  00A1               	movwf	___omul@multiplier+1
  2712     031F  0021               	movlb	1	; select bank1
  2713     0320  0820               	movf	??_scurve5_q15^(0+128),w
  2714     0321  0020               	movlb	0	; select bank0
  2715     0322  00A0               	movwf	___omul@multiplier
  2716     0323  30FF               	movlw	255
  2717     0324  00AF               	movwf	___omul@multiplicand+7
  2718     0325  30FF               	movlw	255
  2719     0326  00AE               	movwf	___omul@multiplicand+6
  2720     0327  30FF               	movlw	255
  2721     0328  00AD               	movwf	___omul@multiplicand+5
  2722     0329  30FF               	movlw	255
  2723     032A  00AC               	movwf	___omul@multiplicand+4
  2724     032B  30FF               	movlw	255
  2725     032C  00AB               	movwf	___omul@multiplicand+3
  2726     032D  30FF               	movlw	255
  2727     032E  00AA               	movwf	___omul@multiplicand+2
  2728     032F  30FF               	movlw	255
  2729     0330  00A9               	movwf	___omul@multiplicand+1
  2730     0331  30F1               	movlw	241
  2731     0332  00A8               	movwf	___omul@multiplicand
  2732     0333  3186  2646  3182   	fcall	___omul
  2733     0336  0020               	movlb	0	; select bank0
  2734     0337  3020               	movlw	low ?___omul
  2735     0338  0086               	movwf	6
  2736     0339  3000               	movlw	high ?___omul
  2737     033A  0087               	movwf	7
  2738     033B  3F40               	moviw [0]fsr1
  2739     033C  0021               	movlb	1	; select bank1
  2740     033D  00A8               	movwf	(??_scurve5_q15+8)^(0+128)
  2741     033E  3F41               	moviw [1]fsr1
  2742     033F  00A9               	movwf	((??_scurve5_q15+8)^(0+128)+1)
  2743     0340  3F42               	moviw [2]fsr1
  2744     0341  00AA               	movwf	((??_scurve5_q15+8)^(0+128)+2)
  2745     0342  3F43               	moviw [3]fsr1
  2746     0343  00AB               	movwf	((??_scurve5_q15+8)^(0+128)+3)
  2747     0344  3F44               	moviw [4]fsr1
  2748     0345  00AC               	movwf	((??_scurve5_q15+8)^(0+128)+4)
  2749     0346  3F45               	moviw [5]fsr1
  2750     0347  00AD               	movwf	((??_scurve5_q15+8)^(0+128)+5)
  2751     0348  3F46               	moviw [6]fsr1
  2752     0349  00AE               	movwf	((??_scurve5_q15+8)^(0+128)+6)
  2753     034A  3F47               	moviw [7]fsr1
  2754     034B  00AF               	movwf	((??_scurve5_q15+8)^(0+128)+7)
  2755     034C  084C               	movf	scurve5_q15@t5^(0+128),w
  2756     034D  00B0               	movwf	(??_scurve5_q15+16)^(0+128)
  2757     034E  084D               	movf	(scurve5_q15@t5+1)^(0+128),w
  2758     034F  00B1               	movwf	((??_scurve5_q15+16)^(0+128)+1)
  2759     0350  084E               	movf	(scurve5_q15@t5+2)^(0+128),w
  2760     0351  00B2               	movwf	((??_scurve5_q15+16)^(0+128)+2)
  2761     0352  084F               	movf	(scurve5_q15@t5+3)^(0+128),w
  2762     0353  00B3               	movwf	((??_scurve5_q15+16)^(0+128)+3)
  2763     0354  01B4               	clrf	((??_scurve5_q15+16)^(0+128)+4)
  2764     0355  01B5               	clrf	((??_scurve5_q15+16)^(0+128)+5)
  2765     0356  01B6               	clrf	((??_scurve5_q15+16)^(0+128)+6)
  2766     0357  01B7               	clrf	((??_scurve5_q15+16)^(0+128)+7)
  2767     0358  0837               	movf	((??_scurve5_q15+16)^(0+128)+7),w
  2768     0359  0020               	movlb	0	; select bank0
  2769     035A  00A7               	movwf	___omul@multiplier+7
  2770     035B  0021               	movlb	1	; select bank1
  2771     035C  0836               	movf	((??_scurve5_q15+16)^(0+128)+6),w
  2772     035D  0020               	movlb	0	; select bank0
  2773     035E  00A6               	movwf	___omul@multiplier+6
  2774     035F  0021               	movlb	1	; select bank1
  2775     0360  0835               	movf	((??_scurve5_q15+16)^(0+128)+5),w
  2776     0361  0020               	movlb	0	; select bank0
  2777     0362  00A5               	movwf	___omul@multiplier+5
  2778     0363  0021               	movlb	1	; select bank1
  2779     0364  0834               	movf	((??_scurve5_q15+16)^(0+128)+4),w
  2780     0365  0020               	movlb	0	; select bank0
  2781     0366  00A4               	movwf	___omul@multiplier+4
  2782     0367  0021               	movlb	1	; select bank1
  2783     0368  0833               	movf	((??_scurve5_q15+16)^(0+128)+3),w
  2784     0369  0020               	movlb	0	; select bank0
  2785     036A  00A3               	movwf	___omul@multiplier+3
  2786     036B  0021               	movlb	1	; select bank1
  2787     036C  0832               	movf	((??_scurve5_q15+16)^(0+128)+2),w
  2788     036D  0020               	movlb	0	; select bank0
  2789     036E  00A2               	movwf	___omul@multiplier+2
  2790     036F  0021               	movlb	1	; select bank1
  2791     0370  0831               	movf	((??_scurve5_q15+16)^(0+128)+1),w
  2792     0371  0020               	movlb	0	; select bank0
  2793     0372  00A1               	movwf	___omul@multiplier+1
  2794     0373  0021               	movlb	1	; select bank1
  2795     0374  0830               	movf	(??_scurve5_q15+16)^(0+128),w
  2796     0375  0020               	movlb	0	; select bank0
  2797     0376  00A0               	movwf	___omul@multiplier
  2798     0377  3006               	movlw	6
  2799     0378  00A8               	movwf	___omul@multiplicand
  2800     0379  01A9               	clrf	___omul@multiplicand+1
  2801     037A  01AA               	clrf	___omul@multiplicand+2
  2802     037B  01AB               	clrf	___omul@multiplicand+3
  2803     037C  01AC               	clrf	___omul@multiplicand+4
  2804     037D  01AD               	clrf	___omul@multiplicand+5
  2805     037E  01AE               	clrf	___omul@multiplicand+6
  2806     037F  01AF               	clrf	___omul@multiplicand+7
  2807     0380  3186  2646  3182   	fcall	___omul
  2808     0383  0020               	movlb	0	; select bank0
  2809     0384  3020               	movlw	low ?___omul
  2810     0385  0086               	movwf	6
  2811     0386  3000               	movlw	high ?___omul
  2812     0387  0087               	movwf	7
  2813     0388  3F40               	moviw [0]fsr1
  2814     0389  0021               	movlb	1	; select bank1
  2815     038A  00B8               	movwf	(??_scurve5_q15+24)^(0+128)
  2816     038B  3F41               	moviw [1]fsr1
  2817     038C  00B9               	movwf	((??_scurve5_q15+24)^(0+128)+1)
  2818     038D  3F42               	moviw [2]fsr1
  2819     038E  00BA               	movwf	((??_scurve5_q15+24)^(0+128)+2)
  2820     038F  3F43               	moviw [3]fsr1
  2821     0390  00BB               	movwf	((??_scurve5_q15+24)^(0+128)+3)
  2822     0391  3F44               	moviw [4]fsr1
  2823     0392  00BC               	movwf	((??_scurve5_q15+24)^(0+128)+4)
  2824     0393  3F45               	moviw [5]fsr1
  2825     0394  00BD               	movwf	((??_scurve5_q15+24)^(0+128)+5)
  2826     0395  3F46               	moviw [6]fsr1
  2827     0396  00BE               	movwf	((??_scurve5_q15+24)^(0+128)+6)
  2828     0397  3F47               	moviw [7]fsr1
  2829     0398  00BF               	movwf	((??_scurve5_q15+24)^(0+128)+7)
  2830     0399  0850               	movf	scurve5_q15@t3^(0+128),w
  2831     039A  00C0               	movwf	(??_scurve5_q15+32)^(0+128)
  2832     039B  0851               	movf	(scurve5_q15@t3+1)^(0+128),w
  2833     039C  00C1               	movwf	((??_scurve5_q15+32)^(0+128)+1)
  2834     039D  0852               	movf	(scurve5_q15@t3+2)^(0+128),w
  2835     039E  00C2               	movwf	((??_scurve5_q15+32)^(0+128)+2)
  2836     039F  0853               	movf	(scurve5_q15@t3+3)^(0+128),w
  2837     03A0  00C3               	movwf	((??_scurve5_q15+32)^(0+128)+3)
  2838     03A1  01C4               	clrf	((??_scurve5_q15+32)^(0+128)+4)
  2839     03A2  01C5               	clrf	((??_scurve5_q15+32)^(0+128)+5)
  2840     03A3  01C6               	clrf	((??_scurve5_q15+32)^(0+128)+6)
  2841     03A4  01C7               	clrf	((??_scurve5_q15+32)^(0+128)+7)
  2842     03A5  0847               	movf	((??_scurve5_q15+32)^(0+128)+7),w
  2843     03A6  0020               	movlb	0	; select bank0
  2844     03A7  00A7               	movwf	___omul@multiplier+7
  2845     03A8  0021               	movlb	1	; select bank1
  2846     03A9  0846               	movf	((??_scurve5_q15+32)^(0+128)+6),w
  2847     03AA  0020               	movlb	0	; select bank0
  2848     03AB  00A6               	movwf	___omul@multiplier+6
  2849     03AC  0021               	movlb	1	; select bank1
  2850     03AD  0845               	movf	((??_scurve5_q15+32)^(0+128)+5),w
  2851     03AE  0020               	movlb	0	; select bank0
  2852     03AF  00A5               	movwf	___omul@multiplier+5
  2853     03B0  0021               	movlb	1	; select bank1
  2854     03B1  0844               	movf	((??_scurve5_q15+32)^(0+128)+4),w
  2855     03B2  0020               	movlb	0	; select bank0
  2856     03B3  00A4               	movwf	___omul@multiplier+4
  2857     03B4  0021               	movlb	1	; select bank1
  2858     03B5  0843               	movf	((??_scurve5_q15+32)^(0+128)+3),w
  2859     03B6  0020               	movlb	0	; select bank0
  2860     03B7  00A3               	movwf	___omul@multiplier+3
  2861     03B8  0021               	movlb	1	; select bank1
  2862     03B9  0842               	movf	((??_scurve5_q15+32)^(0+128)+2),w
  2863     03BA  0020               	movlb	0	; select bank0
  2864     03BB  00A2               	movwf	___omul@multiplier+2
  2865     03BC  0021               	movlb	1	; select bank1
  2866     03BD  0841               	movf	((??_scurve5_q15+32)^(0+128)+1),w
  2867     03BE  0020               	movlb	0	; select bank0
  2868     03BF  00A1               	movwf	___omul@multiplier+1
  2869     03C0  0021               	movlb	1	; select bank1
  2870     03C1  0840               	movf	(??_scurve5_q15+32)^(0+128),w
  2871     03C2  0020               	movlb	0	; select bank0
  2872     03C3  00A0               	movwf	___omul@multiplier
  2873     03C4  300A               	movlw	10
  2874     03C5  00A8               	movwf	___omul@multiplicand
  2875     03C6  01A9               	clrf	___omul@multiplicand+1
  2876     03C7  01AA               	clrf	___omul@multiplicand+2
  2877     03C8  01AB               	clrf	___omul@multiplicand+3
  2878     03C9  01AC               	clrf	___omul@multiplicand+4
  2879     03CA  01AD               	clrf	___omul@multiplicand+5
  2880     03CB  01AE               	clrf	___omul@multiplicand+6
  2881     03CC  01AF               	clrf	___omul@multiplicand+7
  2882     03CD  3186  2646  3182   	fcall	___omul
  2883     03D0  0020               	movlb	0	; select bank0
  2884     03D1  3020               	movlw	low ?___omul
  2885     03D2  0086               	movwf	6
  2886     03D3  3000               	movlw	high ?___omul
  2887     03D4  0087               	movwf	7
  2888     03D5  3F40               	moviw [0]fsr1
  2889     03D6  0021               	movlb	1	; select bank1
  2890     03D7  07B8               	addwf	(??_scurve5_q15+24)^(0+128),f
  2891     03D8  3F41               	moviw [1]fsr1
  2892     03D9  3DB9               	addwfc	((??_scurve5_q15+24)^(0+128)+1),f
  2893     03DA  3F42               	moviw [2]fsr1
  2894     03DB  3DBA               	addwfc	((??_scurve5_q15+24)^(0+128)+2),f
  2895     03DC  3F43               	moviw [3]fsr1
  2896     03DD  3DBB               	addwfc	((??_scurve5_q15+24)^(0+128)+3),f
  2897     03DE  3F44               	moviw [4]fsr1
  2898     03DF  3DBC               	addwfc	((??_scurve5_q15+24)^(0+128)+4),f
  2899     03E0  3F45               	moviw [5]fsr1
  2900     03E1  3DBD               	addwfc	((??_scurve5_q15+24)^(0+128)+5),f
  2901     03E2  3F46               	moviw [6]fsr1
  2902     03E3  3DBE               	addwfc	((??_scurve5_q15+24)^(0+128)+6),f
  2903     03E4  3F47               	moviw [7]fsr1
  2904     03E5  3DBF               	addwfc	((??_scurve5_q15+24)^(0+128)+7),f
  2905     03E6  0838               	movf	(??_scurve5_q15+24)^(0+128),w
  2906     03E7  07A8               	addwf	(??_scurve5_q15+8)^(0+128),f
  2907     03E8  0839               	movf	((??_scurve5_q15+24)^(0+128)+1),w
  2908     03E9  3DA9               	addwfc	((??_scurve5_q15+8)^(0+128)+1),f
  2909     03EA  083A               	movf	((??_scurve5_q15+24)^(0+128)+2),w
  2910     03EB  3DAA               	addwfc	((??_scurve5_q15+8)^(0+128)+2),f
  2911     03EC  083B               	movf	((??_scurve5_q15+24)^(0+128)+3),w
  2912     03ED  3DAB               	addwfc	((??_scurve5_q15+8)^(0+128)+3),f
  2913     03EE  083C               	movf	((??_scurve5_q15+24)^(0+128)+4),w
  2914     03EF  3DAC               	addwfc	((??_scurve5_q15+8)^(0+128)+4),f
  2915     03F0  083D               	movf	((??_scurve5_q15+24)^(0+128)+5),w
  2916     03F1  3DAD               	addwfc	((??_scurve5_q15+8)^(0+128)+5),f
  2917     03F2  083E               	movf	((??_scurve5_q15+24)^(0+128)+6),w
  2918     03F3  3DAE               	addwfc	((??_scurve5_q15+8)^(0+128)+6),f
  2919     03F4  083F               	movf	((??_scurve5_q15+24)^(0+128)+7),w
  2920     03F5  3DAF               	addwfc	((??_scurve5_q15+8)^(0+128)+7),f
  2921     03F6  082F               	movf	((??_scurve5_q15+8)^(0+128)+7),w
  2922     03F7  00DF               	movwf	(scurve5_q15@s+7)^(0+128)
  2923     03F8  082E               	movf	((??_scurve5_q15+8)^(0+128)+6),w
  2924     03F9  00DE               	movwf	(scurve5_q15@s+6)^(0+128)
  2925     03FA  082D               	movf	((??_scurve5_q15+8)^(0+128)+5),w
  2926     03FB  00DD               	movwf	(scurve5_q15@s+5)^(0+128)
  2927     03FC  082C               	movf	((??_scurve5_q15+8)^(0+128)+4),w
  2928     03FD  00DC               	movwf	(scurve5_q15@s+4)^(0+128)
  2929     03FE  082B               	movf	((??_scurve5_q15+8)^(0+128)+3),w
  2930     03FF  00DB               	movwf	(scurve5_q15@s+3)^(0+128)
  2931     0400  082A               	movf	((??_scurve5_q15+8)^(0+128)+2),w
  2932     0401  00DA               	movwf	(scurve5_q15@s+2)^(0+128)
  2933     0402  0829               	movf	((??_scurve5_q15+8)^(0+128)+1),w
  2934     0403  00D9               	movwf	(scurve5_q15@s+1)^(0+128)
  2935     0404  0828               	movf	(??_scurve5_q15+8)^(0+128),w
  2936     0405  00D8               	movwf	scurve5_q15@s^(0+128)
  2937     0406                     l1047:
  2938                           
  2939                           ;main.c: 86:     if (s < 0) s = 0;
  2940     0406  30D8               	movlw	low scurve5_q15@s
  2941     0407  0086               	movwf	6
  2942     0408  3000               	movlw	high scurve5_q15@s
  2943     0409  0087               	movwf	7
  2944     040A  3F47               	moviw [7]fsr1
  2945     040B  00A0               	movwf	??_scurve5_q15^(0+128)
  2946     040C  1FA0               	btfss	??_scurve5_q15^(0+128),7
  2947     040D  2C0F               	goto	u681
  2948     040E  2C10               	goto	u680
  2949     040F                     u681:
  2950     040F  2C1B               	goto	l1051
  2951     0410                     u680:
  2952     0410                     l1049:
  2953     0410  30D8               	movlw	low scurve5_q15@s
  2954     0411  0086               	movwf	6
  2955     0412  3000               	movlw	high scurve5_q15@s
  2956     0413  0087               	movwf	7
  2957     0414  3008               	movlw	8
  2958     0415  0021               	movlb	1	; select bank1
  2959     0416  00A0               	movwf	??_scurve5_q15^(0+128)
  2960     0417  3000               	movlw	0
  2961     0418                     u690:
  2962     0418  001E               	movwi fsr1++
  2963     0419  0BA0               	decfsz	??_scurve5_q15^(0+128),f
  2964     041A  2C18               	goto	u690
  2965     041B                     l1051:
  2966                           
  2967                           ;main.c: 87:     if (s > 32768u) s = 32768u;
  2968     041B  0021               	movlb	1	; select bank1
  2969     041C  1BDF               	btfsc	(scurve5_q15@s+7)^(0+128),7
  2970     041D  2C37               	goto	u701
  2971     041E  085F               	movf	(scurve5_q15@s+7)^(0+128),w
  2972     041F  1D03               	btfss	3,2
  2973     0420  2C38               	goto	u700
  2974     0421  085E               	movf	(scurve5_q15@s+6)^(0+128),w
  2975     0422  1D03               	btfss	3,2
  2976     0423  2C38               	goto	u700
  2977     0424  085D               	movf	(scurve5_q15@s+5)^(0+128),w
  2978     0425  1D03               	btfss	3,2
  2979     0426  2C38               	goto	u700
  2980     0427  085C               	movf	(scurve5_q15@s+4)^(0+128),w
  2981     0428  1D03               	btfss	3,2
  2982     0429  2C38               	goto	u700
  2983     042A  085B               	movf	(scurve5_q15@s+3)^(0+128),w
  2984     042B  1D03               	btfss	3,2
  2985     042C  2C38               	goto	u700
  2986     042D  085A               	movf	(scurve5_q15@s+2)^(0+128),w
  2987     042E  1D03               	btfss	3,2
  2988     042F  2C38               	goto	u700
  2989     0430  3001               	movlw	1
  2990     0431  0258               	subwf	scurve5_q15@s^(0+128),w
  2991     0432  3080               	movlw	128
  2992     0433  3B59               	subwfb	(scurve5_q15@s+1)^(0+128),w
  2993     0434  1C03               	btfss	3,0
  2994     0435  2C37               	goto	u701
  2995     0436  2C38               	goto	u700
  2996     0437                     u701:
  2997     0437  2C49               	goto	l84
  2998     0438                     u700:
  2999     0438                     l1053:
  3000     0438  3000               	movlw	0
  3001     0439  0021               	movlb	1	; select bank1
  3002     043A  00DF               	movwf	(scurve5_q15@s+7)^(0+128)
  3003     043B  3000               	movlw	0
  3004     043C  00DE               	movwf	(scurve5_q15@s+6)^(0+128)
  3005     043D  3000               	movlw	0
  3006     043E  00DD               	movwf	(scurve5_q15@s+5)^(0+128)
  3007     043F  3000               	movlw	0
  3008     0440  00DC               	movwf	(scurve5_q15@s+4)^(0+128)
  3009     0441  3000               	movlw	0
  3010     0442  00DB               	movwf	(scurve5_q15@s+3)^(0+128)
  3011     0443  3000               	movlw	0
  3012     0444  00DA               	movwf	(scurve5_q15@s+2)^(0+128)
  3013     0445  3080               	movlw	128
  3014     0446  00D9               	movwf	(scurve5_q15@s+1)^(0+128)
  3015     0447  3000               	movlw	0
  3016     0448  00D8               	movwf	scurve5_q15@s^(0+128)
  3017     0449                     l84:
  3018                           
  3019                           ;main.c: 88:     return (uint32_t)s;
  3020     0449  0021               	movlb	1	; select bank1
  3021     044A  085B               	movf	(scurve5_q15@s+3)^(0+128),w
  3022     044B  0020               	movlb	0	; select bank0
  3023     044C  00DC               	movwf	?_scurve5_q15+3
  3024     044D  0021               	movlb	1	; select bank1
  3025     044E  085A               	movf	(scurve5_q15@s+2)^(0+128),w
  3026     044F  0020               	movlb	0	; select bank0
  3027     0450  00DB               	movwf	?_scurve5_q15+2
  3028     0451  0021               	movlb	1	; select bank1
  3029     0452  0859               	movf	(scurve5_q15@s+1)^(0+128),w
  3030     0453  0020               	movlb	0	; select bank0
  3031     0454  00DA               	movwf	?_scurve5_q15+1
  3032     0455  0021               	movlb	1	; select bank1
  3033     0456  0858               	movf	scurve5_q15@s^(0+128),w
  3034     0457  0020               	movlb	0	; select bank0
  3035     0458  00D9               	movwf	?_scurve5_q15
  3036     0459                     l85:
  3037     0459  0008               	return
  3038     045A                     __end_of_scurve5_q15:
  3039                           
  3040                           	psect	text8
  3041     0574                     __ptext8:	
  3042 ;; *************** function _q15_mul *****************
  3043 ;; Defined at:
  3044 ;;		line 69 in file "main.c"
  3045 ;; Parameters:    Size  Location     Type
  3046 ;;  a               4   25[BANK0 ] unsigned long 
  3047 ;;  b               4   29[BANK0 ] unsigned long 
  3048 ;; Auto vars:     Size  Location     Type
  3049 ;;		None
  3050 ;; Return value:  Size  Location     Type
  3051 ;;                  4   25[BANK0 ] unsigned long 
  3052 ;; Registers used:
  3053 ;;		wreg, fsr1l, fsr1h, status,2, status,0, pclath, cstack
  3054 ;; Tracked objects:
  3055 ;;		On entry : 0/0
  3056 ;;		On exit  : 0/0
  3057 ;;		Unchanged: 0/0
  3058 ;; Data sizes:     COMMON   BANK0   BANK1   BANK2   BANK3   BANK4   BANK5   BANK6   BANK7   BANK8   BANK9  BANK10  BANK1
      +1  BANK12  BANK13  BANK14  BANK15  BANK16  BANK17  BANK18  BANK19  BANK20  BANK21  BANK22  BANK23  BANK24  BANK25
  3059 ;;      Params:         0       8       0       0       0       0       0       0       0       0       0       0       
      +0       0       0       0       0       0       0       0       0       0       0       0       0       0       0
  3060 ;;      Locals:         0       0       0       0       0       0       0       0       0       0       0       0       
      +0       0       0       0       0       0       0       0       0       0       0       0       0       0       0
  3061 ;;      Temps:          0      24       0       0       0       0       0       0       0       0       0       0       
      +0       0       0       0       0       0       0       0       0       0       0       0       0       0       0
  3062 ;;      Totals:         0      32       0       0       0       0       0       0       0       0       0       0       
      +0       0       0       0       0       0       0       0       0       0       0       0       0       0       0
  3063 ;;Total ram usage:       32 bytes
  3064 ;; Hardware stack levels used: 1
  3065 ;; Hardware stack levels required when called: 4
  3066 ;; This function calls:
  3067 ;;		___omul
  3068 ;; This function is called by:
  3069 ;;		_scurve5_q15
  3070 ;; This function uses a non-reentrant model
  3071 ;;
  3072                           
  3073     0574                     _q15_mul:	
  3074                           ;psect for function _q15_mul
  3075                           
  3076     0574                     l1009:	
  3077                           ;incstack = 0
  3078                           ; Regs used in _q15_mul: [wreg+fsr1l+fsr1h+status,2+status,0+pclath+cstack]
  3079                           
  3080                           
  3081                           ;main.c: 69: static __attribute__((inline)) uint32_t q15_mul(uint32_t a, uint32_t b);mai
      +                          n.c: 70: {;main.c: 71:     return (uint32_t)(((uint64_t)a * (uint64_t)b + (1u << 14)) >>
      +                           15);
  3082     0574  3000               	movlw	0
  3083     0575  0020               	movlb	0	; select bank0
  3084     0576  00C1               	movwf	??_q15_mul
  3085     0577  3040               	movlw	64
  3086     0578  00C2               	movwf	??_q15_mul+1
  3087     0579  3000               	movlw	0
  3088     057A  00C3               	movwf	??_q15_mul+2
  3089     057B  3000               	movlw	0
  3090     057C  00C4               	movwf	??_q15_mul+3
  3091     057D  3000               	movlw	0
  3092     057E  00C5               	movwf	??_q15_mul+4
  3093     057F  3000               	movlw	0
  3094     0580  00C6               	movwf	??_q15_mul+5
  3095     0581  3000               	movlw	0
  3096     0582  00C7               	movwf	??_q15_mul+6
  3097     0583  3000               	movlw	0
  3098     0584  00C8               	movwf	??_q15_mul+7
  3099     0585  0839               	movf	q15_mul@a,w
  3100     0586  00C9               	movwf	??_q15_mul+8
  3101     0587  083A               	movf	q15_mul@a+1,w
  3102     0588  00CA               	movwf	??_q15_mul+9
  3103     0589  083B               	movf	q15_mul@a+2,w
  3104     058A  00CB               	movwf	??_q15_mul+10
  3105     058B  083C               	movf	q15_mul@a+3,w
  3106     058C  00CC               	movwf	??_q15_mul+11
  3107     058D  01CD               	clrf	??_q15_mul+12
  3108     058E  01CE               	clrf	??_q15_mul+13
  3109     058F  01CF               	clrf	??_q15_mul+14
  3110     0590  01D0               	clrf	??_q15_mul+15
  3111     0591  0850               	movf	??_q15_mul+15,w
  3112     0592  00A7               	movwf	___omul@multiplier+7
  3113     0593  084F               	movf	??_q15_mul+14,w
  3114     0594  00A6               	movwf	___omul@multiplier+6
  3115     0595  084E               	movf	??_q15_mul+13,w
  3116     0596  00A5               	movwf	___omul@multiplier+5
  3117     0597  084D               	movf	??_q15_mul+12,w
  3118     0598  00A4               	movwf	___omul@multiplier+4
  3119     0599  084C               	movf	??_q15_mul+11,w
  3120     059A  00A3               	movwf	___omul@multiplier+3
  3121     059B  084B               	movf	??_q15_mul+10,w
  3122     059C  00A2               	movwf	___omul@multiplier+2
  3123     059D  084A               	movf	??_q15_mul+9,w
  3124     059E  00A1               	movwf	___omul@multiplier+1
  3125     059F  0849               	movf	??_q15_mul+8,w
  3126     05A0  00A0               	movwf	___omul@multiplier
  3127     05A1  083D               	movf	q15_mul@b,w
  3128     05A2  00D1               	movwf	??_q15_mul+16
  3129     05A3  083E               	movf	q15_mul@b+1,w
  3130     05A4  00D2               	movwf	??_q15_mul+17
  3131     05A5  083F               	movf	q15_mul@b+2,w
  3132     05A6  00D3               	movwf	??_q15_mul+18
  3133     05A7  0840               	movf	q15_mul@b+3,w
  3134     05A8  00D4               	movwf	??_q15_mul+19
  3135     05A9  01D5               	clrf	??_q15_mul+20
  3136     05AA  01D6               	clrf	??_q15_mul+21
  3137     05AB  01D7               	clrf	??_q15_mul+22
  3138     05AC  01D8               	clrf	??_q15_mul+23
  3139     05AD  0858               	movf	??_q15_mul+23,w
  3140     05AE  00AF               	movwf	___omul@multiplicand+7
  3141     05AF  0857               	movf	??_q15_mul+22,w
  3142     05B0  00AE               	movwf	___omul@multiplicand+6
  3143     05B1  0856               	movf	??_q15_mul+21,w
  3144     05B2  00AD               	movwf	___omul@multiplicand+5
  3145     05B3  0855               	movf	??_q15_mul+20,w
  3146     05B4  00AC               	movwf	___omul@multiplicand+4
  3147     05B5  0854               	movf	??_q15_mul+19,w
  3148     05B6  00AB               	movwf	___omul@multiplicand+3
  3149     05B7  0853               	movf	??_q15_mul+18,w
  3150     05B8  00AA               	movwf	___omul@multiplicand+2
  3151     05B9  0852               	movf	??_q15_mul+17,w
  3152     05BA  00A9               	movwf	___omul@multiplicand+1
  3153     05BB  0851               	movf	??_q15_mul+16,w
  3154     05BC  00A8               	movwf	___omul@multiplicand
  3155     05BD  3186  2646  3185   	fcall	___omul
  3156     05C0  0020               	movlb	0	; select bank0
  3157     05C1  3020               	movlw	low ?___omul
  3158     05C2  0086               	movwf	6
  3159     05C3  3000               	movlw	high ?___omul
  3160     05C4  0087               	movwf	7
  3161     05C5  3F40               	moviw [0]fsr1
  3162     05C6  07C1               	addwf	??_q15_mul,f
  3163     05C7  3F41               	moviw [1]fsr1
  3164     05C8  3DC2               	addwfc	??_q15_mul+1,f
  3165     05C9  3F42               	moviw [2]fsr1
  3166     05CA  3DC3               	addwfc	??_q15_mul+2,f
  3167     05CB  3F43               	moviw [3]fsr1
  3168     05CC  3DC4               	addwfc	??_q15_mul+3,f
  3169     05CD  3F44               	moviw [4]fsr1
  3170     05CE  3DC5               	addwfc	??_q15_mul+4,f
  3171     05CF  3F45               	moviw [5]fsr1
  3172     05D0  3DC6               	addwfc	??_q15_mul+5,f
  3173     05D1  3F46               	moviw [6]fsr1
  3174     05D2  3DC7               	addwfc	??_q15_mul+6,f
  3175     05D3  3F47               	moviw [7]fsr1
  3176     05D4  3DC8               	addwfc	??_q15_mul+7,f
  3177     05D5  300F               	movlw	15
  3178     05D6                     u625:
  3179     05D6  0020               	movlb	0	; select bank0
  3180     05D7  36C8               	lsrf	??_q15_mul+7,f
  3181     05D8  0CC7               	rrf	??_q15_mul+6,f
  3182     05D9  0CC6               	rrf	??_q15_mul+5,f
  3183     05DA  0CC5               	rrf	??_q15_mul+4,f
  3184     05DB  0CC4               	rrf	??_q15_mul+3,f
  3185     05DC  0CC3               	rrf	??_q15_mul+2,f
  3186     05DD  0CC2               	rrf	??_q15_mul+1,f
  3187     05DE  0CC1               	rrf	??_q15_mul,f
  3188     05DF                     u620:
  3189     05DF  0B89               	decfsz	9,f
  3190     05E0  2DD6               	goto	u625
  3191     05E1  0020               	movlb	0	; select bank0
  3192     05E2  0844               	movf	??_q15_mul+3,w
  3193     05E3  00BC               	movwf	?_q15_mul+3
  3194     05E4  0843               	movf	??_q15_mul+2,w
  3195     05E5  00BB               	movwf	?_q15_mul+2
  3196     05E6  0842               	movf	??_q15_mul+1,w
  3197     05E7  00BA               	movwf	?_q15_mul+1
  3198     05E8  0841               	movf	??_q15_mul,w
  3199     05E9  00B9               	movwf	?_q15_mul
  3200     05EA                     l80:
  3201     05EA  0008               	return
  3202     05EB                     __end_of_q15_mul:
  3203                           
  3204                           	psect	text9
  3205     0646                     __ptext9:	
  3206 ;; *************** function ___omul *****************
  3207 ;; Defined at:
  3208 ;;		line 91 in file "C:\Program Files\Microchip\xc8\v2.46\pic\sources\c99\common\Umul64.c"
  3209 ;; Parameters:    Size  Location     Type
  3210 ;;  multiplier      8    0[BANK0 ] unsigned long long 
  3211 ;;  multiplicand    8    8[BANK0 ] unsigned long long 
  3212 ;; Auto vars:     Size  Location     Type
  3213 ;;  product         8   17[BANK0 ] unsigned long long 
  3214 ;; Return value:  Size  Location     Type
  3215 ;;                  8    0[BANK0 ] unsigned long long 
  3216 ;; Registers used:
  3217 ;;		wreg, fsr1l, fsr1h, status,2, status,0
  3218 ;; Tracked objects:
  3219 ;;		On entry : 0/0
  3220 ;;		On exit  : 0/0
  3221 ;;		Unchanged: 0/0
  3222 ;; Data sizes:     COMMON   BANK0   BANK1   BANK2   BANK3   BANK4   BANK5   BANK6   BANK7   BANK8   BANK9  BANK10  BANK1
      +1  BANK12  BANK13  BANK14  BANK15  BANK16  BANK17  BANK18  BANK19  BANK20  BANK21  BANK22  BANK23  BANK24  BANK25
  3223 ;;      Params:         0      16       0       0       0       0       0       0       0       0       0       0       
      +0       0       0       0       0       0       0       0       0       0       0       0       0       0       0
  3224 ;;      Locals:         0       8       0       0       0       0       0       0       0       0       0       0       
      +0       0       0       0       0       0       0       0       0       0       0       0       0       0       0
  3225 ;;      Temps:          0       1       0       0       0       0       0       0       0       0       0       0       
      +0       0       0       0       0       0       0       0       0       0       0       0       0       0       0
  3226 ;;      Totals:         0      25       0       0       0       0       0       0       0       0       0       0       
      +0       0       0       0       0       0       0       0       0       0       0       0       0       0       0
  3227 ;;Total ram usage:       25 bytes
  3228 ;; Hardware stack levels used: 1
  3229 ;; Hardware stack levels required when called: 3
  3230 ;; This function calls:
  3231 ;;		Nothing
  3232 ;; This function is called by:
  3233 ;;		_q15_mul
  3234 ;;		_scurve5_q15
  3235 ;;		_servo_sweep_deg_scurve
  3236 ;; This function uses a non-reentrant model
  3237 ;;
  3238                           
  3239     0646                     ___omul:	
  3240                           ;psect for function ___omul
  3241                           
  3242     0646                     l975:	
  3243                           ;incstack = 0
  3244                           ; Regs used in ___omul: [wreg+fsr1l+fsr1h+status,2+status,0]
  3245                           
  3246     0646  3031               	movlw	low ___omul@product
  3247     0647  0086               	movwf	6
  3248     0648  3000               	movlw	high ___omul@product
  3249     0649  0087               	movwf	7
  3250     064A  3008               	movlw	8
  3251     064B  0020               	movlb	0	; select bank0
  3252     064C  00B0               	movwf	??___omul
  3253     064D  3000               	movlw	0
  3254     064E                     u520:
  3255     064E  001E               	movwi fsr1++
  3256     064F  0BB0               	decfsz	??___omul,f
  3257     0650  2E4E               	goto	u520
  3258     0651                     l977:
  3259     0651  1C20               	btfss	___omul@multiplier,0
  3260     0652  2E54               	goto	u531
  3261     0653  2E55               	goto	u530
  3262     0654                     u531:
  3263     0654  2E65               	goto	l981
  3264     0655                     u530:
  3265     0655                     l979:
  3266     0655  0828               	movf	___omul@multiplicand,w
  3267     0656  07B1               	addwf	___omul@product,f
  3268     0657  0829               	movf	___omul@multiplicand+1,w
  3269     0658  3DB2               	addwfc	___omul@product+1,f
  3270     0659  082A               	movf	___omul@multiplicand+2,w
  3271     065A  3DB3               	addwfc	___omul@product+2,f
  3272     065B  082B               	movf	___omul@multiplicand+3,w
  3273     065C  3DB4               	addwfc	___omul@product+3,f
  3274     065D  082C               	movf	___omul@multiplicand+4,w
  3275     065E  3DB5               	addwfc	___omul@product+4,f
  3276     065F  082D               	movf	___omul@multiplicand+5,w
  3277     0660  3DB6               	addwfc	___omul@product+5,f
  3278     0661  082E               	movf	___omul@multiplicand+6,w
  3279     0662  3DB7               	addwfc	___omul@product+6,f
  3280     0663  082F               	movf	___omul@multiplicand+7,w
  3281     0664  3DB8               	addwfc	___omul@product+7,f
  3282     0665                     l981:
  3283     0665  35A8               	lslf	___omul@multiplicand,f
  3284     0666  0DA9               	rlf	___omul@multiplicand+1,f
  3285     0667  0DAA               	rlf	___omul@multiplicand+2,f
  3286     0668  0DAB               	rlf	___omul@multiplicand+3,f
  3287     0669  0DAC               	rlf	___omul@multiplicand+4,f
  3288     066A  0DAD               	rlf	___omul@multiplicand+5,f
  3289     066B  0DAE               	rlf	___omul@multiplicand+6,f
  3290     066C  0DAF               	rlf	___omul@multiplicand+7,f
  3291     066D                     l983:
  3292     066D  36A7               	lsrf	___omul@multiplier+7,f
  3293     066E  0CA6               	rrf	___omul@multiplier+6,f
  3294     066F  0CA5               	rrf	___omul@multiplier+5,f
  3295     0670  0CA4               	rrf	___omul@multiplier+4,f
  3296     0671  0CA3               	rrf	___omul@multiplier+3,f
  3297     0672  0CA2               	rrf	___omul@multiplier+2,f
  3298     0673  0CA1               	rrf	___omul@multiplier+1,f
  3299     0674  0CA0               	rrf	___omul@multiplier,f
  3300     0675  0820               	movf	___omul@multiplier,w
  3301     0676  0421               	iorwf	___omul@multiplier+1,w
  3302     0677  0422               	iorwf	___omul@multiplier+2,w
  3303     0678  0423               	iorwf	___omul@multiplier+3,w
  3304     0679  0424               	iorwf	___omul@multiplier+4,w
  3305     067A  0425               	iorwf	___omul@multiplier+5,w
  3306     067B  0426               	iorwf	___omul@multiplier+6,w
  3307     067C  0427               	iorwf	___omul@multiplier+7,w
  3308     067D  1D03               	skipz
  3309     067E  2E80               	goto	u541
  3310     067F  2E81               	goto	u540
  3311     0680                     u541:
  3312     0680  2E51               	goto	l977
  3313     0681                     u540:
  3314     0681                     l238:
  3315     0681  0831               	movf	___omul@product,w
  3316     0682  00A0               	movwf	?___omul
  3317     0683  0832               	movf	___omul@product+1,w
  3318     0684  00A1               	movwf	?___omul+1
  3319     0685  0833               	movf	___omul@product+2,w
  3320     0686  00A2               	movwf	?___omul+2
  3321     0687  0834               	movf	___omul@product+3,w
  3322     0688  00A3               	movwf	?___omul+3
  3323     0689  0835               	movf	___omul@product+4,w
  3324     068A  00A4               	movwf	?___omul+4
  3325     068B  0836               	movf	___omul@product+5,w
  3326     068C  00A5               	movwf	?___omul+5
  3327     068D  0837               	movf	___omul@product+6,w
  3328     068E  00A6               	movwf	?___omul+6
  3329     068F  0838               	movf	___omul@product+7,w
  3330     0690  00A7               	movwf	?___omul+7
  3331     0691                     l239:
  3332     0691  0008               	return
  3333     0692                     __end_of___omul:
  3334                           
  3335                           	psect	text10
  3336     07C9                     __ptext10:	
  3337 ;; *************** function _delay_ms *****************
  3338 ;; Defined at:
  3339 ;;		line 60 in file "main.c"
  3340 ;; Parameters:    Size  Location     Type
  3341 ;;  ms              2    0[BANK0 ] unsigned short 
  3342 ;; Auto vars:     Size  Location     Type
  3343 ;;		None
  3344 ;; Return value:  Size  Location     Type
  3345 ;;                  1    wreg      void 
  3346 ;; Registers used:
  3347 ;;		wreg, status,2, status,0
  3348 ;; Tracked objects:
  3349 ;;		On entry : 0/0
  3350 ;;		On exit  : 0/0
  3351 ;;		Unchanged: 0/0
  3352 ;; Data sizes:     COMMON   BANK0   BANK1   BANK2   BANK3   BANK4   BANK5   BANK6   BANK7   BANK8   BANK9  BANK10  BANK1
      +1  BANK12  BANK13  BANK14  BANK15  BANK16  BANK17  BANK18  BANK19  BANK20  BANK21  BANK22  BANK23  BANK24  BANK25
  3353 ;;      Params:         0       2       0       0       0       0       0       0       0       0       0       0       
      +0       0       0       0       0       0       0       0       0       0       0       0       0       0       0
  3354 ;;      Locals:         0       0       0       0       0       0       0       0       0       0       0       0       
      +0       0       0       0       0       0       0       0       0       0       0       0       0       0       0
  3355 ;;      Temps:          0       1       0       0       0       0       0       0       0       0       0       0       
      +0       0       0       0       0       0       0       0       0       0       0       0       0       0       0
  3356 ;;      Totals:         0       3       0       0       0       0       0       0       0       0       0       0       
      +0       0       0       0       0       0       0       0       0       0       0       0       0       0       0
  3357 ;;Total ram usage:        3 bytes
  3358 ;; Hardware stack levels used: 1
  3359 ;; Hardware stack levels required when called: 3
  3360 ;; This function calls:
  3361 ;;		Nothing
  3362 ;; This function is called by:
  3363 ;;		_servo_sweep_deg_scurve
  3364 ;; This function uses a non-reentrant model
  3365 ;;
  3366                           
  3367     07C9                     _delay_ms:	
  3368                           ;psect for function _delay_ms
  3369                           
  3370     07C9                     l1039:	
  3371                           ;incstack = 0
  3372                           ; Regs used in _delay_ms: [wreg+status,2+status,0]
  3373                           
  3374                           
  3375                           ;main.c: 60: static __attribute__((inline)) void delay_ms(uint16_t ms);main.c: 61: {;mai
      +                          n.c: 62:     while (ms--)
  3376     07C9  2FD3               	goto	l1043
  3377     07CA                     l1041:
  3378                           
  3379                           ;main.c: 63:     {;main.c: 64:         _delay((unsigned long)((1)*(32000000/4000.0)));
  3380     07CA  300B               	movlw	11
  3381     07CB  0020               	movlb	0	; select bank0
  3382     07CC  00A2               	movwf	??_delay_ms
  3383     07CD  3062               	movlw	98
  3384     07CE                     u997:
  3385     07CE  0B89               	decfsz	9,f
  3386     07CF  2FCE               	goto	u997
  3387     07D0  0BA2               	decfsz	??_delay_ms,f
  3388     07D1  2FCE               	goto	u997
  3389     07D2  0000               	nop
  3390     07D3                     l1043:
  3391                           
  3392                           ;main.c: 62:     while (ms--)
  3393     07D3  3001               	movlw	1
  3394     07D4  0020               	movlb	0	; select bank0
  3395     07D5  02A0               	subwf	delay_ms@ms,f
  3396     07D6  3000               	movlw	0
  3397     07D7  3BA1               	subwfb	delay_ms@ms+1,f
  3398     07D8  0A20               	incf	delay_ms@ms,w
  3399     07D9  1D03               	skipz
  3400     07DA  2FDF               	goto	u671
  3401     07DB  0A21               	incf	delay_ms@ms+1,w
  3402     07DC  1D03               	btfss	3,2
  3403     07DD  2FDF               	goto	u671
  3404     07DE  2FE0               	goto	u670
  3405     07DF                     u671:
  3406     07DF  2FCA               	goto	l1041
  3407     07E0                     u670:
  3408     07E0                     l77:
  3409     07E0  0008               	return
  3410     07E1                     __end_of_delay_ms:
  3411                           
  3412                           	psect	text11
  3413     04F0                     __ptext11:	
  3414 ;; *************** function ___lodiv *****************
  3415 ;; Defined at:
  3416 ;;		line 7 in file "C:\Program Files\Microchip\xc8\v2.46\pic\sources\c99\common\lodiv.c"
  3417 ;; Parameters:    Size  Location     Type
  3418 ;;  divisor         8    0[BANK0 ] unsigned long long 
  3419 ;;  dividend        8    8[BANK0 ] unsigned long long 
  3420 ;; Auto vars:     Size  Location     Type
  3421 ;;  quotient        8   17[BANK0 ] unsigned long long 
  3422 ;;  counter         1   25[BANK0 ] unsigned char 
  3423 ;; Return value:  Size  Location     Type
  3424 ;;                  8    0[BANK0 ] unsigned long long 
  3425 ;; Registers used:
  3426 ;;		wreg, fsr1l, fsr1h, status,2, status,0
  3427 ;; Tracked objects:
  3428 ;;		On entry : 0/0
  3429 ;;		On exit  : 0/0
  3430 ;;		Unchanged: 0/0
  3431 ;; Data sizes:     COMMON   BANK0   BANK1   BANK2   BANK3   BANK4   BANK5   BANK6   BANK7   BANK8   BANK9  BANK10  BANK1
      +1  BANK12  BANK13  BANK14  BANK15  BANK16  BANK17  BANK18  BANK19  BANK20  BANK21  BANK22  BANK23  BANK24  BANK25
  3432 ;;      Params:         0      16       0       0       0       0       0       0       0       0       0       0       
      +0       0       0       0       0       0       0       0       0       0       0       0       0       0       0
  3433 ;;      Locals:         0       9       0       0       0       0       0       0       0       0       0       0       
      +0       0       0       0       0       0       0       0       0       0       0       0       0       0       0
  3434 ;;      Temps:          0       1       0       0       0       0       0       0       0       0       0       0       
      +0       0       0       0       0       0       0       0       0       0       0       0       0       0       0
  3435 ;;      Totals:         0      26       0       0       0       0       0       0       0       0       0       0       
      +0       0       0       0       0       0       0       0       0       0       0       0       0       0       0
  3436 ;;Total ram usage:       26 bytes
  3437 ;; Hardware stack levels used: 1
  3438 ;; Hardware stack levels required when called: 3
  3439 ;; This function calls:
  3440 ;;		Nothing
  3441 ;; This function is called by:
  3442 ;;		_servo_sweep_deg_scurve
  3443 ;; This function uses a non-reentrant model
  3444 ;;
  3445                           
  3446     04F0                     ___lodiv:	
  3447                           ;psect for function ___lodiv
  3448                           
  3449     04F0                     l1097:	
  3450                           ;incstack = 0
  3451                           ; Regs used in ___lodiv: [wreg+fsr1l+fsr1h+status,2+status,0]
  3452                           
  3453     04F0  3031               	movlw	low ___lodiv@quotient
  3454     04F1  0086               	movwf	6
  3455     04F2  3000               	movlw	high ___lodiv@quotient
  3456     04F3  0087               	movwf	7
  3457     04F4  3008               	movlw	8
  3458     04F5  0020               	movlb	0	; select bank0
  3459     04F6  00B0               	movwf	??___lodiv
  3460     04F7  3000               	movlw	0
  3461     04F8                     u740:
  3462     04F8  001E               	movwi fsr1++
  3463     04F9  0BB0               	decfsz	??___lodiv,f
  3464     04FA  2CF8               	goto	u740
  3465     04FB                     l1099:
  3466     04FB  0820               	movf	___lodiv@divisor,w
  3467     04FC  0421               	iorwf	___lodiv@divisor+1,w
  3468     04FD  0422               	iorwf	___lodiv@divisor+2,w
  3469     04FE  0423               	iorwf	___lodiv@divisor+3,w
  3470     04FF  0424               	iorwf	___lodiv@divisor+4,w
  3471     0500  0425               	iorwf	___lodiv@divisor+5,w
  3472     0501  0426               	iorwf	___lodiv@divisor+6,w
  3473     0502  0427               	iorwf	___lodiv@divisor+7,w
  3474     0503  1903               	skipnz
  3475     0504  2D06               	goto	u751
  3476     0505  2D07               	goto	u750
  3477     0506                     u751:
  3478     0506  2D63               	goto	l452
  3479     0507                     u750:
  3480     0507                     l1101:
  3481     0507  01B9               	clrf	___lodiv@counter
  3482     0508  0AB9               	incf	___lodiv@counter,f
  3483     0509  2D16               	goto	l1107
  3484     050A                     l1103:
  3485     050A  35A0               	lslf	___lodiv@divisor,f
  3486     050B  0DA1               	rlf	___lodiv@divisor+1,f
  3487     050C  0DA2               	rlf	___lodiv@divisor+2,f
  3488     050D  0DA3               	rlf	___lodiv@divisor+3,f
  3489     050E  0DA4               	rlf	___lodiv@divisor+4,f
  3490     050F  0DA5               	rlf	___lodiv@divisor+5,f
  3491     0510  0DA6               	rlf	___lodiv@divisor+6,f
  3492     0511  0DA7               	rlf	___lodiv@divisor+7,f
  3493     0512                     l1105:
  3494     0512  3001               	movlw	1
  3495     0513  00B0               	movwf	??___lodiv
  3496     0514  0830               	movf	??___lodiv,w
  3497     0515  07B9               	addwf	___lodiv@counter,f
  3498     0516                     l1107:
  3499     0516  1FA7               	btfss	___lodiv@divisor+7,7
  3500     0517  2D19               	goto	u761
  3501     0518  2D1A               	goto	u760
  3502     0519                     u761:
  3503     0519  2D0A               	goto	l1103
  3504     051A                     u760:
  3505     051A                     l1109:
  3506     051A  35B1               	lslf	___lodiv@quotient,f
  3507     051B  0DB2               	rlf	___lodiv@quotient+1,f
  3508     051C  0DB3               	rlf	___lodiv@quotient+2,f
  3509     051D  0DB4               	rlf	___lodiv@quotient+3,f
  3510     051E  0DB5               	rlf	___lodiv@quotient+4,f
  3511     051F  0DB6               	rlf	___lodiv@quotient+5,f
  3512     0520  0DB7               	rlf	___lodiv@quotient+6,f
  3513     0521  0DB8               	rlf	___lodiv@quotient+7,f
  3514     0522                     l1111:
  3515     0522  0827               	movf	___lodiv@divisor+7,w
  3516     0523  022F               	subwf	___lodiv@dividend+7,w
  3517     0524  1D03               	skipz
  3518     0525  2D40               	goto	u775
  3519     0526  0826               	movf	___lodiv@divisor+6,w
  3520     0527  022E               	subwf	___lodiv@dividend+6,w
  3521     0528  1D03               	skipz
  3522     0529  2D40               	goto	u775
  3523     052A  0825               	movf	___lodiv@divisor+5,w
  3524     052B  022D               	subwf	___lodiv@dividend+5,w
  3525     052C  1D03               	skipz
  3526     052D  2D40               	goto	u775
  3527     052E  0824               	movf	___lodiv@divisor+4,w
  3528     052F  022C               	subwf	___lodiv@dividend+4,w
  3529     0530  1D03               	skipz
  3530     0531  2D40               	goto	u775
  3531     0532  0823               	movf	___lodiv@divisor+3,w
  3532     0533  022B               	subwf	___lodiv@dividend+3,w
  3533     0534  1D03               	skipz
  3534     0535  2D40               	goto	u775
  3535     0536  0822               	movf	___lodiv@divisor+2,w
  3536     0537  022A               	subwf	___lodiv@dividend+2,w
  3537     0538  1D03               	skipz
  3538     0539  2D40               	goto	u775
  3539     053A  0821               	movf	___lodiv@divisor+1,w
  3540     053B  0229               	subwf	___lodiv@dividend+1,w
  3541     053C  1D03               	skipz
  3542     053D  2D40               	goto	u775
  3543     053E  0820               	movf	___lodiv@divisor,w
  3544     053F  0228               	subwf	___lodiv@dividend,w
  3545     0540                     u775:
  3546     0540  1C03               	skipc
  3547     0541  2D43               	goto	u771
  3548     0542  2D44               	goto	u770
  3549     0543                     u771:
  3550     0543  2D55               	goto	l1117
  3551     0544                     u770:
  3552     0544                     l1113:
  3553     0544  0820               	movf	___lodiv@divisor,w
  3554     0545  02A8               	subwf	___lodiv@dividend,f
  3555     0546  0821               	movf	___lodiv@divisor+1,w
  3556     0547  3BA9               	subwfb	___lodiv@dividend+1,f
  3557     0548  0822               	movf	___lodiv@divisor+2,w
  3558     0549  3BAA               	subwfb	___lodiv@dividend+2,f
  3559     054A  0823               	movf	___lodiv@divisor+3,w
  3560     054B  3BAB               	subwfb	___lodiv@dividend+3,f
  3561     054C  0824               	movf	___lodiv@divisor+4,w
  3562     054D  3BAC               	subwfb	___lodiv@dividend+4,f
  3563     054E  0825               	movf	___lodiv@divisor+5,w
  3564     054F  3BAD               	subwfb	___lodiv@dividend+5,f
  3565     0550  0826               	movf	___lodiv@divisor+6,w
  3566     0551  3BAE               	subwfb	___lodiv@dividend+6,f
  3567     0552  0827               	movf	___lodiv@divisor+7,w
  3568     0553  3BAF               	subwfb	___lodiv@dividend+7,f
  3569     0554                     l1115:
  3570     0554  1431               	bsf	___lodiv@quotient,0
  3571     0555                     l1117:
  3572     0555  36A7               	lsrf	___lodiv@divisor+7,f
  3573     0556  0CA6               	rrf	___lodiv@divisor+6,f
  3574     0557  0CA5               	rrf	___lodiv@divisor+5,f
  3575     0558  0CA4               	rrf	___lodiv@divisor+4,f
  3576     0559  0CA3               	rrf	___lodiv@divisor+3,f
  3577     055A  0CA2               	rrf	___lodiv@divisor+2,f
  3578     055B  0CA1               	rrf	___lodiv@divisor+1,f
  3579     055C  0CA0               	rrf	___lodiv@divisor,f
  3580     055D  3001               	movlw	1
  3581     055E  02B9               	subwf	___lodiv@counter,f
  3582     055F  1D03               	btfss	3,2
  3583     0560  2D62               	goto	u781
  3584     0561  2D63               	goto	u780
  3585     0562                     u781:
  3586     0562  2D1A               	goto	l1109
  3587     0563                     u780:
  3588     0563                     l452:
  3589     0563  0831               	movf	___lodiv@quotient,w
  3590     0564  00A0               	movwf	?___lodiv
  3591     0565  0832               	movf	___lodiv@quotient+1,w
  3592     0566  00A1               	movwf	?___lodiv+1
  3593     0567  0833               	movf	___lodiv@quotient+2,w
  3594     0568  00A2               	movwf	?___lodiv+2
  3595     0569  0834               	movf	___lodiv@quotient+3,w
  3596     056A  00A3               	movwf	?___lodiv+3
  3597     056B  0835               	movf	___lodiv@quotient+4,w
  3598     056C  00A4               	movwf	?___lodiv+4
  3599     056D  0836               	movf	___lodiv@quotient+5,w
  3600     056E  00A5               	movwf	?___lodiv+5
  3601     056F  0837               	movf	___lodiv@quotient+6,w
  3602     0570  00A6               	movwf	?___lodiv+6
  3603     0571  0838               	movf	___lodiv@quotient+7,w
  3604     0572  00A7               	movwf	?___lodiv+7
  3605     0573                     l459:
  3606     0573  0008               	return
  3607     0574                     __end_of___lodiv:
  3608                           
  3609                           	psect	text12
  3610     07E1                     __ptext12:	
  3611 ;; *************** function _initMain *****************
  3612 ;; Defined at:
  3613 ;;		line 244 in file "main.c"
  3614 ;; Parameters:    Size  Location     Type
  3615 ;;		None
  3616 ;; Auto vars:     Size  Location     Type
  3617 ;;		None
  3618 ;; Return value:  Size  Location     Type
  3619 ;;                  1    wreg      void 
  3620 ;; Registers used:
  3621 ;;		wreg, status,2, status,0, pclath, cstack
  3622 ;; Tracked objects:
  3623 ;;		On entry : 0/0
  3624 ;;		On exit  : 0/0
  3625 ;;		Unchanged: 0/0
  3626 ;; Data sizes:     COMMON   BANK0   BANK1   BANK2   BANK3   BANK4   BANK5   BANK6   BANK7   BANK8   BANK9  BANK10  BANK1
      +1  BANK12  BANK13  BANK14  BANK15  BANK16  BANK17  BANK18  BANK19  BANK20  BANK21  BANK22  BANK23  BANK24  BANK25
  3627 ;;      Params:         0       0       0       0       0       0       0       0       0       0       0       0       
      +0       0       0       0       0       0       0       0       0       0       0       0       0       0       0
  3628 ;;      Locals:         0       0       0       0       0       0       0       0       0       0       0       0       
      +0       0       0       0       0       0       0       0       0       0       0       0       0       0       0
  3629 ;;      Temps:          0       2       0       0       0       0       0       0       0       0       0       0       
      +0       0       0       0       0       0       0       0       0       0       0       0       0       0       0
  3630 ;;      Totals:         0       2       0       0       0       0       0       0       0       0       0       0       
      +0       0       0       0       0       0       0       0       0       0       0       0       0       0       0
  3631 ;;Total ram usage:        2 bytes
  3632 ;; Hardware stack levels used: 1
  3633 ;; Hardware stack levels required when called: 5
  3634 ;; This function calls:
  3635 ;;		_internal_32
  3636 ;;		_servo_init_rb
  3637 ;; This function is called by:
  3638 ;;		_main
  3639 ;; This function uses a non-reentrant model
  3640 ;;
  3641                           
  3642     07E1                     _initMain:	
  3643                           ;psect for function _initMain
  3644                           
  3645     07E1                     l1193:	
  3646                           ;incstack = 0
  3647                           ; Regs used in _initMain: [wreg+status,2+status,0+pclath+cstack]
  3648                           
  3649                           
  3650                           ;main.c: 246:     internal_32();
  3651     07E1  3187  27F7  3187   	fcall	_internal_32
  3652     07E4                     l1195:
  3653                           
  3654                           ;main.c: 247:     _delay((unsigned long)((100)*(32000000/4000.0)));
  3655     07E4  3005               	movlw	5
  3656     07E5  0020               	movlb	0	; select bank0
  3657     07E6  00A9               	movwf	??_initMain+1
  3658     07E7  300F               	movlw	15
  3659     07E8  00A8               	movwf	??_initMain
  3660     07E9  30F1               	movlw	241
  3661     07EA                     u1007:
  3662     07EA  0B89               	decfsz	9,f
  3663     07EB  2FEA               	goto	u1007
  3664     07EC  0BA8               	decfsz	??_initMain,f
  3665     07ED  2FEA               	goto	u1007
  3666     07EE  0BA9               	decfsz	??_initMain+1,f
  3667     07EF  2FEA               	goto	u1007
  3668     07F0                     l1197:
  3669                           
  3670                           ;main.c: 250:     ANSELB = 0;
  3671     07F0  0023               	movlb	3	; select bank3
  3672     07F1  018D               	clrf	13	;volatile
  3673     07F2                     l1199:
  3674                           
  3675                           ;main.c: 253:     servo_init_rb(0);
  3676     07F2  3000               	movlw	0
  3677     07F3  3186  26DA  3187   	fcall	_servo_init_rb
  3678     07F6                     l138:
  3679     07F6  0008               	return
  3680     07F7                     __end_of_initMain:
  3681                           
  3682                           	psect	text13
  3683     06DA                     __ptext13:	
  3684 ;; *************** function _servo_init_rb *****************
  3685 ;; Defined at:
  3686 ;;		line 110 in file "main.c"
  3687 ;; Parameters:    Size  Location     Type
  3688 ;;  rb_pin          1    wreg     unsigned char 
  3689 ;; Auto vars:     Size  Location     Type
  3690 ;;  rb_pin          1    7[BANK0 ] unsigned char 
  3691 ;; Return value:  Size  Location     Type
  3692 ;;                  1    wreg      void 
  3693 ;; Registers used:
  3694 ;;		wreg, status,2, status,0, pclath, cstack
  3695 ;; Tracked objects:
  3696 ;;		On entry : 0/0
  3697 ;;		On exit  : 0/0
  3698 ;;		Unchanged: 0/0
  3699 ;; Data sizes:     COMMON   BANK0   BANK1   BANK2   BANK3   BANK4   BANK5   BANK6   BANK7   BANK8   BANK9  BANK10  BANK1
      +1  BANK12  BANK13  BANK14  BANK15  BANK16  BANK17  BANK18  BANK19  BANK20  BANK21  BANK22  BANK23  BANK24  BANK25
  3700 ;;      Params:         0       0       0       0       0       0       0       0       0       0       0       0       
      +0       0       0       0       0       0       0       0       0       0       0       0       0       0       0
  3701 ;;      Locals:         0       1       0       0       0       0       0       0       0       0       0       0       
      +0       0       0       0       0       0       0       0       0       0       0       0       0       0       0
  3702 ;;      Temps:          0       1       0       0       0       0       0       0       0       0       0       0       
      +0       0       0       0       0       0       0       0       0       0       0       0       0       0       0
  3703 ;;      Totals:         0       2       0       0       0       0       0       0       0       0       0       0       
      +0       0       0       0       0       0       0       0       0       0       0       0       0       0       0
  3704 ;;Total ram usage:        2 bytes
  3705 ;; Hardware stack levels used: 1
  3706 ;; Hardware stack levels required when called: 4
  3707 ;; This function calls:
  3708 ;;		_schedule_after_us
  3709 ;; This function is called by:
  3710 ;;		_initMain
  3711 ;; This function uses a non-reentrant model
  3712 ;;
  3713                           
  3714     06DA                     _servo_init_rb:	
  3715                           ;psect for function _servo_init_rb
  3716                           
  3717                           
  3718                           ;incstack = 0
  3719                           ; Regs used in _servo_init_rb: [wreg+status,2+status,0+pclath+cstack]
  3720                           ;servo_init_rb@rb_pin stored from wreg
  3721     06DA  0020               	movlb	0	; select bank0
  3722     06DB  00A7               	movwf	servo_init_rb@rb_pin
  3723     06DC                     l1057:
  3724                           
  3725                           ;main.c: 110: void servo_init_rb(uint8_t rb_pin);main.c: 111: {;main.c: 112:     if (rb_
      +                          pin > 7) rb_pin = 0;
  3726     06DC  3008               	movlw	8
  3727     06DD  0227               	subwf	servo_init_rb@rb_pin,w
  3728     06DE  1C03               	skipc
  3729     06DF  2EE1               	goto	u711
  3730     06E0  2EE2               	goto	u710
  3731     06E1                     u711:
  3732     06E1  2EE3               	goto	l1061
  3733     06E2                     u710:
  3734     06E2                     l1059:
  3735     06E2  01A7               	clrf	servo_init_rb@rb_pin
  3736     06E3                     l1061:
  3737                           
  3738                           ;main.c: 113:     g_rb_mask = (uint8_t)(1u << rb_pin);
  3739     06E3  3001               	movlw	1
  3740     06E4  00A6               	movwf	??_servo_init_rb
  3741     06E5  0A27               	incf	servo_init_rb@rb_pin,w
  3742     06E6  2EE8               	goto	u724
  3743     06E7                     u725:
  3744     06E7  35A6               	lslf	??_servo_init_rb,f
  3745     06E8                     u724:
  3746     06E8  0B89               	decfsz	9,f
  3747     06E9  2EE7               	goto	u725
  3748     06EA  0826               	movf	??_servo_init_rb,w
  3749     06EB  00EB               	movwf	_g_rb_mask	;volatile
  3750     06EC                     l1063:
  3751                           
  3752                           ;main.c: 116:     ANSELB = 0x00;
  3753     06EC  0023               	movlb	3	; select bank3
  3754     06ED  018D               	clrf	13	;volatile
  3755                           
  3756                           ;main.c: 117:     TRISB &= (uint8_t)~g_rb_mask;
  3757     06EE  0020               	movlb	0	; select bank0
  3758     06EF  096B               	comf	_g_rb_mask,w	;volatile
  3759     06F0  00A6               	movwf	??_servo_init_rb
  3760     06F1  0826               	movf	??_servo_init_rb,w
  3761     06F2  0021               	movlb	1	; select bank1
  3762     06F3  058D               	andwf	13,f	;volatile
  3763                           
  3764                           ;main.c: 118:     LATB &= (uint8_t)~g_rb_mask;
  3765     06F4  0020               	movlb	0	; select bank0
  3766     06F5  096B               	comf	_g_rb_mask,w	;volatile
  3767     06F6  00A6               	movwf	??_servo_init_rb
  3768     06F7  0826               	movf	??_servo_init_rb,w
  3769     06F8  0022               	movlb	2	; select bank2
  3770     06F9  058D               	andwf	13,f	;volatile
  3771     06FA                     l1065:
  3772                           
  3773                           ;main.c: 123:     T1CONbits.TMR1ON = 0;
  3774     06FA  0020               	movlb	0	; select bank0
  3775     06FB  1018               	bcf	24,0	;volatile
  3776                           
  3777                           ;main.c: 124:     T1CONbits.TMR1CS = 0;
  3778     06FC  303F               	movlw	-193
  3779     06FD  0598               	andwf	24,f	;volatile
  3780                           
  3781                           ;main.c: 125:     T1CONbits.T1CKPS = 0b11;
  3782     06FE  3030               	movlw	48
  3783     06FF  0498               	iorwf	24,f	;volatile
  3784     0700                     l1067:
  3785                           
  3786                           ;main.c: 126:     T1CONbits.T1OSCEN = 0;
  3787     0700  1198               	bcf	24,3	;volatile
  3788     0701                     l1069:
  3789                           
  3790                           ;main.c: 127:     T1GCONbits.TMR1GE = 0;
  3791     0701  1399               	bcf	25,7	;volatile
  3792     0702                     l1071:
  3793                           
  3794                           ;main.c: 129:     TMR1H = 0;
  3795     0702  0197               	clrf	23	;volatile
  3796     0703                     l1073:
  3797                           
  3798                           ;main.c: 130:     TMR1L = 0;
  3799     0703  0196               	clrf	22	;volatile
  3800                           
  3801                           ;main.c: 134:     CCP1CONbits.CCP1M = 0b1010;
  3802     0704  0025               	movlb	5	; select bank5
  3803     0705  0813               	movf	19,w	;volatile
  3804     0706  39F0               	andlw	-16
  3805     0707  380A               	iorlw	10
  3806     0708  0093               	movwf	19	;volatile
  3807     0709                     l1075:
  3808                           
  3809                           ;main.c: 136:     PIR1bits.CCP1IF = 0;
  3810     0709  0020               	movlb	0	; select bank0
  3811     070A  1111               	bcf	17,2	;volatile
  3812     070B                     l1077:
  3813                           
  3814                           ;main.c: 137:     PIE1bits.CCP1IE = 1;
  3815     070B  0021               	movlb	1	; select bank1
  3816     070C  1511               	bsf	17,2	;volatile
  3817     070D                     l1079:
  3818                           
  3819                           ;main.c: 140:     g_pin_high = 1;
  3820     070D  3001               	movlw	1
  3821     070E  00FA               	movwf	_g_pin_high	;volatile
  3822     070F                     l1081:
  3823                           
  3824                           ;main.c: 141:     LATB |= g_rb_mask;
  3825     070F  0020               	movlb	0	; select bank0
  3826     0710  086B               	movf	_g_rb_mask,w	;volatile
  3827     0711  00A6               	movwf	??_servo_init_rb
  3828     0712  0826               	movf	??_servo_init_rb,w
  3829     0713  0022               	movlb	2	; select bank2
  3830     0714  048D               	iorwf	13,f	;volatile
  3831     0715                     l1083:
  3832                           
  3833                           ;main.c: 143:     schedule_after_us(g_pulse_us);
  3834     0715  0020               	movlb	0	; select bank0
  3835     0716  086A               	movf	_g_pulse_us+1,w	;volatile
  3836     0717  00A1               	movwf	schedule_after_us@delta_us+1
  3837     0718  0869               	movf	_g_pulse_us,w	;volatile
  3838     0719  00A0               	movwf	schedule_after_us@delta_us
  3839     071A  318F  27ED  3186   	fcall	_schedule_after_us
  3840     071D                     l1085:
  3841                           
  3842                           ;main.c: 146:     INTCONbits.PEIE = 1;
  3843     071D  170B               	bsf	11,6	;volatile
  3844     071E                     l1087:
  3845                           
  3846                           ;main.c: 147:     INTCONbits.GIE = 1;
  3847     071E  178B               	bsf	11,7	;volatile
  3848     071F                     l1089:
  3849                           
  3850                           ;main.c: 150:     T1CONbits.TMR1ON = 1;
  3851     071F  0020               	movlb	0	; select bank0
  3852     0720  1418               	bsf	24,0	;volatile
  3853     0721                     l97:
  3854     0721  0008               	return
  3855     0722                     __end_of_servo_init_rb:
  3856                           
  3857                           	psect	text14
  3858     0FED                     __ptext14:	
  3859 ;; *************** function _schedule_after_us *****************
  3860 ;; Defined at:
  3861 ;;		line 101 in file "main.c"
  3862 ;; Parameters:    Size  Location     Type
  3863 ;;  delta_us        2    0[BANK0 ] unsigned short 
  3864 ;; Auto vars:     Size  Location     Type
  3865 ;;  next            2    4[BANK0 ] unsigned short 
  3866 ;;  now             2    2[BANK0 ] unsigned short 
  3867 ;; Return value:  Size  Location     Type
  3868 ;;                  1    wreg      void 
  3869 ;; Registers used:
  3870 ;;		wreg, status,2, status,0
  3871 ;; Tracked objects:
  3872 ;;		On entry : 0/0
  3873 ;;		On exit  : 0/0
  3874 ;;		Unchanged: 0/0
  3875 ;; Data sizes:     COMMON   BANK0   BANK1   BANK2   BANK3   BANK4   BANK5   BANK6   BANK7   BANK8   BANK9  BANK10  BANK1
      +1  BANK12  BANK13  BANK14  BANK15  BANK16  BANK17  BANK18  BANK19  BANK20  BANK21  BANK22  BANK23  BANK24  BANK25
  3876 ;;      Params:         0       2       0       0       0       0       0       0       0       0       0       0       
      +0       0       0       0       0       0       0       0       0       0       0       0       0       0       0
  3877 ;;      Locals:         0       4       0       0       0       0       0       0       0       0       0       0       
      +0       0       0       0       0       0       0       0       0       0       0       0       0       0       0
  3878 ;;      Temps:          0       0       0       0       0       0       0       0       0       0       0       0       
      +0       0       0       0       0       0       0       0       0       0       0       0       0       0       0
  3879 ;;      Totals:         0       6       0       0       0       0       0       0       0       0       0       0       
      +0       0       0       0       0       0       0       0       0       0       0       0       0       0       0
  3880 ;;Total ram usage:        6 bytes
  3881 ;; Hardware stack levels used: 1
  3882 ;; Hardware stack levels required when called: 3
  3883 ;; This function calls:
  3884 ;;		Nothing
  3885 ;; This function is called by:
  3886 ;;		_servo_init_rb
  3887 ;; This function uses a non-reentrant model
  3888 ;;
  3889                           
  3890     0FED                     _schedule_after_us:	
  3891                           ;psect for function _schedule_after_us
  3892                           
  3893     0FED                     l1023:	
  3894                           ;incstack = 0
  3895                           ; Regs used in _schedule_after_us: [wreg+status,2+status,0]
  3896                           
  3897                           
  3898                           ;main.c: 101: static __attribute__((inline)) void schedule_after_us(uint16_t delta_us);m
      +                          ain.c: 102: {;main.c: 103:     uint16_t now = ((uint16_t)TMR1H << 8) | TMR1L;
  3899     0FED  0020               	movlb	0	; select bank0
  3900     0FEE  0817               	movf	23,w	;volatile
  3901     0FEF  00A3               	movwf	schedule_after_us@now+1
  3902     0FF0  0816               	movf	22,w	;volatile
  3903     0FF1  00A2               	movwf	schedule_after_us@now
  3904     0FF2                     l1025:
  3905                           
  3906                           ;main.c: 104:     uint16_t next = (uint16_t)(now + delta_us);
  3907     0FF2  0820               	movf	schedule_after_us@delta_us,w
  3908     0FF3  0722               	addwf	schedule_after_us@now,w
  3909     0FF4  00A4               	movwf	schedule_after_us@next
  3910     0FF5  0821               	movf	schedule_after_us@delta_us+1,w
  3911     0FF6  3D23               	addwfc	schedule_after_us@now+1,w
  3912     0FF7  00A5               	movwf	schedule_after_us@next+1
  3913     0FF8                     l1027:
  3914                           
  3915                           ;main.c: 106:     CCPR1H = (uint8_t)(next >> 8);
  3916     0FF8  0825               	movf	schedule_after_us@next+1,w
  3917     0FF9  0025               	movlb	5	; select bank5
  3918     0FFA  0092               	movwf	18	;volatile
  3919     0FFB                     l1029:
  3920                           
  3921                           ;main.c: 107:     CCPR1L = (uint8_t)(next & 0xFF);
  3922     0FFB  0020               	movlb	0	; select bank0
  3923     0FFC  0824               	movf	schedule_after_us@next,w
  3924     0FFD  0025               	movlb	5	; select bank5
  3925     0FFE  0091               	movwf	17	;volatile
  3926     0FFF                     l93:
  3927     0FFF  0008               	return
  3928     1000                     __end_of_schedule_after_us:
  3929                           
  3930                           	psect	text15
  3931     07F7                     __ptext15:	
  3932 ;; *************** function _internal_32 *****************
  3933 ;; Defined at:
  3934 ;;		line 36 in file "PIC16F1718_Internal.c"
  3935 ;; Parameters:    Size  Location     Type
  3936 ;;		None
  3937 ;; Auto vars:     Size  Location     Type
  3938 ;;		None
  3939 ;; Return value:  Size  Location     Type
  3940 ;;                  1    wreg      void 
  3941 ;; Registers used:
  3942 ;;		None
  3943 ;; Tracked objects:
  3944 ;;		On entry : 0/0
  3945 ;;		On exit  : 0/0
  3946 ;;		Unchanged: 0/0
  3947 ;; Data sizes:     COMMON   BANK0   BANK1   BANK2   BANK3   BANK4   BANK5   BANK6   BANK7   BANK8   BANK9  BANK10  BANK1
      +1  BANK12  BANK13  BANK14  BANK15  BANK16  BANK17  BANK18  BANK19  BANK20  BANK21  BANK22  BANK23  BANK24  BANK25
  3948 ;;      Params:         0       0       0       0       0       0       0       0       0       0       0       0       
      +0       0       0       0       0       0       0       0       0       0       0       0       0       0       0
  3949 ;;      Locals:         0       0       0       0       0       0       0       0       0       0       0       0       
      +0       0       0       0       0       0       0       0       0       0       0       0       0       0       0
  3950 ;;      Temps:          0       0       0       0       0       0       0       0       0       0       0       0       
      +0       0       0       0       0       0       0       0       0       0       0       0       0       0       0
  3951 ;;      Totals:         0       0       0       0       0       0       0       0       0       0       0       0       
      +0       0       0       0       0       0       0       0       0       0       0       0       0       0       0
  3952 ;;Total ram usage:        0 bytes
  3953 ;; Hardware stack levels used: 1
  3954 ;; Hardware stack levels required when called: 3
  3955 ;; This function calls:
  3956 ;;		Nothing
  3957 ;; This function is called by:
  3958 ;;		_initMain
  3959 ;; This function uses a non-reentrant model
  3960 ;;
  3961                           
  3962     07F7                     _internal_32:	
  3963                           ;psect for function _internal_32
  3964                           
  3965     07F7                     l1037:	
  3966                           ;incstack = 0
  3967                           ; Regs used in _internal_32: []
  3968                           
  3969                           
  3970                           ;PIC16F1718_Internal.c: 38:     SCS0 = 0;
  3971     07F7  0021               	movlb	1	; select bank1
  3972     07F8  1019               	bcf	25,0	;volatile
  3973                           
  3974                           ;PIC16F1718_Internal.c: 39:     SCS1 = 0;
  3975     07F9  1099               	bcf	25,1	;volatile
  3976                           
  3977                           ;PIC16F1718_Internal.c: 42:     IRCF0 = 0;
  3978     07FA  1199               	bcf	25,3	;volatile
  3979                           
  3980                           ;PIC16F1718_Internal.c: 43:     IRCF1 = 1;
  3981     07FB  1619               	bsf	25,4	;volatile
  3982                           
  3983                           ;PIC16F1718_Internal.c: 44:     IRCF2 = 1;
  3984     07FC  1699               	bsf	25,5	;volatile
  3985                           
  3986                           ;PIC16F1718_Internal.c: 45:     IRCF3 = 1;
  3987     07FD  1719               	bsf	25,6	;volatile
  3988                           
  3989                           ;PIC16F1718_Internal.c: 48:     SPLLEN = 1;
  3990     07FE  1799               	bsf	25,7	;volatile
  3991     07FF                     l17:
  3992     07FF  0008               	return
  3993     0800                     __end_of_internal_32:
  3994                           
  3995                           	psect	intentry
  3996     0004                     __pintentry:	
  3997 ;; *************** function _isr *****************
  3998 ;; Defined at:
  3999 ;;		line 256 in file "main.c"
  4000 ;; Parameters:    Size  Location     Type
  4001 ;;		None
  4002 ;; Auto vars:     Size  Location     Type
  4003 ;;		None
  4004 ;; Return value:  Size  Location     Type
  4005 ;;                  1    wreg      void 
  4006 ;; Registers used:
  4007 ;;		wreg, status,2, status,0, pclath, cstack
  4008 ;; Tracked objects:
  4009 ;;		On entry : 0/0
  4010 ;;		On exit  : 0/0
  4011 ;;		Unchanged: 0/0
  4012 ;; Data sizes:     COMMON   BANK0   BANK1   BANK2   BANK3   BANK4   BANK5   BANK6   BANK7   BANK8   BANK9  BANK10  BANK1
      +1  BANK12  BANK13  BANK14  BANK15  BANK16  BANK17  BANK18  BANK19  BANK20  BANK21  BANK22  BANK23  BANK24  BANK25
  4013 ;;      Params:         0       0       0       0       0       0       0       0       0       0       0       0       
      +0       0       0       0       0       0       0       0       0       0       0       0       0       0       0
  4014 ;;      Locals:         0       0       0       0       0       0       0       0       0       0       0       0       
      +0       0       0       0       0       0       0       0       0       0       0       0       0       0       0
  4015 ;;      Temps:          0       0       0       0       0       0       0       0       0       0       0       0       
      +0       0       0       0       0       0       0       0       0       0       0       0       0       0       0
  4016 ;;      Totals:         0       0       0       0       0       0       0       0       0       0       0       0       
      +0       0       0       0       0       0       0       0       0       0       0       0       0       0       0
  4017 ;;Total ram usage:        0 bytes
  4018 ;; Hardware stack levels used: 1
  4019 ;; Hardware stack levels required when called: 2
  4020 ;; This function calls:
  4021 ;;		_servo_isr
  4022 ;; This function is called by:
  4023 ;;		Interrupt level 1
  4024 ;; This function uses a non-reentrant model
  4025 ;;
  4026                           
  4027     0004                     _isr:
  4028                           
  4029                           ;incstack = 0
  4030     0004  147E               	bsf	int$flags,0	;set compiler interrupt flag (level 1)
  4031                           
  4032                           ; Regs used in _isr: [wreg+status,2+status,0+pclath+cstack]
  4033     0005  3180               	pagesel	$
  4034     0006                     i1l1213:
  4035                           
  4036                           ;main.c: 259:     servo_isr();
  4037     0006  3187  2722  3180   	fcall	_servo_isr
  4038     0009                     i1l143:
  4039     0009  107E               	bcf	int$flags,0	;clear compiler interrupt flag (level 1)
  4040     000A  0009               	retfie
  4041     000B                     __end_of_isr:
  4042                           
  4043                           	psect	text17
  4044     0722                     __ptext17:	
  4045 ;; *************** function _servo_isr *****************
  4046 ;; Defined at:
  4047 ;;		line 220 in file "main.c"
  4048 ;; Parameters:    Size  Location     Type
  4049 ;;		None
  4050 ;; Auto vars:     Size  Location     Type
  4051 ;;  off_us          2    8[COMMON] unsigned short 
  4052 ;; Return value:  Size  Location     Type
  4053 ;;                  1    wreg      void 
  4054 ;; Registers used:
  4055 ;;		wreg, status,2, status,0, pclath, cstack
  4056 ;; Tracked objects:
  4057 ;;		On entry : 0/0
  4058 ;;		On exit  : 0/0
  4059 ;;		Unchanged: 0/0
  4060 ;; Data sizes:     COMMON   BANK0   BANK1   BANK2   BANK3   BANK4   BANK5   BANK6   BANK7   BANK8   BANK9  BANK10  BANK1
      +1  BANK12  BANK13  BANK14  BANK15  BANK16  BANK17  BANK18  BANK19  BANK20  BANK21  BANK22  BANK23  BANK24  BANK25
  4061 ;;      Params:         0       0       0       0       0       0       0       0       0       0       0       0       
      +0       0       0       0       0       0       0       0       0       0       0       0       0       0       0
  4062 ;;      Locals:         2       0       0       0       0       0       0       0       0       0       0       0       
      +0       0       0       0       0       0       0       0       0       0       0       0       0       0       0
  4063 ;;      Temps:          2       0       0       0       0       0       0       0       0       0       0       0       
      +0       0       0       0       0       0       0       0       0       0       0       0       0       0       0
  4064 ;;      Totals:         4       0       0       0       0       0       0       0       0       0       0       0       
      +0       0       0       0       0       0       0       0       0       0       0       0       0       0       0
  4065 ;;Total ram usage:        4 bytes
  4066 ;; Hardware stack levels used: 1
  4067 ;; Hardware stack levels required when called: 1
  4068 ;; This function calls:
  4069 ;;		i1_schedule_after_us
  4070 ;; This function is called by:
  4071 ;;		_isr
  4072 ;; This function uses a non-reentrant model
  4073 ;;
  4074                           
  4075     0722                     _servo_isr:	
  4076                           ;psect for function _servo_isr
  4077                           
  4078     0722                     i1l1173:	
  4079                           ;incstack = 0
  4080                           ; Regs used in _servo_isr: [wreg+status,2+status,0+pclath+cstack]
  4081                           
  4082                           
  4083                           ;main.c: 222:     if (!PIR1bits.CCP1IF) return;
  4084     0722  0020               	movlb	0	; select bank0
  4085     0723  1911               	btfsc	17,2	;volatile
  4086     0724  2F26               	goto	u91_21
  4087     0725  2F27               	goto	u91_20
  4088     0726                     u91_21:
  4089     0726  2F28               	goto	i1l132
  4090     0727                     u91_20:
  4091     0727  2F56               	goto	i1l133
  4092     0728                     i1l132:
  4093                           
  4094                           ;main.c: 223:     PIR1bits.CCP1IF = 0;
  4095     0728  1111               	bcf	17,2	;volatile
  4096     0729                     i1l1177:
  4097                           
  4098                           ;main.c: 225:     if (g_pin_high)
  4099     0729  087A               	movf	_g_pin_high,w	;volatile
  4100     072A  1903               	btfsc	3,2
  4101     072B  2F2D               	goto	u92_21
  4102     072C  2F2E               	goto	u92_20
  4103     072D                     u92_21:
  4104     072D  2F47               	goto	i1l1187
  4105     072E                     u92_20:
  4106     072E                     i1l1179:
  4107                           
  4108                           ;main.c: 226:     {;main.c: 228:         LATB &= (uint8_t)~g_rb_mask;
  4109     072E  096B               	comf	_g_rb_mask,w	;volatile
  4110     072F  00F6               	movwf	??_servo_isr
  4111     0730  0876               	movf	??_servo_isr,w
  4112     0731  0022               	movlb	2	; select bank2
  4113     0732  058D               	andwf	13,f	;volatile
  4114     0733                     i1l1181:
  4115                           
  4116                           ;main.c: 229:         g_pin_high = 0;
  4117     0733  01FA               	clrf	_g_pin_high	;volatile
  4118     0734                     i1l1183:
  4119                           
  4120                           ;main.c: 231:         uint16_t off_us = (uint16_t)(20000u - g_pulse_us);
  4121     0734  3020               	movlw	32
  4122     0735  00F6               	movwf	??_servo_isr
  4123     0736  304E               	movlw	78
  4124     0737  00F7               	movwf	??_servo_isr+1
  4125     0738  0020               	movlb	0	; select bank0
  4126     0739  0869               	movf	_g_pulse_us,w	;volatile
  4127     073A  0276               	subwf	??_servo_isr,w
  4128     073B  00F8               	movwf	servo_isr@off_us
  4129     073C  086A               	movf	_g_pulse_us+1,w	;volatile
  4130     073D  3B77               	subwfb	??_servo_isr+1,w
  4131     073E  00F9               	movwf	servo_isr@off_us+1
  4132     073F                     i1l1185:
  4133                           
  4134                           ;main.c: 232:         schedule_after_us(off_us);
  4135     073F  0879               	movf	servo_isr@off_us+1,w
  4136     0740  00F1               	movwf	i1schedule_after_us@delta_us+1
  4137     0741  0878               	movf	servo_isr@off_us,w
  4138     0742  00F0               	movwf	i1schedule_after_us@delta_us
  4139     0743  318F  27DC  3187   	fcall	i1_schedule_after_us
  4140                           
  4141                           ;main.c: 233:     }
  4142     0746  2F56               	goto	i1l133
  4143     0747                     i1l1187:
  4144                           
  4145                           ;main.c: 235:     {;main.c: 237:         LATB |= g_rb_mask;
  4146     0747  086B               	movf	_g_rb_mask,w	;volatile
  4147     0748  00F6               	movwf	??_servo_isr
  4148     0749  0876               	movf	??_servo_isr,w
  4149     074A  0022               	movlb	2	; select bank2
  4150     074B  048D               	iorwf	13,f	;volatile
  4151     074C                     i1l1189:
  4152                           
  4153                           ;main.c: 238:         g_pin_high = 1;
  4154     074C  3001               	movlw	1
  4155     074D  00FA               	movwf	_g_pin_high	;volatile
  4156     074E                     i1l1191:
  4157                           
  4158                           ;main.c: 240:         schedule_after_us(g_pulse_us);
  4159     074E  0020               	movlb	0	; select bank0
  4160     074F  086A               	movf	_g_pulse_us+1,w	;volatile
  4161     0750  00F1               	movwf	i1schedule_after_us@delta_us+1
  4162     0751  0869               	movf	_g_pulse_us,w	;volatile
  4163     0752  00F0               	movwf	i1schedule_after_us@delta_us
  4164     0753  318F  27DC  3187   	fcall	i1_schedule_after_us
  4165     0756                     i1l133:
  4166     0756  0008               	return
  4167     0757                     __end_of_servo_isr:
  4168                           
  4169                           	psect	text18
  4170     0FDC                     __ptext18:	
  4171 ;; *************** function i1_schedule_after_us *****************
  4172 ;; Defined at:
  4173 ;;		line 101 in file "main.c"
  4174 ;; Parameters:    Size  Location     Type
  4175 ;;  delta_us        2    0[COMMON] unsigned short 
  4176 ;; Auto vars:     Size  Location     Type
  4177 ;;  next            2    4[COMMON] unsigned short 
  4178 ;;  now             2    2[COMMON] unsigned short 
  4179 ;; Return value:  Size  Location     Type
  4180 ;;                  1    wreg      void 
  4181 ;; Registers used:
  4182 ;;		wreg, status,2, status,0
  4183 ;; Tracked objects:
  4184 ;;		On entry : 0/0
  4185 ;;		On exit  : 0/0
  4186 ;;		Unchanged: 0/0
  4187 ;; Data sizes:     COMMON   BANK0   BANK1   BANK2   BANK3   BANK4   BANK5   BANK6   BANK7   BANK8   BANK9  BANK10  BANK1
      +1  BANK12  BANK13  BANK14  BANK15  BANK16  BANK17  BANK18  BANK19  BANK20  BANK21  BANK22  BANK23  BANK24  BANK25
  4188 ;;      Params:         2       0       0       0       0       0       0       0       0       0       0       0       
      +0       0       0       0       0       0       0       0       0       0       0       0       0       0       0
  4189 ;;      Locals:         4       0       0       0       0       0       0       0       0       0       0       0       
      +0       0       0       0       0       0       0       0       0       0       0       0       0       0       0
  4190 ;;      Temps:          0       0       0       0       0       0       0       0       0       0       0       0       
      +0       0       0       0       0       0       0       0       0       0       0       0       0       0       0
  4191 ;;      Totals:         6       0       0       0       0       0       0       0       0       0       0       0       
      +0       0       0       0       0       0       0       0       0       0       0       0       0       0       0
  4192 ;;Total ram usage:        6 bytes
  4193 ;; Hardware stack levels used: 1
  4194 ;; This function calls:
  4195 ;;		Nothing
  4196 ;; This function is called by:
  4197 ;;		_servo_isr
  4198 ;; This function uses a non-reentrant model
  4199 ;;
  4200                           
  4201     0FDC                     i1_schedule_after_us:	
  4202                           ;psect for function i1_schedule_after_us
  4203                           
  4204     0FDC                     i1l1119:	
  4205                           ;incstack = 0
  4206                           ; Regs used in i1_schedule_after_us: [wreg+status,2+status,0]
  4207                           
  4208                           
  4209                           ;main.c: 101: static __attribute__((inline)) void schedule_after_us(uint16_t delta_us);m
      +                          ain.c: 102: {;main.c: 103:     uint16_t now = ((uint16_t)TMR1H << 8) | TMR1L;
  4210     0FDC  0020               	movlb	0	; select bank0
  4211     0FDD  0817               	movf	23,w	;volatile
  4212     0FDE  00F3               	movwf	i1schedule_after_us@now+1
  4213     0FDF  0816               	movf	22,w	;volatile
  4214     0FE0  00F2               	movwf	i1schedule_after_us@now
  4215     0FE1                     i1l1121:
  4216                           
  4217                           ;main.c: 104:     uint16_t next = (uint16_t)(now + delta_us);
  4218     0FE1  0870               	movf	i1schedule_after_us@delta_us,w
  4219     0FE2  0772               	addwf	i1schedule_after_us@now,w
  4220     0FE3  00F4               	movwf	i1schedule_after_us@next
  4221     0FE4  0871               	movf	i1schedule_after_us@delta_us+1,w
  4222     0FE5  3D73               	addwfc	i1schedule_after_us@now+1,w
  4223     0FE6  00F5               	movwf	i1schedule_after_us@next+1
  4224     0FE7                     i1l1123:
  4225                           
  4226                           ;main.c: 106:     CCPR1H = (uint8_t)(next >> 8);
  4227     0FE7  0875               	movf	i1schedule_after_us@next+1,w
  4228     0FE8  0025               	movlb	5	; select bank5
  4229     0FE9  0092               	movwf	18	;volatile
  4230     0FEA                     i1l1125:
  4231                           
  4232                           ;main.c: 107:     CCPR1L = (uint8_t)(next & 0xFF);
  4233     0FEA  0874               	movf	i1schedule_after_us@next,w
  4234     0FEB  0091               	movwf	17	;volatile
  4235     0FEC                     i1l93:
  4236     0FEC  0008               	return
  4237     0FED                     __end_ofi1_schedule_after_us:
  4238     007E                     btemp	set	126	;btemp
  4239     007E                     int$flags	set	126
  4240     007E                     wtemp0	set	126
  4241                           
  4242                           	psect	config
  4243                           
  4244                           ;Config register CONFIG1 @ 0x8007
  4245                           ;	Oscillator Selection Bits
  4246                           ;	FOSC = INTOSC, INTOSC oscillator: I/O function on CLKIN pin
  4247                           ;	Watchdog Timer Enable
  4248                           ;	WDTE = OFF, WDT disabled
  4249                           ;	Power-up Timer Enable
  4250                           ;	PWRTE = OFF, PWRT disabled
  4251                           ;	MCLR Pin Function Select
  4252                           ;	MCLRE = OFF, MCLR/VPP pin function is digital input if LVP bit is also 0.
  4253                           ;	Flash Program Memory Code Protection
  4254                           ;	CP = OFF, Program memory code protection is disabled
  4255                           ;	Brown-out Reset Enable
  4256                           ;	BOREN = OFF, Brown-out Reset disabled
  4257                           ;	Clock Out Enable
  4258                           ;	CLKOUTEN = OFF, CLKOUT function is disabled. I/O or oscillator function on the CLKOUT 
      +                          pin
  4259                           ;	Internal/External Switchover Mode
  4260                           ;	IESO = ON, Internal/External Switchover Mode is enabled
  4261                           ;	Fail-Safe Clock Monitor Enable
  4262                           ;	FCMEN = OFF, Fail-Safe Clock Monitor is disabled
  4263     8007                     	org	32775
  4264     8007  19A4               	dw	6564
  4265                           
  4266                           ;Config register CONFIG2 @ 0x8008
  4267                           ;	Flash Memory Self-Write Protection
  4268                           ;	WRT = OFF, Write protection off
  4269                           ;	Peripheral Pin Select one-way control
  4270                           ;	PPS1WAY = ON, The PPSLOCK bit cannot be cleared once it is set by software
  4271                           ;	Zero-cross detect disable
  4272                           ;	ZCDDIS = ON, ZCD disabled. ZCD can be enabled by setting the ZCDSEN bit of ZCDCON
  4273                           ;	Phase Lock Loop enable
  4274                           ;	PLLEN = OFF, 4x PLL is disabled
  4275                           ;	Stack Overflow/Underflow Reset Enable
  4276                           ;	STVREN = ON, Stack Overflow or Underflow will cause a Reset
  4277                           ;	Brown-out Reset Voltage Selection
  4278                           ;	BORV = LO, Brown-out Reset Voltage (Vbor), low trip point selected.
  4279                           ;	Low-Power Brown Out Reset
  4280                           ;	LPBOR = OFF, Low-Power BOR is disabled
  4281                           ;	In-Circuit Debugger Mode
  4282                           ;	DEBUG = 0x1, unprogrammed default
  4283                           ;	Low-Voltage Programming Enable
  4284                           ;	LVP = OFF, High-voltage on MCLR/VPP must be used for programming
  4285     8008                     	org	32776
  4286     8008  1EFF               	dw	7935

Data Sizes:
    Strings     0
    Constant    0
    Data        3
    BSS         1
    Persistent  32
    Stack       0

Auto Spaces:
    Space          Size  Autos    Used
    COMMON           14     10      11
    BANK0            80     73      76
    BANK1            80     64      64
    BANK2            80     45      45
    BANK3            80      0       0
    BANK4            80      0       0
    BANK5            80      0       0
    BANK6            80      0       0
    BANK7            80      0       0
    BANK8            80      0       0
    BANK9            80      0       0
    BANK10           80      0       0
    BANK11           80      0       0
    BANK12           80      0       0
    BANK13           80      0       0
    BANK14           80      0       0
    BANK15           80      0       0
    BANK16           80      0       0
    BANK17           80      0       0
    BANK18           80      0       0
    BANK19           80      0       0
    BANK20           80      0       0
    BANK21           80      0       0
    BANK22           80      0       0
    BANK23           80      0       0
    BANK24           80      0       0
    BANK25           32      0       0

Pointer List with Targets:

    None.

Critical Paths under _main in COMMON

    None.

Critical Paths under _isr in COMMON

    _isr->_servo_isr
    _servo_isr->i1_schedule_after_us

Critical Paths under _main in BANK0

    _main->_servo_sweep_deg_scurve
    _servo_sweep_deg_scurve->_scurve5_q15
    _servo_set_angle_deg->_servo_write_us
    _servo_write_us->_deg_to_us
    _deg_to_us->___lldiv
    ___lldiv->___lmul
    _scurve5_q15->_q15_mul
    _q15_mul->___omul
    _initMain->_servo_init_rb
    _servo_init_rb->_schedule_after_us

Critical Paths under _isr in BANK0

    None.

Critical Paths under _main in BANK1

    _servo_sweep_deg_scurve->_scurve5_q15

Critical Paths under _isr in BANK1

    None.

Critical Paths under _main in BANK2

    _main->_servo_sweep_deg_scurve

Critical Paths under _isr in BANK2

    None.

Critical Paths under _main in BANK3

    None.

Critical Paths under _isr in BANK3

    None.

Critical Paths under _main in BANK4

    None.

Critical Paths under _isr in BANK4

    None.

Critical Paths under _main in BANK5

    None.

Critical Paths under _isr in BANK5

    None.

Critical Paths under _main in BANK6

    None.

Critical Paths under _isr in BANK6

    None.

Critical Paths under _main in BANK7

    None.

Critical Paths under _isr in BANK7

    None.

Critical Paths under _main in BANK8

    None.

Critical Paths under _isr in BANK8

    None.

Critical Paths under _main in BANK9

    None.

Critical Paths under _isr in BANK9

    None.

Critical Paths under _main in BANK10

    None.

Critical Paths under _isr in BANK10

    None.

Critical Paths under _main in BANK11

    None.

Critical Paths under _isr in BANK11

    None.

Critical Paths under _main in BANK12

    None.

Critical Paths under _isr in BANK12

    None.

Critical Paths under _main in BANK13

    None.

Critical Paths under _isr in BANK13

    None.

Critical Paths under _main in BANK14

    None.

Critical Paths under _isr in BANK14

    None.

Critical Paths under _main in BANK15

    None.

Critical Paths under _isr in BANK15

    None.

Critical Paths under _main in BANK16

    None.

Critical Paths under _isr in BANK16

    None.

Critical Paths under _main in BANK17

    None.

Critical Paths under _isr in BANK17

    None.

Critical Paths under _main in BANK18

    None.

Critical Paths under _isr in BANK18

    None.

Critical Paths under _main in BANK19

    None.

Critical Paths under _isr in BANK19

    None.

Critical Paths under _main in BANK20

    None.

Critical Paths under _isr in BANK20

    None.

Critical Paths under _main in BANK21

    None.

Critical Paths under _isr in BANK21

    None.

Critical Paths under _main in BANK22

    None.

Critical Paths under _isr in BANK22

    None.

Critical Paths under _main in BANK23

    None.

Critical Paths under _isr in BANK23

    None.

Critical Paths under _main in BANK24

    None.

Critical Paths under _isr in BANK24

    None.

Critical Paths under _main in BANK25

    None.

Critical Paths under _isr in BANK25

    None.

Call Graph Tables:

 ---------------------------------------------------------------------------------
 (Depth) Function   	        Calls       Base Space   Used Autos Params    Refs
 ---------------------------------------------------------------------------------
 (0) _main                                                 2     2      0    8503
                                             71 BANK0      2     2      0
                           _initMain
             _servo_sweep_deg_scurve
 ---------------------------------------------------------------------------------
 (1) _servo_sweep_deg_scurve                              55    45     10    8192
                                             61 BANK0     10     0     10
                                              0 BANK2     45    45      0
                            ___lldiv
                            ___lodiv
                             ___omul
                           _delay_ms
                        _scurve5_q15
                _servo_set_angle_deg
 ---------------------------------------------------------------------------------
 (2) _servo_set_angle_deg                                  2     0      2    1522
                                             30 BANK0      2     0      2
                          _deg_to_us
                     _servo_write_us
 ---------------------------------------------------------------------------------
 (3) _servo_write_us                                       2     0      2     144
                                             28 BANK0      2     0      2
                          _deg_to_us (ARG)
 ---------------------------------------------------------------------------------
 (3) _deg_to_us                                            6     4      2    1181
                                             26 BANK0      2     0      2
                            ___lldiv
                             ___lmul
 ---------------------------------------------------------------------------------
 (4) ___lmul                                              12     4      8     396
                                              0 BANK0     12     4      8
 ---------------------------------------------------------------------------------
 (4) ___lldiv                                             14     6      8     618
                                             12 BANK0     14     6      8
                             ___lmul (ARG)
 ---------------------------------------------------------------------------------
 (2) _scurve5_q15                                         68    64      4    2747
                                             57 BANK0      4     0      4
                                              0 BANK1     64    64      0
                             ___omul
                            _q15_mul
 ---------------------------------------------------------------------------------
 (3) _q15_mul                                             32    24      8    1504
                                             25 BANK0     32    24      8
                             ___omul
 ---------------------------------------------------------------------------------
 (4) ___omul                                              25     9     16     852
                                              0 BANK0     25     9     16
 ---------------------------------------------------------------------------------
 (2) _delay_ms                                             3     1      2      98
                                              0 BANK0      3     1      2
 ---------------------------------------------------------------------------------
 (2) ___lodiv                                             26    10     16     314
                                              0 BANK0     26    10     16
 ---------------------------------------------------------------------------------
 (1) _initMain                                             2     2      0     311
                                              8 BANK0      2     2      0
                        _internal_32
                      _servo_init_rb
 ---------------------------------------------------------------------------------
 (2) _servo_init_rb                                        2     2      0     311
                                              6 BANK0      2     2      0
                  _schedule_after_us
 ---------------------------------------------------------------------------------
 (3) _schedule_after_us                                    6     4      2     266
                                              0 BANK0      6     4      2
 ---------------------------------------------------------------------------------
 (2) _internal_32                                          0     0      0       0
 ---------------------------------------------------------------------------------
 Estimated maximum stack depth 4
 ---------------------------------------------------------------------------------
 (Depth) Function   	        Calls       Base Space   Used Autos Params    Refs
 ---------------------------------------------------------------------------------
 (5) _isr                                                  0     0      0     165
                          _servo_isr
 ---------------------------------------------------------------------------------
 (6) _servo_isr                                            4     4      0     165
                                              6 COMMON     4     4      0
                i1_schedule_after_us
 ---------------------------------------------------------------------------------
 (7) i1_schedule_after_us                                  6     4      2     142
                                              0 COMMON     6     4      2
 ---------------------------------------------------------------------------------
 Estimated maximum stack depth 7
 ---------------------------------------------------------------------------------

 Call Graph Graphs:

 _main (ROOT)
   _initMain
     _internal_32
     _servo_init_rb
       _schedule_after_us
   _servo_sweep_deg_scurve
     ___lldiv
       ___lmul (ARG)
     ___lodiv
     ___omul
     _delay_ms
     _scurve5_q15
       ___omul
       _q15_mul
         ___omul
     _servo_set_angle_deg
       _deg_to_us
         ___lldiv
         ___lmul
       _servo_write_us
         _deg_to_us (ARG)

 _isr (ROOT)
   _servo_isr
     i1_schedule_after_us

 Address spaces:
Name               Size   Autos  Total    Cost      Usage
BIGRAM             7F0      0       0       0        0.0%
NULL                 0      0       0       0        0.0%
CODE                 0      0       0       0        0.0%
BITCOMMON            E      0       0       1        0.0%
BITSFR0              0      0       0       1        0.0%
SFR0                 0      0       0       1        0.0%
COMMON               E      A       B       2       78.6%
BITSFR1              0      0       0       2        0.0%
SFR1                 0      0       0       2        0.0%
BITSFR2              0      0       0       3        0.0%
SFR2                 0      0       0       3        0.0%
STACK                0      0       0       3        0.0%
BITBANK0            50      0       0       4        0.0%
BITSFR3              0      0       0       4        0.0%
SFR3                 0      0       0       4        0.0%
BANK0               50     49      4C       5       95.0%
BITSFR4              0      0       0       5        0.0%
SFR4                 0      0       0       5        0.0%
BITBANK1            50      0       0       6        0.0%
BITSFR5              0      0       0       6        0.0%
SFR5                 0      0       0       6        0.0%
BANK1               50     40      40       7       80.0%
BITSFR6              0      0       0       7        0.0%
SFR6                 0      0       0       7        0.0%
BITBANK2            50      0       0       8        0.0%
BITSFR7              0      0       0       8        0.0%
SFR7                 0      0       0       8        0.0%
BANK2               50     2D      2D       9       56.2%
BITSFR8              0      0       0       9        0.0%
SFR8                 0      0       0       9        0.0%
BITBANK3            50      0       0      10        0.0%
BITSFR9              0      0       0      10        0.0%
SFR9                 0      0       0      10        0.0%
BANK3               50      0       0      11        0.0%
BITSFR10             0      0       0      11        0.0%
SFR10                0      0       0      11        0.0%
BITBANK4            50      0       0      12        0.0%
BITSFR11             0      0       0      12        0.0%
SFR11                0      0       0      12        0.0%
BANK4               50      0       0      13        0.0%
BITSFR12             0      0       0      13        0.0%
SFR12                0      0       0      13        0.0%
BITSFR13             0      0       0      14        0.0%
SFR13                0      0       0      14        0.0%
ABS                  0      0      C4      14        0.0%
BITBANK5            50      0       0      15        0.0%
BITSFR14             0      0       0      15        0.0%
SFR14                0      0       0      15        0.0%
BANK5               50      0       0      16        0.0%
BITSFR15             0      0       0      16        0.0%
SFR15                0      0       0      16        0.0%
BITBANK6            50      0       0      17        0.0%
BITSFR16             0      0       0      17        0.0%
SFR16                0      0       0      17        0.0%
BANK6               50      0       0      18        0.0%
BITSFR17             0      0       0      18        0.0%
SFR17                0      0       0      18        0.0%
BITBANK7            50      0       0      19        0.0%
BITSFR18             0      0       0      19        0.0%
SFR18                0      0       0      19        0.0%
BANK7               50      0       0      20        0.0%
BITSFR19             0      0       0      20        0.0%
SFR19                0      0       0      20        0.0%
BITBANK8            50      0       0      21        0.0%
BITSFR20             0      0       0      21        0.0%
SFR20                0      0       0      21        0.0%
BANK8               50      0       0      22        0.0%
BITSFR21             0      0       0      22        0.0%
SFR21                0      0       0      22        0.0%
BITBANK9            50      0       0      23        0.0%
BITSFR22             0      0       0      23        0.0%
SFR22                0      0       0      23        0.0%
BANK9               50      0       0      24        0.0%
BITSFR23             0      0       0      24        0.0%
SFR23                0      0       0      24        0.0%
BITBANK10           50      0       0      25        0.0%
BITSFR24             0      0       0      25        0.0%
SFR24                0      0       0      25        0.0%
BANK10              50      0       0      26        0.0%
BITSFR25             0      0       0      26        0.0%
SFR25                0      0       0      26        0.0%
BITBANK11           50      0       0      27        0.0%
BITSFR26             0      0       0      27        0.0%
SFR26                0      0       0      27        0.0%
BITSFR27             0      0       0      28        0.0%
SFR27                0      0       0      28        0.0%
DATA                 0      0      C4      28        0.0%
BANK11              50      0       0      29        0.0%
BITSFR28             0      0       0      29        0.0%
SFR28                0      0       0      29        0.0%
BITBANK12           50      0       0      30        0.0%
BITSFR29             0      0       0      30        0.0%
SFR29                0      0       0      30        0.0%
BANK12              50      0       0      31        0.0%
BITSFR30             0      0       0      31        0.0%
SFR30                0      0       0      31        0.0%
BITBANK13           50      0       0      32        0.0%
BITSFR31             0      0       0      32        0.0%
SFR31                0      0       0      32        0.0%
BANK13              50      0       0      33        0.0%
BITBANK14           50      0       0      34        0.0%
BANK14              50      0       0      35        0.0%
BITBANK15           50      0       0      36        0.0%
BANK15              50      0       0      37        0.0%
BITBANK16           50      0       0      38        0.0%
BANK16              50      0       0      39        0.0%
BITBANK17           50      0       0      40        0.0%
BANK17              50      0       0      41        0.0%
BITBANK18           50      0       0      42        0.0%
BANK18              50      0       0      43        0.0%
BITBANK19           50      0       0      44        0.0%
BANK19              50      0       0      45        0.0%
BITBANK20           50      0       0      46        0.0%
BANK20              50      0       0      47        0.0%
BITBANK21           50      0       0      48        0.0%
BANK21              50      0       0      49        0.0%
BITBANK22           50      0       0      50        0.0%
BANK22              50      0       0      51        0.0%
BITBANK23           50      0       0      52        0.0%
BANK23              50      0       0      53        0.0%
BITBANK24           50      0       0      54        0.0%
BANK24              50      0       0      55        0.0%
BITBANK25           20      0       0      56        0.0%
BANK25              20      0       0      57        0.0%


Microchip Technology PIC Macro Assembler V2.46 build 20240104201356 
Symbol Table                                                                                   Fri Dec 26 01:13:25 2025

                               l17 07FF                                 l80 05EA  
                               l90 06D9                                 l84 0449  
                               l93 0FFF                                 l77 07E0  
                               l85 0459                                 l88 06A0  
                               l97 0721                                 l89 06AD  
                              l100 0799                                l101 07A6  
                              l102 07AA                                l106 07C8  
                              l114 002C                                l124 0255  
                              l116 0051                                l117 005F  
                              l118 00B4                                l119 023B  
                              l233 078A                                l138 07F6  
                              l238 0681                                l239 0691  
                              l255 0645                                l452 0563  
                              l459 0573                                l961 0757  
                              l971 0782                                l963 0760  
                              l981 0665                                l965 0764  
                              l983 066D                                l975 0646  
                              l991 060A                                l967 076C  
                              l977 0651                                l993 060E  
                              l985 05EB                                l969 0773  
                              l979 0655                                l995 0615  
                              l987 05FC                                l997 0627  
                              l989 05FF                                l999 062F  
                              u510 0782                                u511 0781  
                              u520 064E                                u505 0774  
                              u530 0655                                u610 063D  
                              u531 0654                                u611 063C  
                              u540 0681                                u620 05DF  
                              u700 0438                                u541 0680  
                              u701 0437                                u605 0631  
                              u710 06E2                                u550 05FC  
                              u630 069C                                u711 06E1  
                              u551 05FB                                u631 069B  
                              u480 0764                                u640 06A9  
                              u625 05D6                                u481 0763  
                              u641 06A8                                u570 060E  
                              u650 0795                                u730 07B5  
                              u810 0028                                u571 060D  
                              u651 0794                                u731 07B4  
                              u811 0027                                u724 06E8  
                              u740 04F8                                u660 07A2  
                              u900 024D                                u820 0035  
                              u725 06E7                                u565 0600  
                              u661 07A1                                u901 024C  
                              u821 0034                                u750 0507  
                              u670 07E0                                u590 0627  
                              u830 0048                                u751 0506  
                              u671 07DF                                u591 0626  
                              u495 076D                                u831 0047  
                              u760 051A                                u680 0410  
                              u840 005B                                u761 0519  
                              u681 040F                                u585 060F  
                              u905 0249                                u841 005A  
                              u770 0544                                u690 0418  
                              u850 00AC                                u771 0543  
                              u595 0623                                u851 00AB  
                              u780 0563                                u860 00FF  
                              u781 0562                                u870 01CC  
                              u775 0540                                u880 01FD  
                              u881 01FC                                u865 00F6  
                              u890 0216                                u891 0215  
                              u875 01C3                                u957 047A  
                              u967 049E                                u977 04C2  
                              u987 04E6                                u997 07CE  
                              _isr 0004                                wreg 0009  
                             l1001 0630                               l1003 0637  
                             l1101 0507                               l1005 063D  
                             l1013 0692                               l1023 0FED  
                             l1111 0522                               l1103 050A  
                             l1015 069C                               l1031 078B  
                             l1025 0FF2                               l1113 0544  
                             l1105 0512                               l1041 07CA  
                             l1009 0574                               l1017 06A9  
                             l1033 0795                               l1027 0FF8  
                             l1115 0554                               l1107 0516  
                             l1043 07D3                               l1051 041B  
                             l1019 06AD                               l1035 07A2  
                             l1037 07F7                               l1029 0FFB  
                             l1061 06E3                               l1117 0555  
                             l1109 051A                               l1053 0438  
                             l1045 0256                               l1141 0035  
                             l1221 0481                               l1071 0702  
                             l1063 06EC                               l1039 07C9  
                             l1047 0406                               l1151 00A4  
                             l1143 0039                               l1231 04E0  
                             l1223 0498                               l1215 045A  
                             l1081 070F                               l1073 0703  
                             l1065 06FA                               l1057 06DC  
                             l1049 0410                               l1161 01FD  
                             l1153 00AC                               l1145 0048  
                             l1137 001E                               l1225 04A5  
                             l1217 045D                               l1083 0715  
                             l1075 0709                               l1067 0700  
                             l1059 06E2                               l1091 07AB  
                             l1171 024D                               l1163 0205  
                             l1155 00BD                               l1147 005B  
                             l1139 0028                               l1227 04BC  
                             l1219 0474                               l1085 071D  
                             l1077 070B                               l1069 0701  
                             l1093 07B5                               l1165 0216  
                             l1157 01D7                               l1149 0082  
                             l1229 04C9                               l1087 071E  
                             l1079 070D                               l1095 07B9  
                             l1167 021F                               l1159 01F9  
                             l1089 071F                               l1193 07E1  
                             l1097 04F0                               l1169 022A  
                             l1195 07E4                               l1099 04FB  
                             l1197 07F0                               l1199 07F2  
                             ?_isr 0070                               u1007 07EA  
                             _LATB 010D                               _SCS0 04C8  
                             _SCS1 04C9                               i1l93 0FEC  
      i1schedule_after_us@delta_us 0070                               _main 045A  
                             fsr1h 0007                               fsr1l 0006  
                             btemp 007E                               start 000B  
                  __end_of_q15_mul 05EB                              ??_isr 007A  
         ??_servo_sweep_deg_scurve 0120                    ??_servo_init_rb 0026  
                            ?_main 0070                    __end_of___lldiv 0646  
                  __end_of___lodiv 0574                              _IRCF0 04CB  
                            _IRCF1 04CC                              _IRCF2 04CD  
                            _IRCF3 04CE                              i1l132 0728  
                            i1l133 0756                              i1l143 0009  
                            _TMR1H 0017                              _TMR1L 0016  
                            _TRISB 008D                              u91_20 0727  
                            u91_21 0726                              u92_20 072E  
                            u92_21 072D                ___lmul@multiplicand 0024  
                            status 0003                              wtemp0 007E  
                 ___lodiv@dividend 0028                       ?_internal_32 0070  
                  __initialization 000D                       __end_of_main 04F0  
                _schedule_after_us 0FED        __end_of_servo_set_angle_deg 07C9  
                           ??_main 0067                 ?_schedule_after_us 0020  
    servo_sweep_deg_scurve@end_deg 005F                   ___lodiv@quotient 0031  
    servo_sweep_deg_scurve@tick_ms 0065                ??_schedule_after_us 0022  
                           _CCPR1H 0292                             _CCPR1L 0291  
                           _ANSELB 018D                             i1l1121 0FE1  
                           i1l1123 0FE7                             i1l1125 0FEA  
                           i1l1213 0006                             i1l1119 0FDC  
                           i1l1181 0733                             i1l1173 0722  
                           i1l1191 074E                             i1l1183 0734  
                           i1l1185 073F                             i1l1177 0729  
                           i1l1179 072E                             i1l1187 0747  
                           i1l1189 074C                             _SPLLEN 04CF  
                        ??_q15_mul 0041                   __end_of_delay_ms 07E1  
        __end_of_schedule_after_us 1000                   ??_servo_write_us 003E  
                           ___lmul 0757                             ___omul 0646  
                        ??___lldiv 0034                          ??___lodiv 0030  
                 __end_of_initMain 07F7                       ?_scurve5_q15 0059  
                  servo_isr@off_us 0078            __end_of__initialization 001A  
                   __pcstackCOMMON 0070                       __pidataBANK0 0FD9  
       servo_sweep_deg_scurve@diff 0131             _servo_sweep_deg_scurve 001E  
                       __pmaintext 045A                            ?___lmul 0020  
                          ?___omul 0020                         _g_pin_high 007A  
                       __pintentry 0004                ___omul@multiplicand 0028  
                   ___lmul@product 0028                         _g_pulse_us 0069  
                        ?_delay_ms 0020                  __end_of_deg_to_us 06DA  
                        ?_initMain 0070                            _q15_mul 0574  
                          ___lldiv 05EB                            ___lodiv 04F0  
                          __ptext1 001E                            __ptext2 07AB  
                          __ptext3 078B                            __ptext4 0692  
                          __ptext5 0757                            __ptext6 05EB  
                          __ptext7 0256                            __ptext8 0574  
                          __ptext9 0646                          _T1CONbits 0018  
            __end_of_servo_init_rb 0722                         ??_delay_ms 0022  
                       delay_ms@ms 0020               end_of_initialization 001A  
                   ___omul@product 0031                         ??_initMain 0028  
                  ___lldiv@divisor 002C                    ___lldiv@counter 0039  
                __end_of_servo_isr 0757    servo_sweep_deg_scurve@start_deg 005D  
              i1_schedule_after_us 0FDC                        _CCP1CONbits 0293  
             ?i1_schedule_after_us 0070                     __end_of___lmul 078B  
                   __end_of___omul 0692                start_initialization 000D  
                  ___lodiv@divisor 0020                    ___lodiv@counter 0039  
          ?_servo_sweep_deg_scurve 005D                        __end_of_isr 000B  
                ___omul@multiplier 0020        servo_sweep_deg_scurve@delta 013D  
      servo_sweep_deg_scurve@s_q15 0139        servo_sweep_deg_scurve@t_q15 0135  
      servo_sweep_deg_scurve@steps 0145                           ??___lmul 0028  
                         ??___omul 0030              ??i1_schedule_after_us 0072  
                      __pdataBANK0 0069     __end_of_servo_sweep_deg_scurve 0256  
                      __pbssCOMMON 007A                          ___latbits 0003  
                    __pcstackBANK0 0020                      __pcstackBANK1 00A0  
                    __pcstackBANK2 0120            i1schedule_after_us@next 0074  
                         ?_q15_mul 0039                      ??_internal_32 0020  
                        _deg_to_us 0692                          _g_rb_mask 006B  
servo_sweep_deg_scurve@duration_ms 0061                           ?___lldiv 002C  
                         ?___lodiv 0020                       deg_to_us@deg 003A  
                         _PIE1bits 0091                         ?_deg_to_us 003A  
              _servo_set_angle_deg 07AB                           _PIR1bits 0011  
              __end_of_internal_32 0800                          _servo_isr 0722  
                         q15_mul@a 0039                           q15_mul@b 003D  
                    ??_scurve5_q15 00A0               ?_servo_set_angle_deg 003E  
                 servo_write_us@us 003C              schedule_after_us@next 0024  
                ___lmul@multiplier 0020                         ?_servo_isr 0070  
          servo_sweep_deg_scurve@a 0149            servo_sweep_deg_scurve@k 0141  
           i1schedule_after_us@now 0072                     _servo_write_us 078B  
            ??_servo_set_angle_deg 0040                           _delay_ms 07C9  
              __end_of_scurve5_q15 045A                           __ptext10 07C9  
                         __ptext11 04F0                           __ptext12 07E1  
                         __ptext13 06DA                         _T1GCONbits 0019  
                         __ptext14 0FED                           __ptext15 07F7  
                         __ptext17 0722                           __ptext18 0FDC  
                         _initMain 07E1                        _internal_32 07F7  
                      ??_deg_to_us 003C                           int$flags 007E  
           __end_of_servo_write_us 07AB               schedule_after_us@now 0022  
                       _INTCONbits 000B                      _servo_init_rb 06DA  
                    scurve5_q15@t2 00C8                      scurve5_q15@t3 00D0  
                    scurve5_q15@t4 00D4                      scurve5_q15@t5 00CC  
                         intlevel1 0000                   ___lldiv@dividend 0030  
      __end_ofi1_schedule_after_us 0FED                servo_init_rb@rb_pin 0027  
                      ??_servo_isr 0076                       scurve5_q15@s 00D8  
                     scurve5_q15@t 0059          schedule_after_us@delta_us 0020  
                  ?_servo_write_us 003C                        _scurve5_q15 0256  
                   ?_servo_init_rb 0070                   ___lldiv@quotient 0035  
           servo_set_angle_deg@deg 003E  
