

Microchip MPLAB XC8 Assembler V2.46 build 20240104201356 
                                                                                               Thu Dec 25 16:43:31 2025

Microchip MPLAB XC8 C Compiler v2.46 (Free license) build 20240104201356 Og1 
     1                           	processor	16F1718
     2                           	pagewidth 120
     3                           	opt	flic
     4                           	psect	stringtext1,global,class=STRCODE,delta=2,noexec
     5                           	psect	stringtext2,global,class=STRCODE,delta=2,noexec
     6                           	psect	stringtext3,global,class=STRCODE,delta=2,noexec
     7                           	psect	stringtext4,global,class=STRCODE,delta=2,noexec
     8                           	psect	stringtext5,global,class=STRCODE,delta=2,noexec
     9                           	psect	stringtext6,global,class=STRCODE,delta=2,noexec
    10                           	psect	stringtext7,global,class=STRCODE,delta=2,noexec
    11                           	psect	stringtext8,global,class=STRCODE,delta=2,noexec
    12                           	psect	stringtext9,global,class=STRCODE,delta=2,noexec
    13                           	psect	stringtext10,global,class=STRCODE,delta=2,noexec
    14                           	psect	stringtext11,global,class=STRCODE,delta=2,noexec
    15                           	psect	stringtext12,global,class=STRCODE,delta=2,noexec
    16                           	psect	stringtext13,global,class=STRCODE,delta=2,noexec
    17                           	psect	stringtext14,global,class=STRCODE,delta=2,noexec
    18                           	psect	cinit,global,class=CODE,merge=1,delta=2
    19                           	psect	cstackCOMMON,global,class=COMMON,space=1,delta=1,noexec
    20                           	psect	cstackBANK0,global,class=BANK0,space=1,delta=1,noexec
    21                           	psect	maintext,global,class=CODE,merge=1,split=1,delta=2
    22                           	psect	text1,local,class=CODE,merge=1,delta=2
    23                           	psect	text2,local,class=CODE,merge=1,delta=2
    24                           	psect	text3,local,class=CODE,merge=1,delta=2
    25                           	psect	text4,local,class=CODE,merge=1,delta=2
    26                           	psect	text5,local,class=CODE,merge=1,delta=2
    27                           	psect	text6,local,class=CODE,merge=1,delta=2
    28                           	psect	text7,local,class=CODE,merge=1,delta=2
    29                           	psect	text8,local,class=CODE,merge=1,delta=2,group=1
    30                           	psect	text9,local,class=CODE,merge=1,delta=2,group=1
    31                           	psect	text10,local,class=CODE,merge=1,delta=2,group=1
    32                           	psect	text11,local,class=CODE,merge=1,delta=2
    33                           	psect	text12,local,class=CODE,merge=1,delta=2
    34                           	psect	text13,local,class=CODE,merge=1,delta=2,group=1
    35                           	psect	text14,local,class=CODE,merge=1,delta=2
    36                           	psect	text15,local,class=CODE,merge=1,delta=2
    37                           	psect	text16,local,class=CODE,merge=1,delta=2
    38                           	psect	text17,local,class=CODE,merge=1,delta=2
    39                           	psect	text18,local,class=CODE,merge=1,delta=2
    40                           	psect	text19,local,class=CODE,merge=1,delta=2
    41                           	psect	text20,local,class=CODE,merge=1,delta=2
    42                           	psect	text21,local,class=CODE,merge=1,delta=2
    43                           	psect	text22,local,class=CODE,merge=1,delta=2
    44                           	psect	text23,local,class=CODE,merge=1,delta=2
    45                           	psect	text24,local,class=CODE,merge=1,delta=2
    46                           	psect	config,global,abs,ovrld,class=CONFIG,space=4,delta=2,noexec
    47                           	dabs	1,0x7E,2
    48     0000                     
    49                           ; Generated 07/09/2023 GMT
    50                           ; 
    51                           ; Copyright © 2023, Microchip Technology Inc. and its subsidiaries ("Microchip")
    52                           ; All rights reserved.
    53                           ; 
    54                           ; This software is developed by Microchip Technology Inc. and its subsidiaries ("Microch
      +                          ip").
    55                           ; 
    56                           ; Redistribution and use in source and binary forms, with or without modification, are
    57                           ; permitted provided that the following conditions are met:
    58                           ; 
    59                           ;     1. Redistributions of source code must retain the above copyright notice, this lis
      +                          t of
    60                           ;        conditions and the following disclaimer.
    61                           ; 
    62                           ;     2. Redistributions in binary form must reproduce the above copyright notice, this 
      +                          list
    63                           ;        of conditions and the following disclaimer in the documentation and/or other
    64                           ;        materials provided with the distribution. Publication is not required when
    65                           ;        this file is used in an embedded application.
    66                           ; 
    67                           ;     3. Microchip's name may not be used to endorse or promote products derived from th
      +                          is
    68                           ;        software without specific prior written permission.
    69                           ; 
    70                           ; THIS SOFTWARE IS PROVIDED BY MICROCHIP "AS IS" AND ANY EXPRESS OR IMPLIED WARRANTIES,
    71                           ; INCLUDING, BUT NOT LIMITED TO, THE IMPLIED WARRANTIES OF MERCHANTABILITY AND FITNESS F
      +                          OR
    72                           ; PURPOSE ARE DISCLAIMED.  IN NO EVENT SHALL MICROCHIP BE LIABLE FOR ANY DIRECT, INDIREC
      +                          T,
    73                           ; INCIDENTAL, SPECIAL, EXEMPLARY, OR CONSEQUENTIAL DAMAGES (INCLUDING BUT NOT LIMITED TO
    74                           ; PROCUREMENT OF SUBSTITUTE GOODS OR SERVICES; LOSS OF USE, DATA OR PROFITS; OR BUSINESS
    75                           ; INTERRUPTION) HOWSOEVER CAUSED AND ON ANY THEORY OF LIABILITY, WHETHER IN CONTRACT, ST
      +                          RICT
    76                           ; LIABILITY, OR TORT (INCLUDING NEGLIGENCE OR OTHERWISE) ARISING IN ANY WAY OUT OF THE U
      +                          SE OF
    77                           ; THIS SOFTWARE, EVEN IF ADVISED OF THE POSSIBILITY OF SUCH DAMAGE.
    78                           ; 
    79                           ; 
    80                           ; Code-generator required, PIC16F1718 Definitions
    81                           ; 
    82                           ; SFR Addresses
    83     0000                     	;# 
    84     0001                     	;# 
    85     0002                     	;# 
    86     0003                     	;# 
    87     0004                     	;# 
    88     0005                     	;# 
    89     0006                     	;# 
    90     0007                     	;# 
    91     0008                     	;# 
    92     0009                     	;# 
    93     000A                     	;# 
    94     000B                     	;# 
    95     000C                     	;# 
    96     000D                     	;# 
    97     000E                     	;# 
    98     0010                     	;# 
    99     0011                     	;# 
   100     0012                     	;# 
   101     0013                     	;# 
   102     0015                     	;# 
   103     0016                     	;# 
   104     0016                     	;# 
   105     0017                     	;# 
   106     0018                     	;# 
   107     0019                     	;# 
   108     001A                     	;# 
   109     001B                     	;# 
   110     001C                     	;# 
   111     008C                     	;# 
   112     008D                     	;# 
   113     008E                     	;# 
   114     0090                     	;# 
   115     0091                     	;# 
   116     0092                     	;# 
   117     0093                     	;# 
   118     0095                     	;# 
   119     0096                     	;# 
   120     0097                     	;# 
   121     0098                     	;# 
   122     0099                     	;# 
   123     009A                     	;# 
   124     009B                     	;# 
   125     009B                     	;# 
   126     009C                     	;# 
   127     009D                     	;# 
   128     009E                     	;# 
   129     009F                     	;# 
   130     010C                     	;# 
   131     010D                     	;# 
   132     010E                     	;# 
   133     0111                     	;# 
   134     0112                     	;# 
   135     0113                     	;# 
   136     0114                     	;# 
   137     0115                     	;# 
   138     0116                     	;# 
   139     0117                     	;# 
   140     0118                     	;# 
   141     0119                     	;# 
   142     011A                     	;# 
   143     011B                     	;# 
   144     011B                     	;# 
   145     011C                     	;# 
   146     018C                     	;# 
   147     018D                     	;# 
   148     018E                     	;# 
   149     0191                     	;# 
   150     0191                     	;# 
   151     0192                     	;# 
   152     0193                     	;# 
   153     0193                     	;# 
   154     0194                     	;# 
   155     0195                     	;# 
   156     0196                     	;# 
   157     0197                     	;# 
   158     0199                     	;# 
   159     0199                     	;# 
   160     0199                     	;# 
   161     019A                     	;# 
   162     019A                     	;# 
   163     019A                     	;# 
   164     019B                     	;# 
   165     019B                     	;# 
   166     019B                     	;# 
   167     019B                     	;# 
   168     019B                     	;# 
   169     019C                     	;# 
   170     019C                     	;# 
   171     019C                     	;# 
   172     019D                     	;# 
   173     019D                     	;# 
   174     019D                     	;# 
   175     019E                     	;# 
   176     019E                     	;# 
   177     019E                     	;# 
   178     019F                     	;# 
   179     019F                     	;# 
   180     019F                     	;# 
   181     019F                     	;# 
   182     019F                     	;# 
   183     020C                     	;# 
   184     020D                     	;# 
   185     020E                     	;# 
   186     0210                     	;# 
   187     0211                     	;# 
   188     0211                     	;# 
   189     0212                     	;# 
   190     0212                     	;# 
   191     0213                     	;# 
   192     0213                     	;# 
   193     0214                     	;# 
   194     0214                     	;# 
   195     0215                     	;# 
   196     0215                     	;# 
   197     0215                     	;# 
   198     0215                     	;# 
   199     0216                     	;# 
   200     0216                     	;# 
   201     0217                     	;# 
   202     0217                     	;# 
   203     028C                     	;# 
   204     028D                     	;# 
   205     028E                     	;# 
   206     0291                     	;# 
   207     0291                     	;# 
   208     0292                     	;# 
   209     0293                     	;# 
   210     0293                     	;# 
   211     0298                     	;# 
   212     0298                     	;# 
   213     0299                     	;# 
   214     029A                     	;# 
   215     029A                     	;# 
   216     029E                     	;# 
   217     030C                     	;# 
   218     030D                     	;# 
   219     030E                     	;# 
   220     038C                     	;# 
   221     038D                     	;# 
   222     038E                     	;# 
   223     0390                     	;# 
   224     0391                     	;# 
   225     0392                     	;# 
   226     0393                     	;# 
   227     0394                     	;# 
   228     0395                     	;# 
   229     0396                     	;# 
   230     0397                     	;# 
   231     0398                     	;# 
   232     0399                     	;# 
   233     039D                     	;# 
   234     039E                     	;# 
   235     039F                     	;# 
   236     0415                     	;# 
   237     0416                     	;# 
   238     0417                     	;# 
   239     041C                     	;# 
   240     041D                     	;# 
   241     041E                     	;# 
   242     0498                     	;# 
   243     0498                     	;# 
   244     0499                     	;# 
   245     049A                     	;# 
   246     049B                     	;# 
   247     049B                     	;# 
   248     049C                     	;# 
   249     049D                     	;# 
   250     049E                     	;# 
   251     049F                     	;# 
   252     0511                     	;# 
   253     0515                     	;# 
   254     0617                     	;# 
   255     0618                     	;# 
   256     0619                     	;# 
   257     0619                     	;# 
   258     061A                     	;# 
   259     061B                     	;# 
   260     061C                     	;# 
   261     061C                     	;# 
   262     0691                     	;# 
   263     0692                     	;# 
   264     0693                     	;# 
   265     0694                     	;# 
   266     0695                     	;# 
   267     0696                     	;# 
   268     0697                     	;# 
   269     0698                     	;# 
   270     0699                     	;# 
   271     069A                     	;# 
   272     069B                     	;# 
   273     069C                     	;# 
   274     069D                     	;# 
   275     069E                     	;# 
   276     069F                     	;# 
   277     0E0F                     	;# 
   278     0E10                     	;# 
   279     0E11                     	;# 
   280     0E12                     	;# 
   281     0E13                     	;# 
   282     0E14                     	;# 
   283     0E15                     	;# 
   284     0E17                     	;# 
   285     0E20                     	;# 
   286     0E21                     	;# 
   287     0E22                     	;# 
   288     0E24                     	;# 
   289     0E25                     	;# 
   290     0E28                     	;# 
   291     0E29                     	;# 
   292     0E2A                     	;# 
   293     0E2B                     	;# 
   294     0E90                     	;# 
   295     0E91                     	;# 
   296     0E92                     	;# 
   297     0E93                     	;# 
   298     0E94                     	;# 
   299     0E95                     	;# 
   300     0E96                     	;# 
   301     0E97                     	;# 
   302     0E98                     	;# 
   303     0E99                     	;# 
   304     0E9A                     	;# 
   305     0E9B                     	;# 
   306     0E9C                     	;# 
   307     0E9D                     	;# 
   308     0E9E                     	;# 
   309     0E9F                     	;# 
   310     0EA0                     	;# 
   311     0EA1                     	;# 
   312     0EA2                     	;# 
   313     0EA3                     	;# 
   314     0EA4                     	;# 
   315     0EA5                     	;# 
   316     0EA6                     	;# 
   317     0EA7                     	;# 
   318     0F0F                     	;# 
   319     0F10                     	;# 
   320     0F11                     	;# 
   321     0F12                     	;# 
   322     0F13                     	;# 
   323     0F14                     	;# 
   324     0F15                     	;# 
   325     0F16                     	;# 
   326     0F17                     	;# 
   327     0F18                     	;# 
   328     0F19                     	;# 
   329     0F1A                     	;# 
   330     0F1B                     	;# 
   331     0F1C                     	;# 
   332     0F1D                     	;# 
   333     0F1E                     	;# 
   334     0F1F                     	;# 
   335     0F20                     	;# 
   336     0F21                     	;# 
   337     0F22                     	;# 
   338     0F23                     	;# 
   339     0F24                     	;# 
   340     0F25                     	;# 
   341     0F26                     	;# 
   342     0F27                     	;# 
   343     0F28                     	;# 
   344     0F29                     	;# 
   345     0F2A                     	;# 
   346     0F2B                     	;# 
   347     0F2C                     	;# 
   348     0F2D                     	;# 
   349     0F2E                     	;# 
   350     0F2F                     	;# 
   351     0F30                     	;# 
   352     0F31                     	;# 
   353     0F32                     	;# 
   354     0F33                     	;# 
   355     0F34                     	;# 
   356     0F35                     	;# 
   357     0F36                     	;# 
   358     0F37                     	;# 
   359     0FE4                     	;# 
   360     0FE5                     	;# 
   361     0FE6                     	;# 
   362     0FE7                     	;# 
   363     0FE8                     	;# 
   364     0FE9                     	;# 
   365     0FEA                     	;# 
   366     0FEB                     	;# 
   367     0FED                     	;# 
   368     0FEE                     	;# 
   369     0FEF                     	;# 
   370     0000                     	;# 
   371     0001                     	;# 
   372     0002                     	;# 
   373     0003                     	;# 
   374     0004                     	;# 
   375     0005                     	;# 
   376     0006                     	;# 
   377     0007                     	;# 
   378     0008                     	;# 
   379     0009                     	;# 
   380     000A                     	;# 
   381     000B                     	;# 
   382     000C                     	;# 
   383     000D                     	;# 
   384     000E                     	;# 
   385     0010                     	;# 
   386     0011                     	;# 
   387     0012                     	;# 
   388     0013                     	;# 
   389     0015                     	;# 
   390     0016                     	;# 
   391     0016                     	;# 
   392     0017                     	;# 
   393     0018                     	;# 
   394     0019                     	;# 
   395     001A                     	;# 
   396     001B                     	;# 
   397     001C                     	;# 
   398     008C                     	;# 
   399     008D                     	;# 
   400     008E                     	;# 
   401     0090                     	;# 
   402     0091                     	;# 
   403     0092                     	;# 
   404     0093                     	;# 
   405     0095                     	;# 
   406     0096                     	;# 
   407     0097                     	;# 
   408     0098                     	;# 
   409     0099                     	;# 
   410     009A                     	;# 
   411     009B                     	;# 
   412     009B                     	;# 
   413     009C                     	;# 
   414     009D                     	;# 
   415     009E                     	;# 
   416     009F                     	;# 
   417     010C                     	;# 
   418     010D                     	;# 
   419     010E                     	;# 
   420     0111                     	;# 
   421     0112                     	;# 
   422     0113                     	;# 
   423     0114                     	;# 
   424     0115                     	;# 
   425     0116                     	;# 
   426     0117                     	;# 
   427     0118                     	;# 
   428     0119                     	;# 
   429     011A                     	;# 
   430     011B                     	;# 
   431     011B                     	;# 
   432     011C                     	;# 
   433     018C                     	;# 
   434     018D                     	;# 
   435     018E                     	;# 
   436     0191                     	;# 
   437     0191                     	;# 
   438     0192                     	;# 
   439     0193                     	;# 
   440     0193                     	;# 
   441     0194                     	;# 
   442     0195                     	;# 
   443     0196                     	;# 
   444     0197                     	;# 
   445     0199                     	;# 
   446     0199                     	;# 
   447     0199                     	;# 
   448     019A                     	;# 
   449     019A                     	;# 
   450     019A                     	;# 
   451     019B                     	;# 
   452     019B                     	;# 
   453     019B                     	;# 
   454     019B                     	;# 
   455     019B                     	;# 
   456     019C                     	;# 
   457     019C                     	;# 
   458     019C                     	;# 
   459     019D                     	;# 
   460     019D                     	;# 
   461     019D                     	;# 
   462     019E                     	;# 
   463     019E                     	;# 
   464     019E                     	;# 
   465     019F                     	;# 
   466     019F                     	;# 
   467     019F                     	;# 
   468     019F                     	;# 
   469     019F                     	;# 
   470     020C                     	;# 
   471     020D                     	;# 
   472     020E                     	;# 
   473     0210                     	;# 
   474     0211                     	;# 
   475     0211                     	;# 
   476     0212                     	;# 
   477     0212                     	;# 
   478     0213                     	;# 
   479     0213                     	;# 
   480     0214                     	;# 
   481     0214                     	;# 
   482     0215                     	;# 
   483     0215                     	;# 
   484     0215                     	;# 
   485     0215                     	;# 
   486     0216                     	;# 
   487     0216                     	;# 
   488     0217                     	;# 
   489     0217                     	;# 
   490     028C                     	;# 
   491     028D                     	;# 
   492     028E                     	;# 
   493     0291                     	;# 
   494     0291                     	;# 
   495     0292                     	;# 
   496     0293                     	;# 
   497     0293                     	;# 
   498     0298                     	;# 
   499     0298                     	;# 
   500     0299                     	;# 
   501     029A                     	;# 
   502     029A                     	;# 
   503     029E                     	;# 
   504     030C                     	;# 
   505     030D                     	;# 
   506     030E                     	;# 
   507     038C                     	;# 
   508     038D                     	;# 
   509     038E                     	;# 
   510     0390                     	;# 
   511     0391                     	;# 
   512     0392                     	;# 
   513     0393                     	;# 
   514     0394                     	;# 
   515     0395                     	;# 
   516     0396                     	;# 
   517     0397                     	;# 
   518     0398                     	;# 
   519     0399                     	;# 
   520     039D                     	;# 
   521     039E                     	;# 
   522     039F                     	;# 
   523     0415                     	;# 
   524     0416                     	;# 
   525     0417                     	;# 
   526     041C                     	;# 
   527     041D                     	;# 
   528     041E                     	;# 
   529     0498                     	;# 
   530     0498                     	;# 
   531     0499                     	;# 
   532     049A                     	;# 
   533     049B                     	;# 
   534     049B                     	;# 
   535     049C                     	;# 
   536     049D                     	;# 
   537     049E                     	;# 
   538     049F                     	;# 
   539     0511                     	;# 
   540     0515                     	;# 
   541     0617                     	;# 
   542     0618                     	;# 
   543     0619                     	;# 
   544     0619                     	;# 
   545     061A                     	;# 
   546     061B                     	;# 
   547     061C                     	;# 
   548     061C                     	;# 
   549     0691                     	;# 
   550     0692                     	;# 
   551     0693                     	;# 
   552     0694                     	;# 
   553     0695                     	;# 
   554     0696                     	;# 
   555     0697                     	;# 
   556     0698                     	;# 
   557     0699                     	;# 
   558     069A                     	;# 
   559     069B                     	;# 
   560     069C                     	;# 
   561     069D                     	;# 
   562     069E                     	;# 
   563     069F                     	;# 
   564     0E0F                     	;# 
   565     0E10                     	;# 
   566     0E11                     	;# 
   567     0E12                     	;# 
   568     0E13                     	;# 
   569     0E14                     	;# 
   570     0E15                     	;# 
   571     0E17                     	;# 
   572     0E20                     	;# 
   573     0E21                     	;# 
   574     0E22                     	;# 
   575     0E24                     	;# 
   576     0E25                     	;# 
   577     0E28                     	;# 
   578     0E29                     	;# 
   579     0E2A                     	;# 
   580     0E2B                     	;# 
   581     0E90                     	;# 
   582     0E91                     	;# 
   583     0E92                     	;# 
   584     0E93                     	;# 
   585     0E94                     	;# 
   586     0E95                     	;# 
   587     0E96                     	;# 
   588     0E97                     	;# 
   589     0E98                     	;# 
   590     0E99                     	;# 
   591     0E9A                     	;# 
   592     0E9B                     	;# 
   593     0E9C                     	;# 
   594     0E9D                     	;# 
   595     0E9E                     	;# 
   596     0E9F                     	;# 
   597     0EA0                     	;# 
   598     0EA1                     	;# 
   599     0EA2                     	;# 
   600     0EA3                     	;# 
   601     0EA4                     	;# 
   602     0EA5                     	;# 
   603     0EA6                     	;# 
   604     0EA7                     	;# 
   605     0F0F                     	;# 
   606     0F10                     	;# 
   607     0F11                     	;# 
   608     0F12                     	;# 
   609     0F13                     	;# 
   610     0F14                     	;# 
   611     0F15                     	;# 
   612     0F16                     	;# 
   613     0F17                     	;# 
   614     0F18                     	;# 
   615     0F19                     	;# 
   616     0F1A                     	;# 
   617     0F1B                     	;# 
   618     0F1C                     	;# 
   619     0F1D                     	;# 
   620     0F1E                     	;# 
   621     0F1F                     	;# 
   622     0F20                     	;# 
   623     0F21                     	;# 
   624     0F22                     	;# 
   625     0F23                     	;# 
   626     0F24                     	;# 
   627     0F25                     	;# 
   628     0F26                     	;# 
   629     0F27                     	;# 
   630     0F28                     	;# 
   631     0F29                     	;# 
   632     0F2A                     	;# 
   633     0F2B                     	;# 
   634     0F2C                     	;# 
   635     0F2D                     	;# 
   636     0F2E                     	;# 
   637     0F2F                     	;# 
   638     0F30                     	;# 
   639     0F31                     	;# 
   640     0F32                     	;# 
   641     0F33                     	;# 
   642     0F34                     	;# 
   643     0F35                     	;# 
   644     0F36                     	;# 
   645     0F37                     	;# 
   646     0FE4                     	;# 
   647     0FE5                     	;# 
   648     0FE6                     	;# 
   649     0FE7                     	;# 
   650     0FE8                     	;# 
   651     0FE9                     	;# 
   652     0FEA                     	;# 
   653     0FEB                     	;# 
   654     0FED                     	;# 
   655     0FEE                     	;# 
   656     0FEF                     	;# 
   657     0000                     	;# 
   658     0001                     	;# 
   659     0002                     	;# 
   660     0003                     	;# 
   661     0004                     	;# 
   662     0005                     	;# 
   663     0006                     	;# 
   664     0007                     	;# 
   665     0008                     	;# 
   666     0009                     	;# 
   667     000A                     	;# 
   668     000B                     	;# 
   669     000C                     	;# 
   670     000D                     	;# 
   671     000E                     	;# 
   672     0010                     	;# 
   673     0011                     	;# 
   674     0012                     	;# 
   675     0013                     	;# 
   676     0015                     	;# 
   677     0016                     	;# 
   678     0016                     	;# 
   679     0017                     	;# 
   680     0018                     	;# 
   681     0019                     	;# 
   682     001A                     	;# 
   683     001B                     	;# 
   684     001C                     	;# 
   685     008C                     	;# 
   686     008D                     	;# 
   687     008E                     	;# 
   688     0090                     	;# 
   689     0091                     	;# 
   690     0092                     	;# 
   691     0093                     	;# 
   692     0095                     	;# 
   693     0096                     	;# 
   694     0097                     	;# 
   695     0098                     	;# 
   696     0099                     	;# 
   697     009A                     	;# 
   698     009B                     	;# 
   699     009B                     	;# 
   700     009C                     	;# 
   701     009D                     	;# 
   702     009E                     	;# 
   703     009F                     	;# 
   704     010C                     	;# 
   705     010D                     	;# 
   706     010E                     	;# 
   707     0111                     	;# 
   708     0112                     	;# 
   709     0113                     	;# 
   710     0114                     	;# 
   711     0115                     	;# 
   712     0116                     	;# 
   713     0117                     	;# 
   714     0118                     	;# 
   715     0119                     	;# 
   716     011A                     	;# 
   717     011B                     	;# 
   718     011B                     	;# 
   719     011C                     	;# 
   720     018C                     	;# 
   721     018D                     	;# 
   722     018E                     	;# 
   723     0191                     	;# 
   724     0191                     	;# 
   725     0192                     	;# 
   726     0193                     	;# 
   727     0193                     	;# 
   728     0194                     	;# 
   729     0195                     	;# 
   730     0196                     	;# 
   731     0197                     	;# 
   732     0199                     	;# 
   733     0199                     	;# 
   734     0199                     	;# 
   735     019A                     	;# 
   736     019A                     	;# 
   737     019A                     	;# 
   738     019B                     	;# 
   739     019B                     	;# 
   740     019B                     	;# 
   741     019B                     	;# 
   742     019B                     	;# 
   743     019C                     	;# 
   744     019C                     	;# 
   745     019C                     	;# 
   746     019D                     	;# 
   747     019D                     	;# 
   748     019D                     	;# 
   749     019E                     	;# 
   750     019E                     	;# 
   751     019E                     	;# 
   752     019F                     	;# 
   753     019F                     	;# 
   754     019F                     	;# 
   755     019F                     	;# 
   756     019F                     	;# 
   757     020C                     	;# 
   758     020D                     	;# 
   759     020E                     	;# 
   760     0210                     	;# 
   761     0211                     	;# 
   762     0211                     	;# 
   763     0212                     	;# 
   764     0212                     	;# 
   765     0213                     	;# 
   766     0213                     	;# 
   767     0214                     	;# 
   768     0214                     	;# 
   769     0215                     	;# 
   770     0215                     	;# 
   771     0215                     	;# 
   772     0215                     	;# 
   773     0216                     	;# 
   774     0216                     	;# 
   775     0217                     	;# 
   776     0217                     	;# 
   777     028C                     	;# 
   778     028D                     	;# 
   779     028E                     	;# 
   780     0291                     	;# 
   781     0291                     	;# 
   782     0292                     	;# 
   783     0293                     	;# 
   784     0293                     	;# 
   785     0298                     	;# 
   786     0298                     	;# 
   787     0299                     	;# 
   788     029A                     	;# 
   789     029A                     	;# 
   790     029E                     	;# 
   791     030C                     	;# 
   792     030D                     	;# 
   793     030E                     	;# 
   794     038C                     	;# 
   795     038D                     	;# 
   796     038E                     	;# 
   797     0390                     	;# 
   798     0391                     	;# 
   799     0392                     	;# 
   800     0393                     	;# 
   801     0394                     	;# 
   802     0395                     	;# 
   803     0396                     	;# 
   804     0397                     	;# 
   805     0398                     	;# 
   806     0399                     	;# 
   807     039D                     	;# 
   808     039E                     	;# 
   809     039F                     	;# 
   810     0415                     	;# 
   811     0416                     	;# 
   812     0417                     	;# 
   813     041C                     	;# 
   814     041D                     	;# 
   815     041E                     	;# 
   816     0498                     	;# 
   817     0498                     	;# 
   818     0499                     	;# 
   819     049A                     	;# 
   820     049B                     	;# 
   821     049B                     	;# 
   822     049C                     	;# 
   823     049D                     	;# 
   824     049E                     	;# 
   825     049F                     	;# 
   826     0511                     	;# 
   827     0515                     	;# 
   828     0617                     	;# 
   829     0618                     	;# 
   830     0619                     	;# 
   831     0619                     	;# 
   832     061A                     	;# 
   833     061B                     	;# 
   834     061C                     	;# 
   835     061C                     	;# 
   836     0691                     	;# 
   837     0692                     	;# 
   838     0693                     	;# 
   839     0694                     	;# 
   840     0695                     	;# 
   841     0696                     	;# 
   842     0697                     	;# 
   843     0698                     	;# 
   844     0699                     	;# 
   845     069A                     	;# 
   846     069B                     	;# 
   847     069C                     	;# 
   848     069D                     	;# 
   849     069E                     	;# 
   850     069F                     	;# 
   851     0E0F                     	;# 
   852     0E10                     	;# 
   853     0E11                     	;# 
   854     0E12                     	;# 
   855     0E13                     	;# 
   856     0E14                     	;# 
   857     0E15                     	;# 
   858     0E17                     	;# 
   859     0E20                     	;# 
   860     0E21                     	;# 
   861     0E22                     	;# 
   862     0E24                     	;# 
   863     0E25                     	;# 
   864     0E28                     	;# 
   865     0E29                     	;# 
   866     0E2A                     	;# 
   867     0E2B                     	;# 
   868     0E90                     	;# 
   869     0E91                     	;# 
   870     0E92                     	;# 
   871     0E93                     	;# 
   872     0E94                     	;# 
   873     0E95                     	;# 
   874     0E96                     	;# 
   875     0E97                     	;# 
   876     0E98                     	;# 
   877     0E99                     	;# 
   878     0E9A                     	;# 
   879     0E9B                     	;# 
   880     0E9C                     	;# 
   881     0E9D                     	;# 
   882     0E9E                     	;# 
   883     0E9F                     	;# 
   884     0EA0                     	;# 
   885     0EA1                     	;# 
   886     0EA2                     	;# 
   887     0EA3                     	;# 
   888     0EA4                     	;# 
   889     0EA5                     	;# 
   890     0EA6                     	;# 
   891     0EA7                     	;# 
   892     0F0F                     	;# 
   893     0F10                     	;# 
   894     0F11                     	;# 
   895     0F12                     	;# 
   896     0F13                     	;# 
   897     0F14                     	;# 
   898     0F15                     	;# 
   899     0F16                     	;# 
   900     0F17                     	;# 
   901     0F18                     	;# 
   902     0F19                     	;# 
   903     0F1A                     	;# 
   904     0F1B                     	;# 
   905     0F1C                     	;# 
   906     0F1D                     	;# 
   907     0F1E                     	;# 
   908     0F1F                     	;# 
   909     0F20                     	;# 
   910     0F21                     	;# 
   911     0F22                     	;# 
   912     0F23                     	;# 
   913     0F24                     	;# 
   914     0F25                     	;# 
   915     0F26                     	;# 
   916     0F27                     	;# 
   917     0F28                     	;# 
   918     0F29                     	;# 
   919     0F2A                     	;# 
   920     0F2B                     	;# 
   921     0F2C                     	;# 
   922     0F2D                     	;# 
   923     0F2E                     	;# 
   924     0F2F                     	;# 
   925     0F30                     	;# 
   926     0F31                     	;# 
   927     0F32                     	;# 
   928     0F33                     	;# 
   929     0F34                     	;# 
   930     0F35                     	;# 
   931     0F36                     	;# 
   932     0F37                     	;# 
   933     0FE4                     	;# 
   934     0FE5                     	;# 
   935     0FE6                     	;# 
   936     0FE7                     	;# 
   937     0FE8                     	;# 
   938     0FE9                     	;# 
   939     0FEA                     	;# 
   940     0FEB                     	;# 
   941     0FED                     	;# 
   942     0FEE                     	;# 
   943     0FEF                     	;# 
   944     0000                     	;# 
   945     0001                     	;# 
   946     0002                     	;# 
   947     0003                     	;# 
   948     0004                     	;# 
   949     0005                     	;# 
   950     0006                     	;# 
   951     0007                     	;# 
   952     0008                     	;# 
   953     0009                     	;# 
   954     000A                     	;# 
   955     000B                     	;# 
   956     000C                     	;# 
   957     000D                     	;# 
   958     000E                     	;# 
   959     0010                     	;# 
   960     0011                     	;# 
   961     0012                     	;# 
   962     0013                     	;# 
   963     0015                     	;# 
   964     0016                     	;# 
   965     0016                     	;# 
   966     0017                     	;# 
   967     0018                     	;# 
   968     0019                     	;# 
   969     001A                     	;# 
   970     001B                     	;# 
   971     001C                     	;# 
   972     008C                     	;# 
   973     008D                     	;# 
   974     008E                     	;# 
   975     0090                     	;# 
   976     0091                     	;# 
   977     0092                     	;# 
   978     0093                     	;# 
   979     0095                     	;# 
   980     0096                     	;# 
   981     0097                     	;# 
   982     0098                     	;# 
   983     0099                     	;# 
   984     009A                     	;# 
   985     009B                     	;# 
   986     009B                     	;# 
   987     009C                     	;# 
   988     009D                     	;# 
   989     009E                     	;# 
   990     009F                     	;# 
   991     010C                     	;# 
   992     010D                     	;# 
   993     010E                     	;# 
   994     0111                     	;# 
   995     0112                     	;# 
   996     0113                     	;# 
   997     0114                     	;# 
   998     0115                     	;# 
   999     0116                     	;# 
  1000     0117                     	;# 
  1001     0118                     	;# 
  1002     0119                     	;# 
  1003     011A                     	;# 
  1004     011B                     	;# 
  1005     011B                     	;# 
  1006     011C                     	;# 
  1007     018C                     	;# 
  1008     018D                     	;# 
  1009     018E                     	;# 
  1010     0191                     	;# 
  1011     0191                     	;# 
  1012     0192                     	;# 
  1013     0193                     	;# 
  1014     0193                     	;# 
  1015     0194                     	;# 
  1016     0195                     	;# 
  1017     0196                     	;# 
  1018     0197                     	;# 
  1019     0199                     	;# 
  1020     0199                     	;# 
  1021     0199                     	;# 
  1022     019A                     	;# 
  1023     019A                     	;# 
  1024     019A                     	;# 
  1025     019B                     	;# 
  1026     019B                     	;# 
  1027     019B                     	;# 
  1028     019B                     	;# 
  1029     019B                     	;# 
  1030     019C                     	;# 
  1031     019C                     	;# 
  1032     019C                     	;# 
  1033     019D                     	;# 
  1034     019D                     	;# 
  1035     019D                     	;# 
  1036     019E                     	;# 
  1037     019E                     	;# 
  1038     019E                     	;# 
  1039     019F                     	;# 
  1040     019F                     	;# 
  1041     019F                     	;# 
  1042     019F                     	;# 
  1043     019F                     	;# 
  1044     020C                     	;# 
  1045     020D                     	;# 
  1046     020E                     	;# 
  1047     0210                     	;# 
  1048     0211                     	;# 
  1049     0211                     	;# 
  1050     0212                     	;# 
  1051     0212                     	;# 
  1052     0213                     	;# 
  1053     0213                     	;# 
  1054     0214                     	;# 
  1055     0214                     	;# 
  1056     0215                     	;# 
  1057     0215                     	;# 
  1058     0215                     	;# 
  1059     0215                     	;# 
  1060     0216                     	;# 
  1061     0216                     	;# 
  1062     0217                     	;# 
  1063     0217                     	;# 
  1064     028C                     	;# 
  1065     028D                     	;# 
  1066     028E                     	;# 
  1067     0291                     	;# 
  1068     0291                     	;# 
  1069     0292                     	;# 
  1070     0293                     	;# 
  1071     0293                     	;# 
  1072     0298                     	;# 
  1073     0298                     	;# 
  1074     0299                     	;# 
  1075     029A                     	;# 
  1076     029A                     	;# 
  1077     029E                     	;# 
  1078     030C                     	;# 
  1079     030D                     	;# 
  1080     030E                     	;# 
  1081     038C                     	;# 
  1082     038D                     	;# 
  1083     038E                     	;# 
  1084     0390                     	;# 
  1085     0391                     	;# 
  1086     0392                     	;# 
  1087     0393                     	;# 
  1088     0394                     	;# 
  1089     0395                     	;# 
  1090     0396                     	;# 
  1091     0397                     	;# 
  1092     0398                     	;# 
  1093     0399                     	;# 
  1094     039D                     	;# 
  1095     039E                     	;# 
  1096     039F                     	;# 
  1097     0415                     	;# 
  1098     0416                     	;# 
  1099     0417                     	;# 
  1100     041C                     	;# 
  1101     041D                     	;# 
  1102     041E                     	;# 
  1103     0498                     	;# 
  1104     0498                     	;# 
  1105     0499                     	;# 
  1106     049A                     	;# 
  1107     049B                     	;# 
  1108     049B                     	;# 
  1109     049C                     	;# 
  1110     049D                     	;# 
  1111     049E                     	;# 
  1112     049F                     	;# 
  1113     0511                     	;# 
  1114     0515                     	;# 
  1115     0617                     	;# 
  1116     0618                     	;# 
  1117     0619                     	;# 
  1118     0619                     	;# 
  1119     061A                     	;# 
  1120     061B                     	;# 
  1121     061C                     	;# 
  1122     061C                     	;# 
  1123     0691                     	;# 
  1124     0692                     	;# 
  1125     0693                     	;# 
  1126     0694                     	;# 
  1127     0695                     	;# 
  1128     0696                     	;# 
  1129     0697                     	;# 
  1130     0698                     	;# 
  1131     0699                     	;# 
  1132     069A                     	;# 
  1133     069B                     	;# 
  1134     069C                     	;# 
  1135     069D                     	;# 
  1136     069E                     	;# 
  1137     069F                     	;# 
  1138     0E0F                     	;# 
  1139     0E10                     	;# 
  1140     0E11                     	;# 
  1141     0E12                     	;# 
  1142     0E13                     	;# 
  1143     0E14                     	;# 
  1144     0E15                     	;# 
  1145     0E17                     	;# 
  1146     0E20                     	;# 
  1147     0E21                     	;# 
  1148     0E22                     	;# 
  1149     0E24                     	;# 
  1150     0E25                     	;# 
  1151     0E28                     	;# 
  1152     0E29                     	;# 
  1153     0E2A                     	;# 
  1154     0E2B                     	;# 
  1155     0E90                     	;# 
  1156     0E91                     	;# 
  1157     0E92                     	;# 
  1158     0E93                     	;# 
  1159     0E94                     	;# 
  1160     0E95                     	;# 
  1161     0E96                     	;# 
  1162     0E97                     	;# 
  1163     0E98                     	;# 
  1164     0E99                     	;# 
  1165     0E9A                     	;# 
  1166     0E9B                     	;# 
  1167     0E9C                     	;# 
  1168     0E9D                     	;# 
  1169     0E9E                     	;# 
  1170     0E9F                     	;# 
  1171     0EA0                     	;# 
  1172     0EA1                     	;# 
  1173     0EA2                     	;# 
  1174     0EA3                     	;# 
  1175     0EA4                     	;# 
  1176     0EA5                     	;# 
  1177     0EA6                     	;# 
  1178     0EA7                     	;# 
  1179     0F0F                     	;# 
  1180     0F10                     	;# 
  1181     0F11                     	;# 
  1182     0F12                     	;# 
  1183     0F13                     	;# 
  1184     0F14                     	;# 
  1185     0F15                     	;# 
  1186     0F16                     	;# 
  1187     0F17                     	;# 
  1188     0F18                     	;# 
  1189     0F19                     	;# 
  1190     0F1A                     	;# 
  1191     0F1B                     	;# 
  1192     0F1C                     	;# 
  1193     0F1D                     	;# 
  1194     0F1E                     	;# 
  1195     0F1F                     	;# 
  1196     0F20                     	;# 
  1197     0F21                     	;# 
  1198     0F22                     	;# 
  1199     0F23                     	;# 
  1200     0F24                     	;# 
  1201     0F25                     	;# 
  1202     0F26                     	;# 
  1203     0F27                     	;# 
  1204     0F28                     	;# 
  1205     0F29                     	;# 
  1206     0F2A                     	;# 
  1207     0F2B                     	;# 
  1208     0F2C                     	;# 
  1209     0F2D                     	;# 
  1210     0F2E                     	;# 
  1211     0F2F                     	;# 
  1212     0F30                     	;# 
  1213     0F31                     	;# 
  1214     0F32                     	;# 
  1215     0F33                     	;# 
  1216     0F34                     	;# 
  1217     0F35                     	;# 
  1218     0F36                     	;# 
  1219     0F37                     	;# 
  1220     0FE4                     	;# 
  1221     0FE5                     	;# 
  1222     0FE6                     	;# 
  1223     0FE7                     	;# 
  1224     0FE8                     	;# 
  1225     0FE9                     	;# 
  1226     0FEA                     	;# 
  1227     0FEB                     	;# 
  1228     0FED                     	;# 
  1229     0FEE                     	;# 
  1230     0FEF                     	;# 
  1231     0012                     _PIR2bits	set	18
  1232     0011                     _PIR1bits	set	17
  1233     008E                     _TRISCbits	set	142
  1234     008D                     _TRISBbits	set	141
  1235     04CF                     _SPLLEN	set	1231
  1236     04CE                     _IRCF3	set	1230
  1237     04CD                     _IRCF2	set	1229
  1238     04CC                     _IRCF1	set	1228
  1239     04CB                     _IRCF0	set	1227
  1240     04C9                     _SCS1	set	1225
  1241     04C8                     _SCS0	set	1224
  1242     019A                     _TX1REG	set	410
  1243     0199                     _RC1REG	set	409
  1244     019D                     _RC1STAbits	set	413
  1245     019B                     _SPBRGL	set	411
  1246     018E                     _ANSELCbits	set	398
  1247     018D                     _ANSELBbits	set	397
  1248     0CF5                     _TXEN	set	3317
  1249     0CEC                     _CREN	set	3308
  1250     0CEF                     _SPEN	set	3311
  1251     0CF4                     _SYNC	set	3316
  1252     0CFB                     _BRG16	set	3323
  1253     0CF2                     _BRGH	set	3314
  1254     0211                     _SSPBUF	set	529
  1255     0216                     _SSPCON2bits	set	534
  1256     0214                     _SSPSTATbits	set	532
  1257     0216                     _SSPCON2	set	534
  1258     0215                     _SSPCON1bits	set	533
  1259     0212                     _SSPADD	set	530
  1260     0215                     _SSPCONbits	set	533
  1261     0E20                     _SSPCLKPPSbits	set	3616
  1262     0E21                     _SSPDATPPSbits	set	3617
  1263     0E24                     _RXPPSbits	set	3620
  1264     0E0F                     _PPSLOCKbits	set	3599
  1265     0E0F                     _PPSLOCK	set	3599
  1266     0EA5                     _RC5PPSbits	set	3749
  1267     0EA4                     _RC4PPSbits	set	3748
  1268     0E9A                     _RB2PPSbits	set	3738
  1269                           
  1270                           	psect	stringtext1
  1271     0800                     __pstringtext1:
  1272     0800                     STR_1:
  1273     0800  340A               	retlw	10
  1274     0801  343D               	retlw	61	;'='
  1275     0802  343D               	retlw	61	;'='
  1276     0803  343D               	retlw	61	;'='
  1277     0804  3420               	retlw	32	;' '
  1278     0805  3449               	retlw	73	;'I'
  1279     0806  3432               	retlw	50	;'2'
  1280     0807  3443               	retlw	67	;'C'
  1281     0808  3420               	retlw	32	;' '
  1282     0809  3445               	retlw	69	;'E'
  1283     080A  3445               	retlw	69	;'E'
  1284     080B  3450               	retlw	80	;'P'
  1285     080C  3452               	retlw	82	;'R'
  1286     080D  344F               	retlw	79	;'O'
  1287     080E  344D               	retlw	77	;'M'
  1288     080F  3420               	retlw	32	;' '
  1289     0810  3452               	retlw	82	;'R'
  1290     0811  3445               	retlw	69	;'E'
  1291     0812  3441               	retlw	65	;'A'
  1292     0813  3444               	retlw	68	;'D'
  1293     0814  342F               	retlw	47	;'/'
  1294     0815  3457               	retlw	87	;'W'
  1295     0816  3452               	retlw	82	;'R'
  1296     0817  3449               	retlw	73	;'I'
  1297     0818  3454               	retlw	84	;'T'
  1298     0819  3445               	retlw	69	;'E'
  1299     081A  3420               	retlw	32	;' '
  1300     081B  3444               	retlw	68	;'D'
  1301     081C  3445               	retlw	69	;'E'
  1302     081D  344D               	retlw	77	;'M'
  1303     081E  344F               	retlw	79	;'O'
  1304     081F  3420               	retlw	32	;' '
  1305     0820  343D               	retlw	61	;'='
  1306     0821  343D               	retlw	61	;'='
  1307     0822  343D               	retlw	61	;'='
  1308     0823  340A               	retlw	10
  1309     0824  3400               	retlw	0
  1310                           
  1311                           	psect	stringtext2
  1312     0825                     __pstringtext2:
  1313     0825                     STR_6:
  1314     0825  3457               	retlw	87	;'W'
  1315     0826  3452               	retlw	82	;'R'
  1316     0827  3449               	retlw	73	;'I'
  1317     0828  3454               	retlw	84	;'T'
  1318     0829  3445               	retlw	69	;'E'
  1319     082A  3420               	retlw	32	;' '
  1320     082B  3446               	retlw	70	;'F'
  1321     082C  3441               	retlw	65	;'A'
  1322     082D  3449               	retlw	73	;'I'
  1323     082E  344C               	retlw	76	;'L'
  1324     082F  3445               	retlw	69	;'E'
  1325     0830  3444               	retlw	68	;'D'
  1326     0831  342C               	retlw	44	;','
  1327     0832  3420               	retlw	32	;' '
  1328     0833  3453               	retlw	83	;'S'
  1329     0834  3454               	retlw	84	;'T'
  1330     0835  3441               	retlw	65	;'A'
  1331     0836  3454               	retlw	84	;'T'
  1332     0837  3455               	retlw	85	;'U'
  1333     0838  3453               	retlw	83	;'S'
  1334     0839  3420               	retlw	32	;' '
  1335     083A  343D               	retlw	61	;'='
  1336     083B  3420               	retlw	32	;' '
  1337     083C  3400               	retlw	0
  1338                           
  1339                           	psect	stringtext3
  1340     083D                     __pstringtext3:
  1341     083D                     STR_12:
  1342     083D  3452               	retlw	82	;'R'
  1343     083E  3445               	retlw	69	;'E'
  1344     083F  3441               	retlw	65	;'A'
  1345     0840  3444               	retlw	68	;'D'
  1346     0841  3420               	retlw	32	;' '
  1347     0842  3446               	retlw	70	;'F'
  1348     0843  3441               	retlw	65	;'A'
  1349     0844  3449               	retlw	73	;'I'
  1350     0845  344C               	retlw	76	;'L'
  1351     0846  3445               	retlw	69	;'E'
  1352     0847  3444               	retlw	68	;'D'
  1353     0848  342C               	retlw	44	;','
  1354     0849  3420               	retlw	32	;' '
  1355     084A  3453               	retlw	83	;'S'
  1356     084B  3454               	retlw	84	;'T'
  1357     084C  3441               	retlw	65	;'A'
  1358     084D  3454               	retlw	84	;'T'
  1359     084E  3455               	retlw	85	;'U'
  1360     084F  3453               	retlw	83	;'S'
  1361     0850  3420               	retlw	32	;' '
  1362     0851  343D               	retlw	61	;'='
  1363     0852  3420               	retlw	32	;' '
  1364     0853  3400               	retlw	0
  1365                           
  1366                           	psect	stringtext4
  1367     0854                     __pstringtext4:
  1368     0854                     STR_2:
  1369     0854  340A               	retlw	10
  1370     0855  3457               	retlw	87	;'W'
  1371     0856  3452               	retlw	82	;'R'
  1372     0857  3449               	retlw	73	;'I'
  1373     0858  3454               	retlw	84	;'T'
  1374     0859  3445               	retlw	69	;'E'
  1375     085A  3420               	retlw	32	;' '
  1376     085B  3443               	retlw	67	;'C'
  1377     085C  3459               	retlw	89	;'Y'
  1378     085D  3443               	retlw	67	;'C'
  1379     085E  344C               	retlw	76	;'L'
  1380     085F  3445               	retlw	69	;'E'
  1381     0860  340A               	retlw	10
  1382     0861  3400               	retlw	0
  1383                           
  1384                           	psect	stringtext5
  1385     0862                     __pstringtext5:
  1386     0862                     STR_9:
  1387     0862  340A               	retlw	10
  1388     0863  3452               	retlw	82	;'R'
  1389     0864  3445               	retlw	69	;'E'
  1390     0865  3441               	retlw	65	;'A'
  1391     0866  3444               	retlw	68	;'D'
  1392     0867  3420               	retlw	32	;' '
  1393     0868  3443               	retlw	67	;'C'
  1394     0869  3459               	retlw	89	;'Y'
  1395     086A  3443               	retlw	67	;'C'
  1396     086B  344C               	retlw	76	;'L'
  1397     086C  3445               	retlw	69	;'E'
  1398     086D  340A               	retlw	10
  1399     086E  3400               	retlw	0
  1400                           
  1401                           	psect	stringtext6
  1402     086F                     __pstringtext6:
  1403     086F                     STR_15:
  1404     086F  3452               	retlw	82	;'R'
  1405     0870  3465               	retlw	101	;'e'
  1406     0871  3461               	retlw	97	;'a'
  1407     0872  3464               	retlw	100	;'d'
  1408     0873  3420               	retlw	32	;' '
  1409     0874  3444               	retlw	68	;'D'
  1410     0875  3461               	retlw	97	;'a'
  1411     0876  3474               	retlw	116	;'t'
  1412     0877  3461               	retlw	97	;'a'
  1413     0878  343A               	retlw	58	;':'
  1414     0879  3420               	retlw	32	;' '
  1415     087A  3400               	retlw	0
  1416                           
  1417                           	psect	stringtext7
  1418     087B                     __pstringtext7:
  1419     087B                     STR_8:
  1420     087B  3457               	retlw	87	;'W'
  1421     087C  3452               	retlw	82	;'R'
  1422     087D  3449               	retlw	73	;'I'
  1423     087E  3454               	retlw	84	;'T'
  1424     087F  3445               	retlw	69	;'E'
  1425     0880  3420               	retlw	32	;' '
  1426     0881  344F               	retlw	79	;'O'
  1427     0882  344B               	retlw	75	;'K'
  1428     0883  340A               	retlw	10
  1429     0884  3400               	retlw	0
  1430                           
  1431                           	psect	stringtext8
  1432     0885                     __pstringtext8:
  1433     0885                     STR_18:
  1434     0885  3457               	retlw	87	;'W'
  1435     0886  3472               	retlw	114	;'r'
  1436     0887  3469               	retlw	105	;'i'
  1437     0888  3474               	retlw	116	;'t'
  1438     0889  3474               	retlw	116	;'t'
  1439     088A  3465               	retlw	101	;'e'
  1440     088B  346E               	retlw	110	;'n'
  1441     088C  343A               	retlw	58	;':'
  1442     088D  3420               	retlw	32	;' '
  1443     088E  3400               	retlw	0
  1444                           
  1445                           	psect	stringtext9
  1446     088F                     __pstringtext9:
  1447     088F                     STR_3:
  1448     088F  3441               	retlw	65	;'A'
  1449     0890  3464               	retlw	100	;'d'
  1450     0891  3464               	retlw	100	;'d'
  1451     0892  3472               	retlw	114	;'r'
  1452     0893  3465               	retlw	101	;'e'
  1453     0894  3473               	retlw	115	;'s'
  1454     0895  3473               	retlw	115	;'s'
  1455     0896  343A               	retlw	58	;':'
  1456     0897  3420               	retlw	32	;' '
  1457     0898  3400               	retlw	0
  1458                           
  1459                           	psect	stringtext10
  1460     0899                     __pstringtext10:
  1461     0899                     STR_14:
  1462     0899  3452               	retlw	82	;'R'
  1463     089A  3445               	retlw	69	;'E'
  1464     089B  3441               	retlw	65	;'A'
  1465     089C  3444               	retlw	68	;'D'
  1466     089D  3420               	retlw	32	;' '
  1467     089E  344F               	retlw	79	;'O'
  1468     089F  344B               	retlw	75	;'K'
  1469     08A0  340A               	retlw	10
  1470     08A1  3400               	retlw	0
  1471                           
  1472                           	psect	stringtext11
  1473     08A2                     __pstringtext11:
  1474     08A2                     STR_17:
  1475     08A2  340A               	retlw	10
  1476     08A3  3452               	retlw	82	;'R'
  1477     08A4  3445               	retlw	69	;'E'
  1478     08A5  3453               	retlw	83	;'S'
  1479     08A6  3455               	retlw	85	;'U'
  1480     08A7  344C               	retlw	76	;'L'
  1481     08A8  3454               	retlw	84	;'T'
  1482     08A9  340A               	retlw	10
  1483     08AA  3400               	retlw	0
  1484                           
  1485                           	psect	stringtext12
  1486     08AB                     __pstringtext12:
  1487     08AB                     STR_4:
  1488     08AB  3420               	retlw	32	;' '
  1489     08AC  3420               	retlw	32	;' '
  1490     08AD  3444               	retlw	68	;'D'
  1491     08AE  3461               	retlw	97	;'a'
  1492     08AF  3474               	retlw	116	;'t'
  1493     08B0  3461               	retlw	97	;'a'
  1494     08B1  343A               	retlw	58	;':'
  1495     08B2  3420               	retlw	32	;' '
  1496     08B3  3400               	retlw	0
  1497                           
  1498                           	psect	stringtext13
  1499     08B4                     __pstringtext13:
  1500     08B4                     STR_19:
  1501     08B4  3420               	retlw	32	;' '
  1502     08B5  3420               	retlw	32	;' '
  1503     08B6  3452               	retlw	82	;'R'
  1504     08B7  3465               	retlw	101	;'e'
  1505     08B8  3461               	retlw	97	;'a'
  1506     08B9  3464               	retlw	100	;'d'
  1507     08BA  343A               	retlw	58	;':'
  1508     08BB  3420               	retlw	32	;' '
  1509     08BC  3400               	retlw	0
  1510                           
  1511                           	psect	stringtext14
  1512     0000                     __pstringtext14:
  1513     0823                     
  1514                           	psect	cinit
  1515     07FD                     start_initialization:	
  1516                           ; #config settings
  1517                           
  1518     07FD                     __initialization:
  1519     07FD                     end_of_initialization:	
  1520                           ;End of C runtime variable initialization code
  1521                           
  1522     07FD                     __end_of__initialization:
  1523     07FD  0020               	movlb	0
  1524     07FE  3186  2ECA         	ljmp	_main	;jump to C main() function
  1525                           
  1526                           	psect	cstackCOMMON
  1527     0070                     __pcstackCOMMON:
  1528     0070                     ?_I2C_Start:
  1529     0070                     ?_I2C_WriteByte:	
  1530                           ; 1 bytes @ 0x0
  1531                           
  1532     0070                     ?_I2C_Stop:	
  1533                           ; 1 bytes @ 0x0
  1534                           
  1535     0070                     ?_I2C_RepeatedStart:	
  1536                           ; 1 bytes @ 0x0
  1537                           
  1538     0070                     ?_I2C_Init:	
  1539                           ; 1 bytes @ 0x0
  1540                           
  1541     0070                     ??_I2C_Init:	
  1542                           ; 1 bytes @ 0x0
  1543                           
  1544     0070                     ?_I2C_ClearErrors:	
  1545                           ; 1 bytes @ 0x0
  1546                           
  1547     0070                     ??_I2C_ClearErrors:	
  1548                           ; 1 bytes @ 0x0
  1549                           
  1550     0070                     ?_internal_32:	
  1551                           ; 1 bytes @ 0x0
  1552                           
  1553     0070                     ??_internal_32:	
  1554                           ; 1 bytes @ 0x0
  1555                           
  1556     0070                     ?_EEPROM_ControlByte:	
  1557                           ; 1 bytes @ 0x0
  1558                           
  1559     0070                     ?_initMain:	
  1560                           ; 1 bytes @ 0x0
  1561                           
  1562     0070                     ??_initMain:	
  1563                           ; 1 bytes @ 0x0
  1564                           
  1565     0070                     ?_main:	
  1566                           ; 1 bytes @ 0x0
  1567                           
  1568     0070                     ?_EUSART_Write:	
  1569                           ; 1 bytes @ 0x0
  1570                           
  1571     0070                     ??_EUSART_Write:	
  1572                           ; 1 bytes @ 0x0
  1573                           
  1574     0070                     ?_I2C_WaitIF:	
  1575                           ; 1 bytes @ 0x0
  1576                           
  1577     0070                     ?_I2C_WaitIdle:	
  1578                           ; 1 bytes @ 0x0
  1579                           
  1580     0070                     ?___wmul:	
  1581                           ; 1 bytes @ 0x0
  1582                           
  1583     0070                     ?___awdiv:	
  1584                           ; 2 bytes @ 0x0
  1585                           
  1586     0070                     ?___awmod:	
  1587                           ; 2 bytes @ 0x0
  1588                           
  1589     0070                     ?___aldiv:	
  1590                           ; 2 bytes @ 0x0
  1591                           
  1592     0070                     EUSART_Write@txData:	
  1593                           ; 4 bytes @ 0x0
  1594                           
  1595     0070                     EEPROM_ControlByte@memAddr:	
  1596                           ; 1 bytes @ 0x0
  1597                           
  1598     0070                     I2C_WaitIF@timeout_ms:	
  1599                           ; 2 bytes @ 0x0
  1600                           
  1601     0070                     I2C_WaitIdle@timeout_ms:	
  1602                           ; 2 bytes @ 0x0
  1603                           
  1604     0070                     ___wmul@multiplier:	
  1605                           ; 2 bytes @ 0x0
  1606                           
  1607     0070                     ___awdiv@divisor:	
  1608                           ; 2 bytes @ 0x0
  1609                           
  1610     0070                     ___awmod@divisor:	
  1611                           ; 2 bytes @ 0x0
  1612                           
  1613     0070                     ___aldiv@divisor:	
  1614                           ; 2 bytes @ 0x0
  1615                           
  1616                           
  1617                           ; 4 bytes @ 0x0
  1618     0070                     	ds	1
  1619     0071                     ?_EUSART_Write_Text:
  1620     0071                     EUSART_Write_Text@text:	
  1621                           ; 1 bytes @ 0x1
  1622                           
  1623                           
  1624                           ; 2 bytes @ 0x1
  1625     0071                     	ds	1
  1626     0072                     ??_I2C_WaitIF:
  1627     0072                     ??_I2C_WaitIdle:	
  1628                           ; 1 bytes @ 0x2
  1629                           
  1630     0072                     EEPROM_ControlByte@read:	
  1631                           ; 1 bytes @ 0x2
  1632                           
  1633     0072                     ___wmul@multiplicand:	
  1634                           ; 1 bytes @ 0x2
  1635                           
  1636     0072                     ___awdiv@dividend:	
  1637                           ; 2 bytes @ 0x2
  1638                           
  1639     0072                     ___awmod@dividend:	
  1640                           ; 2 bytes @ 0x2
  1641                           
  1642                           
  1643                           ; 2 bytes @ 0x2
  1644     0072                     	ds	1
  1645     0073                     ??_I2C_Start:
  1646     0073                     ??_I2C_WriteByte:	
  1647                           ; 1 bytes @ 0x3
  1648                           
  1649     0073                     ??_I2C_Stop:	
  1650                           ; 1 bytes @ 0x3
  1651                           
  1652     0073                     ??_I2C_RepeatedStart:	
  1653                           ; 1 bytes @ 0x3
  1654                           
  1655     0073                     ?_I2C_ReadByte:	
  1656                           ; 1 bytes @ 0x3
  1657                           
  1658     0073                     ??_EUSART_Write_Text:	
  1659                           ; 1 bytes @ 0x3
  1660                           
  1661     0073                     ??_EEPROM_ControlByte:	
  1662                           ; 1 bytes @ 0x3
  1663                           
  1664     0073                     EEPROM_ControlByte@block:	
  1665                           ; 1 bytes @ 0x3
  1666                           
  1667     0073                     I2C_Start@st:	
  1668                           ; 1 bytes @ 0x3
  1669                           
  1670     0073                     I2C_RepeatedStart@st:	
  1671                           ; 1 bytes @ 0x3
  1672                           
  1673     0073                     I2C_Stop@st:	
  1674                           ; 1 bytes @ 0x3
  1675                           
  1676     0073                     I2C_WriteByte@data:	
  1677                           ; 1 bytes @ 0x3
  1678                           
  1679     0073                     I2C_ReadByte@ack:	
  1680                           ; 1 bytes @ 0x3
  1681                           
  1682                           
  1683                           ; 1 bytes @ 0x3
  1684     0073                     	ds	1
  1685     0074                     ??_I2C_ReadByte:
  1686     0074                     ??___wmul:	
  1687                           ; 1 bytes @ 0x4
  1688                           
  1689     0074                     ??___awdiv:	
  1690                           ; 1 bytes @ 0x4
  1691                           
  1692     0074                     ??___awmod:	
  1693                           ; 1 bytes @ 0x4
  1694                           
  1695     0074                     EEPROM_ControlByte@ctrl:	
  1696                           ; 1 bytes @ 0x4
  1697                           
  1698     0074                     I2C_WriteByte@st:	
  1699                           ; 1 bytes @ 0x4
  1700                           
  1701     0074                     I2C_ReadByte@data:	
  1702                           ; 1 bytes @ 0x4
  1703                           
  1704     0074                     EUSART_Write_Text@i:	
  1705                           ; 1 bytes @ 0x4
  1706                           
  1707     0074                     ___wmul@product:	
  1708                           ; 2 bytes @ 0x4
  1709                           
  1710     0074                     ___aldiv@dividend:	
  1711                           ; 2 bytes @ 0x4
  1712                           
  1713                           
  1714                           ; 4 bytes @ 0x4
  1715     0074                     	ds	1
  1716     0075                     ?_EEPROM_AckPoll:
  1717     0075                     I2C_ReadByte@st:	
  1718                           ; 1 bytes @ 0x5
  1719                           
  1720     0075                     ___awdiv@counter:	
  1721                           ; 1 bytes @ 0x5
  1722                           
  1723     0075                     ___awmod@counter:	
  1724                           ; 1 bytes @ 0x5
  1725                           
  1726     0075                     EEPROM_AckPoll@memAddr:	
  1727                           ; 1 bytes @ 0x5
  1728                           
  1729                           
  1730                           ; 2 bytes @ 0x5
  1731     0075                     	ds	1
  1732     0076                     ?_EEPROM_ReadByte:
  1733     0076                     ___awdiv@sign:	
  1734                           ; 1 bytes @ 0x6
  1735                           
  1736     0076                     ___awmod@sign:	
  1737                           ; 1 bytes @ 0x6
  1738                           
  1739     0076                     EEPROM_ReadByte@memAddr:	
  1740                           ; 1 bytes @ 0x6
  1741                           
  1742                           
  1743                           ; 2 bytes @ 0x6
  1744     0076                     	ds	1
  1745     0077                     ??_EEPROM_AckPoll:
  1746     0077                     ___awdiv@quotient:	
  1747                           ; 1 bytes @ 0x7
  1748                           
  1749                           
  1750                           ; 2 bytes @ 0x7
  1751     0077                     	ds	1
  1752     0078                     ??___aldiv:
  1753     0078                     EEPROM_ReadByte@data:	
  1754                           ; 1 bytes @ 0x8
  1755                           
  1756     0078                     EEPROM_AckPoll@t:	
  1757                           ; 1 bytes @ 0x8
  1758                           
  1759                           
  1760                           ; 2 bytes @ 0x8
  1761     0078                     	ds	1
  1762     0079                     ??_EEPROM_ReadByte:
  1763     0079                     ?_itoa:	
  1764                           ; 1 bytes @ 0x9
  1765                           
  1766     0079                     EEPROM_ReadByte@st:	
  1767                           ; 1 bytes @ 0x9
  1768                           
  1769     0079                     EUSART_Initialize@x:	
  1770                           ; 1 bytes @ 0x9
  1771                           
  1772     0079                     itoa@d:	
  1773                           ; 2 bytes @ 0x9
  1774                           
  1775                           
  1776                           ; 2 bytes @ 0x9
  1777     0079                     	ds	1
  1778     007A                     EEPROM_AckPoll@st:
  1779                           
  1780                           ; 1 bytes @ 0xA
  1781     007A                     	ds	1
  1782     007B                     ?_EUSART_Write_Integer:
  1783     007B                     ?_EEPROM_WriteByte:	
  1784                           ; 1 bytes @ 0xB
  1785                           
  1786     007B                     ??_itoa:	
  1787                           ; 1 bytes @ 0xB
  1788                           
  1789     007B                     EEPROM_WriteByte@memAddr:	
  1790                           ; 1 bytes @ 0xB
  1791                           
  1792     007B                     EUSART_Write_Integer@value_to_send:	
  1793                           ; 2 bytes @ 0xB
  1794                           
  1795                           
  1796                           ; 2 bytes @ 0xB
  1797     007B                     	ds	2
  1798     007D                     ??_EUSART_Write_Integer:
  1799     007D                     EEPROM_WriteByte@data:	
  1800                           ; 1 bytes @ 0xD
  1801                           
  1802                           
  1803                           ; 1 bytes @ 0xD
  1804     007D                     	ds	1
  1805     007E                     ??_EEPROM_WriteByte:
  1806                           
  1807                           	psect	cstackBANK0
  1808     0020                     __pcstackBANK0:	
  1809                           ; 1 bytes @ 0xE
  1810                           
  1811     0020                     EEPROM_WriteByte@st:
  1812     0020                     ___aldiv@counter:	
  1813                           ; 1 bytes @ 0x0
  1814                           
  1815     0020                     itoa@num:	
  1816                           ; 1 bytes @ 0x0
  1817                           
  1818                           
  1819                           ; 2 bytes @ 0x0
  1820     0020                     	ds	1
  1821     0021                     ___aldiv@sign:
  1822                           
  1823                           ; 1 bytes @ 0x1
  1824     0021                     	ds	1
  1825     0022                     itoa@temp:
  1826     0022                     ___aldiv@quotient:	
  1827                           ; 2 bytes @ 0x2
  1828                           
  1829                           
  1830                           ; 4 bytes @ 0x2
  1831     0022                     	ds	2
  1832     0024                     itoa@buf:
  1833                           
  1834                           ; 1 bytes @ 0x4
  1835     0024                     	ds	1
  1836     0025                     itoa@div:
  1837                           
  1838                           ; 2 bytes @ 0x5
  1839     0025                     	ds	1
  1840     0026                     ?_EUSART_Initialize:
  1841     0026                     EUSART_Initialize@baudrate:	
  1842                           ; 1 bytes @ 0x6
  1843                           
  1844                           
  1845                           ; 4 bytes @ 0x6
  1846     0026                     	ds	1
  1847     0027                     EUSART_Write_Integer@buffer:
  1848                           
  1849                           ; 20 bytes @ 0x7
  1850     0027                     	ds	3
  1851     002A                     ??_EUSART_Initialize:
  1852                           
  1853                           ; 1 bytes @ 0xA
  1854     002A                     	ds	17
  1855     003B                     EUSART_Write_Integer@ptr:
  1856                           
  1857                           ; 1 bytes @ 0x1B
  1858     003B                     	ds	1
  1859     003C                     EUSART_Write_Integer@temp_ptr:
  1860                           
  1861                           ; 1 bytes @ 0x1C
  1862     003C                     	ds	1
  1863     003D                     ??_main:
  1864                           
  1865                           ; 1 bytes @ 0x1D
  1866     003D                     	ds	2
  1867     003F                     main@writeVal:
  1868                           
  1869                           ; 1 bytes @ 0x1F
  1870     003F                     	ds	1
  1871     0040                     main@readVal:
  1872                           
  1873                           ; 1 bytes @ 0x20
  1874     0040                     	ds	1
  1875     0041                     main@address:
  1876                           
  1877                           ; 2 bytes @ 0x21
  1878     0041                     	ds	2
  1879     0043                     main@status:
  1880                           
  1881                           ; 1 bytes @ 0x23
  1882     0043                     	ds	1
  1883                           
  1884                           	psect	maintext
  1885     06CA                     __pmaintext:	
  1886 ;;
  1887 ;;Main: autosize = 0, tempsize = 2, incstack = 0, save=0
  1888 ;;
  1889 ;; *************** function _main *****************
  1890 ;; Defined at:
  1891 ;;		line 167 in file "main.c"
  1892 ;; Parameters:    Size  Location     Type
  1893 ;;		None
  1894 ;; Auto vars:     Size  Location     Type
  1895 ;;  status          1   35[BANK0 ] enum E6055
  1896 ;;  address         2   33[BANK0 ] unsigned short 
  1897 ;;  readVal         1   32[BANK0 ] unsigned char 
  1898 ;;  writeVal        1   31[BANK0 ] unsigned char 
  1899 ;; Return value:  Size  Location     Type
  1900 ;;                  1    wreg      void 
  1901 ;; Registers used:
  1902 ;;		wreg, fsr0l, fsr0h, fsr1l, fsr1h, status,2, status,0, pclath, cstack
  1903 ;; Tracked objects:
  1904 ;;		On entry : B1F/0
  1905 ;;		On exit  : 0/0
  1906 ;;		Unchanged: 0/0
  1907 ;; Data sizes:     COMMON   BANK0   BANK1   BANK2   BANK3   BANK4   BANK5   BANK6   BANK7   BANK8   BANK9  BANK10  BANK1
      +1  BANK12  BANK13  BANK14  BANK15  BANK16  BANK17  BANK18  BANK19  BANK20  BANK21  BANK22  BANK23  BANK24  BANK25
  1908 ;;      Params:         0       0       0       0       0       0       0       0       0       0       0       0       
      +0       0       0       0       0       0       0       0       0       0       0       0       0       0       0
  1909 ;;      Locals:         0       5       0       0       0       0       0       0       0       0       0       0       
      +0       0       0       0       0       0       0       0       0       0       0       0       0       0       0
  1910 ;;      Temps:          0       2       0       0       0       0       0       0       0       0       0       0       
      +0       0       0       0       0       0       0       0       0       0       0       0       0       0       0
  1911 ;;      Totals:         0       7       0       0       0       0       0       0       0       0       0       0       
      +0       0       0       0       0       0       0       0       0       0       0       0       0       0       0
  1912 ;;Total ram usage:        7 bytes
  1913 ;; Hardware stack levels required when called: 4
  1914 ;; This function calls:
  1915 ;;		_EEPROM_ReadByte
  1916 ;;		_EEPROM_WriteByte
  1917 ;;		_EUSART_Initialize
  1918 ;;		_EUSART_Write_Integer
  1919 ;;		_EUSART_Write_Text
  1920 ;;		_I2C_Init
  1921 ;;		_initMain
  1922 ;; This function is called by:
  1923 ;;		Startup code after reset
  1924 ;; This function uses a non-reentrant model
  1925 ;;
  1926                           
  1927     06CA                     _main:	
  1928                           ;psect for function _main
  1929                           
  1930     06CA                     l1951:	
  1931                           ;incstack = 0
  1932                           ; Regs used in _main: [wreg-fsr1h+status,2+status,0+pclath+cstack]
  1933                           
  1934                           
  1935                           ;main.c: 169:     initMain();
  1936     06CA  3183  237D  3186   	fcall	_initMain
  1937                           
  1938                           ;main.c: 171:     EUSART_Initialize(19200);
  1939     06CD  3000               	movlw	0
  1940     06CE  0020               	movlb	0	; select bank0
  1941     06CF  00A9               	movwf	EUSART_Initialize@baudrate+3
  1942     06D0  3000               	movlw	0
  1943     06D1  00A8               	movwf	EUSART_Initialize@baudrate+2
  1944     06D2  304B               	movlw	75
  1945     06D3  00A7               	movwf	EUSART_Initialize@baudrate+1
  1946     06D4  3000               	movlw	0
  1947     06D5  00A6               	movwf	EUSART_Initialize@baudrate
  1948     06D6  3184  249F  3186   	fcall	_EUSART_Initialize
  1949                           
  1950                           ;main.c: 172:     I2C_Init();
  1951     06D9  3181  21EE  3186   	fcall	_I2C_Init
  1952     06DC                     l1953:
  1953                           
  1954                           ;main.c: 174:     EUSART_Write_Text("\n=== I2C EEPROM READ/WRITE DEMO ===\n");
  1955     06DC  3000               	movlw	low (STR_1| (0+32768))
  1956     06DD  00F1               	movwf	EUSART_Write_Text@text
  1957     06DE  3088               	movlw	high (STR_1| (0+32768))
  1958     06DF  00F2               	movwf	EUSART_Write_Text@text+1
  1959     06E0  3182  2202  3186   	fcall	_EUSART_Write_Text
  1960     06E3                     l1955:
  1961                           
  1962                           ;main.c: 176:     uint16_t address = 0;
  1963     06E3  0020               	movlb	0	; select bank0
  1964     06E4  01C1               	clrf	main@address
  1965     06E5  01C2               	clrf	main@address+1
  1966     06E6                     l1957:
  1967                           
  1968                           ;main.c: 177:     uint8_t writeVal = 10;
  1969     06E6  300A               	movlw	10
  1970     06E7  00BF               	movwf	main@writeVal
  1971     06E8                     l1959:
  1972                           
  1973                           ;main.c: 178:     uint8_t readVal = 0;
  1974     06E8  01C0               	clrf	main@readVal
  1975     06E9                     l1961:
  1976                           
  1977                           ;main.c: 181:     {;main.c: 182:         I2C_Status_t status;;main.c: 185:         EUSAR
      +                          T_Write_Text("\nWRITE CYCLE\n");
  1978     06E9  3054               	movlw	low (STR_2| (0+32768))
  1979     06EA  00F1               	movwf	EUSART_Write_Text@text
  1980     06EB  3088               	movlw	high (STR_2| (0+32768))
  1981     06EC  00F2               	movwf	EUSART_Write_Text@text+1
  1982     06ED  3182  2202  3186   	fcall	_EUSART_Write_Text
  1983     06F0                     l1963:
  1984                           
  1985                           ;main.c: 186:         EUSART_Write_Text("Address: ");
  1986     06F0  308F               	movlw	low (STR_3| (0+32768))
  1987     06F1  00F1               	movwf	EUSART_Write_Text@text
  1988     06F2  3088               	movlw	high (STR_3| (0+32768))
  1989     06F3  00F2               	movwf	EUSART_Write_Text@text+1
  1990     06F4  3182  2202  3186   	fcall	_EUSART_Write_Text
  1991     06F7                     l1965:
  1992                           
  1993                           ;main.c: 187:         EUSART_Write_Integer(address);
  1994     06F7  0020               	movlb	0	; select bank0
  1995     06F8  0842               	movf	main@address+1,w
  1996     06F9  00FC               	movwf	EUSART_Write_Integer@value_to_send+1
  1997     06FA  0841               	movf	main@address,w
  1998     06FB  00FB               	movwf	EUSART_Write_Integer@value_to_send
  1999     06FC  3182  22A3  3186   	fcall	_EUSART_Write_Integer
  2000     06FF                     l1967:
  2001                           
  2002                           ;main.c: 188:         EUSART_Write_Text("  Data: ");
  2003     06FF  30AB               	movlw	low (STR_4| (0+32768))
  2004     0700  00F1               	movwf	EUSART_Write_Text@text
  2005     0701  3088               	movlw	high (STR_4| (0+32768))
  2006     0702  00F2               	movwf	EUSART_Write_Text@text+1
  2007     0703  3182  2202  3186   	fcall	_EUSART_Write_Text
  2008     0706                     l1969:
  2009                           
  2010                           ;main.c: 189:         EUSART_Write_Integer(writeVal);
  2011     0706  0020               	movlb	0	; select bank0
  2012     0707  083F               	movf	main@writeVal,w
  2013     0708  00BD               	movwf	??_main
  2014     0709  01BE               	clrf	??_main+1
  2015     070A  083D               	movf	??_main,w
  2016     070B  00FB               	movwf	EUSART_Write_Integer@value_to_send
  2017     070C  083E               	movf	??_main+1,w
  2018     070D  00FC               	movwf	EUSART_Write_Integer@value_to_send+1
  2019     070E  3182  22A3  3186   	fcall	_EUSART_Write_Integer
  2020     0711                     l1971:
  2021                           
  2022                           ;main.c: 190:         EUSART_Write_Text("\n");
  2023     0711  3023               	movlw	low ((STR_1+35)| (0+32768))
  2024     0712  00F1               	movwf	EUSART_Write_Text@text
  2025     0713  3088               	movlw	high ((STR_1+35)| (0+32768))
  2026     0714  00F2               	movwf	EUSART_Write_Text@text+1
  2027     0715  3182  2202  3186   	fcall	_EUSART_Write_Text
  2028     0718                     l1973:
  2029                           
  2030                           ;main.c: 192:         status = EEPROM_WriteByte(address, writeVal);
  2031     0718  0020               	movlb	0	; select bank0
  2032     0719  0842               	movf	main@address+1,w
  2033     071A  00FC               	movwf	EEPROM_WriteByte@memAddr+1
  2034     071B  0841               	movf	main@address,w
  2035     071C  00FB               	movwf	EEPROM_WriteByte@memAddr
  2036     071D  083F               	movf	main@writeVal,w
  2037     071E  00FD               	movwf	EEPROM_WriteByte@data
  2038     071F  3183  23BB  3186   	fcall	_EEPROM_WriteByte
  2039     0722  0020               	movlb	0	; select bank0
  2040     0723  00C3               	movwf	main@status
  2041     0724                     l1975:
  2042                           
  2043                           ;main.c: 194:         if (status != I2C_OK)
  2044     0724  0843               	movf	main@status,w
  2045     0725  1903               	btfsc	3,2
  2046     0726  2F28               	goto	u1561
  2047     0727  2F29               	goto	u1560
  2048     0728                     u1561:
  2049     0728  2F43               	goto	l1983
  2050     0729                     u1560:
  2051     0729                     l1977:
  2052                           
  2053                           ;main.c: 195:         {;main.c: 196:             EUSART_Write_Text("WRITE FAILED, STATUS
      +                           = ");
  2054     0729  3025               	movlw	low (STR_6| (0+32768))
  2055     072A  00F1               	movwf	EUSART_Write_Text@text
  2056     072B  3088               	movlw	high (STR_6| (0+32768))
  2057     072C  00F2               	movwf	EUSART_Write_Text@text+1
  2058     072D  3182  2202  3186   	fcall	_EUSART_Write_Text
  2059     0730                     l1979:
  2060                           
  2061                           ;main.c: 197:             EUSART_Write_Integer(status);
  2062     0730  0020               	movlb	0	; select bank0
  2063     0731  0843               	movf	main@status,w
  2064     0732  00BD               	movwf	??_main
  2065     0733  01BE               	clrf	??_main+1
  2066     0734  083D               	movf	??_main,w
  2067     0735  00FB               	movwf	EUSART_Write_Integer@value_to_send
  2068     0736  083E               	movf	??_main+1,w
  2069     0737  00FC               	movwf	EUSART_Write_Integer@value_to_send+1
  2070     0738  3182  22A3  3186   	fcall	_EUSART_Write_Integer
  2071     073B                     l1981:
  2072                           
  2073                           ;main.c: 198:             EUSART_Write_Text("\n");
  2074     073B  3023               	movlw	low ((STR_1+35)| (0+32768))
  2075     073C  00F1               	movwf	EUSART_Write_Text@text
  2076     073D  3088               	movlw	high ((STR_1+35)| (0+32768))
  2077     073E  00F2               	movwf	EUSART_Write_Text@text+1
  2078     073F  3182  2202  3186   	fcall	_EUSART_Write_Text
  2079                           
  2080                           ;main.c: 199:         }
  2081     0742  2F4A               	goto	l116
  2082     0743                     l1983:
  2083                           
  2084                           ;main.c: 201:         {;main.c: 202:             EUSART_Write_Text("WRITE OK\n");
  2085     0743  307B               	movlw	low (STR_8| (0+32768))
  2086     0744  00F1               	movwf	EUSART_Write_Text@text
  2087     0745  3088               	movlw	high (STR_8| (0+32768))
  2088     0746  00F2               	movwf	EUSART_Write_Text@text+1
  2089     0747  3182  2202  3186   	fcall	_EUSART_Write_Text
  2090     074A                     l116:	
  2091                           ;main.c: 203:         }
  2092                           
  2093                           
  2094                           ;main.c: 206:         EUSART_Write_Text("\nREAD CYCLE\n");
  2095     074A  3062               	movlw	low (STR_9| (0+32768))
  2096     074B  00F1               	movwf	EUSART_Write_Text@text
  2097     074C  3088               	movlw	high (STR_9| (0+32768))
  2098     074D  00F2               	movwf	EUSART_Write_Text@text+1
  2099     074E  3182  2202  3186   	fcall	_EUSART_Write_Text
  2100                           
  2101                           ;main.c: 207:         EUSART_Write_Text("Address: ");
  2102     0751  308F               	movlw	low (STR_3| (0+32768))
  2103     0752  00F1               	movwf	EUSART_Write_Text@text
  2104     0753  3088               	movlw	high (STR_3| (0+32768))
  2105     0754  00F2               	movwf	EUSART_Write_Text@text+1
  2106     0755  3182  2202  3186   	fcall	_EUSART_Write_Text
  2107     0758                     l1985:
  2108                           
  2109                           ;main.c: 208:         EUSART_Write_Integer(address);
  2110     0758  0020               	movlb	0	; select bank0
  2111     0759  0842               	movf	main@address+1,w
  2112     075A  00FC               	movwf	EUSART_Write_Integer@value_to_send+1
  2113     075B  0841               	movf	main@address,w
  2114     075C  00FB               	movwf	EUSART_Write_Integer@value_to_send
  2115     075D  3182  22A3  3186   	fcall	_EUSART_Write_Integer
  2116     0760                     l1987:
  2117                           
  2118                           ;main.c: 209:         EUSART_Write_Text("\n");
  2119     0760  3023               	movlw	low ((STR_1+35)| (0+32768))
  2120     0761  00F1               	movwf	EUSART_Write_Text@text
  2121     0762  3088               	movlw	high ((STR_1+35)| (0+32768))
  2122     0763  00F2               	movwf	EUSART_Write_Text@text+1
  2123     0764  3182  2202  3186   	fcall	_EUSART_Write_Text
  2124     0767                     l1989:
  2125                           
  2126                           ;main.c: 211:         status = EEPROM_ReadByte(address, &readVal);
  2127     0767  0020               	movlb	0	; select bank0
  2128     0768  0842               	movf	main@address+1,w
  2129     0769  00F7               	movwf	EEPROM_ReadByte@memAddr+1
  2130     076A  0841               	movf	main@address,w
  2131     076B  00F6               	movwf	EEPROM_ReadByte@memAddr
  2132     076C  3040               	movlw	(low (main@readVal| 0))& (0+255)
  2133     076D  00F8               	movwf	EEPROM_ReadByte@data
  2134     076E  3184  244F  3186   	fcall	_EEPROM_ReadByte
  2135     0771  0020               	movlb	0	; select bank0
  2136     0772  00C3               	movwf	main@status
  2137     0773                     l1991:
  2138                           
  2139                           ;main.c: 213:         if (status != I2C_OK)
  2140     0773  0843               	movf	main@status,w
  2141     0774  1903               	btfsc	3,2
  2142     0775  2F77               	goto	u1571
  2143     0776  2F78               	goto	u1570
  2144     0777                     u1571:
  2145     0777  2F92               	goto	l1999
  2146     0778                     u1570:
  2147     0778                     l1993:
  2148                           
  2149                           ;main.c: 214:         {;main.c: 215:             EUSART_Write_Text("READ FAILED, STATUS 
      +                          = ");
  2150     0778  303D               	movlw	low (STR_12| (0+32768))
  2151     0779  00F1               	movwf	EUSART_Write_Text@text
  2152     077A  3088               	movlw	high (STR_12| (0+32768))
  2153     077B  00F2               	movwf	EUSART_Write_Text@text+1
  2154     077C  3182  2202  3186   	fcall	_EUSART_Write_Text
  2155     077F                     l1995:
  2156                           
  2157                           ;main.c: 216:             EUSART_Write_Integer(status);
  2158     077F  0020               	movlb	0	; select bank0
  2159     0780  0843               	movf	main@status,w
  2160     0781  00BD               	movwf	??_main
  2161     0782  01BE               	clrf	??_main+1
  2162     0783  083D               	movf	??_main,w
  2163     0784  00FB               	movwf	EUSART_Write_Integer@value_to_send
  2164     0785  083E               	movf	??_main+1,w
  2165     0786  00FC               	movwf	EUSART_Write_Integer@value_to_send+1
  2166     0787  3182  22A3  3186   	fcall	_EUSART_Write_Integer
  2167     078A                     l1997:
  2168                           
  2169                           ;main.c: 217:             EUSART_Write_Text("\n");
  2170     078A  3023               	movlw	low ((STR_1+35)| (0+32768))
  2171     078B  00F1               	movwf	EUSART_Write_Text@text
  2172     078C  3088               	movlw	high ((STR_1+35)| (0+32768))
  2173     078D  00F2               	movwf	EUSART_Write_Text@text+1
  2174     078E  3182  2202  3186   	fcall	_EUSART_Write_Text
  2175                           
  2176                           ;main.c: 218:         }
  2177     0791  2FB2               	goto	l2005
  2178     0792                     l1999:
  2179                           
  2180                           ;main.c: 220:         {;main.c: 221:             EUSART_Write_Text("READ OK\n");
  2181     0792  3099               	movlw	low (STR_14| (0+32768))
  2182     0793  00F1               	movwf	EUSART_Write_Text@text
  2183     0794  3088               	movlw	high (STR_14| (0+32768))
  2184     0795  00F2               	movwf	EUSART_Write_Text@text+1
  2185     0796  3182  2202  3186   	fcall	_EUSART_Write_Text
  2186                           
  2187                           ;main.c: 222:             EUSART_Write_Text("Read Data: ");
  2188     0799  306F               	movlw	low (STR_15| (0+32768))
  2189     079A  00F1               	movwf	EUSART_Write_Text@text
  2190     079B  3088               	movlw	high (STR_15| (0+32768))
  2191     079C  00F2               	movwf	EUSART_Write_Text@text+1
  2192     079D  3182  2202  3186   	fcall	_EUSART_Write_Text
  2193     07A0                     l2001:
  2194                           
  2195                           ;main.c: 223:             EUSART_Write_Integer(readVal);
  2196     07A0  0020               	movlb	0	; select bank0
  2197     07A1  0840               	movf	main@readVal,w
  2198     07A2  00BD               	movwf	??_main
  2199     07A3  01BE               	clrf	??_main+1
  2200     07A4  083D               	movf	??_main,w
  2201     07A5  00FB               	movwf	EUSART_Write_Integer@value_to_send
  2202     07A6  083E               	movf	??_main+1,w
  2203     07A7  00FC               	movwf	EUSART_Write_Integer@value_to_send+1
  2204     07A8  3182  22A3  3186   	fcall	_EUSART_Write_Integer
  2205     07AB                     l2003:
  2206                           
  2207                           ;main.c: 224:             EUSART_Write_Text("\n");
  2208     07AB  3023               	movlw	low ((STR_1+35)| (0+32768))
  2209     07AC  00F1               	movwf	EUSART_Write_Text@text
  2210     07AD  3088               	movlw	high ((STR_1+35)| (0+32768))
  2211     07AE  00F2               	movwf	EUSART_Write_Text@text+1
  2212     07AF  3182  2202  3186   	fcall	_EUSART_Write_Text
  2213     07B2                     l2005:
  2214                           
  2215                           ;main.c: 228:         EUSART_Write_Text("\nRESULT\n");
  2216     07B2  30A2               	movlw	low (STR_17| (0+32768))
  2217     07B3  00F1               	movwf	EUSART_Write_Text@text
  2218     07B4  3088               	movlw	high (STR_17| (0+32768))
  2219     07B5  00F2               	movwf	EUSART_Write_Text@text+1
  2220     07B6  3182  2202  3186   	fcall	_EUSART_Write_Text
  2221     07B9                     l2007:
  2222                           
  2223                           ;main.c: 229:         EUSART_Write_Text("Written: ");
  2224     07B9  3085               	movlw	low (STR_18| (0+32768))
  2225     07BA  00F1               	movwf	EUSART_Write_Text@text
  2226     07BB  3088               	movlw	high (STR_18| (0+32768))
  2227     07BC  00F2               	movwf	EUSART_Write_Text@text+1
  2228     07BD  3182  2202  3186   	fcall	_EUSART_Write_Text
  2229                           
  2230                           ;main.c: 230:         EUSART_Write_Integer(writeVal);
  2231     07C0  0020               	movlb	0	; select bank0
  2232     07C1  083F               	movf	main@writeVal,w
  2233     07C2  00BD               	movwf	??_main
  2234     07C3  01BE               	clrf	??_main+1
  2235     07C4  083D               	movf	??_main,w
  2236     07C5  00FB               	movwf	EUSART_Write_Integer@value_to_send
  2237     07C6  083E               	movf	??_main+1,w
  2238     07C7  00FC               	movwf	EUSART_Write_Integer@value_to_send+1
  2239     07C8  3182  22A3  3186   	fcall	_EUSART_Write_Integer
  2240     07CB                     l2009:
  2241                           
  2242                           ;main.c: 231:         EUSART_Write_Text("  Read: ");
  2243     07CB  30B4               	movlw	low (STR_19| (0+32768))
  2244     07CC  00F1               	movwf	EUSART_Write_Text@text
  2245     07CD  3088               	movlw	high (STR_19| (0+32768))
  2246     07CE  00F2               	movwf	EUSART_Write_Text@text+1
  2247     07CF  3182  2202  3186   	fcall	_EUSART_Write_Text
  2248     07D2                     l2011:
  2249                           
  2250                           ;main.c: 232:         EUSART_Write_Integer(readVal);
  2251     07D2  0020               	movlb	0	; select bank0
  2252     07D3  0840               	movf	main@readVal,w
  2253     07D4  00BD               	movwf	??_main
  2254     07D5  01BE               	clrf	??_main+1
  2255     07D6  083D               	movf	??_main,w
  2256     07D7  00FB               	movwf	EUSART_Write_Integer@value_to_send
  2257     07D8  083E               	movf	??_main+1,w
  2258     07D9  00FC               	movwf	EUSART_Write_Integer@value_to_send+1
  2259     07DA  3182  22A3  3186   	fcall	_EUSART_Write_Integer
  2260                           
  2261                           ;main.c: 233:         EUSART_Write_Text("\n");
  2262     07DD  3023               	movlw	low ((STR_1+35)| (0+32768))
  2263     07DE  00F1               	movwf	EUSART_Write_Text@text
  2264     07DF  3088               	movlw	high ((STR_1+35)| (0+32768))
  2265     07E0  00F2               	movwf	EUSART_Write_Text@text+1
  2266     07E1  3182  2202  3186   	fcall	_EUSART_Write_Text
  2267     07E4                     l2013:
  2268                           
  2269                           ;main.c: 236:         writeVal += 3;
  2270     07E4  3003               	movlw	3
  2271     07E5  0020               	movlb	0	; select bank0
  2272     07E6  00BD               	movwf	??_main
  2273     07E7  083D               	movf	??_main,w
  2274     07E8  07BF               	addwf	main@writeVal,f
  2275     07E9                     l2015:
  2276                           
  2277                           ;main.c: 237:         address++;
  2278     07E9  3001               	movlw	1
  2279     07EA  07C1               	addwf	main@address,f
  2280     07EB  3000               	movlw	0
  2281     07EC  3DC2               	addwfc	main@address+1,f
  2282     07ED                     l2017:
  2283                           
  2284                           ;main.c: 239:         _delay((unsigned long)((3000)*(32000000/4000.0)));
  2285     07ED  307A               	movlw	122
  2286     07EE  0020               	movlb	0	; select bank0
  2287     07EF  00BE               	movwf	??_main+1
  2288     07F0  30C1               	movlw	193
  2289     07F1  00BD               	movwf	??_main
  2290     07F2  3081               	movlw	129
  2291     07F3                     u1587:
  2292     07F3  0B89               	decfsz	9,f
  2293     07F4  2FF3               	goto	u1587
  2294     07F5  0BBD               	decfsz	??_main,f
  2295     07F6  2FF3               	goto	u1587
  2296     07F7  0BBE               	decfsz	??_main+1,f
  2297     07F8  2FF3               	goto	u1587
  2298     07F9  3200               	nop2
  2299     07FA  2EE9               	goto	l1961
  2300     07FB  3180  2802         	ljmp	start
  2301     07FD                     __end_of_main:
  2302                           
  2303                           	psect	text1
  2304     037D                     __ptext1:	
  2305 ;; *************** function _initMain *****************
  2306 ;; Defined at:
  2307 ;;		line 122 in file "main.c"
  2308 ;; Parameters:    Size  Location     Type
  2309 ;;		None
  2310 ;; Auto vars:     Size  Location     Type
  2311 ;;		None
  2312 ;; Return value:  Size  Location     Type
  2313 ;;                  1    wreg      void 
  2314 ;; Registers used:
  2315 ;;		wreg, status,2, status,0, pclath, cstack
  2316 ;; Tracked objects:
  2317 ;;		On entry : 0/0
  2318 ;;		On exit  : 0/0
  2319 ;;		Unchanged: 0/0
  2320 ;; Data sizes:     COMMON   BANK0   BANK1   BANK2   BANK3   BANK4   BANK5   BANK6   BANK7   BANK8   BANK9  BANK10  BANK1
      +1  BANK12  BANK13  BANK14  BANK15  BANK16  BANK17  BANK18  BANK19  BANK20  BANK21  BANK22  BANK23  BANK24  BANK25
  2321 ;;      Params:         0       0       0       0       0       0       0       0       0       0       0       0       
      +0       0       0       0       0       0       0       0       0       0       0       0       0       0       0
  2322 ;;      Locals:         0       0       0       0       0       0       0       0       0       0       0       0       
      +0       0       0       0       0       0       0       0       0       0       0       0       0       0       0
  2323 ;;      Temps:          1       0       0       0       0       0       0       0       0       0       0       0       
      +0       0       0       0       0       0       0       0       0       0       0       0       0       0       0
  2324 ;;      Totals:         1       0       0       0       0       0       0       0       0       0       0       0       
      +0       0       0       0       0       0       0       0       0       0       0       0       0       0       0
  2325 ;;Total ram usage:        1 bytes
  2326 ;; Hardware stack levels used: 1
  2327 ;; Hardware stack levels required when called: 1
  2328 ;; This function calls:
  2329 ;;		_internal_32
  2330 ;; This function is called by:
  2331 ;;		_main
  2332 ;; This function uses a non-reentrant model
  2333 ;;
  2334                           
  2335     037D                     _initMain:	
  2336                           ;psect for function _initMain
  2337                           
  2338     037D                     l1863:	
  2339                           ;incstack = 0
  2340                           ; Regs used in _initMain: [wreg+status,2+status,0+pclath+cstack]
  2341                           
  2342                           
  2343                           ;main.c: 124:     internal_32();
  2344     037D  3181  21CC  3183   	fcall	_internal_32
  2345     0380                     l1865:
  2346                           
  2347                           ;main.c: 127:     _delay((unsigned long)((10)*(32000000/4000.0)));
  2348     0380  3068               	movlw	104
  2349     0381  00F0               	movwf	??_initMain
  2350     0382  30E4               	movlw	228
  2351     0383                     u1597:
  2352     0383  0B89               	decfsz	9,f
  2353     0384  2B83               	goto	u1597
  2354     0385  0BF0               	decfsz	??_initMain,f
  2355     0386  2B83               	goto	u1597
  2356     0387  3200               	nop2
  2357     0388                     l1867:
  2358                           
  2359                           ;main.c: 129:     TRISBbits.TRISB2 = 0;
  2360     0388  0021               	movlb	1	; select bank1
  2361     0389  110D               	bcf	13,2	;volatile
  2362     038A                     l1869:
  2363                           
  2364                           ;main.c: 130:     ANSELBbits.ANSB2 = 0;
  2365     038A  0023               	movlb	3	; select bank3
  2366     038B  110D               	bcf	13,2	;volatile
  2367     038C                     l1871:
  2368                           
  2369                           ;main.c: 133:     ANSELCbits.ANSC4 = 0;
  2370     038C  120E               	bcf	14,4	;volatile
  2371     038D                     l1873:
  2372                           
  2373                           ;main.c: 134:     ANSELCbits.ANSC5 = 0;
  2374     038D  128E               	bcf	14,5	;volatile
  2375     038E                     l1875:
  2376                           
  2377                           ;main.c: 136:     TRISCbits.TRISC4 = 1;
  2378     038E  0021               	movlb	1	; select bank1
  2379     038F  160E               	bsf	14,4	;volatile
  2380     0390                     l1877:
  2381                           
  2382                           ;main.c: 137:     TRISCbits.TRISC5 = 1;
  2383     0390  168E               	bsf	14,5	;volatile
  2384     0391                     l1879:
  2385                           
  2386                           ;main.c: 142:     PPSLOCK = 0x55;
  2387     0391  3055               	movlw	85
  2388     0392  003C               	movlb	28	; select bank28
  2389     0393  008F               	movwf	15	;volsfr
  2390     0394                     l1881:
  2391                           
  2392                           ;main.c: 143:     PPSLOCK = 0xAA;
  2393     0394  30AA               	movlw	170
  2394     0395  008F               	movwf	15	;volsfr
  2395     0396                     l1883:
  2396                           
  2397                           ;main.c: 144:     PPSLOCKbits.PPSLOCKED = 0x00;
  2398     0396  100F               	bcf	15,0	;volsfr
  2399     0397                     l1885:
  2400                           
  2401                           ;main.c: 146:     RB2PPSbits.RB2PPS = 0x14;
  2402     0397  003D               	movlb	29	; select bank29
  2403     0398  081A               	movf	26,w	;volatile
  2404     0399  39E0               	andlw	-32
  2405     039A  3814               	iorlw	20
  2406     039B  009A               	movwf	26	;volatile
  2407     039C                     l1887:
  2408                           
  2409                           ;main.c: 147:     RXPPSbits.RXPPS = 0x0B;
  2410     039C  003C               	movlb	28	; select bank28
  2411     039D  0824               	movf	36,w	;volatile
  2412     039E  39E0               	andlw	-32
  2413     039F  380B               	iorlw	11
  2414     03A0  00A4               	movwf	36	;volatile
  2415     03A1                     l1889:
  2416                           
  2417                           ;main.c: 149:     RC4PPSbits.RC4PPS = 0x0011;
  2418     03A1  003D               	movlb	29	; select bank29
  2419     03A2  0824               	movf	36,w	;volatile
  2420     03A3  39E0               	andlw	-32
  2421     03A4  3811               	iorlw	17
  2422     03A5  00A4               	movwf	36	;volatile
  2423     03A6                     l1891:
  2424                           
  2425                           ;main.c: 150:     SSPDATPPSbits.SSPDATPPS = 0x0014;
  2426     03A6  003C               	movlb	28	; select bank28
  2427     03A7  0821               	movf	33,w	;volatile
  2428     03A8  39E0               	andlw	-32
  2429     03A9  3814               	iorlw	20
  2430     03AA  00A1               	movwf	33	;volatile
  2431     03AB                     l1893:
  2432                           
  2433                           ;main.c: 151:     SSPCLKPPSbits.SSPCLKPPS = 0x0015;
  2434     03AB  0820               	movf	32,w	;volatile
  2435     03AC  39E0               	andlw	-32
  2436     03AD  3815               	iorlw	21
  2437     03AE  00A0               	movwf	32	;volatile
  2438     03AF                     l1895:
  2439                           
  2440                           ;main.c: 152:     RC5PPSbits.RC5PPS = 0x0010;
  2441     03AF  003D               	movlb	29	; select bank29
  2442     03B0  0825               	movf	37,w	;volatile
  2443     03B1  39E0               	andlw	-32
  2444     03B2  3810               	iorlw	16
  2445     03B3  00A5               	movwf	37	;volatile
  2446     03B4                     l1897:
  2447                           
  2448                           ;main.c: 154:     PPSLOCK = 0x55;
  2449     03B4  3055               	movlw	85
  2450     03B5  003C               	movlb	28	; select bank28
  2451     03B6  008F               	movwf	15	;volsfr
  2452     03B7                     l1899:
  2453                           
  2454                           ;main.c: 155:     PPSLOCK = 0xAA;
  2455     03B7  30AA               	movlw	170
  2456     03B8  008F               	movwf	15	;volsfr
  2457     03B9                     l1901:
  2458                           
  2459                           ;main.c: 156:     PPSLOCKbits.PPSLOCKED = 0x01;
  2460     03B9  140F               	bsf	15,0	;volsfr
  2461     03BA                     l109:
  2462     03BA  0008               	return
  2463     03BB                     __end_of_initMain:
  2464                           
  2465                           	psect	text2
  2466     01CC                     __ptext2:	
  2467 ;; *************** function _internal_32 *****************
  2468 ;; Defined at:
  2469 ;;		line 36 in file "PIC16F1718_Internal.c"
  2470 ;; Parameters:    Size  Location     Type
  2471 ;;		None
  2472 ;; Auto vars:     Size  Location     Type
  2473 ;;		None
  2474 ;; Return value:  Size  Location     Type
  2475 ;;                  1    wreg      void 
  2476 ;; Registers used:
  2477 ;;		None
  2478 ;; Tracked objects:
  2479 ;;		On entry : 0/0
  2480 ;;		On exit  : 0/0
  2481 ;;		Unchanged: 0/0
  2482 ;; Data sizes:     COMMON   BANK0   BANK1   BANK2   BANK3   BANK4   BANK5   BANK6   BANK7   BANK8   BANK9  BANK10  BANK1
      +1  BANK12  BANK13  BANK14  BANK15  BANK16  BANK17  BANK18  BANK19  BANK20  BANK21  BANK22  BANK23  BANK24  BANK25
  2483 ;;      Params:         0       0       0       0       0       0       0       0       0       0       0       0       
      +0       0       0       0       0       0       0       0       0       0       0       0       0       0       0
  2484 ;;      Locals:         0       0       0       0       0       0       0       0       0       0       0       0       
      +0       0       0       0       0       0       0       0       0       0       0       0       0       0       0
  2485 ;;      Temps:          0       0       0       0       0       0       0       0       0       0       0       0       
      +0       0       0       0       0       0       0       0       0       0       0       0       0       0       0
  2486 ;;      Totals:         0       0       0       0       0       0       0       0       0       0       0       0       
      +0       0       0       0       0       0       0       0       0       0       0       0       0       0       0
  2487 ;;Total ram usage:        0 bytes
  2488 ;; Hardware stack levels used: 1
  2489 ;; This function calls:
  2490 ;;		Nothing
  2491 ;; This function is called by:
  2492 ;;		_initMain
  2493 ;; This function uses a non-reentrant model
  2494 ;;
  2495                           
  2496     01CC                     _internal_32:	
  2497                           ;psect for function _internal_32
  2498                           
  2499     01CC                     l1611:	
  2500                           ;incstack = 0
  2501                           ; Regs used in _internal_32: []
  2502                           
  2503                           
  2504                           ;PIC16F1718_Internal.c: 38:     SCS0 = 0;
  2505     01CC  0021               	movlb	1	; select bank1
  2506     01CD  1019               	bcf	25,0	;volatile
  2507                           
  2508                           ;PIC16F1718_Internal.c: 39:     SCS1 = 0;
  2509     01CE  1099               	bcf	25,1	;volatile
  2510                           
  2511                           ;PIC16F1718_Internal.c: 42:     IRCF0 = 0;
  2512     01CF  1199               	bcf	25,3	;volatile
  2513                           
  2514                           ;PIC16F1718_Internal.c: 43:     IRCF1 = 1;
  2515     01D0  1619               	bsf	25,4	;volatile
  2516                           
  2517                           ;PIC16F1718_Internal.c: 44:     IRCF2 = 1;
  2518     01D1  1699               	bsf	25,5	;volatile
  2519                           
  2520                           ;PIC16F1718_Internal.c: 45:     IRCF3 = 1;
  2521     01D2  1719               	bsf	25,6	;volatile
  2522                           
  2523                           ;PIC16F1718_Internal.c: 48:     SPLLEN = 1;
  2524     01D3  1799               	bsf	25,7	;volatile
  2525     01D4                     l17:
  2526     01D4  0008               	return
  2527     01D5                     __end_of_internal_32:
  2528                           
  2529                           	psect	text3
  2530     01EE                     __ptext3:	
  2531 ;; *************** function _I2C_Init *****************
  2532 ;; Defined at:
  2533 ;;		line 41 in file "I2C.c"
  2534 ;; Parameters:    Size  Location     Type
  2535 ;;		None
  2536 ;; Auto vars:     Size  Location     Type
  2537 ;;		None
  2538 ;; Return value:  Size  Location     Type
  2539 ;;                  1    wreg      void 
  2540 ;; Registers used:
  2541 ;;		wreg, status,2, status,0, pclath, cstack
  2542 ;; Tracked objects:
  2543 ;;		On entry : 0/0
  2544 ;;		On exit  : 0/0
  2545 ;;		Unchanged: 0/0
  2546 ;; Data sizes:     COMMON   BANK0   BANK1   BANK2   BANK3   BANK4   BANK5   BANK6   BANK7   BANK8   BANK9  BANK10  BANK1
      +1  BANK12  BANK13  BANK14  BANK15  BANK16  BANK17  BANK18  BANK19  BANK20  BANK21  BANK22  BANK23  BANK24  BANK25
  2547 ;;      Params:         0       0       0       0       0       0       0       0       0       0       0       0       
      +0       0       0       0       0       0       0       0       0       0       0       0       0       0       0
  2548 ;;      Locals:         0       0       0       0       0       0       0       0       0       0       0       0       
      +0       0       0       0       0       0       0       0       0       0       0       0       0       0       0
  2549 ;;      Temps:          1       0       0       0       0       0       0       0       0       0       0       0       
      +0       0       0       0       0       0       0       0       0       0       0       0       0       0       0
  2550 ;;      Totals:         1       0       0       0       0       0       0       0       0       0       0       0       
      +0       0       0       0       0       0       0       0       0       0       0       0       0       0       0
  2551 ;;Total ram usage:        1 bytes
  2552 ;; Hardware stack levels used: 1
  2553 ;; Hardware stack levels required when called: 1
  2554 ;; This function calls:
  2555 ;;		_I2C_ClearErrors
  2556 ;; This function is called by:
  2557 ;;		_main
  2558 ;; This function uses a non-reentrant model
  2559 ;;
  2560                           
  2561     01EE                     _I2C_Init:	
  2562                           ;psect for function _I2C_Init
  2563                           
  2564     01EE                     l1921:	
  2565                           ;incstack = 0
  2566                           ; Regs used in _I2C_Init: [wreg+status,2+status,0+pclath+cstack]
  2567                           
  2568                           
  2569                           ;I2C.c: 44:     SSPCONbits.SSPM = 0x08;
  2570     01EE  0024               	movlb	4	; select bank4
  2571     01EF  0815               	movf	21,w	;volatile
  2572     01F0  39F0               	andlw	-16
  2573     01F1  3808               	iorlw	8
  2574     01F2  0095               	movwf	21	;volatile
  2575     01F3                     l1923:
  2576                           
  2577                           ;I2C.c: 47:     SSPCONbits.SSPEN = 1;
  2578     01F3  1695               	bsf	21,5	;volatile
  2579     01F4                     l1925:
  2580                           
  2581                           ;I2C.c: 50:     SSPADD = 79;
  2582     01F4  304F               	movlw	79
  2583     01F5  0092               	movwf	18	;volatile
  2584     01F6                     l1927:
  2585                           
  2586                           ;I2C.c: 52:     I2C_ClearErrors();
  2587     01F6  3181  21C5  3181   	fcall	_I2C_ClearErrors
  2588     01F9                     l1929:
  2589                           
  2590                           ;I2C.c: 53:     _delay((unsigned long)((10)*(32000000/4000.0)));
  2591     01F9  3068               	movlw	104
  2592     01FA  00F0               	movwf	??_I2C_Init
  2593     01FB  30E4               	movlw	228
  2594     01FC                     u1607:
  2595     01FC  0B89               	decfsz	9,f
  2596     01FD  29FC               	goto	u1607
  2597     01FE  0BF0               	decfsz	??_I2C_Init,f
  2598     01FF  29FC               	goto	u1607
  2599     0200  3200               	nop2
  2600     0201                     l219:
  2601     0201  0008               	return
  2602     0202                     __end_of_I2C_Init:
  2603                           
  2604                           	psect	text4
  2605     01C5                     __ptext4:	
  2606 ;; *************** function _I2C_ClearErrors *****************
  2607 ;; Defined at:
  2608 ;;		line 62 in file "I2C.c"
  2609 ;; Parameters:    Size  Location     Type
  2610 ;;		None
  2611 ;; Auto vars:     Size  Location     Type
  2612 ;;		None
  2613 ;; Return value:  Size  Location     Type
  2614 ;;                  1    wreg      void 
  2615 ;; Registers used:
  2616 ;;		None
  2617 ;; Tracked objects:
  2618 ;;		On entry : 0/0
  2619 ;;		On exit  : 0/0
  2620 ;;		Unchanged: 0/0
  2621 ;; Data sizes:     COMMON   BANK0   BANK1   BANK2   BANK3   BANK4   BANK5   BANK6   BANK7   BANK8   BANK9  BANK10  BANK1
      +1  BANK12  BANK13  BANK14  BANK15  BANK16  BANK17  BANK18  BANK19  BANK20  BANK21  BANK22  BANK23  BANK24  BANK25
  2622 ;;      Params:         0       0       0       0       0       0       0       0       0       0       0       0       
      +0       0       0       0       0       0       0       0       0       0       0       0       0       0       0
  2623 ;;      Locals:         0       0       0       0       0       0       0       0       0       0       0       0       
      +0       0       0       0       0       0       0       0       0       0       0       0       0       0       0
  2624 ;;      Temps:          0       0       0       0       0       0       0       0       0       0       0       0       
      +0       0       0       0       0       0       0       0       0       0       0       0       0       0       0
  2625 ;;      Totals:         0       0       0       0       0       0       0       0       0       0       0       0       
      +0       0       0       0       0       0       0       0       0       0       0       0       0       0       0
  2626 ;;Total ram usage:        0 bytes
  2627 ;; Hardware stack levels used: 1
  2628 ;; This function calls:
  2629 ;;		Nothing
  2630 ;; This function is called by:
  2631 ;;		_I2C_Init
  2632 ;; This function uses a non-reentrant model
  2633 ;;
  2634                           
  2635     01C5                     _I2C_ClearErrors:	
  2636                           ;psect for function _I2C_ClearErrors
  2637                           
  2638     01C5                     l1725:	
  2639                           ;incstack = 0
  2640                           ; Regs used in _I2C_ClearErrors: []
  2641                           
  2642                           
  2643                           ;I2C.c: 65:     SSPCON1bits.SSPOV = 0;
  2644     01C5  0024               	movlb	4	; select bank4
  2645     01C6  1315               	bcf	21,6	;volatile
  2646                           
  2647                           ;I2C.c: 66:     SSPCON1bits.WCOL = 0;
  2648     01C7  1395               	bcf	21,7	;volatile
  2649                           
  2650                           ;I2C.c: 69:     PIR2bits.BCL1IF = 0;
  2651     01C8  0020               	movlb	0	; select bank0
  2652     01C9  1192               	bcf	18,3	;volatile
  2653                           
  2654                           ;I2C.c: 72:     PIR1bits.SSP1IF = 0;
  2655     01CA  1191               	bcf	17,3	;volatile
  2656     01CB                     l222:
  2657     01CB  0008               	return
  2658     01CC                     __end_of_I2C_ClearErrors:
  2659                           
  2660                           	psect	text5
  2661     0202                     __ptext5:	
  2662 ;; *************** function _EUSART_Write_Text *****************
  2663 ;; Defined at:
  2664 ;;		line 127 in file "EUSART.c"
  2665 ;; Parameters:    Size  Location     Type
  2666 ;;  text            2    1[COMMON] PTR unsigned char 
  2667 ;;		 -> STR_20(2), STR_19(9), STR_18(10), STR_17(9), 
  2668 ;;		 -> STR_16(2), STR_15(12), STR_14(9), STR_13(2), 
  2669 ;;		 -> STR_12(23), STR_11(2), STR_10(10), STR_9(13), 
  2670 ;;		 -> STR_8(10), STR_7(2), STR_6(24), STR_5(2), 
  2671 ;;		 -> STR_4(9), STR_3(10), STR_2(14), STR_1(37), 
  2672 ;; Auto vars:     Size  Location     Type
  2673 ;;  i               2    4[COMMON] int 
  2674 ;; Return value:  Size  Location     Type
  2675 ;;                  1    wreg      void 
  2676 ;; Registers used:
  2677 ;;		wreg, fsr0l, fsr0h, status,2, status,0, pclath, cstack
  2678 ;; Tracked objects:
  2679 ;;		On entry : 0/0
  2680 ;;		On exit  : 0/0
  2681 ;;		Unchanged: 0/0
  2682 ;; Data sizes:     COMMON   BANK0   BANK1   BANK2   BANK3   BANK4   BANK5   BANK6   BANK7   BANK8   BANK9  BANK10  BANK1
      +1  BANK12  BANK13  BANK14  BANK15  BANK16  BANK17  BANK18  BANK19  BANK20  BANK21  BANK22  BANK23  BANK24  BANK25
  2683 ;;      Params:         2       0       0       0       0       0       0       0       0       0       0       0       
      +0       0       0       0       0       0       0       0       0       0       0       0       0       0       0
  2684 ;;      Locals:         2       0       0       0       0       0       0       0       0       0       0       0       
      +0       0       0       0       0       0       0       0       0       0       0       0       0       0       0
  2685 ;;      Temps:          1       0       0       0       0       0       0       0       0       0       0       0       
      +0       0       0       0       0       0       0       0       0       0       0       0       0       0       0
  2686 ;;      Totals:         5       0       0       0       0       0       0       0       0       0       0       0       
      +0       0       0       0       0       0       0       0       0       0       0       0       0       0       0
  2687 ;;Total ram usage:        5 bytes
  2688 ;; Hardware stack levels used: 1
  2689 ;; Hardware stack levels required when called: 1
  2690 ;; This function calls:
  2691 ;;		_EUSART_Write
  2692 ;; This function is called by:
  2693 ;;		_main
  2694 ;; This function uses a non-reentrant model
  2695 ;;
  2696                           
  2697     0202                     _EUSART_Write_Text:	
  2698                           ;psect for function _EUSART_Write_Text
  2699                           
  2700     0202                     l1931:	
  2701                           ;incstack = 0
  2702                           ; Regs used in _EUSART_Write_Text: [wreg-fsr0h+status,2+status,0+pclath+cstack]
  2703                           
  2704                           
  2705                           ;EUSART.c: 127: void EUSART_Write_Text(char *text);EUSART.c: 128: {;EUSART.c: 129:   int
      +                           i;;EUSART.c: 130:   for(i=0;text[i]!='\0';i++)
  2706     0202  01F4               	clrf	EUSART_Write_Text@i
  2707     0203  01F5               	clrf	EUSART_Write_Text@i+1
  2708     0204  2A13               	goto	l1937
  2709     0205                     l1933:
  2710                           
  2711                           ;EUSART.c: 131:    EUSART_Write(text[i]);
  2712     0205  0871               	movf	EUSART_Write_Text@text,w
  2713     0206  0774               	addwf	EUSART_Write_Text@i,w
  2714     0207  0084               	movwf	4
  2715     0208  0872               	movf	EUSART_Write_Text@text+1,w
  2716     0209  3D75               	addwfc	EUSART_Write_Text@i+1,w
  2717     020A  0085               	movwf	5
  2718     020B  0800               	movf	0,w	;code access
  2719     020C  3181  21D5  3182   	fcall	_EUSART_Write
  2720     020F                     l1935:
  2721     020F  3001               	movlw	1
  2722     0210  07F4               	addwf	EUSART_Write_Text@i,f
  2723     0211  3000               	movlw	0
  2724     0212  3DF5               	addwfc	EUSART_Write_Text@i+1,f
  2725     0213                     l1937:
  2726     0213  0871               	movf	EUSART_Write_Text@text,w
  2727     0214  0774               	addwf	EUSART_Write_Text@i,w
  2728     0215  0084               	movwf	4
  2729     0216  0872               	movf	EUSART_Write_Text@text+1,w
  2730     0217  3D75               	addwfc	EUSART_Write_Text@i+1,w
  2731     0218  0085               	movwf	5
  2732     0219  0012               	moviw fsr0++
  2733     021A  1D03               	btfss	3,2
  2734     021B  2A1D               	goto	u1541
  2735     021C  2A1E               	goto	u1540
  2736     021D                     u1541:
  2737     021D  2A05               	goto	l1933
  2738     021E                     u1540:
  2739     021E                     l171:
  2740     021E  0008               	return
  2741     021F                     __end_of_EUSART_Write_Text:
  2742                           
  2743                           	psect	text6
  2744     02A3                     __ptext6:	
  2745 ;; *************** function _EUSART_Write_Integer *****************
  2746 ;; Defined at:
  2747 ;;		line 185 in file "EUSART.c"
  2748 ;; Parameters:    Size  Location     Type
  2749 ;;  value_to_sen    2   11[COMMON] int 
  2750 ;; Auto vars:     Size  Location     Type
  2751 ;;  buffer         20    7[BANK0 ] unsigned char [20]
  2752 ;;  temp_ptr        1   28[BANK0 ] PTR unsigned char 
  2753 ;;		 -> EUSART_Write_Integer@buffer(20), 
  2754 ;;  ptr             1   27[BANK0 ] PTR unsigned char 
  2755 ;;		 -> EUSART_Write_Integer@buffer(20), 
  2756 ;; Return value:  Size  Location     Type
  2757 ;;                  1    wreg      void 
  2758 ;; Registers used:
  2759 ;;		wreg, fsr0l, fsr0h, fsr1l, fsr1h, status,2, status,0, pclath, cstack
  2760 ;; Tracked objects:
  2761 ;;		On entry : 0/0
  2762 ;;		On exit  : 0/0
  2763 ;;		Unchanged: 0/0
  2764 ;; Data sizes:     COMMON   BANK0   BANK1   BANK2   BANK3   BANK4   BANK5   BANK6   BANK7   BANK8   BANK9  BANK10  BANK1
      +1  BANK12  BANK13  BANK14  BANK15  BANK16  BANK17  BANK18  BANK19  BANK20  BANK21  BANK22  BANK23  BANK24  BANK25
  2765 ;;      Params:         2       0       0       0       0       0       0       0       0       0       0       0       
      +0       0       0       0       0       0       0       0       0       0       0       0       0       0       0
  2766 ;;      Locals:         0      22       0       0       0       0       0       0       0       0       0       0       
      +0       0       0       0       0       0       0       0       0       0       0       0       0       0       0
  2767 ;;      Temps:          1       0       0       0       0       0       0       0       0       0       0       0       
      +0       0       0       0       0       0       0       0       0       0       0       0       0       0       0
  2768 ;;      Totals:         3      22       0       0       0       0       0       0       0       0       0       0       
      +0       0       0       0       0       0       0       0       0       0       0       0       0       0       0
  2769 ;;Total ram usage:       25 bytes
  2770 ;; Hardware stack levels used: 1
  2771 ;; Hardware stack levels required when called: 2
  2772 ;; This function calls:
  2773 ;;		_EUSART_Write
  2774 ;;		_itoa
  2775 ;; This function is called by:
  2776 ;;		_main
  2777 ;; This function uses a non-reentrant model
  2778 ;;
  2779                           
  2780     02A3                     _EUSART_Write_Integer:	
  2781                           ;psect for function _EUSART_Write_Integer
  2782                           
  2783     02A3                     l1939:	
  2784                           ;incstack = 0
  2785                           ; Regs used in _EUSART_Write_Integer: [wreg-fsr1h+status,2+status,0+pclath+cstack]
  2786                           
  2787                           
  2788                           ;EUSART.c: 185: void EUSART_Write_Integer(int value_to_send);EUSART.c: 186: {;EUSART.c: 
      +                          187:     char buffer[20];;EUSART.c: 188:     char *ptr = buffer;
  2789     02A3  3027               	movlw	(low (EUSART_Write_Integer@buffer| 0))& (0+255)
  2790     02A4  0020               	movlb	0	; select bank0
  2791     02A5  00BB               	movwf	EUSART_Write_Integer@ptr
  2792     02A6                     l1941:
  2793                           
  2794                           ;EUSART.c: 190:     itoa(&ptr, value_to_send);
  2795     02A6  087C               	movf	EUSART_Write_Integer@value_to_send+1,w
  2796     02A7  00FA               	movwf	itoa@d+1
  2797     02A8  087B               	movf	EUSART_Write_Integer@value_to_send,w
  2798     02A9  00F9               	movwf	itoa@d
  2799     02AA  303B               	movlw	(low (EUSART_Write_Integer@ptr| 0))& (0+255)
  2800     02AB  3186  2631  3182   	fcall	_itoa
  2801     02AE                     l1943:
  2802                           
  2803                           ;EUSART.c: 193:     char *temp_ptr = buffer;
  2804     02AE  3027               	movlw	(low (EUSART_Write_Integer@buffer| 0))& (0+255)
  2805     02AF  0020               	movlb	0	; select bank0
  2806     02B0  00BC               	movwf	EUSART_Write_Integer@temp_ptr
  2807                           
  2808                           ;EUSART.c: 194:     while (*temp_ptr != '\0') {
  2809     02B1  2ABE               	goto	l1949
  2810     02B2                     l1945:
  2811                           
  2812                           ;EUSART.c: 195:         EUSART_Write(*temp_ptr++);
  2813     02B2  083C               	movf	EUSART_Write_Integer@temp_ptr,w
  2814     02B3  0086               	movwf	6
  2815     02B4  0187               	clrf	7
  2816     02B5  0801               	movf	1,w
  2817     02B6  3181  21D5  3182   	fcall	_EUSART_Write
  2818     02B9                     l1947:
  2819     02B9  3001               	movlw	1
  2820     02BA  00FD               	movwf	??_EUSART_Write_Integer
  2821     02BB  087D               	movf	??_EUSART_Write_Integer,w
  2822     02BC  0020               	movlb	0	; select bank0
  2823     02BD  07BC               	addwf	EUSART_Write_Integer@temp_ptr,f
  2824     02BE                     l1949:
  2825                           
  2826                           ;EUSART.c: 194:     while (*temp_ptr != '\0') {
  2827     02BE  083C               	movf	EUSART_Write_Integer@temp_ptr,w
  2828     02BF  0086               	movwf	6
  2829     02C0  0187               	clrf	7
  2830     02C1  0801               	movf	1,w
  2831     02C2  1D03               	btfss	3,2
  2832     02C3  2AC5               	goto	u1551
  2833     02C4  2AC6               	goto	u1550
  2834     02C5                     u1551:
  2835     02C5  2AB2               	goto	l1945
  2836     02C6                     u1550:
  2837     02C6                     l187:
  2838     02C6  0008               	return
  2839     02C7                     __end_of_EUSART_Write_Integer:
  2840                           
  2841                           	psect	text7
  2842     0631                     __ptext7:	
  2843 ;; *************** function _itoa *****************
  2844 ;; Defined at:
  2845 ;;		line 149 in file "EUSART.c"
  2846 ;; Parameters:    Size  Location     Type
  2847 ;;  buf             1    wreg     PTR PTR unsigned char 
  2848 ;;		 -> EUSART_Write_Integer@ptr(1), 
  2849 ;;  d               2    9[COMMON] int 
  2850 ;; Auto vars:     Size  Location     Type
  2851 ;;  buf             1    4[BANK0 ] PTR PTR unsigned char 
  2852 ;;		 -> EUSART_Write_Integer@ptr(1), 
  2853 ;;  num             2    0[BANK0 ] int 
  2854 ;;  div             2    5[BANK0 ] int 
  2855 ;;  temp            2    2[BANK0 ] int 
  2856 ;; Return value:  Size  Location     Type
  2857 ;;                  1    wreg      void 
  2858 ;; Registers used:
  2859 ;;		wreg, fsr0l, fsr0h, fsr1l, fsr1h, status,2, status,0, pclath, cstack
  2860 ;; Tracked objects:
  2861 ;;		On entry : 0/0
  2862 ;;		On exit  : 0/0
  2863 ;;		Unchanged: 0/0
  2864 ;; Data sizes:     COMMON   BANK0   BANK1   BANK2   BANK3   BANK4   BANK5   BANK6   BANK7   BANK8   BANK9  BANK10  BANK1
      +1  BANK12  BANK13  BANK14  BANK15  BANK16  BANK17  BANK18  BANK19  BANK20  BANK21  BANK22  BANK23  BANK24  BANK25
  2865 ;;      Params:         2       0       0       0       0       0       0       0       0       0       0       0       
      +0       0       0       0       0       0       0       0       0       0       0       0       0       0       0
  2866 ;;      Locals:         0       7       0       0       0       0       0       0       0       0       0       0       
      +0       0       0       0       0       0       0       0       0       0       0       0       0       0       0
  2867 ;;      Temps:          0       0       0       0       0       0       0       0       0       0       0       0       
      +0       0       0       0       0       0       0       0       0       0       0       0       0       0       0
  2868 ;;      Totals:         2       7       0       0       0       0       0       0       0       0       0       0       
      +0       0       0       0       0       0       0       0       0       0       0       0       0       0       0
  2869 ;;Total ram usage:        9 bytes
  2870 ;; Hardware stack levels used: 1
  2871 ;; Hardware stack levels required when called: 1
  2872 ;; This function calls:
  2873 ;;		___awdiv
  2874 ;;		___awmod
  2875 ;;		___wmul
  2876 ;; This function is called by:
  2877 ;;		_EUSART_Write_Integer
  2878 ;; This function uses a non-reentrant model
  2879 ;;
  2880                           
  2881     0631                     _itoa:	
  2882                           ;psect for function _itoa
  2883                           
  2884                           
  2885                           ;incstack = 0
  2886                           ; Regs used in _itoa: [wreg-fsr1h+status,2+status,0+pclath+cstack]
  2887                           ;itoa@buf stored from wreg
  2888     0631  0020               	movlb	0	; select bank0
  2889     0632  00A4               	movwf	itoa@buf
  2890     0633                     l1707:
  2891                           
  2892                           ;EUSART.c: 149: void itoa(char **buf, int d);EUSART.c: 150: {;EUSART.c: 151:     int div
      +                           = 1;
  2893     0633  3001               	movlw	1
  2894     0634  00A5               	movwf	itoa@div
  2895     0635  3000               	movlw	0
  2896     0636  00A6               	movwf	itoa@div+1
  2897                           
  2898                           ;EUSART.c: 152:     if (d < 0)
  2899     0637  1FFA               	btfss	itoa@d+1,7
  2900     0638  2E3A               	goto	u1301
  2901     0639  2E3B               	goto	u1300
  2902     063A                     u1301:
  2903     063A  2E49               	goto	l1713
  2904     063B                     u1300:
  2905     063B                     l1709:
  2906                           
  2907                           ;EUSART.c: 153:     {;EUSART.c: 154:         *((*buf)++) = '-';
  2908     063B  0824               	movf	itoa@buf,w
  2909     063C  0086               	movwf	6
  2910     063D  0187               	clrf	7
  2911     063E  3F40               	moviw [0]fsr1
  2912     063F  0084               	movwf	4
  2913     0640  0185               	clrf	5
  2914     0641  0A81               	incf	1,f
  2915     0642  302D               	movlw	45
  2916     0643  0080               	movwf	0
  2917     0644                     l1711:
  2918                           
  2919                           ;EUSART.c: 155:         d = -d;
  2920     0644  09F9               	comf	itoa@d,f
  2921     0645  09FA               	comf	itoa@d+1,f
  2922     0646  0AF9               	incf	itoa@d,f
  2923     0647  1903               	skipnz
  2924     0648  0AFA               	incf	itoa@d+1,f
  2925     0649                     l1713:
  2926                           
  2927                           ;EUSART.c: 158:     int temp = d;
  2928     0649  087A               	movf	itoa@d+1,w
  2929     064A  00A3               	movwf	itoa@temp+1
  2930     064B  0879               	movf	itoa@d,w
  2931     064C  00A2               	movwf	itoa@temp
  2932                           
  2933                           ;EUSART.c: 159:     while (temp / 10)
  2934     064D  2E6F               	goto	l175
  2935     064E                     l1715:
  2936                           
  2937                           ;EUSART.c: 160:     {;EUSART.c: 161:         temp /= 10;
  2938     064E  300A               	movlw	10
  2939     064F  00F0               	movwf	___awdiv@divisor
  2940     0650  3000               	movlw	0
  2941     0651  00F1               	movwf	___awdiv@divisor+1
  2942     0652  0020               	movlb	0	; select bank0
  2943     0653  0823               	movf	itoa@temp+1,w
  2944     0654  00F3               	movwf	___awdiv@dividend+1
  2945     0655  0822               	movf	itoa@temp,w
  2946     0656  00F2               	movwf	___awdiv@dividend
  2947     0657  3185  2542  3186   	fcall	___awdiv
  2948     065A  0871               	movf	?___awdiv+1,w
  2949     065B  0020               	movlb	0	; select bank0
  2950     065C  00A3               	movwf	itoa@temp+1
  2951     065D  0870               	movf	?___awdiv,w
  2952     065E  00A2               	movwf	itoa@temp
  2953                           
  2954                           ;EUSART.c: 162:         div *= 10;
  2955     065F  300A               	movlw	10
  2956     0660  00F0               	movwf	___wmul@multiplier
  2957     0661  3000               	movlw	0
  2958     0662  00F1               	movwf	___wmul@multiplier+1
  2959     0663  0826               	movf	itoa@div+1,w
  2960     0664  00F3               	movwf	___wmul@multiplicand+1
  2961     0665  0825               	movf	itoa@div,w
  2962     0666  00F2               	movwf	___wmul@multiplicand
  2963     0667  3182  223D  3186   	fcall	___wmul
  2964     066A  0871               	movf	?___wmul+1,w
  2965     066B  0020               	movlb	0	; select bank0
  2966     066C  00A6               	movwf	itoa@div+1
  2967     066D  0870               	movf	?___wmul,w
  2968     066E  00A5               	movwf	itoa@div
  2969     066F                     l175:	
  2970                           ;EUSART.c: 163:     }
  2971                           
  2972                           
  2973                           ;EUSART.c: 159:     while (temp / 10)
  2974     066F  300A               	movlw	10
  2975     0670  00F0               	movwf	___awdiv@divisor
  2976     0671  3000               	movlw	0
  2977     0672  00F1               	movwf	___awdiv@divisor+1
  2978     0673  0823               	movf	itoa@temp+1,w
  2979     0674  00F3               	movwf	___awdiv@dividend+1
  2980     0675  0822               	movf	itoa@temp,w
  2981     0676  00F2               	movwf	___awdiv@dividend
  2982     0677  3185  2542  3186   	fcall	___awdiv
  2983     067A  0870               	movf	?___awdiv,w
  2984     067B  0471               	iorwf	?___awdiv+1,w
  2985     067C  1D03               	btfss	3,2
  2986     067D  2E7F               	goto	u1311
  2987     067E  2E80               	goto	u1310
  2988     067F                     u1311:
  2989     067F  2E4E               	goto	l1715
  2990     0680                     u1310:
  2991     0680  2EBB               	goto	l1721
  2992     0681                     l1717:
  2993                           
  2994                           ;EUSART.c: 166:     {;EUSART.c: 167:         int num = d / div;
  2995     0681  0826               	movf	itoa@div+1,w
  2996     0682  00F1               	movwf	___awdiv@divisor+1
  2997     0683  0825               	movf	itoa@div,w
  2998     0684  00F0               	movwf	___awdiv@divisor
  2999     0685  087A               	movf	itoa@d+1,w
  3000     0686  00F3               	movwf	___awdiv@dividend+1
  3001     0687  0879               	movf	itoa@d,w
  3002     0688  00F2               	movwf	___awdiv@dividend
  3003     0689  3185  2542  3186   	fcall	___awdiv
  3004     068C  0871               	movf	?___awdiv+1,w
  3005     068D  0020               	movlb	0	; select bank0
  3006     068E  00A1               	movwf	itoa@num+1
  3007     068F  0870               	movf	?___awdiv,w
  3008     0690  00A0               	movwf	itoa@num
  3009                           
  3010                           ;EUSART.c: 168:         d %= div;
  3011     0691  0826               	movf	itoa@div+1,w
  3012     0692  00F1               	movwf	___awmod@divisor+1
  3013     0693  0825               	movf	itoa@div,w
  3014     0694  00F0               	movwf	___awmod@divisor
  3015     0695  087A               	movf	itoa@d+1,w
  3016     0696  00F3               	movwf	___awmod@dividend+1
  3017     0697  0879               	movf	itoa@d,w
  3018     0698  00F2               	movwf	___awmod@dividend
  3019     0699  3184  24EF  3186   	fcall	___awmod
  3020     069C  0871               	movf	?___awmod+1,w
  3021     069D  00FA               	movwf	itoa@d+1
  3022     069E  0870               	movf	?___awmod,w
  3023     069F  00F9               	movwf	itoa@d
  3024                           
  3025                           ;EUSART.c: 169:         div /= 10;
  3026     06A0  300A               	movlw	10
  3027     06A1  00F0               	movwf	___awdiv@divisor
  3028     06A2  3000               	movlw	0
  3029     06A3  00F1               	movwf	___awdiv@divisor+1
  3030     06A4  0020               	movlb	0	; select bank0
  3031     06A5  0826               	movf	itoa@div+1,w
  3032     06A6  00F3               	movwf	___awdiv@dividend+1
  3033     06A7  0825               	movf	itoa@div,w
  3034     06A8  00F2               	movwf	___awdiv@dividend
  3035     06A9  3185  2542  3186   	fcall	___awdiv
  3036     06AC  0871               	movf	?___awdiv+1,w
  3037     06AD  0020               	movlb	0	; select bank0
  3038     06AE  00A6               	movwf	itoa@div+1
  3039     06AF  0870               	movf	?___awdiv,w
  3040     06B0  00A5               	movwf	itoa@div
  3041     06B1                     l1719:
  3042                           
  3043                           ;EUSART.c: 170:         *((*buf)++) = num + '0';
  3044     06B1  0824               	movf	itoa@buf,w
  3045     06B2  0086               	movwf	6
  3046     06B3  0187               	clrf	7
  3047     06B4  3F40               	moviw [0]fsr1
  3048     06B5  0084               	movwf	4
  3049     06B6  0185               	clrf	5
  3050     06B7  0A81               	incf	1,f
  3051     06B8  0820               	movf	itoa@num,w
  3052     06B9  3E30               	addlw	48
  3053     06BA  0080               	movwf	0
  3054     06BB                     l1721:
  3055                           
  3056                           ;EUSART.c: 165:     while (div != 0)
  3057     06BB  0020               	movlb	0	; select bank0
  3058     06BC  0825               	movf	itoa@div,w
  3059     06BD  0426               	iorwf	itoa@div+1,w
  3060     06BE  1D03               	btfss	3,2
  3061     06BF  2EC1               	goto	u1321
  3062     06C0  2EC2               	goto	u1320
  3063     06C1                     u1321:
  3064     06C1  2E81               	goto	l1717
  3065     06C2                     u1320:
  3066     06C2                     l1723:
  3067                           
  3068                           ;EUSART.c: 172:     *(*buf) = '\0';
  3069     06C2  0824               	movf	itoa@buf,w
  3070     06C3  0086               	movwf	6
  3071     06C4  0187               	clrf	7
  3072     06C5  0801               	movf	1,w
  3073     06C6  0086               	movwf	6
  3074     06C7  0187               	clrf	7
  3075     06C8  0181               	clrf	1
  3076     06C9                     l181:
  3077     06C9  0008               	return
  3078     06CA                     __end_of_itoa:
  3079                           
  3080                           	psect	text8
  3081     023D                     __ptext8:	
  3082 ;; *************** function ___wmul *****************
  3083 ;; Defined at:
  3084 ;;		line 15 in file "C:\Program Files\Microchip\xc8\v2.46\pic\sources\c99\common\Umul16.c"
  3085 ;; Parameters:    Size  Location     Type
  3086 ;;  multiplier      2    0[COMMON] unsigned int 
  3087 ;;  multiplicand    2    2[COMMON] unsigned int 
  3088 ;; Auto vars:     Size  Location     Type
  3089 ;;  product         2    4[COMMON] unsigned int 
  3090 ;; Return value:  Size  Location     Type
  3091 ;;                  2    0[COMMON] unsigned int 
  3092 ;; Registers used:
  3093 ;;		wreg, status,2, status,0
  3094 ;; Tracked objects:
  3095 ;;		On entry : 0/0
  3096 ;;		On exit  : 0/0
  3097 ;;		Unchanged: 0/0
  3098 ;; Data sizes:     COMMON   BANK0   BANK1   BANK2   BANK3   BANK4   BANK5   BANK6   BANK7   BANK8   BANK9  BANK10  BANK1
      +1  BANK12  BANK13  BANK14  BANK15  BANK16  BANK17  BANK18  BANK19  BANK20  BANK21  BANK22  BANK23  BANK24  BANK25
  3099 ;;      Params:         4       0       0       0       0       0       0       0       0       0       0       0       
      +0       0       0       0       0       0       0       0       0       0       0       0       0       0       0
  3100 ;;      Locals:         2       0       0       0       0       0       0       0       0       0       0       0       
      +0       0       0       0       0       0       0       0       0       0       0       0       0       0       0
  3101 ;;      Temps:          0       0       0       0       0       0       0       0       0       0       0       0       
      +0       0       0       0       0       0       0       0       0       0       0       0       0       0       0
  3102 ;;      Totals:         6       0       0       0       0       0       0       0       0       0       0       0       
      +0       0       0       0       0       0       0       0       0       0       0       0       0       0       0
  3103 ;;Total ram usage:        6 bytes
  3104 ;; Hardware stack levels used: 1
  3105 ;; This function calls:
  3106 ;;		Nothing
  3107 ;; This function is called by:
  3108 ;;		_itoa
  3109 ;; This function uses a non-reentrant model
  3110 ;;
  3111                           
  3112     023D                     ___wmul:	
  3113                           ;psect for function ___wmul
  3114                           
  3115     023D                     l1515:	
  3116                           ;incstack = 0
  3117                           ; Regs used in ___wmul: [wreg+status,2+status,0]
  3118                           
  3119     023D  01F4               	clrf	___wmul@product
  3120     023E  01F5               	clrf	___wmul@product+1
  3121     023F                     l1517:
  3122     023F  1C70               	btfss	___wmul@multiplier,0
  3123     0240  2A42               	goto	u951
  3124     0241  2A43               	goto	u950
  3125     0242                     u951:
  3126     0242  2A47               	goto	l325
  3127     0243                     u950:
  3128     0243                     l1519:
  3129     0243  0872               	movf	___wmul@multiplicand,w
  3130     0244  07F4               	addwf	___wmul@product,f
  3131     0245  0873               	movf	___wmul@multiplicand+1,w
  3132     0246  3DF5               	addwfc	___wmul@product+1,f
  3133     0247                     l325:
  3134     0247  3001               	movlw	1
  3135     0248                     u965:
  3136     0248  35F2               	lslf	___wmul@multiplicand,f
  3137     0249  0DF3               	rlf	___wmul@multiplicand+1,f
  3138     024A  0B89               	decfsz	9,f
  3139     024B  2A48               	goto	u965
  3140     024C                     l1521:
  3141     024C  3001               	movlw	1
  3142     024D                     u975:
  3143     024D  36F1               	lsrf	___wmul@multiplier+1,f
  3144     024E  0CF0               	rrf	___wmul@multiplier,f
  3145     024F  0B89               	decfsz	9,f
  3146     0250  2A4D               	goto	u975
  3147     0251                     l1523:
  3148     0251  0870               	movf	___wmul@multiplier,w
  3149     0252  0471               	iorwf	___wmul@multiplier+1,w
  3150     0253  1D03               	btfss	3,2
  3151     0254  2A56               	goto	u981
  3152     0255  2A57               	goto	u980
  3153     0256                     u981:
  3154     0256  2A3F               	goto	l1517
  3155     0257                     u980:
  3156     0257                     l1525:
  3157     0257  0875               	movf	___wmul@product+1,w
  3158     0258  00F1               	movwf	?___wmul+1
  3159     0259  0874               	movf	___wmul@product,w
  3160     025A  00F0               	movwf	?___wmul
  3161     025B                     l327:
  3162     025B  0008               	return
  3163     025C                     __end_of___wmul:
  3164                           
  3165                           	psect	text9
  3166     04EF                     __ptext9:	
  3167 ;; *************** function ___awmod *****************
  3168 ;; Defined at:
  3169 ;;		line 5 in file "C:\Program Files\Microchip\xc8\v2.46\pic\sources\c99\common\awmod.c"
  3170 ;; Parameters:    Size  Location     Type
  3171 ;;  divisor         2    0[COMMON] int 
  3172 ;;  dividend        2    2[COMMON] int 
  3173 ;; Auto vars:     Size  Location     Type
  3174 ;;  sign            1    6[COMMON] unsigned char 
  3175 ;;  counter         1    5[COMMON] unsigned char 
  3176 ;; Return value:  Size  Location     Type
  3177 ;;                  2    0[COMMON] int 
  3178 ;; Registers used:
  3179 ;;		wreg, status,2, status,0
  3180 ;; Tracked objects:
  3181 ;;		On entry : 0/0
  3182 ;;		On exit  : 0/0
  3183 ;;		Unchanged: 0/0
  3184 ;; Data sizes:     COMMON   BANK0   BANK1   BANK2   BANK3   BANK4   BANK5   BANK6   BANK7   BANK8   BANK9  BANK10  BANK1
      +1  BANK12  BANK13  BANK14  BANK15  BANK16  BANK17  BANK18  BANK19  BANK20  BANK21  BANK22  BANK23  BANK24  BANK25
  3185 ;;      Params:         4       0       0       0       0       0       0       0       0       0       0       0       
      +0       0       0       0       0       0       0       0       0       0       0       0       0       0       0
  3186 ;;      Locals:         2       0       0       0       0       0       0       0       0       0       0       0       
      +0       0       0       0       0       0       0       0       0       0       0       0       0       0       0
  3187 ;;      Temps:          1       0       0       0       0       0       0       0       0       0       0       0       
      +0       0       0       0       0       0       0       0       0       0       0       0       0       0       0
  3188 ;;      Totals:         7       0       0       0       0       0       0       0       0       0       0       0       
      +0       0       0       0       0       0       0       0       0       0       0       0       0       0       0
  3189 ;;Total ram usage:        7 bytes
  3190 ;; Hardware stack levels used: 1
  3191 ;; This function calls:
  3192 ;;		Nothing
  3193 ;; This function is called by:
  3194 ;;		_itoa
  3195 ;; This function uses a non-reentrant model
  3196 ;;
  3197                           
  3198     04EF                     ___awmod:	
  3199                           ;psect for function ___awmod
  3200                           
  3201     04EF                     l1573:	
  3202                           ;incstack = 0
  3203                           ; Regs used in ___awmod: [wreg+status,2+status,0]
  3204                           
  3205     04EF  01F6               	clrf	___awmod@sign
  3206     04F0                     l1575:
  3207     04F0  1FF3               	btfss	___awmod@dividend+1,7
  3208     04F1  2CF3               	goto	u1091
  3209     04F2  2CF4               	goto	u1090
  3210     04F3                     u1091:
  3211     04F3  2CFB               	goto	l1581
  3212     04F4                     u1090:
  3213     04F4                     l1577:
  3214     04F4  09F2               	comf	___awmod@dividend,f
  3215     04F5  09F3               	comf	___awmod@dividend+1,f
  3216     04F6  0AF2               	incf	___awmod@dividend,f
  3217     04F7  1903               	skipnz
  3218     04F8  0AF3               	incf	___awmod@dividend+1,f
  3219     04F9                     l1579:
  3220     04F9  01F6               	clrf	___awmod@sign
  3221     04FA  0AF6               	incf	___awmod@sign,f
  3222     04FB                     l1581:
  3223     04FB  1FF1               	btfss	___awmod@divisor+1,7
  3224     04FC  2CFE               	goto	u1101
  3225     04FD  2CFF               	goto	u1100
  3226     04FE                     u1101:
  3227     04FE  2D04               	goto	l1585
  3228     04FF                     u1100:
  3229     04FF                     l1583:
  3230     04FF  09F0               	comf	___awmod@divisor,f
  3231     0500  09F1               	comf	___awmod@divisor+1,f
  3232     0501  0AF0               	incf	___awmod@divisor,f
  3233     0502  1903               	skipnz
  3234     0503  0AF1               	incf	___awmod@divisor+1,f
  3235     0504                     l1585:
  3236     0504  0870               	movf	___awmod@divisor,w
  3237     0505  0471               	iorwf	___awmod@divisor+1,w
  3238     0506  1903               	btfsc	3,2
  3239     0507  2D09               	goto	u1111
  3240     0508  2D0A               	goto	u1110
  3241     0509                     u1111:
  3242     0509  2D33               	goto	l1603
  3243     050A                     u1110:
  3244     050A                     l1587:
  3245     050A  01F5               	clrf	___awmod@counter
  3246     050B  0AF5               	incf	___awmod@counter,f
  3247     050C  2D16               	goto	l1593
  3248     050D                     l1589:
  3249     050D  3001               	movlw	1
  3250     050E                     u1125:
  3251     050E  35F0               	lslf	___awmod@divisor,f
  3252     050F  0DF1               	rlf	___awmod@divisor+1,f
  3253     0510  0B89               	decfsz	9,f
  3254     0511  2D0E               	goto	u1125
  3255     0512                     l1591:
  3256     0512  3001               	movlw	1
  3257     0513  00F4               	movwf	??___awmod
  3258     0514  0874               	movf	??___awmod,w
  3259     0515  07F5               	addwf	___awmod@counter,f
  3260     0516                     l1593:
  3261     0516  1FF1               	btfss	___awmod@divisor+1,7
  3262     0517  2D19               	goto	u1131
  3263     0518  2D1A               	goto	u1130
  3264     0519                     u1131:
  3265     0519  2D0D               	goto	l1589
  3266     051A                     u1130:
  3267     051A                     l1595:
  3268     051A  0871               	movf	___awmod@divisor+1,w
  3269     051B  0273               	subwf	___awmod@dividend+1,w
  3270     051C  1D03               	skipz
  3271     051D  2D20               	goto	u1145
  3272     051E  0870               	movf	___awmod@divisor,w
  3273     051F  0272               	subwf	___awmod@dividend,w
  3274     0520                     u1145:
  3275     0520  1C03               	skipc
  3276     0521  2D23               	goto	u1141
  3277     0522  2D24               	goto	u1140
  3278     0523                     u1141:
  3279     0523  2D28               	goto	l1599
  3280     0524                     u1140:
  3281     0524                     l1597:
  3282     0524  0870               	movf	___awmod@divisor,w
  3283     0525  02F2               	subwf	___awmod@dividend,f
  3284     0526  0871               	movf	___awmod@divisor+1,w
  3285     0527  3BF3               	subwfb	___awmod@dividend+1,f
  3286     0528                     l1599:
  3287     0528  3001               	movlw	1
  3288     0529                     u1155:
  3289     0529  36F1               	lsrf	___awmod@divisor+1,f
  3290     052A  0CF0               	rrf	___awmod@divisor,f
  3291     052B  0B89               	decfsz	9,f
  3292     052C  2D29               	goto	u1155
  3293     052D                     l1601:
  3294     052D  3001               	movlw	1
  3295     052E  02F5               	subwf	___awmod@counter,f
  3296     052F  1D03               	btfss	3,2
  3297     0530  2D32               	goto	u1161
  3298     0531  2D33               	goto	u1160
  3299     0532                     u1161:
  3300     0532  2D1A               	goto	l1595
  3301     0533                     u1160:
  3302     0533                     l1603:
  3303     0533  0876               	movf	___awmod@sign,w
  3304     0534  1903               	btfsc	3,2
  3305     0535  2D37               	goto	u1171
  3306     0536  2D38               	goto	u1170
  3307     0537                     u1171:
  3308     0537  2D3D               	goto	l1607
  3309     0538                     u1170:
  3310     0538                     l1605:
  3311     0538  09F2               	comf	___awmod@dividend,f
  3312     0539  09F3               	comf	___awmod@dividend+1,f
  3313     053A  0AF2               	incf	___awmod@dividend,f
  3314     053B  1903               	skipnz
  3315     053C  0AF3               	incf	___awmod@dividend+1,f
  3316     053D                     l1607:
  3317     053D  0873               	movf	___awmod@dividend+1,w
  3318     053E  00F1               	movwf	?___awmod+1
  3319     053F  0872               	movf	___awmod@dividend,w
  3320     0540  00F0               	movwf	?___awmod
  3321     0541                     l491:
  3322     0541  0008               	return
  3323     0542                     __end_of___awmod:
  3324                           
  3325                           	psect	text10
  3326     0542                     __ptext10:	
  3327 ;; *************** function ___awdiv *****************
  3328 ;; Defined at:
  3329 ;;		line 5 in file "C:\Program Files\Microchip\xc8\v2.46\pic\sources\c99\common\awdiv.c"
  3330 ;; Parameters:    Size  Location     Type
  3331 ;;  divisor         2    0[COMMON] int 
  3332 ;;  dividend        2    2[COMMON] int 
  3333 ;; Auto vars:     Size  Location     Type
  3334 ;;  quotient        2    7[COMMON] int 
  3335 ;;  sign            1    6[COMMON] unsigned char 
  3336 ;;  counter         1    5[COMMON] unsigned char 
  3337 ;; Return value:  Size  Location     Type
  3338 ;;                  2    0[COMMON] int 
  3339 ;; Registers used:
  3340 ;;		wreg, status,2, status,0
  3341 ;; Tracked objects:
  3342 ;;		On entry : 0/0
  3343 ;;		On exit  : 0/0
  3344 ;;		Unchanged: 0/0
  3345 ;; Data sizes:     COMMON   BANK0   BANK1   BANK2   BANK3   BANK4   BANK5   BANK6   BANK7   BANK8   BANK9  BANK10  BANK1
      +1  BANK12  BANK13  BANK14  BANK15  BANK16  BANK17  BANK18  BANK19  BANK20  BANK21  BANK22  BANK23  BANK24  BANK25
  3346 ;;      Params:         4       0       0       0       0       0       0       0       0       0       0       0       
      +0       0       0       0       0       0       0       0       0       0       0       0       0       0       0
  3347 ;;      Locals:         4       0       0       0       0       0       0       0       0       0       0       0       
      +0       0       0       0       0       0       0       0       0       0       0       0       0       0       0
  3348 ;;      Temps:          1       0       0       0       0       0       0       0       0       0       0       0       
      +0       0       0       0       0       0       0       0       0       0       0       0       0       0       0
  3349 ;;      Totals:         9       0       0       0       0       0       0       0       0       0       0       0       
      +0       0       0       0       0       0       0       0       0       0       0       0       0       0       0
  3350 ;;Total ram usage:        9 bytes
  3351 ;; Hardware stack levels used: 1
  3352 ;; This function calls:
  3353 ;;		Nothing
  3354 ;; This function is called by:
  3355 ;;		_itoa
  3356 ;; This function uses a non-reentrant model
  3357 ;;
  3358                           
  3359     0542                     ___awdiv:	
  3360                           ;psect for function ___awdiv
  3361                           
  3362     0542                     l1529:	
  3363                           ;incstack = 0
  3364                           ; Regs used in ___awdiv: [wreg+status,2+status,0]
  3365                           
  3366     0542  01F6               	clrf	___awdiv@sign
  3367     0543                     l1531:
  3368     0543  1FF1               	btfss	___awdiv@divisor+1,7
  3369     0544  2D46               	goto	u991
  3370     0545  2D47               	goto	u990
  3371     0546                     u991:
  3372     0546  2D4E               	goto	l1537
  3373     0547                     u990:
  3374     0547                     l1533:
  3375     0547  09F0               	comf	___awdiv@divisor,f
  3376     0548  09F1               	comf	___awdiv@divisor+1,f
  3377     0549  0AF0               	incf	___awdiv@divisor,f
  3378     054A  1903               	skipnz
  3379     054B  0AF1               	incf	___awdiv@divisor+1,f
  3380     054C                     l1535:
  3381     054C  01F6               	clrf	___awdiv@sign
  3382     054D  0AF6               	incf	___awdiv@sign,f
  3383     054E                     l1537:
  3384     054E  1FF3               	btfss	___awdiv@dividend+1,7
  3385     054F  2D51               	goto	u1001
  3386     0550  2D52               	goto	u1000
  3387     0551                     u1001:
  3388     0551  2D5B               	goto	l1543
  3389     0552                     u1000:
  3390     0552                     l1539:
  3391     0552  09F2               	comf	___awdiv@dividend,f
  3392     0553  09F3               	comf	___awdiv@dividend+1,f
  3393     0554  0AF2               	incf	___awdiv@dividend,f
  3394     0555  1903               	skipnz
  3395     0556  0AF3               	incf	___awdiv@dividend+1,f
  3396     0557                     l1541:
  3397     0557  3001               	movlw	1
  3398     0558  00F4               	movwf	??___awdiv
  3399     0559  0874               	movf	??___awdiv,w
  3400     055A  06F6               	xorwf	___awdiv@sign,f
  3401     055B                     l1543:
  3402     055B  01F7               	clrf	___awdiv@quotient
  3403     055C  01F8               	clrf	___awdiv@quotient+1
  3404     055D                     l1545:
  3405     055D  0870               	movf	___awdiv@divisor,w
  3406     055E  0471               	iorwf	___awdiv@divisor+1,w
  3407     055F  1903               	btfsc	3,2
  3408     0560  2D62               	goto	u1011
  3409     0561  2D63               	goto	u1010
  3410     0562                     u1011:
  3411     0562  2D92               	goto	l1565
  3412     0563                     u1010:
  3413     0563                     l1547:
  3414     0563  01F5               	clrf	___awdiv@counter
  3415     0564  0AF5               	incf	___awdiv@counter,f
  3416     0565  2D6F               	goto	l1553
  3417     0566                     l1549:
  3418     0566  3001               	movlw	1
  3419     0567                     u1025:
  3420     0567  35F0               	lslf	___awdiv@divisor,f
  3421     0568  0DF1               	rlf	___awdiv@divisor+1,f
  3422     0569  0B89               	decfsz	9,f
  3423     056A  2D67               	goto	u1025
  3424     056B                     l1551:
  3425     056B  3001               	movlw	1
  3426     056C  00F4               	movwf	??___awdiv
  3427     056D  0874               	movf	??___awdiv,w
  3428     056E  07F5               	addwf	___awdiv@counter,f
  3429     056F                     l1553:
  3430     056F  1FF1               	btfss	___awdiv@divisor+1,7
  3431     0570  2D72               	goto	u1031
  3432     0571  2D73               	goto	u1030
  3433     0572                     u1031:
  3434     0572  2D66               	goto	l1549
  3435     0573                     u1030:
  3436     0573                     l1555:
  3437     0573  3001               	movlw	1
  3438     0574                     u1045:
  3439     0574  35F7               	lslf	___awdiv@quotient,f
  3440     0575  0DF8               	rlf	___awdiv@quotient+1,f
  3441     0576  0B89               	decfsz	9,f
  3442     0577  2D74               	goto	u1045
  3443     0578  0871               	movf	___awdiv@divisor+1,w
  3444     0579  0273               	subwf	___awdiv@dividend+1,w
  3445     057A  1D03               	skipz
  3446     057B  2D7E               	goto	u1055
  3447     057C  0870               	movf	___awdiv@divisor,w
  3448     057D  0272               	subwf	___awdiv@dividend,w
  3449     057E                     u1055:
  3450     057E  1C03               	skipc
  3451     057F  2D81               	goto	u1051
  3452     0580  2D82               	goto	u1050
  3453     0581                     u1051:
  3454     0581  2D87               	goto	l1561
  3455     0582                     u1050:
  3456     0582                     l1557:
  3457     0582  0870               	movf	___awdiv@divisor,w
  3458     0583  02F2               	subwf	___awdiv@dividend,f
  3459     0584  0871               	movf	___awdiv@divisor+1,w
  3460     0585  3BF3               	subwfb	___awdiv@dividend+1,f
  3461     0586                     l1559:
  3462     0586  1477               	bsf	___awdiv@quotient,0
  3463     0587                     l1561:
  3464     0587  3001               	movlw	1
  3465     0588                     u1065:
  3466     0588  36F1               	lsrf	___awdiv@divisor+1,f
  3467     0589  0CF0               	rrf	___awdiv@divisor,f
  3468     058A  0B89               	decfsz	9,f
  3469     058B  2D88               	goto	u1065
  3470     058C                     l1563:
  3471     058C  3001               	movlw	1
  3472     058D  02F5               	subwf	___awdiv@counter,f
  3473     058E  1D03               	btfss	3,2
  3474     058F  2D91               	goto	u1071
  3475     0590  2D92               	goto	u1070
  3476     0591                     u1071:
  3477     0591  2D73               	goto	l1555
  3478     0592                     u1070:
  3479     0592                     l1565:
  3480     0592  0876               	movf	___awdiv@sign,w
  3481     0593  1903               	btfsc	3,2
  3482     0594  2D96               	goto	u1081
  3483     0595  2D97               	goto	u1080
  3484     0596                     u1081:
  3485     0596  2D9C               	goto	l1569
  3486     0597                     u1080:
  3487     0597                     l1567:
  3488     0597  09F7               	comf	___awdiv@quotient,f
  3489     0598  09F8               	comf	___awdiv@quotient+1,f
  3490     0599  0AF7               	incf	___awdiv@quotient,f
  3491     059A  1903               	skipnz
  3492     059B  0AF8               	incf	___awdiv@quotient+1,f
  3493     059C                     l1569:
  3494     059C  0878               	movf	___awdiv@quotient+1,w
  3495     059D  00F1               	movwf	?___awdiv+1
  3496     059E  0877               	movf	___awdiv@quotient,w
  3497     059F  00F0               	movwf	?___awdiv
  3498     05A0                     l478:
  3499     05A0  0008               	return
  3500     05A1                     __end_of___awdiv:
  3501                           
  3502                           	psect	text11
  3503     01D5                     __ptext11:	
  3504 ;; *************** function _EUSART_Write *****************
  3505 ;; Defined at:
  3506 ;;		line 108 in file "EUSART.c"
  3507 ;; Parameters:    Size  Location     Type
  3508 ;;  txData          1    wreg     unsigned char 
  3509 ;; Auto vars:     Size  Location     Type
  3510 ;;  txData          1    0[COMMON] unsigned char 
  3511 ;; Return value:  Size  Location     Type
  3512 ;;                  1    wreg      void 
  3513 ;; Registers used:
  3514 ;;		wreg
  3515 ;; Tracked objects:
  3516 ;;		On entry : 0/0
  3517 ;;		On exit  : 0/0
  3518 ;;		Unchanged: 0/0
  3519 ;; Data sizes:     COMMON   BANK0   BANK1   BANK2   BANK3   BANK4   BANK5   BANK6   BANK7   BANK8   BANK9  BANK10  BANK1
      +1  BANK12  BANK13  BANK14  BANK15  BANK16  BANK17  BANK18  BANK19  BANK20  BANK21  BANK22  BANK23  BANK24  BANK25
  3520 ;;      Params:         0       0       0       0       0       0       0       0       0       0       0       0       
      +0       0       0       0       0       0       0       0       0       0       0       0       0       0       0
  3521 ;;      Locals:         1       0       0       0       0       0       0       0       0       0       0       0       
      +0       0       0       0       0       0       0       0       0       0       0       0       0       0       0
  3522 ;;      Temps:          0       0       0       0       0       0       0       0       0       0       0       0       
      +0       0       0       0       0       0       0       0       0       0       0       0       0       0       0
  3523 ;;      Totals:         1       0       0       0       0       0       0       0       0       0       0       0       
      +0       0       0       0       0       0       0       0       0       0       0       0       0       0       0
  3524 ;;Total ram usage:        1 bytes
  3525 ;; Hardware stack levels used: 1
  3526 ;; This function calls:
  3527 ;;		Nothing
  3528 ;; This function is called by:
  3529 ;;		_EUSART_Write_Text
  3530 ;;		_EUSART_Write_Integer
  3531 ;; This function uses a non-reentrant model
  3532 ;;
  3533                           
  3534     01D5                     _EUSART_Write:	
  3535                           ;psect for function _EUSART_Write
  3536                           
  3537                           
  3538                           ;incstack = 0
  3539                           ; Regs used in _EUSART_Write: [wreg]
  3540                           ;EUSART_Write@txData stored from wreg
  3541     01D5  00F0               	movwf	EUSART_Write@txData
  3542     01D6                     l1703:
  3543     01D6                     l162:	
  3544                           ;EUSART.c: 111:     {;EUSART.c: 112:     }
  3545                           
  3546                           
  3547                           ;EUSART.c: 110:     while(0 == PIR1bits.TXIF)
  3548     01D6  0020               	movlb	0	; select bank0
  3549     01D7  1E11               	btfss	17,4	;volatile
  3550     01D8  29DA               	goto	u1291
  3551     01D9  29DB               	goto	u1290
  3552     01DA                     u1291:
  3553     01DA  29D6               	goto	l162
  3554     01DB                     u1290:
  3555     01DB                     l1705:
  3556                           
  3557                           ;EUSART.c: 114:     TX1REG = txData;
  3558     01DB  0870               	movf	EUSART_Write@txData,w
  3559     01DC  0023               	movlb	3	; select bank3
  3560     01DD  009A               	movwf	26	;volatile
  3561     01DE                     l165:
  3562     01DE  0008               	return
  3563     01DF                     __end_of_EUSART_Write:
  3564                           
  3565                           	psect	text12
  3566     049F                     __ptext12:	
  3567 ;; *************** function _EUSART_Initialize *****************
  3568 ;; Defined at:
  3569 ;;		line 36 in file "EUSART.c"
  3570 ;; Parameters:    Size  Location     Type
  3571 ;;  baudrate        4    6[BANK0 ] const long 
  3572 ;; Auto vars:     Size  Location     Type
  3573 ;;  x               2    9[COMMON] unsigned int 
  3574 ;; Return value:  Size  Location     Type
  3575 ;;                  1    wreg      unsigned char 
  3576 ;; Registers used:
  3577 ;;		wreg, status,2, status,0, pclath, cstack
  3578 ;; Tracked objects:
  3579 ;;		On entry : 0/0
  3580 ;;		On exit  : 0/0
  3581 ;;		Unchanged: 0/0
  3582 ;; Data sizes:     COMMON   BANK0   BANK1   BANK2   BANK3   BANK4   BANK5   BANK6   BANK7   BANK8   BANK9  BANK10  BANK1
      +1  BANK12  BANK13  BANK14  BANK15  BANK16  BANK17  BANK18  BANK19  BANK20  BANK21  BANK22  BANK23  BANK24  BANK25
  3583 ;;      Params:         0       4       0       0       0       0       0       0       0       0       0       0       
      +0       0       0       0       0       0       0       0       0       0       0       0       0       0       0
  3584 ;;      Locals:         2       0       0       0       0       0       0       0       0       0       0       0       
      +0       0       0       0       0       0       0       0       0       0       0       0       0       0       0
  3585 ;;      Temps:          0      12       0       0       0       0       0       0       0       0       0       0       
      +0       0       0       0       0       0       0       0       0       0       0       0       0       0       0
  3586 ;;      Totals:         2      16       0       0       0       0       0       0       0       0       0       0       
      +0       0       0       0       0       0       0       0       0       0       0       0       0       0       0
  3587 ;;Total ram usage:       18 bytes
  3588 ;; Hardware stack levels used: 1
  3589 ;; Hardware stack levels required when called: 1
  3590 ;; This function calls:
  3591 ;;		___aldiv
  3592 ;; This function is called by:
  3593 ;;		_main
  3594 ;; This function uses a non-reentrant model
  3595 ;;
  3596                           
  3597     049F                     _EUSART_Initialize:	
  3598                           ;psect for function _EUSART_Initialize
  3599                           
  3600     049F                     l1903:	
  3601                           ;incstack = 0
  3602                           ; Regs used in _EUSART_Initialize: [wreg+status,2+status,0+pclath+cstack]
  3603                           
  3604                           
  3605                           ;EUSART.c: 36: char EUSART_Initialize(const long int baudrate);EUSART.c: 37: {;EUSART.c:
      +                           38:     unsigned int x;;EUSART.c: 39:  x = (32000000 - baudrate*64)/(baudrate*64);
  3606     049F  0020               	movlb	0	; select bank0
  3607     04A0  0826               	movf	EUSART_Initialize@baudrate,w
  3608     04A1  00AA               	movwf	??_EUSART_Initialize
  3609     04A2  0827               	movf	EUSART_Initialize@baudrate+1,w
  3610     04A3  00AB               	movwf	??_EUSART_Initialize+1
  3611     04A4  0828               	movf	EUSART_Initialize@baudrate+2,w
  3612     04A5  00AC               	movwf	??_EUSART_Initialize+2
  3613     04A6  0829               	movf	EUSART_Initialize@baudrate+3,w
  3614     04A7  00AD               	movwf	??_EUSART_Initialize+3
  3615     04A8  3006               	movlw	6
  3616     04A9                     u1525:
  3617     04A9  35AA               	lslf	??_EUSART_Initialize,f
  3618     04AA  0DAB               	rlf	??_EUSART_Initialize+1,f
  3619     04AB  0DAC               	rlf	??_EUSART_Initialize+2,f
  3620     04AC  0DAD               	rlf	??_EUSART_Initialize+3,f
  3621     04AD                     u1520:
  3622     04AD  0B89               	decfsz	9,f
  3623     04AE  2CA9               	goto	u1525
  3624     04AF  082D               	movf	??_EUSART_Initialize+3,w
  3625     04B0  00F3               	movwf	___aldiv@divisor+3
  3626     04B1  082C               	movf	??_EUSART_Initialize+2,w
  3627     04B2  00F2               	movwf	___aldiv@divisor+2
  3628     04B3  082B               	movf	??_EUSART_Initialize+1,w
  3629     04B4  00F1               	movwf	___aldiv@divisor+1
  3630     04B5  082A               	movf	??_EUSART_Initialize,w
  3631     04B6  00F0               	movwf	___aldiv@divisor
  3632     04B7  0826               	movf	EUSART_Initialize@baudrate,w
  3633     04B8  00AE               	movwf	??_EUSART_Initialize+4
  3634     04B9  0827               	movf	EUSART_Initialize@baudrate+1,w
  3635     04BA  00AF               	movwf	??_EUSART_Initialize+5
  3636     04BB  0828               	movf	EUSART_Initialize@baudrate+2,w
  3637     04BC  00B0               	movwf	??_EUSART_Initialize+6
  3638     04BD  0829               	movf	EUSART_Initialize@baudrate+3,w
  3639     04BE  00B1               	movwf	??_EUSART_Initialize+7
  3640     04BF  3006               	movlw	6
  3641     04C0                     u1535:
  3642     04C0  35AE               	lslf	??_EUSART_Initialize+4,f
  3643     04C1  0DAF               	rlf	??_EUSART_Initialize+5,f
  3644     04C2  0DB0               	rlf	??_EUSART_Initialize+6,f
  3645     04C3  0DB1               	rlf	??_EUSART_Initialize+7,f
  3646     04C4                     u1530:
  3647     04C4  0B89               	decfsz	9,f
  3648     04C5  2CC0               	goto	u1535
  3649     04C6  3000               	movlw	0
  3650     04C7  00B2               	movwf	??_EUSART_Initialize+8
  3651     04C8  3048               	movlw	72
  3652     04C9  00B3               	movwf	??_EUSART_Initialize+9
  3653     04CA  30E8               	movlw	232
  3654     04CB  00B4               	movwf	??_EUSART_Initialize+10
  3655     04CC  3001               	movlw	1
  3656     04CD  00B5               	movwf	??_EUSART_Initialize+11
  3657     04CE  082E               	movf	??_EUSART_Initialize+4,w
  3658     04CF  02B2               	subwf	??_EUSART_Initialize+8,f
  3659     04D0  082F               	movf	??_EUSART_Initialize+5,w
  3660     04D1  3BB3               	subwfb	??_EUSART_Initialize+9,f
  3661     04D2  0830               	movf	??_EUSART_Initialize+6,w
  3662     04D3  3BB4               	subwfb	??_EUSART_Initialize+10,f
  3663     04D4  0831               	movf	??_EUSART_Initialize+7,w
  3664     04D5  3BB5               	subwfb	??_EUSART_Initialize+11,f
  3665     04D6  0835               	movf	??_EUSART_Initialize+11,w
  3666     04D7  00F7               	movwf	___aldiv@dividend+3
  3667     04D8  0834               	movf	??_EUSART_Initialize+10,w
  3668     04D9  00F6               	movwf	___aldiv@dividend+2
  3669     04DA  0833               	movf	??_EUSART_Initialize+9,w
  3670     04DB  00F5               	movwf	___aldiv@dividend+1
  3671     04DC  0832               	movf	??_EUSART_Initialize+8,w
  3672     04DD  00F4               	movwf	___aldiv@dividend
  3673     04DE  3185  25A1  3184   	fcall	___aldiv
  3674     04E1  0871               	movf	?___aldiv+1,w
  3675     04E2  00FA               	movwf	EUSART_Initialize@x+1
  3676     04E3  0870               	movf	?___aldiv,w
  3677     04E4  00F9               	movwf	EUSART_Initialize@x
  3678     04E5                     l1905:
  3679                           
  3680                           ;EUSART.c: 41:  SPBRGL = x;
  3681     04E5  0879               	movf	EUSART_Initialize@x,w
  3682     04E6  0023               	movlb	3	; select bank3
  3683     04E7  009B               	movwf	27	;volatile
  3684     04E8                     l1907:
  3685                           
  3686                           ;EUSART.c: 42:     BRGH = 0;
  3687     04E8  111E               	bcf	30,2	;volatile
  3688     04E9                     l1909:
  3689                           
  3690                           ;EUSART.c: 43:     BRG16 = 0;
  3691     04E9  119F               	bcf	31,3	;volatile
  3692     04EA                     l1911:
  3693                           
  3694                           ;EUSART.c: 44:     SYNC = 0;
  3695     04EA  121E               	bcf	30,4	;volatile
  3696     04EB                     l1913:
  3697                           
  3698                           ;EUSART.c: 45:     SPEN = 1;
  3699     04EB  179D               	bsf	29,7	;volatile
  3700     04EC                     l1915:
  3701                           
  3702                           ;EUSART.c: 46:     CREN = 1;
  3703     04EC  161D               	bsf	29,4	;volatile
  3704     04ED                     l1917:
  3705                           
  3706                           ;EUSART.c: 47:     TXEN = 1;
  3707     04ED  169E               	bsf	30,5	;volatile
  3708     04EE                     l146:
  3709     04EE  0008               	return
  3710     04EF                     __end_of_EUSART_Initialize:
  3711                           
  3712                           	psect	text13
  3713     05A1                     __ptext13:	
  3714 ;; *************** function ___aldiv *****************
  3715 ;; Defined at:
  3716 ;;		line 5 in file "C:\Program Files\Microchip\xc8\v2.46\pic\sources\c99\common\aldiv.c"
  3717 ;; Parameters:    Size  Location     Type
  3718 ;;  divisor         4    0[COMMON] long 
  3719 ;;  dividend        4    4[COMMON] long 
  3720 ;; Auto vars:     Size  Location     Type
  3721 ;;  quotient        4    2[BANK0 ] long 
  3722 ;;  sign            1    1[BANK0 ] unsigned char 
  3723 ;;  counter         1    0[BANK0 ] unsigned char 
  3724 ;; Return value:  Size  Location     Type
  3725 ;;                  4    0[COMMON] long 
  3726 ;; Registers used:
  3727 ;;		wreg, status,2, status,0
  3728 ;; Tracked objects:
  3729 ;;		On entry : 0/0
  3730 ;;		On exit  : 0/0
  3731 ;;		Unchanged: 0/0
  3732 ;; Data sizes:     COMMON   BANK0   BANK1   BANK2   BANK3   BANK4   BANK5   BANK6   BANK7   BANK8   BANK9  BANK10  BANK1
      +1  BANK12  BANK13  BANK14  BANK15  BANK16  BANK17  BANK18  BANK19  BANK20  BANK21  BANK22  BANK23  BANK24  BANK25
  3733 ;;      Params:         8       0       0       0       0       0       0       0       0       0       0       0       
      +0       0       0       0       0       0       0       0       0       0       0       0       0       0       0
  3734 ;;      Locals:         0       6       0       0       0       0       0       0       0       0       0       0       
      +0       0       0       0       0       0       0       0       0       0       0       0       0       0       0
  3735 ;;      Temps:          1       0       0       0       0       0       0       0       0       0       0       0       
      +0       0       0       0       0       0       0       0       0       0       0       0       0       0       0
  3736 ;;      Totals:         9       6       0       0       0       0       0       0       0       0       0       0       
      +0       0       0       0       0       0       0       0       0       0       0       0       0       0       0
  3737 ;;Total ram usage:       15 bytes
  3738 ;; Hardware stack levels used: 1
  3739 ;; This function calls:
  3740 ;;		Nothing
  3741 ;; This function is called by:
  3742 ;;		_EUSART_Initialize
  3743 ;; This function uses a non-reentrant model
  3744 ;;
  3745                           
  3746     05A1                     ___aldiv:	
  3747                           ;psect for function ___aldiv
  3748                           
  3749     05A1                     l1727:	
  3750                           ;incstack = 0
  3751                           ; Regs used in ___aldiv: [wreg+status,2+status,0]
  3752                           
  3753     05A1  0020               	movlb	0	; select bank0
  3754     05A2  01A1               	clrf	___aldiv@sign
  3755     05A3                     l1729:
  3756     05A3  1FF3               	btfss	___aldiv@divisor+3,7
  3757     05A4  2DA6               	goto	u1331
  3758     05A5  2DA7               	goto	u1330
  3759     05A6                     u1331:
  3760     05A6  2DB4               	goto	l390
  3761     05A7                     u1330:
  3762     05A7                     l1731:
  3763     05A7  09F0               	comf	___aldiv@divisor,f
  3764     05A8  09F1               	comf	___aldiv@divisor+1,f
  3765     05A9  09F2               	comf	___aldiv@divisor+2,f
  3766     05AA  09F3               	comf	___aldiv@divisor+3,f
  3767     05AB  0AF0               	incf	___aldiv@divisor,f
  3768     05AC  1903               	skipnz
  3769     05AD  0AF1               	incf	___aldiv@divisor+1,f
  3770     05AE  1903               	skipnz
  3771     05AF  0AF2               	incf	___aldiv@divisor+2,f
  3772     05B0  1903               	skipnz
  3773     05B1  0AF3               	incf	___aldiv@divisor+3,f
  3774     05B2  01A1               	clrf	___aldiv@sign
  3775     05B3  0AA1               	incf	___aldiv@sign,f
  3776     05B4                     l390:
  3777     05B4  1FF7               	btfss	___aldiv@dividend+3,7
  3778     05B5  2DB7               	goto	u1341
  3779     05B6  2DB8               	goto	u1340
  3780     05B7                     u1341:
  3781     05B7  2DC7               	goto	l1737
  3782     05B8                     u1340:
  3783     05B8                     l1733:
  3784     05B8  09F4               	comf	___aldiv@dividend,f
  3785     05B9  09F5               	comf	___aldiv@dividend+1,f
  3786     05BA  09F6               	comf	___aldiv@dividend+2,f
  3787     05BB  09F7               	comf	___aldiv@dividend+3,f
  3788     05BC  0AF4               	incf	___aldiv@dividend,f
  3789     05BD  1903               	skipnz
  3790     05BE  0AF5               	incf	___aldiv@dividend+1,f
  3791     05BF  1903               	skipnz
  3792     05C0  0AF6               	incf	___aldiv@dividend+2,f
  3793     05C1  1903               	skipnz
  3794     05C2  0AF7               	incf	___aldiv@dividend+3,f
  3795     05C3                     l1735:
  3796     05C3  3001               	movlw	1
  3797     05C4  00F8               	movwf	??___aldiv
  3798     05C5  0878               	movf	??___aldiv,w
  3799     05C6  06A1               	xorwf	___aldiv@sign,f
  3800     05C7                     l1737:
  3801     05C7  3000               	movlw	0
  3802     05C8  00A5               	movwf	___aldiv@quotient+3
  3803     05C9  3000               	movlw	0
  3804     05CA  00A4               	movwf	___aldiv@quotient+2
  3805     05CB  3000               	movlw	0
  3806     05CC  00A3               	movwf	___aldiv@quotient+1
  3807     05CD  3000               	movlw	0
  3808     05CE  00A2               	movwf	___aldiv@quotient
  3809     05CF                     l1739:
  3810     05CF  0873               	movf	___aldiv@divisor+3,w
  3811     05D0  0472               	iorwf	___aldiv@divisor+2,w
  3812     05D1  0471               	iorwf	___aldiv@divisor+1,w
  3813     05D2  0470               	iorwf	___aldiv@divisor,w
  3814     05D3  1903               	skipnz
  3815     05D4  2DD6               	goto	u1351
  3816     05D5  2DD7               	goto	u1350
  3817     05D6                     u1351:
  3818     05D6  2E18               	goto	l1759
  3819     05D7                     u1350:
  3820     05D7                     l1741:
  3821     05D7  01A0               	clrf	___aldiv@counter
  3822     05D8  0AA0               	incf	___aldiv@counter,f
  3823     05D9  2DE5               	goto	l1745
  3824     05DA                     l1743:
  3825     05DA  3001               	movlw	1
  3826     05DB                     u1365:
  3827     05DB  35F0               	lslf	___aldiv@divisor,f
  3828     05DC  0DF1               	rlf	___aldiv@divisor+1,f
  3829     05DD  0DF2               	rlf	___aldiv@divisor+2,f
  3830     05DE  0DF3               	rlf	___aldiv@divisor+3,f
  3831     05DF  0B89               	decfsz	9,f
  3832     05E0  2DDB               	goto	u1365
  3833     05E1  3001               	movlw	1
  3834     05E2  00F8               	movwf	??___aldiv
  3835     05E3  0878               	movf	??___aldiv,w
  3836     05E4  07A0               	addwf	___aldiv@counter,f
  3837     05E5                     l1745:
  3838     05E5  1FF3               	btfss	___aldiv@divisor+3,7
  3839     05E6  2DE8               	goto	u1371
  3840     05E7  2DE9               	goto	u1370
  3841     05E8                     u1371:
  3842     05E8  2DDA               	goto	l1743
  3843     05E9                     u1370:
  3844     05E9                     l1747:
  3845     05E9  3001               	movlw	1
  3846     05EA                     u1385:
  3847     05EA  35A2               	lslf	___aldiv@quotient,f
  3848     05EB  0DA3               	rlf	___aldiv@quotient+1,f
  3849     05EC  0DA4               	rlf	___aldiv@quotient+2,f
  3850     05ED  0DA5               	rlf	___aldiv@quotient+3,f
  3851     05EE  0B89               	decfsz	9,f
  3852     05EF  2DEA               	goto	u1385
  3853     05F0                     l1749:
  3854     05F0  0873               	movf	___aldiv@divisor+3,w
  3855     05F1  0277               	subwf	___aldiv@dividend+3,w
  3856     05F2  1D03               	skipz
  3857     05F3  2DFE               	goto	u1395
  3858     05F4  0872               	movf	___aldiv@divisor+2,w
  3859     05F5  0276               	subwf	___aldiv@dividend+2,w
  3860     05F6  1D03               	skipz
  3861     05F7  2DFE               	goto	u1395
  3862     05F8  0871               	movf	___aldiv@divisor+1,w
  3863     05F9  0275               	subwf	___aldiv@dividend+1,w
  3864     05FA  1D03               	skipz
  3865     05FB  2DFE               	goto	u1395
  3866     05FC  0870               	movf	___aldiv@divisor,w
  3867     05FD  0274               	subwf	___aldiv@dividend,w
  3868     05FE                     u1395:
  3869     05FE  1C03               	skipc
  3870     05FF  2E01               	goto	u1391
  3871     0600  2E02               	goto	u1390
  3872     0601                     u1391:
  3873     0601  2E0B               	goto	l1755
  3874     0602                     u1390:
  3875     0602                     l1751:
  3876     0602  0870               	movf	___aldiv@divisor,w
  3877     0603  02F4               	subwf	___aldiv@dividend,f
  3878     0604  0871               	movf	___aldiv@divisor+1,w
  3879     0605  3BF5               	subwfb	___aldiv@dividend+1,f
  3880     0606  0872               	movf	___aldiv@divisor+2,w
  3881     0607  3BF6               	subwfb	___aldiv@dividend+2,f
  3882     0608  0873               	movf	___aldiv@divisor+3,w
  3883     0609  3BF7               	subwfb	___aldiv@dividend+3,f
  3884     060A                     l1753:
  3885     060A  1422               	bsf	___aldiv@quotient,0
  3886     060B                     l1755:
  3887     060B  3001               	movlw	1
  3888     060C                     u1405:
  3889     060C  36F3               	lsrf	___aldiv@divisor+3,f
  3890     060D  0CF2               	rrf	___aldiv@divisor+2,f
  3891     060E  0CF1               	rrf	___aldiv@divisor+1,f
  3892     060F  0CF0               	rrf	___aldiv@divisor,f
  3893     0610  0B89               	decfsz	9,f
  3894     0611  2E0C               	goto	u1405
  3895     0612                     l1757:
  3896     0612  3001               	movlw	1
  3897     0613  02A0               	subwf	___aldiv@counter,f
  3898     0614  1D03               	btfss	3,2
  3899     0615  2E17               	goto	u1411
  3900     0616  2E18               	goto	u1410
  3901     0617                     u1411:
  3902     0617  2DE9               	goto	l1747
  3903     0618                     u1410:
  3904     0618                     l1759:
  3905     0618  0821               	movf	___aldiv@sign,w
  3906     0619  1903               	btfsc	3,2
  3907     061A  2E1C               	goto	u1421
  3908     061B  2E1D               	goto	u1420
  3909     061C                     u1421:
  3910     061C  2E28               	goto	l1763
  3911     061D                     u1420:
  3912     061D                     l1761:
  3913     061D  09A2               	comf	___aldiv@quotient,f
  3914     061E  09A3               	comf	___aldiv@quotient+1,f
  3915     061F  09A4               	comf	___aldiv@quotient+2,f
  3916     0620  09A5               	comf	___aldiv@quotient+3,f
  3917     0621  0AA2               	incf	___aldiv@quotient,f
  3918     0622  1903               	skipnz
  3919     0623  0AA3               	incf	___aldiv@quotient+1,f
  3920     0624  1903               	skipnz
  3921     0625  0AA4               	incf	___aldiv@quotient+2,f
  3922     0626  1903               	skipnz
  3923     0627  0AA5               	incf	___aldiv@quotient+3,f
  3924     0628                     l1763:
  3925     0628  0825               	movf	___aldiv@quotient+3,w
  3926     0629  00F3               	movwf	?___aldiv+3
  3927     062A  0824               	movf	___aldiv@quotient+2,w
  3928     062B  00F2               	movwf	?___aldiv+2
  3929     062C  0823               	movf	___aldiv@quotient+1,w
  3930     062D  00F1               	movwf	?___aldiv+1
  3931     062E  0822               	movf	___aldiv@quotient,w
  3932     062F  00F0               	movwf	?___aldiv
  3933     0630                     l400:
  3934     0630  0008               	return
  3935     0631                     __end_of___aldiv:
  3936                           
  3937                           	psect	text14
  3938     03BB                     __ptext14:	
  3939 ;; *************** function _EEPROM_WriteByte *****************
  3940 ;; Defined at:
  3941 ;;		line 67 in file "main.c"
  3942 ;; Parameters:    Size  Location     Type
  3943 ;;  memAddr         2   11[COMMON] unsigned short 
  3944 ;;  data            1   13[COMMON] unsigned char 
  3945 ;; Auto vars:     Size  Location     Type
  3946 ;;  st              1    0[BANK0 ] enum E6055
  3947 ;; Return value:  Size  Location     Type
  3948 ;;                  1    wreg      enum E6055
  3949 ;; Registers used:
  3950 ;;		wreg, status,2, status,0, pclath, cstack
  3951 ;; Tracked objects:
  3952 ;;		On entry : 0/0
  3953 ;;		On exit  : 0/0
  3954 ;;		Unchanged: 0/0
  3955 ;; Data sizes:     COMMON   BANK0   BANK1   BANK2   BANK3   BANK4   BANK5   BANK6   BANK7   BANK8   BANK9  BANK10  BANK1
      +1  BANK12  BANK13  BANK14  BANK15  BANK16  BANK17  BANK18  BANK19  BANK20  BANK21  BANK22  BANK23  BANK24  BANK25
  3956 ;;      Params:         3       0       0       0       0       0       0       0       0       0       0       0       
      +0       0       0       0       0       0       0       0       0       0       0       0       0       0       0
  3957 ;;      Locals:         0       1       0       0       0       0       0       0       0       0       0       0       
      +0       0       0       0       0       0       0       0       0       0       0       0       0       0       0
  3958 ;;      Temps:          0       0       0       0       0       0       0       0       0       0       0       0       
      +0       0       0       0       0       0       0       0       0       0       0       0       0       0       0
  3959 ;;      Totals:         3       1       0       0       0       0       0       0       0       0       0       0       
      +0       0       0       0       0       0       0       0       0       0       0       0       0       0       0
  3960 ;;Total ram usage:        4 bytes
  3961 ;; Hardware stack levels used: 1
  3962 ;; Hardware stack levels required when called: 3
  3963 ;; This function calls:
  3964 ;;		_EEPROM_AckPoll
  3965 ;;		_EEPROM_ControlByte
  3966 ;;		_I2C_Start
  3967 ;;		_I2C_Stop
  3968 ;;		_I2C_WriteByte
  3969 ;; This function is called by:
  3970 ;;		_main
  3971 ;; This function uses a non-reentrant model
  3972 ;;
  3973                           
  3974     03BB                     _EEPROM_WriteByte:	
  3975                           ;psect for function _EEPROM_WriteByte
  3976                           
  3977     03BB                     l1767:	
  3978                           ;incstack = 0
  3979                           ; Regs used in _EEPROM_WriteByte: [wreg+status,2+status,0+pclath+cstack]
  3980                           
  3981                           
  3982                           ;main.c: 67: I2C_Status_t EEPROM_WriteByte(uint16_t memAddr, uint8_t data);main.c: 68: {
      +                          ;main.c: 69:     I2C_Status_t st;;main.c: 71:     st = I2C_Start();
  3983     03BB  3182  22EC  3183   	fcall	_I2C_Start
  3984     03BE  0020               	movlb	0	; select bank0
  3985     03BF  00A0               	movwf	EEPROM_WriteByte@st
  3986     03C0                     l1769:
  3987                           
  3988                           ;main.c: 72:     if (st != I2C_OK) return st;
  3989     03C0  0820               	movf	EEPROM_WriteByte@st,w
  3990     03C1  1903               	btfsc	3,2
  3991     03C2  2BC4               	goto	u1431
  3992     03C3  2BC5               	goto	u1430
  3993     03C4                     u1431:
  3994     03C4  2BC8               	goto	l1775
  3995     03C5                     u1430:
  3996     03C5                     l1771:
  3997     03C5  0020               	movlb	0	; select bank0
  3998     03C6  0820               	movf	EEPROM_WriteByte@st,w
  3999     03C7  2C01               	goto	l95
  4000     03C8                     l1775:
  4001                           
  4002                           ;main.c: 74:     st = I2C_WriteByte(EEPROM_ControlByte(memAddr, 0));
  4003     03C8  087C               	movf	EEPROM_WriteByte@memAddr+1,w
  4004     03C9  00F1               	movwf	EEPROM_ControlByte@memAddr+1
  4005     03CA  087B               	movf	EEPROM_WriteByte@memAddr,w
  4006     03CB  00F0               	movwf	EEPROM_ControlByte@memAddr
  4007     03CC  01F2               	clrf	EEPROM_ControlByte@read
  4008     03CD  3181  21DF  3183   	fcall	_EEPROM_ControlByte
  4009     03D0  3183  2311  3183   	fcall	_I2C_WriteByte
  4010     03D3  0020               	movlb	0	; select bank0
  4011     03D4  00A0               	movwf	EEPROM_WriteByte@st
  4012     03D5                     l1777:
  4013                           
  4014                           ;main.c: 75:     if (st != I2C_OK) { I2C_Stop(); return st; }
  4015     03D5  0820               	movf	EEPROM_WriteByte@st,w
  4016     03D6  1903               	btfsc	3,2
  4017     03D7  2BD9               	goto	u1441
  4018     03D8  2BDA               	goto	u1440
  4019     03D9                     u1441:
  4020     03D9  2BDE               	goto	l1785
  4021     03DA                     u1440:
  4022     03DA                     l1779:
  4023     03DA  3182  225C  3183   	fcall	_I2C_Stop
  4024     03DD  2BC5               	goto	l1771
  4025     03DE                     l1785:
  4026                           
  4027                           ;main.c: 77:     st = I2C_WriteByte((uint8_t)(memAddr & 0xFF));
  4028     03DE  087B               	movf	EEPROM_WriteByte@memAddr,w
  4029     03DF  3183  2311  3183   	fcall	_I2C_WriteByte
  4030     03E2  0020               	movlb	0	; select bank0
  4031     03E3  00A0               	movwf	EEPROM_WriteByte@st
  4032     03E4                     l1787:
  4033                           
  4034                           ;main.c: 78:     if (st != I2C_OK) { I2C_Stop(); return st; }
  4035     03E4  0820               	movf	EEPROM_WriteByte@st,w
  4036     03E5  1903               	btfsc	3,2
  4037     03E6  2BE8               	goto	u1451
  4038     03E7  2BE9               	goto	u1450
  4039     03E8                     u1451:
  4040     03E8  2BEA               	goto	l1795
  4041     03E9                     u1450:
  4042     03E9  2BDA               	goto	l1779
  4043     03EA                     l1795:
  4044                           
  4045                           ;main.c: 80:     st = I2C_WriteByte(data);
  4046     03EA  087D               	movf	EEPROM_WriteByte@data,w
  4047     03EB  3183  2311  3183   	fcall	_I2C_WriteByte
  4048     03EE  0020               	movlb	0	; select bank0
  4049     03EF  00A0               	movwf	EEPROM_WriteByte@st
  4050                           
  4051                           ;main.c: 81:     I2C_Stop();
  4052     03F0  3182  225C  3183   	fcall	_I2C_Stop
  4053     03F3                     l1797:
  4054                           
  4055                           ;main.c: 82:     if (st != I2C_OK) return st;
  4056     03F3  0020               	movlb	0	; select bank0
  4057     03F4  0820               	movf	EEPROM_WriteByte@st,w
  4058     03F5  1903               	btfsc	3,2
  4059     03F6  2BF8               	goto	u1461
  4060     03F7  2BF9               	goto	u1460
  4061     03F8                     u1461:
  4062     03F8  2BFA               	goto	l1803
  4063     03F9                     u1460:
  4064     03F9  2BC5               	goto	l1771
  4065     03FA                     l1803:
  4066                           
  4067                           ;main.c: 84:     return EEPROM_AckPoll(memAddr);
  4068     03FA  087C               	movf	EEPROM_WriteByte@memAddr+1,w
  4069     03FB  00F6               	movwf	EEPROM_AckPoll@memAddr+1
  4070     03FC  087B               	movf	EEPROM_WriteByte@memAddr,w
  4071     03FD  00F5               	movwf	EEPROM_AckPoll@memAddr
  4072     03FE  3183  2343  3183   	fcall	_EEPROM_AckPoll
  4073     0401                     l95:
  4074     0401  0008               	return
  4075     0402                     __end_of_EEPROM_WriteByte:
  4076                           
  4077                           	psect	text15
  4078     0343                     __ptext15:	
  4079 ;; *************** function _EEPROM_AckPoll *****************
  4080 ;; Defined at:
  4081 ;;		line 49 in file "main.c"
  4082 ;; Parameters:    Size  Location     Type
  4083 ;;  memAddr         2    5[COMMON] unsigned short 
  4084 ;; Auto vars:     Size  Location     Type
  4085 ;;  st              1   10[COMMON] enum E6055
  4086 ;;  t               2    8[COMMON] unsigned short 
  4087 ;; Return value:  Size  Location     Type
  4088 ;;                  1    wreg      enum E6055
  4089 ;; Registers used:
  4090 ;;		wreg, status,2, status,0, pclath, cstack
  4091 ;; Tracked objects:
  4092 ;;		On entry : 0/0
  4093 ;;		On exit  : 0/0
  4094 ;;		Unchanged: 0/0
  4095 ;; Data sizes:     COMMON   BANK0   BANK1   BANK2   BANK3   BANK4   BANK5   BANK6   BANK7   BANK8   BANK9  BANK10  BANK1
      +1  BANK12  BANK13  BANK14  BANK15  BANK16  BANK17  BANK18  BANK19  BANK20  BANK21  BANK22  BANK23  BANK24  BANK25
  4096 ;;      Params:         2       0       0       0       0       0       0       0       0       0       0       0       
      +0       0       0       0       0       0       0       0       0       0       0       0       0       0       0
  4097 ;;      Locals:         3       0       0       0       0       0       0       0       0       0       0       0       
      +0       0       0       0       0       0       0       0       0       0       0       0       0       0       0
  4098 ;;      Temps:          1       0       0       0       0       0       0       0       0       0       0       0       
      +0       0       0       0       0       0       0       0       0       0       0       0       0       0       0
  4099 ;;      Totals:         6       0       0       0       0       0       0       0       0       0       0       0       
      +0       0       0       0       0       0       0       0       0       0       0       0       0       0       0
  4100 ;;Total ram usage:        6 bytes
  4101 ;; Hardware stack levels used: 1
  4102 ;; Hardware stack levels required when called: 2
  4103 ;; This function calls:
  4104 ;;		_EEPROM_ControlByte
  4105 ;;		_I2C_Start
  4106 ;;		_I2C_Stop
  4107 ;;		_I2C_WriteByte
  4108 ;; This function is called by:
  4109 ;;		_EEPROM_WriteByte
  4110 ;; This function uses a non-reentrant model
  4111 ;;
  4112                           
  4113     0343                     _EEPROM_AckPoll:	
  4114                           ;psect for function _EEPROM_AckPoll
  4115                           
  4116     0343                     l1613:	
  4117                           ;incstack = 0
  4118                           ; Regs used in _EEPROM_AckPoll: [wreg+status,2+status,0+pclath+cstack]
  4119                           
  4120                           
  4121                           ;main.c: 49: I2C_Status_t EEPROM_AckPoll(uint16_t memAddr);main.c: 50: {;main.c: 51:    
      +                           for (uint16_t t = 0; t < 200; t++)
  4122     0343  01F8               	clrf	EEPROM_AckPoll@t
  4123     0344  01F9               	clrf	EEPROM_AckPoll@t+1
  4124     0345                     l1619:
  4125                           
  4126                           ;main.c: 52:     {;main.c: 53:         I2C_Status_t st = I2C_Start();
  4127     0345  3182  22EC  3183   	fcall	_I2C_Start
  4128     0348  00FA               	movwf	EEPROM_AckPoll@st
  4129     0349                     l1621:
  4130                           
  4131                           ;main.c: 54:         if (st != I2C_OK) return st;
  4132     0349  087A               	movf	EEPROM_AckPoll@st,w
  4133     034A  1903               	btfsc	3,2
  4134     034B  2B4D               	goto	u1181
  4135     034C  2B4E               	goto	u1180
  4136     034D                     u1181:
  4137     034D  2B50               	goto	l1627
  4138     034E                     u1180:
  4139     034E                     l1623:
  4140     034E  087A               	movf	EEPROM_AckPoll@st,w
  4141     034F  2B7C               	goto	l90
  4142     0350                     l1627:
  4143                           
  4144                           ;main.c: 56:         st = I2C_WriteByte(EEPROM_ControlByte(memAddr, 0));
  4145     0350  0876               	movf	EEPROM_AckPoll@memAddr+1,w
  4146     0351  00F1               	movwf	EEPROM_ControlByte@memAddr+1
  4147     0352  0875               	movf	EEPROM_AckPoll@memAddr,w
  4148     0353  00F0               	movwf	EEPROM_ControlByte@memAddr
  4149     0354  01F2               	clrf	EEPROM_ControlByte@read
  4150     0355  3181  21DF  3183   	fcall	_EEPROM_ControlByte
  4151     0358  3183  2311  3183   	fcall	_I2C_WriteByte
  4152     035B  00FA               	movwf	EEPROM_AckPoll@st
  4153                           
  4154                           ;main.c: 57:         I2C_Stop();
  4155     035C  3182  225C  3183   	fcall	_I2C_Stop
  4156     035F                     l1629:
  4157                           
  4158                           ;main.c: 59:         if (st == I2C_OK)
  4159     035F  087A               	movf	EEPROM_AckPoll@st,w
  4160     0360  1D03               	btfss	3,2
  4161     0361  2B63               	goto	u1191
  4162     0362  2B64               	goto	u1190
  4163     0363                     u1191:
  4164     0363  2B66               	goto	l1635
  4165     0364                     u1190:
  4166     0364                     l1631:
  4167                           
  4168                           ;main.c: 60:             return I2C_OK;
  4169     0364  3000               	movlw	0
  4170     0365  2B7C               	goto	l90
  4171     0366                     l1635:
  4172                           
  4173                           ;main.c: 62:         _delay((unsigned long)((1)*(32000000/4000.0)));
  4174     0366  300B               	movlw	11
  4175     0367  00F7               	movwf	??_EEPROM_AckPoll
  4176     0368  3062               	movlw	98
  4177     0369                     u1617:
  4178     0369  0B89               	decfsz	9,f
  4179     036A  2B69               	goto	u1617
  4180     036B  0BF7               	decfsz	??_EEPROM_AckPoll,f
  4181     036C  2B69               	goto	u1617
  4182     036D  3200               	nop2
  4183                           
  4184                           ;main.c: 63:     }
  4185     036E  3001               	movlw	1
  4186     036F  07F8               	addwf	EEPROM_AckPoll@t,f
  4187     0370  3000               	movlw	0
  4188     0371  3DF9               	addwfc	EEPROM_AckPoll@t+1,f
  4189     0372  3000               	movlw	0
  4190     0373  0279               	subwf	EEPROM_AckPoll@t+1,w
  4191     0374  30C8               	movlw	200
  4192     0375  1903               	skipnz
  4193     0376  0278               	subwf	EEPROM_AckPoll@t,w
  4194     0377  1C03               	skipc
  4195     0378  2B7A               	goto	u1201
  4196     0379  2B7B               	goto	u1200
  4197     037A                     u1201:
  4198     037A  2B45               	goto	l1619
  4199     037B                     u1200:
  4200     037B                     l1637:
  4201                           
  4202                           ;main.c: 64:     return I2C_TIMEOUT;
  4203     037B  3002               	movlw	2
  4204     037C                     l90:
  4205     037C  0008               	return
  4206     037D                     __end_of_EEPROM_AckPoll:
  4207                           
  4208                           	psect	text16
  4209     044F                     __ptext16:	
  4210 ;; *************** function _EEPROM_ReadByte *****************
  4211 ;; Defined at:
  4212 ;;		line 87 in file "main.c"
  4213 ;; Parameters:    Size  Location     Type
  4214 ;;  memAddr         2    6[COMMON] unsigned short 
  4215 ;;  data            1    8[COMMON] PTR unsigned char 
  4216 ;;		 -> main@readVal(1), 
  4217 ;; Auto vars:     Size  Location     Type
  4218 ;;  st              1    9[COMMON] enum E6055
  4219 ;; Return value:  Size  Location     Type
  4220 ;;                  1    wreg      enum E6055
  4221 ;; Registers used:
  4222 ;;		wreg, fsr1l, fsr1h, status,2, status,0, pclath, cstack
  4223 ;; Tracked objects:
  4224 ;;		On entry : 0/0
  4225 ;;		On exit  : 0/0
  4226 ;;		Unchanged: 0/0
  4227 ;; Data sizes:     COMMON   BANK0   BANK1   BANK2   BANK3   BANK4   BANK5   BANK6   BANK7   BANK8   BANK9  BANK10  BANK1
      +1  BANK12  BANK13  BANK14  BANK15  BANK16  BANK17  BANK18  BANK19  BANK20  BANK21  BANK22  BANK23  BANK24  BANK25
  4228 ;;      Params:         3       0       0       0       0       0       0       0       0       0       0       0       
      +0       0       0       0       0       0       0       0       0       0       0       0       0       0       0
  4229 ;;      Locals:         1       0       0       0       0       0       0       0       0       0       0       0       
      +0       0       0       0       0       0       0       0       0       0       0       0       0       0       0
  4230 ;;      Temps:          0       0       0       0       0       0       0       0       0       0       0       0       
      +0       0       0       0       0       0       0       0       0       0       0       0       0       0       0
  4231 ;;      Totals:         4       0       0       0       0       0       0       0       0       0       0       0       
      +0       0       0       0       0       0       0       0       0       0       0       0       0       0       0
  4232 ;;Total ram usage:        4 bytes
  4233 ;; Hardware stack levels used: 1
  4234 ;; Hardware stack levels required when called: 2
  4235 ;; This function calls:
  4236 ;;		_EEPROM_ControlByte
  4237 ;;		_I2C_ReadByte
  4238 ;;		_I2C_RepeatedStart
  4239 ;;		_I2C_Start
  4240 ;;		_I2C_Stop
  4241 ;;		_I2C_WriteByte
  4242 ;; This function is called by:
  4243 ;;		_main
  4244 ;; This function uses a non-reentrant model
  4245 ;;
  4246                           
  4247     044F                     _EEPROM_ReadByte:	
  4248                           ;psect for function _EEPROM_ReadByte
  4249                           
  4250     044F                     l1807:	
  4251                           ;incstack = 0
  4252                           ; Regs used in _EEPROM_ReadByte: [wreg+fsr1l+fsr1h+status,2+status,0+pclath+cstack]
  4253                           
  4254                           
  4255                           ;main.c: 87: I2C_Status_t EEPROM_ReadByte(uint16_t memAddr, uint8_t *data);main.c: 88: {
      +                          ;main.c: 89:     I2C_Status_t st;;main.c: 91:     st = I2C_Start();
  4256     044F  3182  22EC  3184   	fcall	_I2C_Start
  4257     0452  00F9               	movwf	EEPROM_ReadByte@st
  4258     0453                     l1809:
  4259                           
  4260                           ;main.c: 92:     if (st != I2C_OK) return st;
  4261     0453  0879               	movf	EEPROM_ReadByte@st,w
  4262     0454  1903               	btfsc	3,2
  4263     0455  2C57               	goto	u1471
  4264     0456  2C58               	goto	u1470
  4265     0457                     u1471:
  4266     0457  2C5A               	goto	l1815
  4267     0458                     u1470:
  4268     0458                     l1811:
  4269     0458  0879               	movf	EEPROM_ReadByte@st,w
  4270     0459  2C9E               	goto	l102
  4271     045A                     l1815:
  4272                           
  4273                           ;main.c: 94:     st = I2C_WriteByte(EEPROM_ControlByte(memAddr, 0));
  4274     045A  0877               	movf	EEPROM_ReadByte@memAddr+1,w
  4275     045B  00F1               	movwf	EEPROM_ControlByte@memAddr+1
  4276     045C  0876               	movf	EEPROM_ReadByte@memAddr,w
  4277     045D  00F0               	movwf	EEPROM_ControlByte@memAddr
  4278     045E  01F2               	clrf	EEPROM_ControlByte@read
  4279     045F  3181  21DF  3184   	fcall	_EEPROM_ControlByte
  4280     0462  3183  2311  3184   	fcall	_I2C_WriteByte
  4281     0465  00F9               	movwf	EEPROM_ReadByte@st
  4282     0466                     l1817:
  4283                           
  4284                           ;main.c: 95:     if (st != I2C_OK) { I2C_Stop(); return st; }
  4285     0466  0879               	movf	EEPROM_ReadByte@st,w
  4286     0467  1903               	btfsc	3,2
  4287     0468  2C6A               	goto	u1481
  4288     0469  2C6B               	goto	u1480
  4289     046A                     u1481:
  4290     046A  2C6F               	goto	l1825
  4291     046B                     u1480:
  4292     046B                     l1819:
  4293     046B  3182  225C  3184   	fcall	_I2C_Stop
  4294     046E  2C58               	goto	l1811
  4295     046F                     l1825:
  4296                           
  4297                           ;main.c: 97:     st = I2C_WriteByte((uint8_t)(memAddr & 0xFF));
  4298     046F  0876               	movf	EEPROM_ReadByte@memAddr,w
  4299     0470  3183  2311  3184   	fcall	_I2C_WriteByte
  4300     0473  00F9               	movwf	EEPROM_ReadByte@st
  4301     0474                     l1827:
  4302                           
  4303                           ;main.c: 98:     if (st != I2C_OK) { I2C_Stop(); return st; }
  4304     0474  0879               	movf	EEPROM_ReadByte@st,w
  4305     0475  1903               	btfsc	3,2
  4306     0476  2C78               	goto	u1491
  4307     0477  2C79               	goto	u1490
  4308     0478                     u1491:
  4309     0478  2C7A               	goto	l1835
  4310     0479                     u1490:
  4311     0479  2C6B               	goto	l1819
  4312     047A                     l1835:
  4313                           
  4314                           ;main.c: 100:     st = I2C_RepeatedStart();
  4315     047A  3182  22C7  3184   	fcall	_I2C_RepeatedStart
  4316     047D  00F9               	movwf	EEPROM_ReadByte@st
  4317     047E                     l1837:
  4318                           
  4319                           ;main.c: 101:     if (st != I2C_OK) { I2C_Stop(); return st; }
  4320     047E  0879               	movf	EEPROM_ReadByte@st,w
  4321     047F  1903               	btfsc	3,2
  4322     0480  2C82               	goto	u1501
  4323     0481  2C83               	goto	u1500
  4324     0482                     u1501:
  4325     0482  2C84               	goto	l1845
  4326     0483                     u1500:
  4327     0483  2C6B               	goto	l1819
  4328     0484                     l1845:
  4329                           
  4330                           ;main.c: 103:     st = I2C_WriteByte(EEPROM_ControlByte(memAddr, 1));
  4331     0484  0877               	movf	EEPROM_ReadByte@memAddr+1,w
  4332     0485  00F1               	movwf	EEPROM_ControlByte@memAddr+1
  4333     0486  0876               	movf	EEPROM_ReadByte@memAddr,w
  4334     0487  00F0               	movwf	EEPROM_ControlByte@memAddr
  4335     0488  01F2               	clrf	EEPROM_ControlByte@read
  4336     0489  0AF2               	incf	EEPROM_ControlByte@read,f
  4337     048A  3181  21DF  3184   	fcall	_EEPROM_ControlByte
  4338     048D  3183  2311  3184   	fcall	_I2C_WriteByte
  4339     0490  00F9               	movwf	EEPROM_ReadByte@st
  4340     0491                     l1847:
  4341                           
  4342                           ;main.c: 104:     if (st != I2C_OK) { I2C_Stop(); return st; }
  4343     0491  0879               	movf	EEPROM_ReadByte@st,w
  4344     0492  1903               	btfsc	3,2
  4345     0493  2C95               	goto	u1511
  4346     0494  2C96               	goto	u1510
  4347     0495                     u1511:
  4348     0495  2C97               	goto	l1855
  4349     0496                     u1510:
  4350     0496  2C6B               	goto	l1819
  4351     0497                     l1855:
  4352                           
  4353                           ;main.c: 106:     st = I2C_ReadByte(data, 0);
  4354     0497  01F3               	clrf	I2C_ReadByte@ack
  4355     0498  0878               	movf	EEPROM_ReadByte@data,w
  4356     0499  3184  2402  3184   	fcall	_I2C_ReadByte
  4357     049C  00F9               	movwf	EEPROM_ReadByte@st
  4358     049D  2C6B               	goto	l1819
  4359     049E                     l102:
  4360     049E  0008               	return
  4361     049F                     __end_of_EEPROM_ReadByte:
  4362                           
  4363                           	psect	text17
  4364     0311                     __ptext17:	
  4365 ;; *************** function _I2C_WriteByte *****************
  4366 ;; Defined at:
  4367 ;;		line 161 in file "I2C.c"
  4368 ;; Parameters:    Size  Location     Type
  4369 ;;  data            1    wreg     unsigned char 
  4370 ;; Auto vars:     Size  Location     Type
  4371 ;;  data            1    3[COMMON] unsigned char 
  4372 ;;  st              1    4[COMMON] enum E6036
  4373 ;; Return value:  Size  Location     Type
  4374 ;;                  1    wreg      enum E6055
  4375 ;; Registers used:
  4376 ;;		wreg, status,2, status,0, pclath, cstack
  4377 ;; Tracked objects:
  4378 ;;		On entry : 0/0
  4379 ;;		On exit  : 0/0
  4380 ;;		Unchanged: 0/0
  4381 ;; Data sizes:     COMMON   BANK0   BANK1   BANK2   BANK3   BANK4   BANK5   BANK6   BANK7   BANK8   BANK9  BANK10  BANK1
      +1  BANK12  BANK13  BANK14  BANK15  BANK16  BANK17  BANK18  BANK19  BANK20  BANK21  BANK22  BANK23  BANK24  BANK25
  4382 ;;      Params:         0       0       0       0       0       0       0       0       0       0       0       0       
      +0       0       0       0       0       0       0       0       0       0       0       0       0       0       0
  4383 ;;      Locals:         2       0       0       0       0       0       0       0       0       0       0       0       
      +0       0       0       0       0       0       0       0       0       0       0       0       0       0       0
  4384 ;;      Temps:          0       0       0       0       0       0       0       0       0       0       0       0       
      +0       0       0       0       0       0       0       0       0       0       0       0       0       0       0
  4385 ;;      Totals:         2       0       0       0       0       0       0       0       0       0       0       0       
      +0       0       0       0       0       0       0       0       0       0       0       0       0       0       0
  4386 ;;Total ram usage:        2 bytes
  4387 ;; Hardware stack levels used: 1
  4388 ;; Hardware stack levels required when called: 1
  4389 ;; This function calls:
  4390 ;;		_I2C_WaitIF
  4391 ;;		_I2C_WaitIdle
  4392 ;; This function is called by:
  4393 ;;		_EEPROM_AckPoll
  4394 ;;		_EEPROM_WriteByte
  4395 ;;		_EEPROM_ReadByte
  4396 ;; This function uses a non-reentrant model
  4397 ;;
  4398                           
  4399     0311                     _I2C_WriteByte:	
  4400                           ;psect for function _I2C_WriteByte
  4401                           
  4402                           
  4403                           ;incstack = 0
  4404                           ; Regs used in _I2C_WriteByte: [wreg+status,2+status,0+pclath+cstack]
  4405                           ;I2C_WriteByte@data stored from wreg
  4406     0311  00F3               	movwf	I2C_WriteByte@data
  4407     0312                     l1475:
  4408                           
  4409                           ;I2C.c: 161: I2C_Status_t I2C_WriteByte(uint8_t data);I2C.c: 162: {;I2C.c: 163:     I2C_
      +                          Status_t st;;I2C.c: 165:     st = I2C_WaitIdle(50);
  4410     0312  3032               	movlw	50
  4411     0313  00F0               	movwf	I2C_WaitIdle@timeout_ms
  4412     0314  3000               	movlw	0
  4413     0315  00F1               	movwf	I2C_WaitIdle@timeout_ms+1
  4414     0316  3182  227F  3183   	fcall	_I2C_WaitIdle
  4415     0319  00F4               	movwf	I2C_WriteByte@st
  4416     031A                     l1477:
  4417                           
  4418                           ;I2C.c: 166:     if (st != I2C_OK) return st;
  4419     031A  0874               	movf	I2C_WriteByte@st,w
  4420     031B  1903               	btfsc	3,2
  4421     031C  2B1E               	goto	u901
  4422     031D  2B1F               	goto	u900
  4423     031E                     u901:
  4424     031E  2B21               	goto	l247
  4425     031F                     u900:
  4426     031F                     l1479:
  4427     031F  0874               	movf	I2C_WriteByte@st,w
  4428     0320  2B42               	goto	l248
  4429     0321                     l247:
  4430                           
  4431                           ;I2C.c: 168:     PIR1bits.SSP1IF = 0;
  4432     0321  0020               	movlb	0	; select bank0
  4433     0322  1191               	bcf	17,3	;volatile
  4434     0323                     l1483:
  4435                           
  4436                           ;I2C.c: 169:     SSPBUF = data;
  4437     0323  0873               	movf	I2C_WriteByte@data,w
  4438     0324  0024               	movlb	4	; select bank4
  4439     0325  0091               	movwf	17	;volatile
  4440     0326                     l1485:
  4441                           
  4442                           ;I2C.c: 171:     st = I2C_WaitIF(50);
  4443     0326  3032               	movlw	50
  4444     0327  00F0               	movwf	I2C_WaitIF@timeout_ms
  4445     0328  3000               	movlw	0
  4446     0329  00F1               	movwf	I2C_WaitIF@timeout_ms+1
  4447     032A  3182  221F  3183   	fcall	_I2C_WaitIF
  4448     032D  00F4               	movwf	I2C_WriteByte@st
  4449     032E                     l1487:
  4450                           
  4451                           ;I2C.c: 172:     if (st != I2C_OK) return st;
  4452     032E  0874               	movf	I2C_WriteByte@st,w
  4453     032F  1903               	btfsc	3,2
  4454     0330  2B32               	goto	u911
  4455     0331  2B33               	goto	u910
  4456     0332                     u911:
  4457     0332  2B34               	goto	l249
  4458     0333                     u910:
  4459     0333  2B1F               	goto	l1479
  4460     0334                     l249:
  4461                           
  4462                           ;I2C.c: 175:     if (PIR2bits.BCL1IF)
  4463     0334  0020               	movlb	0	; select bank0
  4464     0335  1D92               	btfss	18,3	;volatile
  4465     0336  2B38               	goto	u921
  4466     0337  2B39               	goto	u920
  4467     0338                     u921:
  4468     0338  2B3C               	goto	l250
  4469     0339                     u920:
  4470     0339                     l1493:
  4471                           
  4472                           ;I2C.c: 176:     {;I2C.c: 177:         PIR2bits.BCL1IF = 0;
  4473     0339  1192               	bcf	18,3	;volatile
  4474     033A                     l1495:
  4475                           
  4476                           ;I2C.c: 178:         return I2C_BUS_COLLISION;
  4477     033A  3003               	movlw	3
  4478     033B  2B42               	goto	l248
  4479     033C                     l250:	
  4480                           ;I2C.c: 179:     }
  4481                           
  4482                           
  4483                           ;I2C.c: 182:     PIR1bits.SSP1IF = 0;
  4484     033C  1191               	bcf	17,3	;volatile
  4485     033D                     l1499:
  4486                           
  4487                           ;I2C.c: 183:     return (SSPCON2bits.ACKSTAT == 0) ? I2C_OK : I2C_NAK;
  4488     033D  0024               	movlb	4	; select bank4
  4489     033E  0E16               	swapf	22,w	;volatile
  4490     033F  0C89               	rrf	9,f
  4491     0340  0C89               	rrf	9,f
  4492     0341  3901               	andlw	1
  4493     0342                     l248:
  4494     0342  0008               	return
  4495     0343                     __end_of_I2C_WriteByte:
  4496                           
  4497                           	psect	text18
  4498     025C                     __ptext18:	
  4499 ;; *************** function _I2C_Stop *****************
  4500 ;; Defined at:
  4501 ;;		line 138 in file "I2C.c"
  4502 ;; Parameters:    Size  Location     Type
  4503 ;;		None
  4504 ;; Auto vars:     Size  Location     Type
  4505 ;;  st              1    3[COMMON] enum E6036
  4506 ;; Return value:  Size  Location     Type
  4507 ;;                  1    wreg      enum E6055
  4508 ;; Registers used:
  4509 ;;		wreg, status,2, status,0, pclath, cstack
  4510 ;; Tracked objects:
  4511 ;;		On entry : 0/0
  4512 ;;		On exit  : 0/0
  4513 ;;		Unchanged: 0/0
  4514 ;; Data sizes:     COMMON   BANK0   BANK1   BANK2   BANK3   BANK4   BANK5   BANK6   BANK7   BANK8   BANK9  BANK10  BANK1
      +1  BANK12  BANK13  BANK14  BANK15  BANK16  BANK17  BANK18  BANK19  BANK20  BANK21  BANK22  BANK23  BANK24  BANK25
  4515 ;;      Params:         0       0       0       0       0       0       0       0       0       0       0       0       
      +0       0       0       0       0       0       0       0       0       0       0       0       0       0       0
  4516 ;;      Locals:         1       0       0       0       0       0       0       0       0       0       0       0       
      +0       0       0       0       0       0       0       0       0       0       0       0       0       0       0
  4517 ;;      Temps:          0       0       0       0       0       0       0       0       0       0       0       0       
      +0       0       0       0       0       0       0       0       0       0       0       0       0       0       0
  4518 ;;      Totals:         1       0       0       0       0       0       0       0       0       0       0       0       
      +0       0       0       0       0       0       0       0       0       0       0       0       0       0       0
  4519 ;;Total ram usage:        1 bytes
  4520 ;; Hardware stack levels used: 1
  4521 ;; Hardware stack levels required when called: 1
  4522 ;; This function calls:
  4523 ;;		_I2C_WaitIF
  4524 ;;		_I2C_WaitIdle
  4525 ;; This function is called by:
  4526 ;;		_EEPROM_AckPoll
  4527 ;;		_EEPROM_WriteByte
  4528 ;;		_EEPROM_ReadByte
  4529 ;; This function uses a non-reentrant model
  4530 ;;
  4531                           
  4532     025C                     _I2C_Stop:	
  4533                           ;psect for function _I2C_Stop
  4534                           
  4535     025C                     l1503:	
  4536                           ;incstack = 0
  4537                           ; Regs used in _I2C_Stop: [wreg+status,2+status,0+pclath+cstack]
  4538                           
  4539                           
  4540                           ;I2C.c: 140:     I2C_Status_t st;;I2C.c: 142:     st = I2C_WaitIdle(50);
  4541     025C  3032               	movlw	50
  4542     025D  00F0               	movwf	I2C_WaitIdle@timeout_ms
  4543     025E  3000               	movlw	0
  4544     025F  00F1               	movwf	I2C_WaitIdle@timeout_ms+1
  4545     0260  3182  227F  3182   	fcall	_I2C_WaitIdle
  4546     0263  00F3               	movwf	I2C_Stop@st
  4547     0264                     l1505:
  4548                           
  4549                           ;I2C.c: 143:     if (st != I2C_OK) return st;
  4550     0264  0873               	movf	I2C_Stop@st,w
  4551     0265  1903               	btfsc	3,2
  4552     0266  2A68               	goto	u931
  4553     0267  2A69               	goto	u930
  4554     0268                     u931:
  4555     0268  2A6A               	goto	l242
  4556     0269                     u930:
  4557     0269  2A7E               	goto	l243
  4558     026A                     l242:
  4559                           
  4560                           ;I2C.c: 145:     PIR1bits.SSP1IF = 0;
  4561     026A  0020               	movlb	0	; select bank0
  4562     026B  1191               	bcf	17,3	;volatile
  4563                           
  4564                           ;I2C.c: 146:     SSPCON2bits.PEN = 1;
  4565     026C  0024               	movlb	4	; select bank4
  4566     026D  1516               	bsf	22,2	;volatile
  4567     026E                     l1509:
  4568                           
  4569                           ;I2C.c: 148:     st = I2C_WaitIF(50);
  4570     026E  3032               	movlw	50
  4571     026F  00F0               	movwf	I2C_WaitIF@timeout_ms
  4572     0270  3000               	movlw	0
  4573     0271  00F1               	movwf	I2C_WaitIF@timeout_ms+1
  4574     0272  3182  221F  3182   	fcall	_I2C_WaitIF
  4575     0275  00F3               	movwf	I2C_Stop@st
  4576     0276                     l1511:
  4577                           
  4578                           ;I2C.c: 149:     if (st != I2C_OK) return st;
  4579     0276  0873               	movf	I2C_Stop@st,w
  4580     0277  1903               	btfsc	3,2
  4581     0278  2A7A               	goto	u941
  4582     0279  2A7B               	goto	u940
  4583     027A                     u941:
  4584     027A  2A7C               	goto	l244
  4585     027B                     u940:
  4586     027B  2A7E               	goto	l243
  4587     027C                     l244:
  4588                           
  4589                           ;I2C.c: 151:     PIR1bits.SSP1IF = 0;
  4590     027C  0020               	movlb	0	; select bank0
  4591     027D  1191               	bcf	17,3	;volatile
  4592     027E                     l243:	
  4593                           ;I2C.c: 152:     return I2C_OK;;	Return value of _I2C_Stop is never used
  4594                           
  4595     027E  0008               	return
  4596     027F                     __end_of_I2C_Stop:
  4597                           
  4598                           	psect	text19
  4599     02EC                     __ptext19:	
  4600 ;; *************** function _I2C_Start *****************
  4601 ;; Defined at:
  4602 ;;		line 98 in file "I2C.c"
  4603 ;; Parameters:    Size  Location     Type
  4604 ;;		None
  4605 ;; Auto vars:     Size  Location     Type
  4606 ;;  st              1    3[COMMON] enum E6036
  4607 ;; Return value:  Size  Location     Type
  4608 ;;                  1    wreg      enum E6055
  4609 ;; Registers used:
  4610 ;;		wreg, status,2, status,0, pclath, cstack
  4611 ;; Tracked objects:
  4612 ;;		On entry : 0/0
  4613 ;;		On exit  : 0/0
  4614 ;;		Unchanged: 0/0
  4615 ;; Data sizes:     COMMON   BANK0   BANK1   BANK2   BANK3   BANK4   BANK5   BANK6   BANK7   BANK8   BANK9  BANK10  BANK1
      +1  BANK12  BANK13  BANK14  BANK15  BANK16  BANK17  BANK18  BANK19  BANK20  BANK21  BANK22  BANK23  BANK24  BANK25
  4616 ;;      Params:         0       0       0       0       0       0       0       0       0       0       0       0       
      +0       0       0       0       0       0       0       0       0       0       0       0       0       0       0
  4617 ;;      Locals:         1       0       0       0       0       0       0       0       0       0       0       0       
      +0       0       0       0       0       0       0       0       0       0       0       0       0       0       0
  4618 ;;      Temps:          0       0       0       0       0       0       0       0       0       0       0       0       
      +0       0       0       0       0       0       0       0       0       0       0       0       0       0       0
  4619 ;;      Totals:         1       0       0       0       0       0       0       0       0       0       0       0       
      +0       0       0       0       0       0       0       0       0       0       0       0       0       0       0
  4620 ;;Total ram usage:        1 bytes
  4621 ;; Hardware stack levels used: 1
  4622 ;; Hardware stack levels required when called: 1
  4623 ;; This function calls:
  4624 ;;		_I2C_WaitIF
  4625 ;;		_I2C_WaitIdle
  4626 ;; This function is called by:
  4627 ;;		_EEPROM_AckPoll
  4628 ;;		_EEPROM_WriteByte
  4629 ;;		_EEPROM_ReadByte
  4630 ;; This function uses a non-reentrant model
  4631 ;;
  4632                           
  4633     02EC                     _I2C_Start:	
  4634                           ;psect for function _I2C_Start
  4635                           
  4636     02EC                     l1455:	
  4637                           ;incstack = 0
  4638                           ; Regs used in _I2C_Start: [wreg+status,2+status,0+pclath+cstack]
  4639                           
  4640                           
  4641                           ;I2C.c: 100:     I2C_Status_t st;;I2C.c: 102:     st = I2C_WaitIdle(50);
  4642     02EC  3032               	movlw	50
  4643     02ED  00F0               	movwf	I2C_WaitIdle@timeout_ms
  4644     02EE  3000               	movlw	0
  4645     02EF  00F1               	movwf	I2C_WaitIdle@timeout_ms+1
  4646     02F0  3182  227F  3182   	fcall	_I2C_WaitIdle
  4647     02F3  00F3               	movwf	I2C_Start@st
  4648     02F4                     l1457:
  4649                           
  4650                           ;I2C.c: 103:     if (st != I2C_OK) return st;
  4651     02F4  0873               	movf	I2C_Start@st,w
  4652     02F5  1903               	btfsc	3,2
  4653     02F6  2AF8               	goto	u881
  4654     02F7  2AF9               	goto	u880
  4655     02F8                     u881:
  4656     02F8  2AFB               	goto	l232
  4657     02F9                     u880:
  4658     02F9                     l1459:
  4659     02F9  0873               	movf	I2C_Start@st,w
  4660     02FA  2B10               	goto	l233
  4661     02FB                     l232:
  4662                           
  4663                           ;I2C.c: 105:     PIR1bits.SSP1IF = 0;
  4664     02FB  0020               	movlb	0	; select bank0
  4665     02FC  1191               	bcf	17,3	;volatile
  4666                           
  4667                           ;I2C.c: 106:     SSPCON2bits.SEN = 1;
  4668     02FD  0024               	movlb	4	; select bank4
  4669     02FE  1416               	bsf	22,0	;volatile
  4670     02FF                     l1463:
  4671                           
  4672                           ;I2C.c: 108:     st = I2C_WaitIF(50);
  4673     02FF  3032               	movlw	50
  4674     0300  00F0               	movwf	I2C_WaitIF@timeout_ms
  4675     0301  3000               	movlw	0
  4676     0302  00F1               	movwf	I2C_WaitIF@timeout_ms+1
  4677     0303  3182  221F  3182   	fcall	_I2C_WaitIF
  4678     0306  00F3               	movwf	I2C_Start@st
  4679     0307                     l1465:
  4680                           
  4681                           ;I2C.c: 109:     if (st != I2C_OK) return st;
  4682     0307  0873               	movf	I2C_Start@st,w
  4683     0308  1903               	btfsc	3,2
  4684     0309  2B0B               	goto	u891
  4685     030A  2B0C               	goto	u890
  4686     030B                     u891:
  4687     030B  2B0D               	goto	l234
  4688     030C                     u890:
  4689     030C  2AF9               	goto	l1459
  4690     030D                     l234:
  4691                           
  4692                           ;I2C.c: 111:     PIR1bits.SSP1IF = 0;
  4693     030D  0020               	movlb	0	; select bank0
  4694     030E  1191               	bcf	17,3	;volatile
  4695     030F                     l1471:
  4696                           
  4697                           ;I2C.c: 112:     return I2C_OK;
  4698     030F  3000               	movlw	0
  4699     0310                     l233:
  4700     0310  0008               	return
  4701     0311                     __end_of_I2C_Start:
  4702                           
  4703                           	psect	text20
  4704     02C7                     __ptext20:	
  4705 ;; *************** function _I2C_RepeatedStart *****************
  4706 ;; Defined at:
  4707 ;;		line 118 in file "I2C.c"
  4708 ;; Parameters:    Size  Location     Type
  4709 ;;		None
  4710 ;; Auto vars:     Size  Location     Type
  4711 ;;  st              1    3[COMMON] enum E6036
  4712 ;; Return value:  Size  Location     Type
  4713 ;;                  1    wreg      enum E6055
  4714 ;; Registers used:
  4715 ;;		wreg, status,2, status,0, pclath, cstack
  4716 ;; Tracked objects:
  4717 ;;		On entry : 0/0
  4718 ;;		On exit  : 0/0
  4719 ;;		Unchanged: 0/0
  4720 ;; Data sizes:     COMMON   BANK0   BANK1   BANK2   BANK3   BANK4   BANK5   BANK6   BANK7   BANK8   BANK9  BANK10  BANK1
      +1  BANK12  BANK13  BANK14  BANK15  BANK16  BANK17  BANK18  BANK19  BANK20  BANK21  BANK22  BANK23  BANK24  BANK25
  4721 ;;      Params:         0       0       0       0       0       0       0       0       0       0       0       0       
      +0       0       0       0       0       0       0       0       0       0       0       0       0       0       0
  4722 ;;      Locals:         1       0       0       0       0       0       0       0       0       0       0       0       
      +0       0       0       0       0       0       0       0       0       0       0       0       0       0       0
  4723 ;;      Temps:          0       0       0       0       0       0       0       0       0       0       0       0       
      +0       0       0       0       0       0       0       0       0       0       0       0       0       0       0
  4724 ;;      Totals:         1       0       0       0       0       0       0       0       0       0       0       0       
      +0       0       0       0       0       0       0       0       0       0       0       0       0       0       0
  4725 ;;Total ram usage:        1 bytes
  4726 ;; Hardware stack levels used: 1
  4727 ;; Hardware stack levels required when called: 1
  4728 ;; This function calls:
  4729 ;;		_I2C_WaitIF
  4730 ;;		_I2C_WaitIdle
  4731 ;; This function is called by:
  4732 ;;		_EEPROM_ReadByte
  4733 ;; This function uses a non-reentrant model
  4734 ;;
  4735                           
  4736     02C7                     _I2C_RepeatedStart:	
  4737                           ;psect for function _I2C_RepeatedStart
  4738                           
  4739     02C7                     l1641:	
  4740                           ;incstack = 0
  4741                           ; Regs used in _I2C_RepeatedStart: [wreg+status,2+status,0+pclath+cstack]
  4742                           
  4743                           
  4744                           ;I2C.c: 120:     I2C_Status_t st;;I2C.c: 122:     st = I2C_WaitIdle(50);
  4745     02C7  3032               	movlw	50
  4746     02C8  00F0               	movwf	I2C_WaitIdle@timeout_ms
  4747     02C9  3000               	movlw	0
  4748     02CA  00F1               	movwf	I2C_WaitIdle@timeout_ms+1
  4749     02CB  3182  227F  3182   	fcall	_I2C_WaitIdle
  4750     02CE  00F3               	movwf	I2C_RepeatedStart@st
  4751     02CF                     l1643:
  4752                           
  4753                           ;I2C.c: 123:     if (st != I2C_OK) return st;
  4754     02CF  0873               	movf	I2C_RepeatedStart@st,w
  4755     02D0  1903               	btfsc	3,2
  4756     02D1  2AD3               	goto	u1211
  4757     02D2  2AD4               	goto	u1210
  4758     02D3                     u1211:
  4759     02D3  2AD6               	goto	l237
  4760     02D4                     u1210:
  4761     02D4                     l1645:
  4762     02D4  0873               	movf	I2C_RepeatedStart@st,w
  4763     02D5  2AEB               	goto	l238
  4764     02D6                     l237:
  4765                           
  4766                           ;I2C.c: 125:     PIR1bits.SSP1IF = 0;
  4767     02D6  0020               	movlb	0	; select bank0
  4768     02D7  1191               	bcf	17,3	;volatile
  4769                           
  4770                           ;I2C.c: 126:     SSPCON2bits.RSEN = 1;
  4771     02D8  0024               	movlb	4	; select bank4
  4772     02D9  1496               	bsf	22,1	;volatile
  4773     02DA                     l1649:
  4774                           
  4775                           ;I2C.c: 128:     st = I2C_WaitIF(50);
  4776     02DA  3032               	movlw	50
  4777     02DB  00F0               	movwf	I2C_WaitIF@timeout_ms
  4778     02DC  3000               	movlw	0
  4779     02DD  00F1               	movwf	I2C_WaitIF@timeout_ms+1
  4780     02DE  3182  221F  3182   	fcall	_I2C_WaitIF
  4781     02E1  00F3               	movwf	I2C_RepeatedStart@st
  4782     02E2                     l1651:
  4783                           
  4784                           ;I2C.c: 129:     if (st != I2C_OK) return st;
  4785     02E2  0873               	movf	I2C_RepeatedStart@st,w
  4786     02E3  1903               	btfsc	3,2
  4787     02E4  2AE6               	goto	u1221
  4788     02E5  2AE7               	goto	u1220
  4789     02E6                     u1221:
  4790     02E6  2AE8               	goto	l239
  4791     02E7                     u1220:
  4792     02E7  2AD4               	goto	l1645
  4793     02E8                     l239:
  4794                           
  4795                           ;I2C.c: 131:     PIR1bits.SSP1IF = 0;
  4796     02E8  0020               	movlb	0	; select bank0
  4797     02E9  1191               	bcf	17,3	;volatile
  4798     02EA                     l1657:
  4799                           
  4800                           ;I2C.c: 132:     return I2C_OK;
  4801     02EA  3000               	movlw	0
  4802     02EB                     l238:
  4803     02EB  0008               	return
  4804     02EC                     __end_of_I2C_RepeatedStart:
  4805                           
  4806                           	psect	text21
  4807     0402                     __ptext21:	
  4808 ;; *************** function _I2C_ReadByte *****************
  4809 ;; Defined at:
  4810 ;;		line 192 in file "I2C.c"
  4811 ;; Parameters:    Size  Location     Type
  4812 ;;  data            1    wreg     PTR unsigned char 
  4813 ;;		 -> main@readVal(1), 
  4814 ;;  ack             1    3[COMMON] _Bool 
  4815 ;; Auto vars:     Size  Location     Type
  4816 ;;  data            1    4[COMMON] PTR unsigned char 
  4817 ;;		 -> main@readVal(1), 
  4818 ;;  st              1    5[COMMON] enum E6036
  4819 ;; Return value:  Size  Location     Type
  4820 ;;                  1    wreg      enum E6055
  4821 ;; Registers used:
  4822 ;;		wreg, fsr1l, fsr1h, status,2, status,0, pclath, cstack
  4823 ;; Tracked objects:
  4824 ;;		On entry : 0/0
  4825 ;;		On exit  : 0/0
  4826 ;;		Unchanged: 0/0
  4827 ;; Data sizes:     COMMON   BANK0   BANK1   BANK2   BANK3   BANK4   BANK5   BANK6   BANK7   BANK8   BANK9  BANK10  BANK1
      +1  BANK12  BANK13  BANK14  BANK15  BANK16  BANK17  BANK18  BANK19  BANK20  BANK21  BANK22  BANK23  BANK24  BANK25
  4828 ;;      Params:         1       0       0       0       0       0       0       0       0       0       0       0       
      +0       0       0       0       0       0       0       0       0       0       0       0       0       0       0
  4829 ;;      Locals:         2       0       0       0       0       0       0       0       0       0       0       0       
      +0       0       0       0       0       0       0       0       0       0       0       0       0       0       0
  4830 ;;      Temps:          0       0       0       0       0       0       0       0       0       0       0       0       
      +0       0       0       0       0       0       0       0       0       0       0       0       0       0       0
  4831 ;;      Totals:         3       0       0       0       0       0       0       0       0       0       0       0       
      +0       0       0       0       0       0       0       0       0       0       0       0       0       0       0
  4832 ;;Total ram usage:        3 bytes
  4833 ;; Hardware stack levels used: 1
  4834 ;; Hardware stack levels required when called: 1
  4835 ;; This function calls:
  4836 ;;		_I2C_WaitIF
  4837 ;;		_I2C_WaitIdle
  4838 ;; This function is called by:
  4839 ;;		_EEPROM_ReadByte
  4840 ;; This function uses a non-reentrant model
  4841 ;;
  4842                           
  4843     0402                     _I2C_ReadByte:	
  4844                           ;psect for function _I2C_ReadByte
  4845                           
  4846                           
  4847                           ;incstack = 0
  4848                           ; Regs used in _I2C_ReadByte: [wreg+fsr1l+fsr1h+status,2+status,0+pclath+cstack]
  4849                           ;I2C_ReadByte@data stored from wreg
  4850     0402  00F4               	movwf	I2C_ReadByte@data
  4851     0403                     l1661:
  4852                           
  4853                           ;I2C.c: 192: I2C_Status_t I2C_ReadByte(uint8_t *data, _Bool ack);I2C.c: 193: {;I2C.c: 19
      +                          4:     I2C_Status_t st;;I2C.c: 196:     if (data == ((void*)0)) return I2C_TIMEOUT;
  4854     0403  0874               	movf	I2C_ReadByte@data,w
  4855     0404  1D03               	btfss	3,2
  4856     0405  2C07               	goto	u1231
  4857     0406  2C08               	goto	u1230
  4858     0407                     u1231:
  4859     0407  2C0A               	goto	l1667
  4860     0408                     u1230:
  4861     0408                     l1663:
  4862     0408  3002               	movlw	2
  4863     0409  2C4E               	goto	l254
  4864     040A                     l1667:
  4865                           
  4866                           ;I2C.c: 198:     st = I2C_WaitIdle(50);
  4867     040A  3032               	movlw	50
  4868     040B  00F0               	movwf	I2C_WaitIdle@timeout_ms
  4869     040C  3000               	movlw	0
  4870     040D  00F1               	movwf	I2C_WaitIdle@timeout_ms+1
  4871     040E  3182  227F  3184   	fcall	_I2C_WaitIdle
  4872     0411  00F5               	movwf	I2C_ReadByte@st
  4873     0412                     l1669:
  4874                           
  4875                           ;I2C.c: 199:     if (st != I2C_OK) return st;
  4876     0412  0875               	movf	I2C_ReadByte@st,w
  4877     0413  1903               	btfsc	3,2
  4878     0414  2C16               	goto	u1241
  4879     0415  2C17               	goto	u1240
  4880     0416                     u1241:
  4881     0416  2C19               	goto	l255
  4882     0417                     u1240:
  4883     0417                     l1671:
  4884     0417  0875               	movf	I2C_ReadByte@st,w
  4885     0418  2C4E               	goto	l254
  4886     0419                     l255:
  4887                           
  4888                           ;I2C.c: 202:     PIR1bits.SSP1IF = 0;
  4889     0419  0020               	movlb	0	; select bank0
  4890     041A  1191               	bcf	17,3	;volatile
  4891                           
  4892                           ;I2C.c: 203:     SSPCON2bits.RCEN = 1;
  4893     041B  0024               	movlb	4	; select bank4
  4894     041C  1596               	bsf	22,3	;volatile
  4895     041D                     l1675:
  4896                           
  4897                           ;I2C.c: 205:     st = I2C_WaitIF(50);
  4898     041D  3032               	movlw	50
  4899     041E  00F0               	movwf	I2C_WaitIF@timeout_ms
  4900     041F  3000               	movlw	0
  4901     0420  00F1               	movwf	I2C_WaitIF@timeout_ms+1
  4902     0421  3182  221F  3184   	fcall	_I2C_WaitIF
  4903     0424  00F5               	movwf	I2C_ReadByte@st
  4904     0425                     l1677:
  4905                           
  4906                           ;I2C.c: 206:     if (st != I2C_OK) return st;
  4907     0425  0875               	movf	I2C_ReadByte@st,w
  4908     0426  1903               	btfsc	3,2
  4909     0427  2C29               	goto	u1251
  4910     0428  2C2A               	goto	u1250
  4911     0429                     u1251:
  4912     0429  2C2B               	goto	l1683
  4913     042A                     u1250:
  4914     042A  2C17               	goto	l1671
  4915     042B                     l1683:
  4916                           
  4917                           ;I2C.c: 208:     *data = SSPBUF;
  4918     042B  0874               	movf	I2C_ReadByte@data,w
  4919     042C  0086               	movwf	6
  4920     042D  0187               	clrf	7
  4921     042E  0024               	movlb	4	; select bank4
  4922     042F  0811               	movf	17,w	;volatile
  4923     0430  0081               	movwf	1
  4924     0431                     l1685:
  4925                           
  4926                           ;I2C.c: 211:     PIR1bits.SSP1IF = 0;
  4927     0431  0020               	movlb	0	; select bank0
  4928     0432  1191               	bcf	17,3	;volatile
  4929     0433                     l1687:
  4930                           
  4931                           ;I2C.c: 212:     SSPCON2bits.ACKDT = (ack ? 0 : 1);
  4932     0433  0873               	movf	I2C_ReadByte@ack,w
  4933     0434  1903               	btfsc	3,2
  4934     0435  2C37               	goto	u1261
  4935     0436  2C3A               	goto	u1260
  4936     0437                     u1261:
  4937     0437  0024               	movlb	4	; select bank4
  4938     0438  1696               	bsf	22,5	;volatile
  4939     0439  2C3C               	goto	u1274
  4940     043A                     u1260:
  4941     043A  0024               	movlb	4	; select bank4
  4942     043B  1296               	bcf	22,5	;volatile
  4943     043C                     u1274:
  4944     043C                     l1689:
  4945                           
  4946                           ;I2C.c: 213:     SSPCON2bits.ACKEN = 1;
  4947     043C  1616               	bsf	22,4	;volatile
  4948     043D                     l1691:
  4949                           
  4950                           ;I2C.c: 215:     st = I2C_WaitIF(50);
  4951     043D  3032               	movlw	50
  4952     043E  00F0               	movwf	I2C_WaitIF@timeout_ms
  4953     043F  3000               	movlw	0
  4954     0440  00F1               	movwf	I2C_WaitIF@timeout_ms+1
  4955     0441  3182  221F  3184   	fcall	_I2C_WaitIF
  4956     0444  00F5               	movwf	I2C_ReadByte@st
  4957     0445                     l1693:
  4958                           
  4959                           ;I2C.c: 216:     if (st != I2C_OK) return st;
  4960     0445  0875               	movf	I2C_ReadByte@st,w
  4961     0446  1903               	btfsc	3,2
  4962     0447  2C49               	goto	u1281
  4963     0448  2C4A               	goto	u1280
  4964     0449                     u1281:
  4965     0449  2C4B               	goto	l257
  4966     044A                     u1280:
  4967     044A  2C17               	goto	l1671
  4968     044B                     l257:
  4969                           
  4970                           ;I2C.c: 218:     PIR1bits.SSP1IF = 0;
  4971     044B  0020               	movlb	0	; select bank0
  4972     044C  1191               	bcf	17,3	;volatile
  4973     044D                     l1699:
  4974                           
  4975                           ;I2C.c: 219:     return I2C_OK;
  4976     044D  3000               	movlw	0
  4977     044E                     l254:
  4978     044E  0008               	return
  4979     044F                     __end_of_I2C_ReadByte:
  4980                           
  4981                           	psect	text22
  4982     027F                     __ptext22:	
  4983 ;; *************** function _I2C_WaitIdle *****************
  4984 ;; Defined at:
  4985 ;;		line 81 in file "I2C.c"
  4986 ;; Parameters:    Size  Location     Type
  4987 ;;  timeout_ms      2    0[COMMON] unsigned short 
  4988 ;; Auto vars:     Size  Location     Type
  4989 ;;		None
  4990 ;; Return value:  Size  Location     Type
  4991 ;;                  1    wreg      enum E6036
  4992 ;; Registers used:
  4993 ;;		wreg, status,2, status,0
  4994 ;; Tracked objects:
  4995 ;;		On entry : 0/0
  4996 ;;		On exit  : 0/0
  4997 ;;		Unchanged: 0/0
  4998 ;; Data sizes:     COMMON   BANK0   BANK1   BANK2   BANK3   BANK4   BANK5   BANK6   BANK7   BANK8   BANK9  BANK10  BANK1
      +1  BANK12  BANK13  BANK14  BANK15  BANK16  BANK17  BANK18  BANK19  BANK20  BANK21  BANK22  BANK23  BANK24  BANK25
  4999 ;;      Params:         2       0       0       0       0       0       0       0       0       0       0       0       
      +0       0       0       0       0       0       0       0       0       0       0       0       0       0       0
  5000 ;;      Locals:         0       0       0       0       0       0       0       0       0       0       0       0       
      +0       0       0       0       0       0       0       0       0       0       0       0       0       0       0
  5001 ;;      Temps:          1       0       0       0       0       0       0       0       0       0       0       0       
      +0       0       0       0       0       0       0       0       0       0       0       0       0       0       0
  5002 ;;      Totals:         3       0       0       0       0       0       0       0       0       0       0       0       
      +0       0       0       0       0       0       0       0       0       0       0       0       0       0       0
  5003 ;;Total ram usage:        3 bytes
  5004 ;; Hardware stack levels used: 1
  5005 ;; This function calls:
  5006 ;;		Nothing
  5007 ;; This function is called by:
  5008 ;;		_I2C_Start
  5009 ;;		_I2C_RepeatedStart
  5010 ;;		_I2C_Stop
  5011 ;;		_I2C_WriteByte
  5012 ;;		_I2C_ReadByte
  5013 ;; This function uses a non-reentrant model
  5014 ;;
  5015                           
  5016     027F                     _I2C_WaitIdle:	
  5017                           ;psect for function _I2C_WaitIdle
  5018                           
  5019     027F                     l1429:	
  5020                           ;incstack = 0
  5021                           ; Regs used in _I2C_WaitIdle: [wreg+status,2+status,0]
  5022                           
  5023                           
  5024                           ;I2C.c: 81: I2C_Status_t I2C_WaitIdle(uint16_t timeout_ms);I2C.c: 82: {;I2C.c: 83:     w
      +                          hile (timeout_ms--)
  5025     027F  2A95               	goto	l1441
  5026     0280                     l1431:
  5027                           
  5028                           ;I2C.c: 84:     {;I2C.c: 87:         if ((SSPCON2 & 0x1F) == 0 && SSPSTATbits.R_nW == 0)
  5029     0280  0024               	movlb	4	; select bank4
  5030     0281  0816               	movf	22,w	;volatile
  5031     0282  391F               	andlw	31
  5032     0283  1D03               	btfss	3,2
  5033     0284  2A86               	goto	u831
  5034     0285  2A87               	goto	u830
  5035     0286                     u831:
  5036     0286  2A8D               	goto	l1439
  5037     0287                     u830:
  5038     0287                     l1433:
  5039     0287  1914               	btfsc	20,2	;volatile
  5040     0288  2A8A               	goto	u841
  5041     0289  2A8B               	goto	u840
  5042     028A                     u841:
  5043     028A  2A8D               	goto	l1439
  5044     028B                     u840:
  5045     028B                     l1435:
  5046                           
  5047                           ;I2C.c: 88:             return I2C_OK;
  5048     028B  3000               	movlw	0
  5049     028C  2AA2               	goto	l228
  5050     028D                     l1439:
  5051                           
  5052                           ;I2C.c: 90:         _delay((unsigned long)((1)*(32000000/4000.0)));
  5053     028D  300B               	movlw	11
  5054     028E  00F2               	movwf	??_I2C_WaitIdle
  5055     028F  3062               	movlw	98
  5056     0290                     u1627:
  5057     0290  0B89               	decfsz	9,f
  5058     0291  2A90               	goto	u1627
  5059     0292  0BF2               	decfsz	??_I2C_WaitIdle,f
  5060     0293  2A90               	goto	u1627
  5061     0294  3200               	nop2
  5062     0295                     l1441:
  5063                           
  5064                           ;I2C.c: 83:     while (timeout_ms--)
  5065     0295  3001               	movlw	1
  5066     0296  02F0               	subwf	I2C_WaitIdle@timeout_ms,f
  5067     0297  3000               	movlw	0
  5068     0298  3BF1               	subwfb	I2C_WaitIdle@timeout_ms+1,f
  5069     0299  0A70               	incf	I2C_WaitIdle@timeout_ms,w
  5070     029A  1D03               	skipz
  5071     029B  2AA0               	goto	u851
  5072     029C  0A71               	incf	I2C_WaitIdle@timeout_ms+1,w
  5073     029D  1D03               	btfss	3,2
  5074     029E  2AA0               	goto	u851
  5075     029F  2AA1               	goto	u850
  5076     02A0                     u851:
  5077     02A0  2A80               	goto	l1431
  5078     02A1                     u850:
  5079     02A1                     l1443:
  5080                           
  5081                           ;I2C.c: 92:     return I2C_TIMEOUT;
  5082     02A1  3002               	movlw	2
  5083     02A2                     l228:
  5084     02A2  0008               	return
  5085     02A3                     __end_of_I2C_WaitIdle:
  5086                           
  5087                           	psect	text23
  5088     021F                     __ptext23:	
  5089 ;; *************** function _I2C_WaitIF *****************
  5090 ;; Defined at:
  5091 ;;		line 23 in file "I2C.c"
  5092 ;; Parameters:    Size  Location     Type
  5093 ;;  timeout_ms      2    0[COMMON] unsigned short 
  5094 ;; Auto vars:     Size  Location     Type
  5095 ;;		None
  5096 ;; Return value:  Size  Location     Type
  5097 ;;                  1    wreg      enum E6036
  5098 ;; Registers used:
  5099 ;;		wreg, status,2, status,0
  5100 ;; Tracked objects:
  5101 ;;		On entry : 0/0
  5102 ;;		On exit  : 0/0
  5103 ;;		Unchanged: 0/0
  5104 ;; Data sizes:     COMMON   BANK0   BANK1   BANK2   BANK3   BANK4   BANK5   BANK6   BANK7   BANK8   BANK9  BANK10  BANK1
      +1  BANK12  BANK13  BANK14  BANK15  BANK16  BANK17  BANK18  BANK19  BANK20  BANK21  BANK22  BANK23  BANK24  BANK25
  5105 ;;      Params:         2       0       0       0       0       0       0       0       0       0       0       0       
      +0       0       0       0       0       0       0       0       0       0       0       0       0       0       0
  5106 ;;      Locals:         0       0       0       0       0       0       0       0       0       0       0       0       
      +0       0       0       0       0       0       0       0       0       0       0       0       0       0       0
  5107 ;;      Temps:          1       0       0       0       0       0       0       0       0       0       0       0       
      +0       0       0       0       0       0       0       0       0       0       0       0       0       0       0
  5108 ;;      Totals:         3       0       0       0       0       0       0       0       0       0       0       0       
      +0       0       0       0       0       0       0       0       0       0       0       0       0       0       0
  5109 ;;Total ram usage:        3 bytes
  5110 ;; Hardware stack levels used: 1
  5111 ;; This function calls:
  5112 ;;		Nothing
  5113 ;; This function is called by:
  5114 ;;		_I2C_Start
  5115 ;;		_I2C_RepeatedStart
  5116 ;;		_I2C_Stop
  5117 ;;		_I2C_WriteByte
  5118 ;;		_I2C_ReadByte
  5119 ;; This function uses a non-reentrant model
  5120 ;;
  5121                           
  5122     021F                     _I2C_WaitIF:	
  5123                           ;psect for function _I2C_WaitIF
  5124                           
  5125     021F                     l1415:	
  5126                           ;incstack = 0
  5127                           ; Regs used in _I2C_WaitIF: [wreg+status,2+status,0]
  5128                           
  5129                           
  5130                           ;I2C.c: 23: static I2C_Status_t I2C_WaitIF(uint16_t timeout_ms);I2C.c: 24: {;I2C.c: 25: 
      +                              while (timeout_ms--)
  5131     021F  2A2F               	goto	l1423
  5132     0220                     l213:
  5133                           
  5134                           ;I2C.c: 26:     {;I2C.c: 27:         if (PIR1bits.SSP1IF)
  5135     0220  0020               	movlb	0	; select bank0
  5136     0221  1D91               	btfss	17,3	;volatile
  5137     0222  2A24               	goto	u811
  5138     0223  2A25               	goto	u810
  5139     0224                     u811:
  5140     0224  2A27               	goto	l1421
  5141     0225                     u810:
  5142     0225                     l1417:
  5143                           
  5144                           ;I2C.c: 28:             return I2C_OK;
  5145     0225  3000               	movlw	0
  5146     0226  2A3C               	goto	l215
  5147     0227                     l1421:
  5148                           
  5149                           ;I2C.c: 30:         _delay((unsigned long)((1)*(32000000/4000.0)));
  5150     0227  300B               	movlw	11
  5151     0228  00F2               	movwf	??_I2C_WaitIF
  5152     0229  3062               	movlw	98
  5153     022A                     u1637:
  5154     022A  0B89               	decfsz	9,f
  5155     022B  2A2A               	goto	u1637
  5156     022C  0BF2               	decfsz	??_I2C_WaitIF,f
  5157     022D  2A2A               	goto	u1637
  5158     022E  3200               	nop2
  5159     022F                     l1423:
  5160                           
  5161                           ;I2C.c: 25:     while (timeout_ms--)
  5162     022F  3001               	movlw	1
  5163     0230  02F0               	subwf	I2C_WaitIF@timeout_ms,f
  5164     0231  3000               	movlw	0
  5165     0232  3BF1               	subwfb	I2C_WaitIF@timeout_ms+1,f
  5166     0233  0A70               	incf	I2C_WaitIF@timeout_ms,w
  5167     0234  1D03               	skipz
  5168     0235  2A3A               	goto	u821
  5169     0236  0A71               	incf	I2C_WaitIF@timeout_ms+1,w
  5170     0237  1D03               	btfss	3,2
  5171     0238  2A3A               	goto	u821
  5172     0239  2A3B               	goto	u820
  5173     023A                     u821:
  5174     023A  2A20               	goto	l213
  5175     023B                     u820:
  5176     023B                     l1425:
  5177                           
  5178                           ;I2C.c: 32:     return I2C_TIMEOUT;
  5179     023B  3002               	movlw	2
  5180     023C                     l215:
  5181     023C  0008               	return
  5182     023D                     __end_of_I2C_WaitIF:
  5183                           
  5184                           	psect	text24
  5185     01DF                     __ptext24:	
  5186 ;; *************** function _EEPROM_ControlByte *****************
  5187 ;; Defined at:
  5188 ;;		line 36 in file "main.c"
  5189 ;; Parameters:    Size  Location     Type
  5190 ;;  memAddr         2    0[COMMON] unsigned short 
  5191 ;;  read            1    2[COMMON] _Bool 
  5192 ;; Auto vars:     Size  Location     Type
  5193 ;;  ctrl            1    4[COMMON] unsigned char 
  5194 ;;  block           1    3[COMMON] unsigned char 
  5195 ;; Return value:  Size  Location     Type
  5196 ;;                  1    wreg      unsigned char 
  5197 ;; Registers used:
  5198 ;;		wreg, status,2, status,0
  5199 ;; Tracked objects:
  5200 ;;		On entry : 0/0
  5201 ;;		On exit  : 0/0
  5202 ;;		Unchanged: 0/0
  5203 ;; Data sizes:     COMMON   BANK0   BANK1   BANK2   BANK3   BANK4   BANK5   BANK6   BANK7   BANK8   BANK9  BANK10  BANK1
      +1  BANK12  BANK13  BANK14  BANK15  BANK16  BANK17  BANK18  BANK19  BANK20  BANK21  BANK22  BANK23  BANK24  BANK25
  5204 ;;      Params:         3       0       0       0       0       0       0       0       0       0       0       0       
      +0       0       0       0       0       0       0       0       0       0       0       0       0       0       0
  5205 ;;      Locals:         2       0       0       0       0       0       0       0       0       0       0       0       
      +0       0       0       0       0       0       0       0       0       0       0       0       0       0       0
  5206 ;;      Temps:          0       0       0       0       0       0       0       0       0       0       0       0       
      +0       0       0       0       0       0       0       0       0       0       0       0       0       0       0
  5207 ;;      Totals:         5       0       0       0       0       0       0       0       0       0       0       0       
      +0       0       0       0       0       0       0       0       0       0       0       0       0       0       0
  5208 ;;Total ram usage:        5 bytes
  5209 ;; Hardware stack levels used: 1
  5210 ;; This function calls:
  5211 ;;		Nothing
  5212 ;; This function is called by:
  5213 ;;		_EEPROM_AckPoll
  5214 ;;		_EEPROM_WriteByte
  5215 ;;		_EEPROM_ReadByte
  5216 ;; This function uses a non-reentrant model
  5217 ;;
  5218                           
  5219     01DF                     _EEPROM_ControlByte:	
  5220                           ;psect for function _EEPROM_ControlByte
  5221                           
  5222     01DF                     l1447:	
  5223                           ;incstack = 0
  5224                           ; Regs used in _EEPROM_ControlByte: [wreg+status,2+status,0]
  5225                           
  5226                           
  5227                           ;main.c: 36: static uint8_t EEPROM_ControlByte(uint16_t memAddr, _Bool read);main.c: 37:
      +                           {;main.c: 38:     uint8_t block = (memAddr >> 8) & 0x07;
  5228     01DF  0871               	movf	EEPROM_ControlByte@memAddr+1,w
  5229     01E0  3907               	andlw	7
  5230     01E1  00F3               	movwf	EEPROM_ControlByte@block
  5231     01E2                     l1449:
  5232                           
  5233                           ;main.c: 39:     uint8_t ctrl = (0b1010 << 4) | (block << 1);
  5234     01E2  3573               	lslf	EEPROM_ControlByte@block,w
  5235     01E3  38A0               	iorlw	160
  5236     01E4  00F4               	movwf	EEPROM_ControlByte@ctrl
  5237     01E5                     l1451:
  5238                           
  5239                           ;main.c: 40:     return ctrl | (read ? 1 : 0);
  5240     01E5  0872               	movf	EEPROM_ControlByte@read,w
  5241     01E6  1D03               	btfss	3,2
  5242     01E7  29E9               	goto	u861
  5243     01E8  29EB               	goto	u860
  5244     01E9                     u861:
  5245     01E9  3001               	movlw	1
  5246     01EA  29EC               	goto	u870
  5247     01EB                     u860:
  5248     01EB  3000               	movlw	0
  5249     01EC                     u870:
  5250     01EC  0474               	iorwf	EEPROM_ControlByte@ctrl,w
  5251     01ED                     l84:
  5252     01ED  0008               	return
  5253     01EE                     __end_of_EEPROM_ControlByte:
  5254     007E                     btemp	set	126	;btemp
  5255     007E                     wtemp0	set	126
  5256                           
  5257                           	psect	config
  5258                           
  5259                           ;Config register CONFIG1 @ 0x8007
  5260                           ;	Oscillator Selection Bits
  5261                           ;	FOSC = INTOSC, INTOSC oscillator: I/O function on CLKIN pin
  5262                           ;	Watchdog Timer Enable
  5263                           ;	WDTE = OFF, WDT disabled
  5264                           ;	Power-up Timer Enable
  5265                           ;	PWRTE = OFF, PWRT disabled
  5266                           ;	MCLR Pin Function Select
  5267                           ;	MCLRE = OFF, MCLR/VPP pin function is digital input if LVP bit is also 0.
  5268                           ;	Flash Program Memory Code Protection
  5269                           ;	CP = OFF, Program memory code protection is disabled
  5270                           ;	Brown-out Reset Enable
  5271                           ;	BOREN = OFF, Brown-out Reset disabled
  5272                           ;	Clock Out Enable
  5273                           ;	CLKOUTEN = OFF, CLKOUT function is disabled. I/O or oscillator function on the CLKOUT 
      +                          pin
  5274                           ;	Internal/External Switchover Mode
  5275                           ;	IESO = ON, Internal/External Switchover Mode is enabled
  5276                           ;	Fail-Safe Clock Monitor Enable
  5277                           ;	FCMEN = OFF, Fail-Safe Clock Monitor is disabled
  5278     8007                     	org	32775
  5279     8007  19A4               	dw	6564
  5280                           
  5281                           ;Config register CONFIG2 @ 0x8008
  5282                           ;	Flash Memory Self-Write Protection
  5283                           ;	WRT = OFF, Write protection off
  5284                           ;	Peripheral Pin Select one-way control
  5285                           ;	PPS1WAY = ON, The PPSLOCK bit cannot be cleared once it is set by software
  5286                           ;	Zero-cross detect disable
  5287                           ;	ZCDDIS = ON, ZCD disabled. ZCD can be enabled by setting the ZCDSEN bit of ZCDCON
  5288                           ;	Phase Lock Loop enable
  5289                           ;	PLLEN = OFF, 4x PLL is disabled
  5290                           ;	Stack Overflow/Underflow Reset Enable
  5291                           ;	STVREN = ON, Stack Overflow or Underflow will cause a Reset
  5292                           ;	Brown-out Reset Voltage Selection
  5293                           ;	BORV = LO, Brown-out Reset Voltage (Vbor), low trip point selected.
  5294                           ;	Low-Power Brown Out Reset
  5295                           ;	LPBOR = OFF, Low-Power BOR is disabled
  5296                           ;	In-Circuit Debugger Mode
  5297                           ;	DEBUG = 0x1, unprogrammed default
  5298                           ;	Low-Voltage Programming Enable
  5299                           ;	LVP = OFF, High-voltage on MCLR/VPP must be used for programming
  5300     8008                     	org	32776
  5301     8008  1EFF               	dw	7935

Data Sizes:
    Strings     189
    Constant    0
    Data        0
    BSS         0
    Persistent  32
    Stack       0

Auto Spaces:
    Space          Size  Autos    Used
    COMMON           14     14      14
    BANK0            80     36      36
    BANK1            80      0       0
    BANK2            80      0       0
    BANK3            80      0       0
    BANK4            80      0       0
    BANK5            80      0       0
    BANK6            80      0       0
    BANK7            80      0       0
    BANK8            80      0       0
    BANK9            80      0       0
    BANK10           80      0       0
    BANK11           80      0       0
    BANK12           80      0       0
    BANK13           80      0       0
    BANK14           80      0       0
    BANK15           80      0       0
    BANK16           80      0       0
    BANK17           80      0       0
    BANK18           80      0       0
    BANK19           80      0       0
    BANK20           80      0       0
    BANK21           80      0       0
    BANK22           80      0       0
    BANK23           80      0       0
    BANK24           80      0       0
    BANK25           32      0       0

Pointer List with Targets:

    EEPROM_ReadByte@data	PTR unsigned char  size(1) Largest target is 1
		 -> main@readVal(BANK0[1]), 

    EUSART_Write_Integer@ptr	PTR unsigned char  size(1) Largest target is 20
		 -> EUSART_Write_Integer@buffer(BANK0[20]), 

    EUSART_Write_Integer@temp_ptr	PTR unsigned char  size(1) Largest target is 20
		 -> EUSART_Write_Integer@buffer(BANK0[20]), 

    EUSART_Write_Text@text	PTR unsigned char  size(2) Largest target is 37
		 -> STR_1(CODE[37]), STR_10(CODE[10]), STR_11(CODE[2]), STR_12(CODE[23]), 
		 -> STR_13(CODE[2]), STR_14(CODE[9]), STR_15(CODE[12]), STR_16(CODE[2]), 
		 -> STR_17(CODE[9]), STR_18(CODE[10]), STR_19(CODE[9]), STR_2(CODE[14]), 
		 -> STR_20(CODE[2]), STR_3(CODE[10]), STR_4(CODE[9]), STR_5(CODE[2]), 
		 -> STR_6(CODE[24]), STR_7(CODE[2]), STR_8(CODE[10]), STR_9(CODE[13]), 

    I2C_ReadByte@data	PTR unsigned char  size(1) Largest target is 1
		 -> main@readVal(BANK0[1]), 

    itoa@buf	PTR PTR unsigned char  size(1) Largest target is 1
		 -> EUSART_Write_Integer@ptr(BANK0[1]), 


Critical Paths under _main in COMMON

    _main->_EEPROM_WriteByte
    _main->_EUSART_Write_Integer
    _EUSART_Write_Text->_EUSART_Write
    _EUSART_Write_Integer->_itoa
    _itoa->___awdiv
    _EUSART_Initialize->___aldiv
    _EEPROM_WriteByte->_EEPROM_AckPoll
    _EEPROM_AckPoll->_EEPROM_ControlByte
    _EEPROM_AckPoll->_I2C_WriteByte
    _EEPROM_ReadByte->_I2C_ReadByte
    _I2C_WriteByte->_I2C_WaitIF
    _I2C_WriteByte->_I2C_WaitIdle
    _I2C_Stop->_I2C_WaitIF
    _I2C_Stop->_I2C_WaitIdle
    _I2C_Start->_I2C_WaitIF
    _I2C_Start->_I2C_WaitIdle
    _I2C_RepeatedStart->_I2C_WaitIF
    _I2C_RepeatedStart->_I2C_WaitIdle
    _I2C_ReadByte->_I2C_WaitIF
    _I2C_ReadByte->_I2C_WaitIdle

Critical Paths under _main in BANK0

    _main->_EUSART_Write_Integer
    _EUSART_Write_Integer->_itoa
    _EUSART_Initialize->___aldiv

Critical Paths under _main in BANK1

    None.

Critical Paths under _main in BANK2

    None.

Critical Paths under _main in BANK3

    None.

Critical Paths under _main in BANK4

    None.

Critical Paths under _main in BANK5

    None.

Critical Paths under _main in BANK6

    None.

Critical Paths under _main in BANK7

    None.

Critical Paths under _main in BANK8

    None.

Critical Paths under _main in BANK9

    None.

Critical Paths under _main in BANK10

    None.

Critical Paths under _main in BANK11

    None.

Critical Paths under _main in BANK12

    None.

Critical Paths under _main in BANK13

    None.

Critical Paths under _main in BANK14

    None.

Critical Paths under _main in BANK15

    None.

Critical Paths under _main in BANK16

    None.

Critical Paths under _main in BANK17

    None.

Critical Paths under _main in BANK18

    None.

Critical Paths under _main in BANK19

    None.

Critical Paths under _main in BANK20

    None.

Critical Paths under _main in BANK21

    None.

Critical Paths under _main in BANK22

    None.

Critical Paths under _main in BANK23

    None.

Critical Paths under _main in BANK24

    None.

Critical Paths under _main in BANK25

    None.

Call Graph Tables:

 ---------------------------------------------------------------------------------
 (Depth) Function   	        Calls       Base Space   Used Autos Params    Refs
 ---------------------------------------------------------------------------------
 (0) _main                                                 7     7      0   19465
                                             29 BANK0      7     7      0
                    _EEPROM_ReadByte
                   _EEPROM_WriteByte
                  _EUSART_Initialize
               _EUSART_Write_Integer
                  _EUSART_Write_Text
                           _I2C_Init
                           _initMain
 ---------------------------------------------------------------------------------
 (1) _initMain                                             1     1      0       0
                                              0 COMMON     1     1      0
                        _internal_32
 ---------------------------------------------------------------------------------
 (2) _internal_32                                          0     0      0       0
 ---------------------------------------------------------------------------------
 (1) _I2C_Init                                             1     1      0       0
                                              0 COMMON     1     1      0
                    _I2C_ClearErrors
 ---------------------------------------------------------------------------------
 (2) _I2C_ClearErrors                                      0     0      0       0
 ---------------------------------------------------------------------------------
 (1) _EUSART_Write_Text                                    5     3      2    1632
                                              1 COMMON     5     3      2
                       _EUSART_Write
 ---------------------------------------------------------------------------------
 (1) _EUSART_Write_Integer                                25    23      2    2847
                                             11 COMMON     3     1      2
                                              7 BANK0     22    22      0
                       _EUSART_Write
                               _itoa
 ---------------------------------------------------------------------------------
 (2) _itoa                                                 9     7      2    2069
                                              9 COMMON     2     0      2
                                              0 BANK0      7     7      0
                            ___awdiv
                            ___awmod
                             ___wmul
 ---------------------------------------------------------------------------------
 (3) ___wmul                                               6     2      4     244
                                              0 COMMON     6     2      4
 ---------------------------------------------------------------------------------
 (3) ___awmod                                              7     3      4     448
                                              0 COMMON     7     3      4
 ---------------------------------------------------------------------------------
 (3) ___awdiv                                              9     5      4     908
                                              0 COMMON     9     5      4
 ---------------------------------------------------------------------------------
 (2) _EUSART_Write                                         1     1      0      22
                                              0 COMMON     1     1      0
 ---------------------------------------------------------------------------------
 (1) _EUSART_Initialize                                   18    14      4     595
                                              9 COMMON     2     2      0
                                              6 BANK0     16    12      4
                            ___aldiv
 ---------------------------------------------------------------------------------
 (2) ___aldiv                                             15     7      8     452
                                              0 COMMON     9     1      8
                                              0 BANK0      6     6      0
 ---------------------------------------------------------------------------------
 (1) _EEPROM_WriteByte                                     4     1      3    7828
                                             11 COMMON     3     0      3
                                              0 BANK0      1     1      0
                     _EEPROM_AckPoll
                 _EEPROM_ControlByte
                          _I2C_Start
                           _I2C_Stop
                      _I2C_WriteByte
 ---------------------------------------------------------------------------------
 (2) _EEPROM_AckPoll                                       6     4      2    3810
                                              5 COMMON     6     4      2
                 _EEPROM_ControlByte
                          _I2C_Start
                           _I2C_Stop
                      _I2C_WriteByte
 ---------------------------------------------------------------------------------
 (1) _EEPROM_ReadByte                                      4     1      3    6246
                                              6 COMMON     4     1      3
                 _EEPROM_ControlByte
                       _I2C_ReadByte
                  _I2C_RepeatedStart
                          _I2C_Start
                           _I2C_Stop
                      _I2C_WriteByte
 ---------------------------------------------------------------------------------
 (2) _I2C_WriteByte                                        2     2      0     992
                                              3 COMMON     2     2      0
                         _I2C_WaitIF
                       _I2C_WaitIdle
 ---------------------------------------------------------------------------------
 (2) _I2C_Stop                                             1     1      0     938
                                              3 COMMON     1     1      0
                         _I2C_WaitIF
                       _I2C_WaitIdle
 ---------------------------------------------------------------------------------
 (2) _I2C_Start                                            1     1      0     970
                                              3 COMMON     1     1      0
                         _I2C_WaitIF
                       _I2C_WaitIdle
 ---------------------------------------------------------------------------------
 (2) _I2C_RepeatedStart                                    1     1      0     970
                                              3 COMMON     1     1      0
                         _I2C_WaitIF
                       _I2C_WaitIdle
 ---------------------------------------------------------------------------------
 (2) _I2C_ReadByte                                         3     2      1    1190
                                              3 COMMON     3     2      1
                         _I2C_WaitIF
                       _I2C_WaitIdle
 ---------------------------------------------------------------------------------
 (3) _I2C_WaitIdle                                         3     1      2     402
                                              0 COMMON     3     1      2
 ---------------------------------------------------------------------------------
 (3) _I2C_WaitIF                                           3     1      2     478
                                              0 COMMON     3     1      2
 ---------------------------------------------------------------------------------
 (2) _EEPROM_ControlByte                                   5     2      3     698
                                              0 COMMON     5     2      3
 ---------------------------------------------------------------------------------
 Estimated maximum stack depth 3
 ---------------------------------------------------------------------------------

 Call Graph Graphs:

 _main (ROOT)
   _EEPROM_ReadByte
     _EEPROM_ControlByte
     _I2C_ReadByte
       _I2C_WaitIF
       _I2C_WaitIdle
     _I2C_RepeatedStart
       _I2C_WaitIF
       _I2C_WaitIdle
     _I2C_Start
       _I2C_WaitIF
       _I2C_WaitIdle
     _I2C_Stop
       _I2C_WaitIF
       _I2C_WaitIdle
     _I2C_WriteByte
       _I2C_WaitIF
       _I2C_WaitIdle
   _EEPROM_WriteByte
     _EEPROM_AckPoll
       _EEPROM_ControlByte
       _I2C_Start
       _I2C_Stop
       _I2C_WriteByte
     _EEPROM_ControlByte
     _I2C_Start
     _I2C_Stop
     _I2C_WriteByte
   _EUSART_Initialize
     ___aldiv
   _EUSART_Write_Integer
     _EUSART_Write
     _itoa
       ___awdiv
       ___awmod
       ___wmul
   _EUSART_Write_Text
     _EUSART_Write
   _I2C_Init
     _I2C_ClearErrors
   _initMain
     _internal_32

 Address spaces:
Name               Size   Autos  Total    Cost      Usage
BIGRAM             7F0      0       0       0        0.0%
NULL                 0      0       0       0        0.0%
CODE                 0      0       0       0        0.0%
BITCOMMON            E      0       0       1        0.0%
BITSFR0              0      0       0       1        0.0%
SFR0                 0      0       0       1        0.0%
COMMON               E      E       E       2      100.0%
BITSFR1              0      0       0       2        0.0%
SFR1                 0      0       0       2        0.0%
BITSFR2              0      0       0       3        0.0%
SFR2                 0      0       0       3        0.0%
STACK                0      0       0       3        0.0%
BITBANK0            50      0       0       4        0.0%
BITSFR3              0      0       0       4        0.0%
SFR3                 0      0       0       4        0.0%
BANK0               50     24      24       5       45.0%
BITSFR4              0      0       0       5        0.0%
SFR4                 0      0       0       5        0.0%
BITBANK1            50      0       0       6        0.0%
BITSFR5              0      0       0       6        0.0%
SFR5                 0      0       0       6        0.0%
BANK1               50      0       0       7        0.0%
BITSFR6              0      0       0       7        0.0%
SFR6                 0      0       0       7        0.0%
BITBANK2            50      0       0       8        0.0%
BITSFR7              0      0       0       8        0.0%
SFR7                 0      0       0       8        0.0%
BANK2               50      0       0       9        0.0%
BITSFR8              0      0       0       9        0.0%
SFR8                 0      0       0       9        0.0%
BITBANK3            50      0       0      10        0.0%
BITSFR9              0      0       0      10        0.0%
SFR9                 0      0       0      10        0.0%
BANK3               50      0       0      11        0.0%
BITSFR10             0      0       0      11        0.0%
SFR10                0      0       0      11        0.0%
BITBANK4            50      0       0      12        0.0%
BITSFR11             0      0       0      12        0.0%
SFR11                0      0       0      12        0.0%
BANK4               50      0       0      13        0.0%
BITSFR12             0      0       0      13        0.0%
SFR12                0      0       0      13        0.0%
BITSFR13             0      0       0      14        0.0%
SFR13                0      0       0      14        0.0%
ABS                  0      0       0      14        0.0%
BITBANK5            50      0       0      15        0.0%
BITSFR14             0      0       0      15        0.0%
SFR14                0      0       0      15        0.0%
BANK5               50      0       0      16        0.0%
BITSFR15             0      0       0      16        0.0%
SFR15                0      0       0      16        0.0%
BITBANK6            50      0       0      17        0.0%
BITSFR16             0      0       0      17        0.0%
SFR16                0      0       0      17        0.0%
BANK6               50      0       0      18        0.0%
BITSFR17             0      0       0      18        0.0%
SFR17                0      0       0      18        0.0%
BITBANK7            50      0       0      19        0.0%
BITSFR18             0      0       0      19        0.0%
SFR18                0      0       0      19        0.0%
BANK7               50      0       0      20        0.0%
BITSFR19             0      0       0      20        0.0%
SFR19                0      0       0      20        0.0%
BITBANK8            50      0       0      21        0.0%
BITSFR20             0      0       0      21        0.0%
SFR20                0      0       0      21        0.0%
BANK8               50      0       0      22        0.0%
BITSFR21             0      0       0      22        0.0%
SFR21                0      0       0      22        0.0%
BITBANK9            50      0       0      23        0.0%
BITSFR22             0      0       0      23        0.0%
SFR22                0      0       0      23        0.0%
BANK9               50      0       0      24        0.0%
BITSFR23             0      0       0      24        0.0%
SFR23                0      0       0      24        0.0%
BITBANK10           50      0       0      25        0.0%
BITSFR24             0      0       0      25        0.0%
SFR24                0      0       0      25        0.0%
BANK10              50      0       0      26        0.0%
BITSFR25             0      0       0      26        0.0%
SFR25                0      0       0      26        0.0%
BITBANK11           50      0       0      27        0.0%
BITSFR26             0      0       0      27        0.0%
SFR26                0      0       0      27        0.0%
BITSFR27             0      0       0      28        0.0%
SFR27                0      0       0      28        0.0%
DATA                 0      0       0      28        0.0%
BANK11              50      0       0      29        0.0%
BITSFR28             0      0       0      29        0.0%
SFR28                0      0       0      29        0.0%
BITBANK12           50      0       0      30        0.0%
BITSFR29             0      0       0      30        0.0%
SFR29                0      0       0      30        0.0%
BANK12              50      0       0      31        0.0%
BITSFR30             0      0       0      31        0.0%
SFR30                0      0       0      31        0.0%
BITBANK13           50      0       0      32        0.0%
BITSFR31             0      0       0      32        0.0%
SFR31                0      0       0      32        0.0%
BANK13              50      0       0      33        0.0%
BITBANK14           50      0       0      34        0.0%
BANK14              50      0       0      35        0.0%
BITBANK15           50      0       0      36        0.0%
BANK15              50      0       0      37        0.0%
BITBANK16           50      0       0      38        0.0%
BANK16              50      0       0      39        0.0%
BITBANK17           50      0       0      40        0.0%
BANK17              50      0       0      41        0.0%
BITBANK18           50      0       0      42        0.0%
BANK18              50      0       0      43        0.0%
BITBANK19           50      0       0      44        0.0%
BANK19              50      0       0      45        0.0%
BITBANK20           50      0       0      46        0.0%
BANK20              50      0       0      47        0.0%
BITBANK21           50      0       0      48        0.0%
BANK21              50      0       0      49        0.0%
BITBANK22           50      0       0      50        0.0%
BANK22              50      0       0      51        0.0%
BITBANK23           50      0       0      52        0.0%
BANK23              50      0       0      53        0.0%
BITBANK24           50      0       0      54        0.0%
BANK24              50      0       0      55        0.0%
BITBANK25           20      0       0      56        0.0%
BANK25              20      0       0      57        0.0%


Microchip Technology PIC Macro Assembler V2.46 build 20240104201356 
Symbol Table                                                                                   Thu Dec 25 16:43:31 2025

                      _SSPSTATbits 0214                                 l17 01D4  
                               l90 037C                                 l84 01ED  
                               l95 0401                       ___awdiv@sign 0076  
              ___wmul@multiplicand 0072                                l102 049E  
                              l116 074A                                l213 0220  
                              l109 03BA                                l222 01CB  
                              l215 023C                                l232 02FB  
                              l400 0630                                l233 0310  
                              l234 030D                                l242 026A  
                              l250 033C                                l146 04EE  
                              l162 01D6                                l243 027E  
                              l171 021E                                l219 0201  
                              l228 02A2                                l244 027C  
                              l237 02D6                                l165 01DE  
                              l325 0247                                l181 06C9  
                              l254 044E                                l238 02EB  
                              l255 0419                                l239 02E8  
                              l247 0321                                l327 025B  
                              l175 066F                                l248 0342  
                              l257 044B                                l249 0334  
                              l187 02C6                                l390 05B4  
                              l491 0541                                l478 05A0  
                              u810 0225                                u811 0224  
                              u820 023B                                u900 031F  
                              u821 023A                                u901 031E  
                              u830 0287                                u910 0333  
                              u831 0286                                u911 0332  
                              u840 028B                                u920 0339  
                              u841 028A                                u921 0338  
                              u850 02A1                                u930 0269  
                              u851 02A0                                u931 0268  
                              u860 01EB                                u940 027B  
                              u861 01E9                                u941 027A  
                              u870 01EC                                u950 0243  
                              u951 0242                                u880 02F9  
                              u881 02F8                                u890 030C  
                              u891 030B                                u980 0257  
                              u981 0256                                u965 0248  
                              u990 0547                                u991 0546  
                              u975 024D                       ___awmod@sign 0076  
                              wreg 0009                        main@address 0041  
                             l2001 07A0                               l2011 07D2  
                             l2003 07AB                               l2013 07E4  
                             l2005 07B2                               l2015 07E9  
                             l2007 07B9                               l2017 07ED  
                             l2009 07CB                               l1421 0227  
                             l1423 022F                               l1415 021F  
                             l1431 0280                               l1511 0276  
                             l1503 025C                               l1425 023B  
                             l1417 0225                               l1433 0287  
                             l1441 0295                               l1505 0264  
                             l1601 052D                               l1521 024C  
                             l1451 01E5                               l1443 02A1  
                             l1435 028B                               l1531 0543  
                             l1603 0533                               l1523 0251  
                             l1515 023D                               l1611 01CC  
                             l1429 027F                               l1509 026E  
                             l1621 0349                               l1613 0343  
                             l1541 0557                               l1533 0547  
                             l1605 0538                               l1525 0257  
                             l1517 023F                               l1447 01DF  
                             l1439 028D                               l1471 030F  
                             l1463 02FF                               l1455 02EC  
                             l1631 0364                               l1623 034E  
                             l1703 01D6                               l1551 056B  
                             l1543 055B                               l1535 054C  
                             l1607 053D                               l1519 0243  
                             l1711 0644                               l1449 01E2  
                             l1641 02C7                               l1465 0307  
                             l1457 02F4                               l1705 01DB  
                             l1561 0587                               l1553 056F  
                             l1545 055D                               l1537 054E  
                             l1529 0542                               l1721 06BB  
                             l1713 0649                               l1651 02E2  
                             l1643 02CF                               l1459 02F9  
                             l1483 0323                               l1475 0312  
                             l1811 0458                               l1635 0366  
                             l1627 0350                               l1619 0345  
                             l1803 03FA                               l1731 05A7  
                             l1563 058C                               l1555 0573  
                             l1547 0563                               l1539 0552  
                             l1723 06C2                               l1715 064E  
                             l1707 0633                               l1661 0403  
                             l1645 02D4                               l1493 0339  
                             l1485 0326                               l1477 031A  
                             l1637 037B                               l1629 035F  
                             l1741 05D7                               l1733 05B8  
                             l1557 0582                               l1549 0566  
                             l1565 0592                               l1581 04FB  
                             l1573 04EF                               l1717 0681  
                             l1709 063B                               l1725 01C5  
                             l1901 03B9                               l1671 0417  
                             l1663 0408                               l1495 033A  
                             l1487 032E                               l1479 031F  
                             l1815 045A                               l1807 044F  
                             l1751 0602                               l1743 05DA  
                             l1735 05C3                               l1727 05A1  
                             l1911 04EA                               l1903 049F  
                             l1567 0597                               l1559 0586  
                             l1591 0512                               l1583 04FF  
                             l1575 04F0                               l1719 06B1  
                             l1657 02EA                               l1649 02DA  
                             l1825 046F                               l1817 0466  
                             l1809 0453                               l1761 061D  
                             l1753 060A                               l1745 05E5  
                             l1737 05C7                               l1729 05A3  
                             l1913 04EB                               l1905 04E5  
                             l1569 059C                               l1593 0516  
                             l1585 0504                               l1577 04F4  
                             l1921 01EE                               l1691 043D  
                             l1683 042B                               l1675 041D  
                             l1667 040A                               l1499 033D  
                             l1835 047A                               l1827 0474  
                             l1819 046B                               l1771 03C5  
                             l1763 0628                               l1755 060B  
                             l1747 05E9                               l1739 05CF  
                             l1915 04EC                               l1907 04E8  
                             l1595 051A                               l1587 050A  
                             l1579 04F9                               l1931 0202  
                             l1923 01F3                               l1693 0445  
                             l1685 0431                               l1677 0425  
                             l1669 0412                               l1845 0484  
                             l1837 047E                               l1757 0612  
                             l1749 05F0                               l1917 04ED  
                             l1909 04E9                               l1597 0524  
                             l1589 050D                               l1941 02A6  
                             l1933 0205                               l1925 01F4  
                             l1687 0433                               l1855 0497  
                             l1847 0491                               l1775 03C8  
                             l1767 03BB                               l1759 0618  
                             l1599 0528                               l1943 02AE  
                             l1935 020F                               l1927 01F6  
                             l1871 038C                               l1863 037D  
                             l1951 06CA                               l1689 043C  
                             l1785 03DE                               l1777 03D5  
                             l1769 03C0                               l1945 02B2  
                             l1937 0213                               l1929 01F9  
                             l1881 0394                               l1873 038D  
                             l1865 0380                               l1961 06E9  
                             l1953 06DC                               l1699 044D  
                             l1795 03EA                               l1787 03E4  
                             l1779 03DA                               l1947 02B9  
                             l1939 02A3                               l1891 03A6  
                             l1883 0396                               l1875 038E  
                             l1867 0388                               l1971 0711  
                             l1963 06F0                               l1955 06E3  
                             l1797 03F3                               l1949 02BE  
                             l1893 03AB                               l1885 0397  
                             l1877 0390                               l1869 038A  
                             l1981 073B                               l1973 0718  
                             l1965 06F7                               l1957 06E6  
                             l1895 03AF                               l1887 039C  
                             l1879 0391                               l1991 0773  
                             l1983 0743                               l1975 0724  
                             l1967 06FF                               l1959 06E8  
                             l1897 03B4                               l1889 03A1  
                             l1993 0778                               l1985 0758  
                             l1977 0729                               l1969 0706  
       EUSART_Write_Integer@buffer 0027                               l1899 03B7  
                             l1995 077F                               l1987 0760  
                             l1979 0730                               l1997 078A  
                             l1989 0767                               l1999 0792  
                             STR_1 0800                               STR_2 0854  
                             STR_3 088F                               STR_4 08AB  
                             STR_5 0823                               STR_6 0825  
                             STR_7 0823                               STR_8 087B  
                             STR_9 0862                               _BRGH 0CF2  
                             u1000 0552                               _CREN 0CEC  
                             u1001 0551                               u1010 0563  
                             u1011 0562                               u1100 04FF  
                             u1101 04FE                               u1030 0573  
                             u1110 050A                               u1031 0572  
                             u1111 0509                               u1200 037B  
                             u1201 037A                               u1025 0567  
                             u1210 02D4                               u1050 0582  
                             u1130 051A                               u1211 02D3  
                             u1051 0581                               u1131 0519  
                             u1220 02E7                               u1140 0524  
                             u1300 063B                               u1221 02E6  
                             u1045 0574                               u1141 0523  
                             u1125 050E                               u1301 063A  
                             u1230 0408                               u1070 0592  
                             u1310 0680                               u1231 0407  
                             u1071 0591                               u1055 057E  
                             u1311 067F                               u1240 0417  
                             u1080 0597                               u1160 0533  
                             u1320 06C2                               u1241 0416  
                             u1081 0596                               u1065 0588  
                             u1161 0532                               u1145 0520  
                             u1321 06C1                               u1250 042A  
                             u1410 0618                               u1330 05A7  
                             u1170 0538                               u1090 04F4  
                             u1251 0429                               u1411 0617  
                             u1331 05A6                               u1171 0537  
                             u1155 0529                               u1091 04F3  
                             u1260 043A                               u1500 0483  
                             u1180 034E                               u1420 061D  
                             u1340 05B8                               u1261 0437  
                             u1501 0482                               u1181 034D  
                             u1421 061C                               u1405 060C  
                             u1341 05B7                               u1510 0496  
                             u1190 0364                               u1430 03C5  
                             u1350 05D7                               u1511 0495  
                             u1191 0363                               u1431 03C4  
                             u1351 05D6                               u1280 044A  
                             u1440 03DA                               u1520 04AD  
                             u1281 0449                               u1441 03D9  
                             u1274 043C                               u1450 03E9  
                             u1370 05E9                               u1530 04C4  
                             u1290 01DB                               u1451 03E8  
                             u1371 05E8                               u1291 01DA  
                             u1460 03F9                               u1540 021E  
                             u1461 03F8                               u1365 05DB  
                             u1525 04A9                               u1541 021D  
                             u1470 0458                               u1390 0602  
                             u1550 02C6                               u1471 0457  
                             u1391 0601                               u1535 04C0  
                             u1551 02C5                               u1607 01FC  
                             u1480 046B                               u1560 0729  
                             u1481 046A                               u1617 0369  
                             u1385 05EA                               u1561 0728  
                             u1490 0479                               u1570 0778  
                             u1627 0290                               u1491 0478  
                             u1395 05FE                               u1571 0777  
                             u1637 022A                               u1587 07F3  
                             u1597 0383                               _SCS0 04C8  
                             _SCS1 04C9                               _SPEN 0CEF  
                      main@readVal 0040                               _TXEN 0CF5  
                             _SYNC 0CF4                               _main 06CA  
                             _itoa 0631                   __end_of_I2C_Init 0202  
                             fsr0h 0005                               fsr1h 0007  
                             indf0 0000                               fsr0l 0004  
                             indf1 0001                               fsr1l 0006  
                             btemp 007E               EEPROM_WriteByte@data 007D  
                 __end_of_I2C_Stop 027F                               start 0002  
                    ?_EUSART_Write 0070                    __end_of___aldiv 0631  
                            ?_main 0070                              ?_itoa 0079  
                  __end_of___awdiv 05A1                              STR_10 088F  
                            STR_11 0823                              STR_20 0823  
                            STR_12 083D                              STR_13 0823  
                            STR_14 0899                              STR_15 086F  
                            STR_16 0823                              _BRG16 0CFB  
                            STR_17 08A2                              STR_18 0885  
                            STR_19 08B4                    __end_of___awmod 0542  
                  ___awdiv@divisor 0070                              _IRCF0 04CB  
                            _IRCF1 04CC                              _IRCF2 04CD  
                            _IRCF3 04CE                    ___awdiv@counter 0075  
                     _I2C_ReadByte 0402                  __end_of_I2C_Start 0311  
                            itoa@d 0079                       _I2C_WaitIdle 027F  
             I2C_WaitIF@timeout_ms 0070                              status 0003  
                            wtemp0 007E                       ?_internal_32 0070  
                     main@writeVal 003F                    __initialization 07FD  
                     __end_of_main 07FD                       __end_of_itoa 06CA  
                   ??_EUSART_Write 0070                             ??_main 003D  
                           ??_itoa 007B                I2C_RepeatedStart@st 0073  
                 ___awdiv@dividend 0072                       ??_I2C_WaitIF 0072  
                           _RC1REG 0199                             _SPBRGL 019B  
                           _TX1REG 019A                             _SPLLEN 04CF  
                           _SSPADD 0212                             _SSPBUF 0211  
                        ??___aldiv 0078                             ___wmul 023D  
                        ??___awdiv 0074                          ??___awmod 0074  
                 __end_of_initMain 03BB                     _EEPROM_AckPoll 0343  
                ??_EEPROM_ReadByte 0079                   ___awdiv@quotient 0077  
                  ___awmod@divisor 0070                    ___awmod@counter 0075  
         __end_of_EEPROM_WriteByte 0402                 __end_of_I2C_WaitIF 023D  
           EEPROM_ControlByte@ctrl 0074             EEPROM_ControlByte@read 0072  
                        ?_I2C_Init 0070                          ?_I2C_Stop 0070  
                  I2C_WriteByte@st 0074            __end_of__initialization 07FD  
                   __pcstackCOMMON 0070             __end_of_EEPROM_AckPoll 037D  
                    _I2C_WriteByte 0311                         ??_I2C_Init 0070  
                       ??_I2C_Stop 0073               __end_of_EUSART_Write 01DF  
       __end_of_EEPROM_ControlByte 01EE                         __pmaintext 06CA  
                   ?_I2C_WriteByte 0070                    ?_EEPROM_AckPoll 0075  
                          ?___wmul 0070                         I2C_Stop@st 0073  
                   I2C_ReadByte@st 0075          EEPROM_ControlByte@memAddr 0070  
                          _PPSLOCK 0E0F                            _SSPCON2 0216  
           I2C_WaitIdle@timeout_ms 0070                          ?_initMain 0070  
                        _I2C_Start 02EC                   I2C_ReadByte@data 0074  
                          ___aldiv 05A1                            ___awdiv 0542  
                          ___awmod 04EF                  ??_I2C_ClearErrors 0070  
                          __ptext1 037D                            __ptext2 01CC  
                          __ptext3 01EE                            __ptext4 01C5  
                          __ptext5 0202                            __ptext6 02A3  
                          __ptext7 0631                            __ptext8 023D  
                          __ptext9 04EF              EEPROM_AckPoll@memAddr 0075  
                 ___awmod@dividend 0072                   ___aldiv@dividend 0074  
           EEPROM_ReadByte@memAddr 0076            EEPROM_ControlByte@block 0073  
             end_of_initialization 07FD            EEPROM_WriteByte@memAddr 007B  
                       ??_initMain 0070                            itoa@div 0025  
                          itoa@buf 0024                            itoa@num 0020  
                       ?_I2C_Start 0070                    _EEPROM_ReadByte 044F  
                _EUSART_Initialize 049F                    ??_I2C_WriteByte 0073  
               ?_EUSART_Initialize 0026                   ___aldiv@quotient 0022  
               EUSART_Initialize@x 0079                ??_EUSART_Initialize 002A  
                ?_EEPROM_WriteByte 007B                 ??_EEPROM_WriteByte 007E  
                        _TRISBbits 008D                          _TRISCbits 008E  
                        _RXPPSbits 0E24                 EEPROM_WriteByte@st 0020  
        __end_of_EUSART_Initialize 04EF       __end_of_EUSART_Write_Integer 02C7  
                       main@status 0043                     __end_of___wmul 025C  
                     _EUSART_Write 01D5                start_initialization 07FD  
EUSART_Write_Integer@value_to_send 007B            __end_of_EEPROM_ReadByte 049F  
                _EUSART_Write_Text 0202                        ??_I2C_Start 0073  
                 ??_EEPROM_AckPoll 0077                 ?_EUSART_Write_Text 0071  
                         ??___wmul 0074                  _I2C_RepeatedStart 02C7  
              ??_EUSART_Write_Text 0073                 ?_I2C_RepeatedStart 0070  
               _EEPROM_ControlByte 01DF                          ___latbits 0003  
                    __pcstackBANK0 0020                      ?_I2C_ReadByte 0073  
              ??_I2C_RepeatedStart 0073                ?_EEPROM_ControlByte 0070  
        __end_of_EUSART_Write_Text 021F                      ?_I2C_WaitIdle 0070  
                  _I2C_ClearErrors 01C5                      ??_internal_32 0070  
        __end_of_I2C_RepeatedStart 02EC               ??_EEPROM_ControlByte 0073  
                         ?___aldiv 0070                           ?___awdiv 0070  
                         ?___awmod 0070          EUSART_Initialize@baudrate 0026  
                      I2C_Start@st 0073                           _I2C_Init 01EE  
                         _I2C_Stop 025C                     ??_I2C_ReadByte 0074  
                  I2C_ReadByte@ack 0073               _EUSART_Write_Integer 02A3  
                 ?_EEPROM_ReadByte 0076                     ??_I2C_WaitIdle 0072  
                  ___aldiv@divisor 0070                    ___aldiv@counter 0020  
                   ___wmul@product 0074                           _PIR1bits 0011  
                         _PIR2bits 0012            EUSART_Write_Integer@ptr 003B  
              __end_of_internal_32 01D5                  ___wmul@multiplier 0070  
            ?_EUSART_Write_Integer 007B            __end_of_I2C_ClearErrors 01CC  
                       _I2C_WaitIF 021F       EUSART_Write_Integer@temp_ptr 003C  
            __end_of_I2C_WriteByte 0343                         _ANSELBbits 018D  
                       _ANSELCbits 018E                           __ptext10 0542  
                         __ptext11 01D5                           __ptext20 02C7  
                         __ptext12 049F                           __ptext21 0402  
                         __ptext13 05A1                           __ptext22 027F  
                         __ptext14 03BB                           __ptext23 021F  
                         __ptext15 0343                           __ptext24 01DF  
                         __ptext16 044F                           __ptext17 0311  
                         __ptext18 025C                           __ptext19 02EC  
                         _initMain 037D                      _SSPDATPPSbits 0E21  
                 EEPROM_AckPoll@st 007A                        _internal_32 01CC  
                       _RB2PPSbits 0E9A               __end_of_I2C_ReadByte 044F  
                       _RC1STAbits 019D                         _RC4PPSbits 0EA4  
                    _SSPCLKPPSbits 0E20                         _RC5PPSbits 0EA5  
             __end_of_I2C_WaitIdle 02A3             ??_EUSART_Write_Integer 007D  
                   __pstringtext10 0899                     __pstringtext11 08A2  
                   __pstringtext12 08AB                     __pstringtext13 08B4  
                   __pstringtext14 0000                           itoa@temp 0022  
                 ?_I2C_ClearErrors 0070                        ?_I2C_WaitIF 0070  
                      _PPSLOCKbits 0E0F                EEPROM_ReadByte@data 0078  
                  EEPROM_AckPoll@t 0078                      __pstringtext1 0800  
                    __pstringtext2 0825                      __pstringtext3 083D  
                    __pstringtext4 0854                      __pstringtext5 0862  
                    __pstringtext6 086F                      __pstringtext7 087B  
                    __pstringtext8 0885                      __pstringtext9 088F  
            EUSART_Write_Text@text 0071                       ___aldiv@sign 0021  
                      _SSPCON1bits 0215                        _SSPCON2bits 0216  
               EUSART_Write@txData 0070                  EEPROM_ReadByte@st 0079  
                 _EEPROM_WriteByte 03BB                  I2C_WriteByte@data 0073  
                       _SSPCONbits 0215                 EUSART_Write_Text@i 0074  
