

Microchip MPLAB XC8 Assembler V2.46 build 20240104201356 
                                                                                               Fri Jan 30 16:33:05 2026

Microchip MPLAB XC8 C Compiler v2.46 (Free license) build 20240104201356 Og1 
     1                           	processor	16F1718
     2                           	pagewidth 120
     3                           	opt	flic
     4                           	psect	idataBANK0,global,class=CODE,delta=2,noexec
     5                           	psect	stringtext1,global,class=STRCODE,delta=2,noexec
     6                           	psect	stringtext2,global,class=STRCODE,delta=2,noexec
     7                           	psect	stringtext3,global,class=STRCODE,delta=2,noexec
     8                           	psect	stringtext4,global,class=STRCODE,delta=2,noexec
     9                           	psect	stringtext5,global,class=STRCODE,delta=2,noexec
    10                           	psect	stringtext6,global,class=STRCODE,delta=2,noexec
    11                           	psect	stringtext7,global,class=STRCODE,delta=2,noexec
    12                           	psect	stringtext8,global,class=STRCODE,delta=2,noexec
    13                           	psect	stringtext9,global,class=STRCODE,delta=2,noexec
    14                           	psect	stringtext10,global,class=STRCODE,delta=2,noexec
    15                           	psect	stringtext11,global,class=STRCODE,delta=2,noexec
    16                           	psect	cinit,global,class=CODE,merge=1,delta=2
    17                           	psect	dataBANK0,global,class=BANK0,space=1,delta=1,noexec
    18                           	psect	inittext,global,class=CODE,delta=2
    19                           	psect	cstackCOMMON,global,class=COMMON,space=1,delta=1,noexec
    20                           	psect	cstackBANK0,global,class=BANK0,space=1,delta=1,noexec
    21                           	psect	maintext,global,class=CODE,merge=1,split=1,delta=2
    22                           	psect	text1,local,class=CODE,merge=1,delta=2
    23                           	psect	text2,local,class=CODE,merge=1,delta=2
    24                           	psect	text3,local,class=CODE,merge=1,delta=2
    25                           	psect	text4,local,class=CODE,merge=1,delta=2
    26                           	psect	text5,local,class=CODE,merge=1,delta=2
    27                           	psect	text6,local,class=CODE,merge=1,delta=2
    28                           	psect	text7,local,class=CODE,merge=1,delta=2
    29                           	psect	text8,local,class=CODE,merge=1,delta=2
    30                           	psect	text9,local,class=CODE,merge=1,delta=2
    31                           	psect	text10,local,class=CODE,merge=1,delta=2
    32                           	psect	text11,local,class=CODE,merge=1,delta=2
    33                           	psect	text12,local,class=CODE,merge=1,delta=2
    34                           	psect	text13,local,class=CODE,merge=1,delta=2
    35                           	psect	text14,local,class=CODE,merge=1,delta=2
    36                           	psect	text15,local,class=CODE,merge=1,delta=2
    37                           	psect	text16,local,class=CODE,merge=1,delta=2
    38                           	psect	text17,local,class=CODE,merge=1,delta=2
    39                           	psect	text18,local,class=CODE,merge=1,delta=2
    40                           	psect	text19,local,class=CODE,merge=1,delta=2
    41                           	psect	text20,local,class=CODE,merge=1,delta=2
    42                           	psect	text21,local,class=CODE,merge=1,delta=2
    43                           	psect	text22,local,class=CODE,merge=1,delta=2
    44                           	psect	text23,local,class=CODE,merge=1,delta=2
    45                           	psect	config,global,abs,ovrld,class=CONFIG,space=4,delta=2,noexec
    46                           	dabs	1,0x7E,2
    47     0000                     
    48                           ; Generated 07/09/2023 GMT
    49                           ; 
    50                           ; Copyright © 2023, Microchip Technology Inc. and its subsidiaries ("Microchip")
    51                           ; All rights reserved.
    52                           ; 
    53                           ; This software is developed by Microchip Technology Inc. and its subsidiaries ("Microch
      +                          ip").
    54                           ; 
    55                           ; Redistribution and use in source and binary forms, with or without modification, are
    56                           ; permitted provided that the following conditions are met:
    57                           ; 
    58                           ;     1. Redistributions of source code must retain the above copyright notice, this lis
      +                          t of
    59                           ;        conditions and the following disclaimer.
    60                           ; 
    61                           ;     2. Redistributions in binary form must reproduce the above copyright notice, this 
      +                          list
    62                           ;        of conditions and the following disclaimer in the documentation and/or other
    63                           ;        materials provided with the distribution. Publication is not required when
    64                           ;        this file is used in an embedded application.
    65                           ; 
    66                           ;     3. Microchip's name may not be used to endorse or promote products derived from th
      +                          is
    67                           ;        software without specific prior written permission.
    68                           ; 
    69                           ; THIS SOFTWARE IS PROVIDED BY MICROCHIP "AS IS" AND ANY EXPRESS OR IMPLIED WARRANTIES,
    70                           ; INCLUDING, BUT NOT LIMITED TO, THE IMPLIED WARRANTIES OF MERCHANTABILITY AND FITNESS F
      +                          OR
    71                           ; PURPOSE ARE DISCLAIMED.  IN NO EVENT SHALL MICROCHIP BE LIABLE FOR ANY DIRECT, INDIREC
      +                          T,
    72                           ; INCIDENTAL, SPECIAL, EXEMPLARY, OR CONSEQUENTIAL DAMAGES (INCLUDING BUT NOT LIMITED TO
    73                           ; PROCUREMENT OF SUBSTITUTE GOODS OR SERVICES; LOSS OF USE, DATA OR PROFITS; OR BUSINESS
    74                           ; INTERRUPTION) HOWSOEVER CAUSED AND ON ANY THEORY OF LIABILITY, WHETHER IN CONTRACT, ST
      +                          RICT
    75                           ; LIABILITY, OR TORT (INCLUDING NEGLIGENCE OR OTHERWISE) ARISING IN ANY WAY OUT OF THE U
      +                          SE OF
    76                           ; THIS SOFTWARE, EVEN IF ADVISED OF THE POSSIBILITY OF SUCH DAMAGE.
    77                           ; 
    78                           ; 
    79                           ; Code-generator required, PIC16F1718 Definitions
    80                           ; 
    81                           ; SFR Addresses
    82     0000                     	;# 
    83     0001                     	;# 
    84     0002                     	;# 
    85     0003                     	;# 
    86     0004                     	;# 
    87     0005                     	;# 
    88     0006                     	;# 
    89     0007                     	;# 
    90     0008                     	;# 
    91     0009                     	;# 
    92     000A                     	;# 
    93     000B                     	;# 
    94     000C                     	;# 
    95     000D                     	;# 
    96     000E                     	;# 
    97     0010                     	;# 
    98     0011                     	;# 
    99     0012                     	;# 
   100     0013                     	;# 
   101     0015                     	;# 
   102     0016                     	;# 
   103     0016                     	;# 
   104     0017                     	;# 
   105     0018                     	;# 
   106     0019                     	;# 
   107     001A                     	;# 
   108     001B                     	;# 
   109     001C                     	;# 
   110     008C                     	;# 
   111     008D                     	;# 
   112     008E                     	;# 
   113     0090                     	;# 
   114     0091                     	;# 
   115     0092                     	;# 
   116     0093                     	;# 
   117     0095                     	;# 
   118     0096                     	;# 
   119     0097                     	;# 
   120     0098                     	;# 
   121     0099                     	;# 
   122     009A                     	;# 
   123     009B                     	;# 
   124     009B                     	;# 
   125     009C                     	;# 
   126     009D                     	;# 
   127     009E                     	;# 
   128     009F                     	;# 
   129     010C                     	;# 
   130     010D                     	;# 
   131     010E                     	;# 
   132     0111                     	;# 
   133     0112                     	;# 
   134     0113                     	;# 
   135     0114                     	;# 
   136     0115                     	;# 
   137     0116                     	;# 
   138     0117                     	;# 
   139     0118                     	;# 
   140     0119                     	;# 
   141     011A                     	;# 
   142     011B                     	;# 
   143     011B                     	;# 
   144     011C                     	;# 
   145     018C                     	;# 
   146     018D                     	;# 
   147     018E                     	;# 
   148     0191                     	;# 
   149     0191                     	;# 
   150     0192                     	;# 
   151     0193                     	;# 
   152     0193                     	;# 
   153     0194                     	;# 
   154     0195                     	;# 
   155     0196                     	;# 
   156     0197                     	;# 
   157     0199                     	;# 
   158     0199                     	;# 
   159     0199                     	;# 
   160     019A                     	;# 
   161     019A                     	;# 
   162     019A                     	;# 
   163     019B                     	;# 
   164     019B                     	;# 
   165     019B                     	;# 
   166     019B                     	;# 
   167     019B                     	;# 
   168     019C                     	;# 
   169     019C                     	;# 
   170     019C                     	;# 
   171     019D                     	;# 
   172     019D                     	;# 
   173     019D                     	;# 
   174     019E                     	;# 
   175     019E                     	;# 
   176     019E                     	;# 
   177     019F                     	;# 
   178     019F                     	;# 
   179     019F                     	;# 
   180     019F                     	;# 
   181     019F                     	;# 
   182     020C                     	;# 
   183     020D                     	;# 
   184     020E                     	;# 
   185     0210                     	;# 
   186     0211                     	;# 
   187     0211                     	;# 
   188     0212                     	;# 
   189     0212                     	;# 
   190     0213                     	;# 
   191     0213                     	;# 
   192     0214                     	;# 
   193     0214                     	;# 
   194     0215                     	;# 
   195     0215                     	;# 
   196     0215                     	;# 
   197     0215                     	;# 
   198     0216                     	;# 
   199     0216                     	;# 
   200     0217                     	;# 
   201     0217                     	;# 
   202     028C                     	;# 
   203     028D                     	;# 
   204     028E                     	;# 
   205     0291                     	;# 
   206     0291                     	;# 
   207     0292                     	;# 
   208     0293                     	;# 
   209     0293                     	;# 
   210     0298                     	;# 
   211     0298                     	;# 
   212     0299                     	;# 
   213     029A                     	;# 
   214     029A                     	;# 
   215     029E                     	;# 
   216     030C                     	;# 
   217     030D                     	;# 
   218     030E                     	;# 
   219     038C                     	;# 
   220     038D                     	;# 
   221     038E                     	;# 
   222     0390                     	;# 
   223     0391                     	;# 
   224     0392                     	;# 
   225     0393                     	;# 
   226     0394                     	;# 
   227     0395                     	;# 
   228     0396                     	;# 
   229     0397                     	;# 
   230     0398                     	;# 
   231     0399                     	;# 
   232     039D                     	;# 
   233     039E                     	;# 
   234     039F                     	;# 
   235     0415                     	;# 
   236     0416                     	;# 
   237     0417                     	;# 
   238     041C                     	;# 
   239     041D                     	;# 
   240     041E                     	;# 
   241     0498                     	;# 
   242     0498                     	;# 
   243     0499                     	;# 
   244     049A                     	;# 
   245     049B                     	;# 
   246     049B                     	;# 
   247     049C                     	;# 
   248     049D                     	;# 
   249     049E                     	;# 
   250     049F                     	;# 
   251     0511                     	;# 
   252     0515                     	;# 
   253     0617                     	;# 
   254     0618                     	;# 
   255     0619                     	;# 
   256     0619                     	;# 
   257     061A                     	;# 
   258     061B                     	;# 
   259     061C                     	;# 
   260     061C                     	;# 
   261     0691                     	;# 
   262     0692                     	;# 
   263     0693                     	;# 
   264     0694                     	;# 
   265     0695                     	;# 
   266     0696                     	;# 
   267     0697                     	;# 
   268     0698                     	;# 
   269     0699                     	;# 
   270     069A                     	;# 
   271     069B                     	;# 
   272     069C                     	;# 
   273     069D                     	;# 
   274     069E                     	;# 
   275     069F                     	;# 
   276     0E0F                     	;# 
   277     0E10                     	;# 
   278     0E11                     	;# 
   279     0E12                     	;# 
   280     0E13                     	;# 
   281     0E14                     	;# 
   282     0E15                     	;# 
   283     0E17                     	;# 
   284     0E20                     	;# 
   285     0E21                     	;# 
   286     0E22                     	;# 
   287     0E24                     	;# 
   288     0E25                     	;# 
   289     0E28                     	;# 
   290     0E29                     	;# 
   291     0E2A                     	;# 
   292     0E2B                     	;# 
   293     0E90                     	;# 
   294     0E91                     	;# 
   295     0E92                     	;# 
   296     0E93                     	;# 
   297     0E94                     	;# 
   298     0E95                     	;# 
   299     0E96                     	;# 
   300     0E97                     	;# 
   301     0E98                     	;# 
   302     0E99                     	;# 
   303     0E9A                     	;# 
   304     0E9B                     	;# 
   305     0E9C                     	;# 
   306     0E9D                     	;# 
   307     0E9E                     	;# 
   308     0E9F                     	;# 
   309     0EA0                     	;# 
   310     0EA1                     	;# 
   311     0EA2                     	;# 
   312     0EA3                     	;# 
   313     0EA4                     	;# 
   314     0EA5                     	;# 
   315     0EA6                     	;# 
   316     0EA7                     	;# 
   317     0F0F                     	;# 
   318     0F10                     	;# 
   319     0F11                     	;# 
   320     0F12                     	;# 
   321     0F13                     	;# 
   322     0F14                     	;# 
   323     0F15                     	;# 
   324     0F16                     	;# 
   325     0F17                     	;# 
   326     0F18                     	;# 
   327     0F19                     	;# 
   328     0F1A                     	;# 
   329     0F1B                     	;# 
   330     0F1C                     	;# 
   331     0F1D                     	;# 
   332     0F1E                     	;# 
   333     0F1F                     	;# 
   334     0F20                     	;# 
   335     0F21                     	;# 
   336     0F22                     	;# 
   337     0F23                     	;# 
   338     0F24                     	;# 
   339     0F25                     	;# 
   340     0F26                     	;# 
   341     0F27                     	;# 
   342     0F28                     	;# 
   343     0F29                     	;# 
   344     0F2A                     	;# 
   345     0F2B                     	;# 
   346     0F2C                     	;# 
   347     0F2D                     	;# 
   348     0F2E                     	;# 
   349     0F2F                     	;# 
   350     0F30                     	;# 
   351     0F31                     	;# 
   352     0F32                     	;# 
   353     0F33                     	;# 
   354     0F34                     	;# 
   355     0F35                     	;# 
   356     0F36                     	;# 
   357     0F37                     	;# 
   358     0FE4                     	;# 
   359     0FE5                     	;# 
   360     0FE6                     	;# 
   361     0FE7                     	;# 
   362     0FE8                     	;# 
   363     0FE9                     	;# 
   364     0FEA                     	;# 
   365     0FEB                     	;# 
   366     0FED                     	;# 
   367     0FEE                     	;# 
   368     0FEF                     	;# 
   369     0000                     	;# 
   370     0001                     	;# 
   371     0002                     	;# 
   372     0003                     	;# 
   373     0004                     	;# 
   374     0005                     	;# 
   375     0006                     	;# 
   376     0007                     	;# 
   377     0008                     	;# 
   378     0009                     	;# 
   379     000A                     	;# 
   380     000B                     	;# 
   381     000C                     	;# 
   382     000D                     	;# 
   383     000E                     	;# 
   384     0010                     	;# 
   385     0011                     	;# 
   386     0012                     	;# 
   387     0013                     	;# 
   388     0015                     	;# 
   389     0016                     	;# 
   390     0016                     	;# 
   391     0017                     	;# 
   392     0018                     	;# 
   393     0019                     	;# 
   394     001A                     	;# 
   395     001B                     	;# 
   396     001C                     	;# 
   397     008C                     	;# 
   398     008D                     	;# 
   399     008E                     	;# 
   400     0090                     	;# 
   401     0091                     	;# 
   402     0092                     	;# 
   403     0093                     	;# 
   404     0095                     	;# 
   405     0096                     	;# 
   406     0097                     	;# 
   407     0098                     	;# 
   408     0099                     	;# 
   409     009A                     	;# 
   410     009B                     	;# 
   411     009B                     	;# 
   412     009C                     	;# 
   413     009D                     	;# 
   414     009E                     	;# 
   415     009F                     	;# 
   416     010C                     	;# 
   417     010D                     	;# 
   418     010E                     	;# 
   419     0111                     	;# 
   420     0112                     	;# 
   421     0113                     	;# 
   422     0114                     	;# 
   423     0115                     	;# 
   424     0116                     	;# 
   425     0117                     	;# 
   426     0118                     	;# 
   427     0119                     	;# 
   428     011A                     	;# 
   429     011B                     	;# 
   430     011B                     	;# 
   431     011C                     	;# 
   432     018C                     	;# 
   433     018D                     	;# 
   434     018E                     	;# 
   435     0191                     	;# 
   436     0191                     	;# 
   437     0192                     	;# 
   438     0193                     	;# 
   439     0193                     	;# 
   440     0194                     	;# 
   441     0195                     	;# 
   442     0196                     	;# 
   443     0197                     	;# 
   444     0199                     	;# 
   445     0199                     	;# 
   446     0199                     	;# 
   447     019A                     	;# 
   448     019A                     	;# 
   449     019A                     	;# 
   450     019B                     	;# 
   451     019B                     	;# 
   452     019B                     	;# 
   453     019B                     	;# 
   454     019B                     	;# 
   455     019C                     	;# 
   456     019C                     	;# 
   457     019C                     	;# 
   458     019D                     	;# 
   459     019D                     	;# 
   460     019D                     	;# 
   461     019E                     	;# 
   462     019E                     	;# 
   463     019E                     	;# 
   464     019F                     	;# 
   465     019F                     	;# 
   466     019F                     	;# 
   467     019F                     	;# 
   468     019F                     	;# 
   469     020C                     	;# 
   470     020D                     	;# 
   471     020E                     	;# 
   472     0210                     	;# 
   473     0211                     	;# 
   474     0211                     	;# 
   475     0212                     	;# 
   476     0212                     	;# 
   477     0213                     	;# 
   478     0213                     	;# 
   479     0214                     	;# 
   480     0214                     	;# 
   481     0215                     	;# 
   482     0215                     	;# 
   483     0215                     	;# 
   484     0215                     	;# 
   485     0216                     	;# 
   486     0216                     	;# 
   487     0217                     	;# 
   488     0217                     	;# 
   489     028C                     	;# 
   490     028D                     	;# 
   491     028E                     	;# 
   492     0291                     	;# 
   493     0291                     	;# 
   494     0292                     	;# 
   495     0293                     	;# 
   496     0293                     	;# 
   497     0298                     	;# 
   498     0298                     	;# 
   499     0299                     	;# 
   500     029A                     	;# 
   501     029A                     	;# 
   502     029E                     	;# 
   503     030C                     	;# 
   504     030D                     	;# 
   505     030E                     	;# 
   506     038C                     	;# 
   507     038D                     	;# 
   508     038E                     	;# 
   509     0390                     	;# 
   510     0391                     	;# 
   511     0392                     	;# 
   512     0393                     	;# 
   513     0394                     	;# 
   514     0395                     	;# 
   515     0396                     	;# 
   516     0397                     	;# 
   517     0398                     	;# 
   518     0399                     	;# 
   519     039D                     	;# 
   520     039E                     	;# 
   521     039F                     	;# 
   522     0415                     	;# 
   523     0416                     	;# 
   524     0417                     	;# 
   525     041C                     	;# 
   526     041D                     	;# 
   527     041E                     	;# 
   528     0498                     	;# 
   529     0498                     	;# 
   530     0499                     	;# 
   531     049A                     	;# 
   532     049B                     	;# 
   533     049B                     	;# 
   534     049C                     	;# 
   535     049D                     	;# 
   536     049E                     	;# 
   537     049F                     	;# 
   538     0511                     	;# 
   539     0515                     	;# 
   540     0617                     	;# 
   541     0618                     	;# 
   542     0619                     	;# 
   543     0619                     	;# 
   544     061A                     	;# 
   545     061B                     	;# 
   546     061C                     	;# 
   547     061C                     	;# 
   548     0691                     	;# 
   549     0692                     	;# 
   550     0693                     	;# 
   551     0694                     	;# 
   552     0695                     	;# 
   553     0696                     	;# 
   554     0697                     	;# 
   555     0698                     	;# 
   556     0699                     	;# 
   557     069A                     	;# 
   558     069B                     	;# 
   559     069C                     	;# 
   560     069D                     	;# 
   561     069E                     	;# 
   562     069F                     	;# 
   563     0E0F                     	;# 
   564     0E10                     	;# 
   565     0E11                     	;# 
   566     0E12                     	;# 
   567     0E13                     	;# 
   568     0E14                     	;# 
   569     0E15                     	;# 
   570     0E17                     	;# 
   571     0E20                     	;# 
   572     0E21                     	;# 
   573     0E22                     	;# 
   574     0E24                     	;# 
   575     0E25                     	;# 
   576     0E28                     	;# 
   577     0E29                     	;# 
   578     0E2A                     	;# 
   579     0E2B                     	;# 
   580     0E90                     	;# 
   581     0E91                     	;# 
   582     0E92                     	;# 
   583     0E93                     	;# 
   584     0E94                     	;# 
   585     0E95                     	;# 
   586     0E96                     	;# 
   587     0E97                     	;# 
   588     0E98                     	;# 
   589     0E99                     	;# 
   590     0E9A                     	;# 
   591     0E9B                     	;# 
   592     0E9C                     	;# 
   593     0E9D                     	;# 
   594     0E9E                     	;# 
   595     0E9F                     	;# 
   596     0EA0                     	;# 
   597     0EA1                     	;# 
   598     0EA2                     	;# 
   599     0EA3                     	;# 
   600     0EA4                     	;# 
   601     0EA5                     	;# 
   602     0EA6                     	;# 
   603     0EA7                     	;# 
   604     0F0F                     	;# 
   605     0F10                     	;# 
   606     0F11                     	;# 
   607     0F12                     	;# 
   608     0F13                     	;# 
   609     0F14                     	;# 
   610     0F15                     	;# 
   611     0F16                     	;# 
   612     0F17                     	;# 
   613     0F18                     	;# 
   614     0F19                     	;# 
   615     0F1A                     	;# 
   616     0F1B                     	;# 
   617     0F1C                     	;# 
   618     0F1D                     	;# 
   619     0F1E                     	;# 
   620     0F1F                     	;# 
   621     0F20                     	;# 
   622     0F21                     	;# 
   623     0F22                     	;# 
   624     0F23                     	;# 
   625     0F24                     	;# 
   626     0F25                     	;# 
   627     0F26                     	;# 
   628     0F27                     	;# 
   629     0F28                     	;# 
   630     0F29                     	;# 
   631     0F2A                     	;# 
   632     0F2B                     	;# 
   633     0F2C                     	;# 
   634     0F2D                     	;# 
   635     0F2E                     	;# 
   636     0F2F                     	;# 
   637     0F30                     	;# 
   638     0F31                     	;# 
   639     0F32                     	;# 
   640     0F33                     	;# 
   641     0F34                     	;# 
   642     0F35                     	;# 
   643     0F36                     	;# 
   644     0F37                     	;# 
   645     0FE4                     	;# 
   646     0FE5                     	;# 
   647     0FE6                     	;# 
   648     0FE7                     	;# 
   649     0FE8                     	;# 
   650     0FE9                     	;# 
   651     0FEA                     	;# 
   652     0FEB                     	;# 
   653     0FED                     	;# 
   654     0FEE                     	;# 
   655     0FEF                     	;# 
   656     0000                     	;# 
   657     0001                     	;# 
   658     0002                     	;# 
   659     0003                     	;# 
   660     0004                     	;# 
   661     0005                     	;# 
   662     0006                     	;# 
   663     0007                     	;# 
   664     0008                     	;# 
   665     0009                     	;# 
   666     000A                     	;# 
   667     000B                     	;# 
   668     000C                     	;# 
   669     000D                     	;# 
   670     000E                     	;# 
   671     0010                     	;# 
   672     0011                     	;# 
   673     0012                     	;# 
   674     0013                     	;# 
   675     0015                     	;# 
   676     0016                     	;# 
   677     0016                     	;# 
   678     0017                     	;# 
   679     0018                     	;# 
   680     0019                     	;# 
   681     001A                     	;# 
   682     001B                     	;# 
   683     001C                     	;# 
   684     008C                     	;# 
   685     008D                     	;# 
   686     008E                     	;# 
   687     0090                     	;# 
   688     0091                     	;# 
   689     0092                     	;# 
   690     0093                     	;# 
   691     0095                     	;# 
   692     0096                     	;# 
   693     0097                     	;# 
   694     0098                     	;# 
   695     0099                     	;# 
   696     009A                     	;# 
   697     009B                     	;# 
   698     009B                     	;# 
   699     009C                     	;# 
   700     009D                     	;# 
   701     009E                     	;# 
   702     009F                     	;# 
   703     010C                     	;# 
   704     010D                     	;# 
   705     010E                     	;# 
   706     0111                     	;# 
   707     0112                     	;# 
   708     0113                     	;# 
   709     0114                     	;# 
   710     0115                     	;# 
   711     0116                     	;# 
   712     0117                     	;# 
   713     0118                     	;# 
   714     0119                     	;# 
   715     011A                     	;# 
   716     011B                     	;# 
   717     011B                     	;# 
   718     011C                     	;# 
   719     018C                     	;# 
   720     018D                     	;# 
   721     018E                     	;# 
   722     0191                     	;# 
   723     0191                     	;# 
   724     0192                     	;# 
   725     0193                     	;# 
   726     0193                     	;# 
   727     0194                     	;# 
   728     0195                     	;# 
   729     0196                     	;# 
   730     0197                     	;# 
   731     0199                     	;# 
   732     0199                     	;# 
   733     0199                     	;# 
   734     019A                     	;# 
   735     019A                     	;# 
   736     019A                     	;# 
   737     019B                     	;# 
   738     019B                     	;# 
   739     019B                     	;# 
   740     019B                     	;# 
   741     019B                     	;# 
   742     019C                     	;# 
   743     019C                     	;# 
   744     019C                     	;# 
   745     019D                     	;# 
   746     019D                     	;# 
   747     019D                     	;# 
   748     019E                     	;# 
   749     019E                     	;# 
   750     019E                     	;# 
   751     019F                     	;# 
   752     019F                     	;# 
   753     019F                     	;# 
   754     019F                     	;# 
   755     019F                     	;# 
   756     020C                     	;# 
   757     020D                     	;# 
   758     020E                     	;# 
   759     0210                     	;# 
   760     0211                     	;# 
   761     0211                     	;# 
   762     0212                     	;# 
   763     0212                     	;# 
   764     0213                     	;# 
   765     0213                     	;# 
   766     0214                     	;# 
   767     0214                     	;# 
   768     0215                     	;# 
   769     0215                     	;# 
   770     0215                     	;# 
   771     0215                     	;# 
   772     0216                     	;# 
   773     0216                     	;# 
   774     0217                     	;# 
   775     0217                     	;# 
   776     028C                     	;# 
   777     028D                     	;# 
   778     028E                     	;# 
   779     0291                     	;# 
   780     0291                     	;# 
   781     0292                     	;# 
   782     0293                     	;# 
   783     0293                     	;# 
   784     0298                     	;# 
   785     0298                     	;# 
   786     0299                     	;# 
   787     029A                     	;# 
   788     029A                     	;# 
   789     029E                     	;# 
   790     030C                     	;# 
   791     030D                     	;# 
   792     030E                     	;# 
   793     038C                     	;# 
   794     038D                     	;# 
   795     038E                     	;# 
   796     0390                     	;# 
   797     0391                     	;# 
   798     0392                     	;# 
   799     0393                     	;# 
   800     0394                     	;# 
   801     0395                     	;# 
   802     0396                     	;# 
   803     0397                     	;# 
   804     0398                     	;# 
   805     0399                     	;# 
   806     039D                     	;# 
   807     039E                     	;# 
   808     039F                     	;# 
   809     0415                     	;# 
   810     0416                     	;# 
   811     0417                     	;# 
   812     041C                     	;# 
   813     041D                     	;# 
   814     041E                     	;# 
   815     0498                     	;# 
   816     0498                     	;# 
   817     0499                     	;# 
   818     049A                     	;# 
   819     049B                     	;# 
   820     049B                     	;# 
   821     049C                     	;# 
   822     049D                     	;# 
   823     049E                     	;# 
   824     049F                     	;# 
   825     0511                     	;# 
   826     0515                     	;# 
   827     0617                     	;# 
   828     0618                     	;# 
   829     0619                     	;# 
   830     0619                     	;# 
   831     061A                     	;# 
   832     061B                     	;# 
   833     061C                     	;# 
   834     061C                     	;# 
   835     0691                     	;# 
   836     0692                     	;# 
   837     0693                     	;# 
   838     0694                     	;# 
   839     0695                     	;# 
   840     0696                     	;# 
   841     0697                     	;# 
   842     0698                     	;# 
   843     0699                     	;# 
   844     069A                     	;# 
   845     069B                     	;# 
   846     069C                     	;# 
   847     069D                     	;# 
   848     069E                     	;# 
   849     069F                     	;# 
   850     0E0F                     	;# 
   851     0E10                     	;# 
   852     0E11                     	;# 
   853     0E12                     	;# 
   854     0E13                     	;# 
   855     0E14                     	;# 
   856     0E15                     	;# 
   857     0E17                     	;# 
   858     0E20                     	;# 
   859     0E21                     	;# 
   860     0E22                     	;# 
   861     0E24                     	;# 
   862     0E25                     	;# 
   863     0E28                     	;# 
   864     0E29                     	;# 
   865     0E2A                     	;# 
   866     0E2B                     	;# 
   867     0E90                     	;# 
   868     0E91                     	;# 
   869     0E92                     	;# 
   870     0E93                     	;# 
   871     0E94                     	;# 
   872     0E95                     	;# 
   873     0E96                     	;# 
   874     0E97                     	;# 
   875     0E98                     	;# 
   876     0E99                     	;# 
   877     0E9A                     	;# 
   878     0E9B                     	;# 
   879     0E9C                     	;# 
   880     0E9D                     	;# 
   881     0E9E                     	;# 
   882     0E9F                     	;# 
   883     0EA0                     	;# 
   884     0EA1                     	;# 
   885     0EA2                     	;# 
   886     0EA3                     	;# 
   887     0EA4                     	;# 
   888     0EA5                     	;# 
   889     0EA6                     	;# 
   890     0EA7                     	;# 
   891     0F0F                     	;# 
   892     0F10                     	;# 
   893     0F11                     	;# 
   894     0F12                     	;# 
   895     0F13                     	;# 
   896     0F14                     	;# 
   897     0F15                     	;# 
   898     0F16                     	;# 
   899     0F17                     	;# 
   900     0F18                     	;# 
   901     0F19                     	;# 
   902     0F1A                     	;# 
   903     0F1B                     	;# 
   904     0F1C                     	;# 
   905     0F1D                     	;# 
   906     0F1E                     	;# 
   907     0F1F                     	;# 
   908     0F20                     	;# 
   909     0F21                     	;# 
   910     0F22                     	;# 
   911     0F23                     	;# 
   912     0F24                     	;# 
   913     0F25                     	;# 
   914     0F26                     	;# 
   915     0F27                     	;# 
   916     0F28                     	;# 
   917     0F29                     	;# 
   918     0F2A                     	;# 
   919     0F2B                     	;# 
   920     0F2C                     	;# 
   921     0F2D                     	;# 
   922     0F2E                     	;# 
   923     0F2F                     	;# 
   924     0F30                     	;# 
   925     0F31                     	;# 
   926     0F32                     	;# 
   927     0F33                     	;# 
   928     0F34                     	;# 
   929     0F35                     	;# 
   930     0F36                     	;# 
   931     0F37                     	;# 
   932     0FE4                     	;# 
   933     0FE5                     	;# 
   934     0FE6                     	;# 
   935     0FE7                     	;# 
   936     0FE8                     	;# 
   937     0FE9                     	;# 
   938     0FEA                     	;# 
   939     0FEB                     	;# 
   940     0FED                     	;# 
   941     0FEE                     	;# 
   942     0FEF                     	;# 
   943     0000                     	;# 
   944     0001                     	;# 
   945     0002                     	;# 
   946     0003                     	;# 
   947     0004                     	;# 
   948     0005                     	;# 
   949     0006                     	;# 
   950     0007                     	;# 
   951     0008                     	;# 
   952     0009                     	;# 
   953     000A                     	;# 
   954     000B                     	;# 
   955     000C                     	;# 
   956     000D                     	;# 
   957     000E                     	;# 
   958     0010                     	;# 
   959     0011                     	;# 
   960     0012                     	;# 
   961     0013                     	;# 
   962     0015                     	;# 
   963     0016                     	;# 
   964     0016                     	;# 
   965     0017                     	;# 
   966     0018                     	;# 
   967     0019                     	;# 
   968     001A                     	;# 
   969     001B                     	;# 
   970     001C                     	;# 
   971     008C                     	;# 
   972     008D                     	;# 
   973     008E                     	;# 
   974     0090                     	;# 
   975     0091                     	;# 
   976     0092                     	;# 
   977     0093                     	;# 
   978     0095                     	;# 
   979     0096                     	;# 
   980     0097                     	;# 
   981     0098                     	;# 
   982     0099                     	;# 
   983     009A                     	;# 
   984     009B                     	;# 
   985     009B                     	;# 
   986     009C                     	;# 
   987     009D                     	;# 
   988     009E                     	;# 
   989     009F                     	;# 
   990     010C                     	;# 
   991     010D                     	;# 
   992     010E                     	;# 
   993     0111                     	;# 
   994     0112                     	;# 
   995     0113                     	;# 
   996     0114                     	;# 
   997     0115                     	;# 
   998     0116                     	;# 
   999     0117                     	;# 
  1000     0118                     	;# 
  1001     0119                     	;# 
  1002     011A                     	;# 
  1003     011B                     	;# 
  1004     011B                     	;# 
  1005     011C                     	;# 
  1006     018C                     	;# 
  1007     018D                     	;# 
  1008     018E                     	;# 
  1009     0191                     	;# 
  1010     0191                     	;# 
  1011     0192                     	;# 
  1012     0193                     	;# 
  1013     0193                     	;# 
  1014     0194                     	;# 
  1015     0195                     	;# 
  1016     0196                     	;# 
  1017     0197                     	;# 
  1018     0199                     	;# 
  1019     0199                     	;# 
  1020     0199                     	;# 
  1021     019A                     	;# 
  1022     019A                     	;# 
  1023     019A                     	;# 
  1024     019B                     	;# 
  1025     019B                     	;# 
  1026     019B                     	;# 
  1027     019B                     	;# 
  1028     019B                     	;# 
  1029     019C                     	;# 
  1030     019C                     	;# 
  1031     019C                     	;# 
  1032     019D                     	;# 
  1033     019D                     	;# 
  1034     019D                     	;# 
  1035     019E                     	;# 
  1036     019E                     	;# 
  1037     019E                     	;# 
  1038     019F                     	;# 
  1039     019F                     	;# 
  1040     019F                     	;# 
  1041     019F                     	;# 
  1042     019F                     	;# 
  1043     020C                     	;# 
  1044     020D                     	;# 
  1045     020E                     	;# 
  1046     0210                     	;# 
  1047     0211                     	;# 
  1048     0211                     	;# 
  1049     0212                     	;# 
  1050     0212                     	;# 
  1051     0213                     	;# 
  1052     0213                     	;# 
  1053     0214                     	;# 
  1054     0214                     	;# 
  1055     0215                     	;# 
  1056     0215                     	;# 
  1057     0215                     	;# 
  1058     0215                     	;# 
  1059     0216                     	;# 
  1060     0216                     	;# 
  1061     0217                     	;# 
  1062     0217                     	;# 
  1063     028C                     	;# 
  1064     028D                     	;# 
  1065     028E                     	;# 
  1066     0291                     	;# 
  1067     0291                     	;# 
  1068     0292                     	;# 
  1069     0293                     	;# 
  1070     0293                     	;# 
  1071     0298                     	;# 
  1072     0298                     	;# 
  1073     0299                     	;# 
  1074     029A                     	;# 
  1075     029A                     	;# 
  1076     029E                     	;# 
  1077     030C                     	;# 
  1078     030D                     	;# 
  1079     030E                     	;# 
  1080     038C                     	;# 
  1081     038D                     	;# 
  1082     038E                     	;# 
  1083     0390                     	;# 
  1084     0391                     	;# 
  1085     0392                     	;# 
  1086     0393                     	;# 
  1087     0394                     	;# 
  1088     0395                     	;# 
  1089     0396                     	;# 
  1090     0397                     	;# 
  1091     0398                     	;# 
  1092     0399                     	;# 
  1093     039D                     	;# 
  1094     039E                     	;# 
  1095     039F                     	;# 
  1096     0415                     	;# 
  1097     0416                     	;# 
  1098     0417                     	;# 
  1099     041C                     	;# 
  1100     041D                     	;# 
  1101     041E                     	;# 
  1102     0498                     	;# 
  1103     0498                     	;# 
  1104     0499                     	;# 
  1105     049A                     	;# 
  1106     049B                     	;# 
  1107     049B                     	;# 
  1108     049C                     	;# 
  1109     049D                     	;# 
  1110     049E                     	;# 
  1111     049F                     	;# 
  1112     0511                     	;# 
  1113     0515                     	;# 
  1114     0617                     	;# 
  1115     0618                     	;# 
  1116     0619                     	;# 
  1117     0619                     	;# 
  1118     061A                     	;# 
  1119     061B                     	;# 
  1120     061C                     	;# 
  1121     061C                     	;# 
  1122     0691                     	;# 
  1123     0692                     	;# 
  1124     0693                     	;# 
  1125     0694                     	;# 
  1126     0695                     	;# 
  1127     0696                     	;# 
  1128     0697                     	;# 
  1129     0698                     	;# 
  1130     0699                     	;# 
  1131     069A                     	;# 
  1132     069B                     	;# 
  1133     069C                     	;# 
  1134     069D                     	;# 
  1135     069E                     	;# 
  1136     069F                     	;# 
  1137     0E0F                     	;# 
  1138     0E10                     	;# 
  1139     0E11                     	;# 
  1140     0E12                     	;# 
  1141     0E13                     	;# 
  1142     0E14                     	;# 
  1143     0E15                     	;# 
  1144     0E17                     	;# 
  1145     0E20                     	;# 
  1146     0E21                     	;# 
  1147     0E22                     	;# 
  1148     0E24                     	;# 
  1149     0E25                     	;# 
  1150     0E28                     	;# 
  1151     0E29                     	;# 
  1152     0E2A                     	;# 
  1153     0E2B                     	;# 
  1154     0E90                     	;# 
  1155     0E91                     	;# 
  1156     0E92                     	;# 
  1157     0E93                     	;# 
  1158     0E94                     	;# 
  1159     0E95                     	;# 
  1160     0E96                     	;# 
  1161     0E97                     	;# 
  1162     0E98                     	;# 
  1163     0E99                     	;# 
  1164     0E9A                     	;# 
  1165     0E9B                     	;# 
  1166     0E9C                     	;# 
  1167     0E9D                     	;# 
  1168     0E9E                     	;# 
  1169     0E9F                     	;# 
  1170     0EA0                     	;# 
  1171     0EA1                     	;# 
  1172     0EA2                     	;# 
  1173     0EA3                     	;# 
  1174     0EA4                     	;# 
  1175     0EA5                     	;# 
  1176     0EA6                     	;# 
  1177     0EA7                     	;# 
  1178     0F0F                     	;# 
  1179     0F10                     	;# 
  1180     0F11                     	;# 
  1181     0F12                     	;# 
  1182     0F13                     	;# 
  1183     0F14                     	;# 
  1184     0F15                     	;# 
  1185     0F16                     	;# 
  1186     0F17                     	;# 
  1187     0F18                     	;# 
  1188     0F19                     	;# 
  1189     0F1A                     	;# 
  1190     0F1B                     	;# 
  1191     0F1C                     	;# 
  1192     0F1D                     	;# 
  1193     0F1E                     	;# 
  1194     0F1F                     	;# 
  1195     0F20                     	;# 
  1196     0F21                     	;# 
  1197     0F22                     	;# 
  1198     0F23                     	;# 
  1199     0F24                     	;# 
  1200     0F25                     	;# 
  1201     0F26                     	;# 
  1202     0F27                     	;# 
  1203     0F28                     	;# 
  1204     0F29                     	;# 
  1205     0F2A                     	;# 
  1206     0F2B                     	;# 
  1207     0F2C                     	;# 
  1208     0F2D                     	;# 
  1209     0F2E                     	;# 
  1210     0F2F                     	;# 
  1211     0F30                     	;# 
  1212     0F31                     	;# 
  1213     0F32                     	;# 
  1214     0F33                     	;# 
  1215     0F34                     	;# 
  1216     0F35                     	;# 
  1217     0F36                     	;# 
  1218     0F37                     	;# 
  1219     0FE4                     	;# 
  1220     0FE5                     	;# 
  1221     0FE6                     	;# 
  1222     0FE7                     	;# 
  1223     0FE8                     	;# 
  1224     0FE9                     	;# 
  1225     0FEA                     	;# 
  1226     0FEB                     	;# 
  1227     0FED                     	;# 
  1228     0FEE                     	;# 
  1229     0FEF                     	;# 
  1230                           
  1231                           	psect	idataBANK0
  1232     0385                     __pidataBANK0:
  1233                           
  1234                           ;initializer for test_horizontal_bars@F6088
  1235     0385  34FF               	retlw	255
  1236     0386  3400               	retlw	0
  1237     0387  34FF               	retlw	255
  1238     0388  3400               	retlw	0
  1239     0389  34FF               	retlw	255
  1240     038A  3400               	retlw	0
  1241     038B  34FF               	retlw	255
  1242     038C  3400               	retlw	0
  1243                           
  1244                           	psect	stringtext1
  1245     0800                     __pstringtext1:
  1246     0800                     _OLED_INIT_CMD:
  1247     0800  34AE               	retlw	174
  1248     0801  3420               	retlw	32
  1249     0802  3400               	retlw	0
  1250     0803  3421               	retlw	33
  1251     0804  3400               	retlw	0
  1252     0805  347F               	retlw	127
  1253     0806  3422               	retlw	34
  1254     0807  3400               	retlw	0
  1255     0808  3407               	retlw	7
  1256     0809  3440               	retlw	64
  1257     080A  3481               	retlw	129
  1258     080B  348F               	retlw	143
  1259     080C  34A1               	retlw	161
  1260     080D  34A6               	retlw	166
  1261     080E  34A8               	retlw	168
  1262     080F  343F               	retlw	63
  1263     0810  34C8               	retlw	200
  1264     0811  34D3               	retlw	211
  1265     0812  3400               	retlw	0
  1266     0813  34DA               	retlw	218
  1267     0814  3412               	retlw	18
  1268     0815  348D               	retlw	141
  1269     0816  3414               	retlw	20
  1270     0817  34AF               	retlw	175
  1271     0818                     __end_of_OLED_INIT_CMD:
  1272                           
  1273                           	psect	stringtext2
  1274     0818                     __pstringtext2:
  1275     0818                     _smiley:
  1276     0818  343C               	retlw	60
  1277     0819  3442               	retlw	66
  1278     081A  34A5               	retlw	165
  1279     081B  3481               	retlw	129
  1280     081C  34A5               	retlw	165
  1281     081D  3499               	retlw	153
  1282     081E  3442               	retlw	66
  1283     081F  343C               	retlw	60
  1284     0820                     __end_of_smiley:
  1285                           
  1286                           	psect	stringtext3
  1287     0820                     __pstringtext3:
  1288     0820                     _letterO:
  1289     0820  343E               	retlw	62
  1290     0821  3441               	retlw	65
  1291     0822  3441               	retlw	65
  1292     0823  3441               	retlw	65
  1293     0824  343E               	retlw	62
  1294     0825  3400               	retlw	0
  1295     0826                     __end_of_letterO:
  1296                           
  1297                           	psect	stringtext4
  1298     0826                     __pstringtext4:
  1299     0826                     _letterL:
  1300     0826  347F               	retlw	127
  1301     0827  3440               	retlw	64
  1302     0828  3440               	retlw	64
  1303     0829  3440               	retlw	64
  1304     082A  3440               	retlw	64
  1305     082B  3400               	retlw	0
  1306     082C                     __end_of_letterL:
  1307                           
  1308                           	psect	stringtext5
  1309     082C                     __pstringtext5:
  1310     082C                     _letterE:
  1311     082C  347F               	retlw	127
  1312     082D  3449               	retlw	73
  1313     082E  3449               	retlw	73
  1314     082F  3449               	retlw	73
  1315     0830  3441               	retlw	65
  1316     0831  3400               	retlw	0
  1317     0832                     __end_of_letterE:
  1318                           
  1319                           	psect	stringtext6
  1320     0832                     __pstringtext6:
  1321     0832                     _letterH:
  1322     0832  347F               	retlw	127
  1323     0833  3408               	retlw	8
  1324     0834  3408               	retlw	8
  1325     0835  3408               	retlw	8
  1326     0836  347F               	retlw	127
  1327     0837  3400               	retlw	0
  1328     0838                     __end_of_letterH:
  1329                           
  1330                           	psect	stringtext7
  1331     0838                     __pstringtext7:
  1332     0838                     _testPattern5:
  1333     0838  34F0               	retlw	240
  1334     0839                     __end_of_testPattern5:
  1335                           
  1336                           	psect	stringtext8
  1337     0839                     __pstringtext8:
  1338     0839                     _testPattern4:
  1339     0839  340F               	retlw	15
  1340     083A                     __end_of_testPattern4:
  1341                           
  1342                           	psect	stringtext9
  1343     083A                     __pstringtext9:
  1344     083A                     _testPattern3:
  1345     083A  34FF               	retlw	255
  1346     083B                     __end_of_testPattern3:
  1347                           
  1348                           	psect	stringtext10
  1349     083B                     __pstringtext10:
  1350     083B                     _testPattern2:
  1351     083B  3455               	retlw	85
  1352     083C                     __end_of_testPattern2:
  1353                           
  1354                           	psect	stringtext11
  1355     083C                     __pstringtext11:
  1356     083C                     _testPattern1:
  1357     083C  34AA               	retlw	170
  1358     083D                     __end_of_testPattern1:
  1359     0012                     _PIR2bits	set	18
  1360     0011                     _PIR1bits	set	17
  1361     008E                     _TRISCbits	set	142
  1362     04CF                     _SPLLEN	set	1231
  1363     04CE                     _IRCF3	set	1230
  1364     04CD                     _IRCF2	set	1229
  1365     04CC                     _IRCF1	set	1228
  1366     04CB                     _IRCF0	set	1227
  1367     04C9                     _SCS1	set	1225
  1368     04C8                     _SCS0	set	1224
  1369     018E                     _ANSELCbits	set	398
  1370     0211                     _SSPBUF	set	529
  1371     0216                     _SSPCON2bits	set	534
  1372     0214                     _SSPSTATbits	set	532
  1373     0216                     _SSPCON2	set	534
  1374     0215                     _SSPCON1bits	set	533
  1375     0212                     _SSPADD	set	530
  1376     0215                     _SSPCONbits	set	533
  1377     0E20                     _SSPCLKPPSbits	set	3616
  1378     0E21                     _SSPDATPPSbits	set	3617
  1379     0E0F                     _PPSLOCKbits	set	3599
  1380     0E0F                     _PPSLOCK	set	3599
  1381     0EA5                     _RC5PPSbits	set	3749
  1382     0EA4                     _RC4PPSbits	set	3748
  1383                           
  1384                           	psect	cinit
  1385     07F1                     start_initialization:	
  1386                           ; #config settings
  1387                           
  1388     07F1                     __initialization:
  1389                           
  1390                           ; Initialize objects allocated to BANK0
  1391     07F1  3085               	movlw	low __pidataBANK0
  1392     07F2  0084               	movwf	4
  1393     07F3  3083               	movlw	(high __pidataBANK0)| (0+128)
  1394     07F4  0085               	movwf	5
  1395     07F5  302C               	movlw	low __pdataBANK0
  1396     07F6  0086               	movwf	6
  1397     07F7  3000               	movlw	high __pdataBANK0
  1398     07F8  0087               	movwf	7
  1399     07F9  3008               	movlw	8
  1400     07FA  3183  2378  3187   	fcall	init_ram
  1401     07FD                     end_of_initialization:	
  1402                           ;End of C runtime variable initialization code
  1403                           
  1404     07FD                     __end_of__initialization:
  1405     07FD  0020               	movlb	0
  1406     07FE  3187  2F2C         	ljmp	_main	;jump to C main() function
  1407                           
  1408                           	psect	dataBANK0
  1409     002C                     __pdataBANK0:
  1410     002C                     test_horizontal_bars@F6088:
  1411     002C                     	ds	8
  1412                           
  1413                           	psect	inittext
  1414     0378                     init_ram:
  1415     0378  00FE               	movwf	btemp
  1416     0379                     initloop:
  1417     0379  0012               	moviw fsr0++
  1418     037A  001E               	movwi fsr1++
  1419     037B  0BFE               	decfsz	btemp,f
  1420     037C  2B79               	goto	initloop
  1421     037D  3400               	retlw	0
  1422                           
  1423                           	psect	cstackCOMMON
  1424     0070                     __pcstackCOMMON:
  1425     0070                     ?_I2C_ClearErrors:
  1426     0070                     ??_I2C_ClearErrors:	
  1427                           ; 1 bytes @ 0x0
  1428                           
  1429     0070                     ?_OLED_fill:	
  1430                           ; 1 bytes @ 0x0
  1431                           
  1432     0070                     ?_OLED_data_start:	
  1433                           ; 1 bytes @ 0x0
  1434                           
  1435     0070                     ?_OLED_send:	
  1436                           ; 1 bytes @ 0x0
  1437                           
  1438     0070                     ?_OLED_end:	
  1439                           ; 1 bytes @ 0x0
  1440                           
  1441     0070                     ?_OLED_init:	
  1442                           ; 1 bytes @ 0x0
  1443                           
  1444     0070                     ?_internal_32:	
  1445                           ; 1 bytes @ 0x0
  1446                           
  1447     0070                     ??_internal_32:	
  1448                           ; 1 bytes @ 0x0
  1449                           
  1450     0070                     ?_I2C_WaitIF:	
  1451                           ; 1 bytes @ 0x0
  1452                           
  1453     0070                     ?_I2C_Init:	
  1454                           ; 1 bytes @ 0x0
  1455                           
  1456     0070                     ??_I2C_Init:	
  1457                           ; 1 bytes @ 0x0
  1458                           
  1459     0070                     ?_I2C_WaitIdle:	
  1460                           ; 1 bytes @ 0x0
  1461                           
  1462     0070                     ?_I2C_Start:	
  1463                           ; 1 bytes @ 0x0
  1464                           
  1465     0070                     ?_I2C_Stop:	
  1466                           ; 1 bytes @ 0x0
  1467                           
  1468     0070                     ?_I2C_WriteByte:	
  1469                           ; 1 bytes @ 0x0
  1470                           
  1471     0070                     ?_initMain:	
  1472                           ; 1 bytes @ 0x0
  1473                           
  1474     0070                     ??_initMain:	
  1475                           ; 1 bytes @ 0x0
  1476                           
  1477     0070                     ?_test_fill_pattern:	
  1478                           ; 1 bytes @ 0x0
  1479                           
  1480     0070                     ?_test_horizontal_bars:	
  1481                           ; 1 bytes @ 0x0
  1482                           
  1483     0070                     ?_test_vertical_bars:	
  1484                           ; 1 bytes @ 0x0
  1485                           
  1486     0070                     ?_test_checkerboard:	
  1487                           ; 1 bytes @ 0x0
  1488                           
  1489     0070                     ?_test_border:	
  1490                           ; 1 bytes @ 0x0
  1491                           
  1492     0070                     ?_test_smiley:	
  1493                           ; 1 bytes @ 0x0
  1494                           
  1495     0070                     ?_test_hello:	
  1496                           ; 1 bytes @ 0x0
  1497                           
  1498     0070                     ?_test_scroll:	
  1499                           ; 1 bytes @ 0x0
  1500                           
  1501     0070                     ?_main:	
  1502                           ; 1 bytes @ 0x0
  1503                           
  1504     0070                     I2C_WaitIF@timeout_ms:	
  1505                           ; 1 bytes @ 0x0
  1506                           
  1507     0070                     I2C_WaitIdle@timeout_ms:	
  1508                           ; 2 bytes @ 0x0
  1509                           
  1510                           
  1511                           ; 2 bytes @ 0x0
  1512     0070                     	ds	2
  1513     0072                     ??_I2C_WaitIF:
  1514     0072                     ??_I2C_WaitIdle:	
  1515                           ; 1 bytes @ 0x2
  1516                           
  1517                           
  1518                           ; 1 bytes @ 0x2
  1519     0072                     	ds	1
  1520     0073                     ??_I2C_Start:
  1521     0073                     ??_I2C_Stop:	
  1522                           ; 1 bytes @ 0x3
  1523                           
  1524     0073                     ??_I2C_WriteByte:	
  1525                           ; 1 bytes @ 0x3
  1526                           
  1527     0073                     I2C_Start@st:	
  1528                           ; 1 bytes @ 0x3
  1529                           
  1530     0073                     I2C_Stop@st:	
  1531                           ; 1 bytes @ 0x3
  1532                           
  1533     0073                     I2C_WriteByte@data:	
  1534                           ; 1 bytes @ 0x3
  1535                           
  1536                           
  1537                           ; 1 bytes @ 0x3
  1538     0073                     	ds	1
  1539     0074                     ??_OLED_end:
  1540     0074                     I2C_WriteByte@st:	
  1541                           ; 1 bytes @ 0x4
  1542                           
  1543                           
  1544                           ; 1 bytes @ 0x4
  1545     0074                     	ds	1
  1546     0075                     ??_OLED_send:
  1547     0075                     ??_OLED_init:	
  1548                           ; 1 bytes @ 0x5
  1549                           
  1550     0075                     ?_OLED_setpos:	
  1551                           ; 1 bytes @ 0x5
  1552                           
  1553     0075                     OLED_setpos@y:	
  1554                           ; 1 bytes @ 0x5
  1555                           
  1556     0075                     OLED_send@data:	
  1557                           ; 1 bytes @ 0x5
  1558                           
  1559                           
  1560                           ; 1 bytes @ 0x5
  1561     0075                     	ds	1
  1562     0076                     ??_OLED_setpos:
  1563     0076                     OLED_init@i:	
  1564                           ; 1 bytes @ 0x6
  1565                           
  1566                           
  1567                           ; 1 bytes @ 0x6
  1568     0076                     	ds	1
  1569     0077                     OLED_setpos@x:
  1570                           
  1571                           ; 1 bytes @ 0x7
  1572     0077                     	ds	1
  1573     0078                     ??_OLED_fill:
  1574     0078                     ??_OLED_data_start:	
  1575                           ; 1 bytes @ 0x8
  1576                           
  1577     0078                     OLED_fill@pattern:	
  1578                           ; 1 bytes @ 0x8
  1579                           
  1580     0078                     OLED_data_start@page:	
  1581                           ; 1 bytes @ 0x8
  1582                           
  1583                           
  1584                           ; 1 bytes @ 0x8
  1585     0078                     	ds	1
  1586     0079                     ??_test_horizontal_bars:
  1587     0079                     ??_test_vertical_bars:	
  1588                           ; 1 bytes @ 0x9
  1589                           
  1590     0079                     ??_test_checkerboard:	
  1591                           ; 1 bytes @ 0x9
  1592                           
  1593     0079                     ??_test_scroll:	
  1594                           ; 1 bytes @ 0x9
  1595                           
  1596     0079                     OLED_fill@i:	
  1597                           ; 1 bytes @ 0x9
  1598                           
  1599                           
  1600                           ; 2 bytes @ 0x9
  1601     0079                     	ds	1
  1602     007A                     test_vertical_bars@page:
  1603                           
  1604                           ; 1 bytes @ 0xA
  1605     007A                     	ds	1
  1606     007B                     ??_test_fill_pattern:
  1607     007B                     ??_test_border:	
  1608                           ; 1 bytes @ 0xB
  1609                           
  1610     007B                     ??_test_smiley:	
  1611                           ; 1 bytes @ 0xB
  1612                           
  1613     007B                     ??_test_hello:	
  1614                           ; 1 bytes @ 0xB
  1615                           
  1616     007B                     test_fill_pattern@pattern:	
  1617                           ; 1 bytes @ 0xB
  1618                           
  1619     007B                     test_vertical_bars@col:	
  1620                           ; 1 bytes @ 0xB
  1621                           
  1622     007B                     test_checkerboard@col:	
  1623                           ; 1 bytes @ 0xB
  1624                           
  1625                           
  1626                           ; 1 bytes @ 0xB
  1627     007B                     	ds	1
  1628     007C                     test_checkerboard@page:
  1629     007C                     test_border@col:	
  1630                           ; 1 bytes @ 0xC
  1631                           
  1632     007C                     test_hello@col:	
  1633                           ; 1 bytes @ 0xC
  1634                           
  1635                           
  1636                           ; 1 bytes @ 0xC
  1637     007C                     	ds	1
  1638     007D                     test_border@page:
  1639     007D                     test_hello@i:	
  1640                           ; 1 bytes @ 0xD
  1641                           
  1642                           
  1643                           ; 1 bytes @ 0xD
  1644     007D                     	ds	1
  1645                           
  1646                           	psect	cstackBANK0
  1647     0020                     __pcstackBANK0:
  1648     0020                     test_smiley@i:
  1649     0020                     test_scroll@page:	
  1650                           ; 1 bytes @ 0x0
  1651                           
  1652     0020                     test_horizontal_bars@patterns:	
  1653                           ; 1 bytes @ 0x0
  1654                           
  1655                           
  1656                           ; 8 bytes @ 0x0
  1657     0020                     	ds	1
  1658     0021                     test_smiley@page:
  1659     0021                     test_scroll@col:	
  1660                           ; 1 bytes @ 0x1
  1661                           
  1662                           
  1663                           ; 1 bytes @ 0x1
  1664     0021                     	ds	1
  1665     0022                     test_smiley@col:
  1666     0022                     test_scroll@offset:	
  1667                           ; 1 bytes @ 0x2
  1668                           
  1669                           
  1670                           ; 1 bytes @ 0x2
  1671     0022                     	ds	6
  1672     0028                     test_horizontal_bars@col:
  1673                           
  1674                           ; 1 bytes @ 0x8
  1675     0028                     	ds	1
  1676     0029                     test_horizontal_bars@page:
  1677                           
  1678                           ; 1 bytes @ 0x9
  1679     0029                     	ds	1
  1680     002A                     ??_main:
  1681                           
  1682                           ; 1 bytes @ 0xA
  1683     002A                     	ds	2
  1684                           
  1685                           	psect	maintext
  1686     072C                     __pmaintext:	
  1687 ;;
  1688 ;;Main: autosize = 0, tempsize = 2, incstack = 0, save=0
  1689 ;;
  1690 ;; *************** function _main *****************
  1691 ;; Defined at:
  1692 ;;		line 252 in file "main.c"
  1693 ;; Parameters:    Size  Location     Type
  1694 ;;		None
  1695 ;; Auto vars:     Size  Location     Type
  1696 ;;		None
  1697 ;; Return value:  Size  Location     Type
  1698 ;;                  1    wreg      void 
  1699 ;; Registers used:
  1700 ;;		wreg, fsr0l, fsr0h, fsr1l, fsr1h, status,2, status,0, pclath, cstack
  1701 ;; Tracked objects:
  1702 ;;		On entry : B1F/0
  1703 ;;		On exit  : 0/0
  1704 ;;		Unchanged: 0/0
  1705 ;; Data sizes:     COMMON   BANK0   BANK1   BANK2   BANK3   BANK4   BANK5   BANK6   BANK7   BANK8   BANK9  BANK10  BANK1
      +1  BANK12  BANK13  BANK14  BANK15  BANK16  BANK17  BANK18  BANK19  BANK20  BANK21  BANK22  BANK23  BANK24  BANK25
  1706 ;;      Params:         0       0       0       0       0       0       0       0       0       0       0       0       
      +0       0       0       0       0       0       0       0       0       0       0       0       0       0       0
  1707 ;;      Locals:         0       0       0       0       0       0       0       0       0       0       0       0       
      +0       0       0       0       0       0       0       0       0       0       0       0       0       0       0
  1708 ;;      Temps:          0       2       0       0       0       0       0       0       0       0       0       0       
      +0       0       0       0       0       0       0       0       0       0       0       0       0       0       0
  1709 ;;      Totals:         0       2       0       0       0       0       0       0       0       0       0       0       
      +0       0       0       0       0       0       0       0       0       0       0       0       0       0       0
  1710 ;;Total ram usage:        2 bytes
  1711 ;; Hardware stack levels required when called: 5
  1712 ;; This function calls:
  1713 ;;		_I2C_Init
  1714 ;;		_OLED_fill
  1715 ;;		_OLED_init
  1716 ;;		_initMain
  1717 ;;		_test_border
  1718 ;;		_test_checkerboard
  1719 ;;		_test_fill_pattern
  1720 ;;		_test_hello
  1721 ;;		_test_horizontal_bars
  1722 ;;		_test_scroll
  1723 ;;		_test_smiley
  1724 ;;		_test_vertical_bars
  1725 ;; This function is called by:
  1726 ;;		Startup code after reset
  1727 ;; This function uses a non-reentrant model
  1728 ;;
  1729                           
  1730     072C                     _main:	
  1731                           ;psect for function _main
  1732                           
  1733     072C                     l1816:	
  1734                           ;incstack = 0
  1735                           ; Regs used in _main: [wreg-fsr1h+status,2+status,0+pclath+cstack]
  1736                           
  1737                           
  1738                           ;main.c: 254:     initMain();
  1739     072C  3185  2540  3187   	fcall	_initMain
  1740                           
  1741                           ;main.c: 255:     I2C_Init();
  1742     072F  3183  23A9  3187   	fcall	_I2C_Init
  1743     0732                     l1818:
  1744                           
  1745                           ;main.c: 256:     _delay((unsigned long)((50)*(32000000/4000.0)));
  1746     0732  3003               	movlw	3
  1747     0733  0020               	movlb	0	; select bank0
  1748     0734  00AB               	movwf	??_main+1
  1749     0735  3008               	movlw	8
  1750     0736  00AA               	movwf	??_main
  1751     0737  3077               	movlw	119
  1752     0738                     u1057:
  1753     0738  0B89               	decfsz	9,f
  1754     0739  2F38               	goto	u1057
  1755     073A  0BAA               	decfsz	??_main,f
  1756     073B  2F38               	goto	u1057
  1757     073C  0BAB               	decfsz	??_main+1,f
  1758     073D  2F38               	goto	u1057
  1759     073E                     l1820:
  1760                           
  1761                           ;main.c: 259:     OLED_init();
  1762     073E  3184  2445  3187   	fcall	_OLED_init
  1763     0741                     l1822:
  1764                           
  1765                           ;main.c: 260:     _delay((unsigned long)((100)*(32000000/4000.0)));
  1766     0741  3005               	movlw	5
  1767     0742  0020               	movlb	0	; select bank0
  1768     0743  00AB               	movwf	??_main+1
  1769     0744  300F               	movlw	15
  1770     0745  00AA               	movwf	??_main
  1771     0746  30F1               	movlw	241
  1772     0747                     u1067:
  1773     0747  0B89               	decfsz	9,f
  1774     0748  2F47               	goto	u1067
  1775     0749  0BAA               	decfsz	??_main,f
  1776     074A  2F47               	goto	u1067
  1777     074B  0BAB               	decfsz	??_main+1,f
  1778     074C  2F47               	goto	u1067
  1779     074D                     l1824:
  1780                           
  1781                           ;main.c: 263:     OLED_fill(0x00);
  1782     074D  3000               	movlw	0
  1783     074E  3184  2490  3187   	fcall	_OLED_fill
  1784     0751                     l1826:
  1785                           
  1786                           ;main.c: 264:     _delay((unsigned long)((500)*(32000000/4000.0)));
  1787     0751  3015               	movlw	21
  1788     0752  0020               	movlb	0	; select bank0
  1789     0753  00AB               	movwf	??_main+1
  1790     0754  304B               	movlw	75
  1791     0755  00AA               	movwf	??_main
  1792     0756  30BE               	movlw	190
  1793     0757                     u1077:
  1794     0757  0B89               	decfsz	9,f
  1795     0758  2F57               	goto	u1077
  1796     0759  0BAA               	decfsz	??_main,f
  1797     075A  2F57               	goto	u1077
  1798     075B  0BAB               	decfsz	??_main+1,f
  1799     075C  2F57               	goto	u1077
  1800     075D  0000               	nop
  1801     075E                     l1828:
  1802                           
  1803                           ;main.c: 267:     {;main.c: 269:         test_fill_pattern(0xFF);
  1804     075E  30FF               	movlw	255
  1805     075F  3183  2372  3187   	fcall	_test_fill_pattern
  1806     0762                     l1830:
  1807                           
  1808                           ;main.c: 270:         _delay((unsigned long)((1000)*(32000000/4000.0)));
  1809     0762  3029               	movlw	41
  1810     0763  0020               	movlb	0	; select bank0
  1811     0764  00AB               	movwf	??_main+1
  1812     0765  3096               	movlw	150
  1813     0766  00AA               	movwf	??_main
  1814     0767  307F               	movlw	127
  1815     0768                     u1087:
  1816     0768  0B89               	decfsz	9,f
  1817     0769  2F68               	goto	u1087
  1818     076A  0BAA               	decfsz	??_main,f
  1819     076B  2F68               	goto	u1087
  1820     076C  0BAB               	decfsz	??_main+1,f
  1821     076D  2F68               	goto	u1087
  1822     076E                     l1832:
  1823                           
  1824                           ;main.c: 273:         test_fill_pattern(0x00);
  1825     076E  3000               	movlw	0
  1826     076F  3183  2372  3187   	fcall	_test_fill_pattern
  1827     0772                     l1834:
  1828                           
  1829                           ;main.c: 274:         _delay((unsigned long)((500)*(32000000/4000.0)));
  1830     0772  3015               	movlw	21
  1831     0773  0020               	movlb	0	; select bank0
  1832     0774  00AB               	movwf	??_main+1
  1833     0775  304B               	movlw	75
  1834     0776  00AA               	movwf	??_main
  1835     0777  30BE               	movlw	190
  1836     0778                     u1097:
  1837     0778  0B89               	decfsz	9,f
  1838     0779  2F78               	goto	u1097
  1839     077A  0BAA               	decfsz	??_main,f
  1840     077B  2F78               	goto	u1097
  1841     077C  0BAB               	decfsz	??_main+1,f
  1842     077D  2F78               	goto	u1097
  1843     077E  0000               	nop
  1844     077F                     l1836:
  1845                           
  1846                           ;main.c: 277:         test_fill_pattern(0xAA);
  1847     077F  30AA               	movlw	170
  1848     0780  3183  2372  3187   	fcall	_test_fill_pattern
  1849     0783                     l1838:
  1850                           
  1851                           ;main.c: 278:         _delay((unsigned long)((1000)*(32000000/4000.0)));
  1852     0783  3029               	movlw	41
  1853     0784  0020               	movlb	0	; select bank0
  1854     0785  00AB               	movwf	??_main+1
  1855     0786  3096               	movlw	150
  1856     0787  00AA               	movwf	??_main
  1857     0788  307F               	movlw	127
  1858     0789                     u1107:
  1859     0789  0B89               	decfsz	9,f
  1860     078A  2F89               	goto	u1107
  1861     078B  0BAA               	decfsz	??_main,f
  1862     078C  2F89               	goto	u1107
  1863     078D  0BAB               	decfsz	??_main+1,f
  1864     078E  2F89               	goto	u1107
  1865     078F                     l1840:
  1866                           
  1867                           ;main.c: 281:         test_horizontal_bars();
  1868     078F  3185  2575  3187   	fcall	_test_horizontal_bars
  1869     0792                     l1842:
  1870                           
  1871                           ;main.c: 282:         _delay((unsigned long)((1000)*(32000000/4000.0)));
  1872     0792  3029               	movlw	41
  1873     0793  0020               	movlb	0	; select bank0
  1874     0794  00AB               	movwf	??_main+1
  1875     0795  3096               	movlw	150
  1876     0796  00AA               	movwf	??_main
  1877     0797  307F               	movlw	127
  1878     0798                     u1117:
  1879     0798  0B89               	decfsz	9,f
  1880     0799  2F98               	goto	u1117
  1881     079A  0BAA               	decfsz	??_main,f
  1882     079B  2F98               	goto	u1117
  1883     079C  0BAB               	decfsz	??_main+1,f
  1884     079D  2F98               	goto	u1117
  1885     079E                     l1844:
  1886                           
  1887                           ;main.c: 285:         test_vertical_bars();
  1888     079E  3184  24B8  3187   	fcall	_test_vertical_bars
  1889     07A1                     l1846:
  1890                           
  1891                           ;main.c: 286:         _delay((unsigned long)((1000)*(32000000/4000.0)));
  1892     07A1  3029               	movlw	41
  1893     07A2  0020               	movlb	0	; select bank0
  1894     07A3  00AB               	movwf	??_main+1
  1895     07A4  3096               	movlw	150
  1896     07A5  00AA               	movwf	??_main
  1897     07A6  307F               	movlw	127
  1898     07A7                     u1127:
  1899     07A7  0B89               	decfsz	9,f
  1900     07A8  2FA7               	goto	u1127
  1901     07A9  0BAA               	decfsz	??_main,f
  1902     07AA  2FA7               	goto	u1127
  1903     07AB  0BAB               	decfsz	??_main+1,f
  1904     07AC  2FA7               	goto	u1127
  1905     07AD                     l1848:
  1906                           
  1907                           ;main.c: 289:         test_checkerboard();
  1908     07AD  3185  2510  3187   	fcall	_test_checkerboard
  1909     07B0                     l1850:
  1910                           
  1911                           ;main.c: 290:         _delay((unsigned long)((1000)*(32000000/4000.0)));
  1912     07B0  3029               	movlw	41
  1913     07B1  0020               	movlb	0	; select bank0
  1914     07B2  00AB               	movwf	??_main+1
  1915     07B3  3096               	movlw	150
  1916     07B4  00AA               	movwf	??_main
  1917     07B5  307F               	movlw	127
  1918     07B6                     u1137:
  1919     07B6  0B89               	decfsz	9,f
  1920     07B7  2FB6               	goto	u1137
  1921     07B8  0BAA               	decfsz	??_main,f
  1922     07B9  2FB6               	goto	u1137
  1923     07BA  0BAB               	decfsz	??_main+1,f
  1924     07BB  2FB6               	goto	u1137
  1925     07BC                     l1852:
  1926                           
  1927                           ;main.c: 293:         test_border();
  1928     07BC  3185  25ED  3187   	fcall	_test_border
  1929     07BF                     l1854:
  1930                           
  1931                           ;main.c: 294:         _delay((unsigned long)((1000)*(32000000/4000.0)));
  1932     07BF  3029               	movlw	41
  1933     07C0  0020               	movlb	0	; select bank0
  1934     07C1  00AB               	movwf	??_main+1
  1935     07C2  3096               	movlw	150
  1936     07C3  00AA               	movwf	??_main
  1937     07C4  307F               	movlw	127
  1938     07C5                     u1147:
  1939     07C5  0B89               	decfsz	9,f
  1940     07C6  2FC5               	goto	u1147
  1941     07C7  0BAA               	decfsz	??_main,f
  1942     07C8  2FC5               	goto	u1147
  1943     07C9  0BAB               	decfsz	??_main+1,f
  1944     07CA  2FC5               	goto	u1147
  1945     07CB                     l1856:
  1946                           
  1947                           ;main.c: 297:         test_smiley();
  1948     07CB  3185  25AD  3187   	fcall	_test_smiley
  1949     07CE                     l1858:
  1950                           
  1951                           ;main.c: 298:         _delay((unsigned long)((1500)*(32000000/4000.0)));
  1952     07CE  303D               	movlw	61
  1953     07CF  0020               	movlb	0	; select bank0
  1954     07D0  00AB               	movwf	??_main+1
  1955     07D1  30E1               	movlw	225
  1956     07D2  00AA               	movwf	??_main
  1957     07D3  303F               	movlw	63
  1958     07D4                     u1157:
  1959     07D4  0B89               	decfsz	9,f
  1960     07D5  2FD4               	goto	u1157
  1961     07D6  0BAA               	decfsz	??_main,f
  1962     07D7  2FD4               	goto	u1157
  1963     07D8  0BAB               	decfsz	??_main+1,f
  1964     07D9  2FD4               	goto	u1157
  1965     07DA  3200               	nop2
  1966     07DB                     l1860:
  1967                           
  1968                           ;main.c: 301:         test_hello();
  1969     07DB  3186  2693  3187   	fcall	_test_hello
  1970     07DE                     l1862:
  1971                           
  1972                           ;main.c: 302:         _delay((unsigned long)((1500)*(32000000/4000.0)));
  1973     07DE  303D               	movlw	61
  1974     07DF  0020               	movlb	0	; select bank0
  1975     07E0  00AB               	movwf	??_main+1
  1976     07E1  30E1               	movlw	225
  1977     07E2  00AA               	movwf	??_main
  1978     07E3  303F               	movlw	63
  1979     07E4                     u1167:
  1980     07E4  0B89               	decfsz	9,f
  1981     07E5  2FE4               	goto	u1167
  1982     07E6  0BAA               	decfsz	??_main,f
  1983     07E7  2FE4               	goto	u1167
  1984     07E8  0BAB               	decfsz	??_main+1,f
  1985     07E9  2FE4               	goto	u1167
  1986     07EA  3200               	nop2
  1987     07EB                     l1864:
  1988                           
  1989                           ;main.c: 305:         test_scroll();
  1990     07EB  3186  2638  3187   	fcall	_test_scroll
  1991     07EE  2F51               	goto	l1826
  1992     07EF  3180  2803         	ljmp	start
  1993     07F1                     __end_of_main:
  1994                           
  1995                           	psect	text1
  1996     04B8                     __ptext1:	
  1997 ;; *************** function _test_vertical_bars *****************
  1998 ;; Defined at:
  1999 ;;		line 108 in file "main.c"
  2000 ;; Parameters:    Size  Location     Type
  2001 ;;		None
  2002 ;; Auto vars:     Size  Location     Type
  2003 ;;  col             1   11[COMMON] unsigned char 
  2004 ;;  page            1   10[COMMON] unsigned char 
  2005 ;; Return value:  Size  Location     Type
  2006 ;;                  1    wreg      void 
  2007 ;; Registers used:
  2008 ;;		wreg, status,2, status,0, pclath, cstack
  2009 ;; Tracked objects:
  2010 ;;		On entry : 0/0
  2011 ;;		On exit  : 0/0
  2012 ;;		Unchanged: 0/0
  2013 ;; Data sizes:     COMMON   BANK0   BANK1   BANK2   BANK3   BANK4   BANK5   BANK6   BANK7   BANK8   BANK9  BANK10  BANK1
      +1  BANK12  BANK13  BANK14  BANK15  BANK16  BANK17  BANK18  BANK19  BANK20  BANK21  BANK22  BANK23  BANK24  BANK25
  2014 ;;      Params:         0       0       0       0       0       0       0       0       0       0       0       0       
      +0       0       0       0       0       0       0       0       0       0       0       0       0       0       0
  2015 ;;      Locals:         2       0       0       0       0       0       0       0       0       0       0       0       
      +0       0       0       0       0       0       0       0       0       0       0       0       0       0       0
  2016 ;;      Temps:          1       0       0       0       0       0       0       0       0       0       0       0       
      +0       0       0       0       0       0       0       0       0       0       0       0       0       0       0
  2017 ;;      Totals:         3       0       0       0       0       0       0       0       0       0       0       0       
      +0       0       0       0       0       0       0       0       0       0       0       0       0       0       0
  2018 ;;Total ram usage:        3 bytes
  2019 ;; Hardware stack levels used: 1
  2020 ;; Hardware stack levels required when called: 4
  2021 ;; This function calls:
  2022 ;;		_OLED_data_start
  2023 ;;		_OLED_end
  2024 ;;		_OLED_send
  2025 ;; This function is called by:
  2026 ;;		_main
  2027 ;; This function uses a non-reentrant model
  2028 ;;
  2029                           
  2030     04B8                     _test_vertical_bars:	
  2031                           ;psect for function _test_vertical_bars
  2032                           
  2033     04B8                     l1496:	
  2034                           ;incstack = 0
  2035                           ; Regs used in _test_vertical_bars: [wreg+status,2+status,0+pclath+cstack]
  2036                           
  2037                           
  2038                           ;main.c: 110:     uint8_t page, col;;main.c: 112:     for(page = 0; page < 8; page++) {
  2039     04B8  01FA               	clrf	test_vertical_bars@page
  2040     04B9                     l1502:
  2041                           
  2042                           ;main.c: 113:         OLED_data_start(page);
  2043     04B9  087A               	movf	test_vertical_bars@page,w
  2044     04BA  3183  2396  3184   	fcall	_OLED_data_start
  2045     04BD                     l1504:
  2046                           
  2047                           ;main.c: 114:         for(col = 0; col < 128; col++) {
  2048     04BD  01FB               	clrf	test_vertical_bars@col
  2049     04BE                     l177:
  2050                           
  2051                           ;main.c: 115:             if(col & 0x04) OLED_send(0xFF);
  2052     04BE  1D7B               	btfss	test_vertical_bars@col,2
  2053     04BF  2CC1               	goto	u701
  2054     04C0  2CC2               	goto	u700
  2055     04C1                     u701:
  2056     04C1  2CC7               	goto	l1512
  2057     04C2                     u700:
  2058     04C2                     l1510:
  2059     04C2  30FF               	movlw	255
  2060     04C3  3183  236C  3184   	fcall	_OLED_send
  2061     04C6  2CCB               	goto	l1514
  2062     04C7                     l1512:
  2063     04C7  3000               	movlw	0
  2064     04C8  3183  236C  3184   	fcall	_OLED_send
  2065     04CB                     l1514:
  2066                           
  2067                           ;main.c: 117:         }
  2068     04CB  3001               	movlw	1
  2069     04CC  00F9               	movwf	??_test_vertical_bars
  2070     04CD  0879               	movf	??_test_vertical_bars,w
  2071     04CE  07FB               	addwf	test_vertical_bars@col,f
  2072     04CF                     l1516:
  2073     04CF  3080               	movlw	128
  2074     04D0  027B               	subwf	test_vertical_bars@col,w
  2075     04D1  1C03               	skipc
  2076     04D2  2CD4               	goto	u711
  2077     04D3  2CD5               	goto	u710
  2078     04D4                     u711:
  2079     04D4  2CBE               	goto	l177
  2080     04D5                     u710:
  2081     04D5                     l1518:
  2082                           
  2083                           ;main.c: 118:         OLED_end();
  2084     04D5  3183  2368  3184   	fcall	_OLED_end
  2085     04D8                     l1520:
  2086                           
  2087                           ;main.c: 119:     }
  2088     04D8  3001               	movlw	1
  2089     04D9  00F9               	movwf	??_test_vertical_bars
  2090     04DA  0879               	movf	??_test_vertical_bars,w
  2091     04DB  07FA               	addwf	test_vertical_bars@page,f
  2092     04DC                     l1522:
  2093     04DC  3008               	movlw	8
  2094     04DD  027A               	subwf	test_vertical_bars@page,w
  2095     04DE  1C03               	skipc
  2096     04DF  2CE1               	goto	u721
  2097     04E0  2CE2               	goto	u720
  2098     04E1                     u721:
  2099     04E1  2CB9               	goto	l1502
  2100     04E2                     u720:
  2101     04E2                     l181:
  2102     04E2  0008               	return
  2103     04E3                     __end_of_test_vertical_bars:
  2104                           
  2105                           	psect	text2
  2106     05AD                     __ptext2:	
  2107 ;; *************** function _test_smiley *****************
  2108 ;; Defined at:
  2109 ;;		line 171 in file "main.c"
  2110 ;; Parameters:    Size  Location     Type
  2111 ;;		None
  2112 ;; Auto vars:     Size  Location     Type
  2113 ;;  col             1    2[BANK0 ] unsigned char 
  2114 ;;  page            1    1[BANK0 ] unsigned char 
  2115 ;;  i               1    0[BANK0 ] unsigned char 
  2116 ;; Return value:  Size  Location     Type
  2117 ;;                  1    wreg      void 
  2118 ;; Registers used:
  2119 ;;		wreg, fsr0l, fsr0h, status,2, status,0, pclath, cstack
  2120 ;; Tracked objects:
  2121 ;;		On entry : 0/0
  2122 ;;		On exit  : 0/0
  2123 ;;		Unchanged: 0/0
  2124 ;; Data sizes:     COMMON   BANK0   BANK1   BANK2   BANK3   BANK4   BANK5   BANK6   BANK7   BANK8   BANK9  BANK10  BANK1
      +1  BANK12  BANK13  BANK14  BANK15  BANK16  BANK17  BANK18  BANK19  BANK20  BANK21  BANK22  BANK23  BANK24  BANK25
  2125 ;;      Params:         0       0       0       0       0       0       0       0       0       0       0       0       
      +0       0       0       0       0       0       0       0       0       0       0       0       0       0       0
  2126 ;;      Locals:         0       3       0       0       0       0       0       0       0       0       0       0       
      +0       0       0       0       0       0       0       0       0       0       0       0       0       0       0
  2127 ;;      Temps:          1       0       0       0       0       0       0       0       0       0       0       0       
      +0       0       0       0       0       0       0       0       0       0       0       0       0       0       0
  2128 ;;      Totals:         1       3       0       0       0       0       0       0       0       0       0       0       
      +0       0       0       0       0       0       0       0       0       0       0       0       0       0       0
  2129 ;;Total ram usage:        4 bytes
  2130 ;; Hardware stack levels used: 1
  2131 ;; Hardware stack levels required when called: 4
  2132 ;; This function calls:
  2133 ;;		_OLED_data_start
  2134 ;;		_OLED_end
  2135 ;;		_OLED_fill
  2136 ;;		_OLED_send
  2137 ;; This function is called by:
  2138 ;;		_main
  2139 ;; This function uses a non-reentrant model
  2140 ;;
  2141                           
  2142     05AD                     _test_smiley:	
  2143                           ;psect for function _test_smiley
  2144                           
  2145     05AD                     l1596:	
  2146                           ;incstack = 0
  2147                           ; Regs used in _test_smiley: [wreg-fsr0h+status,2+status,0+pclath+cstack]
  2148                           
  2149                           
  2150                           ;main.c: 173:     uint8_t page, col, i;;main.c: 175:     OLED_fill(0x00);
  2151     05AD  3000               	movlw	0
  2152     05AE  3184  2490  3185   	fcall	_OLED_fill
  2153     05B1                     l1598:
  2154                           
  2155                           ;main.c: 178:     for(page = 3; page <= 4; page++) {
  2156     05B1  3003               	movlw	3
  2157     05B2  0020               	movlb	0	; select bank0
  2158     05B3  00A1               	movwf	test_smiley@page
  2159     05B4                     l1604:
  2160                           
  2161                           ;main.c: 179:         OLED_data_start(page);
  2162     05B4  0821               	movf	test_smiley@page,w
  2163     05B5  3183  2396  3185   	fcall	_OLED_data_start
  2164     05B8                     l1606:
  2165                           
  2166                           ;main.c: 180:         for(col = 0; col < 128; col++) {
  2167     05B8  0020               	movlb	0	; select bank0
  2168     05B9  01A2               	clrf	test_smiley@col
  2169     05BA                     l1612:
  2170                           
  2171                           ;main.c: 181:             i = col % 16;
  2172     05BA  0822               	movf	test_smiley@col,w
  2173     05BB  390F               	andlw	15
  2174     05BC  00A0               	movwf	test_smiley@i
  2175     05BD                     l1614:
  2176                           
  2177                           ;main.c: 182:             if(i < 8) {
  2178     05BD  3008               	movlw	8
  2179     05BE  0220               	subwf	test_smiley@i,w
  2180     05BF  1803               	skipnc
  2181     05C0  2DC2               	goto	u821
  2182     05C1  2DC3               	goto	u820
  2183     05C2                     u821:
  2184     05C2  2DCF               	goto	l1618
  2185     05C3                     u820:
  2186     05C3                     l1616:
  2187                           
  2188                           ;main.c: 183:                 OLED_send(smiley[i]);
  2189     05C3  0820               	movf	test_smiley@i,w
  2190     05C4  3E18               	addlw	low (_smiley| (0+32768))
  2191     05C5  0084               	movwf	4
  2192     05C6  3088               	movlw	high (_smiley| (0+32768))
  2193     05C7  1803               	skipnc
  2194     05C8  3E01               	addlw	1
  2195     05C9  0085               	movwf	5
  2196     05CA  0800               	movf	0,w	;code access
  2197     05CB  3183  236C  3185   	fcall	_OLED_send
  2198                           
  2199                           ;main.c: 184:             } else {
  2200     05CE  2DD3               	goto	l1620
  2201     05CF                     l1618:
  2202                           
  2203                           ;main.c: 185:                 OLED_send(0x00);
  2204     05CF  3000               	movlw	0
  2205     05D0  3183  236C  3185   	fcall	_OLED_send
  2206     05D3                     l1620:
  2207                           
  2208                           ;main.c: 187:         }
  2209     05D3  3001               	movlw	1
  2210     05D4  00FB               	movwf	??_test_smiley
  2211     05D5  087B               	movf	??_test_smiley,w
  2212     05D6  0020               	movlb	0	; select bank0
  2213     05D7  07A2               	addwf	test_smiley@col,f
  2214     05D8                     l1622:
  2215     05D8  3080               	movlw	128
  2216     05D9  0222               	subwf	test_smiley@col,w
  2217     05DA  1C03               	skipc
  2218     05DB  2DDD               	goto	u831
  2219     05DC  2DDE               	goto	u830
  2220     05DD                     u831:
  2221     05DD  2DBA               	goto	l1612
  2222     05DE                     u830:
  2223     05DE                     l1624:
  2224                           
  2225                           ;main.c: 188:         OLED_end();
  2226     05DE  3183  2368  3185   	fcall	_OLED_end
  2227     05E1                     l1626:
  2228                           
  2229                           ;main.c: 189:     }
  2230     05E1  3001               	movlw	1
  2231     05E2  00FB               	movwf	??_test_smiley
  2232     05E3  087B               	movf	??_test_smiley,w
  2233     05E4  0020               	movlb	0	; select bank0
  2234     05E5  07A1               	addwf	test_smiley@page,f
  2235     05E6                     l1628:
  2236     05E6  3005               	movlw	5
  2237     05E7  0221               	subwf	test_smiley@page,w
  2238     05E8  1C03               	skipc
  2239     05E9  2DEB               	goto	u841
  2240     05EA  2DEC               	goto	u840
  2241     05EB                     u841:
  2242     05EB  2DB4               	goto	l1604
  2243     05EC                     u840:
  2244     05EC                     l214:
  2245     05EC  0008               	return
  2246     05ED                     __end_of_test_smiley:
  2247                           
  2248                           	psect	text3
  2249     0638                     __ptext3:	
  2250 ;; *************** function _test_scroll *****************
  2251 ;; Defined at:
  2252 ;;		line 228 in file "main.c"
  2253 ;; Parameters:    Size  Location     Type
  2254 ;;		None
  2255 ;; Auto vars:     Size  Location     Type
  2256 ;;  offset          1    2[BANK0 ] unsigned char 
  2257 ;;  col             1    1[BANK0 ] unsigned char 
  2258 ;;  page            1    0[BANK0 ] unsigned char 
  2259 ;; Return value:  Size  Location     Type
  2260 ;;                  1    wreg      void 
  2261 ;; Registers used:
  2262 ;;		wreg, status,2, status,0, pclath, cstack
  2263 ;; Tracked objects:
  2264 ;;		On entry : 0/0
  2265 ;;		On exit  : 0/0
  2266 ;;		Unchanged: 0/0
  2267 ;; Data sizes:     COMMON   BANK0   BANK1   BANK2   BANK3   BANK4   BANK5   BANK6   BANK7   BANK8   BANK9  BANK10  BANK1
      +1  BANK12  BANK13  BANK14  BANK15  BANK16  BANK17  BANK18  BANK19  BANK20  BANK21  BANK22  BANK23  BANK24  BANK25
  2268 ;;      Params:         0       0       0       0       0       0       0       0       0       0       0       0       
      +0       0       0       0       0       0       0       0       0       0       0       0       0       0       0
  2269 ;;      Locals:         0       3       0       0       0       0       0       0       0       0       0       0       
      +0       0       0       0       0       0       0       0       0       0       0       0       0       0       0
  2270 ;;      Temps:          5       0       0       0       0       0       0       0       0       0       0       0       
      +0       0       0       0       0       0       0       0       0       0       0       0       0       0       0
  2271 ;;      Totals:         5       3       0       0       0       0       0       0       0       0       0       0       
      +0       0       0       0       0       0       0       0       0       0       0       0       0       0       0
  2272 ;;Total ram usage:        8 bytes
  2273 ;; Hardware stack levels used: 1
  2274 ;; Hardware stack levels required when called: 4
  2275 ;; This function calls:
  2276 ;;		_OLED_data_start
  2277 ;;		_OLED_end
  2278 ;;		_OLED_send
  2279 ;; This function is called by:
  2280 ;;		_main
  2281 ;; This function uses a non-reentrant model
  2282 ;;
  2283                           
  2284     0638                     _test_scroll:	
  2285                           ;psect for function _test_scroll
  2286                           
  2287     0638                     l1716:	
  2288                           ;incstack = 0
  2289                           ; Regs used in _test_scroll: [wreg+status,2+status,0+pclath+cstack]
  2290                           
  2291                           
  2292                           ;main.c: 230:     uint8_t page, col, offset;;main.c: 232:     for(offset = 0; offset < 1
      +                          28; offset += 2) {
  2293     0638  0020               	movlb	0	; select bank0
  2294     0639  01A2               	clrf	test_scroll@offset
  2295     063A                     l1722:
  2296                           
  2297                           ;main.c: 233:         for(page = 0; page < 8; page++) {
  2298     063A  01A0               	clrf	test_scroll@page
  2299     063B                     l1728:
  2300                           
  2301                           ;main.c: 234:             OLED_data_start(page);
  2302     063B  0820               	movf	test_scroll@page,w
  2303     063C  3183  2396  3186   	fcall	_OLED_data_start
  2304     063F                     l1730:
  2305                           
  2306                           ;main.c: 235:             for(col = 0; col < 128; col++) {
  2307     063F  0020               	movlb	0	; select bank0
  2308     0640  01A1               	clrf	test_scroll@col
  2309     0641                     l1736:
  2310                           
  2311                           ;main.c: 237:                 if(((col + offset) % 32) < 8) {
  2312     0641  0821               	movf	test_scroll@col,w
  2313     0642  0722               	addwf	test_scroll@offset,w
  2314     0643  00F9               	movwf	??_test_scroll
  2315     0644  01FA               	clrf	??_test_scroll+1
  2316     0645  0DFA               	rlf	??_test_scroll+1,f
  2317     0646  301F               	movlw	31
  2318     0647  0579               	andwf	??_test_scroll,w
  2319     0648  00FB               	movwf	??_test_scroll+2
  2320     0649  3000               	movlw	0
  2321     064A  057A               	andwf	??_test_scroll+1,w
  2322     064B  00FC               	movwf	??_test_scroll+3
  2323     064C  087C               	movf	??_test_scroll+3,w
  2324     064D  3A80               	xorlw	128
  2325     064E  00FD               	movwf	??_test_scroll+4
  2326     064F  3080               	movlw	128
  2327     0650  027D               	subwf	??_test_scroll+4,w
  2328     0651  1D03               	skipz
  2329     0652  2E55               	goto	u925
  2330     0653  3008               	movlw	8
  2331     0654  027B               	subwf	??_test_scroll+2,w
  2332     0655                     u925:
  2333     0655  1803               	skipnc
  2334     0656  2E58               	goto	u921
  2335     0657  2E59               	goto	u920
  2336     0658                     u921:
  2337     0658  2E5E               	goto	l1740
  2338     0659                     u920:
  2339     0659                     l1738:
  2340                           
  2341                           ;main.c: 238:                     OLED_send(0xFF);
  2342     0659  30FF               	movlw	255
  2343     065A  3183  236C  3186   	fcall	_OLED_send
  2344                           
  2345                           ;main.c: 239:                 } else {
  2346     065D  2E62               	goto	l1742
  2347     065E                     l1740:
  2348                           
  2349                           ;main.c: 240:                     OLED_send(0x00);
  2350     065E  3000               	movlw	0
  2351     065F  3183  236C  3186   	fcall	_OLED_send
  2352     0662                     l1742:
  2353                           
  2354                           ;main.c: 242:             }
  2355     0662  3001               	movlw	1
  2356     0663  00F9               	movwf	??_test_scroll
  2357     0664  0879               	movf	??_test_scroll,w
  2358     0665  0020               	movlb	0	; select bank0
  2359     0666  07A1               	addwf	test_scroll@col,f
  2360     0667                     l1744:
  2361     0667  3080               	movlw	128
  2362     0668  0221               	subwf	test_scroll@col,w
  2363     0669  1C03               	skipc
  2364     066A  2E6C               	goto	u931
  2365     066B  2E6D               	goto	u930
  2366     066C                     u931:
  2367     066C  2E41               	goto	l1736
  2368     066D                     u930:
  2369     066D                     l1746:
  2370                           
  2371                           ;main.c: 243:             OLED_end();
  2372     066D  3183  2368  3186   	fcall	_OLED_end
  2373     0670                     l1748:
  2374                           
  2375                           ;main.c: 244:         }
  2376     0670  3001               	movlw	1
  2377     0671  00F9               	movwf	??_test_scroll
  2378     0672  0879               	movf	??_test_scroll,w
  2379     0673  0020               	movlb	0	; select bank0
  2380     0674  07A0               	addwf	test_scroll@page,f
  2381     0675                     l1750:
  2382     0675  3008               	movlw	8
  2383     0676  0220               	subwf	test_scroll@page,w
  2384     0677  1C03               	skipc
  2385     0678  2E7A               	goto	u941
  2386     0679  2E7B               	goto	u940
  2387     067A                     u941:
  2388     067A  2E3B               	goto	l1728
  2389     067B                     u940:
  2390     067B                     l1752:
  2391                           
  2392                           ;main.c: 245:         _delay((unsigned long)((30)*(32000000/4000.0)));
  2393     067B  3002               	movlw	2
  2394     067C  00FA               	movwf	??_test_scroll+1
  2395     067D  3038               	movlw	56
  2396     067E  00F9               	movwf	??_test_scroll
  2397     067F  30AD               	movlw	173
  2398     0680                     u1177:
  2399     0680  0B89               	decfsz	9,f
  2400     0681  2E80               	goto	u1177
  2401     0682  0BF9               	decfsz	??_test_scroll,f
  2402     0683  2E80               	goto	u1177
  2403     0684  0BFA               	decfsz	??_test_scroll+1,f
  2404     0685  2E80               	goto	u1177
  2405     0686  0000               	nop
  2406     0687                     l1754:
  2407                           
  2408                           ;main.c: 246:     }
  2409     0687  3002               	movlw	2
  2410     0688  00F9               	movwf	??_test_scroll
  2411     0689  0879               	movf	??_test_scroll,w
  2412     068A  0020               	movlb	0	; select bank0
  2413     068B  07A2               	addwf	test_scroll@offset,f
  2414     068C                     l1756:
  2415     068C  3080               	movlw	128
  2416     068D  0222               	subwf	test_scroll@offset,w
  2417     068E  1C03               	skipc
  2418     068F  2E91               	goto	u951
  2419     0690  2E92               	goto	u950
  2420     0691                     u951:
  2421     0691  2E3A               	goto	l1722
  2422     0692                     u950:
  2423     0692                     l242:
  2424     0692  0008               	return
  2425     0693                     __end_of_test_scroll:
  2426                           
  2427                           	psect	text4
  2428     0575                     __ptext4:	
  2429 ;; *************** function _test_horizontal_bars *****************
  2430 ;; Defined at:
  2431 ;;		line 91 in file "main.c"
  2432 ;; Parameters:    Size  Location     Type
  2433 ;;		None
  2434 ;; Auto vars:     Size  Location     Type
  2435 ;;  patterns        8    0[BANK0 ] unsigned char [8]
  2436 ;;  page            1    9[BANK0 ] unsigned char 
  2437 ;;  col             1    8[BANK0 ] unsigned char 
  2438 ;; Return value:  Size  Location     Type
  2439 ;;                  1    wreg      void 
  2440 ;; Registers used:
  2441 ;;		wreg, fsr0l, fsr0h, fsr1l, fsr1h, status,2, status,0, pclath, cstack
  2442 ;; Tracked objects:
  2443 ;;		On entry : 0/0
  2444 ;;		On exit  : 0/0
  2445 ;;		Unchanged: 0/0
  2446 ;; Data sizes:     COMMON   BANK0   BANK1   BANK2   BANK3   BANK4   BANK5   BANK6   BANK7   BANK8   BANK9  BANK10  BANK1
      +1  BANK12  BANK13  BANK14  BANK15  BANK16  BANK17  BANK18  BANK19  BANK20  BANK21  BANK22  BANK23  BANK24  BANK25
  2447 ;;      Params:         0       0       0       0       0       0       0       0       0       0       0       0       
      +0       0       0       0       0       0       0       0       0       0       0       0       0       0       0
  2448 ;;      Locals:         0      10       0       0       0       0       0       0       0       0       0       0       
      +0       0       0       0       0       0       0       0       0       0       0       0       0       0       0
  2449 ;;      Temps:          1       0       0       0       0       0       0       0       0       0       0       0       
      +0       0       0       0       0       0       0       0       0       0       0       0       0       0       0
  2450 ;;      Totals:         1      10       0       0       0       0       0       0       0       0       0       0       
      +0       0       0       0       0       0       0       0       0       0       0       0       0       0       0
  2451 ;;Total ram usage:       11 bytes
  2452 ;; Hardware stack levels used: 1
  2453 ;; Hardware stack levels required when called: 4
  2454 ;; This function calls:
  2455 ;;		_OLED_data_start
  2456 ;;		_OLED_end
  2457 ;;		_OLED_send
  2458 ;; This function is called by:
  2459 ;;		_main
  2460 ;; This function uses a non-reentrant model
  2461 ;;
  2462                           
  2463     0575                     _test_horizontal_bars:	
  2464                           ;psect for function _test_horizontal_bars
  2465                           
  2466     0575                     l1468:	
  2467                           ;incstack = 0
  2468                           ; Regs used in _test_horizontal_bars: [wreg-fsr1h+status,2+status,0+pclath+cstack]
  2469                           
  2470                           
  2471                           ;main.c: 93:     uint8_t page, col;;main.c: 94:     uint8_t patterns[] = {0xFF, 0x00, 0x
      +                          FF, 0x00, 0xFF, 0x00, 0xFF, 0x00};
  2472     0575  302C               	movlw	low test_horizontal_bars@F6088
  2473     0576  0086               	movwf	6
  2474     0577  3000               	movlw	high test_horizontal_bars@F6088
  2475     0578  0087               	movwf	7
  2476     0579  3020               	movlw	low test_horizontal_bars@patterns
  2477     057A  0084               	movwf	4
  2478     057B  3000               	movlw	high test_horizontal_bars@patterns
  2479     057C  0085               	movwf	5
  2480     057D  3008               	movlw	8
  2481     057E  00F9               	movwf	??_test_horizontal_bars
  2482     057F                     u670:
  2483     057F  0016               	moviw fsr1++
  2484     0580  001A               	movwi fsr0++
  2485     0581  0BF9               	decfsz	??_test_horizontal_bars,f
  2486     0582  2D7F               	goto	u670
  2487     0583                     l1470:
  2488                           
  2489                           ;main.c: 96:     for(page = 0; page < 8; page++) {
  2490     0583  0020               	movlb	0	; select bank0
  2491     0584  01A9               	clrf	test_horizontal_bars@page
  2492     0585                     l1476:
  2493                           
  2494                           ;main.c: 97:         OLED_data_start(page);
  2495     0585  0829               	movf	test_horizontal_bars@page,w
  2496     0586  3183  2396  3185   	fcall	_OLED_data_start
  2497     0589                     l1478:
  2498                           
  2499                           ;main.c: 98:         for(col = 0; col < 128; col++) {
  2500     0589  0020               	movlb	0	; select bank0
  2501     058A  01A8               	clrf	test_horizontal_bars@col
  2502     058B                     l1484:
  2503                           
  2504                           ;main.c: 99:             OLED_send(patterns[page]);
  2505     058B  0829               	movf	test_horizontal_bars@page,w
  2506     058C  3E20               	addlw	(low (test_horizontal_bars@patterns| 0))& (0+255)
  2507     058D  0086               	movwf	6
  2508     058E  0187               	clrf	7
  2509     058F  0801               	movf	1,w
  2510     0590  3183  236C  3185   	fcall	_OLED_send
  2511     0593                     l1486:
  2512                           
  2513                           ;main.c: 100:         }
  2514     0593  3001               	movlw	1
  2515     0594  00F9               	movwf	??_test_horizontal_bars
  2516     0595  0879               	movf	??_test_horizontal_bars,w
  2517     0596  0020               	movlb	0	; select bank0
  2518     0597  07A8               	addwf	test_horizontal_bars@col,f
  2519     0598                     l1488:
  2520     0598  3080               	movlw	128
  2521     0599  0228               	subwf	test_horizontal_bars@col,w
  2522     059A  1C03               	skipc
  2523     059B  2D9D               	goto	u681
  2524     059C  2D9E               	goto	u680
  2525     059D                     u681:
  2526     059D  2D8B               	goto	l1484
  2527     059E                     u680:
  2528     059E                     l1490:
  2529                           
  2530                           ;main.c: 101:         OLED_end();
  2531     059E  3183  2368  3185   	fcall	_OLED_end
  2532     05A1                     l1492:
  2533                           
  2534                           ;main.c: 102:     }
  2535     05A1  3001               	movlw	1
  2536     05A2  00F9               	movwf	??_test_horizontal_bars
  2537     05A3  0879               	movf	??_test_horizontal_bars,w
  2538     05A4  0020               	movlb	0	; select bank0
  2539     05A5  07A9               	addwf	test_horizontal_bars@page,f
  2540     05A6                     l1494:
  2541     05A6  3008               	movlw	8
  2542     05A7  0229               	subwf	test_horizontal_bars@page,w
  2543     05A8  1C03               	skipc
  2544     05A9  2DAB               	goto	u691
  2545     05AA  2DAC               	goto	u690
  2546     05AB                     u691:
  2547     05AB  2D85               	goto	l1476
  2548     05AC                     u690:
  2549     05AC                     l172:
  2550     05AC  0008               	return
  2551     05AD                     __end_of_test_horizontal_bars:
  2552                           
  2553                           	psect	text5
  2554     0693                     __ptext5:	
  2555 ;; *************** function _test_hello *****************
  2556 ;; Defined at:
  2557 ;;		line 195 in file "main.c"
  2558 ;; Parameters:    Size  Location     Type
  2559 ;;		None
  2560 ;; Auto vars:     Size  Location     Type
  2561 ;;  i               1   13[COMMON] unsigned char 
  2562 ;;  col             1   12[COMMON] unsigned char 
  2563 ;; Return value:  Size  Location     Type
  2564 ;;                  1    wreg      void 
  2565 ;; Registers used:
  2566 ;;		wreg, fsr0l, fsr0h, status,2, status,0, pclath, cstack
  2567 ;; Tracked objects:
  2568 ;;		On entry : 0/0
  2569 ;;		On exit  : 0/0
  2570 ;;		Unchanged: 0/0
  2571 ;; Data sizes:     COMMON   BANK0   BANK1   BANK2   BANK3   BANK4   BANK5   BANK6   BANK7   BANK8   BANK9  BANK10  BANK1
      +1  BANK12  BANK13  BANK14  BANK15  BANK16  BANK17  BANK18  BANK19  BANK20  BANK21  BANK22  BANK23  BANK24  BANK25
  2572 ;;      Params:         0       0       0       0       0       0       0       0       0       0       0       0       
      +0       0       0       0       0       0       0       0       0       0       0       0       0       0       0
  2573 ;;      Locals:         2       0       0       0       0       0       0       0       0       0       0       0       
      +0       0       0       0       0       0       0       0       0       0       0       0       0       0       0
  2574 ;;      Temps:          1       0       0       0       0       0       0       0       0       0       0       0       
      +0       0       0       0       0       0       0       0       0       0       0       0       0       0       0
  2575 ;;      Totals:         3       0       0       0       0       0       0       0       0       0       0       0       
      +0       0       0       0       0       0       0       0       0       0       0       0       0       0       0
  2576 ;;Total ram usage:        3 bytes
  2577 ;; Hardware stack levels used: 1
  2578 ;; Hardware stack levels required when called: 4
  2579 ;; This function calls:
  2580 ;;		_OLED_data_start
  2581 ;;		_OLED_end
  2582 ;;		_OLED_fill
  2583 ;;		_OLED_send
  2584 ;; This function is called by:
  2585 ;;		_main
  2586 ;; This function uses a non-reentrant model
  2587 ;;
  2588                           
  2589     0693                     _test_hello:	
  2590                           ;psect for function _test_hello
  2591                           
  2592     0693                     l1630:	
  2593                           ;incstack = 0
  2594                           ; Regs used in _test_hello: [wreg-fsr0h+status,2+status,0+pclath+cstack]
  2595                           
  2596                           
  2597                           ;main.c: 197:     uint8_t col, i;;main.c: 199:     OLED_fill(0x00);
  2598     0693  3000               	movlw	0
  2599     0694  3184  2490  3186   	fcall	_OLED_fill
  2600                           
  2601                           ;main.c: 202:     OLED_data_start(3);
  2602     0697  3003               	movlw	3
  2603     0698  3183  2396  3186   	fcall	_OLED_data_start
  2604     069B                     l1632:
  2605                           
  2606                           ;main.c: 206:     for(col = 0; col < 49; col++) OLED_send(0x00);
  2607     069B  01FC               	clrf	test_hello@col
  2608     069C                     l1638:
  2609     069C  3000               	movlw	0
  2610     069D  3183  236C  3186   	fcall	_OLED_send
  2611     06A0                     l1640:
  2612     06A0  3001               	movlw	1
  2613     06A1  00FB               	movwf	??_test_hello
  2614     06A2  087B               	movf	??_test_hello,w
  2615     06A3  07FC               	addwf	test_hello@col,f
  2616     06A4                     l1642:
  2617     06A4  3031               	movlw	49
  2618     06A5  027C               	subwf	test_hello@col,w
  2619     06A6  1C03               	skipc
  2620     06A7  2EA9               	goto	u851
  2621     06A8  2EAA               	goto	u850
  2622     06A9                     u851:
  2623     06A9  2E9C               	goto	l1638
  2624     06AA                     u850:
  2625     06AA                     l1644:
  2626                           
  2627                           ;main.c: 209:     for(i = 0; i < 6; i++) OLED_send(letterH[i]);
  2628     06AA  01FD               	clrf	test_hello@i
  2629     06AB                     l1650:
  2630     06AB  087D               	movf	test_hello@i,w
  2631     06AC  3E32               	addlw	low (_letterH| (0+32768))
  2632     06AD  0084               	movwf	4
  2633     06AE  3088               	movlw	high (_letterH| (0+32768))
  2634     06AF  1803               	skipnc
  2635     06B0  3E01               	addlw	1
  2636     06B1  0085               	movwf	5
  2637     06B2  0800               	movf	0,w	;code access
  2638     06B3  3183  236C  3186   	fcall	_OLED_send
  2639     06B6                     l1652:
  2640     06B6  3001               	movlw	1
  2641     06B7  00FB               	movwf	??_test_hello
  2642     06B8  087B               	movf	??_test_hello,w
  2643     06B9  07FD               	addwf	test_hello@i,f
  2644     06BA                     l1654:
  2645     06BA  3006               	movlw	6
  2646     06BB  027D               	subwf	test_hello@i,w
  2647     06BC  1C03               	skipc
  2648     06BD  2EBF               	goto	u861
  2649     06BE  2EC0               	goto	u860
  2650     06BF                     u861:
  2651     06BF  2EAB               	goto	l1650
  2652     06C0                     u860:
  2653     06C0                     l1656:
  2654                           
  2655                           ;main.c: 211:     for(i = 0; i < 6; i++) OLED_send(letterE[i]);
  2656     06C0  01FD               	clrf	test_hello@i
  2657     06C1                     l1662:
  2658     06C1  087D               	movf	test_hello@i,w
  2659     06C2  3E2C               	addlw	low (_letterE| (0+32768))
  2660     06C3  0084               	movwf	4
  2661     06C4  3088               	movlw	high (_letterE| (0+32768))
  2662     06C5  1803               	skipnc
  2663     06C6  3E01               	addlw	1
  2664     06C7  0085               	movwf	5
  2665     06C8  0800               	movf	0,w	;code access
  2666     06C9  3183  236C  3186   	fcall	_OLED_send
  2667     06CC                     l1664:
  2668     06CC  3001               	movlw	1
  2669     06CD  00FB               	movwf	??_test_hello
  2670     06CE  087B               	movf	??_test_hello,w
  2671     06CF  07FD               	addwf	test_hello@i,f
  2672     06D0                     l1666:
  2673     06D0  3006               	movlw	6
  2674     06D1  027D               	subwf	test_hello@i,w
  2675     06D2  1C03               	skipc
  2676     06D3  2ED5               	goto	u871
  2677     06D4  2ED6               	goto	u870
  2678     06D5                     u871:
  2679     06D5  2EC1               	goto	l1662
  2680     06D6                     u870:
  2681     06D6                     l1668:
  2682                           
  2683                           ;main.c: 213:     for(i = 0; i < 6; i++) OLED_send(letterL[i]);
  2684     06D6  01FD               	clrf	test_hello@i
  2685     06D7                     l1674:
  2686     06D7  087D               	movf	test_hello@i,w
  2687     06D8  3E26               	addlw	low (_letterL| (0+32768))
  2688     06D9  0084               	movwf	4
  2689     06DA  3088               	movlw	high (_letterL| (0+32768))
  2690     06DB  1803               	skipnc
  2691     06DC  3E01               	addlw	1
  2692     06DD  0085               	movwf	5
  2693     06DE  0800               	movf	0,w	;code access
  2694     06DF  3183  236C  3186   	fcall	_OLED_send
  2695     06E2                     l1676:
  2696     06E2  3001               	movlw	1
  2697     06E3  00FB               	movwf	??_test_hello
  2698     06E4  087B               	movf	??_test_hello,w
  2699     06E5  07FD               	addwf	test_hello@i,f
  2700     06E6                     l1678:
  2701     06E6  3006               	movlw	6
  2702     06E7  027D               	subwf	test_hello@i,w
  2703     06E8  1C03               	skipc
  2704     06E9  2EEB               	goto	u881
  2705     06EA  2EEC               	goto	u880
  2706     06EB                     u881:
  2707     06EB  2ED7               	goto	l1674
  2708     06EC                     u880:
  2709     06EC                     l1680:
  2710                           
  2711                           ;main.c: 215:     for(i = 0; i < 6; i++) OLED_send(letterL[i]);
  2712     06EC  01FD               	clrf	test_hello@i
  2713     06ED                     l1686:
  2714     06ED  087D               	movf	test_hello@i,w
  2715     06EE  3E26               	addlw	low (_letterL| (0+32768))
  2716     06EF  0084               	movwf	4
  2717     06F0  3088               	movlw	high (_letterL| (0+32768))
  2718     06F1  1803               	skipnc
  2719     06F2  3E01               	addlw	1
  2720     06F3  0085               	movwf	5
  2721     06F4  0800               	movf	0,w	;code access
  2722     06F5  3183  236C  3186   	fcall	_OLED_send
  2723     06F8                     l1688:
  2724     06F8  3001               	movlw	1
  2725     06F9  00FB               	movwf	??_test_hello
  2726     06FA  087B               	movf	??_test_hello,w
  2727     06FB  07FD               	addwf	test_hello@i,f
  2728     06FC                     l1690:
  2729     06FC  3006               	movlw	6
  2730     06FD  027D               	subwf	test_hello@i,w
  2731     06FE  1C03               	skipc
  2732     06FF  2F01               	goto	u891
  2733     0700  2F02               	goto	u890
  2734     0701                     u891:
  2735     0701  2EED               	goto	l1686
  2736     0702                     u890:
  2737     0702                     l1692:
  2738                           
  2739                           ;main.c: 217:     for(i = 0; i < 6; i++) OLED_send(letterO[i]);
  2740     0702  01FD               	clrf	test_hello@i
  2741     0703                     l1698:
  2742     0703  087D               	movf	test_hello@i,w
  2743     0704  3E20               	addlw	low (_letterO| (0+32768))
  2744     0705  0084               	movwf	4
  2745     0706  3088               	movlw	high (_letterO| (0+32768))
  2746     0707  1803               	skipnc
  2747     0708  3E01               	addlw	1
  2748     0709  0085               	movwf	5
  2749     070A  0800               	movf	0,w	;code access
  2750     070B  3183  236C  3186   	fcall	_OLED_send
  2751     070E                     l1700:
  2752     070E  3001               	movlw	1
  2753     070F  00FB               	movwf	??_test_hello
  2754     0710  087B               	movf	??_test_hello,w
  2755     0711  07FD               	addwf	test_hello@i,f
  2756     0712                     l1702:
  2757     0712  3006               	movlw	6
  2758     0713  027D               	subwf	test_hello@i,w
  2759     0714  1C03               	skipc
  2760     0715  2F17               	goto	u901
  2761     0716  2F18               	goto	u900
  2762     0717                     u901:
  2763     0717  2F03               	goto	l1698
  2764     0718                     u900:
  2765     0718                     l1704:
  2766                           
  2767                           ;main.c: 220:     for(col = 49 + 30; col < 128; col++) OLED_send(0x00);
  2768     0718  304F               	movlw	79
  2769     0719  00FC               	movwf	test_hello@col
  2770     071A                     l1708:
  2771     071A  3000               	movlw	0
  2772     071B  3183  236C  3186   	fcall	_OLED_send
  2773     071E                     l1710:
  2774     071E  3001               	movlw	1
  2775     071F  00FB               	movwf	??_test_hello
  2776     0720  087B               	movf	??_test_hello,w
  2777     0721  07FC               	addwf	test_hello@col,f
  2778     0722                     l1712:
  2779     0722  3080               	movlw	128
  2780     0723  027C               	subwf	test_hello@col,w
  2781     0724  1C03               	skipc
  2782     0725  2F27               	goto	u911
  2783     0726  2F28               	goto	u910
  2784     0727                     u911:
  2785     0727  2F1A               	goto	l1708
  2786     0728                     u910:
  2787     0728                     l1714:
  2788                           
  2789                           ;main.c: 222:     OLED_end();
  2790     0728  3183  2368  3186   	fcall	_OLED_end
  2791     072B                     l231:
  2792     072B  0008               	return
  2793     072C                     __end_of_test_hello:
  2794                           
  2795                           	psect	text6
  2796     0372                     __ptext6:	
  2797 ;; *************** function _test_fill_pattern *****************
  2798 ;; Defined at:
  2799 ;;		line 83 in file "main.c"
  2800 ;; Parameters:    Size  Location     Type
  2801 ;;  pattern         1    wreg     unsigned char 
  2802 ;; Auto vars:     Size  Location     Type
  2803 ;;  pattern         1   11[COMMON] unsigned char 
  2804 ;; Return value:  Size  Location     Type
  2805 ;;                  1    wreg      void 
  2806 ;; Registers used:
  2807 ;;		wreg, status,2, status,0, pclath, cstack
  2808 ;; Tracked objects:
  2809 ;;		On entry : 0/0
  2810 ;;		On exit  : 0/0
  2811 ;;		Unchanged: 0/0
  2812 ;; Data sizes:     COMMON   BANK0   BANK1   BANK2   BANK3   BANK4   BANK5   BANK6   BANK7   BANK8   BANK9  BANK10  BANK1
      +1  BANK12  BANK13  BANK14  BANK15  BANK16  BANK17  BANK18  BANK19  BANK20  BANK21  BANK22  BANK23  BANK24  BANK25
  2813 ;;      Params:         0       0       0       0       0       0       0       0       0       0       0       0       
      +0       0       0       0       0       0       0       0       0       0       0       0       0       0       0
  2814 ;;      Locals:         1       0       0       0       0       0       0       0       0       0       0       0       
      +0       0       0       0       0       0       0       0       0       0       0       0       0       0       0
  2815 ;;      Temps:          0       0       0       0       0       0       0       0       0       0       0       0       
      +0       0       0       0       0       0       0       0       0       0       0       0       0       0       0
  2816 ;;      Totals:         1       0       0       0       0       0       0       0       0       0       0       0       
      +0       0       0       0       0       0       0       0       0       0       0       0       0       0       0
  2817 ;;Total ram usage:        1 bytes
  2818 ;; Hardware stack levels used: 1
  2819 ;; Hardware stack levels required when called: 4
  2820 ;; This function calls:
  2821 ;;		_OLED_fill
  2822 ;; This function is called by:
  2823 ;;		_main
  2824 ;; This function uses a non-reentrant model
  2825 ;;
  2826                           
  2827     0372                     _test_fill_pattern:	
  2828                           ;psect for function _test_fill_pattern
  2829                           
  2830                           
  2831                           ;incstack = 0
  2832                           ; Regs used in _test_fill_pattern: [wreg+status,2+status,0+pclath+cstack]
  2833                           ;test_fill_pattern@pattern stored from wreg
  2834     0372  00FB               	movwf	test_fill_pattern@pattern
  2835     0373                     l1466:
  2836                           
  2837                           ;main.c: 83: void test_fill_pattern(uint8_t pattern);main.c: 84: {;main.c: 85:     OLED_
      +                          fill(pattern);
  2838     0373  087B               	movf	test_fill_pattern@pattern,w
  2839     0374  3184  2490  3183   	fcall	_OLED_fill
  2840     0377                     l163:
  2841     0377  0008               	return
  2842     0378                     __end_of_test_fill_pattern:
  2843                           
  2844                           	psect	text7
  2845     0510                     __ptext7:	
  2846 ;; *************** function _test_checkerboard *****************
  2847 ;; Defined at:
  2848 ;;		line 125 in file "main.c"
  2849 ;; Parameters:    Size  Location     Type
  2850 ;;		None
  2851 ;; Auto vars:     Size  Location     Type
  2852 ;;  page            1   12[COMMON] unsigned char 
  2853 ;;  col             1   11[COMMON] unsigned char 
  2854 ;; Return value:  Size  Location     Type
  2855 ;;                  1    wreg      void 
  2856 ;; Registers used:
  2857 ;;		wreg, status,2, status,0, pclath, cstack
  2858 ;; Tracked objects:
  2859 ;;		On entry : 0/0
  2860 ;;		On exit  : 0/0
  2861 ;;		Unchanged: 0/0
  2862 ;; Data sizes:     COMMON   BANK0   BANK1   BANK2   BANK3   BANK4   BANK5   BANK6   BANK7   BANK8   BANK9  BANK10  BANK1
      +1  BANK12  BANK13  BANK14  BANK15  BANK16  BANK17  BANK18  BANK19  BANK20  BANK21  BANK22  BANK23  BANK24  BANK25
  2863 ;;      Params:         0       0       0       0       0       0       0       0       0       0       0       0       
      +0       0       0       0       0       0       0       0       0       0       0       0       0       0       0
  2864 ;;      Locals:         2       0       0       0       0       0       0       0       0       0       0       0       
      +0       0       0       0       0       0       0       0       0       0       0       0       0       0       0
  2865 ;;      Temps:          2       0       0       0       0       0       0       0       0       0       0       0       
      +0       0       0       0       0       0       0       0       0       0       0       0       0       0       0
  2866 ;;      Totals:         4       0       0       0       0       0       0       0       0       0       0       0       
      +0       0       0       0       0       0       0       0       0       0       0       0       0       0       0
  2867 ;;Total ram usage:        4 bytes
  2868 ;; Hardware stack levels used: 1
  2869 ;; Hardware stack levels required when called: 4
  2870 ;; This function calls:
  2871 ;;		_OLED_data_start
  2872 ;;		_OLED_end
  2873 ;;		_OLED_send
  2874 ;; This function is called by:
  2875 ;;		_main
  2876 ;; This function uses a non-reentrant model
  2877 ;;
  2878                           
  2879     0510                     _test_checkerboard:	
  2880                           ;psect for function _test_checkerboard
  2881                           
  2882     0510                     l1524:	
  2883                           ;incstack = 0
  2884                           ; Regs used in _test_checkerboard: [wreg+status,2+status,0+pclath+cstack]
  2885                           
  2886                           
  2887                           ;main.c: 127:     uint8_t page, col;;main.c: 129:     for(page = 0; page < 8; page++) {
  2888     0510  01FC               	clrf	test_checkerboard@page
  2889     0511                     l1530:
  2890                           
  2891                           ;main.c: 130:         OLED_data_start(page);
  2892     0511  087C               	movf	test_checkerboard@page,w
  2893     0512  3183  2396  3185   	fcall	_OLED_data_start
  2894     0515                     l1532:
  2895                           
  2896                           ;main.c: 131:         for(col = 0; col < 128; col++) {
  2897     0515  01FB               	clrf	test_checkerboard@col
  2898     0516                     l1538:
  2899                           
  2900                           ;main.c: 132:             if((col + page) & 1) OLED_send(0xAA);
  2901     0516  087B               	movf	test_checkerboard@col,w
  2902     0517  077C               	addwf	test_checkerboard@page,w
  2903     0518  00F9               	movwf	??_test_checkerboard
  2904     0519  01FA               	clrf	??_test_checkerboard+1
  2905     051A  0DFA               	rlf	??_test_checkerboard+1,f
  2906     051B  1C79               	btfss	??_test_checkerboard,0
  2907     051C  2D1E               	goto	u731
  2908     051D  2D1F               	goto	u730
  2909     051E                     u731:
  2910     051E  2D24               	goto	l1542
  2911     051F                     u730:
  2912     051F                     l1540:
  2913     051F  30AA               	movlw	170
  2914     0520  3183  236C  3185   	fcall	_OLED_send
  2915     0523  2D28               	goto	l1544
  2916     0524                     l1542:
  2917     0524  3055               	movlw	85
  2918     0525  3183  236C  3185   	fcall	_OLED_send
  2919     0528                     l1544:
  2920                           
  2921                           ;main.c: 134:         }
  2922     0528  3001               	movlw	1
  2923     0529  00F9               	movwf	??_test_checkerboard
  2924     052A  0879               	movf	??_test_checkerboard,w
  2925     052B  07FB               	addwf	test_checkerboard@col,f
  2926     052C                     l1546:
  2927     052C  3080               	movlw	128
  2928     052D  027B               	subwf	test_checkerboard@col,w
  2929     052E  1C03               	skipc
  2930     052F  2D31               	goto	u741
  2931     0530  2D32               	goto	u740
  2932     0531                     u741:
  2933     0531  2D16               	goto	l1538
  2934     0532                     u740:
  2935     0532                     l1548:
  2936                           
  2937                           ;main.c: 135:         OLED_end();
  2938     0532  3183  2368  3185   	fcall	_OLED_end
  2939     0535                     l1550:
  2940                           
  2941                           ;main.c: 136:     }
  2942     0535  3001               	movlw	1
  2943     0536  00F9               	movwf	??_test_checkerboard
  2944     0537  0879               	movf	??_test_checkerboard,w
  2945     0538  07FC               	addwf	test_checkerboard@page,f
  2946     0539                     l1552:
  2947     0539  3008               	movlw	8
  2948     053A  027C               	subwf	test_checkerboard@page,w
  2949     053B  1C03               	skipc
  2950     053C  2D3E               	goto	u751
  2951     053D  2D3F               	goto	u750
  2952     053E                     u751:
  2953     053E  2D11               	goto	l1530
  2954     053F                     u750:
  2955     053F                     l190:
  2956     053F  0008               	return
  2957     0540                     __end_of_test_checkerboard:
  2958                           
  2959                           	psect	text8
  2960     05ED                     __ptext8:	
  2961 ;; *************** function _test_border *****************
  2962 ;; Defined at:
  2963 ;;		line 142 in file "main.c"
  2964 ;; Parameters:    Size  Location     Type
  2965 ;;		None
  2966 ;; Auto vars:     Size  Location     Type
  2967 ;;  page            1   13[COMMON] unsigned char 
  2968 ;;  col             1   12[COMMON] unsigned char 
  2969 ;; Return value:  Size  Location     Type
  2970 ;;                  1    wreg      void 
  2971 ;; Registers used:
  2972 ;;		wreg, status,2, status,0, pclath, cstack
  2973 ;; Tracked objects:
  2974 ;;		On entry : 0/0
  2975 ;;		On exit  : 0/0
  2976 ;;		Unchanged: 0/0
  2977 ;; Data sizes:     COMMON   BANK0   BANK1   BANK2   BANK3   BANK4   BANK5   BANK6   BANK7   BANK8   BANK9  BANK10  BANK1
      +1  BANK12  BANK13  BANK14  BANK15  BANK16  BANK17  BANK18  BANK19  BANK20  BANK21  BANK22  BANK23  BANK24  BANK25
  2978 ;;      Params:         0       0       0       0       0       0       0       0       0       0       0       0       
      +0       0       0       0       0       0       0       0       0       0       0       0       0       0       0
  2979 ;;      Locals:         2       0       0       0       0       0       0       0       0       0       0       0       
      +0       0       0       0       0       0       0       0       0       0       0       0       0       0       0
  2980 ;;      Temps:          1       0       0       0       0       0       0       0       0       0       0       0       
      +0       0       0       0       0       0       0       0       0       0       0       0       0       0       0
  2981 ;;      Totals:         3       0       0       0       0       0       0       0       0       0       0       0       
      +0       0       0       0       0       0       0       0       0       0       0       0       0       0       0
  2982 ;;Total ram usage:        3 bytes
  2983 ;; Hardware stack levels used: 1
  2984 ;; Hardware stack levels required when called: 4
  2985 ;; This function calls:
  2986 ;;		_OLED_data_start
  2987 ;;		_OLED_end
  2988 ;;		_OLED_fill
  2989 ;;		_OLED_send
  2990 ;; This function is called by:
  2991 ;;		_main
  2992 ;; This function uses a non-reentrant model
  2993 ;;
  2994                           
  2995     05ED                     _test_border:	
  2996                           ;psect for function _test_border
  2997                           
  2998     05ED                     l1554:	
  2999                           ;incstack = 0
  3000                           ; Regs used in _test_border: [wreg+status,2+status,0+pclath+cstack]
  3001                           
  3002                           
  3003                           ;main.c: 144:     uint8_t page, col;;main.c: 146:     OLED_fill(0x00);
  3004     05ED  3000               	movlw	0
  3005     05EE  3184  2490  3185   	fcall	_OLED_fill
  3006     05F1                     l1556:
  3007                           
  3008                           ;main.c: 148:     for(page = 0; page < 8; page++) {
  3009     05F1  01FD               	clrf	test_border@page
  3010     05F2                     l1562:
  3011                           
  3012                           ;main.c: 149:         OLED_data_start(page);
  3013     05F2  087D               	movf	test_border@page,w
  3014     05F3  3183  2396  3185   	fcall	_OLED_data_start
  3015     05F6                     l1564:
  3016                           
  3017                           ;main.c: 150:         for(col = 0; col < 128; col++) {
  3018     05F6  01FC               	clrf	test_border@col
  3019     05F7                     l1570:
  3020                           
  3021                           ;main.c: 151:             if(page == 0) {
  3022     05F7  087D               	movf	test_border@page,w
  3023     05F8  1D03               	btfss	3,2
  3024     05F9  2DFB               	goto	u761
  3025     05FA  2DFC               	goto	u760
  3026     05FB                     u761:
  3027     05FB  2E01               	goto	l1574
  3028     05FC                     u760:
  3029     05FC                     l1572:
  3030                           
  3031                           ;main.c: 152:                 OLED_send(0x01);
  3032     05FC  3001               	movlw	1
  3033     05FD  3183  236C  3185   	fcall	_OLED_send
  3034                           
  3035                           ;main.c: 153:             }
  3036     0600  2E20               	goto	l1586
  3037     0601                     l1574:
  3038     0601  3007               	movlw	7
  3039     0602  067D               	xorwf	test_border@page,w
  3040     0603  1D03               	btfss	3,2
  3041     0604  2E06               	goto	u771
  3042     0605  2E07               	goto	u770
  3043     0606                     u771:
  3044     0606  2E0C               	goto	l1578
  3045     0607                     u770:
  3046     0607                     l1576:
  3047                           
  3048                           ;main.c: 155:                 OLED_send(0x80);
  3049     0607  3080               	movlw	128
  3050     0608  3183  236C  3185   	fcall	_OLED_send
  3051                           
  3052                           ;main.c: 156:             }
  3053     060B  2E20               	goto	l1586
  3054     060C                     l1578:
  3055     060C  087C               	movf	test_border@col,w
  3056     060D  1903               	btfsc	3,2
  3057     060E  2E10               	goto	u781
  3058     060F  2E11               	goto	u780
  3059     0610                     u781:
  3060     0610  2E17               	goto	l1582
  3061     0611                     u780:
  3062     0611                     l1580:
  3063     0611  307F               	movlw	127
  3064     0612  067C               	xorwf	test_border@col,w
  3065     0613  1D03               	btfss	3,2
  3066     0614  2E16               	goto	u791
  3067     0615  2E17               	goto	u790
  3068     0616                     u791:
  3069     0616  2E1C               	goto	l1584
  3070     0617                     u790:
  3071     0617                     l1582:
  3072                           
  3073                           ;main.c: 158:                 OLED_send(0xFF);
  3074     0617  30FF               	movlw	255
  3075     0618  3183  236C  3185   	fcall	_OLED_send
  3076                           
  3077                           ;main.c: 159:             }
  3078     061B  2E20               	goto	l1586
  3079     061C                     l1584:
  3080                           
  3081                           ;main.c: 161:                 OLED_send(0x00);
  3082     061C  3000               	movlw	0
  3083     061D  3183  236C  3185   	fcall	_OLED_send
  3084     0620                     l1586:
  3085                           
  3086                           ;main.c: 163:         }
  3087     0620  3001               	movlw	1
  3088     0621  00FB               	movwf	??_test_border
  3089     0622  087B               	movf	??_test_border,w
  3090     0623  07FC               	addwf	test_border@col,f
  3091     0624                     l1588:
  3092     0624  3080               	movlw	128
  3093     0625  027C               	subwf	test_border@col,w
  3094     0626  1C03               	skipc
  3095     0627  2E29               	goto	u801
  3096     0628  2E2A               	goto	u800
  3097     0629                     u801:
  3098     0629  2DF7               	goto	l1570
  3099     062A                     u800:
  3100     062A                     l1590:
  3101                           
  3102                           ;main.c: 164:         OLED_end();
  3103     062A  3183  2368  3185   	fcall	_OLED_end
  3104     062D                     l1592:
  3105                           
  3106                           ;main.c: 165:     }
  3107     062D  3001               	movlw	1
  3108     062E  00FB               	movwf	??_test_border
  3109     062F  087B               	movf	??_test_border,w
  3110     0630  07FD               	addwf	test_border@page,f
  3111     0631                     l1594:
  3112     0631  3008               	movlw	8
  3113     0632  027D               	subwf	test_border@page,w
  3114     0633  1C03               	skipc
  3115     0634  2E36               	goto	u811
  3116     0635  2E37               	goto	u810
  3117     0636                     u811:
  3118     0636  2DF2               	goto	l1562
  3119     0637                     u810:
  3120     0637                     l205:
  3121     0637  0008               	return
  3122     0638                     __end_of_test_border:
  3123                           
  3124                           	psect	text9
  3125     036C                     __ptext9:	
  3126 ;; *************** function _OLED_send *****************
  3127 ;; Defined at:
  3128 ;;		line 121 in file "oled_min.c"
  3129 ;; Parameters:    Size  Location     Type
  3130 ;;  data            1    wreg     unsigned char 
  3131 ;; Auto vars:     Size  Location     Type
  3132 ;;  data            1    5[COMMON] unsigned char 
  3133 ;; Return value:  Size  Location     Type
  3134 ;;                  1    wreg      void 
  3135 ;; Registers used:
  3136 ;;		wreg, status,2, status,0, pclath, cstack
  3137 ;; Tracked objects:
  3138 ;;		On entry : 0/0
  3139 ;;		On exit  : 0/0
  3140 ;;		Unchanged: 0/0
  3141 ;; Data sizes:     COMMON   BANK0   BANK1   BANK2   BANK3   BANK4   BANK5   BANK6   BANK7   BANK8   BANK9  BANK10  BANK1
      +1  BANK12  BANK13  BANK14  BANK15  BANK16  BANK17  BANK18  BANK19  BANK20  BANK21  BANK22  BANK23  BANK24  BANK25
  3142 ;;      Params:         0       0       0       0       0       0       0       0       0       0       0       0       
      +0       0       0       0       0       0       0       0       0       0       0       0       0       0       0
  3143 ;;      Locals:         1       0       0       0       0       0       0       0       0       0       0       0       
      +0       0       0       0       0       0       0       0       0       0       0       0       0       0       0
  3144 ;;      Temps:          0       0       0       0       0       0       0       0       0       0       0       0       
      +0       0       0       0       0       0       0       0       0       0       0       0       0       0       0
  3145 ;;      Totals:         1       0       0       0       0       0       0       0       0       0       0       0       
      +0       0       0       0       0       0       0       0       0       0       0       0       0       0       0
  3146 ;;Total ram usage:        1 bytes
  3147 ;; Hardware stack levels used: 1
  3148 ;; Hardware stack levels required when called: 2
  3149 ;; This function calls:
  3150 ;;		_I2C_WriteByte
  3151 ;; This function is called by:
  3152 ;;		_test_horizontal_bars
  3153 ;;		_test_vertical_bars
  3154 ;;		_test_checkerboard
  3155 ;;		_test_border
  3156 ;;		_test_smiley
  3157 ;;		_test_hello
  3158 ;;		_test_scroll
  3159 ;; This function uses a non-reentrant model
  3160 ;;
  3161                           
  3162     036C                     _OLED_send:	
  3163                           ;psect for function _OLED_send
  3164                           
  3165                           
  3166                           ;incstack = 0
  3167                           ; Regs used in _OLED_send: [wreg+status,2+status,0+pclath+cstack]
  3168                           ;OLED_send@data stored from wreg
  3169     036C  00F5               	movwf	OLED_send@data
  3170     036D                     l1462:
  3171                           
  3172                           ;oled_min.c: 121: void OLED_send(uint8_t data);oled_min.c: 122: {;oled_min.c: 123:     I
      +                          2C_WriteByte(data);
  3173     036D  0875               	movf	OLED_send@data,w
  3174     036E  3184  24E3  3183   	fcall	_I2C_WriteByte
  3175     0371                     l277:
  3176     0371  0008               	return
  3177     0372                     __end_of_OLED_send:
  3178                           
  3179                           	psect	text10
  3180     0490                     __ptext10:	
  3181 ;; *************** function _OLED_fill *****************
  3182 ;; Defined at:
  3183 ;;		line 81 in file "oled_min.c"
  3184 ;; Parameters:    Size  Location     Type
  3185 ;;  pattern         1    wreg     unsigned char 
  3186 ;; Auto vars:     Size  Location     Type
  3187 ;;  pattern         1    8[COMMON] unsigned char 
  3188 ;;  i               2    9[COMMON] unsigned short 
  3189 ;; Return value:  Size  Location     Type
  3190 ;;                  1    wreg      void 
  3191 ;; Registers used:
  3192 ;;		wreg, status,2, status,0, pclath, cstack
  3193 ;; Tracked objects:
  3194 ;;		On entry : 0/0
  3195 ;;		On exit  : 0/0
  3196 ;;		Unchanged: 0/0
  3197 ;; Data sizes:     COMMON   BANK0   BANK1   BANK2   BANK3   BANK4   BANK5   BANK6   BANK7   BANK8   BANK9  BANK10  BANK1
      +1  BANK12  BANK13  BANK14  BANK15  BANK16  BANK17  BANK18  BANK19  BANK20  BANK21  BANK22  BANK23  BANK24  BANK25
  3198 ;;      Params:         0       0       0       0       0       0       0       0       0       0       0       0       
      +0       0       0       0       0       0       0       0       0       0       0       0       0       0       0
  3199 ;;      Locals:         3       0       0       0       0       0       0       0       0       0       0       0       
      +0       0       0       0       0       0       0       0       0       0       0       0       0       0       0
  3200 ;;      Temps:          0       0       0       0       0       0       0       0       0       0       0       0       
      +0       0       0       0       0       0       0       0       0       0       0       0       0       0       0
  3201 ;;      Totals:         3       0       0       0       0       0       0       0       0       0       0       0       
      +0       0       0       0       0       0       0       0       0       0       0       0       0       0       0
  3202 ;;Total ram usage:        3 bytes
  3203 ;; Hardware stack levels used: 1
  3204 ;; Hardware stack levels required when called: 3
  3205 ;; This function calls:
  3206 ;;		_I2C_Start
  3207 ;;		_I2C_Stop
  3208 ;;		_I2C_WriteByte
  3209 ;;		_OLED_setpos
  3210 ;; This function is called by:
  3211 ;;		_test_fill_pattern
  3212 ;;		_test_border
  3213 ;;		_test_smiley
  3214 ;;		_test_hello
  3215 ;;		_main
  3216 ;; This function uses a non-reentrant model
  3217 ;;
  3218                           
  3219     0490                     _OLED_fill:	
  3220                           ;psect for function _OLED_fill
  3221                           
  3222                           
  3223                           ;incstack = 0
  3224                           ; Regs used in _OLED_fill: [wreg+status,2+status,0+pclath+cstack]
  3225                           ;OLED_fill@pattern stored from wreg
  3226     0490  00F8               	movwf	OLED_fill@pattern
  3227     0491                     l1444:
  3228                           
  3229                           ;oled_min.c: 81: void OLED_fill(uint8_t pattern);oled_min.c: 82: {;oled_min.c: 83:     u
      +                          int16_t i;;oled_min.c: 85:     OLED_setpos(0, 0);
  3230     0491  01F5               	clrf	OLED_setpos@y
  3231     0492  3000               	movlw	0
  3232     0493  3184  246A  3184   	fcall	_OLED_setpos
  3233                           
  3234                           ;oled_min.c: 87:     I2C_Start();
  3235     0496  3183  23DB  3184   	fcall	_I2C_Start
  3236                           
  3237                           ;oled_min.c: 88:     I2C_WriteByte(0x78);
  3238     0499  3078               	movlw	120
  3239     049A  3184  24E3  3184   	fcall	_I2C_WriteByte
  3240                           
  3241                           ;oled_min.c: 89:     I2C_WriteByte(0x40);
  3242     049D  3040               	movlw	64
  3243     049E  3184  24E3  3184   	fcall	_I2C_WriteByte
  3244     04A1                     l1446:
  3245                           
  3246                           ;oled_min.c: 92:     for (i = 0; i < 1024; i++) {
  3247     04A1  01F9               	clrf	OLED_fill@i
  3248     04A2  01FA               	clrf	OLED_fill@i+1
  3249     04A3                     l1452:
  3250                           
  3251                           ;oled_min.c: 93:         I2C_WriteByte(pattern);
  3252     04A3  0878               	movf	OLED_fill@pattern,w
  3253     04A4  3184  24E3  3184   	fcall	_I2C_WriteByte
  3254     04A7                     l1454:
  3255                           
  3256                           ;oled_min.c: 94:     }
  3257     04A7  3001               	movlw	1
  3258     04A8  07F9               	addwf	OLED_fill@i,f
  3259     04A9  3000               	movlw	0
  3260     04AA  3DFA               	addwfc	OLED_fill@i+1,f
  3261     04AB                     l1456:
  3262     04AB  3004               	movlw	4
  3263     04AC  027A               	subwf	OLED_fill@i+1,w
  3264     04AD  3000               	movlw	0
  3265     04AE  1903               	skipnz
  3266     04AF  0279               	subwf	OLED_fill@i,w
  3267     04B0  1C03               	skipc
  3268     04B1  2CB3               	goto	u661
  3269     04B2  2CB4               	goto	u660
  3270     04B3                     u661:
  3271     04B3  2CA3               	goto	l1452
  3272     04B4                     u660:
  3273     04B4                     l1458:
  3274                           
  3275                           ;oled_min.c: 96:     I2C_Stop();
  3276     04B4  3183  23FE  3184   	fcall	_I2C_Stop
  3277     04B7                     l271:
  3278     04B7  0008               	return
  3279     04B8                     __end_of_OLED_fill:
  3280                           
  3281                           	psect	text11
  3282     0368                     __ptext11:	
  3283 ;; *************** function _OLED_end *****************
  3284 ;; Defined at:
  3285 ;;		line 132 in file "oled_min.c"
  3286 ;; Parameters:    Size  Location     Type
  3287 ;;		None
  3288 ;; Auto vars:     Size  Location     Type
  3289 ;;		None
  3290 ;; Return value:  Size  Location     Type
  3291 ;;                  1    wreg      void 
  3292 ;; Registers used:
  3293 ;;		wreg, status,2, status,0, pclath, cstack
  3294 ;; Tracked objects:
  3295 ;;		On entry : 0/0
  3296 ;;		On exit  : 0/0
  3297 ;;		Unchanged: 0/0
  3298 ;; Data sizes:     COMMON   BANK0   BANK1   BANK2   BANK3   BANK4   BANK5   BANK6   BANK7   BANK8   BANK9  BANK10  BANK1
      +1  BANK12  BANK13  BANK14  BANK15  BANK16  BANK17  BANK18  BANK19  BANK20  BANK21  BANK22  BANK23  BANK24  BANK25
  3299 ;;      Params:         0       0       0       0       0       0       0       0       0       0       0       0       
      +0       0       0       0       0       0       0       0       0       0       0       0       0       0       0
  3300 ;;      Locals:         0       0       0       0       0       0       0       0       0       0       0       0       
      +0       0       0       0       0       0       0       0       0       0       0       0       0       0       0
  3301 ;;      Temps:          0       0       0       0       0       0       0       0       0       0       0       0       
      +0       0       0       0       0       0       0       0       0       0       0       0       0       0       0
  3302 ;;      Totals:         0       0       0       0       0       0       0       0       0       0       0       0       
      +0       0       0       0       0       0       0       0       0       0       0       0       0       0       0
  3303 ;;Total ram usage:        0 bytes
  3304 ;; Hardware stack levels used: 1
  3305 ;; Hardware stack levels required when called: 2
  3306 ;; This function calls:
  3307 ;;		_I2C_Stop
  3308 ;; This function is called by:
  3309 ;;		_test_horizontal_bars
  3310 ;;		_test_vertical_bars
  3311 ;;		_test_checkerboard
  3312 ;;		_test_border
  3313 ;;		_test_smiley
  3314 ;;		_test_hello
  3315 ;;		_test_scroll
  3316 ;; This function uses a non-reentrant model
  3317 ;;
  3318                           
  3319     0368                     _OLED_end:	
  3320                           ;psect for function _OLED_end
  3321                           
  3322     0368                     l1464:	
  3323                           ;incstack = 0
  3324                           ; Regs used in _OLED_end: [wreg+status,2+status,0+pclath+cstack]
  3325                           
  3326                           
  3327                           ;oled_min.c: 134:     I2C_Stop();
  3328     0368  3183  23FE  3183   	fcall	_I2C_Stop
  3329     036B                     l280:
  3330     036B  0008               	return
  3331     036C                     __end_of_OLED_end:
  3332                           
  3333                           	psect	text12
  3334     0396                     __ptext12:	
  3335 ;; *************** function _OLED_data_start *****************
  3336 ;; Defined at:
  3337 ;;		line 106 in file "oled_min.c"
  3338 ;; Parameters:    Size  Location     Type
  3339 ;;  page            1    wreg     unsigned char 
  3340 ;; Auto vars:     Size  Location     Type
  3341 ;;  page            1    8[COMMON] unsigned char 
  3342 ;; Return value:  Size  Location     Type
  3343 ;;                  1    wreg      void 
  3344 ;; Registers used:
  3345 ;;		wreg, status,2, status,0, pclath, cstack
  3346 ;; Tracked objects:
  3347 ;;		On entry : 0/0
  3348 ;;		On exit  : 0/0
  3349 ;;		Unchanged: 0/0
  3350 ;; Data sizes:     COMMON   BANK0   BANK1   BANK2   BANK3   BANK4   BANK5   BANK6   BANK7   BANK8   BANK9  BANK10  BANK1
      +1  BANK12  BANK13  BANK14  BANK15  BANK16  BANK17  BANK18  BANK19  BANK20  BANK21  BANK22  BANK23  BANK24  BANK25
  3351 ;;      Params:         0       0       0       0       0       0       0       0       0       0       0       0       
      +0       0       0       0       0       0       0       0       0       0       0       0       0       0       0
  3352 ;;      Locals:         1       0       0       0       0       0       0       0       0       0       0       0       
      +0       0       0       0       0       0       0       0       0       0       0       0       0       0       0
  3353 ;;      Temps:          0       0       0       0       0       0       0       0       0       0       0       0       
      +0       0       0       0       0       0       0       0       0       0       0       0       0       0       0
  3354 ;;      Totals:         1       0       0       0       0       0       0       0       0       0       0       0       
      +0       0       0       0       0       0       0       0       0       0       0       0       0       0       0
  3355 ;;Total ram usage:        1 bytes
  3356 ;; Hardware stack levels used: 1
  3357 ;; Hardware stack levels required when called: 3
  3358 ;; This function calls:
  3359 ;;		_I2C_Start
  3360 ;;		_I2C_WriteByte
  3361 ;;		_OLED_setpos
  3362 ;; This function is called by:
  3363 ;;		_test_horizontal_bars
  3364 ;;		_test_vertical_bars
  3365 ;;		_test_checkerboard
  3366 ;;		_test_border
  3367 ;;		_test_smiley
  3368 ;;		_test_hello
  3369 ;;		_test_scroll
  3370 ;; This function uses a non-reentrant model
  3371 ;;
  3372                           
  3373     0396                     _OLED_data_start:	
  3374                           ;psect for function _OLED_data_start
  3375                           
  3376                           
  3377                           ;incstack = 0
  3378                           ; Regs used in _OLED_data_start: [wreg+status,2+status,0+pclath+cstack]
  3379                           ;OLED_data_start@page stored from wreg
  3380     0396  00F8               	movwf	OLED_data_start@page
  3381     0397                     l1460:
  3382                           
  3383                           ;oled_min.c: 106: void OLED_data_start(uint8_t page);oled_min.c: 107: {;oled_min.c: 108:
      +                               OLED_setpos(0, page);
  3384     0397  0878               	movf	OLED_data_start@page,w
  3385     0398  00F5               	movwf	OLED_setpos@y
  3386     0399  3000               	movlw	0
  3387     039A  3184  246A  3183   	fcall	_OLED_setpos
  3388                           
  3389                           ;oled_min.c: 110:     I2C_Start();
  3390     039D  3183  23DB  3183   	fcall	_I2C_Start
  3391                           
  3392                           ;oled_min.c: 111:     I2C_WriteByte(0x78);
  3393     03A0  3078               	movlw	120
  3394     03A1  3184  24E3  3183   	fcall	_I2C_WriteByte
  3395                           
  3396                           ;oled_min.c: 112:     I2C_WriteByte(0x40);
  3397     03A4  3040               	movlw	64
  3398     03A5  3184  24E3  3183   	fcall	_I2C_WriteByte
  3399     03A8                     l274:
  3400     03A8  0008               	return
  3401     03A9                     __end_of_OLED_data_start:
  3402                           
  3403                           	psect	text13
  3404     046A                     __ptext13:	
  3405 ;; *************** function _OLED_setpos *****************
  3406 ;; Defined at:
  3407 ;;		line 64 in file "oled_min.c"
  3408 ;; Parameters:    Size  Location     Type
  3409 ;;  x               1    wreg     unsigned char 
  3410 ;;  y               1    5[COMMON] unsigned char 
  3411 ;; Auto vars:     Size  Location     Type
  3412 ;;  x               1    7[COMMON] unsigned char 
  3413 ;; Return value:  Size  Location     Type
  3414 ;;                  1    wreg      void 
  3415 ;; Registers used:
  3416 ;;		wreg, status,2, status,0, pclath, cstack
  3417 ;; Tracked objects:
  3418 ;;		On entry : 0/0
  3419 ;;		On exit  : 0/0
  3420 ;;		Unchanged: 0/0
  3421 ;; Data sizes:     COMMON   BANK0   BANK1   BANK2   BANK3   BANK4   BANK5   BANK6   BANK7   BANK8   BANK9  BANK10  BANK1
      +1  BANK12  BANK13  BANK14  BANK15  BANK16  BANK17  BANK18  BANK19  BANK20  BANK21  BANK22  BANK23  BANK24  BANK25
  3422 ;;      Params:         1       0       0       0       0       0       0       0       0       0       0       0       
      +0       0       0       0       0       0       0       0       0       0       0       0       0       0       0
  3423 ;;      Locals:         1       0       0       0       0       0       0       0       0       0       0       0       
      +0       0       0       0       0       0       0       0       0       0       0       0       0       0       0
  3424 ;;      Temps:          1       0       0       0       0       0       0       0       0       0       0       0       
      +0       0       0       0       0       0       0       0       0       0       0       0       0       0       0
  3425 ;;      Totals:         3       0       0       0       0       0       0       0       0       0       0       0       
      +0       0       0       0       0       0       0       0       0       0       0       0       0       0       0
  3426 ;;Total ram usage:        3 bytes
  3427 ;; Hardware stack levels used: 1
  3428 ;; Hardware stack levels required when called: 2
  3429 ;; This function calls:
  3430 ;;		_I2C_Start
  3431 ;;		_I2C_Stop
  3432 ;;		_I2C_WriteByte
  3433 ;; This function is called by:
  3434 ;;		_OLED_fill
  3435 ;;		_OLED_data_start
  3436 ;; This function uses a non-reentrant model
  3437 ;;
  3438                           
  3439     046A                     _OLED_setpos:	
  3440                           ;psect for function _OLED_setpos
  3441                           
  3442                           
  3443                           ;incstack = 0
  3444                           ; Regs used in _OLED_setpos: [wreg+status,2+status,0+pclath+cstack]
  3445                           ;OLED_setpos@x stored from wreg
  3446     046A  00F7               	movwf	OLED_setpos@x
  3447     046B                     l1442:
  3448                           
  3449                           ;oled_min.c: 64: void OLED_setpos(uint8_t x, uint8_t y);oled_min.c: 65: {;oled_min.c: 66
      +                          :     I2C_Start();
  3450     046B  3183  23DB  3184   	fcall	_I2C_Start
  3451                           
  3452                           ;oled_min.c: 67:     I2C_WriteByte(0x78);
  3453     046E  3078               	movlw	120
  3454     046F  3184  24E3  3184   	fcall	_I2C_WriteByte
  3455                           
  3456                           ;oled_min.c: 68:     I2C_WriteByte(0x00);
  3457     0472  3000               	movlw	0
  3458     0473  3184  24E3  3184   	fcall	_I2C_WriteByte
  3459                           
  3460                           ;oled_min.c: 69:     I2C_WriteByte(0xB0 | (y & 0x07));
  3461     0476  0875               	movf	OLED_setpos@y,w
  3462     0477  3907               	andlw	7
  3463     0478  38B0               	iorlw	176
  3464     0479  3184  24E3  3184   	fcall	_I2C_WriteByte
  3465                           
  3466                           ;oled_min.c: 70:     I2C_WriteByte(x & 0x0F);
  3467     047C  0877               	movf	OLED_setpos@x,w
  3468     047D  390F               	andlw	15
  3469     047E  3184  24E3  3184   	fcall	_I2C_WriteByte
  3470                           
  3471                           ;oled_min.c: 71:     I2C_WriteByte(0x10 | (x >> 4));
  3472     0481  0877               	movf	OLED_setpos@x,w
  3473     0482  00F6               	movwf	??_OLED_setpos
  3474     0483  3004               	movlw	4
  3475     0484                     u655:
  3476     0484  36F6               	lsrf	??_OLED_setpos,f
  3477     0485  0B89               	decfsz	9,f
  3478     0486  2C84               	goto	u655
  3479     0487  0876               	movf	??_OLED_setpos,w
  3480     0488  3810               	iorlw	16
  3481     0489  3184  24E3  3184   	fcall	_I2C_WriteByte
  3482                           
  3483                           ;oled_min.c: 72:     I2C_Stop();
  3484     048C  3183  23FE  3184   	fcall	_I2C_Stop
  3485     048F                     l266:
  3486     048F  0008               	return
  3487     0490                     __end_of_OLED_setpos:
  3488                           
  3489                           	psect	text14
  3490     0540                     __ptext14:	
  3491 ;; *************** function _initMain *****************
  3492 ;; Defined at:
  3493 ;;		line 50 in file "main.c"
  3494 ;; Parameters:    Size  Location     Type
  3495 ;;		None
  3496 ;; Auto vars:     Size  Location     Type
  3497 ;;		None
  3498 ;; Return value:  Size  Location     Type
  3499 ;;                  1    wreg      void 
  3500 ;; Registers used:
  3501 ;;		wreg, status,2, status,0, pclath, cstack
  3502 ;; Tracked objects:
  3503 ;;		On entry : 0/0
  3504 ;;		On exit  : 0/0
  3505 ;;		Unchanged: 0/0
  3506 ;; Data sizes:     COMMON   BANK0   BANK1   BANK2   BANK3   BANK4   BANK5   BANK6   BANK7   BANK8   BANK9  BANK10  BANK1
      +1  BANK12  BANK13  BANK14  BANK15  BANK16  BANK17  BANK18  BANK19  BANK20  BANK21  BANK22  BANK23  BANK24  BANK25
  3507 ;;      Params:         0       0       0       0       0       0       0       0       0       0       0       0       
      +0       0       0       0       0       0       0       0       0       0       0       0       0       0       0
  3508 ;;      Locals:         0       0       0       0       0       0       0       0       0       0       0       0       
      +0       0       0       0       0       0       0       0       0       0       0       0       0       0       0
  3509 ;;      Temps:          2       0       0       0       0       0       0       0       0       0       0       0       
      +0       0       0       0       0       0       0       0       0       0       0       0       0       0       0
  3510 ;;      Totals:         2       0       0       0       0       0       0       0       0       0       0       0       
      +0       0       0       0       0       0       0       0       0       0       0       0       0       0       0
  3511 ;;Total ram usage:        2 bytes
  3512 ;; Hardware stack levels used: 1
  3513 ;; Hardware stack levels required when called: 1
  3514 ;; This function calls:
  3515 ;;		_internal_32
  3516 ;; This function is called by:
  3517 ;;		_main
  3518 ;; This function uses a non-reentrant model
  3519 ;;
  3520                           
  3521     0540                     _initMain:	
  3522                           ;psect for function _initMain
  3523                           
  3524     0540                     l920:	
  3525                           ;incstack = 0
  3526                           ; Regs used in _initMain: [wreg+status,2+status,0+pclath+cstack]
  3527                           
  3528                           
  3529                           ;main.c: 53:     internal_32();
  3530     0540  3183  238D  3185   	fcall	_internal_32
  3531     0543                     l922:
  3532                           
  3533                           ;main.c: 54:     _delay((unsigned long)((100)*(32000000/4000.0)));
  3534     0543  3005               	movlw	5
  3535     0544  00F1               	movwf	??_initMain+1
  3536     0545  300F               	movlw	15
  3537     0546  00F0               	movwf	??_initMain
  3538     0547  30F1               	movlw	241
  3539     0548                     u1187:
  3540     0548  0B89               	decfsz	9,f
  3541     0549  2D48               	goto	u1187
  3542     054A  0BF0               	decfsz	??_initMain,f
  3543     054B  2D48               	goto	u1187
  3544     054C  0BF1               	decfsz	??_initMain+1,f
  3545     054D  2D48               	goto	u1187
  3546     054E  0000               	nop
  3547     054F                     l924:
  3548                           
  3549                           ;main.c: 57:     ANSELCbits.ANSC4 = 0;
  3550     054F  0023               	movlb	3	; select bank3
  3551     0550  120E               	bcf	14,4	;volatile
  3552     0551                     l926:
  3553                           
  3554                           ;main.c: 58:     ANSELCbits.ANSC5 = 0;
  3555     0551  128E               	bcf	14,5	;volatile
  3556     0552                     l928:
  3557                           
  3558                           ;main.c: 59:     TRISCbits.TRISC4 = 1;
  3559     0552  0021               	movlb	1	; select bank1
  3560     0553  160E               	bsf	14,4	;volatile
  3561     0554                     l930:
  3562                           
  3563                           ;main.c: 60:     TRISCbits.TRISC5 = 1;
  3564     0554  168E               	bsf	14,5	;volatile
  3565     0555                     l932:
  3566                           
  3567                           ;main.c: 63:     PPSLOCK = 0x55;
  3568     0555  3055               	movlw	85
  3569     0556  003C               	movlb	28	; select bank28
  3570     0557  008F               	movwf	15	;volsfr
  3571     0558                     l934:
  3572                           
  3573                           ;main.c: 64:     PPSLOCK = 0xAA;
  3574     0558  30AA               	movlw	170
  3575     0559  008F               	movwf	15	;volsfr
  3576     055A                     l936:
  3577                           
  3578                           ;main.c: 65:     PPSLOCKbits.PPSLOCKED = 0;
  3579     055A  100F               	bcf	15,0	;volsfr
  3580     055B                     l938:
  3581                           
  3582                           ;main.c: 68:     RC4PPSbits.RC4PPS = 0x11;
  3583     055B  003D               	movlb	29	; select bank29
  3584     055C  0824               	movf	36,w	;volatile
  3585     055D  39E0               	andlw	-32
  3586     055E  3811               	iorlw	17
  3587     055F  00A4               	movwf	36	;volatile
  3588     0560                     l940:
  3589                           
  3590                           ;main.c: 69:     SSPDATPPSbits.SSPDATPPS = 0x14;
  3591     0560  003C               	movlb	28	; select bank28
  3592     0561  0821               	movf	33,w	;volatile
  3593     0562  39E0               	andlw	-32
  3594     0563  3814               	iorlw	20
  3595     0564  00A1               	movwf	33	;volatile
  3596     0565                     l942:
  3597                           
  3598                           ;main.c: 72:     SSPCLKPPSbits.SSPCLKPPS = 0x15;
  3599     0565  0820               	movf	32,w	;volatile
  3600     0566  39E0               	andlw	-32
  3601     0567  3815               	iorlw	21
  3602     0568  00A0               	movwf	32	;volatile
  3603     0569                     l944:
  3604                           
  3605                           ;main.c: 73:     RC5PPSbits.RC5PPS = 0x10;
  3606     0569  003D               	movlb	29	; select bank29
  3607     056A  0825               	movf	37,w	;volatile
  3608     056B  39E0               	andlw	-32
  3609     056C  3810               	iorlw	16
  3610     056D  00A5               	movwf	37	;volatile
  3611     056E                     l946:
  3612                           
  3613                           ;main.c: 75:     PPSLOCK = 0x55;
  3614     056E  3055               	movlw	85
  3615     056F  003C               	movlb	28	; select bank28
  3616     0570  008F               	movwf	15	;volsfr
  3617     0571                     l948:
  3618                           
  3619                           ;main.c: 76:     PPSLOCK = 0xAA;
  3620     0571  30AA               	movlw	170
  3621     0572  008F               	movwf	15	;volsfr
  3622     0573                     l950:
  3623                           
  3624                           ;main.c: 77:     PPSLOCKbits.PPSLOCKED = 1;
  3625     0573  140F               	bsf	15,0	;volsfr
  3626     0574                     l160:
  3627     0574  0008               	return
  3628     0575                     __end_of_initMain:
  3629                           
  3630                           	psect	text15
  3631     038D                     __ptext15:	
  3632 ;; *************** function _internal_32 *****************
  3633 ;; Defined at:
  3634 ;;		line 36 in file "PIC16F1718_Internal.c"
  3635 ;; Parameters:    Size  Location     Type
  3636 ;;		None
  3637 ;; Auto vars:     Size  Location     Type
  3638 ;;		None
  3639 ;; Return value:  Size  Location     Type
  3640 ;;                  1    wreg      void 
  3641 ;; Registers used:
  3642 ;;		None
  3643 ;; Tracked objects:
  3644 ;;		On entry : 0/0
  3645 ;;		On exit  : 0/0
  3646 ;;		Unchanged: 0/0
  3647 ;; Data sizes:     COMMON   BANK0   BANK1   BANK2   BANK3   BANK4   BANK5   BANK6   BANK7   BANK8   BANK9  BANK10  BANK1
      +1  BANK12  BANK13  BANK14  BANK15  BANK16  BANK17  BANK18  BANK19  BANK20  BANK21  BANK22  BANK23  BANK24  BANK25
  3648 ;;      Params:         0       0       0       0       0       0       0       0       0       0       0       0       
      +0       0       0       0       0       0       0       0       0       0       0       0       0       0       0
  3649 ;;      Locals:         0       0       0       0       0       0       0       0       0       0       0       0       
      +0       0       0       0       0       0       0       0       0       0       0       0       0       0       0
  3650 ;;      Temps:          0       0       0       0       0       0       0       0       0       0       0       0       
      +0       0       0       0       0       0       0       0       0       0       0       0       0       0       0
  3651 ;;      Totals:         0       0       0       0       0       0       0       0       0       0       0       0       
      +0       0       0       0       0       0       0       0       0       0       0       0       0       0       0
  3652 ;;Total ram usage:        0 bytes
  3653 ;; Hardware stack levels used: 1
  3654 ;; This function calls:
  3655 ;;		Nothing
  3656 ;; This function is called by:
  3657 ;;		_initMain
  3658 ;; This function uses a non-reentrant model
  3659 ;;
  3660                           
  3661     038D                     _internal_32:	
  3662                           ;psect for function _internal_32
  3663                           
  3664     038D                     l884:	
  3665                           ;incstack = 0
  3666                           ; Regs used in _internal_32: []
  3667                           
  3668                           
  3669                           ;PIC16F1718_Internal.c: 38:     SCS0 = 0;
  3670     038D  0021               	movlb	1	; select bank1
  3671     038E  1019               	bcf	25,0	;volatile
  3672                           
  3673                           ;PIC16F1718_Internal.c: 39:     SCS1 = 0;
  3674     038F  1099               	bcf	25,1	;volatile
  3675                           
  3676                           ;PIC16F1718_Internal.c: 42:     IRCF0 = 0;
  3677     0390  1199               	bcf	25,3	;volatile
  3678                           
  3679                           ;PIC16F1718_Internal.c: 43:     IRCF1 = 1;
  3680     0391  1619               	bsf	25,4	;volatile
  3681                           
  3682                           ;PIC16F1718_Internal.c: 44:     IRCF2 = 1;
  3683     0392  1699               	bsf	25,5	;volatile
  3684                           
  3685                           ;PIC16F1718_Internal.c: 45:     IRCF3 = 1;
  3686     0393  1719               	bsf	25,6	;volatile
  3687                           
  3688                           ;PIC16F1718_Internal.c: 48:     SPLLEN = 1;
  3689     0394  1799               	bsf	25,7	;volatile
  3690     0395                     l17:
  3691     0395  0008               	return
  3692     0396                     __end_of_internal_32:
  3693                           
  3694                           	psect	text16
  3695     0445                     __ptext16:	
  3696 ;; *************** function _OLED_init *****************
  3697 ;; Defined at:
  3698 ;;		line 43 in file "oled_min.c"
  3699 ;; Parameters:    Size  Location     Type
  3700 ;;		None
  3701 ;; Auto vars:     Size  Location     Type
  3702 ;;  i               1    6[COMMON] unsigned char 
  3703 ;; Return value:  Size  Location     Type
  3704 ;;                  1    wreg      void 
  3705 ;; Registers used:
  3706 ;;		wreg, fsr0l, fsr0h, status,2, status,0, pclath, cstack
  3707 ;; Tracked objects:
  3708 ;;		On entry : 0/0
  3709 ;;		On exit  : 0/0
  3710 ;;		Unchanged: 0/0
  3711 ;; Data sizes:     COMMON   BANK0   BANK1   BANK2   BANK3   BANK4   BANK5   BANK6   BANK7   BANK8   BANK9  BANK10  BANK1
      +1  BANK12  BANK13  BANK14  BANK15  BANK16  BANK17  BANK18  BANK19  BANK20  BANK21  BANK22  BANK23  BANK24  BANK25
  3712 ;;      Params:         0       0       0       0       0       0       0       0       0       0       0       0       
      +0       0       0       0       0       0       0       0       0       0       0       0       0       0       0
  3713 ;;      Locals:         1       0       0       0       0       0       0       0       0       0       0       0       
      +0       0       0       0       0       0       0       0       0       0       0       0       0       0       0
  3714 ;;      Temps:          1       0       0       0       0       0       0       0       0       0       0       0       
      +0       0       0       0       0       0       0       0       0       0       0       0       0       0       0
  3715 ;;      Totals:         2       0       0       0       0       0       0       0       0       0       0       0       
      +0       0       0       0       0       0       0       0       0       0       0       0       0       0       0
  3716 ;;Total ram usage:        2 bytes
  3717 ;; Hardware stack levels used: 1
  3718 ;; Hardware stack levels required when called: 2
  3719 ;; This function calls:
  3720 ;;		_I2C_Start
  3721 ;;		_I2C_Stop
  3722 ;;		_I2C_WriteByte
  3723 ;; This function is called by:
  3724 ;;		_main
  3725 ;; This function uses a non-reentrant model
  3726 ;;
  3727                           
  3728     0445                     _OLED_init:	
  3729                           ;psect for function _OLED_init
  3730                           
  3731     0445                     l1758:	
  3732                           ;incstack = 0
  3733                           ; Regs used in _OLED_init: [wreg-fsr0h+status,2+status,0+pclath+cstack]
  3734                           
  3735                           
  3736                           ;oled_min.c: 45:     uint8_t i;;oled_min.c: 47:     I2C_Start();
  3737     0445  3183  23DB  3184   	fcall	_I2C_Start
  3738                           
  3739                           ;oled_min.c: 48:     I2C_WriteByte(0x78);
  3740     0448  3078               	movlw	120
  3741     0449  3184  24E3  3184   	fcall	_I2C_WriteByte
  3742                           
  3743                           ;oled_min.c: 49:     I2C_WriteByte(0x00);
  3744     044C  3000               	movlw	0
  3745     044D  3184  24E3  3184   	fcall	_I2C_WriteByte
  3746     0450                     l1760:
  3747                           
  3748                           ;oled_min.c: 51:     for (i = 0; i < sizeof(OLED_INIT_CMD); i++) {
  3749     0450  01F6               	clrf	OLED_init@i
  3750     0451                     l1766:
  3751                           
  3752                           ;oled_min.c: 52:         I2C_WriteByte(OLED_INIT_CMD[i]);
  3753     0451  0876               	movf	OLED_init@i,w
  3754     0452  3E00               	addlw	low (_OLED_INIT_CMD| (0+32768))
  3755     0453  0084               	movwf	4
  3756     0454  3088               	movlw	high (_OLED_INIT_CMD| (0+32768))
  3757     0455  1803               	skipnc
  3758     0456  3E01               	addlw	1
  3759     0457  0085               	movwf	5
  3760     0458  0800               	movf	0,w	;code access
  3761     0459  3184  24E3  3184   	fcall	_I2C_WriteByte
  3762     045C                     l1768:
  3763                           
  3764                           ;oled_min.c: 53:     }
  3765     045C  3001               	movlw	1
  3766     045D  00F5               	movwf	??_OLED_init
  3767     045E  0875               	movf	??_OLED_init,w
  3768     045F  07F6               	addwf	OLED_init@i,f
  3769     0460                     l1770:
  3770     0460  3018               	movlw	24
  3771     0461  0276               	subwf	OLED_init@i,w
  3772     0462  1C03               	skipc
  3773     0463  2C65               	goto	u961
  3774     0464  2C66               	goto	u960
  3775     0465                     u961:
  3776     0465  2C51               	goto	l1766
  3777     0466                     u960:
  3778     0466                     l1772:
  3779                           
  3780                           ;oled_min.c: 55:     I2C_Stop();
  3781     0466  3183  23FE  3184   	fcall	_I2C_Stop
  3782     0469                     l263:
  3783     0469  0008               	return
  3784     046A                     __end_of_OLED_init:
  3785                           
  3786                           	psect	text17
  3787     04E3                     __ptext17:	
  3788 ;; *************** function _I2C_WriteByte *****************
  3789 ;; Defined at:
  3790 ;;		line 161 in file "I2C.c"
  3791 ;; Parameters:    Size  Location     Type
  3792 ;;  data            1    wreg     unsigned char 
  3793 ;; Auto vars:     Size  Location     Type
  3794 ;;  data            1    3[COMMON] unsigned char 
  3795 ;;  st              1    4[COMMON] enum E6036
  3796 ;; Return value:  Size  Location     Type
  3797 ;;                  1    wreg      enum E6036
  3798 ;; Registers used:
  3799 ;;		wreg, status,2, status,0, pclath, cstack
  3800 ;; Tracked objects:
  3801 ;;		On entry : 0/0
  3802 ;;		On exit  : 0/0
  3803 ;;		Unchanged: 0/0
  3804 ;; Data sizes:     COMMON   BANK0   BANK1   BANK2   BANK3   BANK4   BANK5   BANK6   BANK7   BANK8   BANK9  BANK10  BANK1
      +1  BANK12  BANK13  BANK14  BANK15  BANK16  BANK17  BANK18  BANK19  BANK20  BANK21  BANK22  BANK23  BANK24  BANK25
  3805 ;;      Params:         0       0       0       0       0       0       0       0       0       0       0       0       
      +0       0       0       0       0       0       0       0       0       0       0       0       0       0       0
  3806 ;;      Locals:         2       0       0       0       0       0       0       0       0       0       0       0       
      +0       0       0       0       0       0       0       0       0       0       0       0       0       0       0
  3807 ;;      Temps:          0       0       0       0       0       0       0       0       0       0       0       0       
      +0       0       0       0       0       0       0       0       0       0       0       0       0       0       0
  3808 ;;      Totals:         2       0       0       0       0       0       0       0       0       0       0       0       
      +0       0       0       0       0       0       0       0       0       0       0       0       0       0       0
  3809 ;;Total ram usage:        2 bytes
  3810 ;; Hardware stack levels used: 1
  3811 ;; Hardware stack levels required when called: 1
  3812 ;; This function calls:
  3813 ;;		_I2C_WaitIF
  3814 ;;		_I2C_WaitIdle
  3815 ;; This function is called by:
  3816 ;;		_OLED_init
  3817 ;;		_OLED_setpos
  3818 ;;		_OLED_fill
  3819 ;;		_OLED_data_start
  3820 ;;		_OLED_send
  3821 ;; This function uses a non-reentrant model
  3822 ;;
  3823                           
  3824     04E3                     _I2C_WriteByte:	
  3825                           ;psect for function _I2C_WriteByte
  3826                           
  3827                           
  3828                           ;incstack = 0
  3829                           ; Regs used in _I2C_WriteByte: [wreg+status,2+status,0+pclath+cstack]
  3830                           ;I2C_WriteByte@data stored from wreg
  3831     04E3  00F3               	movwf	I2C_WriteByte@data
  3832     04E4                     l1422:
  3833                           
  3834                           ;I2C.c: 161: I2C_Status_t I2C_WriteByte(uint8_t data);I2C.c: 162: {;I2C.c: 163:     I2C_
      +                          Status_t st;;I2C.c: 165:     st = I2C_WaitIdle(50);
  3835     04E4  3032               	movlw	50
  3836     04E5  00F0               	movwf	I2C_WaitIdle@timeout_ms
  3837     04E6  3000               	movlw	0
  3838     04E7  00F1               	movwf	I2C_WaitIdle@timeout_ms+1
  3839     04E8  3184  2421  3184   	fcall	_I2C_WaitIdle
  3840     04EB  00F4               	movwf	I2C_WriteByte@st
  3841     04EC                     l1424:
  3842                           
  3843                           ;I2C.c: 166:     if (st != I2C_OK) return st;
  3844     04EC  0874               	movf	I2C_WriteByte@st,w
  3845     04ED  1903               	btfsc	3,2
  3846     04EE  2CF0               	goto	u621
  3847     04EF  2CF1               	goto	u620
  3848     04F0                     u621:
  3849     04F0  2CF2               	goto	l95
  3850     04F1                     u620:
  3851     04F1  2D0F               	goto	l96
  3852     04F2                     l95:
  3853                           
  3854                           ;I2C.c: 168:     PIR1bits.SSP1IF = 0;
  3855     04F2  0020               	movlb	0	; select bank0
  3856     04F3  1191               	bcf	17,3	;volatile
  3857     04F4                     l1428:
  3858                           
  3859                           ;I2C.c: 169:     SSPBUF = data;
  3860     04F4  0873               	movf	I2C_WriteByte@data,w
  3861     04F5  0024               	movlb	4	; select bank4
  3862     04F6  0091               	movwf	17	;volatile
  3863     04F7                     l1430:
  3864                           
  3865                           ;I2C.c: 171:     st = I2C_WaitIF(50);
  3866     04F7  3032               	movlw	50
  3867     04F8  00F0               	movwf	I2C_WaitIF@timeout_ms
  3868     04F9  3000               	movlw	0
  3869     04FA  00F1               	movwf	I2C_WaitIF@timeout_ms+1
  3870     04FB  3183  23BD  3184   	fcall	_I2C_WaitIF
  3871     04FE  00F4               	movwf	I2C_WriteByte@st
  3872     04FF                     l1432:
  3873                           
  3874                           ;I2C.c: 172:     if (st != I2C_OK) return st;
  3875     04FF  0874               	movf	I2C_WriteByte@st,w
  3876     0500  1903               	btfsc	3,2
  3877     0501  2D03               	goto	u631
  3878     0502  2D04               	goto	u630
  3879     0503                     u631:
  3880     0503  2D05               	goto	l97
  3881     0504                     u630:
  3882     0504  2D0F               	goto	l96
  3883     0505                     l97:
  3884                           
  3885                           ;I2C.c: 175:     if (PIR2bits.BCL1IF)
  3886     0505  0020               	movlb	0	; select bank0
  3887     0506  1D92               	btfss	18,3	;volatile
  3888     0507  2D09               	goto	u641
  3889     0508  2D0A               	goto	u640
  3890     0509                     u641:
  3891     0509  2D0C               	goto	l98
  3892     050A                     u640:
  3893     050A                     l1436:
  3894                           
  3895                           ;I2C.c: 176:     {;I2C.c: 177:         PIR2bits.BCL1IF = 0;
  3896     050A  1192               	bcf	18,3	;volatile
  3897                           
  3898                           ;I2C.c: 178:         return I2C_BUS_COLLISION;;	Return value of _I2C_WriteByte is never 
      +                          used
  3899     050B  2D0F               	goto	l96
  3900     050C                     l98:	
  3901                           ;I2C.c: 179:     }
  3902                           
  3903                           
  3904                           ;I2C.c: 182:     PIR1bits.SSP1IF = 0;
  3905     050C  1191               	bcf	17,3	;volatile
  3906     050D                     l1438:
  3907                           
  3908                           ;I2C.c: 183:     return (SSPCON2bits.ACKSTAT == 0) ? I2C_OK : I2C_NAK;;	Return value of 
      +                          _I2C_WriteByte is never used
  3909     050D  0024               	movlb	4	; select bank4
  3910     050E  0816               	movf	22,w	;volatile
  3911     050F                     l96:
  3912     050F  0008               	return
  3913     0510                     __end_of_I2C_WriteByte:
  3914                           
  3915                           	psect	text18
  3916     03FE                     __ptext18:	
  3917 ;; *************** function _I2C_Stop *****************
  3918 ;; Defined at:
  3919 ;;		line 138 in file "I2C.c"
  3920 ;; Parameters:    Size  Location     Type
  3921 ;;		None
  3922 ;; Auto vars:     Size  Location     Type
  3923 ;;  st              1    3[COMMON] enum E6036
  3924 ;; Return value:  Size  Location     Type
  3925 ;;                  1    wreg      enum E6036
  3926 ;; Registers used:
  3927 ;;		wreg, status,2, status,0, pclath, cstack
  3928 ;; Tracked objects:
  3929 ;;		On entry : 0/0
  3930 ;;		On exit  : 0/0
  3931 ;;		Unchanged: 0/0
  3932 ;; Data sizes:     COMMON   BANK0   BANK1   BANK2   BANK3   BANK4   BANK5   BANK6   BANK7   BANK8   BANK9  BANK10  BANK1
      +1  BANK12  BANK13  BANK14  BANK15  BANK16  BANK17  BANK18  BANK19  BANK20  BANK21  BANK22  BANK23  BANK24  BANK25
  3933 ;;      Params:         0       0       0       0       0       0       0       0       0       0       0       0       
      +0       0       0       0       0       0       0       0       0       0       0       0       0       0       0
  3934 ;;      Locals:         1       0       0       0       0       0       0       0       0       0       0       0       
      +0       0       0       0       0       0       0       0       0       0       0       0       0       0       0
  3935 ;;      Temps:          0       0       0       0       0       0       0       0       0       0       0       0       
      +0       0       0       0       0       0       0       0       0       0       0       0       0       0       0
  3936 ;;      Totals:         1       0       0       0       0       0       0       0       0       0       0       0       
      +0       0       0       0       0       0       0       0       0       0       0       0       0       0       0
  3937 ;;Total ram usage:        1 bytes
  3938 ;; Hardware stack levels used: 1
  3939 ;; Hardware stack levels required when called: 1
  3940 ;; This function calls:
  3941 ;;		_I2C_WaitIF
  3942 ;;		_I2C_WaitIdle
  3943 ;; This function is called by:
  3944 ;;		_OLED_init
  3945 ;;		_OLED_setpos
  3946 ;;		_OLED_fill
  3947 ;;		_OLED_end
  3948 ;; This function uses a non-reentrant model
  3949 ;;
  3950                           
  3951     03FE                     _I2C_Stop:	
  3952                           ;psect for function _I2C_Stop
  3953                           
  3954     03FE                     l1410:	
  3955                           ;incstack = 0
  3956                           ; Regs used in _I2C_Stop: [wreg+status,2+status,0+pclath+cstack]
  3957                           
  3958                           
  3959                           ;I2C.c: 140:     I2C_Status_t st;;I2C.c: 142:     st = I2C_WaitIdle(50);
  3960     03FE  3032               	movlw	50
  3961     03FF  00F0               	movwf	I2C_WaitIdle@timeout_ms
  3962     0400  3000               	movlw	0
  3963     0401  00F1               	movwf	I2C_WaitIdle@timeout_ms+1
  3964     0402  3184  2421  3183   	fcall	_I2C_WaitIdle
  3965     0405  00F3               	movwf	I2C_Stop@st
  3966     0406                     l1412:
  3967                           
  3968                           ;I2C.c: 143:     if (st != I2C_OK) return st;
  3969     0406  0873               	movf	I2C_Stop@st,w
  3970     0407  1903               	btfsc	3,2
  3971     0408  2C0A               	goto	u601
  3972     0409  2C0B               	goto	u600
  3973     040A                     u601:
  3974     040A  2C0C               	goto	l90
  3975     040B                     u600:
  3976     040B  2C20               	goto	l91
  3977     040C                     l90:
  3978                           
  3979                           ;I2C.c: 145:     PIR1bits.SSP1IF = 0;
  3980     040C  0020               	movlb	0	; select bank0
  3981     040D  1191               	bcf	17,3	;volatile
  3982                           
  3983                           ;I2C.c: 146:     SSPCON2bits.PEN = 1;
  3984     040E  0024               	movlb	4	; select bank4
  3985     040F  1516               	bsf	22,2	;volatile
  3986     0410                     l1416:
  3987                           
  3988                           ;I2C.c: 148:     st = I2C_WaitIF(50);
  3989     0410  3032               	movlw	50
  3990     0411  00F0               	movwf	I2C_WaitIF@timeout_ms
  3991     0412  3000               	movlw	0
  3992     0413  00F1               	movwf	I2C_WaitIF@timeout_ms+1
  3993     0414  3183  23BD  3183   	fcall	_I2C_WaitIF
  3994     0417  00F3               	movwf	I2C_Stop@st
  3995     0418                     l1418:
  3996                           
  3997                           ;I2C.c: 149:     if (st != I2C_OK) return st;
  3998     0418  0873               	movf	I2C_Stop@st,w
  3999     0419  1903               	btfsc	3,2
  4000     041A  2C1C               	goto	u611
  4001     041B  2C1D               	goto	u610
  4002     041C                     u611:
  4003     041C  2C1E               	goto	l92
  4004     041D                     u610:
  4005     041D  2C20               	goto	l91
  4006     041E                     l92:
  4007                           
  4008                           ;I2C.c: 151:     PIR1bits.SSP1IF = 0;
  4009     041E  0020               	movlb	0	; select bank0
  4010     041F  1191               	bcf	17,3	;volatile
  4011     0420                     l91:	
  4012                           ;I2C.c: 152:     return I2C_OK;;	Return value of _I2C_Stop is never used
  4013                           
  4014     0420  0008               	return
  4015     0421                     __end_of_I2C_Stop:
  4016                           
  4017                           	psect	text19
  4018     03DB                     __ptext19:	
  4019 ;; *************** function _I2C_Start *****************
  4020 ;; Defined at:
  4021 ;;		line 98 in file "I2C.c"
  4022 ;; Parameters:    Size  Location     Type
  4023 ;;		None
  4024 ;; Auto vars:     Size  Location     Type
  4025 ;;  st              1    3[COMMON] enum E6036
  4026 ;; Return value:  Size  Location     Type
  4027 ;;                  1    wreg      enum E6036
  4028 ;; Registers used:
  4029 ;;		wreg, status,2, status,0, pclath, cstack
  4030 ;; Tracked objects:
  4031 ;;		On entry : 0/0
  4032 ;;		On exit  : 0/0
  4033 ;;		Unchanged: 0/0
  4034 ;; Data sizes:     COMMON   BANK0   BANK1   BANK2   BANK3   BANK4   BANK5   BANK6   BANK7   BANK8   BANK9  BANK10  BANK1
      +1  BANK12  BANK13  BANK14  BANK15  BANK16  BANK17  BANK18  BANK19  BANK20  BANK21  BANK22  BANK23  BANK24  BANK25
  4035 ;;      Params:         0       0       0       0       0       0       0       0       0       0       0       0       
      +0       0       0       0       0       0       0       0       0       0       0       0       0       0       0
  4036 ;;      Locals:         1       0       0       0       0       0       0       0       0       0       0       0       
      +0       0       0       0       0       0       0       0       0       0       0       0       0       0       0
  4037 ;;      Temps:          0       0       0       0       0       0       0       0       0       0       0       0       
      +0       0       0       0       0       0       0       0       0       0       0       0       0       0       0
  4038 ;;      Totals:         1       0       0       0       0       0       0       0       0       0       0       0       
      +0       0       0       0       0       0       0       0       0       0       0       0       0       0       0
  4039 ;;Total ram usage:        1 bytes
  4040 ;; Hardware stack levels used: 1
  4041 ;; Hardware stack levels required when called: 1
  4042 ;; This function calls:
  4043 ;;		_I2C_WaitIF
  4044 ;;		_I2C_WaitIdle
  4045 ;; This function is called by:
  4046 ;;		_OLED_init
  4047 ;;		_OLED_setpos
  4048 ;;		_OLED_fill
  4049 ;;		_OLED_data_start
  4050 ;; This function uses a non-reentrant model
  4051 ;;
  4052                           
  4053     03DB                     _I2C_Start:	
  4054                           ;psect for function _I2C_Start
  4055                           
  4056     03DB                     l1398:	
  4057                           ;incstack = 0
  4058                           ; Regs used in _I2C_Start: [wreg+status,2+status,0+pclath+cstack]
  4059                           
  4060                           
  4061                           ;I2C.c: 100:     I2C_Status_t st;;I2C.c: 102:     st = I2C_WaitIdle(50);
  4062     03DB  3032               	movlw	50
  4063     03DC  00F0               	movwf	I2C_WaitIdle@timeout_ms
  4064     03DD  3000               	movlw	0
  4065     03DE  00F1               	movwf	I2C_WaitIdle@timeout_ms+1
  4066     03DF  3184  2421  3183   	fcall	_I2C_WaitIdle
  4067     03E2  00F3               	movwf	I2C_Start@st
  4068     03E3                     l1400:
  4069                           
  4070                           ;I2C.c: 103:     if (st != I2C_OK) return st;
  4071     03E3  0873               	movf	I2C_Start@st,w
  4072     03E4  1903               	btfsc	3,2
  4073     03E5  2BE7               	goto	u581
  4074     03E6  2BE8               	goto	u580
  4075     03E7                     u581:
  4076     03E7  2BE9               	goto	l80
  4077     03E8                     u580:
  4078     03E8  2BFD               	goto	l81
  4079     03E9                     l80:
  4080                           
  4081                           ;I2C.c: 105:     PIR1bits.SSP1IF = 0;
  4082     03E9  0020               	movlb	0	; select bank0
  4083     03EA  1191               	bcf	17,3	;volatile
  4084                           
  4085                           ;I2C.c: 106:     SSPCON2bits.SEN = 1;
  4086     03EB  0024               	movlb	4	; select bank4
  4087     03EC  1416               	bsf	22,0	;volatile
  4088     03ED                     l1404:
  4089                           
  4090                           ;I2C.c: 108:     st = I2C_WaitIF(50);
  4091     03ED  3032               	movlw	50
  4092     03EE  00F0               	movwf	I2C_WaitIF@timeout_ms
  4093     03EF  3000               	movlw	0
  4094     03F0  00F1               	movwf	I2C_WaitIF@timeout_ms+1
  4095     03F1  3183  23BD  3183   	fcall	_I2C_WaitIF
  4096     03F4  00F3               	movwf	I2C_Start@st
  4097     03F5                     l1406:
  4098                           
  4099                           ;I2C.c: 109:     if (st != I2C_OK) return st;
  4100     03F5  0873               	movf	I2C_Start@st,w
  4101     03F6  1903               	btfsc	3,2
  4102     03F7  2BF9               	goto	u591
  4103     03F8  2BFA               	goto	u590
  4104     03F9                     u591:
  4105     03F9  2BFB               	goto	l82
  4106     03FA                     u590:
  4107     03FA  2BFD               	goto	l81
  4108     03FB                     l82:
  4109                           
  4110                           ;I2C.c: 111:     PIR1bits.SSP1IF = 0;
  4111     03FB  0020               	movlb	0	; select bank0
  4112     03FC  1191               	bcf	17,3	;volatile
  4113     03FD                     l81:	
  4114                           ;I2C.c: 112:     return I2C_OK;;	Return value of _I2C_Start is never used
  4115                           
  4116     03FD  0008               	return
  4117     03FE                     __end_of_I2C_Start:
  4118                           
  4119                           	psect	text20
  4120     0421                     __ptext20:	
  4121 ;; *************** function _I2C_WaitIdle *****************
  4122 ;; Defined at:
  4123 ;;		line 81 in file "I2C.c"
  4124 ;; Parameters:    Size  Location     Type
  4125 ;;  timeout_ms      2    0[COMMON] unsigned short 
  4126 ;; Auto vars:     Size  Location     Type
  4127 ;;		None
  4128 ;; Return value:  Size  Location     Type
  4129 ;;                  1    wreg      enum E6036
  4130 ;; Registers used:
  4131 ;;		wreg, status,2, status,0
  4132 ;; Tracked objects:
  4133 ;;		On entry : 0/0
  4134 ;;		On exit  : 0/0
  4135 ;;		Unchanged: 0/0
  4136 ;; Data sizes:     COMMON   BANK0   BANK1   BANK2   BANK3   BANK4   BANK5   BANK6   BANK7   BANK8   BANK9  BANK10  BANK1
      +1  BANK12  BANK13  BANK14  BANK15  BANK16  BANK17  BANK18  BANK19  BANK20  BANK21  BANK22  BANK23  BANK24  BANK25
  4137 ;;      Params:         2       0       0       0       0       0       0       0       0       0       0       0       
      +0       0       0       0       0       0       0       0       0       0       0       0       0       0       0
  4138 ;;      Locals:         0       0       0       0       0       0       0       0       0       0       0       0       
      +0       0       0       0       0       0       0       0       0       0       0       0       0       0       0
  4139 ;;      Temps:          1       0       0       0       0       0       0       0       0       0       0       0       
      +0       0       0       0       0       0       0       0       0       0       0       0       0       0       0
  4140 ;;      Totals:         3       0       0       0       0       0       0       0       0       0       0       0       
      +0       0       0       0       0       0       0       0       0       0       0       0       0       0       0
  4141 ;;Total ram usage:        3 bytes
  4142 ;; Hardware stack levels used: 1
  4143 ;; This function calls:
  4144 ;;		Nothing
  4145 ;; This function is called by:
  4146 ;;		_I2C_Start
  4147 ;;		_I2C_Stop
  4148 ;;		_I2C_WriteByte
  4149 ;;		_I2C_RepeatedStart
  4150 ;;		_I2C_ReadByte
  4151 ;; This function uses a non-reentrant model
  4152 ;;
  4153                           
  4154     0421                     _I2C_WaitIdle:	
  4155                           ;psect for function _I2C_WaitIdle
  4156                           
  4157     0421                     l1380:	
  4158                           ;incstack = 0
  4159                           ; Regs used in _I2C_WaitIdle: [wreg+status,2+status,0]
  4160                           
  4161                           
  4162                           ;I2C.c: 81: I2C_Status_t I2C_WaitIdle(uint16_t timeout_ms);I2C.c: 82: {;I2C.c: 83:     w
      +                          hile (timeout_ms--)
  4163     0421  2C37               	goto	l1392
  4164     0422                     l1382:
  4165                           
  4166                           ;I2C.c: 84:     {;I2C.c: 87:         if ((SSPCON2 & 0x1F) == 0 && SSPSTATbits.R_nW == 0)
  4167     0422  0024               	movlb	4	; select bank4
  4168     0423  0816               	movf	22,w	;volatile
  4169     0424  391F               	andlw	31
  4170     0425  1D03               	btfss	3,2
  4171     0426  2C28               	goto	u551
  4172     0427  2C29               	goto	u550
  4173     0428                     u551:
  4174     0428  2C2F               	goto	l1390
  4175     0429                     u550:
  4176     0429                     l1384:
  4177     0429  1914               	btfsc	20,2	;volatile
  4178     042A  2C2C               	goto	u561
  4179     042B  2C2D               	goto	u560
  4180     042C                     u561:
  4181     042C  2C2F               	goto	l1390
  4182     042D                     u560:
  4183     042D                     l1386:
  4184                           
  4185                           ;I2C.c: 88:             return I2C_OK;
  4186     042D  3000               	movlw	0
  4187     042E  2C44               	goto	l76
  4188     042F                     l1390:
  4189                           
  4190                           ;I2C.c: 90:         _delay((unsigned long)((1)*(32000000/4000.0)));
  4191     042F  300B               	movlw	11
  4192     0430  00F2               	movwf	??_I2C_WaitIdle
  4193     0431  3062               	movlw	98
  4194     0432                     u1197:
  4195     0432  0B89               	decfsz	9,f
  4196     0433  2C32               	goto	u1197
  4197     0434  0BF2               	decfsz	??_I2C_WaitIdle,f
  4198     0435  2C32               	goto	u1197
  4199     0436  3200               	nop2
  4200     0437                     l1392:
  4201                           
  4202                           ;I2C.c: 83:     while (timeout_ms--)
  4203     0437  3001               	movlw	1
  4204     0438  02F0               	subwf	I2C_WaitIdle@timeout_ms,f
  4205     0439  3000               	movlw	0
  4206     043A  3BF1               	subwfb	I2C_WaitIdle@timeout_ms+1,f
  4207     043B  0A70               	incf	I2C_WaitIdle@timeout_ms,w
  4208     043C  1D03               	skipz
  4209     043D  2C42               	goto	u571
  4210     043E  0A71               	incf	I2C_WaitIdle@timeout_ms+1,w
  4211     043F  1D03               	btfss	3,2
  4212     0440  2C42               	goto	u571
  4213     0441  2C43               	goto	u570
  4214     0442                     u571:
  4215     0442  2C22               	goto	l1382
  4216     0443                     u570:
  4217     0443                     l1394:
  4218                           
  4219                           ;I2C.c: 92:     return I2C_TIMEOUT;
  4220     0443  3002               	movlw	2
  4221     0444                     l76:
  4222     0444  0008               	return
  4223     0445                     __end_of_I2C_WaitIdle:
  4224                           
  4225                           	psect	text21
  4226     03BD                     __ptext21:	
  4227 ;; *************** function _I2C_WaitIF *****************
  4228 ;; Defined at:
  4229 ;;		line 23 in file "I2C.c"
  4230 ;; Parameters:    Size  Location     Type
  4231 ;;  timeout_ms      2    0[COMMON] unsigned short 
  4232 ;; Auto vars:     Size  Location     Type
  4233 ;;		None
  4234 ;; Return value:  Size  Location     Type
  4235 ;;                  1    wreg      enum E6036
  4236 ;; Registers used:
  4237 ;;		wreg, status,2, status,0
  4238 ;; Tracked objects:
  4239 ;;		On entry : 0/0
  4240 ;;		On exit  : 0/0
  4241 ;;		Unchanged: 0/0
  4242 ;; Data sizes:     COMMON   BANK0   BANK1   BANK2   BANK3   BANK4   BANK5   BANK6   BANK7   BANK8   BANK9  BANK10  BANK1
      +1  BANK12  BANK13  BANK14  BANK15  BANK16  BANK17  BANK18  BANK19  BANK20  BANK21  BANK22  BANK23  BANK24  BANK25
  4243 ;;      Params:         2       0       0       0       0       0       0       0       0       0       0       0       
      +0       0       0       0       0       0       0       0       0       0       0       0       0       0       0
  4244 ;;      Locals:         0       0       0       0       0       0       0       0       0       0       0       0       
      +0       0       0       0       0       0       0       0       0       0       0       0       0       0       0
  4245 ;;      Temps:          1       0       0       0       0       0       0       0       0       0       0       0       
      +0       0       0       0       0       0       0       0       0       0       0       0       0       0       0
  4246 ;;      Totals:         3       0       0       0       0       0       0       0       0       0       0       0       
      +0       0       0       0       0       0       0       0       0       0       0       0       0       0       0
  4247 ;;Total ram usage:        3 bytes
  4248 ;; Hardware stack levels used: 1
  4249 ;; This function calls:
  4250 ;;		Nothing
  4251 ;; This function is called by:
  4252 ;;		_I2C_Start
  4253 ;;		_I2C_Stop
  4254 ;;		_I2C_WriteByte
  4255 ;;		_I2C_RepeatedStart
  4256 ;;		_I2C_ReadByte
  4257 ;; This function uses a non-reentrant model
  4258 ;;
  4259                           
  4260     03BD                     _I2C_WaitIF:	
  4261                           ;psect for function _I2C_WaitIF
  4262                           
  4263     03BD                     l1366:	
  4264                           ;incstack = 0
  4265                           ; Regs used in _I2C_WaitIF: [wreg+status,2+status,0]
  4266                           
  4267                           
  4268                           ;I2C.c: 23: static I2C_Status_t I2C_WaitIF(uint16_t timeout_ms);I2C.c: 24: {;I2C.c: 25: 
      +                              while (timeout_ms--)
  4269     03BD  2BCD               	goto	l1374
  4270     03BE                     l61:
  4271                           
  4272                           ;I2C.c: 26:     {;I2C.c: 27:         if (PIR1bits.SSP1IF)
  4273     03BE  0020               	movlb	0	; select bank0
  4274     03BF  1D91               	btfss	17,3	;volatile
  4275     03C0  2BC2               	goto	u531
  4276     03C1  2BC3               	goto	u530
  4277     03C2                     u531:
  4278     03C2  2BC5               	goto	l1372
  4279     03C3                     u530:
  4280     03C3                     l1368:
  4281                           
  4282                           ;I2C.c: 28:             return I2C_OK;
  4283     03C3  3000               	movlw	0
  4284     03C4  2BDA               	goto	l63
  4285     03C5                     l1372:
  4286                           
  4287                           ;I2C.c: 30:         _delay((unsigned long)((1)*(32000000/4000.0)));
  4288     03C5  300B               	movlw	11
  4289     03C6  00F2               	movwf	??_I2C_WaitIF
  4290     03C7  3062               	movlw	98
  4291     03C8                     u1207:
  4292     03C8  0B89               	decfsz	9,f
  4293     03C9  2BC8               	goto	u1207
  4294     03CA  0BF2               	decfsz	??_I2C_WaitIF,f
  4295     03CB  2BC8               	goto	u1207
  4296     03CC  3200               	nop2
  4297     03CD                     l1374:
  4298                           
  4299                           ;I2C.c: 25:     while (timeout_ms--)
  4300     03CD  3001               	movlw	1
  4301     03CE  02F0               	subwf	I2C_WaitIF@timeout_ms,f
  4302     03CF  3000               	movlw	0
  4303     03D0  3BF1               	subwfb	I2C_WaitIF@timeout_ms+1,f
  4304     03D1  0A70               	incf	I2C_WaitIF@timeout_ms,w
  4305     03D2  1D03               	skipz
  4306     03D3  2BD8               	goto	u541
  4307     03D4  0A71               	incf	I2C_WaitIF@timeout_ms+1,w
  4308     03D5  1D03               	btfss	3,2
  4309     03D6  2BD8               	goto	u541
  4310     03D7  2BD9               	goto	u540
  4311     03D8                     u541:
  4312     03D8  2BBE               	goto	l61
  4313     03D9                     u540:
  4314     03D9                     l1376:
  4315                           
  4316                           ;I2C.c: 32:     return I2C_TIMEOUT;
  4317     03D9  3002               	movlw	2
  4318     03DA                     l63:
  4319     03DA  0008               	return
  4320     03DB                     __end_of_I2C_WaitIF:
  4321                           
  4322                           	psect	text22
  4323     03A9                     __ptext22:	
  4324 ;; *************** function _I2C_Init *****************
  4325 ;; Defined at:
  4326 ;;		line 41 in file "I2C.c"
  4327 ;; Parameters:    Size  Location     Type
  4328 ;;		None
  4329 ;; Auto vars:     Size  Location     Type
  4330 ;;		None
  4331 ;; Return value:  Size  Location     Type
  4332 ;;                  1    wreg      void 
  4333 ;; Registers used:
  4334 ;;		wreg, status,2, status,0, pclath, cstack
  4335 ;; Tracked objects:
  4336 ;;		On entry : 0/0
  4337 ;;		On exit  : 0/0
  4338 ;;		Unchanged: 0/0
  4339 ;; Data sizes:     COMMON   BANK0   BANK1   BANK2   BANK3   BANK4   BANK5   BANK6   BANK7   BANK8   BANK9  BANK10  BANK1
      +1  BANK12  BANK13  BANK14  BANK15  BANK16  BANK17  BANK18  BANK19  BANK20  BANK21  BANK22  BANK23  BANK24  BANK25
  4340 ;;      Params:         0       0       0       0       0       0       0       0       0       0       0       0       
      +0       0       0       0       0       0       0       0       0       0       0       0       0       0       0
  4341 ;;      Locals:         0       0       0       0       0       0       0       0       0       0       0       0       
      +0       0       0       0       0       0       0       0       0       0       0       0       0       0       0
  4342 ;;      Temps:          1       0       0       0       0       0       0       0       0       0       0       0       
      +0       0       0       0       0       0       0       0       0       0       0       0       0       0       0
  4343 ;;      Totals:         1       0       0       0       0       0       0       0       0       0       0       0       
      +0       0       0       0       0       0       0       0       0       0       0       0       0       0       0
  4344 ;;Total ram usage:        1 bytes
  4345 ;; Hardware stack levels used: 1
  4346 ;; Hardware stack levels required when called: 1
  4347 ;; This function calls:
  4348 ;;		_I2C_ClearErrors
  4349 ;; This function is called by:
  4350 ;;		_main
  4351 ;; This function uses a non-reentrant model
  4352 ;;
  4353                           
  4354     03A9                     _I2C_Init:	
  4355                           ;psect for function _I2C_Init
  4356                           
  4357     03A9                     l910:	
  4358                           ;incstack = 0
  4359                           ; Regs used in _I2C_Init: [wreg+status,2+status,0+pclath+cstack]
  4360                           
  4361                           
  4362                           ;I2C.c: 44:     SSPCONbits.SSPM = 0x08;
  4363     03A9  0024               	movlb	4	; select bank4
  4364     03AA  0815               	movf	21,w	;volatile
  4365     03AB  39F0               	andlw	-16
  4366     03AC  3808               	iorlw	8
  4367     03AD  0095               	movwf	21	;volatile
  4368     03AE                     l912:
  4369                           
  4370                           ;I2C.c: 47:     SSPCONbits.SSPEN = 1;
  4371     03AE  1695               	bsf	21,5	;volatile
  4372     03AF                     l914:
  4373                           
  4374                           ;I2C.c: 50:     SSPADD = 79;
  4375     03AF  304F               	movlw	79
  4376     03B0  0092               	movwf	18	;volatile
  4377     03B1                     l916:
  4378                           
  4379                           ;I2C.c: 52:     I2C_ClearErrors();
  4380     03B1  3183  237E  3183   	fcall	_I2C_ClearErrors
  4381     03B4                     l918:
  4382                           
  4383                           ;I2C.c: 53:     _delay((unsigned long)((10)*(32000000/4000.0)));
  4384     03B4  3068               	movlw	104
  4385     03B5  00F0               	movwf	??_I2C_Init
  4386     03B6  30E4               	movlw	228
  4387     03B7                     u1217:
  4388     03B7  0B89               	decfsz	9,f
  4389     03B8  2BB7               	goto	u1217
  4390     03B9  0BF0               	decfsz	??_I2C_Init,f
  4391     03BA  2BB7               	goto	u1217
  4392     03BB  3200               	nop2
  4393     03BC                     l67:
  4394     03BC  0008               	return
  4395     03BD                     __end_of_I2C_Init:
  4396                           
  4397                           	psect	text23
  4398     037E                     __ptext23:	
  4399 ;; *************** function _I2C_ClearErrors *****************
  4400 ;; Defined at:
  4401 ;;		line 62 in file "I2C.c"
  4402 ;; Parameters:    Size  Location     Type
  4403 ;;		None
  4404 ;; Auto vars:     Size  Location     Type
  4405 ;;		None
  4406 ;; Return value:  Size  Location     Type
  4407 ;;                  1    wreg      void 
  4408 ;; Registers used:
  4409 ;;		None
  4410 ;; Tracked objects:
  4411 ;;		On entry : 0/0
  4412 ;;		On exit  : 0/0
  4413 ;;		Unchanged: 0/0
  4414 ;; Data sizes:     COMMON   BANK0   BANK1   BANK2   BANK3   BANK4   BANK5   BANK6   BANK7   BANK8   BANK9  BANK10  BANK1
      +1  BANK12  BANK13  BANK14  BANK15  BANK16  BANK17  BANK18  BANK19  BANK20  BANK21  BANK22  BANK23  BANK24  BANK25
  4415 ;;      Params:         0       0       0       0       0       0       0       0       0       0       0       0       
      +0       0       0       0       0       0       0       0       0       0       0       0       0       0       0
  4416 ;;      Locals:         0       0       0       0       0       0       0       0       0       0       0       0       
      +0       0       0       0       0       0       0       0       0       0       0       0       0       0       0
  4417 ;;      Temps:          0       0       0       0       0       0       0       0       0       0       0       0       
      +0       0       0       0       0       0       0       0       0       0       0       0       0       0       0
  4418 ;;      Totals:         0       0       0       0       0       0       0       0       0       0       0       0       
      +0       0       0       0       0       0       0       0       0       0       0       0       0       0       0
  4419 ;;Total ram usage:        0 bytes
  4420 ;; Hardware stack levels used: 1
  4421 ;; This function calls:
  4422 ;;		Nothing
  4423 ;; This function is called by:
  4424 ;;		_I2C_Init
  4425 ;; This function uses a non-reentrant model
  4426 ;;
  4427                           
  4428     037E                     _I2C_ClearErrors:	
  4429                           ;psect for function _I2C_ClearErrors
  4430                           
  4431     037E                     l886:	
  4432                           ;incstack = 0
  4433                           ; Regs used in _I2C_ClearErrors: []
  4434                           
  4435                           
  4436                           ;I2C.c: 65:     SSPCON1bits.SSPOV = 0;
  4437     037E  0024               	movlb	4	; select bank4
  4438     037F  1315               	bcf	21,6	;volatile
  4439                           
  4440                           ;I2C.c: 66:     SSPCON1bits.WCOL = 0;
  4441     0380  1395               	bcf	21,7	;volatile
  4442                           
  4443                           ;I2C.c: 69:     PIR2bits.BCL1IF = 0;
  4444     0381  0020               	movlb	0	; select bank0
  4445     0382  1192               	bcf	18,3	;volatile
  4446                           
  4447                           ;I2C.c: 72:     PIR1bits.SSP1IF = 0;
  4448     0383  1191               	bcf	17,3	;volatile
  4449     0384                     l70:
  4450     0384  0008               	return
  4451     0385                     __end_of_I2C_ClearErrors:
  4452     007E                     btemp	set	126	;btemp
  4453     007E                     wtemp0	set	126
  4454                           
  4455                           	psect	config
  4456                           
  4457                           ;Config register CONFIG1 @ 0x8007
  4458                           ;	Oscillator Selection Bits
  4459                           ;	FOSC = INTOSC, INTOSC oscillator: I/O function on CLKIN pin
  4460                           ;	Watchdog Timer Enable
  4461                           ;	WDTE = OFF, WDT disabled
  4462                           ;	Power-up Timer Enable
  4463                           ;	PWRTE = OFF, PWRT disabled
  4464                           ;	MCLR Pin Function Select
  4465                           ;	MCLRE = OFF, MCLR/VPP pin function is digital input if LVP bit is also 0.
  4466                           ;	Flash Program Memory Code Protection
  4467                           ;	CP = OFF, Program memory code protection is disabled
  4468                           ;	Brown-out Reset Enable
  4469                           ;	BOREN = OFF, Brown-out Reset disabled
  4470                           ;	Clock Out Enable
  4471                           ;	CLKOUTEN = OFF, CLKOUT function is disabled. I/O or oscillator function on the CLKOUT 
      +                          pin
  4472                           ;	Internal/External Switchover Mode
  4473                           ;	IESO = ON, Internal/External Switchover Mode is enabled
  4474                           ;	Fail-Safe Clock Monitor Enable
  4475                           ;	FCMEN = OFF, Fail-Safe Clock Monitor is disabled
  4476     8007                     	org	32775
  4477     8007  19A4               	dw	6564
  4478                           
  4479                           ;Config register CONFIG2 @ 0x8008
  4480                           ;	Flash Memory Self-Write Protection
  4481                           ;	WRT = OFF, Write protection off
  4482                           ;	Peripheral Pin Select one-way control
  4483                           ;	PPS1WAY = ON, The PPSLOCK bit cannot be cleared once it is set by software
  4484                           ;	Zero-cross detect disable
  4485                           ;	ZCDDIS = ON, ZCD disabled. ZCD can be enabled by setting the ZCDSEN bit of ZCDCON
  4486                           ;	Phase Lock Loop enable
  4487                           ;	PLLEN = OFF, 4x PLL is disabled
  4488                           ;	Stack Overflow/Underflow Reset Enable
  4489                           ;	STVREN = ON, Stack Overflow or Underflow will cause a Reset
  4490                           ;	Brown-out Reset Voltage Selection
  4491                           ;	BORV = LO, Brown-out Reset Voltage (Vbor), low trip point selected.
  4492                           ;	Low-Power Brown Out Reset
  4493                           ;	LPBOR = OFF, Low-Power BOR is disabled
  4494                           ;	In-Circuit Debugger Mode
  4495                           ;	DEBUG = 0x1, unprogrammed default
  4496                           ;	Low-Voltage Programming Enable
  4497                           ;	LVP = OFF, High-voltage on MCLR/VPP must be used for programming
  4498     8008                     	org	32776
  4499     8008  1EFF               	dw	7935

Data Sizes:
    Strings     0
    Constant    61
    Data        8
    BSS         0
    Persistent  32
    Stack       0

Auto Spaces:
    Space          Size  Autos    Used
    COMMON           14     14      14
    BANK0            80     12      20
    BANK1            80      0       0
    BANK2            80      0       0
    BANK3            80      0       0
    BANK4            80      0       0
    BANK5            80      0       0
    BANK6            80      0       0
    BANK7            80      0       0
    BANK8            80      0       0
    BANK9            80      0       0
    BANK10           80      0       0
    BANK11           80      0       0
    BANK12           80      0       0
    BANK13           80      0       0
    BANK14           80      0       0
    BANK15           80      0       0
    BANK16           80      0       0
    BANK17           80      0       0
    BANK18           80      0       0
    BANK19           80      0       0
    BANK20           80      0       0
    BANK21           80      0       0
    BANK22           80      0       0
    BANK23           80      0       0
    BANK24           80      0       0
    BANK25           32      0       0

Pointer List with Targets:

    None.

Critical Paths under _main in COMMON

    _main->_test_border
    _main->_test_hello
    _main->_test_scroll
    _test_vertical_bars->_OLED_data_start
    _test_smiley->_OLED_fill
    _test_scroll->_OLED_data_start
    _test_horizontal_bars->_OLED_data_start
    _test_hello->_OLED_fill
    _test_fill_pattern->_OLED_fill
    _test_checkerboard->_OLED_data_start
    _test_border->_OLED_fill
    _OLED_send->_I2C_WriteByte
    _OLED_fill->_OLED_setpos
    _OLED_end->_I2C_Stop
    _OLED_data_start->_OLED_setpos
    _OLED_setpos->_I2C_WriteByte
    _OLED_init->_I2C_WriteByte
    _I2C_WriteByte->_I2C_WaitIF
    _I2C_WriteByte->_I2C_WaitIdle
    _I2C_Stop->_I2C_WaitIF
    _I2C_Stop->_I2C_WaitIdle
    _I2C_Start->_I2C_WaitIF
    _I2C_Start->_I2C_WaitIdle

Critical Paths under _main in BANK0

    _main->_test_horizontal_bars

Critical Paths under _main in BANK1

    None.

Critical Paths under _main in BANK2

    None.

Critical Paths under _main in BANK3

    None.

Critical Paths under _main in BANK4

    None.

Critical Paths under _main in BANK5

    None.

Critical Paths under _main in BANK6

    None.

Critical Paths under _main in BANK7

    None.

Critical Paths under _main in BANK8

    None.

Critical Paths under _main in BANK9

    None.

Critical Paths under _main in BANK10

    None.

Critical Paths under _main in BANK11

    None.

Critical Paths under _main in BANK12

    None.

Critical Paths under _main in BANK13

    None.

Critical Paths under _main in BANK14

    None.

Critical Paths under _main in BANK15

    None.

Critical Paths under _main in BANK16

    None.

Critical Paths under _main in BANK17

    None.

Critical Paths under _main in BANK18

    None.

Critical Paths under _main in BANK19

    None.

Critical Paths under _main in BANK20

    None.

Critical Paths under _main in BANK21

    None.

Critical Paths under _main in BANK22

    None.

Critical Paths under _main in BANK23

    None.

Critical Paths under _main in BANK24

    None.

Critical Paths under _main in BANK25

    None.

Call Graph Tables:

 ---------------------------------------------------------------------------------
 (Depth) Function   	        Calls       Base Space   Used Autos Params    Refs
 ---------------------------------------------------------------------------------
 (0) _main                                                 2     2      0   82447
                                             10 BANK0      2     2      0
                           _I2C_Init
                          _OLED_fill
                          _OLED_init
                           _initMain
                        _test_border
                  _test_checkerboard
                  _test_fill_pattern
                         _test_hello
               _test_horizontal_bars
                        _test_scroll
                        _test_smiley
                 _test_vertical_bars
 ---------------------------------------------------------------------------------
 (1) _test_vertical_bars                                   3     3      0    7030
                                              9 COMMON     3     3      0
                    _OLED_data_start
                           _OLED_end
                          _OLED_send
 ---------------------------------------------------------------------------------
 (1) _test_smiley                                          4     4      0   13033
                                             11 COMMON     1     1      0
                                              0 BANK0      3     3      0
                    _OLED_data_start
                           _OLED_end
                          _OLED_fill
                          _OLED_send
 ---------------------------------------------------------------------------------
 (1) _test_scroll                                          8     8      0    7098
                                              9 COMMON     5     5      0
                                              0 BANK0      3     3      0
                    _OLED_data_start
                           _OLED_end
                          _OLED_send
 ---------------------------------------------------------------------------------
 (1) _test_horizontal_bars                                11    11      0    7054
                                              9 COMMON     1     1      0
                                              0 BANK0     10    10      0
                    _OLED_data_start
                           _OLED_end
                          _OLED_send
 ---------------------------------------------------------------------------------
 (1) _test_hello                                           3     3      0   13284
                                             11 COMMON     3     3      0
                    _OLED_data_start
                           _OLED_end
                          _OLED_fill
                          _OLED_send
 ---------------------------------------------------------------------------------
 (1) _test_fill_pattern                                    1     1      0    5980
                                             11 COMMON     1     1      0
                          _OLED_fill
 ---------------------------------------------------------------------------------
 (1) _test_checkerboard                                    4     4      0    7052
                                              9 COMMON     4     4      0
                    _OLED_data_start
                           _OLED_end
                          _OLED_send
 ---------------------------------------------------------------------------------
 (1) _test_border                                          3     3      0   13054
                                             11 COMMON     3     3      0
                    _OLED_data_start
                           _OLED_end
                          _OLED_fill
                          _OLED_send
 ---------------------------------------------------------------------------------
 (2) _OLED_send                                            1     1      0     982
                                              5 COMMON     1     1      0
                      _I2C_WriteByte
 ---------------------------------------------------------------------------------
 (2) _OLED_fill                                            3     3      0    5958
                                              8 COMMON     3     3      0
                          _I2C_Start
                           _I2C_Stop
                      _I2C_WriteByte
                        _OLED_setpos
 ---------------------------------------------------------------------------------
 (2) _OLED_end                                             0     0      0     938
                           _I2C_Stop
 ---------------------------------------------------------------------------------
 (2) _OLED_data_start                                      1     1      0    4974
                                              8 COMMON     1     1      0
                          _I2C_Start
                      _I2C_WriteByte
                        _OLED_setpos
 ---------------------------------------------------------------------------------
 (3) _OLED_setpos                                          3     2      1    3054
                                              5 COMMON     3     2      1
                          _I2C_Start
                           _I2C_Stop
                      _I2C_WriteByte
 ---------------------------------------------------------------------------------
 (1) _initMain                                             2     2      0       0
                                              0 COMMON     2     2      0
                        _internal_32
 ---------------------------------------------------------------------------------
 (2) _internal_32                                          0     0      0       0
 ---------------------------------------------------------------------------------
 (1) _OLED_init                                            2     2      0    2904
                                              5 COMMON     2     2      0
                          _I2C_Start
                           _I2C_Stop
                      _I2C_WriteByte
 ---------------------------------------------------------------------------------
 (3) _I2C_WriteByte                                        2     2      0     960
                                              3 COMMON     2     2      0
                         _I2C_WaitIF
                       _I2C_WaitIdle
 ---------------------------------------------------------------------------------
 (3) _I2C_Stop                                             1     1      0     938
                                              3 COMMON     1     1      0
                         _I2C_WaitIF
                       _I2C_WaitIdle
 ---------------------------------------------------------------------------------
 (4) _I2C_Start                                            1     1      0     938
                                              3 COMMON     1     1      0
                         _I2C_WaitIF
                       _I2C_WaitIdle
 ---------------------------------------------------------------------------------
 (4) _I2C_WaitIdle                                         3     1      2     402
                                              0 COMMON     3     1      2
 ---------------------------------------------------------------------------------
 (4) _I2C_WaitIF                                           3     1      2     478
                                              0 COMMON     3     1      2
 ---------------------------------------------------------------------------------
 (1) _I2C_Init                                             1     1      0       0
                                              0 COMMON     1     1      0
                    _I2C_ClearErrors
 ---------------------------------------------------------------------------------
 (2) _I2C_ClearErrors                                      0     0      0       0
 ---------------------------------------------------------------------------------
 Estimated maximum stack depth 4
 ---------------------------------------------------------------------------------

 Call Graph Graphs:

 _main (ROOT)
   _I2C_Init
     _I2C_ClearErrors
   _OLED_fill
     _I2C_Start
       _I2C_WaitIF
       _I2C_WaitIdle
     _I2C_Stop
       _I2C_WaitIF
       _I2C_WaitIdle
     _I2C_WriteByte
       _I2C_WaitIF
       _I2C_WaitIdle
     _OLED_setpos
       _I2C_Start
       _I2C_Stop
       _I2C_WriteByte
   _OLED_init
     _I2C_Start
     _I2C_Stop
     _I2C_WriteByte
   _initMain
     _internal_32
   _test_border
     _OLED_data_start
       _I2C_Start
       _I2C_WriteByte
       _OLED_setpos
     _OLED_end
       _I2C_Stop
     _OLED_fill
     _OLED_send
       _I2C_WriteByte
   _test_checkerboard
     _OLED_data_start
     _OLED_end
     _OLED_send
   _test_fill_pattern
     _OLED_fill
   _test_hello
     _OLED_data_start
     _OLED_end
     _OLED_fill
     _OLED_send
   _test_horizontal_bars
     _OLED_data_start
     _OLED_end
     _OLED_send
   _test_scroll
     _OLED_data_start
     _OLED_end
     _OLED_send
   _test_smiley
     _OLED_data_start
     _OLED_end
     _OLED_fill
     _OLED_send
   _test_vertical_bars
     _OLED_data_start
     _OLED_end
     _OLED_send

 Address spaces:
Name               Size   Autos  Total    Cost      Usage
BIGRAM             7F0      0       0       0        0.0%
NULL                 0      0       0       0        0.0%
CODE                 0      0       0       0        0.0%
BITCOMMON            E      0       0       1        0.0%
BITSFR0              0      0       0       1        0.0%
SFR0                 0      0       0       1        0.0%
COMMON               E      E       E       2      100.0%
BITSFR1              0      0       0       2        0.0%
SFR1                 0      0       0       2        0.0%
BITSFR2              0      0       0       3        0.0%
SFR2                 0      0       0       3        0.0%
STACK                0      0       0       3        0.0%
BITBANK0            50      0       0       4        0.0%
BITSFR3              0      0       0       4        0.0%
SFR3                 0      0       0       4        0.0%
BANK0               50      C      14       5       25.0%
BITSFR4              0      0       0       5        0.0%
SFR4                 0      0       0       5        0.0%
BITBANK1            50      0       0       6        0.0%
BITSFR5              0      0       0       6        0.0%
SFR5                 0      0       0       6        0.0%
BANK1               50      0       0       7        0.0%
BITSFR6              0      0       0       7        0.0%
SFR6                 0      0       0       7        0.0%
BITBANK2            50      0       0       8        0.0%
BITSFR7              0      0       0       8        0.0%
SFR7                 0      0       0       8        0.0%
BANK2               50      0       0       9        0.0%
BITSFR8              0      0       0       9        0.0%
SFR8                 0      0       0       9        0.0%
BITBANK3            50      0       0      10        0.0%
BITSFR9              0      0       0      10        0.0%
SFR9                 0      0       0      10        0.0%
BANK3               50      0       0      11        0.0%
BITSFR10             0      0       0      11        0.0%
SFR10                0      0       0      11        0.0%
BITBANK4            50      0       0      12        0.0%
BITSFR11             0      0       0      12        0.0%
SFR11                0      0       0      12        0.0%
BANK4               50      0       0      13        0.0%
BITSFR12             0      0       0      13        0.0%
SFR12                0      0       0      13        0.0%
BITSFR13             0      0       0      14        0.0%
SFR13                0      0       0      14        0.0%
ABS                  0      0      22      14        0.0%
BITBANK5            50      0       0      15        0.0%
BITSFR14             0      0       0      15        0.0%
SFR14                0      0       0      15        0.0%
BANK5               50      0       0      16        0.0%
BITSFR15             0      0       0      16        0.0%
SFR15                0      0       0      16        0.0%
BITBANK6            50      0       0      17        0.0%
BITSFR16             0      0       0      17        0.0%
SFR16                0      0       0      17        0.0%
BANK6               50      0       0      18        0.0%
BITSFR17             0      0       0      18        0.0%
SFR17                0      0       0      18        0.0%
BITBANK7            50      0       0      19        0.0%
BITSFR18             0      0       0      19        0.0%
SFR18                0      0       0      19        0.0%
BANK7               50      0       0      20        0.0%
BITSFR19             0      0       0      20        0.0%
SFR19                0      0       0      20        0.0%
BITBANK8            50      0       0      21        0.0%
BITSFR20             0      0       0      21        0.0%
SFR20                0      0       0      21        0.0%
BANK8               50      0       0      22        0.0%
BITSFR21             0      0       0      22        0.0%
SFR21                0      0       0      22        0.0%
BITBANK9            50      0       0      23        0.0%
BITSFR22             0      0       0      23        0.0%
SFR22                0      0       0      23        0.0%
BANK9               50      0       0      24        0.0%
BITSFR23             0      0       0      24        0.0%
SFR23                0      0       0      24        0.0%
BITBANK10           50      0       0      25        0.0%
BITSFR24             0      0       0      25        0.0%
SFR24                0      0       0      25        0.0%
BANK10              50      0       0      26        0.0%
BITSFR25             0      0       0      26        0.0%
SFR25                0      0       0      26        0.0%
BITBANK11           50      0       0      27        0.0%
BITSFR26             0      0       0      27        0.0%
SFR26                0      0       0      27        0.0%
BITSFR27             0      0       0      28        0.0%
SFR27                0      0       0      28        0.0%
DATA                 0      0      22      28        0.0%
BANK11              50      0       0      29        0.0%
BITSFR28             0      0       0      29        0.0%
SFR28                0      0       0      29        0.0%
BITBANK12           50      0       0      30        0.0%
BITSFR29             0      0       0      30        0.0%
SFR29                0      0       0      30        0.0%
BANK12              50      0       0      31        0.0%
BITSFR30             0      0       0      31        0.0%
SFR30                0      0       0      31        0.0%
BITBANK13           50      0       0      32        0.0%
BITSFR31             0      0       0      32        0.0%
SFR31                0      0       0      32        0.0%
BANK13              50      0       0      33        0.0%
BITBANK14           50      0       0      34        0.0%
BANK14              50      0       0      35        0.0%
BITBANK15           50      0       0      36        0.0%
BANK15              50      0       0      37        0.0%
BITBANK16           50      0       0      38        0.0%
BANK16              50      0       0      39        0.0%
BITBANK17           50      0       0      40        0.0%
BANK17              50      0       0      41        0.0%
BITBANK18           50      0       0      42        0.0%
BANK18              50      0       0      43        0.0%
BITBANK19           50      0       0      44        0.0%
BANK19              50      0       0      45        0.0%
BITBANK20           50      0       0      46        0.0%
BANK20              50      0       0      47        0.0%
BITBANK21           50      0       0      48        0.0%
BANK21              50      0       0      49        0.0%
BITBANK22           50      0       0      50        0.0%
BANK22              50      0       0      51        0.0%
BITBANK23           50      0       0      52        0.0%
BANK23              50      0       0      53        0.0%
BITBANK24           50      0       0      54        0.0%
BANK24              50      0       0      55        0.0%
BITBANK25           20      0       0      56        0.0%
BANK25              20      0       0      57        0.0%


Microchip Technology PIC Macro Assembler V2.46 build 20240104201356 
Symbol Table                                                                                   Fri Jan 30 16:33:05 2026

                 _SSPSTATbits 0214                            l17 0395                            l61 03BE  
                          l70 0384                            l63 03DA                            l80 03E9  
                          l81 03FD                            l82 03FB                            l90 040C  
                          l67 03BC                            l91 0420                            l76 0444  
                          l92 041E                            l95 04F2                            l96 050F  
                          l97 0505                            l98 050C                           l205 0637  
                         l214 05EC                           l231 072B                           l160 0574  
                         l242 0692                           l163 0377                           l172 05AC  
                         l181 04E2                           l190 053F                           l263 0469  
                         l271 04B7                           l280 036B                           l177 04BE  
                         l266 048F                           l274 03A8                           l277 0371  
                         l910 03A9                           l912 03AE                           l920 0540  
                         l914 03AF                           l930 0554                           l922 0543  
                         l916 03B1                           l940 0560                           l932 0555  
                         l924 054F                           l918 03B4                           l950 0573  
                         l942 0565                           l934 0558                           l926 0551  
                         l944 0569                           l936 055A                           l928 0552  
                         l946 056E                           l938 055B                           l884 038D  
                         l948 0571                           l886 037E                           u600 040B  
                         u601 040A                           u530 03C3                           u610 041D  
                         u531 03C2                           u611 041C                           u540 03D9  
                         u620 04F1                           u700 04C2                           u541 03D8  
                         u621 04F0                           u701 04C1                           u550 0429  
                         u630 0504                           u710 04D5                           u551 0428  
                         u631 0503                           u711 04D4                           u560 042D  
                         u640 050A                           u800 062A                           u720 04E2  
                         u561 042C                           u641 0509                           u801 0629  
                         u721 04E1                           u570 0443                           u810 0637  
                         u730 051F                           u571 0442                           u811 0636  
                         u731 051E                           u580 03E8                           u660 04B4  
                         u740 0532                           u900 0718                           u820 05C3  
                         u581 03E7                           u661 04B3                           u741 0531  
                         u901 0717                           u821 05C2                           u590 03FA  
                         u750 053F                           u910 0728                           u670 057F  
                         u830 05DE                           u591 03F9                           u655 0484  
                         u751 053E                           u911 0727                           u831 05DD  
                         u760 05FC                           u680 059E                           u920 0659  
                         u840 05EC                           u761 05FB                           u681 059D  
                         u921 0658                           u841 05EB                           u770 0607  
                         u850 06AA                           u690 05AC                           u930 066D  
                         u771 0606                           u851 06A9                           u691 05AB  
                         u931 066C                           u780 0611                           u860 06C0  
                         u940 067B                           u781 0610                           u861 06BF  
                         u941 067A                           u925 0655                           u790 0617  
                         u870 06D6                           u950 0692                           u791 0616  
                         u871 06D5                           u951 0691                           u960 0466  
                         u880 06EC                           u961 0465                           u881 06EB  
                         u890 0702                           u891 0701          test_checkerboard@col 007B  
                         wreg 0009                          l1400 03E3                          l1410 03FE  
                        l1404 03ED                          l1412 0406                          l1406 03F5  
                        l1430 04F7                          l1422 04E4                          l1510 04C2  
                        l1502 04B9                          l1416 0410                          l1432 04FF  
                        l1424 04EC                          l1520 04D8                          l1512 04C7  
                        l1504 04BD                          l1418 0418                          l1442 046B  
                        l1530 0511                          l1522 04DC                          l1514 04CB  
                        l1372 03C5                          l1380 0421                          l1436 050A  
                        l1428 04F4                          l1460 0397                          l1452 04A3  
                        l1444 0491                          l1540 051F                          l1532 0515  
                        l1524 0510                          l1700 070E                          l1620 05D3  
                        l1612 05BA                          l1604 05B4                          l1516 04CF  
                        l1374 03CD                          l1366 03BD                          l1390 042F  
                        l1382 0422                          l1438 050D                          l1454 04A7  
                        l1446 04A1                          l1462 036D                          l1550 0535  
                        l1542 0524                          l1710 071E                          l1702 0712  
                        l1630 0693                          l1470 0583                          l1622 05D8  
                        l1614 05BD                          l1606 05B8                          l1518 04D5  
                        l1376 03D9                          l1368 03C3                          l1384 0429  
                        l1392 0437                          l1464 0368                          l1456 04AB  
                        l1552 0539                          l1544 0528                          l1712 0722  
                        l1704 0718                          l1640 06A0                          l1632 069B  
                        l1624 05DE                          l1616 05C3                          l1394 0443  
                        l1386 042D                          l1458 04B4                          l1570 05F7  
                        l1562 05F2                          l1554 05ED                          l1546 052C  
                        l1538 0516                          l1466 0373                          l1714 0728  
                        l1650 06AB                          l1642 06A4                          l1490 059E  
                        l1730 063F                          l1722 063A                          l1626 05E1  
                        l1618 05CF                          l1580 0611                          l1572 05FC  
                        l1564 05F6                          l1556 05F1                          l1548 0532  
                        l1708 071A                          l1652 06B6                          l1644 06AA  
                        l1492 05A1                          l1484 058B                          l1476 0585  
                        l1468 0575                          l1740 065E                          l1716 0638  
                        l1628 05E6                          l1820 073E                          l1398 03DB  
                        l1590 062A                          l1582 0617                          l1574 0601  
                        l1662 06C1                          l1654 06BA                          l1638 069C  
                        l1494 05A6                          l1486 0593                          l1478 0589  
                        l1750 0675                          l1742 0662                          l1830 0762  
                        l1822 0741                          l1760 0450                          l1592 062D  
                        l1584 061C                          l1576 0607                          l1680 06EC  
                        l1664 06CC                          l1656 06C0                          l1488 0598  
                        l1752 067B                          l1744 0667                          l1736 0641  
                        l1728 063B                          l1496 04B8                          l1840 078F  
                        l1832 076E                          l1824 074D                          l1816 072C  
                        l1770 0460                          l1594 0631                          l1578 060C  
                        l1586 0620                          l1690 06FC                          l1674 06D7  
                        l1666 06D0                          l1754 0687                          l1746 066D  
                        l1738 0659                          l1850 07B0                          l1842 0792  
                        l1834 0772                          l1826 0751                          l1818 0732  
                        l1772 0466                          l1588 0624                          l1692 0702  
                        l1676 06E2                          l1668 06D6                          l1756 068C  
                        l1748 0670                          l1596 05AD                          l1860 07DB  
                        l1852 07BC                          l1844 079E                          l1836 077F  
                        l1828 075E                          l1766 0451                          l1758 0445  
                        l1686 06ED                          l1678 06E6                          l1598 05B1  
                        l1862 07DE                          l1854 07BF                          l1846 07A1  
                        l1838 0783                          l1768 045C                          l1688 06F8  
                        l1864 07EB                          l1856 07CB                          l1848 07AD  
                        l1698 0703                          l1858 07CE                          u1107 0789  
                        u1117 0798                          u1207 03C8                          u1127 07A7  
                        u1217 03B7                          u1137 07B6                          u1057 0738  
                        u1147 07C5                          u1067 0747                          u1157 07D4  
                        u1077 0757                          u1167 07E4                          u1087 0768  
                        u1177 0680                          u1097 0778                          u1187 0548  
                        u1197 0432                          _SCS0 04C8                          _SCS1 04C9  
               OLED_send@data 0075              OLED_fill@pattern 0078         test_checkerboard@page 007C  
                        _main 072C              __end_of_I2C_Init 03BD                          fsr0h 0005  
                        fsr1h 0007                          indf0 0000                          fsr0l 0004  
                        indf1 0001                          fsr1l 0006                          btemp 007E  
            __end_of_I2C_Stop 0421                          start 0003                  test_smiley@i 0020  
               test_hello@col 007C                         ?_main 0070                         _IRCF0 04CB  
                       _IRCF1 04CC                         _IRCF2 04CD                         _IRCF3 04CE  
            __end_of_OLED_end 036C               __end_of_letterE 0832               __end_of_letterH 0838  
             __end_of_letterL 082C               __end_of_letterO 0826             __end_of_I2C_Start 03FE  
                _I2C_WaitIdle 0421                  ?_OLED_setpos 0075          I2C_WaitIF@timeout_ms 0070  
                       status 0003                         wtemp0 007E                  ?_internal_32 0070  
             __initialization 07F1                  __end_of_main 07F1                        ??_main 002A  
              test_border@col 007C                  ??_I2C_WaitIF 0072             __end_of_OLED_fill 04B8  
           __end_of_OLED_init 046A             __end_of_OLED_send 0372                        _SPLLEN 04CF  
                      _SSPADD 0212                        _SSPBUF 0211             ??_OLED_data_start 0078  
          _test_vertical_bars 04B8              __end_of_initMain 0575             test_scroll@offset 0022  
         ?_test_vertical_bars 0070                        _smiley 0818            __end_of_I2C_WaitIF 03DB  
                   ?_I2C_Init 0070                     ?_I2C_Stop 0070                  ?_test_border 0070  
             I2C_WriteByte@st 0074          ??_test_vertical_bars 0079                  ?_test_scroll 0070  
                ?_test_smiley 0070       __end_of__initialization 07FD                 _OLED_INIT_CMD 0800  
                   ?_OLED_end 0070                __pcstackCOMMON 0070                 _I2C_WriteByte 04E3  
                __pidataBANK0 0385                test_scroll@col 0021  __end_of_test_horizontal_bars 05AD  
                  ??_I2C_Init 0070                    ??_I2C_Stop 0073                test_smiley@col 0022  
   test_horizontal_bars@F6088 002C                    ??_OLED_end 0074                    __pmaintext 072C  
              ?_I2C_WriteByte 0070               test_border@page 007D             _test_checkerboard 0510  
                  I2C_Stop@st 0073      test_fill_pattern@pattern 007B            ?_test_checkerboard 0070  
       test_vertical_bars@col 007B           ??_test_checkerboard 0079                       _PPSLOCK 0E0F  
                     _SSPCON2 0216        I2C_WaitIdle@timeout_ms 0070                     ?_initMain 0070  
                   _I2C_Start 03DB     __end_of_test_checkerboard 0540             ??_I2C_ClearErrors 0070  
                     __ptext1 04B8                       __ptext2 05AD                       __ptext3 0638  
                     __ptext4 0575                       __ptext5 0693                       __ptext6 0372  
                     __ptext7 0510                       __ptext8 05ED                       __ptext9 036C  
                     _letterE 082C                       _letterH 0832                       _letterL 0826  
                     _letterO 0820          end_of_initialization 07FD               _OLED_data_start 0396  
                  ??_initMain 0070                       init_ram 0378                       initloop 0379  
                  ?_I2C_Start 0070               ??_I2C_WriteByte 0073                     _OLED_fill 0490  
        _test_horizontal_bars 0575                     _OLED_init 0445                     _OLED_send 036C  
                  _test_hello 0693                     _TRISCbits 008E                   test_hello@i 007D  
       ?_test_horizontal_bars 0070           OLED_data_start@page 0078                    ?_OLED_fill 0070  
                  ?_OLED_init 0070                    ?_OLED_send 0070                  OLED_setpos@x 0077  
                OLED_setpos@y 0075             _test_fill_pattern 0372            ?_test_fill_pattern 0070  
             test_scroll@page 0020                __end_of_smiley 0820       __end_of_OLED_data_start 03A9  
         start_initialization 07F1           ??_test_fill_pattern 007B                   ??_I2C_Start 0073  
             test_smiley@page 0021     __end_of_test_fill_pattern 0378                   __pdataBANK0 002C  
                 ?_test_hello 0070                    OLED_fill@i 0079                    OLED_init@i 0076  
                   ___latbits 0003                 __pcstackBANK0 0020                 ?_I2C_WaitIdle 0070  
               ??_OLED_setpos 0076        ??_test_horizontal_bars 0079               _I2C_ClearErrors 037E  
               ??_internal_32 0070                   ??_OLED_fill 0078                   ??_OLED_init 0075  
                 ??_OLED_send 0075          __end_of_testPattern1 083D          __end_of_testPattern2 083C  
        __end_of_testPattern3 083B          __end_of_testPattern4 083A          __end_of_testPattern5 0839  
                 I2C_Start@st 0073                      _I2C_Init 03A9                      _I2C_Stop 03FE  
            ?_OLED_data_start 0070                ??_I2C_WaitIdle 0072        test_vertical_bars@page 007A  
                    _OLED_end 0368                      _PIR1bits 0011                      _PIR2bits 0012  
         __end_of_OLED_setpos 0490           __end_of_internal_32 0396  test_horizontal_bars@patterns 0020  
     __end_of_I2C_ClearErrors 0385                 ??_test_border 007B                    _I2C_WaitIF 03BD  
               ??_test_scroll 0079         __end_of_OLED_INIT_CMD 0818                 ??_test_smiley 007B  
       __end_of_I2C_WriteByte 0510                    _ANSELCbits 018E                      __ptext10 0490  
                    __ptext11 0368                      __ptext20 0421                      __ptext12 0396  
                    __ptext21 03BD                      __ptext13 046A                      __ptext22 03A9  
                    __ptext14 0540                      __ptext23 037E                      __ptext15 038D  
                    __ptext16 0445                      __ptext17 04E3                      __ptext18 03FE  
                    __ptext19 03DB                      _initMain 0540                   _OLED_setpos 046A  
               _SSPDATPPSbits 0E21                   _internal_32 038D           __end_of_test_border 0638  
         __end_of_test_scroll 0693           __end_of_test_smiley 05ED                    _RC4PPSbits 0EA4  
               _SSPCLKPPSbits 0E20                    _RC5PPSbits 0EA5      test_horizontal_bars@page 0029  
        __end_of_I2C_WaitIdle 0445                  ??_test_hello 007B                __pstringtext10 083B  
              __pstringtext11 083C              ?_I2C_ClearErrors 0070    __end_of_test_vertical_bars 04E3  
                 ?_I2C_WaitIF 0070                  _testPattern1 083C                  _testPattern2 083B  
                _testPattern3 083A                  _testPattern4 0839                  _testPattern5 0838  
                 _PPSLOCKbits 0E0F            __end_of_test_hello 072C       test_horizontal_bars@col 0028  
               __pstringtext1 0800                 __pstringtext2 0818                 __pstringtext3 0820  
               __pstringtext4 0826                 __pstringtext5 082C                 __pstringtext6 0832  
               __pstringtext7 0838                 __pstringtext8 0839                 __pstringtext9 083A  
                 _SSPCON1bits 0215                   _SSPCON2bits 0216                   _test_border 05ED  
                 _test_scroll 0638                   _test_smiley 05AD             I2C_WriteByte@data 0073  
                  _SSPCONbits 0215  
